 dsatest

 Timestamp is 511c9ae7 (Thu Feb 14 17:05:59 2013)

 Preferred load address is 00010000

 Start         Length     Name                   Class
 0001:00000000 000560a8H .text                   CODE
 0002:00000000 0002c6f5H .rdata                  DATA
 0002:0002c6f8 00000014H .xdata                  DATA
 0002:0002c70c 00000014H .idata$2                DATA
 0002:0002c720 00000014H .idata$3                DATA
 0002:0002c734 0000014cH .idata$4                DATA
 0002:0002c880 0000000cH .idata$6                DATA
 0002:0002c88c 00000000H .edata                  DATA
 0003:00000000 0000014cH .idata$5                DATA
 0003:0000014c 00000004H .CRT$XCA                DATA
 0003:00000150 00000004H .CRT$XCZ                DATA
 0003:00000154 00000004H .CRT$XIA                DATA
 0003:00000158 00000004H .CRT$XIZ                DATA
 0003:0000015c 00000004H .CRT$XPA                DATA
 0003:00000160 00000004H .CRT$XPZ                DATA
 0003:00000164 00000004H .CRT$XTA                DATA
 0003:00000168 00000004H .CRT$XTZ                DATA
 0003:00000170 00004bf0H .data                   DATA
 0003:00004d60 00002021H .bss                    DATA
 0004:00000000 00003708H .pdata                  DATA

  Address         Publics by Value              Rva+Base     Lib:Object

 0000:00000000       ___safe_se_handler_table   00000000     <absolute>
 0000:00000000       ___safe_se_handler_count   00000000     <absolute>
 0001:000000d0       main                       000110d0 f   dsatest.obj
 0001:000014e8       BIO_vprintf                000124e8 f   libeay32:b_print.obj
 0001:000015b0       BIO_vsnprintf              000125b0 f   libeay32:b_print.obj
 0001:00001614       BIO_printf                 00012614 f   libeay32:b_print.obj
 0001:00001634       BIO_snprintf               00012634 f   libeay32:b_print.obj
 0001:00001654       BIO_set                    00012654 f   libeay32:bio_lib.obj
 0001:000016f4       BIO_free                   000126f4 f   libeay32:bio_lib.obj
 0001:000017b8       BIO_clear_flags            000127b8 f   libeay32:bio_lib.obj
 0001:000017c8       BIO_test_flags             000127c8 f   libeay32:bio_lib.obj
 0001:000017d4       BIO_set_flags              000127d4 f   libeay32:bio_lib.obj
 0001:000017e4       BIO_read                   000127e4 f   libeay32:bio_lib.obj
 0001:00001914       BIO_write                  00012914 f   libeay32:bio_lib.obj
 0001:00001a48       BIO_puts                   00012a48 f   libeay32:bio_lib.obj
 0001:00001b70       BIO_gets                   00012b70 f   libeay32:bio_lib.obj
 0001:00001c98       BIO_indent                 00012c98 f   libeay32:bio_lib.obj
 0001:00001cf4       BIO_ctrl                   00012cf4 f   libeay32:bio_lib.obj
 0001:00001df0       BIO_callback_ctrl          00012df0 f   libeay32:bio_lib.obj
 0001:00001ef4       BIO_push                   00012ef4 f   libeay32:bio_lib.obj
 0001:00001f48       BIO_find_type              00012f48 f   libeay32:bio_lib.obj
 0001:00001f90       BIO_next                   00012f90 f   libeay32:bio_lib.obj
 0001:00001fa0       BIO_free_all               00012fa0 f   libeay32:bio_lib.obj
 0001:00001fd4       BIO_copy_next_retry        00012fd4 f   libeay32:bio_lib.obj
 0001:00001ff8       BIO_new                    00012ff8 f   libeay32:bio_lib.obj
 0001:00002070       BIO_int_ctrl               00013070 f   libeay32:bio_lib.obj
 0001:000020d0       CRYPTO_mem_ctrl            000130d0 f   libeay32:mem_dbg.obj
 0001:00002244       CRYPTO_is_mem_check_on     00013244 f   libeay32:mem_dbg.obj
 0001:000022d8       CRYPTO_dbg_set_options     000132d8 f   libeay32:mem_dbg.obj
 0001:000022e8       CRYPTO_dbg_get_options     000132e8 f   libeay32:mem_dbg.obj
 0001:00002424       CRYPTO_push_info_          00013424 f   libeay32:mem_dbg.obj
 0001:000024f4       CRYPTO_pop_info            000134f4 f   libeay32:mem_dbg.obj
 0001:00002534       CRYPTO_dbg_malloc          00013534 f   libeay32:mem_dbg.obj
 0001:000026cc       CRYPTO_dbg_free            000136cc f   libeay32:mem_dbg.obj
 0001:0000277c       CRYPTO_dbg_realloc         0001377c f   libeay32:mem_dbg.obj
 0001:00002a74       CRYPTO_mem_leaks           00013a74 f   libeay32:mem_dbg.obj
 0001:00003274       ERR_free_strings           00014274 f   libeay32:err.obj
 0001:0000329c       ERR_lib_error_string       0001429c f   libeay32:err.obj
 0001:000032ec       ERR_func_error_string      000142ec f   libeay32:err.obj
 0001:00003348       ERR_reason_error_string    00014348 f   libeay32:err.obj
 0001:000033cc       ERR_remove_thread_state    000143cc f   libeay32:err.obj
 0001:00003420       ERR_get_state              00014420 f   libeay32:err.obj
 0001:00003520       ERR_set_error_data         00014520 f   libeay32:err.obj
 0001:00003574       ERR_add_error_vdata        00014574 f   libeay32:err.obj
 0001:00003648       ERR_set_mark               00014648 f   libeay32:err.obj
 0001:00003688       ERR_pop_to_mark            00014688 f   libeay32:err.obj
 0001:00003858       ERR_load_ERR_strings       00014858 f   libeay32:err.obj
 0001:000039e8       ERR_load_strings           000149e8 f   libeay32:err.obj
 0001:00003a0c       ERR_put_error              00014a0c f   libeay32:err.obj
 0001:00003b00       ERR_clear_error            00014b00 f   libeay32:err.obj
 0001:00003cc8       ERR_error_string_n         00014cc8 f   libeay32:err.obj
 0001:00003e08       ERR_add_error_data         00014e08 f   libeay32:err.obj
 0001:00003e28       ERR_get_error_line_data    00014e28 f   libeay32:err.obj
 0001:00003e60       ERR_peek_last_error        00014e60 f   libeay32:err.obj
 0001:000042d4       CRYPTO_cleanup_all_ex_data 000152d4 f   libeay32:ex_data.obj
 0001:00004308       CRYPTO_new_ex_data         00015308 f   libeay32:ex_data.obj
 0001:00004354       CRYPTO_free_ex_data        00015354 f   libeay32:ex_data.obj
 0001:000043a0       CRYPTO_set_ex_data         000153a0 f   libeay32:ex_data.obj
 0001:00004474       CRYPTO_get_ex_data         00015474 f   libeay32:ex_data.obj
 0001:00004964       DSA_new_method             00015964 f   libeay32:dsa_lib.obj
 0001:00004b14       DSA_free                   00015b14 f   libeay32:dsa_lib.obj
 0001:00004c08       DSA_up_ref                 00015c08 f   libeay32:dsa_lib.obj
 0001:00004c48       DSA_size                   00015c48 f   libeay32:dsa_lib.obj
 0001:00004cac       DSA_new                    00015cac f   libeay32:dsa_lib.obj
 0001:00004cc0       ERR_print_errors_cb        00015cc0 f   libeay32:err_prn.obj
 0001:00004dd0       ERR_print_errors           00015dd0 f   libeay32:err_prn.obj
 0001:00004e68       d2i_DSA_SIG                00015e68 f   libeay32:dsa_asn1.obj
 0001:00004edc       d2i_DSAPrivateKey          00015edc f   libeay32:dsa_asn1.obj
 0001:00004ef4       i2d_DSAPrivateKey          00015ef4 f   libeay32:dsa_asn1.obj
 0001:00004f0c       d2i_DSAparams              00015f0c f   libeay32:dsa_asn1.obj
 0001:00004f24       i2d_DSAparams              00015f24 f   libeay32:dsa_asn1.obj
 0001:00004f3c       dsa_pub_internal_it        00015f3c f   libeay32:dsa_asn1.obj
 0001:00004f48       i2d_DSAPublicKey           00015f48 f   libeay32:dsa_asn1.obj
 0001:00004f60       DSA_sign                   00015f60 f   libeay32:dsa_asn1.obj
 0001:00004fe0       DSA_verify                 00015fe0 f   libeay32:dsa_asn1.obj
 0001:00005198       DSA_generate_key           00016198 f   libeay32:dsa_key.obj
 0001:000051c8       BN_value_one               000161c8 f   libeay32:bn_lib.obj
 0001:000051d4       BN_num_bits_word           000161d4 f   libeay32:bn_lib.obj
 0001:00005218       BN_num_bits                00016218 f   libeay32:bn_lib.obj
 0001:0000524c       BN_clear_free              0001624c f   libeay32:bn_lib.obj
 0001:000052a4       BN_free                    000162a4 f   libeay32:bn_lib.obj
 0001:000052fc       BN_init                    000162fc f   libeay32:bn_lib.obj
 0001:00005314       BN_new                     00016314 f   libeay32:bn_lib.obj
 0001:000054d8       bn_expand2                 000164d8 f   libeay32:bn_lib.obj
 0001:00005524       BN_copy                    00016524 f   libeay32:bn_lib.obj
 0001:000055ec       BN_set_word                000165ec f   libeay32:bn_lib.obj
 0001:00005644       BN_bin2bn                  00016644 f   libeay32:bn_lib.obj
 0001:00005740       BN_bn2bin                  00016740 f   libeay32:bn_lib.obj
 0001:0000579c       BN_ucmp                    0001679c f   libeay32:bn_lib.obj
 0001:00005808       BN_cmp                     00016808 f   libeay32:bn_lib.obj
 0001:000058d0       BN_set_bit                 000168d0 f   libeay32:bn_lib.obj
 0001:0000596c       BN_is_bit_set              0001696c f   libeay32:bn_lib.obj
 0001:000059ac       BN_mask_bits               000169ac f   libeay32:bn_lib.obj
 0001:00005a44       BN_set_negative            00016a44 f   libeay32:bn_lib.obj
 0001:00005a64       BN_dup                     00016a64 f   libeay32:bn_lib.obj
 0001:00005aa8       DSA_print                  00016aa8 f   libeay32:dsa_prn.obj
 0001:00005b0c       dsa_builtin_paramgen       00016b0c f   libeay32:dsa_gen.obj
 0001:0000626c       DSA_generate_parameters_ex 0001726c f   libeay32:dsa_gen.obj
 0001:00006320       RAND_get_rand_method       00017320 f   libeay32:rand_lib.obj
 0001:00006388       RAND_seed                  00017388 f   libeay32:rand_lib.obj
 0001:000063bc       RAND_add                   000173bc f   libeay32:rand_lib.obj
 0001:00006400       RAND_bytes                 00017400 f   libeay32:rand_lib.obj
 0001:00006448       RAND_pseudo_bytes          00017448 f   libeay32:rand_lib.obj
 0001:00006490       RAND_status                00017490 f   libeay32:rand_lib.obj
 0001:000064c8       ERR_load_crypto_strings    000174c8 f   libeay32:err_all.obj
 0001:000065a4       CRYPTO_set_mem_debug_functions 000175a4 f   libeay32:mem.obj
 0001:000065f4       CRYPTO_free_locked         000175f4 f   libeay32:mem.obj
 0001:00006650       CRYPTO_malloc              00017650 f   libeay32:mem.obj
 0001:00006730       CRYPTO_realloc             00017730 f   libeay32:mem.obj
 0001:00006818       CRYPTO_realloc_clean       00017818 f   libeay32:mem.obj
 0001:0000693c       CRYPTO_free                0001793c f   libeay32:mem.obj
 0001:00006e10       BIO_new_file               00017e10 f   libeay32:bss_file.obj
 0001:00007060       BIO_new_fp                 00018060 f   libeay32:bss_file.obj
 0001:000070b0       CRYPTO_destroy_dynlockid   000180b0 f   libeay32:cryptlib.obj
 0001:000071b4       CRYPTO_get_dynlock_value   000181b4 f   libeay32:cryptlib.obj
 0001:00007250       CRYPTO_THREADID_current    00018250 f   libeay32:cryptlib.obj
 0001:000072cc       CRYPTO_THREADID_cmp        000182cc f   libeay32:cryptlib.obj
 0001:000072e0       CRYPTO_THREADID_cpy        000182e0 f   libeay32:cryptlib.obj
 0001:000072f4       CRYPTO_THREADID_hash       000182f4 f   libeay32:cryptlib.obj
 0001:000072fc       OPENSSL_showfatal          000182fc f   libeay32:cryptlib.obj
 0001:00007484       OpenSSLDie                 00018484 f   libeay32:cryptlib.obj
 0001:000074b8       CRYPTO_memcmp              000184b8 f   libeay32:cryptlib.obj
 0001:000074f4       CRYPTO_lock                000184f4 f   libeay32:cryptlib.obj
 0001:000075c0       CRYPTO_add_lock            000185c0 f   libeay32:cryptlib.obj
 0001:0000764c       lh_free                    0001864c f   libeay32:lhash.obj
 0001:000076b4       lh_doall                   000186b4 f   libeay32:lhash.obj
 0001:00007708       lh_doall_arg               00018708 f   libeay32:lhash.obj
 0001:00007a6c       lh_strhash                 00018a6c f   libeay32:lhash.obj
 0001:00007ad8       lh_num_items               00018ad8 f   libeay32:lhash.obj
 0001:00007ae8       lh_new                     00018ae8 f   libeay32:lhash.obj
 0001:00007be4       lh_insert                  00018be4 f   libeay32:lhash.obj
 0001:00007cc8       lh_delete                  00018cc8 f   libeay32:lhash.obj
 0001:00007d74       lh_retrieve                00018d74 f   libeay32:lhash.obj
 0001:00007dc4       BUF_strlcpy                00018dc4 f   libeay32:buf_str.obj
 0001:00007e14       BUF_strlcat                00018e14 f   libeay32:buf_str.obj
 0001:00007e50       BUF_strndup                00018e50 f   libeay32:buf_str.obj
 0001:00007ec4       BUF_strdup                 00018ec4 f   libeay32:buf_str.obj
 0001:00007ef4       sk_set_cmp_func            00018ef4 f   libeay32:stack.obj
 0001:00007f10       sk_new                     00018f10 f   libeay32:stack.obj
 0001:00007f98       sk_insert                  00018f98 f   libeay32:stack.obj
 0001:00008070       sk_delete                  00019070 f   libeay32:stack.obj
 0001:000080dc       sk_push                    000190dc f   libeay32:stack.obj
 0001:000080f0       sk_pop                     000190f0 f   libeay32:stack.obj
 0001:00008124       sk_free                    00019124 f   libeay32:stack.obj
 0001:00008150       sk_num                     00019150 f   libeay32:stack.obj
 0001:00008160       sk_value                   00019160 f   libeay32:stack.obj
 0001:0000818c       sk_set                     0001918c f   libeay32:stack.obj
 0001:000081c0       sk_sort                    000191c0 f   libeay32:stack.obj
 0001:000081fc       sk_is_sorted               000191fc f   libeay32:stack.obj
 0001:0000820c       sk_new_null                0001920c f   libeay32:stack.obj
 0001:00008220       sk_delete_ptr              00019220 f   libeay32:stack.obj
 0001:00008334       sk_find                    00019334 f   libeay32:stack.obj
 0001:00008348       sk_pop_free                00019348 f   libeay32:stack.obj
 0001:000083b0       DSA_OpenSSL                000193b0 f   libeay32:dsa_ossl.obj
 0001:00008bf8       engine_unlocked_init       00019bf8 f   libeay32:eng_init.obj
 0001:00008c50       engine_unlocked_finish     00019c50 f   libeay32:eng_init.obj
 0001:00008d14       ENGINE_init                00019d14 f   libeay32:eng_init.obj
 0001:00008d90       ENGINE_finish              00019d90 f   libeay32:eng_init.obj
 0001:00008e34       ENGINE_get_default_DSA     00019e34 f   libeay32:tb_dsa.obj
 0001:00008e50       ENGINE_get_DSA             00019e50 f   libeay32:tb_dsa.obj
 0001:00008f14       ASN1_put_eoc               00019f14 f   libeay32:asn1_lib.obj
 0001:00008f34       ASN1_object_size           00019f34 f   libeay32:asn1_lib.obj
 0001:00008f84       ASN1_STRING_set            00019f84 f   libeay32:asn1_lib.obj
 0001:00009074       ASN1_STRING_set0           0001a074 f   libeay32:asn1_lib.obj
 0001:000090a4       ASN1_STRING_type_new       0001a0a4 f   libeay32:asn1_lib.obj
 0001:00009110       ASN1_STRING_free           0001a110 f   libeay32:asn1_lib.obj
 0001:00009144       ASN1_STRING_cmp            0001a144 f   libeay32:asn1_lib.obj
 0001:00009184       ASN1_get_object            0001a184 f   libeay32:asn1_lib.obj
 0001:000092dc       ASN1_put_object            0001a2dc f   libeay32:asn1_lib.obj
 0001:000093f0       ASN1_STRING_copy           0001a3f0 f   libeay32:asn1_lib.obj
 0001:0000943c       ASN1_STRING_new            0001a43c f   libeay32:asn1_lib.obj
 0001:00009450       ASN1_STRING_dup            0001a450 f   libeay32:asn1_lib.obj
 0001:00009498       ASN1_INTEGER_it            0001a498 f   libeay32:tasn_typ.obj
 0001:000094a4       d2i_ASN1_INTEGER           0001a4a4 f   libeay32:tasn_typ.obj
 0001:000094bc       i2d_ASN1_INTEGER           0001a4bc f   libeay32:tasn_typ.obj
 0001:000094d4       ASN1_INTEGER_new           0001a4d4 f   libeay32:tasn_typ.obj
 0001:000094ec       ASN1_INTEGER_free          0001a4ec f   libeay32:tasn_typ.obj
 0001:00009504       ASN1_ENUMERATED_it         0001a504 f   libeay32:tasn_typ.obj
 0001:00009510       ASN1_ENUMERATED_free       0001a510 f   libeay32:tasn_typ.obj
 0001:00009528       ASN1_BIT_STRING_it         0001a528 f   libeay32:tasn_typ.obj
 0001:00009534       ASN1_BIT_STRING_new        0001a534 f   libeay32:tasn_typ.obj
 0001:0000954c       ASN1_BIT_STRING_free       0001a54c f   libeay32:tasn_typ.obj
 0001:00009564       ASN1_OCTET_STRING_it       0001a564 f   libeay32:tasn_typ.obj
 0001:00009570       i2d_ASN1_OCTET_STRING      0001a570 f   libeay32:tasn_typ.obj
 0001:00009588       ASN1_OCTET_STRING_new      0001a588 f   libeay32:tasn_typ.obj
 0001:000095a0       ASN1_OCTET_STRING_free     0001a5a0 f   libeay32:tasn_typ.obj
 0001:000095b8       ASN1_NULL_it               0001a5b8 f   libeay32:tasn_typ.obj
 0001:000095c4       ASN1_NULL_new              0001a5c4 f   libeay32:tasn_typ.obj
 0001:000095dc       ASN1_OBJECT_it             0001a5dc f   libeay32:tasn_typ.obj
 0001:000095e8       ASN1_UTF8STRING_it         0001a5e8 f   libeay32:tasn_typ.obj
 0001:000095f4       ASN1_IA5STRING_it          0001a5f4 f   libeay32:tasn_typ.obj
 0001:00009600       ASN1_GENERALIZEDTIME_it    0001a600 f   libeay32:tasn_typ.obj
 0001:0000960c       ASN1_ANY_it                0001a60c f   libeay32:tasn_typ.obj
 0001:00009618       ASN1_SEQUENCE_it           0001a618 f   libeay32:tasn_typ.obj
 0001:00009624       d2i_ASN1_TYPE              0001a624 f   libeay32:tasn_typ.obj
 0001:0000963c       i2d_ASN1_TYPE              0001a63c f   libeay32:tasn_typ.obj
 0001:00009654       ASN1_TYPE_new              0001a654 f   libeay32:tasn_typ.obj
 0001:0000966c       ASN1_TYPE_free             0001a66c f   libeay32:tasn_typ.obj
 0001:00009684       ASN1_PRINTABLE_it          0001a684 f   libeay32:tasn_typ.obj
 0001:00009690       DISPLAYTEXT_it             0001a690 f   libeay32:tasn_typ.obj
 0001:0000969c       DIRECTORYSTRING_it         0001a69c f   libeay32:tasn_typ.obj
 0001:000096a8       ASN1_BOOLEAN_it            0001a6a8 f   libeay32:tasn_typ.obj
 0001:000096b4       ASN1_FBOOLEAN_it           0001a6b4 f   libeay32:tasn_typ.obj
 0001:000096c0       ASN1_OCTET_STRING_NDEF_it  0001a6c0 f   libeay32:tasn_typ.obj
 0001:000096cc       d2i_ASN1_SEQUENCE_ANY      0001a6cc f   libeay32:tasn_typ.obj
 0001:000096e4       i2d_ASN1_SEQUENCE_ANY      0001a6e4 f   libeay32:tasn_typ.obj
 0001:000096fc       i2d_ASN1_SET_ANY           0001a6fc f   libeay32:tasn_typ.obj
 0001:00009714       DH_new_method              0001a714 f   libeay32:dh_lib.obj
 0001:000098cc       DH_free                    0001a8cc f   libeay32:dh_lib.obj
 0001:000099d0       DH_size                    0001a9d0 f   libeay32:dh_lib.obj
 0001:000099f4       DH_new                     0001a9f4 f   libeay32:dh_lib.obj
 0001:00009a08       BIGNUM_it                  0001aa08 f   libeay32:x_bignum.obj
 0001:00009a14       CBIGNUM_it                 0001aa14 f   libeay32:x_bignum.obj
 0001:00009b54       LONG_it                    0001ab54 f   libeay32:x_long.obj
 0001:00009b60       ZLONG_it                   0001ab60 f   libeay32:x_long.obj
 0001:00009d54       ASN1_tag2bit               0001ad54 f   libeay32:tasn_dec.obj
 0001:00009d6c       asn1_ex_c2i                0001ad6c f   libeay32:tasn_dec.obj
 0001:0000ac44       ASN1_item_ex_d2i           0001bc44 f   libeay32:tasn_dec.obj
 0001:0000ba18       ASN1_item_d2i              0001ca18 f   libeay32:tasn_dec.obj
 0001:0000bdc8       asn1_ex_i2c                0001cdc8 f   libeay32:tasn_enc.obj
 0001:0000c0b4       ASN1_item_ex_i2d           0001d0b4 f   libeay32:tasn_enc.obj
 0001:0000c78c       ASN1_item_i2d              0001d78c f   libeay32:tasn_enc.obj
 0001:0000c7a0       ASN1_item_dup              0001d7a0 f   libeay32:a_dup.obj
 0001:0000c834       DSA_do_sign                0001d834 f   libeay32:dsa_sign.obj
 0001:0000c850       DSA_sign_setup             0001d850 f   libeay32:dsa_sign.obj
 0001:0000c86c       DSA_SIG_new                0001d86c f   libeay32:dsa_sign.obj
 0001:0000c8a4       DSA_SIG_free               0001d8a4 f   libeay32:dsa_sign.obj
 0001:0000c8e0       DSA_do_verify              0001d8e0 f   libeay32:dsa_vrf.obj
 0001:0000c9d8       BN_CTX_new                 0001d9d8 f   libeay32:bn_ctx.obj
 0001:0000ca60       BN_CTX_free                0001da60 f   libeay32:bn_ctx.obj
 0001:0000cadc       BN_CTX_start               0001dadc f   libeay32:bn_ctx.obj
 0001:0000cbcc       BN_CTX_end                 0001dbcc f   libeay32:bn_ctx.obj
 0001:0000cc5c       BN_CTX_get                 0001dc5c f   libeay32:bn_ctx.obj
 0001:0000cce8       BN_mod_exp_recp            0001dce8 f   libeay32:bn_exp.obj
 0001:0000d0f4       BN_mod_exp_mont_consttime  0001e0f4 f   libeay32:bn_exp.obj
 0001:0000d698       BN_mod_exp_mont_word       0001e698 f   libeay32:bn_exp.obj
 0001:0000dab8       BN_mod_exp_mont            0001eab8 f   libeay32:bn_exp.obj
 0001:0000df18       BN_mod_exp                 0001ef18 f   libeay32:bn_exp.obj
 0001:0000e1e0       BN_rand                    0001f1e0 f   libeay32:bn_rand.obj
 0001:0000e210       BN_pseudo_rand             0001f210 f   libeay32:bn_rand.obj
 0001:0000e428       BN_rand_range              0001f428 f   libeay32:bn_rand.obj
 0001:0000e444       BN_pseudo_rand_range       0001f444 f   libeay32:bn_rand.obj
 0001:0000e460       OPENSSL_cleanse            0001f460 f   libeay32:mem_clr.obj
 0001:0000e4bc       EVP_PKEY_bits              0001f4bc f   libeay32:p_lib.obj
 0001:0000e4fc       EVP_PKEY_size              0001f4fc f   libeay32:p_lib.obj
 0001:0000e53c       EVP_PKEY_missing_parameters 0001f53c f   libeay32:p_lib.obj
 0001:0000e574       EVP_PKEY_new               0001f574 f   libeay32:p_lib.obj
 0001:0000e5f0       EVP_PKEY_type              0001f5f0 f   libeay32:p_lib.obj
 0001:0000e62c       EVP_PKEY_id                0001f62c f   libeay32:p_lib.obj
 0001:0000e634       EVP_PKEY_print_private     0001f634 f   libeay32:p_lib.obj
 0001:0000e6ac       EVP_PKEY_get_default_digest_nid 0001f6ac f   libeay32:p_lib.obj
 0001:0000e6f0       EVP_PKEY_copy_parameters   0001f6f0 f   libeay32:p_lib.obj
 0001:0000e8dc       EVP_PKEY_set_type          0001f8dc f   libeay32:p_lib.obj
 0001:0000e8f4       EVP_PKEY_assign            0001f8f4 f   libeay32:p_lib.obj
 0001:0000e92c       EVP_PKEY_set1_DSA          0001f92c f   libeay32:p_lib.obj
 0001:0000e958       EVP_PKEY_free              0001f958 f   libeay32:p_lib.obj
 0001:0000ecac       BN_from_montgomery         0001fcac f   libeay32:bn_mont.obj
 0001:0000ed18       BN_MONT_CTX_init           0001fd18 f   libeay32:bn_mont.obj
 0001:0000ed50       BN_MONT_CTX_free           0001fd50 f   libeay32:bn_mont.obj
 0001:0000ed8c       BN_MONT_CTX_set            0001fd8c f   libeay32:bn_mont.obj
 0001:0000ef54       BN_MONT_CTX_copy           0001ff54 f   libeay32:bn_mont.obj
 0001:0000efd0       BN_mod_mul_montgomery      0001ffd0 f   libeay32:bn_mont.obj
 0001:0000f05c       BN_MONT_CTX_new            0002005c f   libeay32:bn_mont.obj
 0001:0000f0a0       BN_MONT_CTX_set_locked     000200a0 f   libeay32:bn_mont.obj
 0001:0000f178       BN_uadd                    00020178 f   libeay32:bn_add.obj
 0001:0000f274       BN_usub                    00020274 f   libeay32:bn_add.obj
 0001:0000f41c       BN_sub                     0002041c f   libeay32:bn_add.obj
 0001:0000f514       BN_add                     00020514 f   libeay32:bn_add.obj
 0001:0000f5c8       BN_div                     000205c8 f   libeay32:bn_div.obj
 0001:0000fb7c       BN_lshift1                 00020b7c f   libeay32:bn_shift.obj
 0001:0000fc50       BN_rshift1                 00020c50 f   libeay32:bn_shift.obj
 0001:0000fd2c       BN_lshift                  00020d2c f   libeay32:bn_shift.obj
 0001:0000fe58       BN_rshift                  00020e58 f   libeay32:bn_shift.obj
 0001:0000ff70       BN_GENCB_call              00020f70 f   libeay32:bn_prime.obj
 0001:000103d4       BN_is_prime_fasttest_ex    000213d4 f   libeay32:bn_prime.obj
 0001:000107c8       BN_generate_prime_ex       000217c8 f   libeay32:bn_prime.obj
 0001:00010b30       EVP_MD_CTX_init            00021b30 f   libeay32:digest.obj
 0001:00010b48       EVP_MD_CTX_create          00021b48 f   libeay32:digest.obj
 0001:00010b80       EVP_DigestInit_ex          00021b80 f   libeay32:digest.obj
 0001:00010d98       EVP_DigestUpdate           00021d98 f   libeay32:digest.obj
 0001:00010db0       EVP_DigestFinal_ex         00021db0 f   libeay32:digest.obj
 0001:00010e5c       EVP_MD_CTX_cleanup         00021e5c f   libeay32:digest.obj
 0001:00010f28       EVP_MD_CTX_copy_ex         00021f28 f   libeay32:digest.obj
 0001:000110d8       EVP_Digest                 000220d8 f   libeay32:digest.obj
 0001:0001117c       EVP_MD_CTX_destroy         0002217c f   libeay32:digest.obj
 0001:00011198       EVP_MD_CTX_copy            00022198 f   libeay32:digest.obj
 0001:00011208       EVP_sha1                   00022208 f   libeay32:m_sha1.obj
 0001:0001126c       EVP_sha256                 0002226c f   libeay32:m_sha1.obj
 0001:000112d0       RAND_SSLeay                000222d0 f   libeay32:md_rand.obj
 0001:00011cd8       ENGINE_get_default_RAND    00022cd8 f   libeay32:tb_rand.obj
 0001:00011cf4       ENGINE_get_RAND            00022cf4 f   libeay32:tb_rand.obj
 0001:00011cfc       ERR_load_CMS_strings       00022cfc f   libeay32:cms_err.obj
 0001:00011d38       ERR_load_UI_strings        00022d38 f   libeay32:ui_err.obj
 0001:00011d74       ERR_load_OCSP_strings      00022d74 f   libeay32:ocsp_err.obj
 0001:00011db0       ERR_load_ENGINE_strings    00022db0 f   libeay32:eng_err.obj
 0001:00011dec       ERR_load_TS_strings        00022dec f   libeay32:ts_err.obj
 0001:00011e28       ERR_load_DSO_strings       00022e28 f   libeay32:dso_err.obj
 0001:00011e64       ERR_load_RAND_strings      00022e64 f   libeay32:rand_err.obj
 0001:00011ea0       ERR_load_PKCS12_strings    00022ea0 f   libeay32:pk12err.obj
 0001:00011edc       ERR_load_X509V3_strings    00022edc f   libeay32:v3err.obj
 0001:00011f18       ERR_load_PKCS7_strings     00022f18 f   libeay32:pkcs7err.obj
 0001:00011f54       ERR_load_BIO_strings       00022f54 f   libeay32:bio_err.obj
 0001:00011f90       ERR_load_ECDH_strings      00022f90 f   libeay32:ech_err.obj
 0001:00011fcc       ERR_load_ECDSA_strings     00022fcc f   libeay32:ecs_err.obj
 0001:00012008       ERR_load_EC_strings        00023008 f   libeay32:ec_err.obj
 0001:00012044       ERR_load_COMP_strings      00023044 f   libeay32:comp_err.obj
 0001:00012080       ERR_load_CRYPTO_strings    00023080 f   libeay32:cpt_err.obj
 0001:000120bc       ERR_load_CONF_strings      000230bc f   libeay32:conf_err.obj
 0001:000120f8       ERR_load_ASN1_strings      000230f8 f   libeay32:asn1_err.obj
 0001:00012134       ERR_load_X509_strings      00023134 f   libeay32:x509_err.obj
 0001:00012170       ERR_load_DSA_strings       00023170 f   libeay32:dsa_err.obj
 0001:000121ac       ERR_load_PEM_strings       000231ac f   libeay32:pem_err.obj
 0001:000121e8       ERR_load_OBJ_strings       000231e8 f   libeay32:obj_err.obj
 0001:00012224       ERR_load_BUF_strings       00023224 f   libeay32:buf_err.obj
 0001:00012264       ERR_load_EVP_strings       00023264 f   libeay32:evp_err.obj
 0001:000122a0       ERR_load_DH_strings        000232a0 f   libeay32:dh_err.obj
 0001:000122dc       ERR_load_RSA_strings       000232dc f   libeay32:rsa_err.obj
 0001:00012318       ERR_load_BN_strings        00023318 f   libeay32:bn_err.obj
 0001:00012354       OPENSSL_init               00023354 f   libeay32:o_init.obj
 0001:000123cc       OBJ_nid2obj                000233cc f   libeay32:obj_dat.obj
 0001:000124ac       OBJ_nid2sn                 000234ac f   libeay32:obj_dat.obj
 0001:00012590       OBJ_nid2ln                 00023590 f   libeay32:obj_dat.obj
 0001:000126b8       OBJ_bsearch_ex_            000236b8 f   libeay32:obj_dat.obj
 0001:0001279c       OBJ_bsearch_               0002379c f   libeay32:obj_dat.obj
 0001:000127c4       OBJ_obj2nid                000237c4 f   libeay32:obj_dat.obj
 0001:0001288c       OBJ_obj2txt                0002388c f   libeay32:obj_dat.obj
 0001:00012b8c       OBJ_ln2nid                 00023b8c f   libeay32:obj_dat.obj
 0001:00012c3c       OBJ_sn2nid                 00023c3c f   libeay32:obj_dat.obj
 0001:00012cec       OBJ_txt2obj                00023cec f   libeay32:obj_dat.obj
 0001:00012de0       BN_nnmod                   00023de0 f   libeay32:bn_mod.obj
 0001:00012e60       BN_mod_add                 00023e60 f   libeay32:bn_mod.obj
 0001:00012e9c       BN_mod_add_quick           00023e9c f   libeay32:bn_mod.obj
 0001:00012ef4       BN_mod_sub_quick           00023ef4 f   libeay32:bn_mod.obj
 0001:00012f44       BN_mod_mul                 00023f44 f   libeay32:bn_mod.obj
 0001:00012fd4       BN_mod_sqr                 00023fd4 f   libeay32:bn_mod.obj
 0001:00013018       BN_mod_lshift1_quick       00024018 f   libeay32:bn_mod.obj
 0001:00013070       BN_mod_lshift_quick        00024070 f   libeay32:bn_mod.obj
 0001:000135c0       BN_gcd                     000245c0 f   libeay32:bn_gcd.obj
 0001:00013694       BN_mod_inverse             00024694 f   libeay32:bn_gcd.obj
 0001:00013d08       BN_mod_exp2_mont           00024d08 f   libeay32:bn_exp2.obj
 0001:000143bc       engine_free_util           000253bc f   libeay32:eng_lib.obj
 0001:0001447c       ENGINE_free                0002547c f   libeay32:eng_lib.obj
 0001:00014490       engine_table_select        00025490 f   libeay32:eng_table.obj
 0001:0001461c       engine_table_doall         0002561c f   libeay32:eng_table.obj
 0001:00014650       ASN1_primitive_new         00025650 f   libeay32:tasn_new.obj
 0001:00014b8c       ASN1_item_ex_new           00025b8c f   libeay32:tasn_new.obj
 0001:00014ba0       ASN1_template_new          00025ba0 f   libeay32:tasn_new.obj
 0001:00014c78       ASN1_item_new              00025c78 f   libeay32:tasn_new.obj
 0001:00014cb0       ASN1_primitive_free        00025cb0 f   libeay32:tasn_fre.obj
 0001:00015024       ASN1_template_free         00026024 f   libeay32:tasn_fre.obj
 0001:000150d8       ASN1_item_free             000260d8 f   libeay32:tasn_fre.obj
 0001:000150f8       ASN1_item_ex_free          000260f8 f   libeay32:tasn_fre.obj
 0001:0001510c       DH_generate_key            0002610c f   libeay32:dh_key.obj
 0001:00015128       DH_compute_key             00026128 f   libeay32:dh_key.obj
 0001:00015144       DH_OpenSSL                 00026144 f   libeay32:dh_key.obj
 0001:000155e0       ENGINE_get_default_DH      000265e0 f   libeay32:tb_dh.obj
 0001:000155fc       ENGINE_get_DH              000265fc f   libeay32:tb_dh.obj
 0001:00015604       ASN1_INTEGER_cmp           00026604 f   libeay32:a_int.obj
 0001:0001564c       i2c_ASN1_INTEGER           0002664c f   libeay32:a_int.obj
 0001:000157a0       c2i_ASN1_INTEGER           000267a0 f   libeay32:a_int.obj
 0001:00015964       d2i_ASN1_UINTEGER          00026964 f   libeay32:a_int.obj
 0001:00015ad4       ASN1_INTEGER_set           00026ad4 f   libeay32:a_int.obj
 0001:00015bdc       ASN1_INTEGER_get           00026bdc f   libeay32:a_int.obj
 0001:00015c70       BN_to_ASN1_INTEGER         00026c70 f   libeay32:a_int.obj
 0001:00015d98       ASN1_INTEGER_to_BN         00026d98 f   libeay32:a_int.obj
 0001:00015e10       a2d_ASN1_OBJECT            00026e10 f   libeay32:a_object.obj
 0001:000161e8       i2t_ASN1_OBJECT            000271e8 f   libeay32:a_object.obj
 0001:000161fc       i2a_ASN1_OBJECT            000271fc f   libeay32:a_object.obj
 0001:000162d8       ASN1_OBJECT_new            000272d8 f   libeay32:a_object.obj
 0001:00016354       ASN1_OBJECT_free           00027354 f   libeay32:a_object.obj
 0001:000163d4       c2i_ASN1_OBJECT            000273d4 f   libeay32:a_object.obj
 0001:00016568       d2i_ASN1_OBJECT            00027568 f   libeay32:a_object.obj
 0001:00016608       ASN1_BIT_STRING_set        00027608 f   libeay32:a_bitstr.obj
 0001:00016618       i2c_ASN1_BIT_STRING        00027618 f   libeay32:a_bitstr.obj
 0001:0001671c       c2i_ASN1_BIT_STRING        0002771c f   libeay32:a_bitstr.obj
 0001:00016860       ASN1_BIT_STRING_set_bit    00027860 f   libeay32:a_bitstr.obj
 0001:000169b0       ASN1_BIT_STRING_get_bit    000279b0 f   libeay32:a_bitstr.obj
 0001:00016a0c       ASN1_TYPE_get              00027a0c f   libeay32:a_type.obj
 0001:00016a30       ASN1_TYPE_set              00027a30 f   libeay32:a_type.obj
 0001:00016a9c       ASN1_TYPE_set1             00027a9c f   libeay32:a_type.obj
 0001:00016b10       BUF_MEM_new                00027b10 f   libeay32:buffer.obj
 0001:00016b74       BUF_MEM_free               00027b74 f   libeay32:buffer.obj
 0001:00016bb4       BUF_MEM_grow               00027bb4 f   libeay32:buffer.obj
 0001:00016cbc       BUF_MEM_grow_clean         00027cbc f   libeay32:buffer.obj
 0001:00016dd8       asn1_get_choice_selector   00027dd8 f   libeay32:tasn_utl.obj
 0001:00016de8       asn1_set_choice_selector   00027de8 f   libeay32:tasn_utl.obj
 0001:00016e04       asn1_do_lock               00027e04 f   libeay32:tasn_utl.obj
 0001:00016e88       asn1_enc_init              00027e88 f   libeay32:tasn_utl.obj
 0001:00016ee0       asn1_enc_free              00027ee0 f   libeay32:tasn_utl.obj
 0001:00016f54       asn1_enc_save              00027f54 f   libeay32:tasn_utl.obj
 0001:00017000       asn1_enc_restore           00028000 f   libeay32:tasn_utl.obj
 0001:000170a8       asn1_get_field_ptr         000280a8 f   libeay32:tasn_utl.obj
 0001:000170c0       asn1_do_adb                000280c0 f   libeay32:tasn_utl.obj
 0001:000171b8       bn_mul_normal              000281b8 f   libeay32:bn_mul.obj
 0001:000172c8       BN_mul                     000282c8 f   libeay32:bn_mul.obj
 0001:000173e8       bn_sqr_normal              000283e8 f   libeay32:bn_sqr.obj
 0001:000174d4       BN_sqr                     000284d4 f   libeay32:bn_sqr.obj
 0001:0001760c       BN_RECP_CTX_init           0002860c f   libeay32:bn_recp.obj
 0001:00017634       BN_RECP_CTX_free           00028634 f   libeay32:bn_recp.obj
 0001:00017668       BN_RECP_CTX_set            00028668 f   libeay32:bn_recp.obj
 0001:000176b4       BN_reciprocal              000286b4 f   libeay32:bn_recp.obj
 0001:00017734       BN_div_recp                00028734 f   libeay32:bn_recp.obj
 0001:00017990       BN_mod_mul_reciprocal      00028990 f   libeay32:bn_recp.obj
 0001:00017a3c       BN_mod_word                00028a3c f   libeay32:bn_word.obj
 0001:00017aa0       BN_div_word                00028aa0 f   libeay32:bn_word.obj
 0001:00017b68       BN_add_word                00028b68 f   libeay32:bn_word.obj
 0001:00017c74       BN_sub_word                00028c74 f   libeay32:bn_word.obj
 0001:00017d78       BN_mul_word                00028d78 f   libeay32:bn_word.obj
 0001:00017e04       RSA_new_method             00028e04 f   libeay32:rsa_lib.obj
 0001:00017fe8       RSA_free                   00028fe8 f   libeay32:rsa_lib.obj
 0001:0001811c       RSA_new                    0002911c f   libeay32:rsa_lib.obj
 0001:00018130       EC_KEY_new                 00029130 f   libeay32:ec_key.obj
 0001:000181b4       EC_KEY_free                000291b4 f   libeay32:ec_key.obj
 0001:00018244       EC_KEY_generate_key        00029244 f   libeay32:ec_key.obj
 0001:000183a0       EC_KEY_get0_group          000293a0 f   libeay32:ec_key.obj
 0001:000183a8       EC_KEY_set_group           000293a8 f   libeay32:ec_key.obj
 0001:000183e8       EC_KEY_get0_private_key    000293e8 f   libeay32:ec_key.obj
 0001:000183f0       EC_KEY_get0_public_key     000293f0 f   libeay32:ec_key.obj
 0001:000183f8       EC_KEY_set_public_key      000293f8 f   libeay32:ec_key.obj
 0001:0001843c       EC_KEY_get_enc_flags       0002943c f   libeay32:ec_key.obj
 0001:00018444       EC_KEY_set_enc_flags       00029444 f   libeay32:ec_key.obj
 0001:0001844c       EC_KEY_get_conv_form       0002944c f   libeay32:ec_key.obj
 0001:00018454       EC_KEY_get_key_method_data 00029454 f   libeay32:ec_key.obj
 0001:000184c0       EC_KEY_insert_key_method_data 000294c0 f   libeay32:ec_key.obj
 0001:00018568       EVP_PKEY_asn1_get_count    00029568 f   libeay32:ameth_lib.obj
 0001:00018598       EVP_PKEY_asn1_get0         00029598 f   libeay32:ameth_lib.obj
 0001:000185e0       EVP_PKEY_asn1_find         000295e0 f   libeay32:ameth_lib.obj
 0001:000186c8       EVP_PKEY_asn1_find_str     000296c8 f   libeay32:ameth_lib.obj
 0001:000187b0       EVP_PKEY_asn1_free         000297b0 f   libeay32:ameth_lib.obj
 0001:000187f8       X509_ATTRIBUTE_SET_it      000297f8 f   libeay32:x_attrib.obj
 0001:00018804       X509_ATTRIBUTE_it          00029804 f   libeay32:x_attrib.obj
 0001:00018810       X509_ATTRIBUTE_new         00029810 f   libeay32:x_attrib.obj
 0001:00018828       X509_ATTRIBUTE_free        00029828 f   libeay32:x_attrib.obj
 0001:00018840       X509_ATTRIBUTE_dup         00029840 f   libeay32:x_attrib.obj
 0001:0001885c       X509_ATTRIBUTE_create      0002985c f   libeay32:x_attrib.obj
 0001:00018900       bn_mul_add_words           00029900 f   libeay32:bn_asm.obj
 0001:00018958       bn_mul_words               00029958 f   libeay32:bn_asm.obj
 0001:000189a4       bn_sqr_words               000299a4 f   libeay32:bn_asm.obj
 0001:000189d0       bn_div_words               000299d0 f   libeay32:bn_asm.obj
 0001:00018a00       bn_add_words               00029a00 f   libeay32:bn_asm.obj
 0001:00018a54       bn_sub_words               00029a54 f   libeay32:bn_asm.obj
 0001:00018acc       EVP_PKEY_meth_find         00029acc f   libeay32:pmeth_lib.obj
 0001:00018b64       EVP_PKEY_meth_free         00029b64 f   libeay32:pmeth_lib.obj
 0001:00018b80       EVP_PKEY_CTX_free          00029b80 f   libeay32:pmeth_lib.obj
 0001:00018be8       EVP_PKEY_CTX_ctrl          00029be8 f   libeay32:pmeth_lib.obj
 0001:00018d0c       EVP_PKEY_CTX_get0_pkey     00029d0c f   libeay32:pmeth_lib.obj
 0001:00018d14       EVP_PKEY_CTX_new           00029d14 f   libeay32:pmeth_lib.obj
 0001:00018e90       EVP_PKEY_CTX_dup           00029e90 f   libeay32:pmeth_lib.obj
 0001:00018fcc       ENGINE_get_digest_engine   00029fcc f   libeay32:tb_digest.obj
 0001:00018fe8       ENGINE_get_digest          00029fe8 f   libeay32:tb_digest.obj
 0001:0001904c       EVP_CIPHER_CTX_block_size  0002a04c f   libeay32:evp_lib.obj
 0001:00019058       EVP_Cipher                 0002a058 f   libeay32:evp_lib.obj
 0001:00019074       EVP_CIPHER_CTX_cipher      0002a074 f   libeay32:evp_lib.obj
 0001:0001907c       EVP_CIPHER_CTX_flags       0002a07c f   libeay32:evp_lib.obj
 0001:00019088       EVP_CIPHER_iv_length       0002a088 f   libeay32:evp_lib.obj
 0001:00019090       EVP_CIPHER_CTX_iv_length   0002a090 f   libeay32:evp_lib.obj
 0001:0001909c       EVP_CIPHER_key_length      0002a09c f   libeay32:evp_lib.obj
 0001:000190a4       EVP_CIPHER_CTX_key_length  0002a0a4 f   libeay32:evp_lib.obj
 0001:000190ac       EVP_MD_block_size          0002a0ac f   libeay32:evp_lib.obj
 0001:000190b4       EVP_MD_type                0002a0b4 f   libeay32:evp_lib.obj
 0001:000190bc       EVP_MD_pkey_type           0002a0bc f   libeay32:evp_lib.obj
 0001:000190c4       EVP_MD_size                0002a0c4 f   libeay32:evp_lib.obj
 0001:00019110       EVP_MD_CTX_md              0002a110 f   libeay32:evp_lib.obj
 0001:00019120       EVP_MD_CTX_set_flags       0002a120 f   libeay32:evp_lib.obj
 0001:00019130       EVP_MD_CTX_clear_flags     0002a130 f   libeay32:evp_lib.obj
 0001:00019140       EVP_MD_CTX_test_flags      0002a140 f   libeay32:evp_lib.obj
 0001:0001914c       EVP_CIPHER_get_asn1_iv     0002a14c f   libeay32:evp_lib.obj
 0001:000191c4       EVP_CIPHER_set_asn1_iv     0002a1c4 f   libeay32:evp_lib.obj
 0001:00019214       EVP_CIPHER_type            0002a214 f   libeay32:evp_lib.obj
 0001:00019344       EVP_CIPHER_param_to_asn1   0002a344 f   libeay32:evp_lib.obj
 0001:0001938c       EVP_CIPHER_asn1_to_param   0002a38c f   libeay32:evp_lib.obj
 0001:000193d4       RSA_sign                   0002a3d4 f   libeay32:rsa_sign.obj
 0001:00019618       int_rsa_verify             0002a618 f   libeay32:rsa_sign.obj
 0001:00019a04       RSA_verify                 0002aa04 f   libeay32:rsa_sign.obj
 0001:00019a7c       SHA1_Init                  0002aa7c f   libeay32:sha1dgst.obj
 0001:00019e34       SHA1_Update                0002ae34 f   libeay32:sha1dgst.obj
 0001:00019f3c       SHA1_Final                 0002af3c f   libeay32:sha1dgst.obj
 0001:0001a0ac       SHA224_Init                0002b0ac f   libeay32:sha256.obj
 0001:0001a12c       SHA256_Init                0002b12c f   libeay32:sha256.obj
 0001:0001a4cc       SHA256_Update              0002b4cc f   libeay32:sha256.obj
 0001:0001a5d4       SHA256_Final               0002b5d4 f   libeay32:sha256.obj
 0001:0001a75c       SHA384_Init                0002b75c f   libeay32:sha512.obj
 0001:0001a84c       SHA512_Init                0002b84c f   libeay32:sha512.obj
 0001:0001b114       SHA512_Final               0002c114 f   libeay32:sha512.obj
 0001:0001b340       SHA512_Update              0002c340 f   libeay32:sha512.obj
 0001:0001b50c       RAND_poll                  0002c50c f   libeay32:rand_win.obj
 0001:0001b5e4       OBJ_dup                    0002c5e4 f   libeay32:obj_lib.obj
 0001:0001b784       OBJ_cmp                    0002c784 f   libeay32:obj_lib.obj
 0001:0001b7b0       BN_bn2dec                  0002c7b0 f   libeay32:bn_print.obj
 0001:0001b99c       BN_hex2bn                  0002c99c f   libeay32:bn_print.obj
 0001:0001bb2c       BN_dec2bn                  0002cb2c f   libeay32:bn_print.obj
 0001:0001bcc0       BN_asc2bn                  0002ccc0 f   libeay32:bn_print.obj
 0001:0001bd40       ENGINE_get_pkey_asn1_meth_engine 0002cd40 f   libeay32:tb_asnmth.obj
 0001:0001bd5c       engine_pkey_asn1_meths_free 0002cd5c f   libeay32:tb_asnmth.obj
 0001:0001be98       ENGINE_pkey_asn1_find_str  0002ce98 f   libeay32:tb_asnmth.obj
 0001:0001bf38       ENGINE_get_pkey_asn1_meth  0002cf38 f   libeay32:tb_asnmth.obj
 0001:0001bf9c       ENGINE_get_pkey_meth_engine 0002cf9c f   libeay32:tb_pkmeth.obj
 0001:0001bfb8       engine_pkey_meths_free     0002cfb8 f   libeay32:tb_pkmeth.obj
 0001:0001c038       ENGINE_get_pkey_meth       0002d038 f   libeay32:tb_pkmeth.obj
 0001:0001c09c       DH_check_pub_key           0002d09c f   libeay32:dh_check.obj
 0001:0001c138       RSA_PKCS1_SSLeay           0002d138 f   libeay32:rsa_eay.obj
 0001:0001d958       ENGINE_get_default_RSA     0002e958 f   libeay32:tb_rsa.obj
 0001:0001d974       ENGINE_get_RSA             0002e974 f   libeay32:tb_rsa.obj
 0001:0001d97c       BN_BLINDING_free           0002e97c f   libeay32:bn_blind.obj
 0001:0001d9d8       BN_BLINDING_invert_ex      0002e9d8 f   libeay32:bn_blind.obj
 0001:0001da5c       BN_BLINDING_thread_id      0002ea5c f   libeay32:bn_blind.obj
 0001:0001da64       BN_BLINDING_new            0002ea64 f   libeay32:bn_blind.obj
 0001:0001db58       BN_BLINDING_create_param   0002eb58 f   libeay32:bn_blind.obj
 0001:0001dd34       BN_BLINDING_update         0002ed34 f   libeay32:bn_blind.obj
 0001:0001de48       BN_BLINDING_convert_ex     0002ee48 f   libeay32:bn_blind.obj
 0001:0001df18       EC_GROUP_new               0002ef18 f   libeay32:ec_lib.obj
 0001:0001e018       EC_GROUP_method_of         0002f018 f   libeay32:ec_lib.obj
 0001:0001e020       EC_METHOD_get_field_type   0002f020 f   libeay32:ec_lib.obj
 0001:0001e028       EC_GROUP_get0_generator    0002f028 f   libeay32:ec_lib.obj
 0001:0001e030       EC_GROUP_get_order         0002f030 f   libeay32:ec_lib.obj
 0001:0001e064       EC_GROUP_get_cofactor      0002f064 f   libeay32:ec_lib.obj
 0001:0001e09c       EC_GROUP_set_curve_name    0002f09c f   libeay32:ec_lib.obj
 0001:0001e0a4       EC_GROUP_get_curve_name    0002f0a4 f   libeay32:ec_lib.obj
 0001:0001e0ac       EC_GROUP_set_asn1_flag     0002f0ac f   libeay32:ec_lib.obj
 0001:0001e0b4       EC_GROUP_get_asn1_flag     0002f0b4 f   libeay32:ec_lib.obj
 0001:0001e0bc       EC_GROUP_set_point_conversion_form 0002f0bc f   libeay32:ec_lib.obj
 0001:0001e0c4       EC_GROUP_get_point_conversion_form 0002f0c4 f   libeay32:ec_lib.obj
 0001:0001e0cc       EC_GROUP_set_seed          0002f0cc f   libeay32:ec_lib.obj
 0001:0001e158       EC_GROUP_get0_seed         0002f158 f   libeay32:ec_lib.obj
 0001:0001e160       EC_GROUP_get_seed_len      0002f160 f   libeay32:ec_lib.obj
 0001:0001e168       EC_GROUP_set_curve_GFp     0002f168 f   libeay32:ec_lib.obj
 0001:0001e1d0       EC_GROUP_get_curve_GFp     0002f1d0 f   libeay32:ec_lib.obj
 0001:0001e238       EC_GROUP_set_curve_GF2m    0002f238 f   libeay32:ec_lib.obj
 0001:0001e2a0       EC_GROUP_get_curve_GF2m    0002f2a0 f   libeay32:ec_lib.obj
 0001:0001e304       EC_GROUP_get_degree        0002f304 f   libeay32:ec_lib.obj
 0001:0001e35c       EC_EX_DATA_set_data        0002f35c f   libeay32:ec_lib.obj
 0001:0001e438       EC_EX_DATA_get_data        0002f438 f   libeay32:ec_lib.obj
 0001:0001e48c       EC_EX_DATA_free_data       0002f48c f   libeay32:ec_lib.obj
 0001:0001e514       EC_EX_DATA_free_all_data   0002f514 f   libeay32:ec_lib.obj
 0001:0001e564       EC_EX_DATA_clear_free_all_data 0002f564 f   libeay32:ec_lib.obj
 0001:0001e5b4       EC_POINT_new               0002f5b4 f   libeay32:ec_lib.obj
 0001:0001e694       EC_POINT_free              0002f694 f   libeay32:ec_lib.obj
 0001:0001e6c8       EC_POINT_clear_free        0002f6c8 f   libeay32:ec_lib.obj
 0001:0001e724       EC_POINT_copy              0002f724 f   libeay32:ec_lib.obj
 0001:0001e7b8       EC_POINT_dup               0002f7b8 f   libeay32:ec_lib.obj
 0001:0001e800       EC_POINT_set_to_infinity   0002f800 f   libeay32:ec_lib.obj
 0001:0001e88c       EC_POINT_set_Jprojective_coordinates_GFp 0002f88c f   libeay32:ec_lib.obj
 0001:0001e940       EC_POINT_set_affine_coordinates_GFp 0002f940 f   libeay32:ec_lib.obj
 0001:0001e9e0       EC_POINT_set_affine_coordinates_GF2m 0002f9e0 f   libeay32:ec_lib.obj
 0001:0001ea84       EC_POINT_get_affine_coordinates_GFp 0002fa84 f   libeay32:ec_lib.obj
 0001:0001eb28       EC_POINT_get_affine_coordinates_GF2m 0002fb28 f   libeay32:ec_lib.obj
 0001:0001ebc8       EC_POINT_add               0002fbc8 f   libeay32:ec_lib.obj
 0001:0001ec84       EC_POINT_dbl               0002fc84 f   libeay32:ec_lib.obj
 0001:0001ed24       EC_POINT_invert            0002fd24 f   libeay32:ec_lib.obj
 0001:0001edb0       EC_POINT_is_at_infinity    0002fdb0 f   libeay32:ec_lib.obj
 0001:0001ee38       EC_POINT_is_on_curve       0002fe38 f   libeay32:ec_lib.obj
 0001:0001eec0       EC_POINT_cmp               0002fec0 f   libeay32:ec_lib.obj
 0001:0001ef60       EC_POINT_make_affine       0002ff60 f   libeay32:ec_lib.obj
 0001:0001efe8       EC_POINTs_make_affine      0002ffe8 f   libeay32:ec_lib.obj
 0001:0001f0b0       EC_POINTs_mul              000300b0 f   libeay32:ec_lib.obj
 0001:0001f12c       EC_POINT_mul               0003012c f   libeay32:ec_lib.obj
 0001:0001f180       EC_GROUP_have_precompute_mult 00030180 f   libeay32:ec_lib.obj
 0001:0001f1c8       EC_GROUP_free              000301c8 f   libeay32:ec_lib.obj
 0001:0001f234       EC_GROUP_clear_free        00030234 f   libeay32:ec_lib.obj
 0001:0001f2d8       EC_GROUP_copy              000302d8 f   libeay32:ec_lib.obj
 0001:0001f4ec       EC_GROUP_dup               000304ec f   libeay32:ec_lib.obj
 0001:0001f534       EC_GROUP_set_generator     00030534 f   libeay32:ec_lib.obj
 0001:0001f614       EC_GROUP_cmp               00030614 f   libeay32:ec_lib.obj
 0001:0001fcb0       EC_GROUP_new_by_curve_name 00030cb0 f   libeay32:ec_curve.obj
 0001:00025c70       EVP_get_cipherbyname       00036c70 f   libeay32:names.obj
 0001:00025c84       EVP_get_digestbyname       00036c84 f   libeay32:names.obj
 0001:00025c98       ASN1_TYPE_set_octetstring  00036c98 f   libeay32:evp_asn1.obj
 0001:00025cf8       ASN1_TYPE_get_octetstring  00036cf8 f   libeay32:evp_asn1.obj
 0001:00025d6c       RSA_size                   00036d6c f   libeay32:rsa_crpt.obj
 0001:00025d90       RSA_public_encrypt         00036d90 f   libeay32:rsa_crpt.obj
 0001:00025dbc       RSA_private_encrypt        00036dbc f   libeay32:rsa_crpt.obj
 0001:00025de8       RSA_private_decrypt        00036de8 f   libeay32:rsa_crpt.obj
 0001:00025e14       RSA_public_decrypt         00036e14 f   libeay32:rsa_crpt.obj
 0001:00025f24       RSA_setup_blinding         00036f24 f   libeay32:rsa_crpt.obj
 0001:000260f8       X509_SIG_it                000370f8 f   libeay32:x_sig.obj
 0001:00026104       d2i_X509_SIG               00037104 f   libeay32:x_sig.obj
 0001:0002611c       i2d_X509_SIG               0003711c f   libeay32:x_sig.obj
 0001:00026134       X509_SIG_free              00037134 f   libeay32:x_sig.obj
 0001:0002614c       RSA_padding_add_PKCS1_type_1 0003714c f   libeay32:rsa_pk1.obj
 0001:000261e0       RSA_padding_check_PKCS1_type_1 000371e0 f   libeay32:rsa_pk1.obj
 0001:00026328       RSA_padding_add_PKCS1_type_2 00037328 f   libeay32:rsa_pk1.obj
 0001:00026400       RSA_padding_check_PKCS1_type_2 00037400 f   libeay32:rsa_pk1.obj
 0001:00026514       RSA_padding_add_SSLv23     00037514 f   libeay32:rsa_ssl.obj
 0001:000265fc       RSA_padding_check_SSLv23   000375fc f   libeay32:rsa_ssl.obj
 0001:0002676c       RSA_padding_add_none       0003776c f   libeay32:rsa_none.obj
 0001:000267ec       RSA_padding_check_none     000377ec f   libeay32:rsa_none.obj
 0001:00026868       PKCS1_MGF1                 00037868 f   libeay32:rsa_oaep.obj
 0001:00026990       RSA_padding_add_PKCS1_OAEP 00037990 f   libeay32:rsa_oaep.obj
 0001:00026b88       RSA_padding_check_PKCS1_OAEP 00037b88 f   libeay32:rsa_oaep.obj
 0001:00026df8       RSA_padding_add_X931       00037df8 f   libeay32:rsa_x931.obj
 0001:00026ea4       RSA_padding_check_X931     00037ea4 f   libeay32:rsa_x931.obj
 0001:00026fcc       RSA_X931_hash_id           00037fcc f   libeay32:rsa_x931.obj
 0001:0002742c       ec_wNAF_mul                0003842c f   libeay32:ec_mult.obj
 0001:00027fd4       ec_wNAF_precompute_mult    00038fd4 f   libeay32:ec_mult.obj
 0001:000284e0       ec_wNAF_have_precompute_mult 000394e0 f   libeay32:ec_mult.obj
 0001:0002851c       EC_GROUP_new_curve_GFp     0003951c f   libeay32:ec_cvt.obj
 0001:000285e8       EC_GROUP_new_curve_GF2m    000395e8 f   libeay32:ec_cvt.obj
 0001:0002864c       CMAC_CTX_new               0003964c f   libeay32:cmac.obj
 0001:0002868c       CMAC_CTX_cleanup           0003968c f   libeay32:cmac.obj
 0001:000286d8       CMAC_CTX_free              000396d8 f   libeay32:cmac.obj
 0001:000286f4       CMAC_CTX_copy              000396f4 f   libeay32:cmac.obj
 0001:00028784       CMAC_Init                  00039784 f   libeay32:cmac.obj
 0001:00028a00       CMAC_Update                00039a00 f   libeay32:cmac.obj
 0001:00028ae4       CMAC_Final                 00039ae4 f   libeay32:cmac.obj
 0001:00028be4       ASN1_OCTET_STRING_dup      00039be4 f   libeay32:a_octet.obj
 0001:00028bf4       ASN1_OCTET_STRING_set      00039bf4 f   libeay32:a_octet.obj
 0001:00028c04       EC_GROUP_get_basis_type    00039c04 f   libeay32:ec_asn1.obj
 0001:00028c7c       EC_GROUP_get_trinomial_basis 00039c7c f   libeay32:ec_asn1.obj
 0001:00028d10       EC_GROUP_get_pentanomial_basis 00039d10 f   libeay32:ec_asn1.obj
 0001:00028ddc       X9_62_PENTANOMIAL_it       00039ddc f   libeay32:ec_asn1.obj
 0001:00028df4       X9_62_CHARACTERISTIC_TWO_it 00039df4 f   libeay32:ec_asn1.obj
 0001:00028e0c       X9_62_FIELDID_it           00039e0c f   libeay32:ec_asn1.obj
 0001:00028e18       X9_62_CURVE_it             00039e18 f   libeay32:ec_asn1.obj
 0001:00028e24       ECPARAMETERS_it            00039e24 f   libeay32:ec_asn1.obj
 0001:00028e30       ECPKPARAMETERS_it          00039e30 f   libeay32:ec_asn1.obj
 0001:0002a330       d2i_ECPKParameters         0003b330 f   libeay32:ec_asn1.obj
 0001:0002a3fc       i2d_ECPKParameters         0003b3fc f   libeay32:ec_asn1.obj
 0001:0002a4a0       d2i_ECPrivateKey           0003b4a0 f   libeay32:ec_asn1.obj
 0001:0002a75c       i2d_ECPrivateKey           0003b75c f   libeay32:ec_asn1.obj
 0001:0002aae0       i2d_ECParameters           0003bae0 f   libeay32:ec_asn1.obj
 0001:0002ab30       d2i_ECParameters           0003bb30 f   libeay32:ec_asn1.obj
 0001:0002ac14       o2i_ECPublicKey            0003bc14 f   libeay32:ec_asn1.obj
 0001:0002ad28       i2o_ECPublicKey            0003bd28 f   libeay32:ec_asn1.obj
 0001:0002ae8c       X509_PUBKEY_it             0003be8c f   libeay32:x_pubkey.obj
 0001:0002ae98       X509_PUBKEY_get            0003be98 f   libeay32:x_pubkey.obj
 0001:0002b048       X509_PUBKEY_set0_param     0003c048 f   libeay32:x_pubkey.obj
 0001:0002b0c8       X509_PUBKEY_get0_param     0003c0c8 f   libeay32:x_pubkey.obj
 0001:0002b118       X509_ALGOR_it              0003c118 f   libeay32:x_algor.obj
 0001:0002b124       d2i_X509_ALGOR             0003c124 f   libeay32:x_algor.obj
 0001:0002b13c       X509_ALGOR_new             0003c13c f   libeay32:x_algor.obj
 0001:0002b154       X509_ALGOR_free            0003c154 f   libeay32:x_algor.obj
 0001:0002b16c       X509_ALGOR_set0            0003c16c f   libeay32:x_algor.obj
 0001:0002b214       X509_ALGOR_get0            0003c214 f   libeay32:x_algor.obj
 0001:0002b268       X509_ALGOR_set_md          0003c268 f   libeay32:x_algor.obj
 0001:0002b2e4       PKCS8_PRIV_KEY_INFO_it     0003c2e4 f   libeay32:p8_pkey.obj
 0001:0002b2f0       PKCS8_pkey_set0            0003c2f0 f   libeay32:p8_pkey.obj
 0001:0002b3a0       PKCS8_pkey_get0            0003c3a0 f   libeay32:p8_pkey.obj
 0001:0002b598       ecdsa_check                0003c598 f   libeay32:ecs_lib.obj
 0001:0002b614       ECDSA_size                 0003c614 f   libeay32:ecs_lib.obj
 0001:0002b814       ECPKParameters_print       0003c814 f   libeay32:eck_prn.obj
 0001:0002bdfc       ASN1_bn_print              0003cdfc f   libeay32:t_pkey.obj
 0001:0002bff0       EC_POINT_point2bn          0003cff0 f   libeay32:ec_print.obj
 0001:0002c09c       PKCS7_ctrl                 0003d09c f   libeay32:pk7_lib.obj
 0001:0002c1c0       PKCS7_SIGNER_INFO_get0_algs 0003d1c0 f   libeay32:pk7_lib.obj
 0001:0002c1f0       PKCS7_RECIP_INFO_get0_alg  0003d1f0 f   libeay32:pk7_lib.obj
 0001:0002c200       PKCS7_stream               0003d200 f   libeay32:pk7_lib.obj
 0001:0002c310       OBJ_find_sigid_algs        0003d310 f   libeay32:obj_xref.obj
 0001:0002c3b0       OBJ_find_sigid_by_algs     0003d3b0 f   libeay32:obj_xref.obj
 0001:0002c62c       CMS_SignerInfo_get0_algs   0003d62c f   libeay32:cms_sd.obj
 0001:0002c66c       CMS_SignerInfo_sign        0003d66c f   libeay32:cms_sd.obj
 0001:0002c8b8       cms_SignedData_init_bio    0003d8b8 f   libeay32:cms_sd.obj
 0001:0002cb1c       cms_SignedData_final       0003db1c f   libeay32:cms_sd.obj
 0001:0002cbac       X509_signature_dump        0003dbac f   libeay32:t_x509.obj
 0001:0002cc98       ASN1_STRING_print          0003dc98 f   libeay32:t_x509.obj
 0001:0002cd6c       ASN1_GENERALIZEDTIME_print 0003dd6c f   libeay32:t_x509.obj
 0001:0002cf88       X509_NAME_print            0003df88 f   libeay32:t_x509.obj
 0001:0002d114       d2i_DHparams               0003e114 f   libeay32:dh_asn1.obj
 0001:0002d12c       i2d_DHparams               0003e12c f   libeay32:dh_asn1.obj
 0001:0002d1a0       RSA_PSS_PARAMS_it          0003e1a0 f   libeay32:rsa_asn1.obj
 0001:0002d1ac       d2i_RSA_PSS_PARAMS         0003e1ac f   libeay32:rsa_asn1.obj
 0001:0002d1c4       RSA_PSS_PARAMS_new         0003e1c4 f   libeay32:rsa_asn1.obj
 0001:0002d1dc       RSA_PSS_PARAMS_free        0003e1dc f   libeay32:rsa_asn1.obj
 0001:0002d1f4       d2i_RSAPrivateKey          0003e1f4 f   libeay32:rsa_asn1.obj
 0001:0002d20c       i2d_RSAPrivateKey          0003e20c f   libeay32:rsa_asn1.obj
 0001:0002d224       d2i_RSAPublicKey           0003e224 f   libeay32:rsa_asn1.obj
 0001:0002d23c       i2d_RSAPublicKey           0003e23c f   libeay32:rsa_asn1.obj
 0001:0002d254       i2a_ASN1_INTEGER           0003e254 f   libeay32:f_int.obj
 0001:0002d39c       CMS_RecipientInfo_ktri_get0_algs 0003e39c f   libeay32:cms_env.obj
 0001:0002d6f8       cms_EnvelopedData_init_bio 0003e6f8 f   libeay32:cms_env.obj
 0001:0002d9d8       EVP_DigestSignInit         0003e9d8 f   libeay32:m_sigver.obj
 0001:0002da00       EVP_DigestVerifyInit       0003ea00 f   libeay32:m_sigver.obj
 0001:0002da28       EVP_DigestSignFinal        0003ea28 f   libeay32:m_sigver.obj
 0001:0002db68       EVP_DigestVerifyFinal      0003eb68 f   libeay32:m_sigver.obj
 0001:0002dc3c       ASN1_item_pack             0003ec3c f   libeay32:asn_pack.obj
 0001:0002dd2c       X509V3_add_value           0003ed2c f   libeay32:v3_utl.obj
 0001:0002de24       X509V3_add_value_uchar     0003ee24 f   libeay32:v3_utl.obj
 0001:0002de34       X509V3_conf_free           0003ee34 f   libeay32:v3_utl.obj
 0001:0002de80       X509V3_add_value_bool      0003ee80 f   libeay32:v3_utl.obj
 0001:0002dea4       i2s_ASN1_ENUMERATED        0003eea4 f   libeay32:v3_utl.obj
 0001:0002df14       i2s_ASN1_INTEGER           0003ef14 f   libeay32:v3_utl.obj
 0001:0002df84       s2i_ASN1_INTEGER           0003ef84 f   libeay32:v3_utl.obj
 0001:0002e0d4       X509V3_add_value_int       0003f0d4 f   libeay32:v3_utl.obj
 0001:0002e128       X509V3_get_value_bool      0003f128 f   libeay32:v3_utl.obj
 0001:0002e2e4       X509V3_get_value_int       0003f2e4 f   libeay32:v3_utl.obj
 0001:0002e3f8       hex_to_string              0003f3f8 f   libeay32:v3_utl.obj
 0001:0002e4b8       string_to_hex              0003f4b8 f   libeay32:v3_utl.obj
 0001:0002e680       name_cmp                   0003f680 f   libeay32:v3_utl.obj
 0001:0002e764       X509V3_NAME_from_section   0003f764 f   libeay32:v3_utl.obj
 0001:0002e84c       X509V3_parse_list          0003f84c f   libeay32:v3_utl.obj
 0001:0002ecbc       a2i_ipadd                  0003fcbc f   libeay32:v3_utl.obj
 0001:0002ed20       a2i_IPADDRESS              0003fd20 f   libeay32:v3_utl.obj
 0001:0002ed7c       a2i_IPADDRESS_NC           0003fd7c f   libeay32:v3_utl.obj
 0001:0002ee48       HMAC_Init_ex               0003fe48 f   libeay32:hmac.obj
 0001:0002f040       HMAC_Update                00040040 f   libeay32:hmac.obj
 0001:0002f054       HMAC_Final                 00040054 f   libeay32:hmac.obj
 0001:0002f0dc       HMAC_CTX_init              000400dc f   libeay32:hmac.obj
 0001:0002f104       HMAC_CTX_copy              00040104 f   libeay32:hmac.obj
 0001:0002f184       HMAC_CTX_cleanup           00040184 f   libeay32:hmac.obj
 0001:0002f1bc       HMAC_CTX_set_flags         000401bc f   libeay32:hmac.obj
 0001:0002f1f0       HMAC_Init                  000401f0 f   libeay32:hmac.obj
 0001:0002f254       HMAC                       00040254 f   libeay32:hmac.obj
 0001:0002f300       ECDSA_do_sign_ex           00040300 f   libeay32:ecs_sign.obj
 0001:0002f360       ECDSA_sign_ex              00040360 f   libeay32:ecs_sign.obj
 0001:0002f3e8       ECDSA_sign_setup           000403e8 f   libeay32:ecs_sign.obj
 0001:0002f438       ECDSA_sign                 00040438 f   libeay32:ecs_sign.obj
 0001:0002f46c       ECDSA_do_verify            0004046c f   libeay32:ecs_vrf.obj
 0001:0002f4c0       ECDSA_verify               000404c0 f   libeay32:ecs_vrf.obj
 0001:0002f538       ECDH_compute_key           00040538 f   libeay32:ech_key.obj
 0001:0002f5cc       evp_pkey_set_cb_translate  000405cc f   libeay32:pmeth_gn.obj
 0001:0002f7cc       DH_generate_parameters_ex  000407cc f   libeay32:dh_gen.obj
 0001:0002f7fc       RSA_verify_PKCS1_PSS_mgf1  000407fc f   libeay32:rsa_pss.obj
 0001:0002fd2c       RSA_padding_add_PKCS1_PSS_mgf1 00040d2c f   libeay32:rsa_pss.obj
 0001:00030180       RSA_sign_ASN1_OCTET_STRING 00041180 f   libeay32:rsa_saos.obj
 0001:00030848       RSA_generate_key_ex        00041848 f   libeay32:rsa_gen.obj
 0001:00030950       OBJ_NAME_init              00041950 f   libeay32:o_names.obj
 0001:000309b8       OBJ_NAME_get               000419b8 f   libeay32:o_names.obj
 0001:00030a88       EVP_PBE_find               00041a88 f   libeay32:evp_pbe.obj
 0001:00030b4c       EVP_PBE_CipherInit         00041b4c f   libeay32:evp_pbe.obj
 0001:00030d04       ec_GFp_mont_group_init     00041d04 f   libeay32:ecp_mont.obj
 0001:00030d24       ec_GFp_mont_group_finish   00041d24 f   libeay32:ecp_mont.obj
 0001:00030d70       ec_GFp_mont_group_clear_finish 00041d70 f   libeay32:ecp_mont.obj
 0001:00030dbc       ec_GFp_mont_group_copy     00041dbc f   libeay32:ecp_mont.obj
 0001:00030e8c       ec_GFp_mont_group_set_curve 00041e8c f   libeay32:ecp_mont.obj
 0001:00030fec       ec_GFp_mont_field_mul      00041fec f   libeay32:ecp_mont.obj
 0001:0003105c       ec_GFp_mont_field_sqr      0004205c f   libeay32:ecp_mont.obj
 0001:000310c8       ec_GFp_mont_field_encode   000420c8 f   libeay32:ecp_mont.obj
 0001:00031138       ec_GFp_mont_field_decode   00042138 f   libeay32:ecp_mont.obj
 0001:00031198       ec_GFp_mont_field_set_to_one 00042198 f   libeay32:ecp_mont.obj
 0001:000311fc       EC_GFp_mont_method         000421fc f   libeay32:ecp_mont.obj
 0001:00031208       ec_GFp_nist_group_copy     00042208 f   libeay32:ecp_nist.obj
 0001:00031224       ec_GFp_nist_group_set_curve 00042224 f   libeay32:ecp_nist.obj
 0001:00031370       ec_GFp_nist_field_mul      00042370 f   libeay32:ecp_nist.obj
 0001:0003144c       ec_GFp_nist_field_sqr      0004244c f   libeay32:ecp_nist.obj
 0001:00031518       EC_GFp_nist_method         00042518 f   libeay32:ecp_nist.obj
 0001:00031524       ec_GF2m_simple_group_init  00042524 f   libeay32:ec2_smpl.obj
 0001:00031550       ec_GF2m_simple_group_finish 00042550 f   libeay32:ec2_smpl.obj
 0001:00031578       ec_GF2m_simple_group_clear_finish 00042578 f   libeay32:ec2_smpl.obj
 0001:000315c0       ec_GF2m_simple_group_copy  000425c0 f   libeay32:ec2_smpl.obj
 0001:0003170c       ec_GF2m_simple_group_set_curve 0004270c f   libeay32:ec2_smpl.obj
 0001:0003187c       ec_GF2m_simple_group_get_curve 0004287c f   libeay32:ec2_smpl.obj
 0001:000318f8       ec_GF2m_simple_group_get_degree 000428f8 f   libeay32:ec2_smpl.obj
 0001:00031910       ec_GF2m_simple_group_check_discriminant 00042910 f   libeay32:ec2_smpl.obj
 0001:000319c4       ec_GF2m_simple_point_init  000429c4 f   libeay32:ec2_smpl.obj
 0001:000319f0       ec_GF2m_simple_point_finish 000429f0 f   libeay32:ec2_smpl.obj
 0001:00031a18       ec_GF2m_simple_point_clear_finish 00042a18 f   libeay32:ec2_smpl.obj
 0001:00031a48       ec_GF2m_simple_point_copy  00042a48 f   libeay32:ec2_smpl.obj
 0001:00031ab0       ec_GF2m_simple_point_set_to_infinity 00042ab0 f   libeay32:ec2_smpl.obj
 0001:00031ad8       ec_GF2m_simple_point_set_affine_coordinates 00042ad8 f   libeay32:ec2_smpl.obj
 0001:00031ba4       ec_GF2m_simple_point_get_affine_coordinates 00042ba4 f   libeay32:ec2_smpl.obj
 0001:00031c94       ec_GF2m_simple_add         00042c94 f   libeay32:ec2_smpl.obj
 0001:00032098       ec_GF2m_simple_dbl         00043098 f   libeay32:ec2_smpl.obj
 0001:000320bc       ec_GF2m_simple_invert      000430bc f   libeay32:ec2_smpl.obj
 0001:00032128       ec_GF2m_simple_is_at_infinity 00043128 f   libeay32:ec2_smpl.obj
 0001:0003213c       ec_GF2m_simple_is_on_curve 0004313c f   libeay32:ec2_smpl.obj
 0001:000322cc       ec_GF2m_simple_cmp         000432cc f   libeay32:ec2_smpl.obj
 0001:00032458       ec_GF2m_simple_make_affine 00043458 f   libeay32:ec2_smpl.obj
 0001:0003255c       ec_GF2m_simple_points_make_affine 0004355c f   libeay32:ec2_smpl.obj
 0001:000325c4       ec_GF2m_simple_field_mul   000435c4 f   libeay32:ec2_smpl.obj
 0001:00032600       ec_GF2m_simple_field_sqr   00043600 f   libeay32:ec2_smpl.obj
 0001:00032624       ec_GF2m_simple_field_div   00043624 f   libeay32:ec2_smpl.obj
 0001:00032660       EC_GF2m_simple_method      00043660 f   libeay32:ec2_smpl.obj
 0001:0003266c       EVP_CIPHER_CTX_init        0004366c f   libeay32:evp_enc.obj
 0001:00032684       EVP_EncryptUpdate          00043684 f   libeay32:evp_enc.obj
 0001:00032874       EVP_EncryptFinal_ex        00043874 f   libeay32:evp_enc.obj
 0001:000329a0       EVP_DecryptUpdate          000439a0 f   libeay32:evp_enc.obj
 0001:00032b1c       EVP_DecryptFinal_ex        00043b1c f   libeay32:evp_enc.obj
 0001:00032cf4       EVP_CIPHER_CTX_cleanup     00043cf4 f   libeay32:evp_enc.obj
 0001:00032d80       EVP_CIPHER_CTX_set_padding 00043d80 f   libeay32:evp_enc.obj
 0001:00032d9c       EVP_CIPHER_CTX_ctrl        00043d9c f   libeay32:evp_enc.obj
 0001:00032e4c       EVP_CIPHER_CTX_rand_key    00043e4c f   libeay32:evp_enc.obj
 0001:00032ea0       EVP_CIPHER_CTX_copy        00043ea0 f   libeay32:evp_enc.obj
 0001:00032ff0       EVP_CipherInit_ex          00043ff0 f   libeay32:evp_enc.obj
 0001:00033350       EVP_CipherUpdate           00044350 f   libeay32:evp_enc.obj
 0001:00033394       EVP_CipherFinal_ex         00044394 f   libeay32:evp_enc.obj
 0001:000333bc       EVP_EncryptInit_ex         000443bc f   libeay32:evp_enc.obj
 0001:000333e4       EVP_DecryptInit_ex         000443e4 f   libeay32:evp_enc.obj
 0001:0003340c       EVP_CIPHER_CTX_set_key_length 0004440c f   libeay32:evp_enc.obj
 0001:00033494       EC_POINT_set_compressed_coordinates_GFp 00044494 f   libeay32:ec_oct.obj
 0001:0003358c       EC_POINT_set_compressed_coordinates_GF2m 0004458c f   libeay32:ec_oct.obj
 0001:00033684       EC_POINT_point2oct         00044684 f   libeay32:ec_oct.obj
 0001:00033794       EC_POINT_oct2point         00044794 f   libeay32:ec_oct.obj
 0001:0003388c       ECDSA_OpenSSL              0004488c f   libeay32:ecs_ossl.obj
 0001:00034550       ENGINE_get_default_ECDSA   00045550 f   libeay32:tb_ecdsa.obj
 0001:0003456c       ENGINE_get_ECDSA           0004556c f   libeay32:tb_ecdsa.obj
 0001:00034604       PKCS7_it                   00045604 f   libeay32:pk7_asn1.obj
 0001:00034610       PKCS7_SIGNED_it            00045610 f   libeay32:pk7_asn1.obj
 0001:0003463c       PKCS7_SIGNER_INFO_it       0004563c f   libeay32:pk7_asn1.obj
 0001:00034648       PKCS7_ISSUER_AND_SERIAL_it 00045648 f   libeay32:pk7_asn1.obj
 0001:00034654       PKCS7_ENVELOPE_it          00045654 f   libeay32:pk7_asn1.obj
 0001:00034680       PKCS7_RECIP_INFO_it        00045680 f   libeay32:pk7_asn1.obj
 0001:0003468c       PKCS7_ENC_CONTENT_it       0004568c f   libeay32:pk7_asn1.obj
 0001:00034698       PKCS7_SIGN_ENVELOPE_it     00045698 f   libeay32:pk7_asn1.obj
 0001:000346a4       PKCS7_ENCRYPT_it           000456a4 f   libeay32:pk7_asn1.obj
 0001:000346b0       PKCS7_DIGEST_it            000456b0 f   libeay32:pk7_asn1.obj
 0001:000346bc       PKCS7_ATTR_SIGN_it         000456bc f   libeay32:pk7_asn1.obj
 0001:000346c8       X509_CINF_it               000456c8 f   libeay32:x_x509.obj
 0001:000347c4       X509_it                    000457c4 f   libeay32:x_x509.obj
 0001:000347d0       X509_free                  000457d0 f   libeay32:x_x509.obj
 0001:000347e8       X509_REVOKED_it            000457e8 f   libeay32:x_crl.obj
 0001:000347f4       X509_CRL_INFO_it           000457f4 f   libeay32:x_crl.obj
 0001:00034a84       X509_CRL_it                00045a84 f   libeay32:x_crl.obj
 0001:00034f04       X509_get_issuer_name       00045f04 f   libeay32:x509_cmp.obj
 0001:00034f10       X509_get_subject_name      00045f10 f   libeay32:x509_cmp.obj
 0001:00034f1c       X509_get_serialNumber      00045f1c f   libeay32:x509_cmp.obj
 0001:00034f28       X509_NAME_cmp              00045f28 f   libeay32:x509_cmp.obj
 0001:00034fb8       X509_get_pubkey            00045fb8 f   libeay32:x509_cmp.obj
 0001:00034fec       X509_NAME_ENTRY_it         00045fec f   libeay32:x_name.obj
 0001:00034ff8       X509_NAME_ENTRY_new        00045ff8 f   libeay32:x_name.obj
 0001:00035010       X509_NAME_ENTRY_free       00046010 f   libeay32:x_name.obj
 0001:00035028       X509_NAME_ENTRY_dup        00046028 f   libeay32:x_name.obj
 0001:00035044       X509_NAME_ENTRIES_it       00046044 f   libeay32:x_name.obj
 0001:00035050       X509_NAME_it               00046050 f   libeay32:x_name.obj
 0001:0003505c       i2d_X509_NAME              0004605c f   libeay32:x_name.obj
 0001:00035074       X509_NAME_new              00046074 f   libeay32:x_name.obj
 0001:0003508c       X509_NAME_free             0004608c f   libeay32:x_name.obj
 0001:000350a4       X509_NAME_dup              000460a4 f   libeay32:x_name.obj
 0001:00035930       CMS_IssuerAndSerialNumber_it 00046930 f   libeay32:cms_asn1.obj
 0001:0003593c       CMS_OtherCertificateFormat_it 0004693c f   libeay32:cms_asn1.obj
 0001:00035948       CMS_CertificateChoices_it  00046948 f   libeay32:cms_asn1.obj
 0001:00035954       CMS_SignerIdentifier_it    00046954 f   libeay32:cms_asn1.obj
 0001:00035960       CMS_EncapsulatedContentInfo_it 00046960 f   libeay32:cms_asn1.obj
 0001:000359a8       CMS_SignerInfo_it          000469a8 f   libeay32:cms_asn1.obj
 0001:000359b4       CMS_OtherRevocationInfoFormat_it 000469b4 f   libeay32:cms_asn1.obj
 0001:000359c0       CMS_RevocationInfoChoice_it 000469c0 f   libeay32:cms_asn1.obj
 0001:000359cc       CMS_SignedData_it          000469cc f   libeay32:cms_asn1.obj
 0001:000359d8       CMS_OriginatorInfo_it      000469d8 f   libeay32:cms_asn1.obj
 0001:000359e4       CMS_EncryptedContentInfo_it 000469e4 f   libeay32:cms_asn1.obj
 0001:000359f0       CMS_KeyTransRecipientInfo_it 000469f0 f   libeay32:cms_asn1.obj
 0001:000359fc       CMS_OtherKeyAttribute_it   000469fc f   libeay32:cms_asn1.obj
 0001:00035a08       CMS_RecipientKeyIdentifier_it 00046a08 f   libeay32:cms_asn1.obj
 0001:00035a14       CMS_KeyAgreeRecipientIdentifier_it 00046a14 f   libeay32:cms_asn1.obj
 0001:00035a20       CMS_RecipientEncryptedKey_it 00046a20 f   libeay32:cms_asn1.obj
 0001:00035a2c       CMS_OriginatorPublicKey_it 00046a2c f   libeay32:cms_asn1.obj
 0001:00035a38       CMS_OriginatorIdentifierOrKey_it 00046a38 f   libeay32:cms_asn1.obj
 0001:00035a44       CMS_KeyAgreeRecipientInfo_it 00046a44 f   libeay32:cms_asn1.obj
 0001:00035a50       CMS_KEKIdentifier_it       00046a50 f   libeay32:cms_asn1.obj
 0001:00035a5c       CMS_KEKRecipientInfo_it    00046a5c f   libeay32:cms_asn1.obj
 0001:00035a68       CMS_PasswordRecipientInfo_it 00046a68 f   libeay32:cms_asn1.obj
 0001:00035a74       CMS_OtherRecipientInfo_it  00046a74 f   libeay32:cms_asn1.obj
 0001:00035b08       CMS_RecipientInfo_it       00046b08 f   libeay32:cms_asn1.obj
 0001:00035b14       CMS_EnvelopedData_it       00046b14 f   libeay32:cms_asn1.obj
 0001:00035b20       CMS_DigestedData_it        00046b20 f   libeay32:cms_asn1.obj
 0001:00035b2c       CMS_EncryptedData_it       00046b2c f   libeay32:cms_asn1.obj
 0001:00035b38       CMS_AuthenticatedData_it   00046b38 f   libeay32:cms_asn1.obj
 0001:00035b44       CMS_CompressedData_it      00046b44 f   libeay32:cms_asn1.obj
 0001:00035be8       CMS_Attributes_Sign_it     00046be8 f   libeay32:cms_asn1.obj
 0001:00035bf4       CMS_ReceiptsFrom_it        00046bf4 f   libeay32:cms_asn1.obj
 0001:00035c00       X509_PURPOSE_get0          00046c00 f   libeay32:v3_purp.obj
 0001:00035c4c       X509_PURPOSE_get_by_id     00046c4c f   libeay32:v3_purp.obj
 0001:00035cb4       X509_supported_extension   00046cb4 f   libeay32:v3_purp.obj
 0001:0003672c       X509_check_purpose         0004772c f   libeay32:v3_purp.obj
 0001:000367c4       ASN1_TIME_it               000477c4 f   libeay32:a_time.obj
 0001:000367d0       ASN1_TIME_free             000477d0 f   libeay32:a_time.obj
 0001:000367e8       ASN1_TIME_adj              000477e8 f   libeay32:a_time.obj
 0001:000368b8       ASN1_TIME_check            000478b8 f   libeay32:a_time.obj
 0001:000368f4       CMS_signed_get_attr_count  000478f4 f   libeay32:cms_att.obj
 0001:00036908       CMS_signed_get_attr_by_NID 00047908 f   libeay32:cms_att.obj
 0001:0003691c       CMS_signed_add1_attr_by_NID 0004791c f   libeay32:cms_att.obj
 0001:0003694c       X509_time_adj_ex           0004794c f   libeay32:x509_vfy.obj
 0001:000369e8       X509_gmtime_adj            000479e8 f   libeay32:x509_vfy.obj
 0001:00036a04       CMS_get0_content           00047a04 f   libeay32:cms_lib.obj
 0001:00036af4       cms_DigestAlgorithm_init_bio 00047af4 f   libeay32:cms_lib.obj
 0001:00036bbc       cms_DigestAlgorithm_find_ctx 00047bbc f   libeay32:cms_lib.obj
 0001:00036c8c       cms_content_bio            00047c8c f   libeay32:cms_lib.obj
 0001:00036ce8       CMS_dataInit               00047ce8 f   libeay32:cms_lib.obj
 0001:00036dec       CMS_dataFinal              00047dec f   libeay32:cms_lib.obj
 0001:00036f54       EVP_SignFinal              00047f54 f   libeay32:p_sign.obj
 0001:00037120       X509_NAME_oneline          00048120 f   libeay32:x509_obj.obj
 0001:00037fd8       X509_NAME_print_ex         00048fd8 f   libeay32:a_strex.obj
 0001:0003801c       ASN1_STRING_to_UTF8        0004901c f   libeay32:a_strex.obj
 0001:000380ac       cms_EncryptedContent_init_bio 000490ac f   libeay32:cms_enc.obj
 0001:0003846c       cms_EncryptedData_init_bio 0004946c f   libeay32:cms_enc.obj
 0001:0003849c       EVP_PKEY_sign_init         0004949c f   libeay32:pmeth_fn.obj
 0001:0003852c       EVP_PKEY_sign              0004952c f   libeay32:pmeth_fn.obj
 0001:00038640       EVP_PKEY_verify_init       00049640 f   libeay32:pmeth_fn.obj
 0001:000386d0       EVP_PKEY_verify            000496d0 f   libeay32:pmeth_fn.obj
 0001:00038774       EVP_PKEY_encrypt_init      00049774 f   libeay32:pmeth_fn.obj
 0001:00038804       EVP_PKEY_encrypt           00049804 f   libeay32:pmeth_fn.obj
 0001:00038918       AES_wrap_key               00049918 f   libeay32:aes_wrap.obj
 0001:00038a34       AES_set_encrypt_key        00049a34 f   libeay32:aes_misc.obj
 0001:00038cc4       cms_RecipientInfo_pwri_crypt 00049cc4 f   libeay32:cms_pwri.obj
 0001:00039034       ASN1_ENUMERATED_get        0004a034 f   libeay32:a_enum.obj
 0001:000390c8       ASN1_ENUMERATED_to_BN      0004a0c8 f   libeay32:a_enum.obj
 0001:0003913c       X509_NAME_entry_count      0004a13c f   libeay32:x509name.obj
 0001:00039160       X509_NAME_get_index_by_OBJ 0004a160 f   libeay32:x509name.obj
 0001:000391cc       X509_NAME_get_entry        0004a1cc f   libeay32:x509name.obj
 0001:00039214       X509_NAME_delete_entry     0004a214 f   libeay32:x509name.obj
 0001:000392e8       X509_NAME_add_entry        0004a2e8 f   libeay32:x509name.obj
 0001:00039454       X509_NAME_ENTRY_set_object 0004a454 f   libeay32:x509name.obj
 0001:000394c8       X509_NAME_ENTRY_set_data   0004a4c8 f   libeay32:x509name.obj
 0001:000395a8       X509_NAME_ENTRY_get_object 0004a5a8 f   libeay32:x509name.obj
 0001:000395b8       X509_NAME_ENTRY_get_data   0004a5b8 f   libeay32:x509name.obj
 0001:000395c8       X509_NAME_get_index_by_NID 0004a5c8 f   libeay32:x509name.obj
 0001:00039604       X509_NAME_ENTRY_create_by_OBJ 0004a604 f   libeay32:x509name.obj
 0001:000396b0       X509_NAME_ENTRY_create_by_txt 0004a6b0 f   libeay32:x509name.obj
 0001:00039754       X509_NAME_add_entry_by_txt 0004a754 f   libeay32:x509name.obj
 0001:000397ac       ACCESS_DESCRIPTION_it      0004a7ac f   libeay32:v3_info.obj
 0001:000397b8       ACCESS_DESCRIPTION_free    0004a7b8 f   libeay32:v3_info.obj
 0001:000397d0       AUTHORITY_INFO_ACCESS_it   0004a7d0 f   libeay32:v3_info.obj
 0001:00039b24       X509_CRL_get_ext_d2i       0004ab24 f   libeay32:x509_ext.obj
 0001:00039b3c       X509_get_ext_count         0004ab3c f   libeay32:x509_ext.obj
 0001:00039b54       X509_get_ext_by_NID        0004ab54 f   libeay32:x509_ext.obj
 0001:00039b6c       X509_get_ext               0004ab6c f   libeay32:x509_ext.obj
 0001:00039b84       X509_get_ext_d2i           0004ab84 f   libeay32:x509_ext.obj
 0001:00039b9c       X509_REVOKED_get_ext_d2i   0004ab9c f   libeay32:x509_ext.obj
 0001:00039bb0       CONF_parse_list            0004abb0 f   libeay32:conf_mod.obj
 0001:00039cdc       OTHERNAME_it               0004acdc f   libeay32:v3_genn.obj
 0001:00039ce8       OTHERNAME_new              0004ace8 f   libeay32:v3_genn.obj
 0001:00039d00       EDIPARTYNAME_it            0004ad00 f   libeay32:v3_genn.obj
 0001:00039d0c       GENERAL_NAME_it            0004ad0c f   libeay32:v3_genn.obj
 0001:00039d18       GENERAL_NAME_new           0004ad18 f   libeay32:v3_genn.obj
 0001:00039d30       GENERAL_NAME_free          0004ad30 f   libeay32:v3_genn.obj
 0001:00039d48       GENERAL_NAMES_it           0004ad48 f   libeay32:v3_genn.obj
 0001:00039d54       GENERAL_NAMES_new          0004ad54 f   libeay32:v3_genn.obj
 0001:00039d6c       GENERAL_NAMES_free         0004ad6c f   libeay32:v3_genn.obj
 0001:00039d84       X509_EXTENSION_it          0004ad84 f   libeay32:x_exten.obj
 0001:00039da8       X509V3_EXT_get_nid         0004ada8 f   libeay32:v3_lib.obj
 0001:00039e38       X509V3_EXT_d2i             0004ae38 f   libeay32:v3_lib.obj
 0001:00039ec8       X509V3_get_d2i             0004aec8 f   libeay32:v3_lib.obj
 0001:00039fc4       d2i_ECDSA_SIG              0004afc4 f   libeay32:ecs_asn1.obj
 0001:00039fdc       i2d_ECDSA_SIG              0004afdc f   libeay32:ecs_asn1.obj
 0001:00039ff4       ECDSA_SIG_new              0004aff4 f   libeay32:ecs_asn1.obj
 0001:0003a00c       ECDSA_SIG_free             0004b00c f   libeay32:ecs_asn1.obj
 0001:0003a17c       ecdh_check                 0004b17c f   libeay32:ech_lib.obj
 0001:0003a1f8       PKCS5_PBKDF2_HMAC          0004b1f8 f   libeay32:p5_crpt2.obj
 0001:0003a3c0       PKCS5_v2_PBKDF2_keyivgen   0004b3c0 f   libeay32:p5_crpt2.obj
 0001:0003a660       PKCS5_v2_PBE_keyivgen      0004b660 f   libeay32:p5_crpt2.obj
 0001:0003a81c       PKCS12_PBE_keyivgen        0004b81c f   libeay32:p12_crpt.obj
 0001:0003aa10       PKCS5_PBE_keyivgen         0004ba10 f   libeay32:p5_crpt.obj
 0001:0003acc8       ec_GFp_simple_group_init   0004bcc8 f   libeay32:ecp_smpl.obj
 0001:0003acfc       ec_GFp_simple_group_finish 0004bcfc f   libeay32:ecp_smpl.obj
 0001:0003ad24       ec_GFp_simple_group_clear_finish 0004bd24 f   libeay32:ecp_smpl.obj
 0001:0003ad4c       ec_GFp_simple_group_copy   0004bd4c f   libeay32:ecp_smpl.obj
 0001:0003adb4       ec_GFp_simple_group_set_curve 0004bdb4 f   libeay32:ecp_smpl.obj
 0001:0003af80       ec_GFp_simple_group_get_curve 0004bf80 f   libeay32:ecp_smpl.obj
 0001:0003b0b0       ec_GFp_simple_group_get_degree 0004c0b0 f   libeay32:ecp_smpl.obj
 0001:0003b0c4       ec_GFp_simple_group_check_discriminant 0004c0c4 f   libeay32:ecp_smpl.obj
 0001:0003b2e8       ec_GFp_simple_point_init   0004c2e8 f   libeay32:ecp_smpl.obj
 0001:0003b31c       ec_GFp_simple_point_finish 0004c31c f   libeay32:ecp_smpl.obj
 0001:0003b344       ec_GFp_simple_point_clear_finish 0004c344 f   libeay32:ecp_smpl.obj
 0001:0003b374       ec_GFp_simple_point_copy   0004c374 f   libeay32:ecp_smpl.obj
 0001:0003b3dc       ec_GFp_simple_point_set_to_infinity 0004c3dc f   libeay32:ecp_smpl.obj
 0001:0003b404       ec_GFp_simple_set_Jprojective_coordinates_GFp 0004c404 f   libeay32:ecp_smpl.obj
 0001:0003b5b4       ec_GFp_simple_get_Jprojective_coordinates_GFp 0004c5b4 f   libeay32:ecp_smpl.obj
 0001:0003b704       ec_GFp_simple_point_set_affine_coordinates 0004c704 f   libeay32:ecp_smpl.obj
 0001:0003b784       ec_GFp_simple_point_get_affine_coordinates 0004c784 f   libeay32:ecp_smpl.obj
 0001:0003bac0       ec_GFp_simple_add          0004cac0 f   libeay32:ecp_smpl.obj
 0001:0003c0d0       ec_GFp_simple_dbl          0004d0d0 f   libeay32:ecp_smpl.obj
 0001:0003c5a8       ec_GFp_simple_invert       0004d5a8 f   libeay32:ecp_smpl.obj
 0001:0003c5f0       ec_GFp_simple_is_at_infinity 0004d5f0 f   libeay32:ecp_smpl.obj
 0001:0003c604       ec_GFp_simple_is_on_curve  0004d604 f   libeay32:ecp_smpl.obj
 0001:0003c944       ec_GFp_simple_cmp          0004d944 f   libeay32:ecp_smpl.obj
 0001:0003cc28       ec_GFp_simple_make_affine  0004dc28 f   libeay32:ecp_smpl.obj
 0001:0003cd44       ec_GFp_simple_points_make_affine 0004dd44 f   libeay32:ecp_smpl.obj
 0001:0003d244       ec_GFp_simple_field_mul    0004e244 f   libeay32:ecp_smpl.obj
 0001:0003d280       ec_GFp_simple_field_sqr    0004e280 f   libeay32:ecp_smpl.obj
 0001:0003d2a4       BN_get0_nist_prime_192     0004e2a4 f   libeay32:bn_nist.obj
 0001:0003d2b0       BN_get0_nist_prime_224     0004e2b0 f   libeay32:bn_nist.obj
 0001:0003d2bc       BN_get0_nist_prime_256     0004e2bc f   libeay32:bn_nist.obj
 0001:0003d2c8       BN_get0_nist_prime_384     0004e2c8 f   libeay32:bn_nist.obj
 0001:0003d2d4       BN_get0_nist_prime_521     0004e2d4 f   libeay32:bn_nist.obj
 0001:0003d330       BN_nist_mod_192            0004e330 f   libeay32:bn_nist.obj
 0001:0003d5f8       BN_nist_mod_224            0004e5f8 f   libeay32:bn_nist.obj
 0001:0003d95c       BN_nist_mod_256            0004e95c f   libeay32:bn_nist.obj
 0001:0003de18       BN_nist_mod_384            0004ee18 f   libeay32:bn_nist.obj
 0001:0003e3dc       BN_nist_mod_521            0004f3dc f   libeay32:bn_nist.obj
 0001:0003ef40       ec_GF2m_simple_mul         0004ff40 f   libeay32:ec2_mult.obj
 0001:0003f1bc       ec_GF2m_precompute_mult    000501bc f   libeay32:ec2_mult.obj
 0001:0003f1cc       ec_GF2m_have_precompute_mult 000501cc f   libeay32:ec2_mult.obj
 0001:0003f374       BN_GF2m_add                00050374 f   libeay32:bn_gf2m.obj
 0001:0003f468       BN_GF2m_mod_arr            00050468 f   libeay32:bn_gf2m.obj
 0001:0003f6e0       BN_GF2m_mod_sqr_arr        000506e0 f   libeay32:bn_gf2m.obj
 0001:0003f868       BN_GF2m_poly2arr           00050868 f   libeay32:bn_gf2m.obj
 0001:0003f90c       BN_GF2m_mod                0005090c f   libeay32:bn_gf2m.obj
 0001:0003f988       BN_GF2m_mod_mul_arr        00050988 f   libeay32:bn_gf2m.obj
 0001:0003fbd8       BN_GF2m_mod_mul            00050bd8 f   libeay32:bn_gf2m.obj
 0001:0003fc9c       BN_GF2m_mod_inv            00050c9c f   libeay32:bn_gf2m.obj
 0001:000400dc       BN_GF2m_mod_div            000510dc f   libeay32:bn_gf2m.obj
 0001:00040168       BN_GF2m_mod_exp_arr        00051168 f   libeay32:bn_gf2m.obj
 0001:000402a0       BN_GF2m_mod_sqrt_arr       000512a0 f   libeay32:bn_gf2m.obj
 0001:0004033c       BN_GF2m_mod_solve_quad_arr 0005133c f   libeay32:bn_gf2m.obj
 0001:0004069c       ENGINE_get_cipher_engine   0005169c f   libeay32:tb_cipher.obj
 0001:000406b8       ENGINE_get_cipher          000516b8 f   libeay32:tb_cipher.obj
 0001:0004071c       ec_GF2m_simple_set_compressed_coordinates 0005171c f   libeay32:ec2_oct.obj
 0001:000409b0       ec_GF2m_simple_point2oct   000519b0 f   libeay32:ec2_oct.obj
 0001:00040d54       ec_GF2m_simple_oct2point   00051d54 f   libeay32:ec2_oct.obj
 0001:00041100       ec_GFp_simple_set_compressed_coordinates 00052100 f   libeay32:ecp_oct.obj
 0001:0004154c       ec_GFp_simple_point2oct    0005254c f   libeay32:ecp_oct.obj
 0001:000418bc       ec_GFp_simple_oct2point    000528bc f   libeay32:ecp_oct.obj
 0001:00041ee0       PKCS7_dataInit             00052ee0 f   libeay32:pk7_doit.obj
 0001:00042404       PKCS7_SIGNER_INFO_sign     00053404 f   libeay32:pk7_doit.obj
 0001:00042774       PKCS7_add_signed_attribute 00053774 f   libeay32:pk7_doit.obj
 0001:0004288c       PKCS7_dataFinal            0005388c f   libeay32:pk7_doit.obj
 0001:00042cb8       X509_VAL_it                00053cb8 f   libeay32:x_val.obj
 0001:00042cc4       GENERAL_SUBTREE_it         00053cc4 f   libeay32:v3_ncons.obj
 0001:00042cd0       NAME_CONSTRAINTS_it        00053cd0 f   libeay32:v3_ncons.obj
 0001:00042cdc       NAME_CONSTRAINTS_free      00053cdc f   libeay32:v3_ncons.obj
 0001:000430b4       policy_cache_free          000540b4 f   libeay32:pcy_cache.obj
 0001:000433d0       DIST_POINT_NAME_it         000543d0 f   libeay32:v3_crld.obj
 0001:000433dc       DIST_POINT_it              000543dc f   libeay32:v3_crld.obj
 0001:000433e8       DIST_POINT_free            000543e8 f   libeay32:v3_crld.obj
 0001:00043400       CRL_DIST_POINTS_it         00054400 f   libeay32:v3_crld.obj
 0001:0004340c       CRL_DIST_POINTS_free       0005440c f   libeay32:v3_crld.obj
 0001:00043424       ISSUING_DIST_POINT_it      00054424 f   libeay32:v3_crld.obj
 0001:00043430       ISSUING_DIST_POINT_free    00054430 f   libeay32:v3_crld.obj
 0001:00043778       DIST_POINT_set_dpname      00054778 f   libeay32:v3_crld.obj
 0001:00043ea0       AUTHORITY_KEYID_it         00054ea0 f   libeay32:v3_akeya.obj
 0001:00043eac       AUTHORITY_KEYID_new        00054eac f   libeay32:v3_akeya.obj
 0001:00043ec4       AUTHORITY_KEYID_free       00054ec4 f   libeay32:v3_akeya.obj
 0001:00043edc       X509_CERT_AUX_free         00054edc f   libeay32:x_x509a.obj
 0001:00043ef4       ASN1_item_verify           00054ef4 f   libeay32:a_verify.obj
 0001:00044194       X509_digest                00055194 f   libeay32:x_all.obj
 0001:000441d0       X509_CRL_digest            000551d0 f   libeay32:x_all.obj
 0001:00044250       CMS_stream                 00055250 f   libeay32:cms_io.obj
 0001:000442ec       X509v3_get_ext_count       000552ec f   libeay32:x509_v3.obj
 0001:0004430c       X509v3_get_ext_by_OBJ      0005530c f   libeay32:x509_v3.obj
 0001:00044370       X509v3_get_ext             00055370 f   libeay32:x509_v3.obj
 0001:000443b8       X509_EXTENSION_get_object  000553b8 f   libeay32:x509_v3.obj
 0001:000443c8       X509_EXTENSION_get_critical 000553c8 f   libeay32:x509_v3.obj
 0001:000443e8       X509v3_get_ext_by_NID      000553e8 f   libeay32:x509_v3.obj
 0001:00044424       PROXY_POLICY_it            00055424 f   libeay32:v3_pcia.obj
 0001:00044430       PROXY_CERT_INFO_EXTENSION_it 00055430 f   libeay32:v3_pcia.obj
 0001:0004443c       PROXY_CERT_INFO_EXTENSION_new 0005543c f   libeay32:v3_pcia.obj
 0001:00044454       PROXY_CERT_INFO_EXTENSION_free 00055454 f   libeay32:v3_pcia.obj
 0001:0004446c       BASIC_CONSTRAINTS_it       0005546c f   libeay32:v3_bcons.obj
 0001:00044478       BASIC_CONSTRAINTS_free     00055478 f   libeay32:v3_bcons.obj
 0001:0004461c       ASN1_GENERALIZEDTIME_check 0005561c f   libeay32:a_gentm.obj
 0001:000447f8       ASN1_GENERALIZEDTIME_adj   000557f8 f   libeay32:a_gentm.obj
 0001:0004493c       ASN1_UTCTIME_check         0005593c f   libeay32:a_utctm.obj
 0001:00044ac8       ASN1_UTCTIME_adj           00055ac8 f   libeay32:a_utctm.obj
 0001:00044c38       OPENSSL_gmtime             00055c38 f   libeay32:o_time.obj
 0001:00044db0       OPENSSL_gmtime_adj         00055db0 f   libeay32:o_time.obj
 0001:00044fc8       X509at_get_attr_count      00055fc8 f   libeay32:x509_att.obj
 0001:00044fd8       X509at_get_attr_by_OBJ     00055fd8 f   libeay32:x509_att.obj
 0001:0004503c       X509at_add1_attr           0005603c f   libeay32:x509_att.obj
 0001:00045110       X509_ATTRIBUTE_set1_object 00056110 f   libeay32:x509_att.obj
 0001:00045154       X509_ATTRIBUTE_set1_data   00056154 f   libeay32:x509_att.obj
 0001:000452c8       X509at_get_attr_by_NID     000562c8 f   libeay32:x509_att.obj
 0001:00045304       X509_ATTRIBUTE_create_by_OBJ 00056304 f   libeay32:x509_att.obj
 0001:000453d8       X509_ATTRIBUTE_create_by_NID 000563d8 f   libeay32:x509_att.obj
 0001:0004545c       X509at_add1_attr_by_NID    0005645c f   libeay32:x509_att.obj
 0001:00045648       BIO_f_md                   00056648 f   libeay32:bio_md.obj
 0001:000459b4       BIO_s_mem                  000569b4 f   libeay32:bss_mem.obj
 0001:000459c0       BIO_new_mem_buf            000569c0 f   libeay32:bss_mem.obj
 0001:00045e4c       BIO_s_null                 00056e4c f   libeay32:bss_null.obj
 0001:00045f00       cms_DigestedData_init_bio  00056f00 f   libeay32:cms_dd.obj
 0001:00045f18       cms_DigestedData_do_final  00056f18 f   libeay32:cms_dd.obj
 0001:00046018       ASN1_tag2str               00057018 f   libeay32:asn1_par.obj
 0001:00046058       UTF8_getc                  00057058 f   libeay32:a_utf8.obj
 0001:0004635c       UTF8_putc                  0005735c f   libeay32:a_utf8.obj
 0001:00046848       ASN1_mbstring_ncopy        00057848 f   libeay32:a_mbstr.obj
 0001:00046d38       ASN1_mbstring_copy         00057d38 f   libeay32:a_mbstr.obj
 0001:00046d64       BIO_f_cipher               00057d64 f   libeay32:bio_enc.obj
 0001:0004733c       private_AES_set_encrypt_key 0005833c f   libeay32:aes_core.obj
 0001:00047920       AES_encrypt                00058920 f   libeay32:aes_core.obj
 0001:000480a4       d2i_PBE2PARAM              000590a4 f   libeay32:p5_pbev2.obj
 0001:000480bc       PBE2PARAM_free             000590bc f   libeay32:p5_pbev2.obj
 0001:000480d4       d2i_PBKDF2PARAM            000590d4 f   libeay32:p5_pbev2.obj
 0001:000480ec       PBKDF2PARAM_free           000590ec f   libeay32:p5_pbev2.obj
 0001:00048104       ASN1_PRINTABLE_type        00059104 f   libeay32:a_print.obj
 0001:00048218       ASN1_STRING_TABLE_get      00059218 f   libeay32:a_strnid.obj
 0001:00048294       ASN1_STRING_set_by_NID     00059294 f   libeay32:a_strnid.obj
 0001:00048354       i2v_GENERAL_NAME           00059354 f   libeay32:v3_alt.obj
 0001:00048524       GENERAL_NAME_print         00059524 f   libeay32:v3_alt.obj
 0001:00048b28       i2v_GENERAL_NAMES          00059b28 f   libeay32:v3_alt.obj
 0001:00048b9c       a2i_GENERAL_NAME           00059b9c f   libeay32:v3_alt.obj
 0001:00048e24       v2i_GENERAL_NAME_ex        00059e24 f   libeay32:v3_alt.obj
 0001:00048f98       v2i_GENERAL_NAME           00059f98 f   libeay32:v3_alt.obj
 0001:00049254       v2i_GENERAL_NAMES          0005a254 f   libeay32:v3_alt.obj
 0001:00049324       DSO_convert_filename       0005a324 f   libeay32:dso_lib.obj
 0001:00049464       CONF_set_nconf             0005a464 f   libeay32:conf_lib.obj
 0001:000494a8       NCONF_get_section          0005a4a8 f   libeay32:conf_lib.obj
 0001:00049524       NCONF_get_string           0005a524 f   libeay32:conf_lib.obj
 0001:000495bc       CONF_get_section           0005a5bc f   libeay32:conf_lib.obj
 0001:000495f8       CONF_get_string            0005a5f8 f   libeay32:conf_lib.obj
 0001:0004963c       CONF_free                  0005a63c f   libeay32:conf_lib.obj
 0001:00049684       POLICY_MAPPING_it          0005a684 f   libeay32:v3_pmaps.obj
 0001:00049690       POLICY_MAPPINGS_it         0005a690 f   libeay32:v3_pmaps.obj
 0001:0004969c       POLICY_MAPPING_free        0005a69c f   libeay32:v3_pmaps.obj
 0001:0004a900       POLICY_CONSTRAINTS_it      0005b900 f   libeay32:v3_pcons.obj
 0001:0004aac0       EXTENDED_KEY_USAGE_it      0005bac0 f   libeay32:v3_extku.obj
 0001:0004ac60       SXNETID_it                 0005bc60 f   libeay32:v3_sxnet.obj
 0001:0004ac6c       SXNET_it                   0005bc6c f   libeay32:v3_sxnet.obj
 0001:0004ad48       SXNET_get_id_INTEGER       0005bd48 f   libeay32:v3_sxnet.obj
 0001:0004adb8       SXNET_add_id_INTEGER       0005bdb8 f   libeay32:v3_sxnet.obj
 0001:0004af60       SXNET_add_id_asc           0005bf60 f   libeay32:v3_sxnet.obj
 0001:0004b04c       i2s_ASN1_ENUMERATED_TABLE  0005c04c f   libeay32:v3_enum.obj
 0001:0004b440       CERTIFICATEPOLICIES_it     0005c440 f   libeay32:v3_cpols.obj
 0001:0004b44c       POLICYINFO_it              0005c44c f   libeay32:v3_cpols.obj
 0001:0004b458       POLICYINFO_free            0005c458 f   libeay32:v3_cpols.obj
 0001:0004b47c       POLICYQUALINFO_it          0005c47c f   libeay32:v3_cpols.obj
 0001:0004b488       POLICYQUALINFO_free        0005c488 f   libeay32:v3_cpols.obj
 0001:0004b4a0       USERNOTICE_it              0005c4a0 f   libeay32:v3_cpols.obj
 0001:0004b4ac       NOTICEREF_it               0005c4ac f   libeay32:v3_cpols.obj
 0001:0004c140       PKEY_USAGE_PERIOD_it       0005d140 f   libeay32:v3_pku.obj
 0001:0004c1fc       i2v_ASN1_BIT_STRING        0005d1fc f   libeay32:v3_bitst.obj
 0001:0004c260       v2i_ASN1_BIT_STRING        0005d260 f   libeay32:v3_bitst.obj
 0001:0004c3e0       i2s_ASN1_OCTET_STRING      0005d3e0 f   libeay32:v3_skey.obj
 0001:0004c3fc       s2i_ASN1_OCTET_STRING      0005d3fc f   libeay32:v3_skey.obj
 0001:0004c728       X509V3_get_section         0005d728 f   libeay32:v3_conf.obj
 0001:0004c798       X509V3_section_free        0005d798 f   libeay32:v3_conf.obj
 0001:0004c834       X509_REQ_INFO_it           0005d834 f   libeay32:x_req.obj
 0001:0004c840       ECDH_OpenSSL               0005d840 f   libeay32:ech_ossl.obj
 0001:0004cb98       ENGINE_get_default_ECDH    0005db98 f   libeay32:tb_ecdh.obj
 0001:0004cbb4       ENGINE_get_ECDH            0005dbb4 f   libeay32:tb_ecdh.obj
 0001:0004cbbc       d2i_PBEPARAM               0005dbbc f   libeay32:p5_pbe.obj
 0001:0004cbd4       PBEPARAM_free              0005dbd4 f   libeay32:p5_pbe.obj
 0001:0004cbec       PKCS12_key_gen_uni         0005dbec f   libeay32:p12_key.obj
 0001:0004d0ec       PKCS12_key_gen_asc         0005e0ec f   libeay32:p12_key.obj
 0001:0004d1c4       BN_kronecker               0005e1c4 f   libeay32:bn_kron.obj
 0001:0004d478       BN_mod_sqrt                0005e478 f   libeay32:bn_sqrt.obj
 0001:0004dc88       PKCS7_add0_attrib_signing_time 0005ec88 f   libeay32:pk7_attr.obj
 0001:0004dcf8       PKCS7_add1_attrib_digest   0005ecf8 f   libeay32:pk7_attr.obj
 0001:0004dd64       policy_data_free           0005ed64 f   libeay32:pcy_data.obj
 0001:0004ddac       NETSCAPE_SPKAC_it          0005edac f   libeay32:x_spki.obj
 0001:0004ddb8       ASN1_item_digest           0005edb8 f   libeay32:a_digest.obj
 0001:0004de38       MD5_Init                   0005ee38 f   libeay32:md5_dgst.obj
 0001:0004de88       md5_block_data_order       0005ee88 f   libeay32:md5_dgst.obj
 0001:0004ea84       MD5_Update                 0005fa84 f   libeay32:md5_dgst.obj
 0001:0004eb8c       MD5_Final                  0005fb8c f   libeay32:md5_dgst.obj
 0001:0004f94c       ASN1_generate_v3           0006094c f   libeay32:asn1_gen.obj
 0001:0004fd7c       NCONF_default              00060d7c f   libeay32:conf_def.obj
 0001:00050cfc       _CONF_get_section          00061cfc f   libeay32:conf_api.obj
 0001:00050d44       _CONF_get_section_values   00061d44 f   libeay32:conf_api.obj
 0001:00050d64       _CONF_add_string           00061d64 f   libeay32:conf_api.obj
 0001:00050ddc       _CONF_get_string           00061ddc f   libeay32:conf_api.obj
 0001:00050f40       _CONF_new_data             00061f40 f   libeay32:conf_api.obj
 0001:00050f90       _CONF_new_section          00061f90 f   libeay32:conf_api.obj
 0001:00051100       _CONF_free_data            00062100 f   libeay32:conf_api.obj
 0001:00051154       OCSP_SIGNATURE_it          00062154 f   libeay32:ocsp_asn.obj
 0001:00051160       OCSP_CERTID_it             00062160 f   libeay32:ocsp_asn.obj
 0001:0005116c       OCSP_ONEREQ_it             0006216c f   libeay32:ocsp_asn.obj
 0001:00051178       OCSP_REQINFO_it            00062178 f   libeay32:ocsp_asn.obj
 0001:00051184       OCSP_RESPBYTES_it          00062184 f   libeay32:ocsp_asn.obj
 0001:00051190       OCSP_RESPID_it             00062190 f   libeay32:ocsp_asn.obj
 0001:0005119c       OCSP_REVOKEDINFO_it        0006219c f   libeay32:ocsp_asn.obj
 0001:000511a8       OCSP_CERTSTATUS_it         000621a8 f   libeay32:ocsp_asn.obj
 0001:000511b4       OCSP_SINGLERESP_it         000621b4 f   libeay32:ocsp_asn.obj
 0001:000511c0       OCSP_RESPDATA_it           000621c0 f   libeay32:ocsp_asn.obj
 0001:000511cc       OCSP_CRLID_it              000621cc f   libeay32:ocsp_asn.obj
 0001:000511d8       OCSP_SERVICELOC_it         000621d8 f   libeay32:ocsp_asn.obj
 0001:000511e4       i2a_ASN1_STRING            000621e4 f   libeay32:f_string.obj
 0001:00051300       OPENSSL_asc2uni            00062300 f   libeay32:p12_utl.obj
 0001:000513a0       EVP_EncodeInit             000623a0 f   libeay32:encode.obj
 0001:000513b8       EVP_EncodeBlock            000623b8 f   libeay32:encode.obj
 0001:00051498       EVP_DecodeInit             00062498 f   libeay32:encode.obj
 0001:000514b4       EVP_DecodeBlock            000624b4 f   libeay32:encode.obj
 0001:000515d8       EVP_EncodeUpdate           000625d8 f   libeay32:encode.obj
 0001:00051704       EVP_EncodeFinal            00062704 f   libeay32:encode.obj
 0001:00051758       EVP_DecodeUpdate           00062758 f   libeay32:encode.obj
 0001:00054630       PKCS12_MAC_DATA_it         00065630 f   libeay32:p12_asn.obj
 0001:00054648       PKCS12_BAGS_it             00065648 f   libeay32:p12_asn.obj
 0001:00054660       PKCS12_SAFEBAG_it          00065660 f   libeay32:p12_asn.obj
 0001:0005466c       UI_get_string_type         0006566c f   libeay32:ui_lib.obj
 0001:0005467c       UI_get_input_flags         0006567c f   libeay32:ui_lib.obj
 0001:0005468c       UI_get0_output_string      0006568c f   libeay32:ui_lib.obj
 0001:0005469c       UI_get0_action_string      0006569c f   libeay32:ui_lib.obj
 0001:000546c8       UI_get0_result_string      000656c8 f   libeay32:ui_lib.obj
 0001:000546ec       UI_get0_test_string        000656ec f   libeay32:ui_lib.obj
 0001:00054ca0       w32_filetime_to_time_t     00065ca0 f   wcecompatex:time.obj
 0001:00054d40       time                       00065d40 f   wcecompatex:time.obj
 0001:00054da4       dayOfYear                  00065da4 f   wcecompatex:time.obj
 0001:00054e78       localtime                  00065e78 f   wcecompatex:time.obj
 0001:00054fa0       gmtime                     00065fa0 f   wcecompatex:time.obj
 0001:00055060       strerror                   00066060 f   wcecompatex:string_extras.obj
 0001:00055084       raise                      00066084 f   wcecompatex:signal.obj
 0001:0005508c       getenv                     0006608c f   wcecompatex:env.obj
 0001:00055110       ?unicode2ascii@@YAXPB_WPAD@Z 00066110 f   wcecompatex:ts_string.obj
 0001:00055164       ?ascii2unicode@@YAXPBDPA_WH@Z 00066164 f   wcecompatex:ts_string.obj
 0001:00055204       ?unicode2ascii@@YAXPB_WPADH@Z 00066204 f   wcecompatex:ts_string.obj
 0001:00055294       _getstdfilex               00066294 f   coredll:COREDLL.dll
 0001:000552a4       memcmp                     000662a4 f   coredll:COREDLL.dll
 0001:000552b4       memcpy                     000662b4 f   coredll:COREDLL.dll
 0001:000552c4       strlen                     000662c4 f   coredll:COREDLL.dll
 0001:000552d4       _isctype                   000662d4 f   coredll:COREDLL.dll
 0001:000552e4       memset                     000662e4 f   coredll:COREDLL.dll
 0001:000552f4       strncpy                    000662f4 f   coredll:COREDLL.dll
 0001:00055304       strchr                     00066304 f   coredll:COREDLL.dll
 0001:00055314       free                       00066314 f   coredll:COREDLL.dll
 0001:00055324       realloc                    00066324 f   coredll:COREDLL.dll
 0001:00055334       malloc                     00066334 f   coredll:COREDLL.dll
 0001:00055344       strcpy                     00066344 f   coredll:COREDLL.dll
 0001:00055354       fclose                     00066354 f   coredll:COREDLL.dll
 0001:00055364       GetLastError               00066364 f   coredll:COREDLL.dll
 0001:00055374       ferror                     00066374 f   coredll:COREDLL.dll
 0001:00055384       fread                      00066384 f   coredll:COREDLL.dll
 0001:00055394       fwrite                     00066394 f   coredll:COREDLL.dll
 0001:000553a4       _setmode                   000663a4 f   coredll:COREDLL.dll
 0001:000553b4       _fileno                    000663b4 f   coredll:COREDLL.dll
 0001:000553c4       fopen                      000663c4 f   coredll:COREDLL.dll
 0001:000553d4       fseek                      000663d4 f   coredll:COREDLL.dll
 0001:000553e4       ftell                      000663e4 f   coredll:COREDLL.dll
 0001:000553f4       feof                       000663f4 f   coredll:COREDLL.dll
 0001:00055404       fflush                     00066404 f   coredll:COREDLL.dll
 0001:00055414       strcat                     00066414 f   coredll:COREDLL.dll
 0001:00055424       fgets                      00066424 f   coredll:COREDLL.dll
 0001:00055434       _wfopen                    00066434 f   coredll:COREDLL.dll
 0001:00055444       MultiByteToWideChar        00066444 f   coredll:COREDLL.dll
 0001:00055454       MessageBoxW                00066454 f   coredll:COREDLL.dll
 0001:00055464       _vsnwprintf                00066464 f   coredll:COREDLL.dll
 0001:00055474       strcmp                     00066474 f   coredll:COREDLL.dll
 0001:00055484       qsort                      00066484 f   coredll:COREDLL.dll
 0001:00055494       memchr                     00066494 f   coredll:COREDLL.dll
 0001:000554a4       _strnicmp                  000664a4 f   coredll:COREDLL.dll
 0001:000554b4       fprintf                    000664b4 f   coredll:COREDLL.dll
 0001:000554c4       GetTickCount               000664c4 f   coredll:COREDLL.dll
 0001:000554d4       QueryPerformanceCounter    000664d4 f   coredll:COREDLL.dll
 0001:000554e4       GlobalMemoryStatus         000664e4 f   coredll:COREDLL.dll
 0001:000554f4       CryptReleaseContext        000664f4 f   coredll:COREDLL.dll
 0001:00055504       CryptGenRandom             00066504 f   coredll:COREDLL.dll
 0001:00055514       CryptAcquireContextW       00066514 f   coredll:COREDLL.dll
 0001:00055524       GetVersionExW              00066524 f   coredll:COREDLL.dll
 0001:00055534       atoi                       00066534 f   coredll:COREDLL.dll
 0001:00055544       tolower                    00066544 f   coredll:COREDLL.dll
 0001:00055554       strncmp                    00066554 f   coredll:COREDLL.dll
 0001:00055564       sscanf                     00066564 f   coredll:COREDLL.dll
 0001:00055574       strrchr                    00066574 f   coredll:COREDLL.dll
 0001:00055584       _stricmp                   00066584 f   coredll:COREDLL.dll
 0001:00055594       memmove                    00066594 f   coredll:COREDLL.dll
 0001:000555a4       strtoul                    000665a4 f   coredll:COREDLL.dll
 0001:000555b4       LoadLibraryW               000665b4 f   coredll:COREDLL.dll
 0001:000555c4       SetLastError               000665c4 f   coredll:COREDLL.dll
 0001:000555d4       FreeLibrary                000665d4 f   coredll:COREDLL.dll
 0001:000555e4       GetProcAddressA            000665e4 f   coredll:COREDLL.dll
 0001:000555f4       sprintf                    000665f4 f   coredll:COREDLL.dll
 0001:00055604       strstr                     00066604 f   coredll:COREDLL.dll
 0001:00055614       WideCharToMultiByte        00066614 f   coredll:COREDLL.dll
 0001:00055624       fputs                      00066624 f   coredll:COREDLL.dll
 0001:00055634       SystemTimeToFileTime       00066634 f   coredll:COREDLL.dll
 0001:00055644       GetSystemTime              00066644 f   coredll:COREDLL.dll
 0001:00055654       GetTimeZoneInformation     00066654 f   coredll:COREDLL.dll
 0001:00055664       FileTimeToSystemTime       00066664 f   coredll:COREDLL.dll
 0001:00055674       FileTimeToLocalFileTime    00066674 f   coredll:COREDLL.dll
 0001:00055684       _cinit                     00066684 f   corelibc:crt0dat.obj
 0001:000557f4       exit                       000667f4 f   corelibc:crt0dat.obj
 0001:0005580c       _exit                      0006680c f   corelibc:crt0dat.obj
 0001:0005582c       WinMainCRTStartup          0006682c f   corelibc:pegwmain.obj
 0001:000558a0       WinMain                    000668a0 f   wcecompatex:winmain.obj
 0001:00055bfc       ?processCmdLine@@YAHPA_WPAPAPAD@Z 00066bfc f   wcecompatex:args.obj
 0001:00056038       LocalFree                  00067038 f   coredll:COREDLL.dll
 0001:00056048       _XcptFilter                00067048 f   coredll:COREDLL.dll
 0001:00056058       __C_specific_handler       00067058 f   coredll:COREDLL.dll
 0001:00056068       FindFirstFileW             00067068 f   coredll:COREDLL.dll
 0001:00056078       FindClose                  00067078 f   coredll:COREDLL.dll
 0001:00056088       FindNextFileW              00067088 f   coredll:COREDLL.dll
 0001:00056098       GetModuleFileNameW         00067098 f   coredll:COREDLL.dll
 0002:00000058       ??_C@_0BC@DKDLJCML@error?5in?5dsatest?6?$AA@ 00068058     dsatest.obj
 0002:0000006c       ??_C@_0BC@NFLCIEFL@q?5value?5is?5wrong?6?$AA@ 0006806c     dsatest.obj
 0002:00000080       ??_C@_0BC@DKOADCLK@p?5value?5is?5wrong?6?$AA@ 00068080     dsatest.obj
 0002:00000094       ??_C@_0BC@PFGNGEMG@g?5value?5is?5wrong?6?$AA@ 00068094     dsatest.obj
 0002:000000a8       ??_C@_0P@NKEEOOHB@h?5should?5be?52?6?$AA@ 000680a8     dsatest.obj
 0002:000000b8       ??_C@_0BH@BNJKFJN@counter?5should?5be?5105?6?$AA@ 000680b8     dsatest.obj
 0002:000000d0       ??_C@_0BD@LNPKCMNF@?6counter?$DN?$CFd?5h?$DN?$CFld?6?$AA@ 000680d0     dsatest.obj
 0002:000000e4       ??_C@_0BC@FAANNJKC@?$CF02X?$CF02X?$CF02X?$CF02X?5?$AA@ 000680e4     dsatest.obj
 0002:000000f8       ??_C@_05CLJAFFEJ@seed?6?$AA@ 000680f8     dsatest.obj
 0002:00000100       ??_C@_0CD@EPONLEAN@test?5generation?5of?5DSA?5parameter@ 00068100     dsatest.obj
 0002:00000128       ??_C@_0EN@GMEKCP@d?3?2wm653wehh?2platform?2mvv210?2src@ 00068128     libeay32:b_print.obj
 0002:00000178       ??_C@_06CBHGEMFM@?$DMNULL?$DO?$AA@ 00068178     libeay32:b_print.obj
 0002:00000180       ??_C@_0BB@JCEFLFJE@0123456789abcdef?$AA@ 00068180     libeay32:b_print.obj
 0002:00000194       ??_C@_0BB@JGGOGLEG@0123456789ABCDEF?$AA@ 00068194     libeay32:b_print.obj
 0002:000001a8       ??_C@_02MDDDDAID@0x?$AA@   000681a8     libeay32:b_print.obj
 0002:000001ac       ??_C@_01GBGANLPD@0?$AA@    000681ac     libeay32:b_print.obj
 0002:000001ae       ??_C@_00CNPNBAHC@?$AA@     000681ae     libeay32:b_print.obj
 0002:000001b0       ??_C@_07DKNGGOEP@doapr?$CI?$CJ?$AA@ 000681b0     libeay32:b_print.obj
 0002:000001b8       ??_C@_0EN@MBCJMNEM@d?3?2wm653wehh?2platform?2mvv210?2src@ 000681b8     libeay32:bio_lib.obj
 0002:00000208       ??_C@_01CLKCMJKC@?5?$AA@   00068208     libeay32:bio_lib.obj
 0002:00000210       ??_C@_0EJ@DIAKMCGH@d?3?2wm653wehh?2platform?2mvv210?2src@ 00068210     libeay32:mem_dbg.obj
 0002:0000025c       ??_C@_02MBJIFMOJ@?$CC?6?$AA@ 0006825c     libeay32:mem_dbg.obj
 0002:00000260       ??_C@_0CG@LFPKBHEM@?5thread?$DN?$CFlu?0?5file?$DN?$CFs?0?5line?$DN?$CFd?0?5i@ 00068260     libeay32:mem_dbg.obj
 0002:00000288       ??_C@_0BK@MHANPPFK@number?$DN?$CFd?0?5address?$DN?$CF08lX?6?$AA@ 00068288     libeay32:mem_dbg.obj
 0002:000002a4       ??_C@_0N@BAIEKLOK@thread?$DN?$CFlu?0?5?$AA@ 000682a4     libeay32:mem_dbg.obj
 0002:000002b4       ??_C@_0BI@OFHOPHMO@?$CF5lu?5file?$DN?$CFs?0?5line?$DN?$CFd?0?5?$AA@ 000682b4     libeay32:mem_dbg.obj
 0002:000002cc       ??_C@_0BC@MALIEGMD@?$FL?$CF02d?3?$CF02d?3?$CF02d?$FN?5?$AA@ 000682cc     libeay32:mem_dbg.obj
 0002:000002e0       ??_C@_0BP@JOECODN@?$CFld?5bytes?5leaked?5in?5?$CFd?5chunks?6?$AA@ 000682e0     libeay32:mem_dbg.obj
 0002:0000032c       ??_C@_0DE@JBNNAKOP@called?5a?5function?5that?5was?5disab@ 0006832c     libeay32:err.obj
 0002:00000360       ??_C@_0P@LPIEGNHB@internal?5error?$AA@ 00068360     libeay32:err.obj
 0002:00000370       ??_C@_0BI@MMHLKOF@passed?5a?5null?5parameter?$AA@ 00068370     libeay32:err.obj
 0002:00000388       ??_C@_0CG@JFIACAPA@called?5a?5function?5you?5should?5not@ 00068388     libeay32:err.obj
 0002:000003b0       ??_C@_0P@BOLAOBGL@malloc?5failure?$AA@ 000683b0     libeay32:err.obj
 0002:000003c0       ??_C@_05FAMCFOJB@fatal?$AA@ 000683c0     libeay32:err.obj
 0002:000003c8       ??_C@_0BB@LLCBNOLO@missing?5asn1?5eos?$AA@ 000683c8     libeay32:err.obj
 0002:000003dc       ??_C@_0BF@JKEELALH@asn1?5length?5mismatch?$AA@ 000683dc     libeay32:err.obj
 0002:000003f4       ??_C@_0BL@PKJJDDDF@expecting?5an?5asn1?5sequence?$AA@ 000683f4     libeay32:err.obj
 0002:00000410       ??_C@_0BJ@KHBMOGBI@bad?5get?5asn1?5object?5call?$AA@ 00068410     libeay32:err.obj
 0002:0000042c       ??_C@_0BH@LJENPHMF@bad?5asn1?5object?5header?$AA@ 0006842c     libeay32:err.obj
 0002:00000444       ??_C@_0BC@JPACPGKL@nested?5asn1?5error?$AA@ 00068444     libeay32:err.obj
 0002:00000458       ??_C@_06JPOPAJEJ@TS?5lib?$AA@ 00068458     libeay32:err.obj
 0002:00000460       ??_C@_08BIAIHGB@OCSP?5lib?$AA@ 00068460     libeay32:err.obj
 0002:0000046c       ??_C@_0L@NEGIHAGL@ENGINE?5lib?$AA@ 0006846c     libeay32:err.obj
 0002:00000478       ??_C@_07HLMFDJCH@DSO?5lib?$AA@ 00068478     libeay32:err.obj
 0002:00000480       ??_C@_08IAGEJILJ@RAND?5lib?$AA@ 00068480     libeay32:err.obj
 0002:0000048c       ??_C@_0L@FBHADCPC@PKCS12?5lib?$AA@ 0006848c     libeay32:err.obj
 0002:00000498       ??_C@_0L@OHLIEDB@X509V3?5lib?$AA@ 00068498     libeay32:err.obj
 0002:000004a4       ??_C@_09PFAKBDBP@PKCS7?5lib?$AA@ 000684a4     libeay32:err.obj
 0002:000004b0       ??_C@_07HOAEPDCA@BIO?5lib?$AA@ 000684b0     libeay32:err.obj
 0002:000004b8       ??_C@_07ILCPHDLL@SSL?5lib?$AA@ 000684b8     libeay32:err.obj
 0002:000004c0       ??_C@_06FNJAJMKI@EC?5lib?$AA@ 000684c0     libeay32:err.obj
 0002:000004c8       ??_C@_0L@GEIMIIEL@CRYPTO?5lib?$AA@ 000684c8     libeay32:err.obj
 0002:000004d4       ??_C@_08GDJNHNLC@CONF?5lib?$AA@ 000684d4     libeay32:err.obj
 0002:000004e0       ??_C@_08HAFIEMCJ@ASN1?5lib?$AA@ 000684e0     libeay32:err.obj
 0002:000004ec       ??_C@_08DGLLDICE@X509?5lib?$AA@ 000684ec     libeay32:err.obj
 0002:000004f8       ??_C@_07EBMPFIFH@DSA?5lib?$AA@ 000684f8     libeay32:err.obj
 0002:00000500       ??_C@_07MKPCAOAJ@PEM?5lib?$AA@ 00068500     libeay32:err.obj
 0002:00000508       ??_C@_07LHMLCDLI@OBJ?5lib?$AA@ 00068508     libeay32:err.obj
 0002:00000510       ??_C@_07PJHFFEFC@BUF?5lib?$AA@ 00068510     libeay32:err.obj
 0002:00000518       ??_C@_07BHNHKGFA@EVP?5lib?$AA@ 00068518     libeay32:err.obj
 0002:00000520       ??_C@_06JBCAGHNP@DH?5lib?$AA@ 00068520     libeay32:err.obj
 0002:00000528       ??_C@_07PLBLGAPL@RSA?5lib?$AA@ 00068528     libeay32:err.obj
 0002:00000530       ??_C@_06CEKJLBPI@BN?5lib?$AA@ 00068530     libeay32:err.obj
 0002:00000538       ??_C@_0L@NFMIFFDK@system?5lib?$AA@ 00068538     libeay32:err.obj
 0002:00000544       ??_C@_05FHPOAJDB@fread?$AA@ 00068544     libeay32:err.obj
 0002:0000054c       ??_C@_07OPAOJOOA@opendir?$AA@ 0006854c     libeay32:err.obj
 0002:00000554       ??_C@_0L@LNCNEFCG@WSAstartup?$AA@ 00068554     libeay32:err.obj
 0002:00000560       ??_C@_06MPKMECK@accept?$AA@ 00068560     libeay32:err.obj
 0002:00000568       ??_C@_06OODDLKLE@listen?$AA@ 00068568     libeay32:err.obj
 0002:00000570       ??_C@_04NPNJNMMP@bind?$AA@ 00068570     libeay32:err.obj
 0002:00000578       ??_C@_0M@PBPOCKDG@ioctlsocket?$AA@ 00068578     libeay32:err.obj
 0002:00000584       ??_C@_06HBELJPBO@socket?$AA@ 00068584     libeay32:err.obj
 0002:0000058c       ??_C@_0O@NKLJGHIL@getservbyname?$AA@ 0006858c     libeay32:err.obj
 0002:0000059c       ??_C@_07KAIBNCHO@connect?$AA@ 0006859c     libeay32:err.obj
 0002:000005a4       ??_C@_05FFKPLNPJ@fopen?$AA@ 000685a4     libeay32:err.obj
 0002:000005ac       ??_C@_0O@PBJMEGGG@HMAC?5routines?$AA@ 000685ac     libeay32:err.obj
 0002:000005bc       ??_C@_0N@MKJBFBO@CMS?5routines?$AA@ 000685bc     libeay32:err.obj
 0002:000005cc       ??_C@_0O@MDPFBMCI@FIPS?5routines?$AA@ 000685cc     libeay32:err.obj
 0002:000005dc       ??_C@_0O@LJIADBLP@OCSP?5routines?$AA@ 000685dc     libeay32:err.obj
 0002:000005ec       ??_C@_0BA@MMHCJFKD@engine?5routines?$AA@ 000685ec     libeay32:err.obj
 0002:000005fc       ??_C@_0BE@IMHDPIMO@time?5stamp?5routines?$AA@ 000685fc     libeay32:err.obj
 0002:00000610       ??_C@_0BF@BDHLAIEM@DSO?5support?5routines?$AA@ 00068610     libeay32:err.obj
 0002:00000628       ??_C@_0BI@GMPKPCPG@random?5number?5generator?$AA@ 00068628     libeay32:err.obj
 0002:00000640       ??_C@_0BA@KPFPMFD@PKCS12?5routines?$AA@ 00068640     libeay32:err.obj
 0002:00000650       ??_C@_0BB@LKDEPKLM@X509?5V3?5routines?$AA@ 00068650     libeay32:err.obj
 0002:00000664       ??_C@_0P@FBDCKDAN@PKCS7?5routines?$AA@ 00068664     libeay32:err.obj
 0002:00000674       ??_C@_0N@HGNFKBOI@BIO?5routines?$AA@ 00068674     libeay32:err.obj
 0002:00000684       ??_C@_0N@GAIJLNCL@SSL?5routines?$AA@ 00068684     libeay32:err.obj
 0002:00000694       ??_C@_0BI@NNCFPCDI@elliptic?5curve?5routines?$AA@ 00068694     libeay32:err.obj
 0002:000006ac       ??_C@_0BK@GOIAPJCF@common?5libcrypto?5routines?$AA@ 000686ac     libeay32:err.obj
 0002:000006c8       ??_C@_0BM@FNIFPKKP@configuration?5file?5routines?$AA@ 000686c8     libeay32:err.obj
 0002:000006e4       ??_C@_0BH@OKMDKJBH@asn1?5encoding?5routines?$AA@ 000686e4     libeay32:err.obj
 0002:000006fc       ??_C@_0BK@MLDIFNOG@x509?5certificate?5routines?$AA@ 000686fc     libeay32:err.obj
 0002:00000718       ??_C@_0N@EPLKEPHE@dsa?5routines?$AA@ 00068718     libeay32:err.obj
 0002:00000728       ??_C@_0N@PPOIEGDJ@PEM?5routines?$AA@ 00068728     libeay32:err.obj
 0002:00000738       ??_C@_0BL@GAJLDLEG@object?5identifier?5routines?$AA@ 00068738     libeay32:err.obj
 0002:00000754       ??_C@_0BH@GHBGFOKA@memory?5buffer?5routines?$AA@ 00068754     libeay32:err.obj
 0002:0000076c       ??_C@_0BK@KCBHLAIJ@digital?5envelope?5routines?$AA@ 0006876c     libeay32:err.obj
 0002:00000788       ??_C@_0BI@BELEOFAM@Diffie?9Hellman?5routines?$AA@ 00068788     libeay32:err.obj
 0002:000007a0       ??_C@_0N@FLFIDGHD@rsa?5routines?$AA@ 000687a0     libeay32:err.obj
 0002:000007b0       ??_C@_0BA@BALAMMCD@bignum?5routines?$AA@ 000687b0     libeay32:err.obj
 0002:000007c0       ??_C@_0P@KJHLNCML@system?5library?$AA@ 000687c0     libeay32:err.obj
 0002:000007d0       ??_C@_0BA@JLJAKIKL@unknown?5library?$AA@ 000687d0     libeay32:err.obj
 0002:000007e0       ??_C@_0EJ@LLHEHHLL@d?3?2wm653wehh?2platform?2mvv210?2src@ 000687e0     libeay32:err.obj
 0002:0000082c       ??_C@_0BE@CGMKPIME@int_err_get?5?$CIerr?4c?$CJ?$AA@ 0006882c     libeay32:err.obj
 0002:00000840       ??_C@_0BH@KBGLDIDO@int_thread_get?5?$CIerr?4c?$CJ?$AA@ 00068840     libeay32:err.obj
 0002:00000858       ??_C@_07CIFAGBMG@unknown?$AA@ 00068858     libeay32:err.obj
 0002:00000860       ??_C@_02JDNIPIGD@NA?$AA@   00068860     libeay32:err.obj
 0002:00000864       ??_C@_0BF@IKLBHEFA@error?3?$CF08lX?3?$CFs?3?$CFs?3?$CFs?$AA@ 00068864     libeay32:err.obj
 0002:0000087c       ??_C@_0M@MNMDFDLE@reason?$CI?$CFlu?$CJ?$AA@ 0006887c     libeay32:err.obj
 0002:00000888       ??_C@_09IANFNLBB@func?$CI?$CFlu?$CJ?$AA@ 00068888     libeay32:err.obj
 0002:00000894       ??_C@_08PFHOCFHJ@lib?$CI?$CFlu?$CJ?$AA@ 00068894     libeay32:err.obj
 0002:000008a0       ??_C@_0EJ@IBNICOFA@d?3?2wm653wehh?2platform?2mvv210?2src@ 000688a0     libeay32:ex_data.obj
 0002:000008ec       DSA_version                000688ec     libeay32:dsa_lib.obj
 0002:00000918       ??_C@_0EN@HPPIDPIC@d?3?2wm653wehh?2platform?2mvv210?2src@ 00068918     libeay32:dsa_lib.obj
 0002:00000968       ??_C@_0BB@KDJGCOOH@?$CFlu?3?$CFs?3?$CFs?3?$CFd?3?$CFs?6?$AA@ 00068968     libeay32:err_prn.obj
 0002:0000097c       ??_C@_02DKCKIIND@?$CFs?$AA@ 0006897c     libeay32:err_prn.obj
 0002:00000bc0       ??_C@_03ENFFABCE@DSA?$AA@  00068bc0     libeay32:dsa_asn1.obj
 0002:00000bc4       ??_C@_08CCPALKOP@priv_key?$AA@ 00068bc4     libeay32:dsa_asn1.obj
 0002:00000bd0       ??_C@_07CLGEADLH@pub_key?$AA@ 00068bd0     libeay32:dsa_asn1.obj
 0002:00000bd8       ??_C@_01JEJKBAGA@g?$AA@    00068bd8     libeay32:dsa_asn1.obj
 0002:00000bdc       ??_C@_01IIACKFLH@q?$AA@    00068bdc     libeay32:dsa_asn1.obj
 0002:00000be0       ??_C@_01JBBJJEPG@p?$AA@    00068be0     libeay32:dsa_asn1.obj
 0002:00000be4       ??_C@_07CPCPJPKL@version?$AA@ 00068be4     libeay32:dsa_asn1.obj
 0002:00000bec       ??_C@_07ECLLFBLJ@DSA_SIG?$AA@ 00068bec     libeay32:dsa_asn1.obj
 0002:00000bf4       ??_C@_01LKDEMHDF@s?$AA@    00068bf4     libeay32:dsa_asn1.obj
 0002:00000bf8       ??_C@_01KDCPPGHE@r?$AA@    00068bf8     libeay32:dsa_asn1.obj
 0002:00000c00       ??_C@_0EO@DLELNGDB@d?3?2wm653wehh?2platform?2mvv210?2src@ 00068c00     libeay32:dsa_asn1.obj
 0002:00000c68       BN_version                 00068c68     libeay32:bn_lib.obj
 0002:00000d98       ??_C@_0EL@EKPDCIGL@d?3?2wm653wehh?2platform?2mvv210?2src@ 00068d98     libeay32:bn_lib.obj
 0002:00000de4       ??_C@_0N@JAGKAFD@FILE?5pointer?$AA@ 00068de4     libeay32:bss_file.obj
 0002:00000df8       ??_C@_0EO@GEBEJMNG@d?3?2wm653wehh?2platform?2mvv210?2src@ 00068df8     libeay32:bss_file.obj
 0002:00000e48       ??_C@_02HJPKOJGD@?8?$CJ?$AA@ 00068e48     libeay32:bss_file.obj
 0002:00000e4c       ??_C@_03IMMLKIF@?8?0?8?$AA@ 00068e4c     libeay32:bss_file.obj
 0002:00000e50       ??_C@_07JMDFGFFH@fopen?$CI?8?$AA@ 00068e50     libeay32:bss_file.obj
 0002:00000e58       ??_C@_01PFHFFBPC@t?$AA@    00068e58     libeay32:bss_file.obj
 0002:00000e5c       ??_C@_01OJONOECF@b?$AA@    00068e5c     libeay32:bss_file.obj
 0002:00000e60       ??_C@_01NOFIACDB@w?$AA@    00068e60     libeay32:bss_file.obj
 0002:00000e64       ??_C@_02CBLLGHLK@r?$CL?$AA@ 00068e64     libeay32:bss_file.obj
 0002:00000e68       ??_C@_01MCMALHOG@a?$AA@    00068e68     libeay32:bss_file.obj
 0002:00000e6c       ??_C@_02DPNLHKJD@a?$CL?$AA@ 00068e6c     libeay32:bss_file.obj
 0002:00000f1c       ??_C@_05NEEKIFMD@fips2?$AA@ 00068f1c     libeay32:cryptlib.obj
 0002:00000f24       ??_C@_04DJGCHAOD@fips?$AA@ 00068f24     libeay32:cryptlib.obj
 0002:00000f2c       ??_C@_04OLDKMDKP@comp?$AA@ 00068f2c     libeay32:cryptlib.obj
 0002:00000f34       ??_C@_05ODGDKDLF@store?$AA@ 00068f34     libeay32:cryptlib.obj
 0002:00000f3c       ??_C@_0M@FNJFEIGB@ec_pre_comp?$AA@ 00068f3c     libeay32:cryptlib.obj
 0002:00000f48       ??_C@_02LAJDHPIK@bn?$AA@   00068f48     libeay32:cryptlib.obj
 0002:00000f4c       ??_C@_04KDGGCKGB@ecdh?$AA@ 00068f4c     libeay32:cryptlib.obj
 0002:00000f54       ??_C@_02HCBHEC@ec?$AA@     00068f54     libeay32:cryptlib.obj
 0002:00000f58       ??_C@_05FGIDCBJD@ecdsa?$AA@ 00068f58     libeay32:cryptlib.obj
 0002:00000f60       ??_C@_02OGLLFMLI@ui?$AA@   00068f60     libeay32:cryptlib.obj
 0002:00000f64       ??_C@_06LOBMEHPF@engine?$AA@ 00068f64     libeay32:cryptlib.obj
 0002:00000f6c       ??_C@_07HGGNMPAJ@dynlock?$AA@ 00068f6c     libeay32:cryptlib.obj
 0002:00000f74       ??_C@_03NOCNOBNG@dso?$AA@  00068f74     libeay32:cryptlib.obj
 0002:00000f78       ??_C@_0O@PMFKBDME@debug_malloc2?$AA@ 00068f78     libeay32:cryptlib.obj
 0002:00000f88       ??_C@_02OCEEKELO@dh?$AA@   00068f88     libeay32:cryptlib.obj
 0002:00000f8c       ??_C@_0N@BGAJKBNF@RSA_blinding?$AA@ 00068f8c     libeay32:cryptlib.obj
 0002:00000f9c       ??_C@_07OMHHFDME@readdir?$AA@ 00068f9c     libeay32:cryptlib.obj
 0002:00000fa4       ??_C@_0O@BFBCKHPD@gethostbyname?$AA@ 00068fa4     libeay32:cryptlib.obj
 0002:00000fb4       ??_C@_03OHAMFFNA@BIO?$AA@  00068fb4     libeay32:cryptlib.obj
 0002:00000fb8       ??_C@_0N@CLEMOJNL@debug_malloc?$AA@ 00068fb8     libeay32:cryptlib.obj
 0002:00000fc8       ??_C@_05NFNCBLNG@rand2?$AA@ 00068fc8     libeay32:cryptlib.obj
 0002:00000fd0       ??_C@_04HKINGDKC@rand?$AA@ 00068fd0     libeay32:cryptlib.obj
 0002:00000fd8       ??_C@_0L@NKBFNPDB@ssl_method?$AA@ 00068fd8     libeay32:cryptlib.obj
 0002:00000fe4       ??_C@_03DIMONNDD@ssl?$AA@  00068fe4     libeay32:cryptlib.obj
 0002:00000fe8       ??_C@_0O@LOCLBOHA@ssl_sess_cert?$AA@ 00068fe8     libeay32:cryptlib.obj
 0002:00000ff8       ??_C@_0M@OAEAFGMD@ssl_session?$AA@ 00068ff8     libeay32:cryptlib.obj
 0002:00001004       ??_C@_08INIFBEOB@ssl_cert?$AA@ 00069004     libeay32:cryptlib.obj
 0002:00001010       ??_C@_07DNHKIAPH@ssl_ctx?$AA@ 00069010     libeay32:cryptlib.obj
 0002:00001018       ??_C@_0L@JCDDFIOK@x509_store?$AA@ 00069018     libeay32:cryptlib.obj
 0002:00001024       ??_C@_08NBJJIGBN@evp_pkey?$AA@ 00069024     libeay32:cryptlib.obj
 0002:00001030       ??_C@_03DFNMMEBL@rsa?$AA@  00069030     libeay32:cryptlib.obj
 0002:00001034       ??_C@_03EAKOMMFI@dsa?$AA@  00069034     libeay32:cryptlib.obj
 0002:00001038       ??_C@_08BHPLFFMD@x509_req?$AA@ 00069038     libeay32:cryptlib.obj
 0002:00001044       ??_C@_08BJFLLMNA@x509_crl?$AA@ 00069044     libeay32:cryptlib.obj
 0002:00001050       ??_C@_09HNLHIFBP@x509_pkey?$AA@ 00069050     libeay32:cryptlib.obj
 0002:0000105c       ??_C@_09DJEHILFA@x509_info?$AA@ 0006905c     libeay32:cryptlib.obj
 0002:00001068       ??_C@_04BNGFMDFF@x509?$AA@ 00069068     libeay32:cryptlib.obj
 0002:00001070       ??_C@_07OALPHBKG@ex_data?$AA@ 00069070     libeay32:cryptlib.obj
 0002:00001078       ??_C@_03JIDPIAJI@err?$AA@  00069078     libeay32:cryptlib.obj
 0002:0000107c       ??_C@_09OGFJIAEE@?$DM?$DMERROR?$DO?$DO?$AA@ 0006907c     libeay32:cryptlib.obj
 0002:00001088       ??_C@_0EK@JACEKOIE@d?3?2wm653wehh?2platform?2mvv210?2src@ 00069088     libeay32:cryptlib.obj
 0002:000010d4       ??_C@_1BO@DCCMIJEM@?$AAO?$AAp?$AAe?$AAn?$AAS?$AAS?$AAL?$AA?3?$AA?5?$AAF?$AAA?$AAT?$AAA?$AAL?$AA?$AA@ 000690d4     libeay32:cryptlib.obj
 0002:000010f4       ??_C@_1BE@NLCFDLCA@?$AAn?$AAo?$AA?5?$AAs?$AAt?$AAa?$AAc?$AAk?$AA?$DP?$AA?$AA@ 000690f4     libeay32:cryptlib.obj
 0002:00001108       ??_C@_0DG@JJAMFCAP@?$CFs?$CI?$CFd?$CJ?3?5OpenSSL?5internal?5error?0?5@ 00069108     libeay32:cryptlib.obj
 0002:00001140       ??_C@_0BA@LPBALOME@pointer?5?$CB?$DN?5NULL?$AA@ 00069140     libeay32:cryptlib.obj
 0002:00001150       lh_version                 00069150     libeay32:lhash.obj
 0002:00001180       ??_C@_0EN@ECMNBMLE@d?3?2wm653wehh?2platform?2mvv210?2src@ 00069180     libeay32:lhash.obj
 0002:000011d0       ??_C@_0FA@OIJOADBF@d?3?2wm653wehh?2platform?2mvv210?2src@ 000691d0     libeay32:buf_str.obj
 0002:00001220       STACK_version              00069220     libeay32:stack.obj
 0002:00001250       ??_C@_0EN@GOCHBJJG@d?3?2wm653wehh?2platform?2mvv210?2src@ 00069250     libeay32:stack.obj
 0002:000012a0       ??_C@_0BD@IBKHKBJA@OpenSSL?5DSA?5method?$AA@ 000692a0     libeay32:dsa_ossl.obj
 0002:000012b8       ??_C@_0EO@MKGDCJCA@d?3?2wm653wehh?2platform?2mvv210?2src@ 000692b8     libeay32:dsa_ossl.obj
 0002:00001308       ??_C@_0FB@FHJDMCII@d?3?2wm653wehh?2platform?2mvv210?2src@ 00069308     libeay32:eng_init.obj
 0002:00001360       ASN1_version               00069360     libeay32:asn1_lib.obj
 0002:00001390       ??_C@_0EP@DFJJGEMF@d?3?2wm653wehh?2platform?2mvv210?2src@ 00069390     libeay32:asn1_lib.obj
 0002:000016fc       ??_C@_0N@KHICOJGI@ASN1_SET_ANY?$AA@ 000696fc     libeay32:tasn_typ.obj
 0002:0000170c       ??_C@_0BC@COPGMDLD@ASN1_SEQUENCE_ANY?$AA@ 0006970c     libeay32:tasn_typ.obj
 0002:00001720       ??_C@_0BH@HEBAELGA@ASN1_OCTET_STRING_NDEF?$AA@ 00069720     libeay32:tasn_typ.obj
 0002:00001738       ??_C@_0O@JKANHMPI@ASN1_FBOOLEAN?$AA@ 00069738     libeay32:tasn_typ.obj
 0002:00001748       ??_C@_0O@BIDLBGAP@ASN1_TBOOLEAN?$AA@ 00069748     libeay32:tasn_typ.obj
 0002:00001758       ??_C@_0N@HMAPMMGF@ASN1_BOOLEAN?$AA@ 00069758     libeay32:tasn_typ.obj
 0002:00001768       ??_C@_0BA@CBHCBCAE@DIRECTORYSTRING?$AA@ 00069768     libeay32:tasn_typ.obj
 0002:00001778       ??_C@_0M@FANFDIEE@DISPLAYTEXT?$AA@ 00069778     libeay32:tasn_typ.obj
 0002:00001784       ??_C@_0P@NDKOCAEJ@ASN1_PRINTABLE?$AA@ 00069784     libeay32:tasn_typ.obj
 0002:00001794       ??_C@_0O@NJFCFMGE@ASN1_SEQUENCE?$AA@ 00069794     libeay32:tasn_typ.obj
 0002:000017a4       ??_C@_08FIDCPDIJ@ASN1_ANY?$AA@ 000697a4     libeay32:tasn_typ.obj
 0002:000017b0       ??_C@_0P@CHICPHIN@ASN1_BMPSTRING?$AA@ 000697b0     libeay32:tasn_typ.obj
 0002:000017c0       ??_C@_0BF@DMDDFBNJ@ASN1_UNIVERSALSTRING?$AA@ 000697c0     libeay32:tasn_typ.obj
 0002:000017d8       ??_C@_0BD@HMMCNBGD@ASN1_VISIBLESTRING?$AA@ 000697d8     libeay32:tasn_typ.obj
 0002:000017ec       ??_C@_0BF@MPJFOIHC@ASN1_GENERALIZEDTIME?$AA@ 000697ec     libeay32:tasn_typ.obj
 0002:00001804       ??_C@_0N@OIMCLPEM@ASN1_UTCTIME?$AA@ 00069804     libeay32:tasn_typ.obj
 0002:00001814       ??_C@_0BD@EMMGLGMD@ASN1_GENERALSTRING?$AA@ 00069814     libeay32:tasn_typ.obj
 0002:00001828       ??_C@_0P@KBFNFBLB@ASN1_IA5STRING?$AA@ 00069828     libeay32:tasn_typ.obj
 0002:00001838       ??_C@_0P@GDIFPLAP@ASN1_T61STRING?$AA@ 00069838     libeay32:tasn_typ.obj
 0002:00001848       ??_C@_0BF@CPDMNKCA@ASN1_PRINTABLESTRING?$AA@ 00069848     libeay32:tasn_typ.obj
 0002:00001860       ??_C@_0BA@LEPDCAOC@ASN1_UTF8STRING?$AA@ 00069860     libeay32:tasn_typ.obj
 0002:00001870       ??_C@_0M@BJNOJGBL@ASN1_OBJECT?$AA@ 00069870     libeay32:tasn_typ.obj
 0002:0000187c       ??_C@_09NHFFCPKK@ASN1_NULL?$AA@ 0006987c     libeay32:tasn_typ.obj
 0002:00001888       ??_C@_0BC@PEBEKNCO@ASN1_OCTET_STRING?$AA@ 00069888     libeay32:tasn_typ.obj
 0002:0000189c       ??_C@_0BA@LJHGDIKH@ASN1_BIT_STRING?$AA@ 0006989c     libeay32:tasn_typ.obj
 0002:000018ac       ??_C@_0BA@CLGIIAJD@ASN1_ENUMERATED?$AA@ 000698ac     libeay32:tasn_typ.obj
 0002:000018bc       ??_C@_0N@KIGEHGKE@ASN1_INTEGER?$AA@ 000698bc     libeay32:tasn_typ.obj
 0002:000018cc       DH_version                 000698cc     libeay32:dh_lib.obj
 0002:00001900       ??_C@_0EL@PIAODHMF@d?3?2wm653wehh?2platform?2mvv210?2src@ 00069900     libeay32:dh_lib.obj
 0002:00001984       ??_C@_06CHOIGJDB@BIGNUM?$AA@ 00069984     libeay32:x_bignum.obj
 0002:000019c4       ??_C@_05HIGAPBOG@ZLONG?$AA@ 000699c4     libeay32:x_long.obj
 0002:000019cc       ??_C@_04KCJFIMMJ@LONG?$AA@ 000699cc     libeay32:x_long.obj
 0002:000019d8       ??_C@_0EN@OBFIOJLM@d?3?2wm653wehh?2platform?2mvv210?2src@ 000699d8     libeay32:x_long.obj
 0002:00001a28       ??_C@_04PEDNGLFL@?$CFld?6?$AA@ 00069a28     libeay32:x_long.obj
 0002:00001ab0       ??_C@_0EP@IJPFBBNM@d?3?2wm653wehh?2platform?2mvv210?2src@ 00069ab0     libeay32:tasn_dec.obj
 0002:00001b00       ??_C@_05GCCLHHOK@Type?$DN?$AA@ 00069b00     libeay32:tasn_dec.obj
 0002:00001b08       ??_C@_07NHKPEHKF@?0?5Type?$DN?$AA@ 00069b08     libeay32:tasn_dec.obj
 0002:00001b10       ??_C@_06GPKHKFJE@Field?$DN?$AA@ 00069b10     libeay32:tasn_dec.obj
 0002:00001b18       ??_C@_0EP@DFHJPDGI@d?3?2wm653wehh?2platform?2mvv210?2src@ 00069b18     libeay32:tasn_enc.obj
 0002:00001b68       ??_C@_0EM@KNGHBEEM@d?3?2wm653wehh?2platform?2mvv210?2src@ 00069b68     libeay32:a_dup.obj
 0002:00001bb8       ??_C@_0EO@PHDJAHKO@d?3?2wm653wehh?2platform?2mvv210?2src@ 00069bb8     libeay32:dsa_sign.obj
 0002:00001c08       ??_C@_0EL@BMHBHOHG@d?3?2wm653wehh?2platform?2mvv210?2src@ 00069c08     libeay32:bn_ctx.obj
 0002:00001c58       ??_C@_0EL@MKGMFIIF@d?3?2wm653wehh?2platform?2mvv210?2src@ 00069c58     libeay32:bn_exp.obj
 0002:00001ca8       ??_C@_0EM@GFDFNKJ@d?3?2wm653wehh?2platform?2mvv210?2src@ 00069ca8     libeay32:bn_rand.obj
 0002:00001cf8       ??_C@_0EL@PAPNDPGN@d?3?2wm653wehh?2platform?2mvv210?2src@ 00069cf8     libeay32:p_lib.obj
 0002:00001d44       ??_C@_0BP@NEJOLNCA@?$CFs?5algorithm?5?$CC?$CFs?$CC?5unsupported?6?$AA@ 00069d44     libeay32:p_lib.obj
 0002:00001d64       ??_C@_0M@NBDOOMPD@Private?5Key?$AA@ 00069d64     libeay32:p_lib.obj
 0002:00001d70       ??_C@_0EM@PNNGIHGB@d?3?2wm653wehh?2platform?2mvv210?2src@ 00069d70     libeay32:bn_mont.obj
 0002:00001dc0       ??_C@_0EL@CLJGKANI@d?3?2wm653wehh?2platform?2mvv210?2src@ 00069dc0     libeay32:bn_add.obj
 0002:00001e10       ??_C@_0EL@HJNLGKMO@d?3?2wm653wehh?2platform?2mvv210?2src@ 00069e10     libeay32:bn_div.obj
 0002:00002e60       ??_C@_0EM@DLBKEKNP@d?3?2wm653wehh?2platform?2mvv210?2src@ 0006ae60     libeay32:digest.obj
 0002:00002eac       ??_C@_0CI@KPJFNDOF@ctx?9?$DOdigest?9?$DOmd_size?5?$DM?$DN?5EVP_MAX_@ 0006aeac     libeay32:digest.obj
 0002:00003064       RAND_version               0006b064     libeay32:md_rand.obj
 0002:00003090       ??_C@_0EO@OKPIHEJM@d?3?2wm653wehh?2platform?2mvv210?2src@ 0006b090     libeay32:md_rand.obj
 0002:000030e0       ??_C@_0EK@MHBHPLPP@You?5need?5to?5read?5the?5OpenSSL?5FAQ@ 0006b0e0     libeay32:md_rand.obj
 0002:0000312c       ??_C@_0BF@KNMHCCP@?4?4?4?4?4?4?4?4?4?4?4?4?4?4?4?4?4?4?4?4?$AA@ 0006b12c     libeay32:md_rand.obj
 0002:00003148       ??_C@_0L@NNLHLDBF@wrap?5error?$AA@ 0006b148     libeay32:cms_err.obj
 0002:00003154       ??_C@_0BF@BPGKPNEB@verification?5failure?$AA@ 0006b154     libeay32:cms_err.obj
 0002:0000316c       ??_C@_0P@OLMHDACD@unwrap?5failure?$AA@ 0006b16c     libeay32:cms_err.obj
 0002:0000317c       ??_C@_0N@NPPMDEPK@unwrap?5error?$AA@ 0006b17c     libeay32:cms_err.obj
 0002:0000318c       ??_C@_0BB@HCAFPPCK@unsupported?5type?$AA@ 0006b18c     libeay32:cms_err.obj
 0002:000031a0       ??_C@_0BO@DFLIHPDC@unsupported?5recpientinfo?5type?$AA@ 0006b1a0     libeay32:cms_err.obj
 0002:000031c0       ??_C@_0BL@JINAKJM@unsupported?5recipient?5type?$AA@ 0006b1c0     libeay32:cms_err.obj
 0002:000031dc       ??_C@_0CF@JJHJPPBK@unsupported?5key?5encryption?5algor@ 0006b1dc     libeay32:cms_err.obj
 0002:00003204       ??_C@_0BK@GCOIGPEN@unsupported?5kek?5algorithm?$AA@ 0006b204     libeay32:cms_err.obj
 0002:00003220       ??_C@_0BJ@KNOCCCPA@unsupported?5content?5type?$AA@ 0006b220     libeay32:cms_err.obj
 0002:0000323c       ??_C@_0CC@EGPPFAKP@unsupported?5compression?5algorith@ 0006b23c     libeay32:cms_err.obj
 0002:00003260       ??_C@_0L@GEAKBAPK@unknown?5id?$AA@ 0006b260     libeay32:cms_err.obj
 0002:0000326c       ??_C@_0BI@GDMEEIDA@unknown?5digest?5algorihm?$AA@ 0006b26c     libeay32:cms_err.obj
 0002:00003284       ??_C@_0P@JHGHJHE@unknown?5cipher?$AA@ 0006b284     libeay32:cms_err.obj
 0002:00003294       ??_C@_0BL@EPBMKCGE@unable?5to?5finalize?5context?$AA@ 0006b294     libeay32:cms_err.obj
 0002:000032b0       ??_C@_0BI@MICOMFLM@type?5not?5enveloped?5data?$AA@ 0006b2b0     libeay32:cms_err.obj
 0002:000032c8       ??_C@_0BI@ENGODHOG@type?5not?5encrypted?5data?$AA@ 0006b2c8     libeay32:cms_err.obj
 0002:000032e0       ??_C@_0BH@PNMANIDN@type?5not?5digested?5data?$AA@ 0006b2e0     libeay32:cms_err.obj
 0002:000032f8       ??_C@_0O@OIKFLGPK@type?5not?5data?$AA@ 0006b2f8     libeay32:cms_err.obj
 0002:00003308       ??_C@_0BJ@LKLHJNJG@type?5not?5compressed?5data?$AA@ 0006b308     libeay32:cms_err.obj
 0002:00003324       ??_C@_0BB@KLHMPIEH@store?5init?5error?$AA@ 0006b324     libeay32:cms_err.obj
 0002:00003338       ??_C@_0BB@KEMFLAGG@smime?5text?5error?$AA@ 0006b338     libeay32:cms_err.obj
 0002:0000334c       ??_C@_0BA@KIAFIMOL@signfinal?5error?$AA@ 0006b34c     libeay32:cms_err.obj
 0002:0000335c       ??_C@_0BN@LFDDONEE@signer?5certificate?5not?5found?$AA@ 0006b35c     libeay32:cms_err.obj
 0002:0000337c       ??_C@_0BA@EMGFGLHJ@recipient?5error?$AA@ 0006b37c     libeay32:cms_err.obj
 0002:0000338c       ??_C@_0BF@LECBOCPG@receipt?5decode?5error?$AA@ 0006b38c     libeay32:cms_err.obj
 0002:000033a4       ??_C@_0CH@PMPAELAG@private?5key?5does?5not?5match?5certi@ 0006b3a4     libeay32:cms_err.obj
 0002:000033cc       ??_C@_0L@GEFKNGMC@no?5signers?$AA@ 0006b3cc     libeay32:cms_err.obj
 0002:000033d8       ??_C@_0BD@MOCPMAMA@no?5receipt?5request?$AA@ 0006b3d8     libeay32:cms_err.obj
 0002:000033ec       ??_C@_0O@EOGKGIEL@no?5public?5key?$AA@ 0006b3ec     libeay32:cms_err.obj
 0002:000033fc       ??_C@_0P@DEBHAAB@no?5private?5key?$AA@ 0006b3fc     libeay32:cms_err.obj
 0002:0000340c       ??_C@_0M@LLPPIJG@no?5password?$AA@ 0006b40c     libeay32:cms_err.obj
 0002:00003418       ??_C@_0BA@OPCNALIK@no?5msgsigdigest?$AA@ 0006b418     libeay32:cms_err.obj
 0002:00003428       ??_C@_0BG@JPMMLKD@no?5matching?5signature?$AA@ 0006b428     libeay32:cms_err.obj
 0002:00003440       ??_C@_0BG@HOBMPGL@no?5matching?5recipient?$AA@ 0006b440     libeay32:cms_err.obj
 0002:00003458       ??_C@_0BD@PLEMHKD@no?5matching?5digest?$AA@ 0006b458     libeay32:cms_err.obj
 0002:0000346c       ??_C@_0P@KFGEHDGK@no?5key?5or?5cert?$AA@ 0006b46c     libeay32:cms_err.obj
 0002:0000347c       ??_C@_06NNLPDOME@no?5key?$AA@ 0006b47c     libeay32:cms_err.obj
 0002:00003484       ??_C@_0O@MFHBBAJO@no?5digest?5set?$AA@ 0006b484     libeay32:cms_err.obj
 0002:00003494       ??_C@_0BC@GDBMALNO@no?5default?5digest?$AA@ 0006b494     libeay32:cms_err.obj
 0002:000034a8       ??_C@_0BA@FPKKDFNC@no?5content?5type?$AA@ 0006b4a8     libeay32:cms_err.obj
 0002:000034b8       ??_C@_0L@CMBDMAOL@no?5content?$AA@ 0006b4b8     libeay32:cms_err.obj
 0002:000034c4       ??_C@_09GIAHKKBP@no?5cipher?$AA@ 0006b4c4     libeay32:cms_err.obj
 0002:000034d0       ??_C@_0CA@FDMFGJMC@not?5supported?5for?5this?5key?5type?$AA@ 0006b4d0     libeay32:cms_err.obj
 0002:000034f0       ??_C@_08HHGHOGEE@not?5pwri?$AA@ 0006b4f0     libeay32:cms_err.obj
 0002:000034fc       ??_C@_0BC@FCIJIHJO@not?5key?5transport?$AA@ 0006b4fc     libeay32:cms_err.obj
 0002:00003510       ??_C@_07FHACAFGF@not?5kek?$AA@ 0006b510     libeay32:cms_err.obj
 0002:00003518       ??_C@_0BD@HIIHKPFA@not?5encrypted?5data?$AA@ 0006b518     libeay32:cms_err.obj
 0002:0000352c       ??_C@_0BF@DPOIIODH@not?5a?5signed?5receipt?$AA@ 0006b52c     libeay32:cms_err.obj
 0002:00003544       ??_C@_0BA@BHDOODOM@need?5one?5signer?$AA@ 0006b544     libeay32:cms_err.obj
 0002:00003554       ??_C@_0BK@NAHJMMPF@msgsigdigest?5wrong?5length?$AA@ 0006b554     libeay32:cms_err.obj
 0002:00003570       ??_C@_0CC@EFEFGHFB@msgsigdigest?5verification?5failur@ 0006b570     libeay32:cms_err.obj
 0002:00003594       ??_C@_0BD@HNLNAPHC@msgsigdigest?5error?$AA@ 0006b594     libeay32:cms_err.obj
 0002:000035a8       ??_C@_0BL@DGDMJPMD@messagedigest?5wrong?5length?$AA@ 0006b5a8     libeay32:cms_err.obj
 0002:000035c4       ??_C@_0CF@DEFLCFJL@messagedigest?5attribute?5wrong?5le@ 0006b5c4     libeay32:cms_err.obj
 0002:000035ec       ??_C@_0BC@NFJILDHC@md?5bio?5init?5error?$AA@ 0006b5ec     libeay32:cms_err.obj
 0002:00003600       ??_C@_0BD@ECABCPMG@invalid?5key?5length?$AA@ 0006b600     libeay32:cms_err.obj
 0002:00003614       ??_C@_0CB@KFOHGPLF@invalid?5key?5encryption?5parameter@ 0006b614     libeay32:cms_err.obj
 0002:00003638       ??_C@_0BN@JNGACGBD@invalid?5encrypted?5key?5length?$AA@ 0006b638     libeay32:cms_err.obj
 0002:00003658       ??_C@_0BM@MKIGGLBJ@error?5setting?5recipientinfo?$AA@ 0006b658     libeay32:cms_err.obj
 0002:00003674       ??_C@_0BC@GBDDBCFF@error?5setting?5key?$AA@ 0006b674     libeay32:cms_err.obj
 0002:00003688       ??_C@_0CG@KKAHAFIL@error?5reading?5messagedigest?5attr@ 0006b688     libeay32:cms_err.obj
 0002:000036b0       ??_C@_0BJ@KOCDEKNH@error?5getting?5public?5key?$AA@ 0006b6b0     libeay32:cms_err.obj
 0002:000036cc       ??_C@_0N@KPANJIHN@digest?5error?$AA@ 0006b6cc     libeay32:cms_err.obj
 0002:000036dc       ??_C@_0O@IKMKDME@decrypt?5error?$AA@ 0006b6dc     libeay32:cms_err.obj
 0002:000036ec       ??_C@_0N@NAPIGBMI@ctrl?5failure?$AA@ 0006b6ec     libeay32:cms_err.obj
 0002:000036fc       ??_C@_0L@HANPCOML@ctrl?5error?$AA@ 0006b6fc     libeay32:cms_err.obj
 0002:00003708       ??_C@_0BF@CBLCHNCH@content?5verify?5error?$AA@ 0006b708     libeay32:cms_err.obj
 0002:00003720       ??_C@_0BN@IBDMPLNJ@content?5type?5not?5signed?5data?$AA@ 0006b720     libeay32:cms_err.obj
 0002:00003740       ??_C@_0CA@NNDPBEED@content?5type?5not?5enveloped?5data?$AA@ 0006b740     libeay32:cms_err.obj
 0002:00003760       ??_C@_0CB@JHKAGDMK@content?5type?5not?5compressed?5data@ 0006b760     libeay32:cms_err.obj
 0002:00003784       ??_C@_0BG@DOJFGBAA@content?5type?5mismatch?$AA@ 0006b784     libeay32:cms_err.obj
 0002:0000379c       ??_C@_0BC@JJDDEPPC@content?5not?5found?$AA@ 0006b79c     libeay32:cms_err.obj
 0002:000037b0       ??_C@_0BL@HAKJOONM@contentidentifier?5mismatch?$AA@ 0006b7b0     libeay32:cms_err.obj
 0002:000037cc       ??_C@_07DJCELLB@cms?5lib?$AA@ 0006b7cc     libeay32:cms_err.obj
 0002:000037d4       ??_C@_0BE@HDNIFGNJ@cms?5datafinal?5error?$AA@ 0006b7d4     libeay32:cms_err.obj
 0002:000037e8       ??_C@_0CG@NJEMBNPF@cipher?5parameter?5initialisation?5@ 0006b7e8     libeay32:cms_err.obj
 0002:00003810       ??_C@_0BM@CDGMNLKF@cipher?5initialisation?5error?$AA@ 0006b810     libeay32:cms_err.obj
 0002:0000382c       ??_C@_0BJ@PLMONNLI@certificate?5verify?5error?$AA@ 0006b82c     libeay32:cms_err.obj
 0002:00003848       ??_C@_0BJ@DDNKEBDF@certificate?5has?5no?5keyid?$AA@ 0006b848     libeay32:cms_err.obj
 0002:00003864       ??_C@_0BM@GPNDEIAC@certificate?5already?5present?$AA@ 0006b864     libeay32:cms_err.obj
 0002:00003880       ??_C@_0BB@FNKCEDFO@add?5signer?5error?$AA@ 0006b880     libeay32:cms_err.obj
 0002:00003894       ??_C@_0L@NHFFCEMH@CMS_verify?$AA@ 0006b894     libeay32:cms_err.obj
 0002:000038a0       ??_C@_0P@OPDEFJDG@CMS_uncompress?$AA@ 0006b8a0     libeay32:cms_err.obj
 0002:000038b0       ??_C@_0L@CMNAKEDG@CMS_stream?$AA@ 0006b8b0     libeay32:cms_err.obj
 0002:000038bc       ??_C@_0BB@OJKJBGPA@CMS_sign_receipt?$AA@ 0006b8bc     libeay32:cms_err.obj
 0002:000038d0       ??_C@_0BO@GDPNOCCN@CMS_SignerInfo_verify_content?$AA@ 0006b8d0     libeay32:cms_err.obj
 0002:000038f0       ??_C@_0BL@HPPJGHNG@CMS_SIGNERINFO_VERIFY_CERT?$AA@ 0006b8f0     libeay32:cms_err.obj
 0002:0000390c       ??_C@_0BG@JGBNMIIN@CMS_SignerInfo_verify?$AA@ 0006b90c     libeay32:cms_err.obj
 0002:00003924       ??_C@_0BE@BCBEAGJM@CMS_SignerInfo_sign?$AA@ 0006b924     libeay32:cms_err.obj
 0002:00003938       ??_C@_0BM@HLKOHAIJ@CMS_SIGNERINFO_CONTENT_SIGN?$AA@ 0006b938     libeay32:cms_err.obj
 0002:00003954       ??_C@_0BF@HLPFDGMI@CMS_SIGNED_DATA_INIT?$AA@ 0006b954     libeay32:cms_err.obj
 0002:0000396c       ??_C@_08ONCOPDLN@CMS_sign?$AA@ 0006b96c     libeay32:cms_err.obj
 0002:00003978       ??_C@_0BB@GNCOKBPO@CMS_set_detached?$AA@ 0006b978     libeay32:cms_err.obj
 0002:0000398c       ??_C@_0BK@KNGIIIB@cms_set1_SignerIdentifier?$AA@ 0006b98c     libeay32:cms_err.obj
 0002:000039a8       ??_C@_0BM@CLJEMDDE@CMS_RecipientInfo_set0_pkey?$AA@ 0006b9a8     libeay32:cms_err.obj
 0002:000039c4       ??_C@_0CA@BPDHKOPM@CMS_RecipientInfo_set0_password?$AA@ 0006b9c4     libeay32:cms_err.obj
 0002:000039e4       ??_C@_0BL@GCLBMPOL@CMS_RecipientInfo_set0_key?$AA@ 0006b9e4     libeay32:cms_err.obj
 0002:00003a00       ??_C@_0BN@EIBMMFBI@cms_RecipientInfo_pwri_crypt?$AA@ 0006ba00     libeay32:cms_err.obj
 0002:00003a20       ??_C@_0CG@MDGMCNHP@CMS_RecipientInfo_ktri_get0_sign@ 0006ba20     libeay32:cms_err.obj
 0002:00003a48       ??_C@_0CB@MAJAJIJB@CMS_RecipientInfo_ktri_get0_algs@ 0006ba48     libeay32:cms_err.obj
 0002:00003a6c       ??_C@_0BP@OAMIJOBO@CMS_RECIPIENTINFO_KTRI_ENCRYPT?$AA@ 0006ba6c     libeay32:cms_err.obj
 0002:00003a8c       ??_C@_0BP@COGFMKHK@CMS_RECIPIENTINFO_KTRI_DECRYPT?$AA@ 0006ba8c     libeay32:cms_err.obj
 0002:00003aac       ??_C@_0CA@OHEFBGJP@CMS_RecipientInfo_ktri_cert_cmp?$AA@ 0006baac     libeay32:cms_err.obj
 0002:00003acc       ??_C@_0BP@FEAOKEHC@CMS_RecipientInfo_kekri_id_cmp?$AA@ 0006bacc     libeay32:cms_err.obj
 0002:00003aec       ??_C@_0CA@FHDOEBKK@CMS_RecipientInfo_kekri_get0_id?$AA@ 0006baec     libeay32:cms_err.obj
 0002:00003b0c       ??_C@_0CA@LLHHMFLP@CMS_RECIPIENTINFO_KEKRI_ENCRYPT?$AA@ 0006bb0c     libeay32:cms_err.obj
 0002:00003b2c       ??_C@_0CA@HFNKJBNL@CMS_RECIPIENTINFO_KEKRI_DECRYPT?$AA@ 0006bb2c     libeay32:cms_err.obj
 0002:00003b4c       ??_C@_0BK@MJGGGDJP@CMS_RecipientInfo_decrypt?$AA@ 0006bb4c     libeay32:cms_err.obj
 0002:00003b68       ??_C@_0BD@PJPKFFBN@cms_Receipt_verify?$AA@ 0006bb68     libeay32:cms_err.obj
 0002:00003b7c       ??_C@_0BL@JEBFMOJM@CMS_ReceiptRequest_create0?$AA@ 0006bb7c     libeay32:cms_err.obj
 0002:00003b98       ??_C@_0BG@NAKGFLPL@cms_msgSigDigest_add1?$AA@ 0006bb98     libeay32:cms_err.obj
 0002:00003bb0       ??_C@_0BA@OPINNJHK@CMS_GET0_SIGNED?$AA@ 0006bbb0     libeay32:cms_err.obj
 0002:00003bc0       ??_C@_0BM@GGKLNKH@CMS_GET0_REVOCATION_CHOICES?$AA@ 0006bbc0     libeay32:cms_err.obj
 0002:00003bdc       ??_C@_0BD@IMILPDEA@cms_get0_enveloped?$AA@ 0006bbdc     libeay32:cms_err.obj
 0002:00003bf0       ??_C@_0BH@ELAGGFNC@CMS_GET0_ECONTENT_TYPE?$AA@ 0006bbf0     libeay32:cms_err.obj
 0002:00003c08       ??_C@_0BB@KBMFHBNJ@CMS_get0_content?$AA@ 0006bc08     libeay32:cms_err.obj
 0002:00003c1c       ??_C@_0BN@JHKBLBCL@CMS_GET0_CERTIFICATE_CHOICES?$AA@ 0006bc1c     libeay32:cms_err.obj
 0002:00003c3c       ??_C@_09FJDKFOPG@CMS_final?$AA@ 0006bc3c     libeay32:cms_err.obj
 0002:00003c48       ??_C@_0BI@LGKNJDCK@CMS_ENVELOPED_DATA_INIT?$AA@ 0006bc48     libeay32:cms_err.obj
 0002:00003c60       ??_C@_0BL@LPACJDLI@cms_EnvelopedData_init_bio?$AA@ 0006bc60     libeay32:cms_err.obj
 0002:00003c7c       ??_C@_0BJ@IOFCEDEP@CMS_EnvelopedData_create?$AA@ 0006bc7c     libeay32:cms_err.obj
 0002:00003c98       ??_C@_0BL@CINLHLFO@CMS_EncryptedData_set1_key?$AA@ 0006bc98     libeay32:cms_err.obj
 0002:00003cb4       ??_C@_0BK@IPLKOKCP@CMS_EncryptedData_encrypt?$AA@ 0006bcb4     libeay32:cms_err.obj
 0002:00003cd0       ??_C@_0BK@EBBHLOEL@CMS_EncryptedData_decrypt?$AA@ 0006bcd0     libeay32:cms_err.obj
 0002:00003cec       ??_C@_0BO@KJGCMDOC@cms_EncryptedContent_init_bio?$AA@ 0006bcec     libeay32:cms_err.obj
 0002:00003d0c       ??_C@_0M@GGKGNHBM@CMS_encrypt?$AA@ 0006bd0c     libeay32:cms_err.obj
 0002:00003d18       ??_C@_0BD@GFELKJAN@cms_encode_Receipt?$AA@ 0006bd18     libeay32:cms_err.obj
 0002:00003d2c       ??_C@_0BC@EBOECHMN@CMS_digest_verify?$AA@ 0006bd2c     libeay32:cms_err.obj
 0002:00003d40       ??_C@_0BK@MPJJOAPG@cms_DigestedData_do_final?$AA@ 0006bd40     libeay32:cms_err.obj
 0002:00003d5c       ??_C@_0BN@GKJNEGCL@cms_DigestAlgorithm_init_bio?$AA@ 0006bd5c     libeay32:cms_err.obj
 0002:00003d7c       ??_C@_0BN@NAFBGPCG@cms_DigestAlgorithm_find_ctx?$AA@ 0006bd7c     libeay32:cms_err.obj
 0002:00003d9c       ??_C@_0BG@NGGHLDM@CMS_decrypt_set1_pkey?$AA@ 0006bd9c     libeay32:cms_err.obj
 0002:00003db4       ??_C@_0BK@OFEJCPHJ@CMS_decrypt_set1_password?$AA@ 0006bdb4     libeay32:cms_err.obj
 0002:00003dd0       ??_C@_0BF@EJDJGLNL@CMS_decrypt_set1_key?$AA@ 0006bdd0     libeay32:cms_err.obj
 0002:00003de8       ??_C@_0M@KIALIDHI@CMS_decrypt?$AA@ 0006bde8     libeay32:cms_err.obj
 0002:00003df4       ??_C@_0N@LDENDKPJ@CMS_dataInit?$AA@ 0006bdf4     libeay32:cms_err.obj
 0002:00003e04       ??_C@_0O@MJNGBEMO@CMS_dataFinal?$AA@ 0006be04     libeay32:cms_err.obj
 0002:00003e14       ??_C@_08GDKCJBCG@CMS_data?$AA@ 0006be14     libeay32:cms_err.obj
 0002:00003e20       ??_C@_0BH@LEEPHKHL@CMS_COPY_MESSAGEDIGEST?$AA@ 0006be20     libeay32:cms_err.obj
 0002:00003e38       ??_C@_0BB@MGOOAMEI@CMS_COPY_CONTENT?$AA@ 0006be38     libeay32:cms_err.obj
 0002:00003e4c       ??_C@_0BM@PPBOOFHN@cms_CompressedData_init_bio?$AA@ 0006be4c     libeay32:cms_err.obj
 0002:00003e68       ??_C@_0BK@LDGCLEIM@cms_CompressedData_create?$AA@ 0006be68     libeay32:cms_err.obj
 0002:00003e84       ??_C@_0N@KHGKPDNG@CMS_compress?$AA@ 0006be84     libeay32:cms_err.obj
 0002:00003e94       ??_C@_0BF@DHEFJKJH@CMS_ADD1_SIGNINGTIME?$AA@ 0006be94     libeay32:cms_err.obj
 0002:00003eac       ??_C@_0BA@DIKIAKAL@CMS_add1_signer?$AA@ 0006beac     libeay32:cms_err.obj
 0002:00003ebc       ??_C@_0BI@ECOCMKIO@CMS_add1_recipient_cert?$AA@ 0006bebc     libeay32:cms_err.obj
 0002:00003ed4       ??_C@_0BI@LKJJACNE@CMS_add1_ReceiptRequest?$AA@ 0006bed4     libeay32:cms_err.obj
 0002:00003eec       ??_C@_0BM@CONIGCIH@CMS_add0_recipient_password?$AA@ 0006beec     libeay32:cms_err.obj
 0002:00003f08       ??_C@_0BH@IPBCDHLJ@CMS_add0_recipient_key?$AA@ 0006bf08     libeay32:cms_err.obj
 0002:00003f20       ??_C@_0O@LJGCAAGO@CMS_add0_cert?$AA@ 0006bf20     libeay32:cms_err.obj
 0002:00003f30       ??_C@_0O@DNEAIJDG@CHECK_CONTENT?$AA@ 0006bf30     libeay32:cms_err.obj
 0002:00003f40       ??_C@_0BI@HFFBAJKF@unknown?5control?5command?$AA@ 0006bf40     libeay32:ui_err.obj
 0002:00003f58       ??_C@_0BB@NEPBJBGF@result?5too?5small?$AA@ 0006bf58     libeay32:ui_err.obj
 0002:00003f6c       ??_C@_0BB@HMLKGAPD@result?5too?5large?$AA@ 0006bf6c     libeay32:ui_err.obj
 0002:00003f80       ??_C@_0BB@HMMNCLKL@no?5result?5buffer?$AA@ 0006bf80     libeay32:ui_err.obj
 0002:00003f94       ??_C@_0BA@CHEBNBMB@index?5too?5small?$AA@ 0006bf94     libeay32:ui_err.obj
 0002:00003fa4       ??_C@_0BA@IPAKCAFH@index?5too?5large?$AA@ 0006bfa4     libeay32:ui_err.obj
 0002:00003fb4       ??_C@_0CA@MODCIDDB@common?5ok?5and?5cancel?5characters?$AA@ 0006bfb4     libeay32:ui_err.obj
 0002:00003fd4       ??_C@_0O@EDJPOOGP@UI_set_result?$AA@ 0006bfd4     libeay32:ui_err.obj
 0002:00003fe4       ??_C@_0O@NGDBEIBL@UI_new_method?$AA@ 0006bfe4     libeay32:ui_err.obj
 0002:00003ff4       ??_C@_0P@LPDIOMBP@UI_get0_result?$AA@ 0006bff4     libeay32:ui_err.obj
 0002:00004004       ??_C@_0BF@CLNOBEOL@UI_dup_verify_string?$AA@ 0006c004     libeay32:ui_err.obj
 0002:0000401c       ??_C@_0BE@EKGBGIID@UI_dup_input_string?$AA@ 0006c01c     libeay32:ui_err.obj
 0002:00004030       ??_C@_0BF@POGJGJNM@UI_dup_input_boolean?$AA@ 0006c030     libeay32:ui_err.obj
 0002:00004048       ??_C@_0BD@BDJEJKHN@UI_dup_info_string?$AA@ 0006c048     libeay32:ui_err.obj
 0002:0000405c       ??_C@_0BE@MCDDKAGP@UI_dup_error_string?$AA@ 0006c05c     libeay32:ui_err.obj
 0002:00004070       ??_C@_07PKCPFHP@UI_ctrl?$AA@ 0006c070     libeay32:ui_err.obj
 0002:00004078       ??_C@_0BI@OAGFBGFA@GENERAL_ALLOCATE_STRING?$AA@ 0006c078     libeay32:ui_err.obj
 0002:00004090       ??_C@_0BI@GHJBOEFM@GENERAL_ALLOCATE_PROMPT?$AA@ 0006c090     libeay32:ui_err.obj
 0002:000040a8       ??_C@_0BJ@HEJNMKGO@GENERAL_ALLOCATE_BOOLEAN?$AA@ 0006c0a8     libeay32:ui_err.obj
 0002:000040c4       ??_C@_0BP@PEMBCGCF@unsupported?5requestorname?5type?$AA@ 0006c0c4     libeay32:ocsp_err.obj
 0002:000040e4       ??_C@_0M@MJJCBEFL@unknown?5nid?$AA@ 0006c0e4     libeay32:ocsp_err.obj
 0002:000040f0       ??_C@_0BH@HCJHEFDL@unknown?5message?5digest?$AA@ 0006c0f0     libeay32:ocsp_err.obj
 0002:00004108       ??_C@_0P@GGIDMBBF@status?5too?5old?$AA@ 0006c108     libeay32:ocsp_err.obj
 0002:00004118       ??_C@_0BF@IGIMLKNE@status?5not?5yet?5valid?$AA@ 0006c118     libeay32:ocsp_err.obj
 0002:00004130       ??_C@_0P@HOCKGMFL@status?5expired?$AA@ 0006c130     libeay32:ocsp_err.obj
 0002:00004140       ??_C@_0BC@FNMJPDOC@signature?5failure?$AA@ 0006c140     libeay32:ocsp_err.obj
 0002:00004154       ??_C@_0BD@GNOPIANF@server?5write?5error?$AA@ 0006c154     libeay32:ocsp_err.obj
 0002:00004168       ??_C@_0BM@PELFIJJH@server?5response?5parse?5error?$AA@ 0006c168     libeay32:ocsp_err.obj
 0002:00004184       ??_C@_0BG@HMMPALGI@server?5response?5error?$AA@ 0006c184     libeay32:ocsp_err.obj
 0002:0000419c       ??_C@_0BC@IPNNFNEJ@server?5read?5error?$AA@ 0006c19c     libeay32:ocsp_err.obj
 0002:000041b0       ??_C@_0BE@FPFBADPC@root?5ca?5not?5trusted?$AA@ 0006c1b0     libeay32:ocsp_err.obj
 0002:000041c4       ??_C@_0CF@EOACFMGE@response?5contains?5no?5revocation?5@ 0006c1c4     libeay32:ocsp_err.obj
 0002:000041ec       ??_C@_0BD@NCDAPJKO@request?5not?5signed?$AA@ 0006c1ec     libeay32:ocsp_err.obj
 0002:00004200       ??_C@_0BA@KBOGMBML@no?5revoked?5time?$AA@ 0006c200     libeay32:ocsp_err.obj
 0002:00004210       ??_C@_0BB@GBCEEOG@no?5response?5data?$AA@ 0006c210     libeay32:ocsp_err.obj
 0002:00004224       ??_C@_0BJ@PFPLJIP@no?5certificates?5in?5chain?$AA@ 0006c224     libeay32:ocsp_err.obj
 0002:00004240       ??_C@_0BD@BKKPMAGI@not?5basic?5response?$AA@ 0006c240     libeay32:ocsp_err.obj
 0002:00004254       ??_C@_0BN@MIEFPHNI@nextupdate?5before?5thisupdate?$AA@ 0006c254     libeay32:ocsp_err.obj
 0002:00004274       ??_C@_0BK@CFIMGAGI@missing?5ocspsigning?5usage?$AA@ 0006c274     libeay32:ocsp_err.obj
 0002:00004290       ??_C@_0BC@FBBBNNOE@error?5parsing?5url?$AA@ 0006c290     libeay32:ocsp_err.obj
 0002:000042a4       ??_C@_0BK@GDOEKJHF@error?5in?5thisupdate?5field?$AA@ 0006c2a4     libeay32:ocsp_err.obj
 0002:000042c0       ??_C@_0BK@NHIHEDGP@error?5in?5nextupdate?5field?$AA@ 0006c2c0     libeay32:ocsp_err.obj
 0002:000042dc       ??_C@_0L@DDPIMMLP@digest?5err?$AA@ 0006c2dc     libeay32:ocsp_err.obj
 0002:000042e8       ??_C@_08MPEBFEBH@bad?5data?$AA@ 0006c2e8     libeay32:ocsp_err.obj
 0002:000042f4       ??_C@_0P@EJFIFBBI@REQUEST_VERIFY?$AA@ 0006c2f4     libeay32:ocsp_err.obj
 0002:00004304       ??_C@_0BB@PKOGPKEC@PARSE_HTTP_LINE1?$AA@ 0006c304     libeay32:ocsp_err.obj
 0002:00004318       ??_C@_0BC@EKOLHKDB@OCSP_sendreq_nbio?$AA@ 0006c318     libeay32:ocsp_err.obj
 0002:0000432c       ??_C@_0BB@PJALPLHC@OCSP_sendreq_bio?$AA@ 0006c32c     libeay32:ocsp_err.obj
 0002:00004340       ??_C@_0BJ@PJFNFKOP@OCSP_response_get1_basic?$AA@ 0006c340     libeay32:ocsp_err.obj
 0002:0000435c       ??_C@_0BE@OFJONHDE@OCSP_request_verify?$AA@ 0006c35c     libeay32:ocsp_err.obj
 0002:00004370       ??_C@_0BC@BOKGIJKF@OCSP_request_sign?$AA@ 0006c370     libeay32:ocsp_err.obj
 0002:00004384       ??_C@_0P@EGPIPMGP@OCSP_parse_url?$AA@ 0006c384     libeay32:ocsp_err.obj
 0002:00004394       ??_C@_0BE@JIKJHJDO@OCSP_MATCH_ISSUERID?$AA@ 0006c394     libeay32:ocsp_err.obj
 0002:000043a8       ??_C@_0BE@MFKONAMO@OCSP_check_validity?$AA@ 0006c3a8     libeay32:ocsp_err.obj
 0002:000043bc       ??_C@_0BC@NGBDAEFF@OCSP_CHECK_ISSUER?$AA@ 0006c3bc     libeay32:ocsp_err.obj
 0002:000043d0       ??_C@_0P@DDGGJONL@OCSP_CHECK_IDS?$AA@ 0006c3d0     libeay32:ocsp_err.obj
 0002:000043e0       ??_C@_0BF@KOGHHGND@OCSP_CHECK_DELEGATED?$AA@ 0006c3e0     libeay32:ocsp_err.obj
 0002:000043f8       ??_C@_0BB@FDFOGFMH@OCSP_cert_id_new?$AA@ 0006c3f8     libeay32:ocsp_err.obj
 0002:0000440c       ??_C@_0BC@BKMFDAMH@OCSP_basic_verify?$AA@ 0006c40c     libeay32:ocsp_err.obj
 0002:00004420       ??_C@_0BA@ENHCHJFD@OCSP_basic_sign?$AA@ 0006c420     libeay32:ocsp_err.obj
 0002:00004430       ??_C@_0BH@GOAFBKBP@OCSP_basic_add1_status?$AA@ 0006c430     libeay32:ocsp_err.obj
 0002:00004448       ??_C@_0P@MGFFHJND@D2I_OCSP_NONCE?$AA@ 0006c448     libeay32:ocsp_err.obj
 0002:00004458       ??_C@_0BD@NPDGBE@ASN1_STRING_encode?$AA@ 0006c458     libeay32:ocsp_err.obj
 0002:0000446c       ??_C@_0BI@GMELFAKF@version?5incompatibility?$AA@ 0006c46c     libeay32:eng_err.obj
 0002:00004484       ??_C@_0CA@OGBEJDPN@unimplemented?5public?5key?5method?$AA@ 0006c484     libeay32:eng_err.obj
 0002:000044a4       ??_C@_0BF@FHAJCIB@unimplemented?5digest?$AA@ 0006c4a4     libeay32:eng_err.obj
 0002:000044bc       ??_C@_0BF@KOIMEHAE@unimplemented?5cipher?$AA@ 0006c4bc     libeay32:eng_err.obj
 0002:000044d4       ??_C@_0BE@ICGIJGPJ@rsa?5not?5implemented?$AA@ 0006c4d4     libeay32:eng_err.obj
 0002:000044e8       ??_C@_0BD@OBEDCEHC@provide?5parameters?$AA@ 0006c4e8     libeay32:eng_err.obj
 0002:000044fc       ??_C@_0BD@BAMGBJCH@no?5unload?5function?$AA@ 0006c4fc     libeay32:eng_err.obj
 0002:00004510       ??_C@_0P@MKGFOFPM@no?5such?5engine?$AA@ 0006c510     libeay32:eng_err.obj
 0002:00004520       ??_C@_0N@GNFMHGFB@no?5reference?$AA@ 0006c520     libeay32:eng_err.obj
 0002:00004530       ??_C@_0BB@MEBKLLLP@no?5load?5function?$AA@ 0006c530     libeay32:eng_err.obj
 0002:00004544       ??_C@_08FPGGDHDD@no?5index?$AA@ 0006c544     libeay32:eng_err.obj
 0002:00004550       ??_C@_0BE@IBINMIII@no?5control?5function?$AA@ 0006c550     libeay32:eng_err.obj
 0002:00004564       ??_C@_0L@ICAFOIA@not?5loaded?$AA@ 0006c564     libeay32:eng_err.obj
 0002:00004570       ??_C@_0BA@FEBOOGFB@not?5initialised?$AA@ 0006c570     libeay32:eng_err.obj
 0002:00004580       ??_C@_0P@JNPPPLLF@invalid?5string?$AA@ 0006c580     libeay32:eng_err.obj
 0002:00004590       ??_C@_0BD@HIPFLJCP@invalid?5init?5value?$AA@ 0006c590     libeay32:eng_err.obj
 0002:000045a4       ??_C@_0BD@PPGEIBJN@invalid?5cmd?5number?$AA@ 0006c5a4     libeay32:eng_err.obj
 0002:000045b8       ??_C@_0BB@CNFOOOPK@invalid?5cmd?5name?$AA@ 0006c5b8     libeay32:eng_err.obj
 0002:000045cc       ??_C@_0BB@FCMFBGOM@invalid?5argument?$AA@ 0006c5cc     libeay32:eng_err.obj
 0002:000045e0       ??_C@_0BE@OKODLAII@internal?5list?5error?$AA@ 0006c5e0     libeay32:eng_err.obj
 0002:000045f4       ??_C@_0M@MLCJFCMN@init?5failed?$AA@ 0006c5f4     libeay32:eng_err.obj
 0002:00004600       ??_C@_0BH@HIGAMGCJ@?8id?8?5or?5?8name?8?5missing?$AA@ 0006c600     libeay32:eng_err.obj
 0002:00004618       ??_C@_0CB@LBPHDELA@could?5not?5obtain?5hardware?5handle@ 0006c618     libeay32:eng_err.obj
 0002:0000463c       ??_C@_0O@LLOFKFAE@finish?5failed?$AA@ 0006c63c     libeay32:eng_err.obj
 0002:0000464c       ??_C@_0BK@OJHFAKGP@failed?5loading?5public?5key?$AA@ 0006c64c     libeay32:eng_err.obj
 0002:00004668       ??_C@_0BL@DPOFILLC@failed?5loading?5private?5key?$AA@ 0006c668     libeay32:eng_err.obj
 0002:00004684       ??_C@_0BF@NFOFDGOH@engine?5section?5error?$AA@ 0006c684     libeay32:eng_err.obj
 0002:0000469c       ??_C@_0BK@OKABGIGB@engine?5is?5not?5in?5the?5list?$AA@ 0006c69c     libeay32:eng_err.obj
 0002:000046b8       ??_C@_0BL@PJMIFLBC@engine?5configuration?5error?$AA@ 0006c6b8     libeay32:eng_err.obj
 0002:000046d4       ??_C@_0BG@OGKPDNLL@engines?5section?5error?$AA@ 0006c6d4     libeay32:eng_err.obj
 0002:000046ec       ??_C@_0O@BBPECCFC@dso?5not?5found?$AA@ 0006c6ec     libeay32:eng_err.obj
 0002:000046fc       ??_C@_0M@OADBIJHF@DSO?5failure?$AA@ 0006c6fc     libeay32:eng_err.obj
 0002:00004708       ??_C@_0BE@OGINKAAJ@dsa?5not?5implemented?$AA@ 0006c708     libeay32:eng_err.obj
 0002:0000471c       ??_C@_0BD@PDMGEBAD@dh?5not?5implemented?$AA@ 0006c71c     libeay32:eng_err.obj
 0002:00004730       ??_C@_0BN@NJGGMLOG@ctrl?5command?5not?5implemented?$AA@ 0006c730     libeay32:eng_err.obj
 0002:00004750       ??_C@_0BG@FIAJIFFO@conflicting?5engine?5id?$AA@ 0006c750     libeay32:eng_err.obj
 0002:00004768       ??_C@_0BH@KAPFONCA@command?5takes?5no?5input?$AA@ 0006c768     libeay32:eng_err.obj
 0002:00004780       ??_C@_0BE@CMOMGKCM@command?5takes?5input?$AA@ 0006c780     libeay32:eng_err.obj
 0002:00004794       ??_C@_0BD@DHLDGNIM@cmd?5not?5executable?$AA@ 0006c794     libeay32:eng_err.obj
 0002:000047a8       ??_C@_0BJ@MLKFDHJB@argument?5is?5not?5a?5number?$AA@ 0006c7a8     libeay32:eng_err.obj
 0002:000047c4       ??_C@_0P@BJJHFGDF@already?5loaded?$AA@ 0006c7c4     libeay32:eng_err.obj
 0002:000047d4       ??_C@_0M@KPAPOBEL@LOG_MESSAGE?$AA@ 0006c7d4     libeay32:eng_err.obj
 0002:000047e0       ??_C@_0BH@NKOABKBJ@INT_ENGINE_MODULE_INIT?$AA@ 0006c7e0     libeay32:eng_err.obj
 0002:000047f8       ??_C@_0BF@KHKGEEDA@INT_ENGINE_CONFIGURE?$AA@ 0006c7f8     libeay32:eng_err.obj
 0002:00004810       ??_C@_0BA@NBOMGPDI@INT_CTRL_HELPER?$AA@ 0006c810     libeay32:eng_err.obj
 0002:00004820       ??_C@_0O@GOAHGMDB@ENGINE_up_ref?$AA@ 0006c820     libeay32:eng_err.obj
 0002:00004830       ??_C@_0BH@LANMBLCP@ENGINE_UNLOCKED_FINISH?$AA@ 0006c830     libeay32:eng_err.obj
 0002:00004848       ??_C@_0BC@NNKOFPO@ENGINE_UNLOAD_KEY?$AA@ 0006c848     libeay32:eng_err.obj
 0002:0000485c       ??_C@_0BG@HEPKCBPA@ENGINE_TABLE_REGISTER?$AA@ 0006c85c     libeay32:eng_err.obj
 0002:00004874       ??_C@_0BA@BBCLHLE@ENGINE_set_name?$AA@ 0006c874     libeay32:eng_err.obj
 0002:00004884       ??_C@_0O@IBKJDIDD@ENGINE_set_id?$AA@ 0006c884     libeay32:eng_err.obj
 0002:00004894       ??_C@_0BI@PCMFCKOJ@ENGINE_SET_DEFAULT_TYPE?$AA@ 0006c894     libeay32:eng_err.obj
 0002:000048ac       ??_C@_0BK@CMIADBNF@ENGINE_set_default_string?$AA@ 0006c8ac     libeay32:eng_err.obj
 0002:000048c8       ??_C@_0O@LEGEOLNJ@ENGINE_remove?$AA@ 0006c8c8     libeay32:eng_err.obj
 0002:000048d8       ??_C@_0L@DLEMNAIO@ENGINE_new?$AA@ 0006c8d8     libeay32:eng_err.obj
 0002:000048e4       ??_C@_0BM@OANOBGKF@ENGINE_load_ssl_client_cert?$AA@ 0006c8e4     libeay32:eng_err.obj
 0002:00004900       ??_C@_0BH@DNGJCACJ@ENGINE_load_public_key?$AA@ 0006c900     libeay32:eng_err.obj
 0002:00004918       ??_C@_0BI@CBHILLDH@ENGINE_load_private_key?$AA@ 0006c918     libeay32:eng_err.obj
 0002:00004930       ??_C@_0BD@LDGPIDHA@ENGINE_LIST_REMOVE?$AA@ 0006c930     libeay32:eng_err.obj
 0002:00004944       ??_C@_0BA@LJOOGOPL@ENGINE_LIST_ADD?$AA@ 0006c944     libeay32:eng_err.obj
 0002:00004954       ??_C@_0M@DCPBILGO@ENGINE_init?$AA@ 0006c954     libeay32:eng_err.obj
 0002:00004960       ??_C@_0BA@CLOGFHB@ENGINE_get_prev?$AA@ 0006c960     libeay32:eng_err.obj
 0002:00004970       ??_C@_0BF@KNMJNENJ@ENGINE_get_pkey_meth?$AA@ 0006c970     libeay32:eng_err.obj
 0002:00004988       ??_C@_0BK@FIIKCJLD@ENGINE_get_pkey_asn1_meth?$AA@ 0006c988     libeay32:eng_err.obj
 0002:000049a4       ??_C@_0BA@DGGIHBBF@ENGINE_get_next?$AA@ 0006c9a4     libeay32:eng_err.obj
 0002:000049b4       ??_C@_0BC@NEPEFELB@ENGINE_get_digest?$AA@ 0006c9b4     libeay32:eng_err.obj
 0002:000049c8       ??_C@_0BI@JGJMJEFL@ENGINE_GET_DEFAULT_TYPE?$AA@ 0006c9c8     libeay32:eng_err.obj
 0002:000049e0       ??_C@_0BC@HPAIIBDE@ENGINE_get_cipher?$AA@ 0006c9e0     libeay32:eng_err.obj
 0002:000049f4       ??_C@_0BB@PJHBNDMO@ENGINE_FREE_UTIL?$AA@ 0006c9f4     libeay32:eng_err.obj
 0002:00004a08       ??_C@_0O@IBJJAKNF@ENGINE_finish?$AA@ 0006ca08     libeay32:eng_err.obj
 0002:00004a18       ??_C@_0BH@IEMBPIBJ@ENGINE_ctrl_cmd_string?$AA@ 0006ca18     libeay32:eng_err.obj
 0002:00004a30       ??_C@_0BA@NDKOOMLF@ENGINE_ctrl_cmd?$AA@ 0006ca30     libeay32:eng_err.obj
 0002:00004a40       ??_C@_0M@NFINPAPM@ENGINE_ctrl?$AA@ 0006ca40     libeay32:eng_err.obj
 0002:00004a4c       ??_C@_0BJ@HKGBPGOI@ENGINE_cmd_is_executable?$AA@ 0006ca4c     libeay32:eng_err.obj
 0002:00004a68       ??_C@_0N@NCBADPHI@ENGINE_by_id?$AA@ 0006ca68     libeay32:eng_err.obj
 0002:00004a78       ??_C@_0L@DACOLHN@ENGINE_add?$AA@ 0006ca78     libeay32:eng_err.obj
 0002:00004a84       ??_C@_0BF@CMDFGLLL@DYNAMIC_SET_DATA_CTX?$AA@ 0006ca84     libeay32:eng_err.obj
 0002:00004a9c       ??_C@_0N@PDCGAECP@DYNAMIC_LOAD?$AA@ 0006ca9c     libeay32:eng_err.obj
 0002:00004aac       ??_C@_0BF@FIILKHPH@DYNAMIC_GET_DATA_CTX?$AA@ 0006caac     libeay32:eng_err.obj
 0002:00004ac4       ??_C@_0N@CANHNEEB@DYNAMIC_CTRL?$AA@ 0006cac4     libeay32:eng_err.obj
 0002:00004ad4       ??_C@_0BD@ONLLMKAC@wrong?5content?5type?$AA@ 0006cad4     libeay32:ts_err.obj
 0002:00004ae8       ??_C@_0BE@GIHMIKOK@unsupported?5version?$AA@ 0006cae8     libeay32:ts_err.obj
 0002:00004afc       ??_C@_0BJ@EEKKMNJN@unsupported?5md?5algorithm?$AA@ 0006cafc     libeay32:ts_err.obj
 0002:00004b18       ??_C@_0BE@BGDLMDPE@unacceptable?5policy?$AA@ 0006cb18     libeay32:ts_err.obj
 0002:00004b2c       ??_C@_0M@DAAFFGJ@ts?5datasign?$AA@ 0006cb2c     libeay32:ts_err.obj
 0002:00004b38       ??_C@_0BF@DKJELPOK@tst?5info?5setup?5error?$AA@ 0006cb38     libeay32:ts_err.obj
 0002:00004b50       ??_C@_0O@HGLDNJNA@tsa?5untrusted?$AA@ 0006cb50     libeay32:ts_err.obj
 0002:00004b60       ??_C@_0BC@JCDOLPAM@tsa?5name?5mismatch?$AA@ 0006cb60     libeay32:ts_err.obj
 0002:00004b74       ??_C@_0O@PFJGPIJM@token?5present?$AA@ 0006cb74     libeay32:ts_err.obj
 0002:00004b84       ??_C@_0BC@ECEKKIAN@token?5not?5present?$AA@ 0006cb84     libeay32:ts_err.obj
 0002:00004b98       ??_C@_0BD@LIIGNAIL@time?5syscall?5error?$AA@ 0006cb98     libeay32:ts_err.obj
 0002:00004bac       ??_C@_0BJ@IMMKNIA@there?5must?5be?5one?5signer?$AA@ 0006cbac     libeay32:ts_err.obj
 0002:00004bc8       ??_C@_0BF@HELKGHLI@response?5setup?5error?$AA@ 0006cbc8     libeay32:ts_err.obj
 0002:00004be0       ??_C@_0BA@MMPMGIJA@policy?5mismatch?$AA@ 0006cbe0     libeay32:ts_err.obj
 0002:00004bf0       ??_C@_0BM@OPFHKDNL@pkcs7?5to?5ts?5tst?5info?5failed?$AA@ 0006cbf0     libeay32:ts_err.obj
 0002:00004c0c       ??_C@_0BM@HMEEBAGP@pkcs7?5add?5signed?5attr?5error?$AA@ 0006cc0c     libeay32:ts_err.obj
 0002:00004c28       ??_C@_0BK@HFMOMPGJ@pkcs7?5add?5signature?5error?$AA@ 0006cc28     libeay32:ts_err.obj
 0002:00004c44       ??_C@_0BE@HKGKNPBO@no?5time?5stamp?5token?$AA@ 0006cc44     libeay32:ts_err.obj
 0002:00004c58       ??_C@_0BD@OIKCHNFI@nonce?5not?5returned?$AA@ 0006cc58     libeay32:ts_err.obj
 0002:00004c6c       ??_C@_0P@DEPHDNFM@nonce?5mismatch?$AA@ 0006cc6c     libeay32:ts_err.obj
 0002:00004c7c       ??_C@_0BJ@NEMHGAK@message?5imprint?5mismatch?$AA@ 0006cc7c     libeay32:ts_err.obj
 0002:00004c98       ??_C@_0CD@JMDGIOD@invalid?5signer?5certificate?5purpo@ 0006cc98     libeay32:ts_err.obj
 0002:00004cbc       ??_C@_0BF@IPGLAOPL@invalid?5null?5pointer?$AA@ 0006ccbc     libeay32:ts_err.obj
 0002:00004cd4       ??_C@_0BO@LOJEHLMB@ess?5signing?5certificate?5error?$AA@ 0006ccd4     libeay32:ts_err.obj
 0002:00004cf4       ??_C@_0BL@IDONJCGG@ess?5add?5signing?5cert?5error?$AA@ 0006ccf4     libeay32:ts_err.obj
 0002:00004d10       ??_C@_0BB@BGNKKBKP@detached?5content?$AA@ 0006cd10     libeay32:ts_err.obj
 0002:00004d24       ??_C@_0BH@PGKJHEIC@d2i?5ts?5resp?5int?5failed?$AA@ 0006cd24     libeay32:ts_err.obj
 0002:00004d3c       ??_C@_0BD@EOEPMDF@could?5not?5set?5time?$AA@ 0006cd3c     libeay32:ts_err.obj
 0002:00004d50       ??_C@_0BF@JADDABHG@could?5not?5set?5engine?$AA@ 0006cd50     libeay32:ts_err.obj
 0002:00004d68       ??_C@_08FJGJNBDN@bad?5type?$AA@ 0006cd68     libeay32:ts_err.obj
 0002:00004d74       ??_C@_0P@KJFPELCC@bad?5pkcs7?5type?$AA@ 0006cd74     libeay32:ts_err.obj
 0002:00004d84       ??_C@_0BC@PMKDCJPB@TS_VERIFY_CTX_new?$AA@ 0006cd84     libeay32:ts_err.obj
 0002:00004d98       ??_C@_0P@EEMBONBH@TS_VERIFY_CERT?$AA@ 0006cd98     libeay32:ts_err.obj
 0002:00004da8       ??_C@_09MPGCPGED@TS_VERIFY?$AA@ 0006cda8     libeay32:ts_err.obj
 0002:00004db4       ??_C@_0BE@FJAAKDDK@TS_TST_INFO_set_tsa?$AA@ 0006cdb4     libeay32:ts_err.obj
 0002:00004dc8       ??_C@_0BF@OIGBAIGM@TS_TST_INFO_set_time?$AA@ 0006cdc8     libeay32:ts_err.obj
 0002:00004de0       ??_C@_0BH@FNMNIAFK@TS_TST_INFO_set_serial?$AA@ 0006cde0     libeay32:ts_err.obj
 0002:00004df8       ??_C@_0BK@JIGEGHPI@TS_TST_INFO_set_policy_id?$AA@ 0006cdf8     libeay32:ts_err.obj
 0002:00004e14       ??_C@_0BG@GHFDNEJI@TS_TST_INFO_set_nonce?$AA@ 0006ce14     libeay32:ts_err.obj
 0002:00004e2c       ??_C@_0BM@IEMIMIPL@TS_TST_INFO_set_msg_imprint?$AA@ 0006ce2c     libeay32:ts_err.obj
 0002:00004e48       ??_C@_0BJ@DNEONPJA@TS_TST_INFO_set_accuracy?$AA@ 0006ce48     libeay32:ts_err.obj
 0002:00004e64       ??_C@_0BF@OIPDEICC@TS_RESP_verify_token?$AA@ 0006ce64     libeay32:ts_err.obj
 0002:00004e7c       ??_C@_0BJ@MPIGMHBH@TS_RESP_verify_signature?$AA@ 0006ce7c     libeay32:ts_err.obj
 0002:00004e98       ??_C@_0N@DHNLKJGL@TS_RESP_SIGN?$AA@ 0006ce98     libeay32:ts_err.obj
 0002:00004ea8       ??_C@_0BF@GIGAKHCL@TS_RESP_set_tst_info?$AA@ 0006cea8     libeay32:ts_err.obj
 0002:00004ec0       ??_C@_0BI@PAICHCKE@TS_RESP_set_status_info?$AA@ 0006cec0     libeay32:ts_err.obj
 0002:00004ed8       ??_C@_0CD@CANHJHD@TS_RESP_SET_GENTIME_WITH_PRECISI@ 0006ced8     libeay32:ts_err.obj
 0002:00004efc       ??_C@_0BD@FBFLPBEA@TS_RESP_GET_POLICY?$AA@ 0006cefc     libeay32:ts_err.obj
 0002:00004f10       ??_C@_0BM@CPPAEEJK@TS_RESP_CTX_set_status_info?$AA@ 0006cf10     libeay32:ts_err.obj
 0002:00004f2c       ??_C@_0BM@ILAGBAPH@TS_RESP_CTX_set_signer_cert?$AA@ 0006cf2c     libeay32:ts_err.obj
 0002:00004f48       ??_C@_0BL@MIMGPLHO@TS_RESP_CTX_set_def_policy?$AA@ 0006cf48     libeay32:ts_err.obj
 0002:00004f64       ??_C@_0BG@OAIBOLBJ@TS_RESP_CTX_set_certs?$AA@ 0006cf64     libeay32:ts_err.obj
 0002:00004f7c       ??_C@_0BJ@NMDIGKEA@TS_RESP_CTX_set_accuracy?$AA@ 0006cf7c     libeay32:ts_err.obj
 0002:00004f98       ??_C@_0BA@KGPIMJJ@TS_RESP_CTX_new?$AA@ 0006cf98     libeay32:ts_err.obj
 0002:00004fa8       ??_C@_0BH@LJMGBPDF@TS_RESP_CTX_add_policy?$AA@ 0006cfa8     libeay32:ts_err.obj
 0002:00004fc0       ??_C@_0BD@HAFNIPMB@TS_RESP_CTX_add_md?$AA@ 0006cfc0     libeay32:ts_err.obj
 0002:00004fd4       ??_C@_0BN@CABIECM@TS_RESP_CTX_add_failure_info?$AA@ 0006cfd4     libeay32:ts_err.obj
 0002:00004ff4       ??_C@_0BI@KGLLIOBM@TS_RESP_CREATE_TST_INFO?$AA@ 0006cff4     libeay32:ts_err.obj
 0002:0000500c       ??_C@_0BI@DECHCDBG@TS_RESP_create_response?$AA@ 0006d00c     libeay32:ts_err.obj
 0002:00005024       ??_C@_0BF@PKANHDDJ@TS_REQ_set_policy_id?$AA@ 0006d024     libeay32:ts_err.obj
 0002:0000503c       ??_C@_0BB@EIKDIEGN@TS_REQ_set_nonce?$AA@ 0006d03c     libeay32:ts_err.obj
 0002:00005050       ??_C@_0BH@EMPDJIOA@TS_REQ_set_msg_imprint?$AA@ 0006d050     libeay32:ts_err.obj
 0002:00005068       ??_C@_0BI@BMLOACLP@TS_MSG_IMPRINT_set_algo?$AA@ 0006d068     libeay32:ts_err.obj
 0002:00005080       ??_C@_0BD@KIAIHHOF@TS_GET_STATUS_TEXT?$AA@ 0006d080     libeay32:ts_err.obj
 0002:00005094       ??_C@_0BL@KPDHBLEH@TS_CONF_set_default_engine?$AA@ 0006d094     libeay32:ts_err.obj
 0002:000050b0       ??_C@_0BD@KALPCPNC@TS_COMPUTE_IMPRINT?$AA@ 0006d0b0     libeay32:ts_err.obj
 0002:000050c4       ??_C@_0BF@DCHLKMIF@TS_CHECK_STATUS_INFO?$AA@ 0006d0c4     libeay32:ts_err.obj
 0002:000050dc       ??_C@_0BH@KBPIGHCA@TS_CHECK_SIGNING_CERTS?$AA@ 0006d0dc     libeay32:ts_err.obj
 0002:000050f4       ??_C@_0BA@GKENKOMJ@TS_CHECK_POLICY?$AA@ 0006d0f4     libeay32:ts_err.obj
 0002:00005104       ??_C@_0BA@LGLDGOGG@TS_CHECK_NONCES?$AA@ 0006d104     libeay32:ts_err.obj
 0002:00005114       ??_C@_0BC@NNCCIAGM@TS_CHECK_IMPRINTS?$AA@ 0006d114     libeay32:ts_err.obj
 0002:00005128       ??_C@_0BI@HCHFFCAB@TS_ACCURACY_set_seconds?$AA@ 0006d128     libeay32:ts_err.obj
 0002:00005140       ??_C@_0BH@GLDDCJIE@TS_ACCURACY_set_millis?$AA@ 0006d140     libeay32:ts_err.obj
 0002:00005158       ??_C@_0BH@FNCIOCEL@TS_ACCURACY_set_micros?$AA@ 0006d158     libeay32:ts_err.obj
 0002:00005170       ??_C@_0BF@NEHHPIJO@PKCS7_to_TS_TST_INFO?$AA@ 0006d170     libeay32:ts_err.obj
 0002:00005188       ??_C@_0BJ@FPCBNLKF@INT_TS_RESP_VERIFY_TOKEN?$AA@ 0006d188     libeay32:ts_err.obj
 0002:000051a4       ??_C@_0BK@JMEMFCFA@ESS_SIGNING_CERT_NEW_INIT?$AA@ 0006d1a4     libeay32:ts_err.obj
 0002:000051c0       ??_C@_0BF@COCNPBNI@ESS_CERT_ID_NEW_INIT?$AA@ 0006d1c0     libeay32:ts_err.obj
 0002:000051d8       ??_C@_0BF@GFPKILJC@ESS_ADD_SIGNING_CERT?$AA@ 0006d1d8     libeay32:ts_err.obj
 0002:000051f0       ??_C@_0M@COMIPLAF@DEF_TIME_CB?$AA@ 0006d1f0     libeay32:ts_err.obj
 0002:000051fc       ??_C@_0O@JIKHDFOB@DEF_SERIAL_CB?$AA@ 0006d1fc     libeay32:ts_err.obj
 0002:0000520c       ??_C@_0M@FLLAHAAK@d2i_TS_RESP?$AA@ 0006d20c     libeay32:ts_err.obj
 0002:00005218       ??_C@_0BM@LHLEOIGK@functionality?5not?5supported?$AA@ 0006d218     libeay32:dso_err.obj
 0002:00005234       ??_C@_0CE@FOMJAKIK@could?5not?5unload?5the?5shared?5libr@ 0006d234     libeay32:dso_err.obj
 0002:00005258       ??_C@_0CM@JGGNADOB@could?5not?5bind?5to?5the?5requested?5@ 0006d258     libeay32:dso_err.obj
 0002:00005284       ??_C@_0BP@PIEGKEEJ@the?5meth_data?5stack?5is?5corrupt?$AA@ 0006d284     libeay32:dso_err.obj
 0002:000052a4       ??_C@_0BE@NIHPFFEI@set?5filename?5failed?$AA@ 0006d2a4     libeay32:dso_err.obj
 0002:000052b8       ??_C@_0CG@BNDBJOHD@a?5null?5shared?5library?5handle?5was@ 0006d2b8     libeay32:dso_err.obj
 0002:000052e0       ??_C@_0BG@DMKAPHFP@no?5file?5specification?$AA@ 0006d2e0     libeay32:dso_err.obj
 0002:000052f8       ??_C@_0M@MANHICLF@no?5filename?$AA@ 0006d2f8     libeay32:dso_err.obj
 0002:00005304       ??_C@_0BI@CMDMEMFB@name?5translation?5failed?$AA@ 0006d304     libeay32:dso_err.obj
 0002:0000531c       ??_C@_0CC@FFDOFDDH@could?5not?5load?5the?5shared?5librar@ 0006d31c     libeay32:dso_err.obj
 0002:00005340       ??_C@_0BG@NKEINIBP@incorrect?5file?5syntax?$AA@ 0006d340     libeay32:dso_err.obj
 0002:00005358       ??_C@_0BP@OLOPAJM@cleanup?5method?5function?5failed?$AA@ 0006d358     libeay32:dso_err.obj
 0002:00005378       ??_C@_0BB@PBMBADNF@filename?5too?5big?$AA@ 0006d378     libeay32:dso_err.obj
 0002:0000538c       ??_C@_07MBLPHJFH@failure?$AA@ 0006d38c     libeay32:dso_err.obj
 0002:00005394       ??_C@_0BF@PAMEGLNL@empty?5file?5structure?$AA@ 0006d394     libeay32:dso_err.obj
 0002:000053ac       ??_C@_0BD@BHBOFNOP@dso?5already?5loaded?$AA@ 0006d3ac     libeay32:dso_err.obj
 0002:000053c0       ??_C@_0BH@OOCPFGMG@control?5command?5failed?$AA@ 0006d3c0     libeay32:dso_err.obj
 0002:000053d8       ??_C@_0N@FNAFDKAA@WIN32_UNLOAD?$AA@ 0006d3d8     libeay32:dso_err.obj
 0002:000053e8       ??_C@_0P@MLLACKJ@WIN32_SPLITTER?$AA@ 0006d3e8     libeay32:dso_err.obj
 0002:000053f8       ??_C@_0BB@NMILAIHE@WIN32_PATHBYADDR?$AA@ 0006d3f8     libeay32:dso_err.obj
 0002:0000540c       ??_C@_0BF@KDGOAHDK@WIN32_NAME_CONVERTER?$AA@ 0006d40c     libeay32:dso_err.obj
 0002:00005424       ??_C@_0N@GCAGAEGN@WIN32_MERGER?$AA@ 0006d424     libeay32:dso_err.obj
 0002:00005434       ??_C@_0L@MDFNLIFJ@WIN32_LOAD?$AA@ 0006d434     libeay32:dso_err.obj
 0002:00005440       ??_C@_0N@GMACPAJM@WIN32_JOINER?$AA@ 0006d440     libeay32:dso_err.obj
 0002:00005450       ??_C@_0BI@IBLPJFIL@WIN32_GLOBALLOOKUP_FUNC?$AA@ 0006d450     libeay32:dso_err.obj
 0002:00005468       ??_C@_0BD@EGNJAOD@WIN32_GLOBALLOOKUP?$AA@ 0006d468     libeay32:dso_err.obj
 0002:0000547c       ??_C@_0P@CFCFCNCK@WIN32_BIND_VAR?$AA@ 0006d47c     libeay32:dso_err.obj
 0002:0000548c       ??_C@_0BA@KKGNPNGD@WIN32_BIND_FUNC?$AA@ 0006d48c     libeay32:dso_err.obj
 0002:0000549c       ??_C@_0L@FHGIHEGE@VMS_UNLOAD?$AA@ 0006d49c     libeay32:dso_err.obj
 0002:000054a8       ??_C@_0L@GIGLEKAJ@VMS_MERGER?$AA@ 0006d4a8     libeay32:dso_err.obj
 0002:000054b4       ??_C@_08POPKNNEM@VMS_LOAD?$AA@ 0006d4b4     libeay32:dso_err.obj
 0002:000054c0       ??_C@_0N@FNGBOJBH@VMS_BIND_SYM?$AA@ 0006d4c0     libeay32:dso_err.obj
 0002:000054d0       ??_C@_0L@DOJGKPLN@PATHBYADDR?$AA@ 0006d4d0     libeay32:dso_err.obj
 0002:000054dc       ??_C@_0BD@IKENGPMB@GLOBAL_LOOKUP_FUNC?$AA@ 0006d4dc     libeay32:dso_err.obj
 0002:000054f0       ??_C@_0L@JOFLDDCD@DSO_up_ref?$AA@ 0006d4f0     libeay32:dso_err.obj
 0002:000054fc       ??_C@_0BH@HJLMMDGG@DSO_set_name_converter?$AA@ 0006d4fc     libeay32:dso_err.obj
 0002:00005514       ??_C@_0BB@KOOHGFJP@DSO_set_filename?$AA@ 0006d514     libeay32:dso_err.obj
 0002:00005528       ??_C@_0P@PLFANOCN@DSO_pathbyaddr?$AA@ 0006d528     libeay32:dso_err.obj
 0002:00005538       ??_C@_0P@MIPJLIEO@DSO_new_method?$AA@ 0006d538     libeay32:dso_err.obj
 0002:00005548       ??_C@_09JEEHMKBG@DSO_merge?$AA@ 0006d548     libeay32:dso_err.obj
 0002:00005554       ??_C@_08HJLJIAGA@DSO_load?$AA@ 0006d554     libeay32:dso_err.obj
 0002:00005560       ??_C@_0BC@FCGODICD@DSO_global_lookup?$AA@ 0006d560     libeay32:dso_err.obj
 0002:00005574       ??_C@_0BI@BHCPJBAG@DSO_get_loaded_filename?$AA@ 0006d574     libeay32:dso_err.obj
 0002:0000558c       ??_C@_0BB@NKFJKJND@DSO_get_filename?$AA@ 0006d58c     libeay32:dso_err.obj
 0002:000055a0       ??_C@_08IPGIIOBO@DSO_free?$AA@ 0006d5a0     libeay32:dso_err.obj
 0002:000055ac       ??_C@_08KKEIFAAO@DSO_ctrl?$AA@ 0006d5ac     libeay32:dso_err.obj
 0002:000055b8       ??_C@_0BF@LACAGLOM@DSO_convert_filename?$AA@ 0006d5b8     libeay32:dso_err.obj
 0002:000055d0       ??_C@_0N@JOCDIPCP@DSO_bind_var?$AA@ 0006d5d0     libeay32:dso_err.obj
 0002:000055e0       ??_C@_0O@EPDICLOM@DSO_bind_func?$AA@ 0006d5e0     libeay32:dso_err.obj
 0002:000055f0       ??_C@_09MAACBMPD@DL_UNLOAD?$AA@ 0006d5f0     libeay32:dso_err.obj
 0002:000055fc       ??_C@_0BC@EKHEMLCM@DL_NAME_CONVERTER?$AA@ 0006d5fc     libeay32:dso_err.obj
 0002:00005610       ??_C@_09PPABCCJO@DL_MERGER?$AA@ 0006d610     libeay32:dso_err.obj
 0002:0000561c       ??_C@_07PCEANJHL@DL_LOAD?$AA@ 0006d61c     libeay32:dso_err.obj
 0002:00005624       ??_C@_0M@MILJIHKO@DL_BIND_VAR?$AA@ 0006d624     libeay32:dso_err.obj
 0002:00005630       ??_C@_0N@EAFFCGPA@DL_BIND_FUNC?$AA@ 0006d630     libeay32:dso_err.obj
 0002:00005640       ??_C@_0N@JGHGNDBI@DLFCN_UNLOAD?$AA@ 0006d640     libeay32:dso_err.obj
 0002:00005650       ??_C@_0BF@IJHLGIMF@DLFCN_NAME_CONVERTER?$AA@ 0006d650     libeay32:dso_err.obj
 0002:00005668       ??_C@_0N@KJHFONHF@DLFCN_MERGER?$AA@ 0006d668     libeay32:dso_err.obj
 0002:00005678       ??_C@_0L@COCAFIAA@DLFCN_LOAD?$AA@ 0006d678     libeay32:dso_err.obj
 0002:00005684       ??_C@_0P@HOOICENM@DLFCN_BIND_VAR?$AA@ 0006d684     libeay32:dso_err.obj
 0002:00005694       ??_C@_0BA@POOIGHED@DLFCN_BIND_FUNC?$AA@ 0006d694     libeay32:dso_err.obj
 0002:000056a4       ??_C@_0M@KIIDFIHP@BEOS_UNLOAD?$AA@ 0006d6a4     libeay32:dso_err.obj
 0002:000056b0       ??_C@_0BE@ICAKPBCC@BEOS_NAME_CONVERTER?$AA@ 0006d6b0     libeay32:dso_err.obj
 0002:000056c4       ??_C@_09LGFOAPMA@BEOS_LOAD?$AA@ 0006d6c4     libeay32:dso_err.obj
 0002:000056d0       ??_C@_0O@CODOLNOB@BEOS_BIND_VAR?$AA@ 0006d6d0     libeay32:dso_err.obj
 0002:000056e0       ??_C@_0P@KGNAPNML@BEOS_BIND_FUNC?$AA@ 0006d6e0     libeay32:dso_err.obj
 0002:000056f0       ??_C@_0BA@PGDKLOAF@PRNG?5not?5seeded?$AA@ 0006d6f0     libeay32:rand_err.obj
 0002:00005700       ??_C@_0BK@DNJBBHNJ@no?5fips?5random?5method?5set?$AA@ 0006d700     libeay32:rand_err.obj
 0002:0000571c       ??_C@_0BJ@EEMAPNFK@error?5instantiating?5drbg?$AA@ 0006d71c     libeay32:rand_err.obj
 0002:00005738       ??_C@_0BI@FBCLCKDG@error?5initialising?5drbg?$AA@ 0006d738     libeay32:rand_err.obj
 0002:00005750       ??_C@_0BC@HICMDCDB@SSLEAY_RAND_BYTES?$AA@ 0006d750     libeay32:rand_err.obj
 0002:00005764       ??_C@_0P@NOHKHPEN@RAND_init_fips?$AA@ 0006d764     libeay32:rand_err.obj
 0002:00005774       ??_C@_0BF@CAFGGGED@RAND_get_rand_method?$AA@ 0006d774     libeay32:rand_err.obj
 0002:0000578c       ??_C@_0BI@EEIECHAF@unsupported?5pkcs12?5mode?$AA@ 0006d78c     libeay32:pk12err.obj
 0002:000057a4       ??_C@_0BJ@OKONMLMC@unknown?5digest?5algorithm?$AA@ 0006d7a4     libeay32:pk12err.obj
 0002:000057c0       ??_C@_0BH@KFJJFPGN@pkcs12?5pbe?5crypt?5error?$AA@ 0006d7c0     libeay32:pk12err.obj
 0002:000057d8       ??_C@_0BJ@BKJAONNI@pkcs12?5cipherfinal?5error?$AA@ 0006d7d8     libeay32:pk12err.obj
 0002:000057f4       ??_C@_0BO@BBFFHMLJ@pkcs12?5algor?5cipherinit?5error?$AA@ 0006d7f4     libeay32:pk12err.obj
 0002:00005814       ??_C@_0M@BJIBBOFC@parse?5error?$AA@ 0006d814     libeay32:pk12err.obj
 0002:00005820       ??_C@_0BD@GOKMGMNC@mac?5verify?5failure?$AA@ 0006d820     libeay32:pk12err.obj
 0002:00005834       ??_C@_0BB@GIFNFEPC@mac?5verify?5error?$AA@ 0006d834     libeay32:pk12err.obj
 0002:00005848       ??_C@_0BF@JMCFJAMN@mac?5string?5set?5error?$AA@ 0006d848     libeay32:pk12err.obj
 0002:00005860       ??_C@_0BA@ILPLLEEK@mac?5setup?5error?$AA@ 0006d860     libeay32:pk12err.obj
 0002:00005870       ??_C@_0BF@NKGPIEMN@mac?5generation?5error?$AA@ 0006d870     libeay32:pk12err.obj
 0002:00005888       ??_C@_0L@HOOIALKD@mac?5absent?$AA@ 0006d888     libeay32:pk12err.obj
 0002:00005894       ??_C@_0O@KKIOONMM@key?5gen?5error?$AA@ 0006d894     libeay32:pk12err.obj
 0002:000058a4       ??_C@_0N@FPIKEAMH@iv?5gen?5error?$AA@ 0006d8a4     libeay32:pk12err.obj
 0002:000058b4       ??_C@_0BM@HJIDLEHH@invalid?5null?5pkcs12?5pointer?$AA@ 0006d8b4     libeay32:pk12err.obj
 0002:000058d0       ??_C@_0BG@HMFEKIEC@invalid?5null?5argument?$AA@ 0006d8d0     libeay32:pk12err.obj
 0002:000058e8       ??_C@_0CC@OLHMBGOD@error?5setting?5encrypted?5data?5typ@ 0006d8e8     libeay32:pk12err.obj
 0002:0000590c       ??_C@_0O@HCGKPNBB@encrypt?5error?$AA@ 0006d90c     libeay32:pk12err.obj
 0002:0000591c       ??_C@_0N@NJEIFFDB@encode?5error?$AA@ 0006d91c     libeay32:pk12err.obj
 0002:0000592c       ??_C@_0N@HFEMCILK@decode?5error?$AA@ 0006d92c     libeay32:pk12err.obj
 0002:0000593c       ??_C@_0BG@NAJKFFBP@content?5type?5not?5data?$AA@ 0006d93c     libeay32:pk12err.obj
 0002:00005954       ??_C@_0BE@DIFPEDMB@cant?5pack?5structure?$AA@ 0006d954     libeay32:pk12err.obj
 0002:00005968       ??_C@_0O@GEAAJNGL@PKCS8_encrypt?$AA@ 0006d968     libeay32:pk12err.obj
 0002:00005978       ??_C@_0BD@PNOACOKG@PKCS8_add_keyusage?$AA@ 0006d978     libeay32:pk12err.obj
 0002:0000598c       ??_C@_0BC@ODGOFFJK@PKCS12_verify_mac?$AA@ 0006d98c     libeay32:pk12err.obj
 0002:000059a0       ??_C@_0BF@PGHHFMGC@PKCS12_unpack_p7data?$AA@ 0006d9a0     libeay32:pk12err.obj
 0002:000059b8       ??_C@_0BI@LFBOHEJ@PKCS12_unpack_authsafes?$AA@ 0006d9b8     libeay32:pk12err.obj
 0002:000059d0       ??_C@_0P@NELHLNIA@PKCS12_set_mac?$AA@ 0006d9d0     libeay32:pk12err.obj
 0002:000059e0       ??_C@_0BB@KDNNBMPN@PKCS12_setup_mac?$AA@ 0006d9e0     libeay32:pk12err.obj
 0002:000059f4       ??_C@_0BE@IOEGDAJO@PKCS12_PBE_keyivgen?$AA@ 0006d9f4     libeay32:pk12err.obj
 0002:00005a08       ??_C@_0BB@IMFIILMJ@PKCS12_pbe_crypt?$AA@ 0006da08     libeay32:pk12err.obj
 0002:00005a1c       ??_C@_0N@KODNLEFI@PKCS12_parse?$AA@ 0006da1c     libeay32:pk12err.obj
 0002:00005a2c       ??_C@_0BG@GJBJGPGL@PKCS12_pack_p7encdata?$AA@ 0006da2c     libeay32:pk12err.obj
 0002:00005a44       ??_C@_0BD@CKGFANON@PKCS12_pack_p7data?$AA@ 0006da44     libeay32:pk12err.obj
 0002:00005a58       ??_C@_0P@OJLKIJPG@PKCS12_newpass?$AA@ 0006da58     libeay32:pk12err.obj
 0002:00005a68       ??_C@_0BF@NOJGELOL@PKCS12_MAKE_SHKEYBAG?$AA@ 0006da68     libeay32:pk12err.obj
 0002:00005a80       ??_C@_0BD@NGAACKBP@PKCS12_MAKE_KEYBAG?$AA@ 0006da80     libeay32:pk12err.obj
 0002:00005a94       ??_C@_0BD@DMMKPAAN@PKCS12_key_gen_uni?$AA@ 0006da94     libeay32:pk12err.obj
 0002:00005aa8       ??_C@_0BD@NKAOIGM@PKCS12_key_gen_asc?$AA@ 0006daa8     libeay32:pk12err.obj
 0002:00005abc       ??_C@_0BJ@KMABOEKC@PKCS12_item_pack_safebag?$AA@ 0006dabc     libeay32:pk12err.obj
 0002:00005ad8       ??_C@_0BI@HHFDKLOA@PKCS12_item_i2d_encrypt?$AA@ 0006dad8     libeay32:pk12err.obj
 0002:00005af0       ??_C@_0BI@DMGNLMLF@PKCS12_item_decrypt_d2i?$AA@ 0006daf0     libeay32:pk12err.obj
 0002:00005b08       ??_C@_0M@LLKHLIMM@PKCS12_init?$AA@ 0006db08     libeay32:pk12err.obj
 0002:00005b14       ??_C@_0P@IOALKDKM@PKCS12_gen_mac?$AA@ 0006db14     libeay32:pk12err.obj
 0002:00005b24       ??_C@_0O@JLNEJADH@PKCS12_create?$AA@ 0006db24     libeay32:pk12err.obj
 0002:00005b34       ??_C@_0BG@MCOKGJI@PKCS12_add_localkeyid?$AA@ 0006db34     libeay32:pk12err.obj
 0002:00005b4c       ??_C@_0BM@DMPHEEM@PKCS12_add_friendlyname_uni?$AA@ 0006db4c     libeay32:pk12err.obj
 0002:00005b68       ??_C@_0BM@DCKFGMCN@PKCS12_add_friendlyname_asc?$AA@ 0006db68     libeay32:pk12err.obj
 0002:00005b84       ??_C@_0BI@NGMPLJFF@PKCS12_ADD_FRIENDLYNAME?$AA@ 0006db84     libeay32:pk12err.obj
 0002:00005b9c       ??_C@_0L@BEIACDCD@PARSE_BAGS?$AA@ 0006db9c     libeay32:pk12err.obj
 0002:00005ba8       ??_C@_09HDBNGMFC@PARSE_BAG?$AA@ 0006dba8     libeay32:pk12err.obj
 0002:00005bb4       ??_C@_0O@JHPAMHAH@user?5too?5long?$AA@ 0006dbb4     libeay32:v3err.obj
 0002:00005bc4       ??_C@_0BD@HBMBLBA@unsupported?5option?$AA@ 0006dbc4     libeay32:v3err.obj
 0002:00005bd8       ??_C@_0P@EMNDFJHN@unknown?5option?$AA@ 0006dbd8     libeay32:v3err.obj
 0002:00005be8       ??_C@_0BH@BCAACBGI@unknown?5extension?5name?$AA@ 0006dbe8     libeay32:v3err.obj
 0002:00005c00       ??_C@_0BC@OOCHDELC@unknown?5extension?$AA@ 0006dc00     libeay32:v3err.obj
 0002:00005c14       ??_C@_0BM@MKJMMAIK@unknown?5bit?5string?5argument?$AA@ 0006dc14     libeay32:v3err.obj
 0002:00005c30       ??_C@_0BL@OBFDCJAP@unable?5to?5get?5issuer?5keyid?$AA@ 0006dc30     libeay32:v3err.obj
 0002:00005c4c       ??_C@_0BN@CHFBOPOP@unable?5to?5get?5issuer?5details?$AA@ 0006dc4c     libeay32:v3err.obj
 0002:00005c6c       ??_C@_0BC@JNLKMDNP@section?5not?5found?$AA@ 0006dc6c     libeay32:v3err.obj
 0002:00005c80       ??_C@_0CO@JHHDKONF@policy?5when?5proxy?5language?5requi@ 0006dc80     libeay32:v3err.obj
 0002:00005cb0       ??_C@_0CG@MJOKMEM@policy?5syntax?5not?5currently?5supp@ 0006dcb0     libeay32:v3err.obj
 0002:00005cd8       ??_C@_0CD@BBDANIPI@policy?5path?5length?5already?5defin@ 0006dcd8     libeay32:v3err.obj
 0002:00005cfc       ??_C@_0BD@NEDBFMDL@policy?5path?5length?$AA@ 0006dcfc     libeay32:v3err.obj
 0002:00005d10       ??_C@_0CA@CPCFNOPI@policy?5language?5already?5defined?$AA@ 0006dd10     libeay32:v3err.obj
 0002:00005d30       ??_C@_0BA@MOGEPHBJ@othername?5error?$AA@ 0006dd30     libeay32:v3err.obj
 0002:00005d40       ??_C@_0BG@NMPNHAKE@operation?5not?5defined?$AA@ 0006dd40     libeay32:v3err.obj
 0002:00005d58       ??_C@_0BF@KKPHKHFI@odd?5number?5of?5digits?$AA@ 0006dd58     libeay32:v3err.obj
 0002:00005d70       ??_C@_0BD@MBNAEAHJ@no?5subject?5details?$AA@ 0006dd70     libeay32:v3err.obj
 0002:00005d84       ??_C@_0CG@OJBEOHLI@no?5proxy?5cert?5policy?5language?5de@ 0006dd84     libeay32:v3err.obj
 0002:00005dac       ??_C@_0BF@GMFLKLFH@no?5policy?5identifier?$AA@ 0006ddac     libeay32:v3err.obj
 0002:00005dc4       ??_C@_0BC@DGDOEGNM@no?5issuer?5details?$AA@ 0006ddc4     libeay32:v3err.obj
 0002:00005dd8       ??_C@_0BG@BJHMFLGH@no?5issuer?5certificate?$AA@ 0006ddd8     libeay32:v3err.obj
 0002:00005df0       ??_C@_0BD@GBCDPHMB@no?5config?5database?$AA@ 0006ddf0     libeay32:v3err.obj
 0002:00005e04       ??_C@_0BO@NPHFIDLK@need?5organization?5and?5numbers?$AA@ 0006de04     libeay32:v3err.obj
 0002:00005e24       ??_C@_0O@EGLIOGHL@missing?5value?$AA@ 0006de24     libeay32:v3err.obj
 0002:00005e34       ??_C@_0BE@OKJPOHGC@issuer?5decode?5error?$AA@ 0006de34     libeay32:v3err.obj
 0002:00005e48       ??_C@_0P@OAAEFEAJ@invalid?5syntax?$AA@ 0006de48     libeay32:v3err.obj
 0002:00005e58       ??_C@_0BA@ECHPICKH@invalid?5section?$AA@ 0006de58     libeay32:v3err.obj
 0002:00005e68       ??_C@_0N@FIBHOIMG@invalid?5safi?$AA@ 0006de68     libeay32:v3err.obj
 0002:00005e78       ??_C@_0BA@EFIHLCHH@invalid?5purpose?$AA@ 0006de78     libeay32:v3err.obj
 0002:00005e88       ??_C@_0BN@HOHNAMND@invalid?5proxy?5policy?5setting?$AA@ 0006de88     libeay32:v3err.obj
 0002:00005ea8       ??_C@_0BK@EAPNGJJJ@invalid?5policy?5identifier?$AA@ 0006dea8     libeay32:v3err.obj
 0002:00005ec4       ??_C@_0P@PJFAGLMH@invalid?5option?$AA@ 0006dec4     libeay32:v3err.obj
 0002:00005ed4       ??_C@_0BK@NLNHJCIF@invalid?5object?5identifier?$AA@ 0006ded4     libeay32:v3err.obj
 0002:00005ef0       ??_C@_0BA@LGPBNKEG@invalid?5numbers?$AA@ 0006def0     libeay32:v3err.obj
 0002:00005f00       ??_C@_0P@FOPLFLLJ@invalid?5number?$AA@ 0006df00     libeay32:v3err.obj
 0002:00005f10       ??_C@_0BD@GLEJLJGC@invalid?5null?5value?$AA@ 0006df10     libeay32:v3err.obj
 0002:00005f24       ??_C@_0BC@EKAKHKC@invalid?5null?5name?$AA@ 0006df24     libeay32:v3err.obj
 0002:00005f38       ??_C@_0N@GAIHBLBI@invalid?5name?$AA@ 0006df38     libeay32:v3err.obj
 0002:00005f48       ??_C@_0BC@LAJKDMCB@invalid?5ipaddress?$AA@ 0006df48     libeay32:v3err.obj
 0002:00005f5c       ??_C@_0BE@EJNBIJCH@invalid?5inheritance?$AA@ 0006df5c     libeay32:v3err.obj
 0002:00005f70       ??_C@_0BJ@ECCGDIOM@invalid?5extension?5string?$AA@ 0006df70     libeay32:v3err.obj
 0002:00005f8c       ??_C@_0BH@CJLEFGHB@invalid?5boolean?5string?$AA@ 0006df8c     libeay32:v3err.obj
 0002:00005fa4       ??_C@_0BA@GIFFGEAD@invalid?5asrange?$AA@ 0006dfa4     libeay32:v3err.obj
 0002:00005fb4       ??_C@_0BB@MMCPCDHP@invalid?5asnumber?$AA@ 0006dfb4     libeay32:v3err.obj
 0002:00005fc8       ??_C@_0BG@HKLEIIMK@invalid?5multiple?5rdns?$AA@ 0006dfc8     libeay32:v3err.obj
 0002:00005fe0       ??_C@_0BM@GFPPDKKF@incorrect?5policy?5syntax?5tag?$AA@ 0006dfe0     libeay32:v3err.obj
 0002:00005ffc       ??_C@_0BC@NGJFBKFK@illegal?5hex?5digit?$AA@ 0006dffc     libeay32:v3err.obj
 0002:00006010       ??_C@_0BI@JDFDJJBE@illegal?5empty?5extension?$AA@ 0006e010     libeay32:v3err.obj
 0002:00006028       ??_C@_0BG@HAAPENCJ@extension?5value?5error?$AA@ 0006e028     libeay32:v3err.obj
 0002:00006040       ??_C@_0CA@OIICHEJO@extension?5setting?5not?5supported?$AA@ 0006e040     libeay32:v3err.obj
 0002:00006060       ??_C@_0BE@PDPAEMIJ@extension?5not?5found?$AA@ 0006e060     libeay32:v3err.obj
 0002:00006074       ??_C@_0BF@NELDGAFP@extension?5name?5error?$AA@ 0006e074     libeay32:v3err.obj
 0002:0000608c       ??_C@_0BB@NMKOJBMO@extension?5exists?$AA@ 0006e08c     libeay32:v3err.obj
 0002:000060a0       ??_C@_0BI@FPOKMAM@expected?5a?5section?5name?$AA@ 0006e0a0     libeay32:v3err.obj
 0002:000060b8       ??_C@_0BD@OJDPENBP@error?5in?5extension?$AA@ 0006e0b8     libeay32:v3err.obj
 0002:000060cc       ??_C@_0BJ@PFLAAICM@error?5creating?5extension?$AA@ 0006e0cc     libeay32:v3err.obj
 0002:000060e8       ??_C@_0BG@BJAKBIPP@error?5converting?5zone?$AA@ 0006e0e8     libeay32:v3err.obj
 0002:00006100       ??_C@_0BC@CAFGAOAM@duplicate?5zone?5id?$AA@ 0006e100     libeay32:v3err.obj
 0002:00006114       ??_C@_0BG@OJEPNJEI@distpoint?5already?5set?$AA@ 0006e114     libeay32:v3err.obj
 0002:0000612c       ??_C@_0O@HIKALICP@dirname?5error?$AA@ 0006e12c     libeay32:v3err.obj
 0002:0000613c       ??_C@_0BJ@FNPACNBP@bn?5to?5asn1?5integer?5error?$AA@ 0006e13c     libeay32:v3err.obj
 0002:00006158       ??_C@_0BA@CINBMAOD@bn?5dec2bn?5error?$AA@ 0006e158     libeay32:v3err.obj
 0002:00006168       ??_C@_0L@LMGGIPFB@bad?5object?$AA@ 0006e168     libeay32:v3err.obj
 0002:00006174       ??_C@_0P@HHIOGPLO@bad?5ip?5address?$AA@ 0006e174     libeay32:v3err.obj
 0002:00006184       ??_C@_0BB@HHDJLLEN@X509_PURPOSE_set?$AA@ 0006e184     libeay32:v3err.obj
 0002:00006198       ??_C@_0BB@MGCJFMDP@X509_PURPOSE_add?$AA@ 0006e198     libeay32:v3err.obj
 0002:000061ac       ??_C@_0BC@KJEMBDOE@X509V3_parse_list?$AA@ 0006e1ac     libeay32:v3err.obj
 0002:000061c0       ??_C@_0BG@MGIBIFAD@X509V3_get_value_bool?$AA@ 0006e1c0     libeay32:v3err.obj
 0002:000061d8       ??_C@_0BC@DJANGIBG@X509V3_get_string?$AA@ 0006e1d8     libeay32:v3err.obj
 0002:000061ec       ??_C@_0BD@NAEICGG@X509V3_get_section?$AA@ 0006e1ec     libeay32:v3err.obj
 0002:00006200       ??_C@_0BB@LCMAPPDO@X509V3_EXT_nconf?$AA@ 0006e200     libeay32:v3err.obj
 0002:00006214       ??_C@_0P@EKNPOBED@X509V3_EXT_i2d?$AA@ 0006e214     libeay32:v3err.obj
 0002:00006224       ??_C@_0BA@KCHIEJOC@X509V3_EXT_conf?$AA@ 0006e224     libeay32:v3err.obj
 0002:00006234       ??_C@_0BF@MMADKDDK@X509V3_EXT_add_alias?$AA@ 0006e234     libeay32:v3err.obj
 0002:0000624c       ??_C@_0P@OHFKJLKO@X509V3_EXT_add?$AA@ 0006e24c     libeay32:v3err.obj
 0002:0000625c       ??_C@_0BB@FBAFPAF@X509V3_add_value?$AA@ 0006e25c     libeay32:v3err.obj
 0002:00006270       ??_C@_0BA@CDLAKIAK@X509V3_add1_i2d?$AA@ 0006e270     libeay32:v3err.obj
 0002:00006280       ??_C@_0BF@CFAPJAED@V3_GENERIC_EXTENSION?$AA@ 0006e280     libeay32:v3err.obj
 0002:00006298       ??_C@_0BP@FCHOOCEO@V3_ADDR_VALIDATE_PATH_INTERNAL?$AA@ 0006e298     libeay32:v3err.obj
 0002:000062b8       ??_C@_0BA@DHKCKDL@V2I_SUBJECT_ALT?$AA@ 0006e2b8     libeay32:v3err.obj
 0002:000062c8       ??_C@_0BE@KOLIPFC@V2I_POLICY_MAPPINGS?$AA@ 0006e2c8     libeay32:v3err.obj
 0002:000062dc       ??_C@_0BH@GFHHCJKN@V2I_POLICY_CONSTRAINTS?$AA@ 0006e2dc     libeay32:v3err.obj
 0002:000062f4       ??_C@_0BF@MLIEBPGH@V2I_NAME_CONSTRAINTS?$AA@ 0006e2f4     libeay32:v3err.obj
 0002:0000630c       ??_C@_0P@HKPGPAFL@V2I_ISSUER_ALT?$AA@ 0006e30c     libeay32:v3err.obj
 0002:0000631c       ??_C@_0BB@GHEBMKIK@V2I_IPADDRBLOCKS?$AA@ 0006e31c     libeay32:v3err.obj
 0002:00006330       ??_C@_07IPEIACON@V2I_IDP?$AA@ 0006e330     libeay32:v3err.obj
 0002:00006338       ??_C@_0BE@EAFOFDEM@v2i_GENERAL_NAME_ex?$AA@ 0006e338     libeay32:v3err.obj
 0002:0000634c       ??_C@_0BC@HHFBPNHH@v2i_GENERAL_NAMES?$AA@ 0006e34c     libeay32:v3err.obj
 0002:00006360       ??_C@_0BH@IDIMOMGB@V2I_EXTENDED_KEY_USAGE?$AA@ 0006e360     libeay32:v3err.obj
 0002:00006378       ??_C@_08GANPBGDA@V2I_CRLD?$AA@ 0006e378     libeay32:v3err.obj
 0002:00006384       ??_C@_0BG@DJKMFBMP@V2I_BASIC_CONSTRAINTS?$AA@ 0006e384     libeay32:v3err.obj
 0002:0000639c       ??_C@_0BE@NCGIHFAP@V2I_AUTHORITY_KEYID?$AA@ 0006e39c     libeay32:v3err.obj
 0002:000063b0       ??_C@_0BK@NMMKGGHG@V2I_AUTHORITY_INFO_ACCESS?$AA@ 0006e3b0     libeay32:v3err.obj
 0002:000063cc       ??_C@_0BE@MDNGHKJM@v2i_ASN1_BIT_STRING?$AA@ 0006e3cc     libeay32:v3err.obj
 0002:000063e0       ??_C@_0BC@NFHLLIFI@V2I_ASIDENTIFIERS?$AA@ 0006e3e0     libeay32:v3err.obj
 0002:000063f4       ??_C@_0BD@NOFPGMLA@SXNET_get_id_ulong?$AA@ 0006e3f4     libeay32:v3err.obj
 0002:00006408       ??_C@_0BB@DCAEMBDN@SXNET_get_id_asc?$AA@ 0006e408     libeay32:v3err.obj
 0002:0000641c       ??_C@_0BD@ELOJDLMJ@SXNET_add_id_ulong?$AA@ 0006e41c     libeay32:v3err.obj
 0002:00006430       ??_C@_0BF@KHDBJGPF@SXNET_add_id_INTEGER?$AA@ 0006e430     libeay32:v3err.obj
 0002:00006448       ??_C@_0BB@JJLDCCDB@SXNET_add_id_asc?$AA@ 0006e448     libeay32:v3err.obj
 0002:0000645c       ??_C@_0O@FGGLLMNC@string_to_hex?$AA@ 0006e45c     libeay32:v3err.obj
 0002:0000646c       ??_C@_0BE@DCBADICH@SET_DIST_POINT_NAME?$AA@ 0006e46c     libeay32:v3err.obj
 0002:00006480       ??_C@_0M@PPIOCBAF@S2I_SKEY_ID?$AA@ 0006e480     libeay32:v3err.obj
 0002:0000648c       ??_C@_0BB@JOCKIPFF@S2I_ASN1_SKEY_ID?$AA@ 0006e48c     libeay32:v3err.obj
 0002:000064a0       ??_C@_0BG@BLPNOPMK@s2i_ASN1_OCTET_STRING?$AA@ 0006e4a0     libeay32:v3err.obj
 0002:000064b8       ??_C@_0BB@GKLKBJAL@s2i_ASN1_INTEGER?$AA@ 0006e4b8     libeay32:v3err.obj
 0002:000064cc       ??_C@_0BD@FNOIALGO@S2I_ASN1_IA5STRING?$AA@ 0006e4cc     libeay32:v3err.obj
 0002:000064e0       ??_C@_07LIFMKLJP@R2I_PCI?$AA@ 0006e4e0     libeay32:v3err.obj
 0002:000064e8       ??_C@_0M@DKNLDHGC@R2I_CERTPOL?$AA@ 0006e4e8     libeay32:v3err.obj
 0002:000064f4       ??_C@_0BC@MLBEAOC@PROCESS_PCI_VALUE?$AA@ 0006e4f4     libeay32:v3err.obj
 0002:00006508       ??_C@_0P@OGMAKCCE@POLICY_SECTION?$AA@ 0006e508     libeay32:v3err.obj
 0002:00006518       ??_C@_08PMEPMHKO@NREF_NOS?$AA@ 0006e518     libeay32:v3err.obj
 0002:00006524       ??_C@_0P@JMEHDBMP@NOTICE_SECTION?$AA@ 0006e524     libeay32:v3err.obj
 0002:00006534       ??_C@_0BK@GHAMBPGA@I2V_AUTHORITY_INFO_ACCESS?$AA@ 0006e534     libeay32:v3err.obj
 0002:00006550       ??_C@_0BB@GMKKLNHG@i2s_ASN1_INTEGER?$AA@ 0006e550     libeay32:v3err.obj
 0002:00006564       ??_C@_0BD@BGMCGNDE@I2S_ASN1_IA5STRING?$AA@ 0006e564     libeay32:v3err.obj
 0002:00006578       ??_C@_0BE@PBLHIADL@i2s_ASN1_ENUMERATED?$AA@ 0006e578     libeay32:v3err.obj
 0002:0000658c       ??_C@_0O@FLJILPHC@hex_to_string?$AA@ 0006e58c     libeay32:v3err.obj
 0002:0000659c       ??_C@_0BF@HALJGMFL@GNAMES_FROM_SECTNAME?$AA@ 0006e59c     libeay32:v3err.obj
 0002:000065b4       ??_C@_0BI@PNFOPHFO@DO_I2V_NAME_CONSTRAINTS?$AA@ 0006e5b4     libeay32:v3err.obj
 0002:000065cc       ??_C@_0N@KELHEBGM@DO_EXT_NCONF?$AA@ 0006e5cc     libeay32:v3err.obj
 0002:000065dc       ??_C@_0L@DJEOCDBO@DO_EXT_I2D?$AA@ 0006e5dc     libeay32:v3err.obj
 0002:000065e8       ??_C@_0M@ICGHHOPF@DO_EXT_CONF?$AA@ 0006e5e8     libeay32:v3err.obj
 0002:000065f4       ??_C@_0L@DMJGNPBG@DO_DIRNAME?$AA@ 0006e5f4     libeay32:v3err.obj
 0002:00006600       ??_C@_0M@ELLBFBDD@COPY_ISSUER?$AA@ 0006e600     libeay32:v3err.obj
 0002:0000660c       ??_C@_0L@KGBMNDCM@COPY_EMAIL?$AA@ 0006e60c     libeay32:v3err.obj
 0002:00006618       ??_C@_0CA@PCJPNFHG@ASIDENTIFIERCHOICE_IS_CANONICAL?$AA@ 0006e618     libeay32:v3err.obj
 0002:00006638       ??_C@_0BM@FNMHINEI@ASIDENTIFIERCHOICE_CANONIZE?$AA@ 0006e638     libeay32:v3err.obj
 0002:00006654       ??_C@_0BB@DFAKAIBN@A2I_GENERAL_NAME?$AA@ 0006e654     libeay32:v3err.obj
 0002:00006668       ??_C@_0BB@LMNDDHAO@wrong?5pkcs7?5type?$AA@ 0006e668     libeay32:pkcs7err.obj
 0002:0000667c       ??_C@_0BI@BDKIDJNG@unsupported?5cipher?5type?$AA@ 0006e67c     libeay32:pkcs7err.obj
 0002:00006694       ??_C@_0BC@BDMDPLFD@unknown?5operation?$AA@ 0006e694     libeay32:pkcs7err.obj
 0002:000066a8       ??_C@_0BE@FDMIMEPA@unknown?5digest?5type?$AA@ 0006e6a8     libeay32:pkcs7err.obj
 0002:000066bc       ??_C@_0BO@BPGCPEON@unable?5to?5find?5message?5digest?$AA@ 0006e6bc     libeay32:pkcs7err.obj
 0002:000066dc       ??_C@_0BH@GGBACGPO@unable?5to?5find?5mem?5bio?$AA@ 0006e6dc     libeay32:pkcs7err.obj
 0002:000066f4       ??_C@_0BL@MPEBNJMM@unable?5to?5find?5certificate?$AA@ 0006e6f4     libeay32:pkcs7err.obj
 0002:00006710       ??_C@_0BG@HLPLMCAK@sig?5invalid?5mime?5type?$AA@ 0006e710     libeay32:pkcs7err.obj
 0002:00006728       ??_C@_0CI@MODCEPNI@signing?5not?5supported?5for?5this?5k@ 0006e728     libeay32:pkcs7err.obj
 0002:00006750       ??_C@_0BF@NKHMFGHO@signing?5ctrl?5failure?$AA@ 0006e750     libeay32:pkcs7err.obj
 0002:00006768       ??_C@_0BG@GDEPAMKB@pkcs7?5sig?5parse?5error?$AA@ 0006e768     libeay32:pkcs7err.obj
 0002:00006780       ??_C@_0BC@HAIFOMAN@pkcs7?5parse?5error?$AA@ 0006e780     libeay32:pkcs7err.obj
 0002:00006794       ??_C@_0P@MLIPMLPL@pkcs7?5datasign?$AA@ 0006e794     libeay32:pkcs7err.obj
 0002:000067a4       ??_C@_0BG@DENNOOLH@pkcs7?5datafinal?5error?$AA@ 0006e7a4     libeay32:pkcs7err.obj
 0002:000067bc       ??_C@_0BA@MGKDBLGL@pkcs7?5datafinal?$AA@ 0006e7bc     libeay32:pkcs7err.obj
 0002:000067cc       ??_C@_0BH@HILILNFK@pkcs7?5add?5signer?5error?$AA@ 0006e7cc     libeay32:pkcs7err.obj
 0002:000067e4       ??_C@_0CF@KFDJAIAE@operation?5not?5supported?5on?5this?5@ 0006e7e4     libeay32:pkcs7err.obj
 0002:0000680c       ??_C@_0BE@PKDDELLH@no?5sig?5content?5type?$AA@ 0006e80c     libeay32:pkcs7err.obj
 0002:00006820       ??_C@_0BG@KJOJDMCP@no?5signatures?5on?5data?$AA@ 0006e820     libeay32:pkcs7err.obj
 0002:00006838       ??_C@_0BJ@HNAOANNO@no?5recipient?5matches?5key?$AA@ 0006e838     libeay32:pkcs7err.obj
 0002:00006854       ??_C@_0CB@EOIABHI@no?5recipient?5matches?5certificate@ 0006e854     libeay32:pkcs7err.obj
 0002:00006878       ??_C@_0BG@CCLGBNL@no?5multipart?5boundary?$AA@ 0006e878     libeay32:pkcs7err.obj
 0002:00006890       ??_C@_0BK@BJLDLELE@no?5multipart?5body?5failure?$AA@ 0006e890     libeay32:pkcs7err.obj
 0002:000068ac       ??_C@_0BO@BPCBFOBN@no?5matching?5digest?5type?5found?$AA@ 0006e8ac     libeay32:pkcs7err.obj
 0002:000068cc       ??_C@_0BG@FIKOHGJL@missing?5ceripend?5info?$AA@ 0006e8cc     libeay32:pkcs7err.obj
 0002:000068e4       ??_C@_0BF@NGKJEMBA@mime?5sig?5parse?5error?$AA@ 0006e8e4     libeay32:pkcs7err.obj
 0002:000068fc       ??_C@_0BB@CLOKMDJL@mime?5parse?5error?$AA@ 0006e8fc     libeay32:pkcs7err.obj
 0002:00006910       ??_C@_0BF@JPGANBNB@mime?5no?5content?5type?$AA@ 0006e910     libeay32:pkcs7err.obj
 0002:00006928       ??_C@_0BC@FHFCCIPJ@invalid?5mime?5type?$AA@ 0006e928     libeay32:pkcs7err.obj
 0002:0000693c       ??_C@_0BF@EJOJNMMB@error?5setting?5cipher?$AA@ 0006e93c     libeay32:pkcs7err.obj
 0002:00006954       ??_C@_0BH@PJNOPIMM@error?5adding?5recipient?$AA@ 0006e954     libeay32:pkcs7err.obj
 0002:0000696c       ??_C@_0CL@KPOELFBN@encryption?5not?5supported?5for?5thi@ 0006e96c     libeay32:pkcs7err.obj
 0002:00006998       ??_C@_0BI@FLDJBJEB@encryption?5ctrl?5failure?$AA@ 0006e998     libeay32:pkcs7err.obj
 0002:000069b0       ??_C@_0P@EAGFKBJN@digest?5failure?$AA@ 0006e9b0     libeay32:pkcs7err.obj
 0002:000069c0       ??_C@_0BO@LNIEDLGB@decrypted?5key?5is?5wrong?5length?$AA@ 0006e9c0     libeay32:pkcs7err.obj
 0002:000069e0       ??_C@_0BJ@JDGHLKE@content?5and?5data?5present?$AA@ 0006e9e0     libeay32:pkcs7err.obj
 0002:000069fc       ??_C@_0BH@HHGJPEG@cipher?5not?5initialized?$AA@ 0006e9fc     libeay32:pkcs7err.obj
 0002:00006a14       ??_C@_0CA@BHNCFDBP@cipher?5has?5no?5object?5identifier?$AA@ 0006ea14     libeay32:pkcs7err.obj
 0002:00006a34       ??_C@_0L@CEDJDPJO@SMIME_text?$AA@ 0006ea34     libeay32:pkcs7err.obj
 0002:00006a40       ??_C@_0BB@KDHLDBMO@SMIME_read_PKCS7?$AA@ 0006ea40     libeay32:pkcs7err.obj
 0002:00006a54       ??_C@_0N@MDDFJGNF@PKCS7_verify?$AA@ 0006ea54     libeay32:pkcs7err.obj
 0002:00006a64       ??_C@_0BG@NGGLELOE@PKCS7_simple_smimecap?$AA@ 0006ea64     libeay32:pkcs7err.obj
 0002:00006a7c       ??_C@_0BG@ODCDGOGB@PKCS7_sign_add_signer?$AA@ 0006ea7c     libeay32:pkcs7err.obj
 0002:00006a94       ??_C@_0BH@BLILFECF@PKCS7_SIGNER_INFO_sign?$AA@ 0006ea94     libeay32:pkcs7err.obj
 0002:00006aac       ??_C@_0BG@EIAOKKPM@PKCS7_SIGNER_INFO_set?$AA@ 0006eaac     libeay32:pkcs7err.obj
 0002:00006ac4       ??_C@_0BG@PMADOMPD@PKCS7_signatureVerify?$AA@ 0006eac4     libeay32:pkcs7err.obj
 0002:00006adc       ??_C@_0L@GIIMDMGD@PKCS7_sign?$AA@ 0006eadc     libeay32:pkcs7err.obj
 0002:00006ae8       ??_C@_0P@EIBMGDIL@PKCS7_set_type?$AA@ 0006eae8     libeay32:pkcs7err.obj
 0002:00006af8       ??_C@_0BB@KHOAIGEC@PKCS7_set_digest?$AA@ 0006eaf8     libeay32:pkcs7err.obj
 0002:00006b0c       ??_C@_0BC@KEHPIBPE@PKCS7_set_content?$AA@ 0006eb0c     libeay32:pkcs7err.obj
 0002:00006b20       ??_C@_0BB@MBMFDMH@PKCS7_set_cipher?$AA@ 0006eb20     libeay32:pkcs7err.obj
 0002:00006b34       ??_C@_0BF@OGANHOPM@PKCS7_RECIP_INFO_set?$AA@ 0006eb34     libeay32:pkcs7err.obj
 0002:00006b4c       ??_C@_0BD@ONJMGDLL@PKCS7_get0_signers?$AA@ 0006eb4c     libeay32:pkcs7err.obj
 0002:00006b60       ??_C@_0BC@PMCDCHO@PKCS7_FIND_DIGEST?$AA@ 0006eb60     libeay32:pkcs7err.obj
 0002:00006b74       ??_C@_0M@DINEADOK@PKCS7_final?$AA@ 0006eb74     libeay32:pkcs7err.obj
 0002:00006b80       ??_C@_0O@JFALMGOG@PKCS7_encrypt?$AA@ 0006eb80     libeay32:pkcs7err.obj
 0002:00006b90       ??_C@_0BD@PHHOANMB@PKCS7_ENCODE_RINFO?$AA@ 0006eb90     libeay32:pkcs7err.obj
 0002:00006ba4       ??_C@_0BE@JNDPEFCA@PKCS7_DECRYPT_RINFO?$AA@ 0006eba4     libeay32:pkcs7err.obj
 0002:00006bb8       ??_C@_0O@FLKGJCIC@PKCS7_decrypt?$AA@ 0006ebb8     libeay32:pkcs7err.obj
 0002:00006bc8       ??_C@_0BB@LMCKHKKD@PKCS7_dataVerify?$AA@ 0006ebc8     libeay32:pkcs7err.obj
 0002:00006bdc       ??_C@_0P@FNIPPNIC@PKCS7_DATASIGN?$AA@ 0006ebdc     libeay32:pkcs7err.obj
 0002:00006bec       ??_C@_0P@OONGIMOK@PKCS7_dataInit?$AA@ 0006ebec     libeay32:pkcs7err.obj
 0002:00006bfc       ??_C@_0BA@ENDFMOKG@PKCS7_dataFinal?$AA@ 0006ebfc     libeay32:pkcs7err.obj
 0002:00006c0c       ??_C@_0BB@NBHDJPJJ@PKCS7_dataDecode?$AA@ 0006ec0c     libeay32:pkcs7err.obj
 0002:00006c20       ??_C@_0L@ICMECHLK@PKCS7_ctrl?$AA@ 0006ec20     libeay32:pkcs7err.obj
 0002:00006c2c       ??_C@_0BL@EDLJNLML@PKCS7_COPY_EXISTING_DIGEST?$AA@ 0006ec2c     libeay32:pkcs7err.obj
 0002:00006c48       ??_C@_0BF@HBBJACAF@PKCS7_BIO_ADD_DIGEST?$AA@ 0006ec48     libeay32:pkcs7err.obj
 0002:00006c60       ??_C@_0BB@CJPBIPAC@PKCS7_add_signer?$AA@ 0006ec60     libeay32:pkcs7err.obj
 0002:00006c74       ??_C@_0BE@HCOKFGIN@PKCS7_add_signature?$AA@ 0006ec74     libeay32:pkcs7err.obj
 0002:00006c88       ??_C@_0BJ@NOCKKMGL@PKCS7_add_recipient_info?$AA@ 0006ec88     libeay32:pkcs7err.obj
 0002:00006ca4       ??_C@_0O@CPFOLHJD@PKCS7_add_crl?$AA@ 0006eca4     libeay32:pkcs7err.obj
 0002:00006cb4       ??_C@_0BG@DMGOLPOM@PKCS7_add_certificate?$AA@ 0006ecb4     libeay32:pkcs7err.obj
 0002:00006ccc       ??_C@_0BK@HOMOFJDN@PKCS7_add_attrib_smimecap?$AA@ 0006eccc     libeay32:pkcs7err.obj
 0002:00006ce8       ??_C@_0BP@OLGBKKPO@PKCS7_add0_attrib_signing_time?$AA@ 0006ece8     libeay32:pkcs7err.obj
 0002:00006d08       ??_C@_0BF@EMAJJAAB@i2d_PKCS7_bio_stream?$AA@ 0006ed08     libeay32:pkcs7err.obj
 0002:00006d20       ??_C@_0BH@HCBGADHN@DO_PKCS7_SIGNED_ATTRIB?$AA@ 0006ed20     libeay32:pkcs7err.obj
 0002:00006d38       ??_C@_0BA@NHGCDPL@B64_WRITE_PKCS7?$AA@ 0006ed38     libeay32:pkcs7err.obj
 0002:00006d48       ??_C@_0P@CNHJDHJP@B64_READ_PKCS7?$AA@ 0006ed48     libeay32:pkcs7err.obj
 0002:00006d58       ??_C@_0L@EEFLCHHA@WSAStartup?$AA@ 0006ed58     libeay32:bio_err.obj
 0002:00006d64       ??_C@_0BH@JKPNCGEG@write?5to?5read?5only?5BIO?$AA@ 0006ed64     libeay32:bio_err.obj
 0002:00006d7c       ??_C@_0BD@IBMLBGPO@unsupported?5method?$AA@ 0006ed7c     libeay32:bio_err.obj
 0002:00006d90       ??_C@_0O@MBAHBKHG@uninitialized?$AA@ 0006ed90     libeay32:bio_err.obj
 0002:00006da0       ??_C@_0BI@IMDEIGOC@unable?5to?5listen?5socket?$AA@ 0006eda0     libeay32:bio_err.obj
 0002:00006db8       ??_C@_0BI@PPNDHPPD@unable?5to?5create?5socket?$AA@ 0006edb8     libeay32:bio_err.obj
 0002:00006dd0       ??_C@_0BG@FHGKKMFN@unable?5to?5bind?5socket?$AA@ 0006edd0     libeay32:bio_err.obj
 0002:00006de8       ??_C@_0N@KDFLPJNC@tag?5mismatch?$AA@ 0006ede8     libeay32:bio_err.obj
 0002:00006df8       ??_C@_0P@PKDFLBFD@null?5parameter?$AA@ 0006edf8     libeay32:bio_err.obj
 0002:00006e08       ??_C@_0N@JHAEJMBC@no?5such?5file?$AA@ 0006ee08     libeay32:bio_err.obj
 0002:00006e18       ??_C@_0BC@JMJFCOFK@no?5port?5specified?$AA@ 0006ee18     libeay32:bio_err.obj
 0002:00006e2c       ??_C@_0BA@LJKOOBIO@no?5port?5defined?$AA@ 0006ee2c     libeay32:bio_err.obj
 0002:00006e3c       ??_C@_0BG@JKBKGOCO@no?5hostname?5specified?$AA@ 0006ee3c     libeay32:bio_err.obj
 0002:00006e54       ??_C@_0BJ@GKFIJAJL@no?5accept?5port?5specified?$AA@ 0006ee54     libeay32:bio_err.obj
 0002:00006e70       ??_C@_0BD@POMCLPDD@nbio?5connect?5error?$AA@ 0006ee70     libeay32:bio_err.obj
 0002:00006e84       ??_C@_09MGFHKHCL@keepalive?$AA@ 0006ee84     libeay32:bio_err.obj
 0002:00006e90       ??_C@_06JNFOHBNM@in?5use?$AA@ 0006ee90     libeay32:bio_err.obj
 0002:00006e98       ??_C@_0BD@LLPPBLCA@invalid?5ip?5address?$AA@ 0006ee98     libeay32:bio_err.obj
 0002:00006eac       ??_C@_0CC@PGBNHLMO@gethostbyname?5addr?5is?5not?5af?5ine@ 0006eeac     libeay32:bio_err.obj
 0002:00006ed0       ??_C@_0CE@GODMPCOM@error?5setting?5nbio?5on?5accept?5soc@ 0006eed0     libeay32:bio_err.obj
 0002:00006ef4       ??_C@_0CG@JPMNKLHJ@error?5setting?5nbio?5on?5accepted?5s@ 0006eef4     libeay32:bio_err.obj
 0002:00006f1c       ??_C@_0BD@LABEPFLI@error?5setting?5nbio?$AA@ 0006ef1c     libeay32:bio_err.obj
 0002:00006f30       ??_C@_0BC@DJNFOHIO@EOF?5on?5memory?5BIO?$AA@ 0006ef30     libeay32:bio_err.obj
 0002:00006f44       ??_C@_0O@MFKCCHBC@connect?5error?$AA@ 0006ef44     libeay32:bio_err.obj
 0002:00006f54       ??_C@_0M@KPHOFDBE@broken?5pipe?$AA@ 0006ef54     libeay32:bio_err.obj
 0002:00006f60       ??_C@_0BE@HPLPMGEP@bad?5hostname?5lookup?$AA@ 0006ef60     libeay32:bio_err.obj
 0002:00006f74       ??_C@_0P@HMIOPJLA@bad?5fopen?5mode?$AA@ 0006ef74     libeay32:bio_err.obj
 0002:00006f84       ??_C@_0N@NBEBIMEI@accept?5error?$AA@ 0006ef84     libeay32:bio_err.obj
 0002:00006f94       ??_C@_0L@EAHAPJKC@WSASTARTUP?$AA@ 0006ef94     libeay32:bio_err.obj
 0002:00006fa0       ??_C@_07GEALNDFO@SSL_new?$AA@ 0006efa0     libeay32:bio_err.obj
 0002:00006fa8       ??_C@_09NHMOJNMM@MEM_WRITE?$AA@ 0006efa8     libeay32:bio_err.obj
 0002:00006fb4       ??_C@_08IEAGDEEB@MEM_READ?$AA@ 0006efb4     libeay32:bio_err.obj
 0002:00006fc0       ??_C@_0BA@KHKLOGKO@LINEBUFFER_CTRL?$AA@ 0006efc0     libeay32:bio_err.obj
 0002:00006fd0       ??_C@_09GDGNDLDO@FILE_READ?$AA@ 0006efd0     libeay32:bio_err.obj
 0002:00006fdc       ??_C@_09PBCCNH@FILE_CTRL?$AA@ 0006efdc     libeay32:bio_err.obj
 0002:00006fe8       ??_C@_0BA@OKAMFHCA@DGRAM_SCTP_READ?$AA@ 0006efe8     libeay32:bio_err.obj
 0002:00006ff8       ??_C@_0L@MJCDONOC@CONN_STATE?$AA@ 0006eff8     libeay32:bio_err.obj
 0002:00007004       ??_C@_09NFOAMDJO@CONN_CTRL?$AA@ 0006f004     libeay32:bio_err.obj
 0002:00007010       ??_C@_0M@CPJAKCHN@BUFFER_CTRL?$AA@ 0006f010     libeay32:bio_err.obj
 0002:0000701c       ??_C@_09EJECNFGG@BIO_write?$AA@ 0006f01c     libeay32:bio_err.obj
 0002:00007028       ??_C@_0O@OKBNIDJO@BIO_sock_init?$AA@ 0006f028     libeay32:bio_err.obj
 0002:00007038       ??_C@_08FHLFBNIO@BIO_read?$AA@ 0006f038     libeay32:bio_err.obj
 0002:00007044       ??_C@_08GCACPMHM@BIO_puts?$AA@ 0006f044     libeay32:bio_err.obj
 0002:00007050       ??_C@_0M@HMEMAIDG@BIO_nwrite0?$AA@ 0006f050     libeay32:bio_err.obj
 0002:0000705c       ??_C@_0L@LGDOLBGC@BIO_nwrite?$AA@ 0006f05c     libeay32:bio_err.obj
 0002:00007068       ??_C@_0L@CKGNEJMN@BIO_nread0?$AA@ 0006f068     libeay32:bio_err.obj
 0002:00007074       ??_C@_09CELLGJFH@BIO_nread?$AA@ 0006f074     libeay32:bio_err.obj
 0002:00007080       ??_C@_0BA@KKBPEOM@BIO_new_mem_buf?$AA@ 0006f080     libeay32:bio_err.obj
 0002:00007090       ??_C@_0N@FMJJBHLM@BIO_new_file?$AA@ 0006f090     libeay32:bio_err.obj
 0002:000070a0       ??_C@_07JBCAFDMF@BIO_new?$AA@ 0006f0a0     libeay32:bio_err.obj
 0002:000070a8       ??_C@_0O@MMPGPDFN@BIO_MAKE_PAIR?$AA@ 0006f0a8     libeay32:bio_err.obj
 0002:000070b8       ??_C@_0N@EOHICLOO@BIO_get_port?$AA@ 0006f0b8     libeay32:bio_err.obj
 0002:000070c8       ??_C@_0BA@BEIHJGBF@BIO_get_host_ip?$AA@ 0006f0c8     libeay32:bio_err.obj
 0002:000070d8       ??_C@_0BG@OBCHEGOE@BIO_get_accept_socket?$AA@ 0006f0d8     libeay32:bio_err.obj
 0002:000070f0       ??_C@_08OANLOAHB@BIO_gets?$AA@ 0006f0f0     libeay32:bio_err.obj
 0002:000070fc       ??_C@_0BC@FKJOFNNM@BIO_gethostbyname?$AA@ 0006f0fc     libeay32:bio_err.obj
 0002:00007110       ??_C@_08DECJAEGH@BIO_ctrl?$AA@ 0006f110     libeay32:bio_err.obj
 0002:0000711c       ??_C@_0BC@CFHCBGEE@BIO_callback_ctrl?$AA@ 0006f11c     libeay32:bio_err.obj
 0002:00007130       ??_C@_0BD@IAPMAGLL@BIO_BER_GET_HEADER?$AA@ 0006f130     libeay32:bio_err.obj
 0002:00007144       ??_C@_0L@JLLHALEA@BIO_accept?$AA@ 0006f144     libeay32:bio_err.obj
 0002:00007150       ??_C@_0L@CAKAAKN@ACPT_STATE?$AA@ 0006f150     libeay32:bio_err.obj
 0002:0000715c       ??_C@_0BJ@GIHJPDAI@point?5arithmetic?5failure?$AA@ 0006f15c     libeay32:ech_err.obj
 0002:00007178       ??_C@_0BB@COKBGGEN@no?5private?5value?$AA@ 0006f178     libeay32:ech_err.obj
 0002:0000718c       ??_C@_0BA@MAGMKJLO@non?5fips?5method?$AA@ 0006f18c     libeay32:ech_err.obj
 0002:0000719c       ??_C@_0L@CDCPDAHG@KDF?5failed?$AA@ 0006f19c     libeay32:ech_err.obj
 0002:000071a8       ??_C@_0BF@GOHHALFG@ECDH_DATA_new_method?$AA@ 0006f1a8     libeay32:ech_err.obj
 0002:000071c0       ??_C@_0BB@IOKCFGPF@ECDH_compute_key?$AA@ 0006f1c0     libeay32:ech_err.obj
 0002:000071d4       ??_C@_0L@MGKFDDAC@ECDH_CHECK?$AA@ 0006f1d4     libeay32:ech_err.obj
 0002:000071e0       ??_C@_0BI@IHHJBEMD@signature?5malloc?5failed?$AA@ 0006f1e0     libeay32:ecs_err.obj
 0002:000071f8       ??_C@_0CA@PEINDBLK@random?5number?5generation?5failed?$AA@ 0006f1f8     libeay32:ecs_err.obj
 0002:00007218       ??_C@_0BG@CMMPCEJC@need?5new?5setup?5values?$AA@ 0006f218     libeay32:ecs_err.obj
 0002:00007230       ??_C@_0BD@FMCFODNL@missing?5parameters?$AA@ 0006f230     libeay32:ecs_err.obj
 0002:00007244       ??_C@_0L@JHHGCIEK@err?5ec?5lib?$AA@ 0006f244     libeay32:ecs_err.obj
 0002:00007250       ??_C@_0BM@LDGAMALI@data?5too?5large?5for?5key?5size?$AA@ 0006f250     libeay32:ecs_err.obj
 0002:0000726c       ??_C@_0O@NKHGIDL@bad?5signature?$AA@ 0006f26c     libeay32:ecs_err.obj
 0002:0000727c       ??_C@_0BB@IKKHAHBP@ECDSA_sign_setup?$AA@ 0006f27c     libeay32:ecs_err.obj
 0002:00007290       ??_C@_0BA@EHPKHBIM@ECDSA_do_verify?$AA@ 0006f290     libeay32:ecs_err.obj
 0002:000072a0       ??_C@_0O@HPIOKGCH@ECDSA_do_sign?$AA@ 0006f2a0     libeay32:ecs_err.obj
 0002:000072b0       ??_C@_0BG@PPIAHALF@ECDSA_DATA_NEW_METHOD?$AA@ 0006f2b0     libeay32:ecs_err.obj
 0002:000072c8       ??_C@_0M@KDLAGBMI@ECDSA_CHECK?$AA@ 0006f2c8     libeay32:ecs_err.obj
 0002:000072d4       ??_C@_0M@EOIJFDOH@wrong?5order?$AA@ 0006f2d4     libeay32:ec_err.obj
 0002:000072e0       ??_C@_0BH@IMKFEGMC@wrong?5curve?5parameters?$AA@ 0006f2e0     libeay32:ec_err.obj
 0002:000072f8       ??_C@_0BC@JMLAMKLK@unsupported?5field?$AA@ 0006f2f8     libeay32:ec_err.obj
 0002:0000730c       ??_C@_0O@MMOMPOPJ@unknown?5order?$AA@ 0006f30c     libeay32:ec_err.obj
 0002:0000731c       ??_C@_0O@NJKODKGH@unknown?5group?$AA@ 0006f31c     libeay32:ec_err.obj
 0002:0000732c       ??_C@_0BA@KMEKJECH@undefined?5order?$AA@ 0006f32c     libeay32:ec_err.obj
 0002:0000733c       ??_C@_0BE@EGDCECDM@undefined?5generator?$AA@ 0006f33c     libeay32:ec_err.obj
 0002:00007350       ??_C@_09GPAKFMBH@slot?5full?$AA@ 0006f350     libeay32:ec_err.obj
 0002:0000735c       ??_C@_0BG@HJHIMKPE@point?5is?5not?5on?5curve?$AA@ 0006f35c     libeay32:ec_err.obj
 0002:00007374       ??_C@_0BC@GCGFLKCO@point?5at?5infinity?$AA@ 0006f374     libeay32:ec_err.obj
 0002:00007388       ??_C@_0BL@ELPENPAK@pkparameters2group?5failure?$AA@ 0006f388     libeay32:ec_err.obj
 0002:000073a4       ??_C@_0BG@DNAKIAMA@passed?5null?5parameter?$AA@ 0006f3a4     libeay32:ec_err.obj
 0002:000073bc       ??_C@_0BC@GIAEKLLJ@no?5parameters?5set?$AA@ 0006f3bc     libeay32:ec_err.obj
 0002:000073d0       ??_C@_0N@PJBCLHJD@no?5field?5mod?$AA@ 0006f3d0     libeay32:ec_err.obj
 0002:000073e0       ??_C@_0BA@CJBGKJNL@not?5initialized?$AA@ 0006f3e0     libeay32:ec_err.obj
 0002:000073f0       ??_C@_0BA@JJKIAAEB@not?5implemented?$AA@ 0006f3f0     libeay32:ec_err.obj
 0002:00007400       ??_C@_0BL@JNPAJGEA@not?5a?5supported?5NIST?5prime?$AA@ 0006f400     libeay32:ec_err.obj
 0002:0000741c       ??_C@_0BB@BMGODCLF@not?5a?5NIST?5prime?$AA@ 0006f41c     libeay32:ec_err.obj
 0002:00007430       ??_C@_0BE@DEHOFIII@missing?5private?5key?$AA@ 0006f430     libeay32:ec_err.obj
 0002:00007444       ??_C@_0N@CGIIEDML@keys?5not?5set?$AA@ 0006f444     libeay32:ec_err.obj
 0002:00007454       ??_C@_0BI@JECPOIKH@invalid?5trinomial?5basis?$AA@ 0006f454     libeay32:ec_err.obj
 0002:0000746c       ??_C@_0BE@IKADKHBA@invalid?5private?5key?$AA@ 0006f46c     libeay32:ec_err.obj
 0002:00007480       ??_C@_0BK@FNMGACKE@invalid?5pentanomial?5basis?$AA@ 0006f480     libeay32:ec_err.obj
 0002:0000749c       ??_C@_0BE@PJEEGFKA@invalid?5group?5order?$AA@ 0006f49c     libeay32:ec_err.obj
 0002:000074b0       ??_C@_0N@GPILEJKP@invalid?5form?$AA@ 0006f4b0     libeay32:ec_err.obj
 0002:000074c0       ??_C@_0O@ENLGLCC@invalid?5field?$AA@ 0006f4c0     libeay32:ec_err.obj
 0002:000074d0       ??_C@_0BB@FEBGPKDB@invalid?5encoding?$AA@ 0006f4d0     libeay32:ec_err.obj
 0002:000074e4       ??_C@_0BE@CJFMBLEL@invalid?5digest?5type?$AA@ 0006f4e4     libeay32:ec_err.obj
 0002:000074f8       ??_C@_0O@DEGCPIND@invalid?5curve?$AA@ 0006f4f8     libeay32:ec_err.obj
 0002:00007508       ??_C@_0BI@LFAIIMLE@invalid?5compression?5bit?$AA@ 0006f508     libeay32:ec_err.obj
 0002:00007520       ??_C@_0BJ@MNCPMIGN@invalid?5compressed?5point?$AA@ 0006f520     libeay32:ec_err.obj
 0002:0000753c       ??_C@_0BF@PILBEPF@incompatible?5objects?$AA@ 0006f53c     libeay32:ec_err.obj
 0002:00007554       ??_C@_0BL@PCNBEHHO@i2d?5ecpkparameters?5failure?$AA@ 0006f554     libeay32:ec_err.obj
 0002:00007570       ??_C@_0BL@OGODAEJ@group2pkparameters?5failure?$AA@ 0006f570     libeay32:ec_err.obj
 0002:0000758c       ??_C@_0BD@EBPFBOJF@gf2m?5not?5supported?$AA@ 0006f58c     libeay32:ec_err.obj
 0002:000075a0       ??_C@_0BA@IJGJADJE@field?5too?5large?$AA@ 0006f5a0     libeay32:ec_err.obj
 0002:000075b0       ??_C@_0BN@FLBCEDHC@ec?5group?5new?5by?5name?5failure?$AA@ 0006f5b0     libeay32:ec_err.obj
 0002:000075d0       ??_C@_0BF@CBFOEPCG@discriminant?5is?5zero?$AA@ 0006f5d0     libeay32:ec_err.obj
 0002:000075e8       ??_C@_0BL@ENKDKILC@d2i?5ecpkparameters?5failure?$AA@ 0006f5e8     libeay32:ec_err.obj
 0002:00007604       ??_C@_0BJ@NKAFKGBO@coordinates?5out?5of?5range?$AA@ 0006f604     libeay32:ec_err.obj
 0002:00007620       ??_C@_0BB@CABJKBPN@buffer?5too?5small?$AA@ 0006f620     libeay32:ec_err.obj
 0002:00007634       ??_C@_0BE@OABMJMCN@bignum?5out?5of?5range?$AA@ 0006f634     libeay32:ec_err.obj
 0002:00007648       ??_C@_0BD@CGGBEGAN@asn1?5unknown?5field?$AA@ 0006f648     libeay32:ec_err.obj
 0002:0000765c       ??_C@_0L@EOLINLAB@asn1?5error?$AA@ 0006f65c     libeay32:ec_err.obj
 0002:00007668       ??_C@_0N@JMMDEJFH@PKEY_EC_SIGN?$AA@ 0006f668     libeay32:ec_err.obj
 0002:00007678       ??_C@_0BB@KACMCNKG@PKEY_EC_PARAMGEN?$AA@ 0006f678     libeay32:ec_err.obj
 0002:0000768c       ??_C@_0P@GDHKPHHP@PKEY_EC_KEYGEN?$AA@ 0006f68c     libeay32:ec_err.obj
 0002:0000769c       ??_C@_0P@PPKJAFFG@PKEY_EC_DERIVE?$AA@ 0006f69c     libeay32:ec_err.obj
 0002:000076ac       ??_C@_0BB@IDGMOPLD@PKEY_EC_CTRL_STR?$AA@ 0006f6ac     libeay32:ec_err.obj
 0002:000076c0       ??_C@_0N@HGILFCIO@PKEY_EC_CTRL?$AA@ 0006f6c0     libeay32:ec_err.obj
 0002:000076d0       ??_C@_0BD@DFJHKIOP@OLD_EC_PRIV_DECODE?$AA@ 0006f6d0     libeay32:ec_err.obj
 0002:000076e4       ??_C@_0BA@PLLAKFLG@o2i_ECPublicKey?$AA@ 0006f6e4     libeay32:ec_err.obj
 0002:000076f4       ??_C@_0BG@LEEGNPDC@NISTP521_PRE_COMP_NEW?$AA@ 0006f6f4     libeay32:ec_err.obj
 0002:0000770c       ??_C@_0BG@PCCMFEBG@NISTP256_PRE_COMP_NEW?$AA@ 0006f70c     libeay32:ec_err.obj
 0002:00007724       ??_C@_0BG@KHFDBNPC@NISTP224_PRE_COMP_NEW?$AA@ 0006f724     libeay32:ec_err.obj
 0002:0000773c       ??_C@_0BA@FAODIHOE@i2o_ECPublicKey?$AA@ 0006f73c     libeay32:ec_err.obj
 0002:0000774c       ??_C@_0BB@MNAGGNI@i2d_ECPrivateKey?$AA@ 0006f74c     libeay32:ec_err.obj
 0002:00007760       ??_C@_0BD@EJJCMPPD@i2d_ECPKParameters?$AA@ 0006f760     libeay32:ec_err.obj
 0002:00007774       ??_C@_0BB@GJGDDIKH@i2d_ECParameters?$AA@ 0006f774     libeay32:ec_err.obj
 0002:00007788       ??_C@_0BI@BBMLGAEE@ec_wNAF_precompute_mult?$AA@ 0006f788     libeay32:ec_err.obj
 0002:000077a0       ??_C@_0M@MOCHBPNP@ec_wNAF_mul?$AA@ 0006f7a0     libeay32:ec_err.obj
 0002:000077ac       ??_C@_0BA@KHGDGKMC@EC_PRE_COMP_NEW?$AA@ 0006f7ac     libeay32:ec_err.obj
 0002:000077bc       ??_C@_0BA@JLLJLPBB@EC_PRE_COMP_DUP?$AA@ 0006f7bc     libeay32:ec_err.obj
 0002:000077cc       ??_C@_0BJ@OKHKHJLG@EC_POINT_set_to_infinity?$AA@ 0006f7cc     libeay32:ec_err.obj
 0002:000077e8       ??_C@_0CJ@OEEMAMPO@EC_POINT_set_Jprojective_coordin@ 0006f7e8     libeay32:ec_err.obj
 0002:00007814       ??_C@_0CI@KEKPCLNN@EC_POINT_set_compressed_coordina@ 0006f814     libeay32:ec_err.obj
 0002:0000783c       ??_C@_0CJ@FLILENAG@EC_POINT_set_compressed_coordina@ 0006f83c     libeay32:ec_err.obj
 0002:00007868       ??_C@_0CE@BGAPNKLA@EC_POINT_set_affine_coordinates_@ 0006f868     libeay32:ec_err.obj
 0002:0000788c       ??_C@_0CF@GIDKPABC@EC_POINT_set_affine_coordinates_@ 0006f88c     libeay32:ec_err.obj
 0002:000078b4       ??_C@_0BD@OIBFFFMJ@EC_POINT_point2oct?$AA@ 0006f8b4     libeay32:ec_err.obj
 0002:000078c8       ??_C@_0BD@KNOOFOGC@EC_POINT_oct2point?$AA@ 0006f8c8     libeay32:ec_err.obj
 0002:000078dc       ??_C@_0N@LOIMDOGK@EC_POINT_new?$AA@ 0006f8dc     libeay32:ec_err.obj
 0002:000078ec       ??_C@_0N@BJCJPJGO@EC_POINT_mul?$AA@ 0006f8ec     libeay32:ec_err.obj
 0002:000078fc       ??_C@_0BF@OGCGANIF@EC_POINT_make_affine?$AA@ 0006f8fc     libeay32:ec_err.obj
 0002:00007914       ??_C@_0BF@LEBHDAHH@EC_POINT_is_on_curve?$AA@ 0006f914     libeay32:ec_err.obj
 0002:0000792c       ??_C@_0BI@OBFGKGNP@EC_POINT_is_at_infinity?$AA@ 0006f92c     libeay32:ec_err.obj
 0002:00007944       ??_C@_0BA@GCFFHKDO@EC_POINT_invert?$AA@ 0006f944     libeay32:ec_err.obj
 0002:00007954       ??_C@_0CJ@IIJPHIDN@EC_POINT_get_Jprojective_coordin@ 0006f954     libeay32:ec_err.obj
 0002:00007980       ??_C@_0CE@CJDKBKKA@EC_POINT_get_affine_coordinates_@ 0006f980     libeay32:ec_err.obj
 0002:000079a4       ??_C@_0CF@HFLCNFLG@EC_POINT_get_affine_coordinates_@ 0006f9a4     libeay32:ec_err.obj
 0002:000079cc       ??_C@_0N@HNEIADBB@EC_POINT_dbl?$AA@ 0006f9cc     libeay32:ec_err.obj
 0002:000079dc       ??_C@_0O@MBEGPEJH@EC_POINT_copy?$AA@ 0006f9dc     libeay32:ec_err.obj
 0002:000079ec       ??_C@_0N@NLECBMI@EC_POINT_cmp?$AA@ 0006f9ec     libeay32:ec_err.obj
 0002:000079fc       ??_C@_0N@IGMCAFJJ@EC_POINT_add?$AA@ 0006f9fc     libeay32:ec_err.obj
 0002:00007a0c       ??_C@_0BG@BELCPGD@EC_POINTs_make_affine?$AA@ 0006fa0c     libeay32:ec_err.obj
 0002:00007a24       ??_C@_0CJ@PKPNGFF@EC_KEY_set_public_key_affine_coo@ 0006fa24     libeay32:ec_err.obj
 0002:00007a50       ??_C@_0BA@JKENIEBO@EC_KEY_print_fp?$AA@ 0006fa50     libeay32:ec_err.obj
 0002:00007a60       ??_C@_0N@FGDNEALE@EC_KEY_print?$AA@ 0006fa60     libeay32:ec_err.obj
 0002:00007a70       ??_C@_0L@ONJMCKDA@EC_KEY_new?$AA@ 0006fa70     libeay32:ec_err.obj
 0002:00007a7c       ??_C@_0BE@MFFKFHAB@EC_KEY_generate_key?$AA@ 0006fa7c     libeay32:ec_err.obj
 0002:00007a90       ??_C@_0M@EKKLFMGJ@EC_KEY_copy?$AA@ 0006fa90     libeay32:ec_err.obj
 0002:00007a9c       ??_C@_0BB@NNGADNNL@EC_KEY_check_key?$AA@ 0006fa9c     libeay32:ec_err.obj
 0002:00007ab0       ??_C@_0BH@CFECBPOO@EC_GROUP_set_generator?$AA@ 0006fab0     libeay32:ec_err.obj
 0002:00007ac8       ??_C@_0BI@FFDHFCOK@EC_GROUP_SET_EXTRA_DATA?$AA@ 0006fac8     libeay32:ec_err.obj
 0002:00007ae0       ??_C@_0BH@BKLNCDLE@EC_GROUP_set_curve_GFp?$AA@ 0006fae0     libeay32:ec_err.obj
 0002:00007af8       ??_C@_0BI@GPFLIGPC@EC_GROUP_set_curve_GF2m?$AA@ 0006faf8     libeay32:ec_err.obj
 0002:00007b10       ??_C@_0BJ@EGIKACCD@EC_GROUP_precompute_mult?$AA@ 0006fb10     libeay32:ec_err.obj
 0002:00007b2c       ??_C@_0BH@GPENGIHE@EC_GROUP_NEW_FROM_DATA?$AA@ 0006fb2c     libeay32:ec_err.obj
 0002:00007b44       ??_C@_0BL@EGJNHICO@EC_GROUP_new_by_curve_name?$AA@ 0006fb44     libeay32:ec_err.obj
 0002:00007b60       ??_C@_0N@BOFGICHI@EC_GROUP_new?$AA@ 0006fb60     libeay32:ec_err.obj
 0002:00007b70       ??_C@_0BN@BIKFBBCG@EC_GROUP_get_trinomial_basis?$AA@ 0006fb70     libeay32:ec_err.obj
 0002:00007b90       ??_C@_0BP@IOAFMBFK@EC_GROUP_get_pentanomial_basis?$AA@ 0006fb90     libeay32:ec_err.obj
 0002:00007bb0       ??_C@_0BD@OOGPHLOG@EC_GROUP_get_order?$AA@ 0006fbb0     libeay32:ec_err.obj
 0002:00007bc4       ??_C@_0BE@NONOHBAO@EC_GROUP_get_degree?$AA@ 0006fbc4     libeay32:ec_err.obj
 0002:00007bd8       ??_C@_0BH@GFKDJAMD@EC_GROUP_get_curve_GFp?$AA@ 0006fbd8     libeay32:ec_err.obj
 0002:00007bf0       ??_C@_0BI@KBEFHMNO@EC_GROUP_get_curve_GF2m?$AA@ 0006fbf0     libeay32:ec_err.obj
 0002:00007c08       ??_C@_0BG@FGHCOKEJ@EC_GROUP_get_cofactor?$AA@ 0006fc08     libeay32:ec_err.obj
 0002:00007c20       ??_C@_0BI@JLPIENJE@EC_GROUP_get0_generator?$AA@ 0006fc20     libeay32:ec_err.obj
 0002:00007c38       ??_C@_0O@DCFPFPGD@EC_GROUP_copy?$AA@ 0006fc38     libeay32:ec_err.obj
 0002:00007c48       ??_C@_0BM@EDPHFFHB@EC_GROUP_check_discriminant?$AA@ 0006fc48     libeay32:ec_err.obj
 0002:00007c64       ??_C@_0P@JGNGIAMK@EC_GROUP_check?$AA@ 0006fc64     libeay32:ec_err.obj
 0002:00007c74       ??_C@_0CN@HEIOPOMJ@EC_GFP_SIMPLE_SET_COMPRESSED_COO@ 0006fc74     libeay32:ec_err.obj
 0002:00007ca4       ??_C@_0CJ@NNCOMCAA@ec_GFp_simple_set_compressed_coo@ 0006fca4     libeay32:ec_err.obj
 0002:00007cd0       ??_C@_0CP@IIHPGJL@EC_GFP_SIMPLE_POINT_SET_AFFINE_C@ 0006fcd0     libeay32:ec_err.obj
 0002:00007d00       ??_C@_0CL@CECOKBPF@ec_GFp_simple_point_set_affine_c@ 0006fd00     libeay32:ec_err.obj
 0002:00007d2c       ??_C@_0CP@DHLCDGIL@EC_GFP_SIMPLE_POINT_GET_AFFINE_C@ 0006fd2c     libeay32:ec_err.obj
 0002:00007d5c       ??_C@_0CL@CFAAIGCK@ec_GFp_simple_point_get_affine_c@ 0006fd5c     libeay32:ec_err.obj
 0002:00007d88       ??_C@_0CB@KBGPMJPK@ec_GFp_simple_points_make_affine@ 0006fd88     libeay32:ec_err.obj
 0002:00007dac       ??_C@_0BI@JEGCEGAG@ec_GFp_simple_point2oct?$AA@ 0006fdac     libeay32:ec_err.obj
 0002:00007dc4       ??_C@_0BI@NBJJENKN@ec_GFp_simple_oct2point?$AA@ 0006fdc4     libeay32:ec_err.obj
 0002:00007ddc       ??_C@_0BK@COPKPLKN@ec_GFp_simple_make_affine?$AA@ 0006fddc     libeay32:ec_err.obj
 0002:00007df8       ??_C@_0CC@KAJMPEKM@EC_GFP_SIMPLE_GROUP_SET_GENERATO@ 0006fdf8     libeay32:ec_err.obj
 0002:00007e1c       ??_C@_0CC@MGNNAOCM@EC_GFP_SIMPLE_GROUP_SET_CURVE_GF@ 0006fe1c     libeay32:ec_err.obj
 0002:00007e40       ??_C@_0BO@FHKAIIJJ@ec_GFp_simple_group_set_curve?$AA@ 0006fe40     libeay32:ec_err.obj
 0002:00007e60       ??_C@_0CH@CICCEFIM@ec_GFp_simple_group_check_discri@ 0006fe60     libeay32:ec_err.obj
 0002:00007e88       ??_C@_0BM@NNIDGPMA@ec_GFp_nist_group_set_curve?$AA@ 0006fe88     libeay32:ec_err.obj
 0002:00007ea4       ??_C@_0BG@NIJIDFMF@ec_GFp_nist_field_sqr?$AA@ 0006fea4     libeay32:ec_err.obj
 0002:00007ebc       ??_C@_0BG@LLBGICGK@ec_GFp_nist_field_mul?$AA@ 0006febc     libeay32:ec_err.obj
 0002:00007ed4       ??_C@_0CN@IJAIDOCA@ec_GFp_nistp521_point_get_affine@ 0006fed4     libeay32:ec_err.obj
 0002:00007f04       ??_C@_0BL@HENFHPJA@ec_GFp_nistp521_points_mul?$AA@ 0006ff04     libeay32:ec_err.obj
 0002:00007f20       ??_C@_0CA@CIHPIMLA@ec_GFp_nistp521_group_set_curve?$AA@ 0006ff20     libeay32:ec_err.obj
 0002:00007f40       ??_C@_0CN@JJPHEEFL@ec_GFp_nistp256_point_get_affine@ 0006ff40     libeay32:ec_err.obj
 0002:00007f70       ??_C@_0BL@PHGKNMBC@ec_GFp_nistp256_points_mul?$AA@ 0006ff70     libeay32:ec_err.obj
 0002:00007f8c       ??_C@_0CA@GCCLKLAM@ec_GFp_nistp256_group_set_curve?$AA@ 0006ff8c     libeay32:ec_err.obj
 0002:00007fac       ??_C@_0CN@DMKNIHGM@ec_GFp_nistp224_point_get_affine@ 0006ffac     libeay32:ec_err.obj
 0002:00007fdc       ??_C@_0BL@PCPLMDJJ@ec_GFp_nistp224_points_mul?$AA@ 0006ffdc     libeay32:ec_err.obj
 0002:00007ff8       ??_C@_0CA@CNMBELME@ec_GFp_nistp224_group_set_curve?$AA@ 0006fff8     libeay32:ec_err.obj
 0002:00008018       ??_C@_0CA@DHAFKAHK@EC_GFP_MONT_GROUP_SET_CURVE_GFP?$AA@ 00070018     libeay32:ec_err.obj
 0002:00008038       ??_C@_0BM@GNHNLMD@ec_GFp_mont_group_set_curve?$AA@ 00070038     libeay32:ec_err.obj
 0002:00008054       ??_C@_0BG@MCAMNCKO@ec_GFp_mont_field_sqr?$AA@ 00070054     libeay32:ec_err.obj
 0002:0000806c       ??_C@_0BN@OCMPOINJ@ec_GFp_mont_field_set_to_one?$AA@ 0007006c     libeay32:ec_err.obj
 0002:0000808c       ??_C@_0BG@KBICGFAB@ec_GFp_mont_field_mul?$AA@ 0007008c     libeay32:ec_err.obj
 0002:000080a4       ??_C@_0BJ@PGEBCHNN@ec_GFp_mont_field_encode?$AA@ 000700a4     libeay32:ec_err.obj
 0002:000080c0       ??_C@_0BJ@DKPBNMKK@ec_GFp_mont_field_decode?$AA@ 000700c0     libeay32:ec_err.obj
 0002:000080dc       ??_C@_0CK@EMOLEAE@ec_GF2m_simple_set_compressed_co@ 000700dc     libeay32:ec_err.obj
 0002:00008108       ??_C@_0CM@PJCEGJBI@ec_GF2m_simple_point_set_affine_@ 00070108     libeay32:ec_err.obj
 0002:00008134       ??_C@_0CM@PIAKEOMH@ec_GF2m_simple_point_get_affine_@ 00070134     libeay32:ec_err.obj
 0002:00008160       ??_C@_0BJ@BCDOEDMD@ec_GF2m_simple_point2oct?$AA@ 00070160     libeay32:ec_err.obj
 0002:0000817c       ??_C@_0BJ@FHMFEIGI@ec_GF2m_simple_oct2point?$AA@ 0007017c     libeay32:ec_err.obj
 0002:00008198       ??_C@_0BP@LKAGFPMG@ec_GF2m_simple_group_set_curve?$AA@ 00070198     libeay32:ec_err.obj
 0002:000081b8       ??_C@_0CI@HLAFKCG@ec_GF2m_simple_group_check_discr@ 000701b8     libeay32:ec_err.obj
 0002:000081e0       ??_C@_0CC@ICBKMHKB@EC_GF2M_MONTGOMERY_POINT_MULTIPL@ 000701e0     libeay32:ec_err.obj
 0002:00008204       ??_C@_0BE@IGKCIBBP@EC_EX_DATA_set_data?$AA@ 00070204     libeay32:ec_err.obj
 0002:00008218       ??_C@_0BL@HBOBKPAK@EC_ASN1_PKPARAMETERS2GROUP?$AA@ 00070218     libeay32:ec_err.obj
 0002:00008234       ??_C@_0BJ@GDKAGOMP@EC_ASN1_PARAMETERS2GROUP?$AA@ 00070234     libeay32:ec_err.obj
 0002:00008250       ??_C@_0BL@CHLBAFFP@EC_ASN1_GROUP2PKPARAMETERS?$AA@ 00070250     libeay32:ec_err.obj
 0002:0000826c       ??_C@_0BJ@OBNMEFJL@EC_ASN1_GROUP2PARAMETERS?$AA@ 0007026c     libeay32:ec_err.obj
 0002:00008288       ??_C@_0BG@DBLOBDEO@EC_ASN1_GROUP2FIELDID?$AA@ 00070288     libeay32:ec_err.obj
 0002:000082a0       ??_C@_0BE@MCAODDGE@EC_ASN1_GROUP2CURVE?$AA@ 000702a0     libeay32:ec_err.obj
 0002:000082b4       ??_C@_0BB@HJLHKBLC@ECP_NIST_MOD_521?$AA@ 000702b4     libeay32:ec_err.obj
 0002:000082c8       ??_C@_0BB@KOGOBJEJ@ECP_NIST_MOD_256?$AA@ 000702c8     libeay32:ec_err.obj
 0002:000082dc       ??_C@_0BB@JJBHGNEO@ECP_NIST_MOD_224?$AA@ 000702dc     libeay32:ec_err.obj
 0002:000082f0       ??_C@_0BB@NBKNIKMH@ECP_NIST_MOD_192?$AA@ 000702f0     libeay32:ec_err.obj
 0002:00008304       ??_C@_0BI@PBKJPLGO@ECPKParameters_print_fp?$AA@ 00070304     libeay32:ec_err.obj
 0002:0000831c       ??_C@_0BF@EIEGNLJB@ECPKParameters_print?$AA@ 0007031c     libeay32:ec_err.obj
 0002:00008334       ??_C@_0BG@IABNBFJJ@ECParameters_print_fp?$AA@ 00070334     libeay32:ec_err.obj
 0002:0000834c       ??_C@_0BD@KEAOIMB@ECParameters_print?$AA@ 0007034c     libeay32:ec_err.obj
 0002:00008360       ??_C@_0BB@BEIICLPB@ECKEY_TYPE2PARAM?$AA@ 00070360     libeay32:ec_err.obj
 0002:00008374       ??_C@_0BB@NHJCOGGG@ECKEY_PUB_ENCODE?$AA@ 00070374     libeay32:ec_err.obj
 0002:00008388       ??_C@_0BB@BLCCBNBB@ECKEY_PUB_DECODE?$AA@ 00070388     libeay32:ec_err.obj
 0002:0000839c       ??_C@_0BC@BEKBNPBE@ECKEY_PRIV_ENCODE?$AA@ 0007039c     libeay32:ec_err.obj
 0002:000083b0       ??_C@_0BC@NIBBCEGD@ECKEY_PRIV_DECODE?$AA@ 000703b0     libeay32:ec_err.obj
 0002:000083c4       ??_C@_0BD@KKLENDIA@ECKEY_PARAM_DECODE?$AA@ 000703c4     libeay32:ec_err.obj
 0002:000083d8       ??_C@_0BB@MPLEGNDM@ECKEY_PARAM2TYPE?$AA@ 000703d8     libeay32:ec_err.obj
 0002:000083ec       ??_C@_0BA@GLMHNHNL@DO_EC_KEY_PRINT?$AA@ 000703ec     libeay32:ec_err.obj
 0002:000083fc       ??_C@_0BB@OCGALHMG@d2i_ECPrivateKey?$AA@ 000703fc     libeay32:ec_err.obj
 0002:00008410       ??_C@_0BD@GMAHPMNO@d2i_ECPKParameters?$AA@ 00070410     libeay32:ec_err.obj
 0002:00008424       ??_C@_0BB@IHNDOJLJ@d2i_ECParameters?$AA@ 00070424     libeay32:ec_err.obj
 0002:00008438       ??_C@_0N@DCDCJEGB@COMPUTE_WNAF?$AA@ 00070438     libeay32:ec_err.obj
 0002:00008448       ??_C@_0M@DFJLABBI@BN_TO_FELEM?$AA@ 00070448     libeay32:ec_err.obj
 0002:00008454       ??_C@_0BD@GGOPPIG@zlib?5not?5supported?$AA@ 00070454     libeay32:comp_err.obj
 0002:00008468       ??_C@_0BD@DEBFKLFN@zlib?5inflate?5error?$AA@ 00070468     libeay32:comp_err.obj
 0002:0000847c       ??_C@_0BD@GECGGEKF@zlib?5deflate?5error?$AA@ 0007047c     libeay32:comp_err.obj
 0002:00008490       ??_C@_0P@PANALKMF@BIO_ZLIB_WRITE?$AA@ 00070490     libeay32:comp_err.obj
 0002:000084a0       ??_C@_0O@JIGAJHDA@BIO_ZLIB_READ?$AA@ 000704a0     libeay32:comp_err.obj
 0002:000084b0       ??_C@_0N@MFFBFEDL@BIO_ZLIB_NEW?$AA@ 000704b0     libeay32:comp_err.obj
 0002:000084c0       ??_C@_0P@ENKEMCPH@BIO_ZLIB_FLUSH?$AA@ 000704c0     libeay32:comp_err.obj
 0002:000084d0       ??_C@_0BL@GHFOLNLN@no?5dynlock?5create?5callback?$AA@ 000704d0     libeay32:cpt_err.obj
 0002:000084ec       ??_C@_0BI@HFMBHDCA@fips?5mode?5not?5supported?$AA@ 000704ec     libeay32:cpt_err.obj
 0002:00008504       ??_C@_0BA@NPGJKDBD@INT_NEW_EX_DATA?$AA@ 00070504     libeay32:cpt_err.obj
 0002:00008514       ??_C@_0BB@EOLKIEIJ@INT_FREE_EX_DATA?$AA@ 00070514     libeay32:cpt_err.obj
 0002:00008528       ??_C@_0BA@HJHEJEMA@INT_DUP_EX_DATA?$AA@ 00070528     libeay32:cpt_err.obj
 0002:00008538       ??_C@_0O@HNLOFNHK@FIPS_mode_set?$AA@ 00070538     libeay32:cpt_err.obj
 0002:00008548       ??_C@_0O@MGHCLFMH@DEF_GET_CLASS?$AA@ 00070548     libeay32:cpt_err.obj
 0002:00008558       ??_C@_0O@LHHGGGNF@DEF_ADD_INDEX?$AA@ 00070558     libeay32:cpt_err.obj
 0002:00008568       ??_C@_0BD@NOOFBIMD@CRYPTO_set_ex_data?$AA@ 00070568     libeay32:cpt_err.obj
 0002:0000857c       ??_C@_0BG@MHMFFADP@CRYPTO_get_new_lockid?$AA@ 0007057c     libeay32:cpt_err.obj
 0002:00008594       ??_C@_0BJ@CCOEIIFC@CRYPTO_get_new_dynlockid?$AA@ 00070594     libeay32:cpt_err.obj
 0002:000085b0       ??_C@_0BI@MHIJLMOF@CRYPTO_get_ex_new_index?$AA@ 000705b0     libeay32:cpt_err.obj
 0002:000085c8       ??_C@_0BG@NAOLEILH@variable?5has?5no?5value?$AA@ 000705c8     libeay32:conf_err.obj
 0002:000085e0       ??_C@_0BE@KOBCLJNN@unknown?5module?5name?$AA@ 000705e0     libeay32:conf_err.obj
 0002:000085f4       ??_C@_0BN@CFCNACBC@unable?5to?5create?5new?5section?$AA@ 000705f4     libeay32:conf_err.obj
 0002:00008614       ??_C@_08JEIPHCP@no?5value?$AA@ 00070614     libeay32:conf_err.obj
 0002:00008620       ??_C@_0L@LDHPJCAE@no?5section?$AA@ 00070620     libeay32:conf_err.obj
 0002:0000862c       ??_C@_0CA@NLBFLDPJ@no?5conf?5or?5environment?5variable?$AA@ 0007062c     libeay32:conf_err.obj
 0002:0000864c       ??_C@_07OJNHGLOG@no?5conf?$AA@ 0007064c     libeay32:conf_err.obj
 0002:00008654       ??_C@_0P@ECIPDLAO@no?5close?5brace?$AA@ 00070654     libeay32:conf_err.obj
 0002:00008664       ??_C@_0BM@JOLMIONN@module?5initialization?5error?$AA@ 00070664     libeay32:conf_err.obj
 0002:00008680       ??_C@_0BG@OKCBACKF@missing?5init?5function?$AA@ 00070680     libeay32:conf_err.obj
 0002:00008698       ??_C@_0BI@KJPGAHFP@missing?5finish?5function?$AA@ 00070698     libeay32:conf_err.obj
 0002:000086b0       ??_C@_0BD@CENOJJDH@missing?5equal?5sign?$AA@ 000706b0     libeay32:conf_err.obj
 0002:000086c4       ??_C@_0BN@LNHOFFHB@missing?5close?5square?5bracket?$AA@ 000706c4     libeay32:conf_err.obj
 0002:000086e4       ??_C@_0BE@ONKINGND@list?5cannot?5be?5null?$AA@ 000706e4     libeay32:conf_err.obj
 0002:000086f8       ??_C@_0BC@MMAHEKMC@error?5loading?5dso?$AA@ 000706f8     libeay32:conf_err.obj
 0002:0000870c       ??_C@_08BBDGILDN@STR_COPY?$AA@ 0007070c     libeay32:conf_err.obj
 0002:00008718       ??_C@_09JEJJGJM@NCONF_new?$AA@ 00070718     libeay32:conf_err.obj
 0002:00008724       ??_C@_0O@PJAMGPBO@NCONF_load_fp?$AA@ 00070724     libeay32:conf_err.obj
 0002:00008734       ??_C@_0P@IEAGEJMM@NCONF_load_bio?$AA@ 00070734     libeay32:conf_err.obj
 0002:00008744       ??_C@_0L@PFPHFEJM@NCONF_load?$AA@ 00070744     libeay32:conf_err.obj
 0002:00008750       ??_C@_0BB@OFIAOKID@NCONF_get_string?$AA@ 00070750     libeay32:conf_err.obj
 0002:00008764       ??_C@_0BC@INLNGICP@NCONF_get_section?$AA@ 00070764     libeay32:conf_err.obj
 0002:00008778       ??_C@_0BD@FFHIPMOB@NCONF_get_number_e?$AA@ 00070778     libeay32:conf_err.obj
 0002:0000878c       ??_C@_0BB@CGIEEKIP@NCONF_get_number?$AA@ 0007078c     libeay32:conf_err.obj
 0002:000087a0       ??_C@_0O@LOFEGBC@NCONF_dump_fp?$AA@ 000707a0     libeay32:conf_err.obj
 0002:000087b0       ??_C@_0P@INECOMMO@NCONF_dump_bio?$AA@ 000707b0     libeay32:conf_err.obj
 0002:000087c0       ??_C@_0L@HLFJHMEO@MODULE_RUN?$AA@ 000707c0     libeay32:conf_err.obj
 0002:000087cc       ??_C@_0BA@DFFKJEMO@MODULE_LOAD_DSO?$AA@ 000707cc     libeay32:conf_err.obj
 0002:000087dc       ??_C@_0M@NKKPMNDD@MODULE_INIT?$AA@ 000707dc     libeay32:conf_err.obj
 0002:000087e8       ??_C@_0N@GOMHLHAF@DEF_LOAD_BIO?$AA@ 000707e8     libeay32:conf_err.obj
 0002:000087f8       ??_C@_08JKMPBPGH@DEF_LOAD?$AA@ 000707f8     libeay32:conf_err.obj
 0002:00008804       ??_C@_0BA@EMPHLGPL@CONF_parse_list?$AA@ 00070804     libeay32:conf_err.obj
 0002:00008814       ??_C@_0BC@FCDKCHEN@CONF_modules_load?$AA@ 00070814     libeay32:conf_err.obj
 0002:00008828       ??_C@_0N@KNOBPCCK@CONF_load_fp?$AA@ 00070828     libeay32:conf_err.obj
 0002:00008838       ??_C@_0O@KFOGFAOE@CONF_load_bio?$AA@ 00070838     libeay32:conf_err.obj
 0002:00008848       ??_C@_09PJMELPOP@CONF_load?$AA@ 00070848     libeay32:conf_err.obj
 0002:00008854       ??_C@_0N@FPAINLCG@CONF_dump_fp?$AA@ 00070854     libeay32:conf_err.obj
 0002:00008864       ??_C@_0L@OIMFIJMM@wrong?5type?$AA@ 00070864     libeay32:asn1_err.obj
 0002:00008870       ??_C@_09FHDDBMMO@wrong?5tag?$AA@ 00070870     libeay32:asn1_err.obj
 0002:0000887c       ??_C@_0BG@NPKECJFG@wrong?5public?5key?5type?$AA@ 0007087c     libeay32:asn1_err.obj
 0002:00008894       ??_C@_0BM@ONPEBOBM@unsupported?5public?5key?5type?$AA@ 00070894     libeay32:asn1_err.obj
 0002:000088b0       ??_C@_0CB@JCOCHIMG@unsupported?5encryption?5algorithm@ 000708b0     libeay32:asn1_err.obj
 0002:000088d4       ??_C@_0BD@ECLJDLBJ@unsupported?5cipher?$AA@ 000708d4     libeay32:asn1_err.obj
 0002:000088e8       ??_C@_0CA@KHOGLJGI@unsupported?5any?5defined?5by?5type?$AA@ 000708e8     libeay32:asn1_err.obj
 0002:00008908       ??_C@_0O@OOPMEED@unkown?5format?$AA@ 00070908     libeay32:asn1_err.obj
 0002:00008918       ??_C@_0M@NDAIKBNL@unknown?5tag?$AA@ 00070918     libeay32:asn1_err.obj
 0002:00008924       ??_C@_0BM@FGDBMFBO@unknown?5signature?5algorithm?$AA@ 00070924     libeay32:asn1_err.obj
 0002:00008940       ??_C@_0BI@HEKKKILC@unknown?5public?5key?5type?$AA@ 00070940     libeay32:asn1_err.obj
 0002:00008958       ??_C@_0BE@IIDOFNCB@unknown?5object?5type?$AA@ 00070958     libeay32:asn1_err.obj
 0002:0000896c       ??_C@_0CB@FPJIEFKF@unknown?5message?5digest?5algorithm@ 0007096c     libeay32:asn1_err.obj
 0002:00008990       ??_C@_0P@JBFKBJMG@unknown?5format?$AA@ 00070990     libeay32:asn1_err.obj
 0002:000089a0       ??_C@_0CA@KFOGBPLD@universalstring?5is?5wrong?5length?$AA@ 000709a0     libeay32:asn1_err.obj
 0002:000089c0       ??_C@_0P@GFLKNBFP@unexpected?5eoc?$AA@ 000709c0     libeay32:asn1_err.obj
 0002:000089d0       ??_C@_0CB@OFDMIBCA@unable?5to?5decode?5rsa?5private?5key@ 000709d0     libeay32:asn1_err.obj
 0002:000089f4       ??_C@_0BJ@FGOOGDNL@unable?5to?5decode?5rsa?5key?$AA@ 000709f4     libeay32:asn1_err.obj
 0002:00008a10       ??_C@_0BF@EOIFAKLF@type?5not?5constructed?$AA@ 00070a10     libeay32:asn1_err.obj
 0002:00008a28       ??_C@_08JAFCJEPG@too?5long?$AA@ 00070a28     libeay32:asn1_err.obj
 0002:00008a34       ??_C@_0BG@FIHEIAJO@time?5not?5ascii?5format?$AA@ 00070a34     libeay32:asn1_err.obj
 0002:00008a4c       ??_C@_0DE@FHLPPGDD@the?5asn1?5object?5identifier?5is?5no@ 00070a4c     libeay32:asn1_err.obj
 0002:00008a80       ??_C@_0BD@FKIMNJNM@tag?5value?5too?5high?$AA@ 00070a80     libeay32:asn1_err.obj
 0002:00008a94       ??_C@_0BB@EJOCOHKH@string?5too?5short?$AA@ 00070a94     libeay32:asn1_err.obj
 0002:00008aa8       ??_C@_0BA@JFNIOLAK@string?5too?5long?$AA@ 00070aa8     libeay32:asn1_err.obj
 0002:00008ab8       ??_C@_0BI@ILHKAN@streaming?5not?5supported?$AA@ 00070ab8     libeay32:asn1_err.obj
 0002:00008ad0       ??_C@_0L@DIDEMPO@short?5line?$AA@ 00070ad0     libeay32:asn1_err.obj
 0002:00008adc       ??_C@_0BN@IFEEBMGE@sequence?5or?5set?5needs?5config?$AA@ 00070adc     libeay32:asn1_err.obj
 0002:00008afc       ??_C@_0BJ@OILHCOMM@sequence?5not?5constructed?$AA@ 00070afc     libeay32:asn1_err.obj
 0002:00008b18       ??_C@_0BJ@LFBNHHNL@sequence?5length?5mismatch?$AA@ 00070b18     libeay32:asn1_err.obj
 0002:00008b34       ??_C@_0BI@GOIIMJKA@second?5number?5too?5large?$AA@ 00070b34     libeay32:asn1_err.obj
 0002:00008b4c       ??_C@_0BL@KPMAFJEI@private?5key?5header?5missing?$AA@ 00070b4c     libeay32:asn1_err.obj
 0002:00008b68       ??_C@_0BE@GONLLLGK@odd?5number?5of?5chars?$AA@ 00070b68     libeay32:asn1_err.obj
 0002:00008b7c       ??_C@_0BI@KCMPJCA@object?5not?5ascii?5format?$AA@ 00070b7c     libeay32:asn1_err.obj
 0002:00008b94       ??_C@_0BF@CCHOLFBJ@null?5is?5wrong?5length?$AA@ 00070b94     libeay32:asn1_err.obj
 0002:00008bac       ??_C@_0BI@DFIHABJJ@no?5matching?5choice?5type?$AA@ 00070bac     libeay32:asn1_err.obj
 0002:00008bc4       ??_C@_0BA@NBOKDEIF@not?5enough?5data?$AA@ 00070bc4     libeay32:asn1_err.obj
 0002:00008bd4       ??_C@_0BB@MGCBBDEB@not?5ascii?5format?$AA@ 00070bd4     libeay32:asn1_err.obj
 0002:00008be8       ??_C@_0BD@MNEEEEPB@non?5hex?5characters?$AA@ 00070be8     libeay32:asn1_err.obj
 0002:00008bfc       ??_C@_0BD@IJCHMKNH@nested?5asn1?5string?$AA@ 00070bfc     libeay32:asn1_err.obj
 0002:00008c10       ??_C@_0BC@FJKJBBMN@mstring?5wrong?5tag?$AA@ 00070c10     libeay32:asn1_err.obj
 0002:00008c24       ??_C@_0BG@HBALPIGP@mstring?5not?5universal?$AA@ 00070c24     libeay32:asn1_err.obj
 0002:00008c3c       ??_C@_0BG@OJFAFJNH@missing?5second?5number?$AA@ 00070c3c     libeay32:asn1_err.obj
 0002:00008c54       ??_C@_0M@MKABCMG@missing?5eoc?$AA@ 00070c54     libeay32:asn1_err.obj
 0002:00008c60       ??_C@_0L@IJFCOOII@list?5error?$AA@ 00070c60     libeay32:asn1_err.obj
 0002:00008c6c       ??_C@_0N@MAMJKBIE@length?5error?$AA@ 00070c6c     libeay32:asn1_err.obj
 0002:00008c7c       ??_C@_0N@MBEIJJJI@iv?5too?5large?$AA@ 00070c7c     libeay32:asn1_err.obj
 0002:00008c8c       ??_C@_0BD@CADAIHCD@invalid?5utf8string?$AA@ 00070c8c     libeay32:asn1_err.obj
 0002:00008ca0       ??_C@_0BP@NLLGLGJG@invalid?5universalstring?5length?$AA@ 00070ca0     libeay32:asn1_err.obj
 0002:00008cc0       ??_C@_0BE@PJIGHIDK@invalid?5time?5format?$AA@ 00070cc0     libeay32:asn1_err.obj
 0002:00008cd4       ??_C@_0BC@JCCFGDFH@invalid?5separator?$AA@ 00070cd4     libeay32:asn1_err.obj
 0002:00008ce8       ??_C@_0BI@EPBGLAAG@invalid?5object?5encoding?$AA@ 00070ce8     libeay32:asn1_err.obj
 0002:00008d00       ??_C@_0BB@HBLKNPLB@invalid?5modifier?$AA@ 00070d00     libeay32:asn1_err.obj
 0002:00008d14       ??_C@_0O@KPBDNCBI@invalid?5digit?$AA@ 00070d14     libeay32:asn1_err.obj
 0002:00008d24       ??_C@_0BJ@DGKAOOKA@invalid?5bmpstring?5length?$AA@ 00070d24     libeay32:asn1_err.obj
 0002:00008d40       ??_C@_0BL@JBPGNNHP@integer?5too?5large?5for?5long?$AA@ 00070d40     libeay32:asn1_err.obj
 0002:00008d5c       ??_C@_0BJ@IOJNPFPJ@integer?5not?5ascii?5format?$AA@ 00070d5c     libeay32:asn1_err.obj
 0002:00008d78       ??_C@_0BD@FBIAEBKG@illegal?5time?5value?$AA@ 00070d78     libeay32:asn1_err.obj
 0002:00008d8c       ??_C@_0BD@KMIMMNBH@illegal?5tagged?5any?$AA@ 00070d8c     libeay32:asn1_err.obj
 0002:00008da0       ??_C@_0CB@JCNOHDMC@illegal?5options?5on?5item?5template@ 00070da0     libeay32:asn1_err.obj
 0002:00008dc4       ??_C@_0BF@JJCOPKAM@illegal?5optional?5any?$AA@ 00070dc4     libeay32:asn1_err.obj
 0002:00008ddc       ??_C@_0P@HMGBAHDF@illegal?5object?$AA@ 00070ddc     libeay32:asn1_err.obj
 0002:00008dec       ??_C@_0BD@CIHPLDOH@illegal?5null?5value?$AA@ 00070dec     libeay32:asn1_err.obj
 0002:00008e00       ??_C@_0N@KECKGDAL@illegal?5null?$AA@ 00070e00     libeay32:asn1_err.obj
 0002:00008e10       ??_C@_0BH@NHBAOIGA@illegal?5nested?5tagging?$AA@ 00070e10     libeay32:asn1_err.obj
 0002:00008e28       ??_C@_0BA@OBFDOAFI@illegal?5integer?$AA@ 00070e28     libeay32:asn1_err.obj
 0002:00008e38       ??_C@_0BF@HBCDAMIA@illegal?5implicit?5tag?$AA@ 00070e38     libeay32:asn1_err.obj
 0002:00008e50       ??_C@_0M@KIEAGAOM@illegal?5hex?$AA@ 00070e50     libeay32:asn1_err.obj
 0002:00008e5c       ??_C@_0P@MDMHHBPK@illegal?5format?$AA@ 00070e5c     libeay32:asn1_err.obj
 0002:00008e6c       ??_C@_0BD@NEHNCJDJ@illegal?5characters?$AA@ 00070e6c     libeay32:asn1_err.obj
 0002:00008e80       ??_C@_0BA@DFDIFKJJ@illegal?5boolean?$AA@ 00070e80     libeay32:asn1_err.obj
 0002:00008e90       ??_C@_0BJ@PIGABEGD@illegal?5bitstring?5format?$AA@ 00070e90     libeay32:asn1_err.obj
 0002:00008eac       ??_C@_0BA@CHHBAPMA@header?5too?5long?$AA@ 00070eac     libeay32:asn1_err.obj
 0002:00008ebc       ??_C@_0BE@LDHAAJPI@first?5num?5too?5large?$AA@ 00070ebc     libeay32:asn1_err.obj
 0002:00008ed0       ??_C@_0O@CLCAFBLA@field?5missing?$AA@ 00070ed0     libeay32:asn1_err.obj
 0002:00008ee0       ??_C@_0BN@FKHNFGAN@explicit?5tag?5not?5constructed?$AA@ 00070ee0     libeay32:asn1_err.obj
 0002:00008f00       ??_C@_0BJ@GCMFJMFA@explicit?5length?5mismatch?$AA@ 00070f00     libeay32:asn1_err.obj
 0002:00008f1c       ??_C@_0BB@JKCOMHFA@expecting?5a?5time?$AA@ 00070f1c     libeay32:asn1_err.obj
 0002:00008f30       ??_C@_0BE@BDJOEMIP@expecting?5a?5boolean?$AA@ 00070f30     libeay32:asn1_err.obj
 0002:00008f44       ??_C@_0BE@OOABJJEB@expecting?5an?5object?$AA@ 00070f44     libeay32:asn1_err.obj
 0002:00008f58       ??_C@_0BF@LGKJDFOD@expecting?5an?5integer?$AA@ 00070f58     libeay32:asn1_err.obj
 0002:00008f70       ??_C@_0BM@FOGNMFHP@error?5setting?5cipher?5params?$AA@ 00070f70     libeay32:asn1_err.obj
 0002:00008f8c       ??_C@_0BK@DGGLLBPO@error?5parsing?5set?5element?$AA@ 00070f8c     libeay32:asn1_err.obj
 0002:00008fa8       ??_C@_0BG@ILOBFDMI@error?5loading?5section?$AA@ 00070fa8     libeay32:asn1_err.obj
 0002:00008fc0       ??_C@_0BD@MEBNHBIA@error?5getting?5time?$AA@ 00070fc0     libeay32:asn1_err.obj
 0002:00008fd4       ??_C@_0CC@LHIFMNG@digest?5and?5key?5type?5not?5supporte@ 00070fd4     libeay32:asn1_err.obj
 0002:00008ff8       ??_C@_0P@PBNPDGCA@depth?5exceeded?$AA@ 00070ff8     libeay32:asn1_err.obj
 0002:00009008       ??_C@_0P@JLNKKAF@decoding?5error?$AA@ 00071008     libeay32:asn1_err.obj
 0002:00009018       ??_C@_0O@BCDMJPKL@data?5is?5wrong?$AA@ 00071018     libeay32:asn1_err.obj
 0002:00009028       ??_C@_0BI@MAIKFKBM@context?5not?5initialised?$AA@ 00071028     libeay32:asn1_err.obj
 0002:00009040       ??_C@_0BI@BIBDEEPC@boolean?5is?5wrong?5length?$AA@ 00071040     libeay32:asn1_err.obj
 0002:00009058       ??_C@_06OMLIINFC@bn?5lib?$AA@ 00071058     libeay32:asn1_err.obj
 0002:00009060       ??_C@_0BK@ENMPILCE@bmpstring?5is?5wrong?5length?$AA@ 00071060     libeay32:asn1_err.obj
 0002:0000907c       ??_C@_07PAICMJPF@bad?5tag?$AA@ 0007107c     libeay32:asn1_err.obj
 0002:00009084       ??_C@_0BC@CABCLHEJ@bad?5password?5read?$AA@ 00071084     libeay32:asn1_err.obj
 0002:00009098       ??_C@_0BC@HBIHOFOK@bad?5object?5header?$AA@ 00071098     libeay32:asn1_err.obj
 0002:000090ac       ??_C@_09BKPOMKBM@bad?5class?$AA@ 000710ac     libeay32:asn1_err.obj
 0002:000090b8       ??_C@_09GMPDBPNM@aux?5error?$AA@ 000710b8     libeay32:asn1_err.obj
 0002:000090c4       ??_C@_0BF@GKKBDHBB@asn1?5sig?5parse?5error?$AA@ 000710c4     libeay32:asn1_err.obj
 0002:000090dc       ??_C@_0BB@IDLMABIH@asn1?5parse?5error?$AA@ 000710dc     libeay32:asn1_err.obj
 0002:000090f0       ??_C@_0O@BJDBCOJG@adding?5object?$AA@ 000710f0     libeay32:asn1_err.obj
 0002:00009100       ??_C@_0O@FLJODBAL@X509_PKEY_new?$AA@ 00071100     libeay32:asn1_err.obj
 0002:00009110       ??_C@_08NEGEFFLN@X509_NEW?$AA@ 00071110     libeay32:asn1_err.obj
 0002:0000911c       ??_C@_0BB@PPJFHHNK@X509_NAME_EX_NEW?$AA@ 0007111c     libeay32:asn1_err.obj
 0002:00009130       ??_C@_0BB@BFNHNGLE@X509_NAME_EX_D2I?$AA@ 00071130     libeay32:asn1_err.obj
 0002:00009144       ??_C@_0BB@EOIAJBFO@X509_NAME_ENCODE?$AA@ 00071144     libeay32:asn1_err.obj
 0002:00009158       ??_C@_0O@PHHKDAFO@X509_INFO_new?$AA@ 00071158     libeay32:asn1_err.obj
 0002:00009168       ??_C@_0BG@JPBFPNPM@X509_CRL_add0_revoked?$AA@ 00071168     libeay32:asn1_err.obj
 0002:00009180       ??_C@_0O@HBIKGBAK@X509_CINF_NEW?$AA@ 00071180     libeay32:asn1_err.obj
 0002:00009190       ??_C@_0BA@OILCEEFJ@SMIME_read_ASN1?$AA@ 00071190     libeay32:asn1_err.obj
 0002:000091a0       ??_C@_0BB@BKACEBCB@PKCS5_pbkdf2_set?$AA@ 000711a0     libeay32:asn1_err.obj
 0002:000091b4       ??_C@_0BF@OBLJKNIN@PKCS5_pbe_set0_algor?$AA@ 000711b4     libeay32:asn1_err.obj
 0002:000091cc       ??_C@_0O@PIFNMKLH@PKCS5_pbe_set?$AA@ 000711cc     libeay32:asn1_err.obj
 0002:000091dc       ??_C@_0BC@MOMACCIG@PKCS5_pbe2_set_iv?$AA@ 000711dc     libeay32:asn1_err.obj
 0002:000091f0       ??_C@_0O@GFIOGLLN@PARSE_TAGGING?$AA@ 000711f0     libeay32:asn1_err.obj
 0002:00009200       ??_C@_0BA@CHDDCHHF@OID_MODULE_INIT?$AA@ 00071200     libeay32:asn1_err.obj
 0002:00009210       ??_C@_08OCDCJFII@LONG_C2I?$AA@ 00071210     libeay32:asn1_err.obj
 0002:0000921c       ??_C@_0P@ONPLPJGI@i2d_RSA_PUBKEY?$AA@ 0007121c     libeay32:asn1_err.obj
 0002:0000922c       ??_C@_0M@JMAEMJEO@i2d_RSA_NET?$AA@ 0007122c     libeay32:asn1_err.obj
 0002:00009238       ??_C@_0O@HLJNBGGC@i2d_PublicKey?$AA@ 00071238     libeay32:asn1_err.obj
 0002:00009248       ??_C@_0P@NGNEJIKC@i2d_PrivateKey?$AA@ 00071248     libeay32:asn1_err.obj
 0002:00009258       ??_C@_0O@LEOKMPDM@i2d_EC_PUBKEY?$AA@ 00071258     libeay32:asn1_err.obj
 0002:00009268       ??_C@_0P@KLLIPHOA@i2d_DSA_PUBKEY?$AA@ 00071268     libeay32:asn1_err.obj
 0002:00009278       ??_C@_0O@FFBCHNNJ@I2D_ASN1_TIME?$AA@ 00071278     libeay32:asn1_err.obj
 0002:00009288       ??_C@_0N@CLMCOPEP@i2d_ASN1_SET?$AA@ 00071288     libeay32:asn1_err.obj
 0002:00009298       ??_C@_0BE@HGMPHCKG@i2d_ASN1_bio_stream?$AA@ 00071298     libeay32:asn1_err.obj
 0002:000092ac       ??_C@_0O@GAAIFCCL@d2i_X509_PKEY?$AA@ 000712ac     libeay32:asn1_err.obj
 0002:000092bc       ??_C@_0O@PJBLDFKN@D2I_X509_CINF?$AA@ 000712bc     libeay32:asn1_err.obj
 0002:000092cc       ??_C@_08JEFCIDGB@D2I_X509?$AA@ 000712cc     libeay32:asn1_err.obj
 0002:000092d8       ??_C@_0O@PKNCGLPC@D2I_RSA_NET_2?$AA@ 000712d8     libeay32:asn1_err.obj
 0002:000092e8       ??_C@_0M@PHFFEDBA@d2i_RSA_NET?$AA@ 000712e8     libeay32:asn1_err.obj
 0002:000092f4       ??_C@_0O@FCMIGHNH@d2i_PublicKey?$AA@ 000712f4     libeay32:asn1_err.obj
 0002:00009304       ??_C@_0P@GNPGIKNA@d2i_PrivateKey?$AA@ 00071304     libeay32:asn1_err.obj
 0002:00009314       ??_C@_0BD@ICAMCAJL@D2I_NETSCAPE_RSA_2?$AA@ 00071314     libeay32:asn1_err.obj
 0002:00009328       ??_C@_0BB@DAKIIIBF@d2i_Netscape_RSA?$AA@ 00071328     libeay32:asn1_err.obj
 0002:0000933c       ??_C@_0BD@LICMAJCE@d2i_AutoPrivateKey?$AA@ 0007133c     libeay32:asn1_err.obj
 0002:00009350       ??_C@_0BB@LLLJDJLB@D2I_ASN1_UTCTIME?$AA@ 00071350     libeay32:asn1_err.obj
 0002:00009364       ??_C@_0BC@FCANIOOH@d2i_ASN1_UINTEGER?$AA@ 00071364     libeay32:asn1_err.obj
 0002:00009378       ??_C@_0BE@KEADNCBD@d2i_ASN1_type_bytes?$AA@ 00071378     libeay32:asn1_err.obj
 0002:0000938c       ??_C@_0N@KHHKMCDG@d2i_ASN1_SET?$AA@ 0007138c     libeay32:asn1_err.obj
 0002:0000939c       ??_C@_0BA@LJAFIEM@d2i_ASN1_OBJECT?$AA@ 0007139c     libeay32:asn1_err.obj
 0002:000093ac       ??_C@_0BB@PLBPPAFJ@D2I_ASN1_INTEGER?$AA@ 000713ac     libeay32:asn1_err.obj
 0002:000093c0       ??_C@_0BA@JENCNIJP@D2I_ASN1_HEADER?$AA@ 000713c0     libeay32:asn1_err.obj
 0002:000093d0       ??_C@_0BJ@FOGLHODI@D2I_ASN1_GENERALIZEDTIME?$AA@ 000713d0     libeay32:asn1_err.obj
 0002:000093ec       ??_C@_0P@LNLNJINM@d2i_ASN1_bytes?$AA@ 000713ec     libeay32:asn1_err.obj
 0002:000093fc       ??_C@_0BB@IJBCEGPM@d2i_ASN1_BOOLEAN?$AA@ 000713fc     libeay32:asn1_err.obj
 0002:00009410       ??_C@_0BE@KOGEEPAO@D2I_ASN1_BIT_STRING?$AA@ 00071410     libeay32:asn1_err.obj
 0002:00009424       ??_C@_0N@PPLGMNKG@COLLECT_DATA?$AA@ 00071424     libeay32:asn1_err.obj
 0002:00009434       ??_C@_0BA@PGGJKADJ@c2i_ASN1_OBJECT?$AA@ 00071434     libeay32:asn1_err.obj
 0002:00009444       ??_C@_0BB@HNOLIAHG@c2i_ASN1_INTEGER?$AA@ 00071444     libeay32:asn1_err.obj
 0002:00009458       ??_C@_0BE@IJKABKG@c2i_ASN1_BIT_STRING?$AA@ 00071458     libeay32:asn1_err.obj
 0002:0000946c       ??_C@_0BD@HOPLIKO@BN_to_ASN1_INTEGER?$AA@ 0007146c     libeay32:asn1_err.obj
 0002:00009480       ??_C@_0BG@JOMKFIC@BN_to_ASN1_ENUMERATED?$AA@ 00071480     libeay32:asn1_err.obj
 0002:00009498       ??_C@_09MBGLCMPO@BITSTR_CB?$AA@ 00071498     libeay32:asn1_err.obj
 0002:000094a4       ??_C@_0N@HGEFAOJE@BIO_new_NDEF?$AA@ 000714a4     libeay32:asn1_err.obj
 0002:000094b4       ??_C@_0P@DEMKDLLB@B64_WRITE_ASN1?$AA@ 000714b4     libeay32:asn1_err.obj
 0002:000094c4       ??_C@_0O@FEFLOMME@B64_READ_ASN1?$AA@ 000714c4     libeay32:asn1_err.obj
 0002:000094d4       ??_C@_0M@FLJFHODB@ASN1_verify?$AA@ 000714d4     libeay32:asn1_err.obj
 0002:000094e0       ??_C@_0BB@IOFLGDHP@ASN1_UTCTIME_set?$AA@ 000714e0     libeay32:asn1_err.obj
 0002:000094f4       ??_C@_0BB@KBMIKJID@ASN1_UTCTIME_adj?$AA@ 000714f4     libeay32:asn1_err.obj
 0002:00009508       ??_C@_0BD@PPGFNCOC@ASN1_unpack_string?$AA@ 00071508     libeay32:asn1_err.obj
 0002:0000951c       ??_C@_0BK@BAIAADBG@ASN1_TYPE_get_octetstring?$AA@ 0007151c     libeay32:asn1_err.obj
 0002:00009538       ??_C@_0BO@BBFILFPI@ASN1_TYPE_get_int_octetstring?$AA@ 00071538     libeay32:asn1_err.obj
 0002:00009558       ??_C@_0O@JLLIECHM@ASN1_TIME_set?$AA@ 00071558     libeay32:asn1_err.obj
 0002:00009568       ??_C@_0O@LECLIIIA@ASN1_TIME_adj?$AA@ 00071568     libeay32:asn1_err.obj
 0002:00009578       ??_C@_0BI@IBDIODGE@ASN1_TEMPLATE_NOEXP_D2I?$AA@ 00071578     libeay32:asn1_err.obj
 0002:00009590       ??_C@_0BC@MAPIMCN@ASN1_TEMPLATE_NEW?$AA@ 00071590     libeay32:asn1_err.obj
 0002:000095a4       ??_C@_0BF@KIABBLMP@ASN1_TEMPLATE_EX_D2I?$AA@ 000715a4     libeay32:asn1_err.obj
 0002:000095bc       ??_C@_0BF@PEOOGBEK@ASN1_STRING_type_new?$AA@ 000715bc     libeay32:asn1_err.obj
 0002:000095d4       ??_C@_0BG@HPBLJLKM@ASN1_STRING_TABLE_add?$AA@ 000715d4     libeay32:asn1_err.obj
 0002:000095ec       ??_C@_0BA@OJKOPFKM@ASN1_STRING_set?$AA@ 000715ec     libeay32:asn1_err.obj
 0002:000095fc       ??_C@_0O@MDHEIEJD@ASN1_STR2TYPE?$AA@ 000715fc     libeay32:asn1_err.obj
 0002:0000960c       ??_C@_09KHLDPLKF@ASN1_sign?$AA@ 0007160c     libeay32:asn1_err.obj
 0002:00009618       ??_C@_0BA@BDDKOFAM@ASN1_seq_unpack?$AA@ 00071618     libeay32:asn1_err.obj
 0002:00009628       ??_C@_0O@GOCJGBDJ@ASN1_seq_pack?$AA@ 00071628     libeay32:asn1_err.obj
 0002:00009638       ??_C@_0BD@LCDDBKEK@ASN1_PKCS5_PBE_SET?$AA@ 00071638     libeay32:asn1_err.obj
 0002:0000964c       ??_C@_0O@JDMEBLGB@ASN1_PCTX_new?$AA@ 0007164c     libeay32:asn1_err.obj
 0002:0000965c       ??_C@_0BB@PMAOEIM@ASN1_pack_string?$AA@ 0007165c     libeay32:asn1_err.obj
 0002:00009670       ??_C@_0BB@IAPBHFJD@ASN1_OUTPUT_DATA?$AA@ 00071670     libeay32:asn1_err.obj
 0002:00009684       ??_C@_0BA@EKIOGKFN@ASN1_OBJECT_new?$AA@ 00071684     libeay32:asn1_err.obj
 0002:00009694       ??_C@_0BE@MAJEFFDP@ASN1_mbstring_ncopy?$AA@ 00071694     libeay32:asn1_err.obj
 0002:000096a8       ??_C@_0BB@HPDEMCFL@ASN1_item_verify?$AA@ 000716a8     libeay32:asn1_err.obj
 0002:000096bc       ??_C@_0BB@OFFAOBLC@ASN1_item_unpack?$AA@ 000716bc     libeay32:asn1_err.obj
 0002:000096d0       ??_C@_0BD@DOHFNFJI@ASN1_item_sign_ctx?$AA@ 000716d0     libeay32:asn1_err.obj
 0002:000096e4       ??_C@_0P@GCFCEBPI@ASN1_item_sign?$AA@ 000716e4     libeay32:asn1_err.obj
 0002:000096f4       ??_C@_0P@JKDIEPFO@ASN1_item_pack?$AA@ 000716f4     libeay32:asn1_err.obj
 0002:00009704       ??_C@_0BB@BEALGICF@ASN1_item_i2d_fp?$AA@ 00071704     libeay32:asn1_err.obj
 0002:00009718       ??_C@_0BC@DFOAKHOP@ASN1_item_i2d_bio?$AA@ 00071718     libeay32:asn1_err.obj
 0002:0000972c       ??_C@_0BB@NCKAJAHC@ASN1_ITEM_EX_D2I?$AA@ 0007172c     libeay32:asn1_err.obj
 0002:00009740       ??_C@_0BJ@GMGFBPBH@ASN1_ITEM_EX_COMBINE_NEW?$AA@ 00071740     libeay32:asn1_err.obj
 0002:0000975c       ??_C@_0O@PICHNKKH@ASN1_item_dup?$AA@ 0007175c     libeay32:asn1_err.obj
 0002:0000976c       ??_C@_0BB@INEMMNFE@ASN1_item_d2i_fp?$AA@ 0007176c     libeay32:asn1_err.obj
 0002:00009780       ??_C@_0BD@EHPGDINP@ASN1_INTEGER_to_BN?$AA@ 00071780     libeay32:asn1_err.obj
 0002:00009794       ??_C@_0BB@INGPPNJI@ASN1_INTEGER_set?$AA@ 00071794     libeay32:asn1_err.obj
 0002:000097a8       ??_C@_0M@DAKKNEEP@ASN1_i2d_fp?$AA@ 000717a8     libeay32:asn1_err.obj
 0002:000097b4       ??_C@_0N@JIKDIOBF@ASN1_i2d_bio?$AA@ 000717b4     libeay32:asn1_err.obj
 0002:000097c4       ??_C@_0BA@HHOEOBLP@ASN1_HEADER_NEW?$AA@ 000717c4     libeay32:asn1_err.obj
 0002:000097d4       ??_C@_0BA@JLIGACBL@ASN1_get_object?$AA@ 000717d4     libeay32:asn1_err.obj
 0002:000097e4       ??_C@_0BB@KDPFLPEI@ASN1_generate_v3?$AA@ 000717e4     libeay32:asn1_err.obj
 0002:000097f8       ??_C@_0BJ@KHKMKKCA@ASN1_GENERALIZEDTIME_set?$AA@ 000717f8     libeay32:asn1_err.obj
 0002:00009814       ??_C@_0BJ@IIDPGANM@ASN1_GENERALIZEDTIME_adj?$AA@ 00071814     libeay32:asn1_err.obj
 0002:00009830       ??_C@_0O@NNCENJDM@ASN1_FIND_END?$AA@ 00071830     libeay32:asn1_err.obj
 0002:00009840       ??_C@_0M@DINHMBPN@ASN1_EX_C2I?$AA@ 00071840     libeay32:asn1_err.obj
 0002:0000984c       ??_C@_0BG@DAFILAFG@ASN1_ENUMERATED_to_BN?$AA@ 0007184c     libeay32:asn1_err.obj
 0002:00009864       ??_C@_0BE@IJNOKPHE@ASN1_ENUMERATED_set?$AA@ 00071864     libeay32:asn1_err.obj
 0002:00009878       ??_C@_08KDKGDJBP@ASN1_dup?$AA@ 00071878     libeay32:asn1_err.obj
 0002:00009884       ??_C@_0M@JJPCPNMI@ASN1_DO_ADB?$AA@ 00071884     libeay32:asn1_err.obj
 0002:00009890       ??_C@_0M@JBIDILDB@ASN1_digest?$AA@ 00071890     libeay32:asn1_err.obj
 0002:0000989c       ??_C@_0BC@HGCNEDND@ASN1_D2I_READ_BIO?$AA@ 0007189c     libeay32:asn1_err.obj
 0002:000098b0       ??_C@_0M@KJONHBDO@ASN1_d2i_fp?$AA@ 000718b0     libeay32:asn1_err.obj
 0002:000098bc       ??_C@_0BG@BGPEICDG@ASN1_D2I_EX_PRIMITIVE?$AA@ 000718bc     libeay32:asn1_err.obj
 0002:000098d4       ??_C@_0N@IFJIJAOA@ASN1_COLLECT?$AA@ 000718d4     libeay32:asn1_err.obj
 0002:000098e4       ??_C@_0BH@GHEGGMCL@ASN1_COLLATE_PRIMITIVE?$AA@ 000718e4     libeay32:asn1_err.obj
 0002:000098fc       ??_C@_0BA@FMGKINFP@ASN1_CHECK_TLEN?$AA@ 000718fc     libeay32:asn1_err.obj
 0002:0000990c       ??_C@_07OHDJOKAP@ASN1_CB?$AA@ 0007190c     libeay32:asn1_err.obj
 0002:00009914       ??_C@_0BI@BKJIJOJH@ASN1_BIT_STRING_set_bit?$AA@ 00071914     libeay32:asn1_err.obj
 0002:0000992c       ??_C@_0L@GHOFBHJM@APPEND_EXP?$AA@ 0007192c     libeay32:asn1_err.obj
 0002:00009938       ??_C@_0BA@HHEJCDFM@a2i_ASN1_STRING?$AA@ 00071938     libeay32:asn1_err.obj
 0002:00009948       ??_C@_0BB@KJNHBALB@a2i_ASN1_INTEGER?$AA@ 00071948     libeay32:asn1_err.obj
 0002:0000995c       ??_C@_0BE@FAEKMPBO@a2i_ASN1_ENUMERATED?$AA@ 0007195c     libeay32:asn1_err.obj
 0002:00009970       ??_C@_0BA@MGDDPFAB@a2d_ASN1_OBJECT?$AA@ 00071970     libeay32:asn1_err.obj
 0002:00009980       ??_C@_0BC@LGGDOKM@wrong?5lookup?5type?$AA@ 00071980     libeay32:x509_err.obj
 0002:00009994       ??_C@_0BG@BLGKMDGK@unsupported?5algorithm?$AA@ 00071994     libeay32:x509_err.obj
 0002:000099ac       ??_C@_0BB@MKMAIEDB@unknown?5trust?5id?$AA@ 000719ac     libeay32:x509_err.obj
 0002:000099c0       ??_C@_0BD@OMLBEGJA@unknown?5purpose?5id?$AA@ 000719c0     libeay32:x509_err.obj
 0002:000099d4       ??_C@_0BB@DOJEMIBI@unknown?5key?5type?$AA@ 000719d4     libeay32:x509_err.obj
 0002:000099e8       ??_C@_0BP@NPEJCEFK@unable?5to?5get?5certs?5public?5key?$AA@ 000719e8     libeay32:x509_err.obj
 0002:00009a08       ??_C@_0CD@IFPIKENM@unable?5to?5find?5parameters?5in?5cha@ 00071a08     libeay32:x509_err.obj
 0002:00009a2c       ??_C@_0N@HBABGHDD@should?5retry?$AA@ 00071a2c     libeay32:x509_err.obj
 0002:00009a3c       ??_C@_0BI@NFEHIHA@public?5key?5encode?5error?$AA@ 00071a3c     libeay32:x509_err.obj
 0002:00009a54       ??_C@_0BI@KBFAAFPL@public?5key?5decode?5error?$AA@ 00071a54     libeay32:x509_err.obj
 0002:00009a6c       ??_C@_0BN@FFJPEMJE@no?5cert?5set?5for?5us?5to?5verify?$AA@ 00071a6c     libeay32:x509_err.obj
 0002:00009a8c       ??_C@_0BF@DJGECKGG@method?5not?5supported?$AA@ 00071a8c     libeay32:x509_err.obj
 0002:00009aa4       ??_C@_0BB@NCCHLMLI@loading?5defaults?$AA@ 00071aa4     libeay32:x509_err.obj
 0002:00009ab8       ??_C@_0BB@EOGOJDLC@loading?5cert?5dir?$AA@ 00071ab8     libeay32:x509_err.obj
 0002:00009acc       ??_C@_0BE@OFOHOJCA@key?5values?5mismatch?$AA@ 00071acc     libeay32:x509_err.obj
 0002:00009ae0       ??_C@_0BC@KHIFLHIK@key?5type?5mismatch?$AA@ 00071ae0     libeay32:x509_err.obj
 0002:00009af4       ??_C@_0O@FAFEMPKC@invalid?5trust?$AA@ 00071af4     libeay32:x509_err.obj
 0002:00009b04       ??_C@_0BD@EICHIIFO@invalid?5field?5name?$AA@ 00071b04     libeay32:x509_err.obj
 0002:00009b18       ??_C@_0BC@BHJBNJAG@invalid?5directory?$AA@ 00071b18     libeay32:x509_err.obj
 0002:00009b2c       ??_C@_0N@BPKBFJKI@err?5asn1?5lib?$AA@ 00071b2c     libeay32:x509_err.obj
 0002:00009b3c       ??_C@_0BL@PBNJDLDJ@cert?5already?5in?5hash?5table?$AA@ 00071b3c     libeay32:x509_err.obj
 0002:00009b58       ??_C@_0BC@JOEACAAF@cant?5check?5dh?5key?$AA@ 00071b58     libeay32:x509_err.obj
 0002:00009b6c       ??_C@_0BE@KBNKALIF@base64?5decode?5error?$AA@ 00071b6c     libeay32:x509_err.obj
 0002:00009b80       ??_C@_0BC@ICNCOGNN@bad?5x509?5filetype?$AA@ 00071b80     libeay32:x509_err.obj
 0002:00009b94       ??_C@_0BB@ECODCNHD@X509_verify_cert?$AA@ 00071b94     libeay32:x509_err.obj
 0002:00009ba8       ??_C@_0P@JBMPNPNG@X509_TRUST_set?$AA@ 00071ba8     libeay32:x509_err.obj
 0002:00009bb8       ??_C@_0P@CANPDIKE@X509_TRUST_add?$AA@ 00071bb8     libeay32:x509_err.obj
 0002:00009bc8       ??_C@_0BB@NLPDCJDM@X509_to_X509_REQ?$AA@ 00071bc8     libeay32:x509_err.obj
 0002:00009bdc       ??_C@_0BP@KJILIOLI@X509_STORE_CTX_purpose_inherit?$AA@ 00071bdc     libeay32:x509_err.obj
 0002:00009bfc       ??_C@_0BD@NAAKLPIL@X509_STORE_CTX_new?$AA@ 00071bfc     libeay32:x509_err.obj
 0002:00009c10       ??_C@_0BE@ECHADJIO@X509_STORE_CTX_init?$AA@ 00071c10     libeay32:x509_err.obj
 0002:00009c24       ??_C@_0BL@BBMOOAME@X509_STORE_CTX_get1_issuer?$AA@ 00071c24     libeay32:x509_err.obj
 0002:00009c40       ??_C@_0BD@PCLHBOJG@X509_STORE_add_crl?$AA@ 00071c40     libeay32:x509_err.obj
 0002:00009c54       ??_C@_0BE@IJLLNMMB@X509_STORE_add_cert?$AA@ 00071c54     libeay32:x509_err.obj
 0002:00009c68       ??_C@_0BB@DHKMDCNJ@X509_REQ_to_X509?$AA@ 00071c68     libeay32:x509_err.obj
 0002:00009c7c       ??_C@_0BC@BCPDEBLL@X509_REQ_print_fp?$AA@ 00071c7c     libeay32:x509_err.obj
 0002:00009c90       ??_C@_0BC@NIGMHFOK@X509_REQ_print_ex?$AA@ 00071c90     libeay32:x509_err.obj
 0002:00009ca4       ??_C@_0BL@BBAELMEH@X509_REQ_check_private_key?$AA@ 00071ca4     libeay32:x509_err.obj
 0002:00009cc0       ??_C@_0BA@GKNPBOHH@X509_PUBKEY_set?$AA@ 00071cc0     libeay32:x509_err.obj
 0002:00009cd0       ??_C@_0BA@LFKENOLP@X509_PUBKEY_get?$AA@ 00071cd0     libeay32:x509_err.obj
 0002:00009ce0       ??_C@_0BB@FBMLCAMI@X509_print_ex_fp?$AA@ 00071ce0     libeay32:x509_err.obj
 0002:00009cf4       ??_C@_0BA@JLIECJBK@X509_NAME_print?$AA@ 00071cf4     libeay32:x509_err.obj
 0002:00009d04       ??_C@_0BC@CMIEJJP@X509_NAME_oneline?$AA@ 00071d04     libeay32:x509_err.obj
 0002:00009d18       ??_C@_0BL@LBCOMPFN@X509_NAME_ENTRY_set_object?$AA@ 00071d18     libeay32:x509_err.obj
 0002:00009d34       ??_C@_0BO@OEKCNPAD@X509_NAME_ENTRY_create_by_txt?$AA@ 00071d34     libeay32:x509_err.obj
 0002:00009d54       ??_C@_0BO@IBNLHOJC@X509_NAME_ENTRY_create_by_NID?$AA@ 00071d54     libeay32:x509_err.obj
 0002:00009d74       ??_C@_0BE@BBPAOGFF@X509_NAME_add_entry?$AA@ 00071d74     libeay32:x509_err.obj
 0002:00009d88       ??_C@_0BD@INIDJHGH@X509_load_crl_file?$AA@ 00071d88     libeay32:x509_err.obj
 0002:00009d9c       ??_C@_0BE@DONBIDEA@X509_load_cert_file?$AA@ 00071d9c     libeay32:x509_err.obj
 0002:00009db0       ??_C@_0BI@OGJJMPCK@X509_load_cert_crl_file?$AA@ 00071db0     libeay32:x509_err.obj
 0002:00009dc8       ??_C@_0BL@MNBNHJHC@X509_get_pubkey_parameters?$AA@ 00071dc8     libeay32:x509_err.obj
 0002:00009de4       ??_C@_0BN@PKALOJGD@X509_EXTENSION_create_by_OBJ?$AA@ 00071de4     libeay32:x509_err.obj
 0002:00009e04       ??_C@_0BN@NAGBEMGJ@X509_EXTENSION_create_by_NID?$AA@ 00071e04     libeay32:x509_err.obj
 0002:00009e24       ??_C@_0BC@GGIALDFL@X509_CRL_print_fp?$AA@ 00071e24     libeay32:x509_err.obj
 0002:00009e38       ??_C@_0BH@NDKJLKDD@X509_check_private_key?$AA@ 00071e38     libeay32:x509_err.obj
 0002:00009e50       ??_C@_0BJ@IBAEDLOI@X509_ATTRIBUTE_set1_data?$AA@ 00071e50     libeay32:x509_err.obj
 0002:00009e6c       ??_C@_0BJ@JDGBBMO@X509_ATTRIBUTE_get0_data?$AA@ 00071e6c     libeay32:x509_err.obj
 0002:00009e88       ??_C@_0BN@BBEGJLKP@X509_ATTRIBUTE_create_by_txt?$AA@ 00071e88     libeay32:x509_err.obj
 0002:00009ea8       ??_C@_0BN@FOFFJPDE@X509_ATTRIBUTE_create_by_OBJ?$AA@ 00071ea8     libeay32:x509_err.obj
 0002:00009ec8       ??_C@_0BN@HEDPDKDO@X509_ATTRIBUTE_create_by_NID?$AA@ 00071ec8     libeay32:x509_err.obj
 0002:00009ee8       ??_C@_0P@KHNPGPEM@X509v3_add_ext?$AA@ 00071ee8     libeay32:x509_err.obj
 0002:00009ef8       ??_C@_0BB@FBCHBIJK@X509at_add1_attr?$AA@ 00071ef8     libeay32:x509_err.obj
 0002:00009f0c       ??_C@_0BJ@KPNMIPMN@NETSCAPE_SPKI_b64_encode?$AA@ 00071f0c     libeay32:x509_err.obj
 0002:00009f28       ??_C@_0BJ@GDGMHELK@NETSCAPE_SPKI_b64_decode?$AA@ 00071f28     libeay32:x509_err.obj
 0002:00009f44       ??_C@_0BE@GHOMHOGE@GET_CERT_BY_SUBJECT?$AA@ 00071f44     libeay32:x509_err.obj
 0002:00009f58       ??_C@_08INAAGCJL@DIR_CTRL?$AA@ 00071f58     libeay32:x509_err.obj
 0002:00009f64       ??_C@_0N@HLJBNGNN@CHECK_POLICY?$AA@ 00071f64     libeay32:x509_err.obj
 0002:00009f74       ??_C@_0N@HLEKGBLM@BY_FILE_CTRL?$AA@ 00071f74     libeay32:x509_err.obj
 0002:00009f84       ??_C@_0N@HBLPJFKJ@ADD_CERT_DIR?$AA@ 00071f84     libeay32:x509_err.obj
 0002:00009f94       ??_C@_0BJ@IPDNKHNA@parameter?5encoding?5error?$AA@ 00071f94     libeay32:dsa_err.obj
 0002:00009fb0       ??_C@_0BE@NIODNBMA@non?5fips?5dsa?5method?$AA@ 00071fb0     libeay32:dsa_err.obj
 0002:00009fc4       ??_C@_0BC@MALNKACF@modulus?5too?5large?$AA@ 00071fc4     libeay32:dsa_err.obj
 0002:00009fd8       ??_C@_08CFCABLFO@bn?5error?$AA@ 00071fd8     libeay32:dsa_err.obj
 0002:00009fe4       ??_C@_0BA@EKELKIMH@bn?5decode?5error?$AA@ 00071fe4     libeay32:dsa_err.obj
 0002:00009ff4       ??_C@_0M@GGMKMBAH@bad?5q?5value?$AA@ 00071ff4     libeay32:dsa_err.obj
 0002:0000a000       ??_C@_06JBNHANLM@SIG_CB?$AA@ 00072000     libeay32:dsa_err.obj
 0002:0000a008       ??_C@_0BA@IJFHDLPP@PKEY_DSA_KEYGEN?$AA@ 00072008     libeay32:dsa_err.obj
 0002:0000a018       ??_C@_0O@JPJMLPFD@PKEY_DSA_CTRL?$AA@ 00072018     libeay32:dsa_err.obj
 0002:0000a028       ??_C@_0BE@IEPLBFML@OLD_DSA_PRIV_DECODE?$AA@ 00072028     libeay32:dsa_err.obj
 0002:0000a03c       ??_C@_0M@OMFGMGFG@i2d_DSA_SIG?$AA@ 0007203c     libeay32:dsa_err.obj
 0002:0000a048       ??_C@_0L@EFDPOKOI@DSA_verify?$AA@ 00072048     libeay32:dsa_err.obj
 0002:0000a054       ??_C@_0O@FINEBGNM@DSA_SIG_PRINT?$AA@ 00072054     libeay32:dsa_err.obj
 0002:0000a064       ??_C@_0M@NNDPCMII@DSA_SIG_new?$AA@ 00072064     libeay32:dsa_err.obj
 0002:0000a070       ??_C@_0P@DKMFDODF@DSA_sign_setup?$AA@ 00072070     libeay32:dsa_err.obj
 0002:0000a080       ??_C@_08BADPDAIK@DSA_sign?$AA@ 00072080     libeay32:dsa_err.obj
 0002:0000a08c       ??_C@_0P@EDAMBOLM@DSA_PUB_ENCODE?$AA@ 0007208c     libeay32:dsa_err.obj
 0002:0000a09c       ??_C@_0P@IPLMOFML@DSA_PUB_DECODE?$AA@ 0007209c     libeay32:dsa_err.obj
 0002:0000a0ac       ??_C@_0BA@HCDDHKCG@DSA_PRIV_ENCODE?$AA@ 000720ac     libeay32:dsa_err.obj
 0002:0000a0bc       ??_C@_0BA@LOIDIBFB@DSA_PRIV_DECODE?$AA@ 000720bc     libeay32:dsa_err.obj
 0002:0000a0cc       ??_C@_0N@FHNMHEON@DSA_print_fp?$AA@ 000720cc     libeay32:dsa_err.obj
 0002:0000a0dc       ??_C@_0BB@GCAFBAKF@DSA_PARAM_DECODE?$AA@ 000720dc     libeay32:dsa_err.obj
 0002:0000a0f0       ??_C@_0P@DCBPLEPO@DSA_new_method?$AA@ 000720f0     libeay32:dsa_err.obj
 0002:0000a100       ??_C@_0BL@DJBIHDLO@DSA_generate_parameters_ex?$AA@ 00072100     libeay32:dsa_err.obj
 0002:0000a11c       ??_C@_0BB@GJMCJIMO@DSA_generate_key?$AA@ 0007211c     libeay32:dsa_err.obj
 0002:0000a130       ??_C@_0O@PFFLHJPG@DSA_do_verify?$AA@ 00072130     libeay32:dsa_err.obj
 0002:0000a140       ??_C@_0M@BALNHNHG@DSA_do_sign?$AA@ 00072140     libeay32:dsa_err.obj
 0002:0000a14c       ??_C@_0BD@IOGFPALM@DSAparams_print_fp?$AA@ 0007214c     libeay32:dsa_err.obj
 0002:0000a160       ??_C@_0BA@KGFLHLGF@DSAparams_print?$AA@ 00072160     libeay32:dsa_err.obj
 0002:0000a170       ??_C@_0N@MELIHJBG@DO_DSA_PRINT?$AA@ 00072170     libeay32:dsa_err.obj
 0002:0000a180       ??_C@_0M@IHAHEMAI@d2i_DSA_SIG?$AA@ 00072180     libeay32:dsa_err.obj
 0002:0000a18c       ??_C@_0BL@CLLIPDJK@unsupported?5key?5components?$AA@ 0007218c     libeay32:pem_err.obj
 0002:0000a1a8       ??_C@_0BH@MFJKMGEH@unsupported?5encryption?$AA@ 000721a8     libeay32:pem_err.obj
 0002:0000a1c0       ??_C@_0N@BPCBMEGI@short?5header?$AA@ 000721c0     libeay32:pem_err.obj
 0002:0000a1d0       ??_C@_08HMALDALC@read?5key?$AA@ 000721d0     libeay32:pem_err.obj
 0002:0000a1dc       ??_C@_0O@OAPPJFJD@pvk?5too?5short?$AA@ 000721dc     libeay32:pem_err.obj
 0002:0000a1ec       ??_C@_0BD@DMFCDEBJ@pvk?5data?5too?5short?$AA@ 000721ec     libeay32:pem_err.obj
 0002:0000a200       ??_C@_0BC@BIPPFHLM@public?5key?5no?5rsa?$AA@ 00072200     libeay32:pem_err.obj
 0002:0000a214       ??_C@_0BK@CGJEFKNB@problems?5getting?5password?$AA@ 00072214     libeay32:pem_err.obj
 0002:0000a230       ??_C@_0O@DKBLDABL@no?5start?5line?$AA@ 00072230     libeay32:pem_err.obj
 0002:0000a240       ??_C@_0O@CLGKLHJP@not?5proc?5type?$AA@ 00072240     libeay32:pem_err.obj
 0002:0000a250       ??_C@_0O@BJICLJJL@not?5encrypted?$AA@ 00072250     libeay32:pem_err.obj
 0002:0000a260       ??_C@_0N@KJIDIIOD@not?5dek?5info?$AA@ 00072260     libeay32:pem_err.obj
 0002:0000a270       ??_C@_0BC@MBNBFBPC@keyblob?5too?5short?$AA@ 00072270     libeay32:pem_err.obj
 0002:0000a284       ??_C@_0BL@PPCIIBKB@keyblob?5header?5parse?5error?$AA@ 00072284     libeay32:pem_err.obj
 0002:0000a2a0       ??_C@_0BE@HFKFNLMC@inconsistent?5header?$AA@ 000722a0     libeay32:pem_err.obj
 0002:0000a2b4       ??_C@_0BK@ENINHDOJ@expecting?5public?5key?5blob?$AA@ 000722b4     libeay32:pem_err.obj
 0002:0000a2d0       ??_C@_0BL@EIEIICDL@expecting?5private?5key?5blob?$AA@ 000722d0     libeay32:pem_err.obj
 0002:0000a2ec       ??_C@_0BN@CDIOJAJE@error?5converting?5private?5key?$AA@ 000722ec     libeay32:pem_err.obj
 0002:0000a30c       ??_C@_0P@HLGONDJI@cipher?5is?5null?$AA@ 0007230c     libeay32:pem_err.obj
 0002:0000a31c       ??_C@_0BC@BHJBCHGF@bio?5write?5failure?$AA@ 0007231c     libeay32:pem_err.obj
 0002:0000a330       ??_C@_0BD@MFHMFAKA@bad?5version?5number?$AA@ 00072330     libeay32:pem_err.obj
 0002:0000a344       ??_C@_0BB@BCJFFBLF@bad?5magic?5number?$AA@ 00072344     libeay32:pem_err.obj
 0002:0000a358       ??_C@_0N@CABOMBAE@bad?5iv?5chars?$AA@ 00072358     libeay32:pem_err.obj
 0002:0000a368       ??_C@_0N@GJGMFAMK@bad?5end?5line?$AA@ 00072368     libeay32:pem_err.obj
 0002:0000a378       ??_C@_0M@CCMJMLK@bad?5decrypt?$AA@ 00072378     libeay32:pem_err.obj
 0002:0000a384       ??_C@_0BC@FIJDAKN@bad?5base64?5decode?$AA@ 00072384     libeay32:pem_err.obj
 0002:0000a398       ??_C@_0BI@DHEEHMMN@PEM_X509_INFO_write_bio?$AA@ 00072398     libeay32:pem_err.obj
 0002:0000a3b0       ??_C@_0BH@POEFLIJP@PEM_X509_INFO_read_bio?$AA@ 000723b0     libeay32:pem_err.obj
 0002:0000a3c8       ??_C@_0BD@DEKDGILE@PEM_X509_INFO_read?$AA@ 000723c8     libeay32:pem_err.obj
 0002:0000a3dc       ??_C@_0BF@NOILBCKA@PEM_WRITE_PRIVATEKEY?$AA@ 000723dc     libeay32:pem_err.obj
 0002:0000a3f4       ??_C@_0O@CHBCLEEH@PEM_write_bio?$AA@ 000723f4     libeay32:pem_err.obj
 0002:0000a404       ??_C@_09MOAIHANK@PEM_write?$AA@ 00072404     libeay32:pem_err.obj
 0002:0000a410       ??_C@_0O@FJKEJNIO@PEM_SignFinal?$AA@ 00072410     libeay32:pem_err.obj
 0002:0000a420       ??_C@_0N@HGOGKII@PEM_SealInit?$AA@ 00072420     libeay32:pem_err.obj
 0002:0000a430       ??_C@_0O@OOGAHGDE@PEM_SealFinal?$AA@ 00072430     libeay32:pem_err.obj
 0002:0000a440       ??_C@_0BE@FKKHCPGB@PEM_READ_PRIVATEKEY?$AA@ 00072440     libeay32:pem_err.obj
 0002:0000a454       ??_C@_0BI@MIECOFDA@PEM_READ_BIO_PRIVATEKEY?$AA@ 00072454     libeay32:pem_err.obj
 0002:0000a46c       ??_C@_0BI@IEHAIIOA@PEM_read_bio_Parameters?$AA@ 0007246c     libeay32:pem_err.obj
 0002:0000a484       ??_C@_0N@HCPHGIAF@PEM_read_bio?$AA@ 00072484     libeay32:pem_err.obj
 0002:0000a494       ??_C@_08BFLDHDBP@PEM_read?$AA@ 00072494     libeay32:pem_err.obj
 0002:0000a4a0       ??_C@_0M@ELMMDKMC@PEM_PK8PKEY?$AA@ 000724a0     libeay32:pem_err.obj
 0002:0000a4ac       ??_C@_0BI@EHMJGDHN@PEM_get_EVP_CIPHER_INFO?$AA@ 000724ac     libeay32:pem_err.obj
 0002:0000a4c4       ??_C@_0CA@LGAAOEPD@PEM_F_PEM_WRITE_PKCS8PRIVATEKEY?$AA@ 000724c4     libeay32:pem_err.obj
 0002:0000a4e4       ??_C@_0O@JINEELIJ@PEM_do_header?$AA@ 000724e4     libeay32:pem_err.obj
 0002:0000a4f4       ??_C@_0BB@HPAACPJ@PEM_def_callback?$AA@ 000724f4     libeay32:pem_err.obj
 0002:0000a508       ??_C@_0BD@OMDPFNGK@PEM_ASN1_write_bio?$AA@ 00072508     libeay32:pem_err.obj
 0002:0000a51c       ??_C@_0P@IAMHDFGD@PEM_ASN1_write?$AA@ 0007251c     libeay32:pem_err.obj
 0002:0000a52c       ??_C@_0BC@DOKNMJLF@PEM_ASN1_read_bio?$AA@ 0007252c     libeay32:pem_err.obj
 0002:0000a540       ??_C@_0O@NOHFJOPN@PEM_ASN1_read?$AA@ 00072540     libeay32:pem_err.obj
 0002:0000a550       ??_C@_07DPBPIGIN@LOAD_IV?$AA@ 00072550     libeay32:pem_err.obj
 0002:0000a558       ??_C@_0M@MHJNPCIP@i2b_PVK_bio?$AA@ 00072558     libeay32:pem_err.obj
 0002:0000a564       ??_C@_07NLJBHFDI@I2B_PVK?$AA@ 00072564     libeay32:pem_err.obj
 0002:0000a56c       ??_C@_0O@BJHOEGAF@DO_PVK_HEADER?$AA@ 0007256c     libeay32:pem_err.obj
 0002:0000a57c       ??_C@_0M@BNIBCFCG@DO_PVK_BODY?$AA@ 0007257c     libeay32:pem_err.obj
 0002:0000a588       ??_C@_0O@NDAGLHK@DO_PK8PKEY_FP?$AA@ 00072588     libeay32:pem_err.obj
 0002:0000a598       ??_C@_0L@KCJOBILA@DO_PK8PKEY?$AA@ 00072598     libeay32:pem_err.obj
 0002:0000a5a4       ??_C@_0P@OFONBJGL@DO_BLOB_HEADER?$AA@ 000725a4     libeay32:pem_err.obj
 0002:0000a5b4       ??_C@_0L@MPFEPBJC@DO_B2I_BIO?$AA@ 000725b4     libeay32:pem_err.obj
 0002:0000a5c0       ??_C@_06KBNDMEEM@DO_B2I?$AA@ 000725c0     libeay32:pem_err.obj
 0002:0000a5c8       ??_C@_0BH@EPJFGPLK@d2i_PKCS8PrivateKey_fp?$AA@ 000725c8     libeay32:pem_err.obj
 0002:0000a5e0       ??_C@_0BI@FFALLHDN@d2i_PKCS8PrivateKey_bio?$AA@ 000725e0     libeay32:pem_err.obj
 0002:0000a5f8       ??_C@_0BB@HHBHKOOO@CHECK_BITLEN_RSA?$AA@ 000725f8     libeay32:pem_err.obj
 0002:0000a60c       ??_C@_0BB@CGFKGKN@CHECK_BITLEN_DSA?$AA@ 0007260c     libeay32:pem_err.obj
 0002:0000a620       ??_C@_07LKBBHLEH@B2I_RSA?$AA@ 00072620     libeay32:pem_err.obj
 0002:0000a628       ??_C@_0M@EOOPKNHG@b2i_PVK_bio?$AA@ 00072628     libeay32:pem_err.obj
 0002:0000a634       ??_C@_07LHJHADNH@B2I_DSS?$AA@ 00072634     libeay32:pem_err.obj
 0002:0000a63c       ??_C@_0L@ODBGAEPJ@OBJ_nid2sn?$AA@ 0007263c     libeay32:obj_err.obj
 0002:0000a648       ??_C@_0M@EIEFMONC@OBJ_nid2obj?$AA@ 00072648     libeay32:obj_err.obj
 0002:0000a654       ??_C@_0L@PEGMOALE@OBJ_nid2ln?$AA@ 00072654     libeay32:obj_err.obj
 0002:0000a660       ??_C@_0BD@EBGMNDBO@OBJ_NAME_new_index?$AA@ 00072660     libeay32:obj_err.obj
 0002:0000a674       ??_C@_07GEDFFGIO@OBJ_dup?$AA@ 00072674     libeay32:obj_err.obj
 0002:0000a67c       ??_C@_0L@OJLDNBND@OBJ_create?$AA@ 0007267c     libeay32:obj_err.obj
 0002:0000a688       ??_C@_0P@PNBAKKGP@OBJ_add_object?$AA@ 00072688     libeay32:obj_err.obj
 0002:0000a698       ??_C@_0M@PMIFCMGN@BUF_strndup?$AA@ 00072698     libeay32:buf_err.obj
 0002:0000a6a4       ??_C@_0L@GDIPLNAB@BUF_strdup?$AA@ 000726a4     libeay32:buf_err.obj
 0002:0000a6b0       ??_C@_0M@DHGBDCFJ@BUF_MEM_new?$AA@ 000726b0     libeay32:buf_err.obj
 0002:0000a6bc       ??_C@_0BD@IAEPNGDK@BUF_MEM_grow_clean?$AA@ 000726bc     libeay32:buf_err.obj
 0002:0000a6d0       ??_C@_0N@KABFJIMM@BUF_MEM_grow?$AA@ 000726d0     libeay32:buf_err.obj
 0002:0000a6e0       ??_C@_0L@HOFEILPP@BUF_memdup?$AA@ 000726e0     libeay32:buf_err.obj
 0002:0000a6ec       ??_C@_0BJ@GMMEOCIA@wrong?5final?5block?5length?$AA@ 000726ec     libeay32:evp_err.obj
 0002:0000a708       ??_C@_0BG@HNPLFI@unsupported?5salt?5type?$AA@ 00072708     libeay32:evp_err.obj
 0002:0000a720       ??_C@_0CC@DLEFGHNG@unsupported?5private?5key?5algorith@ 00072720     libeay32:evp_err.obj
 0002:0000a744       ??_C@_0BA@KAOPPHHA@unsupported?5prf?$AA@ 00072744     libeay32:evp_err.obj
 0002:0000a754       ??_C@_0BF@JJLLLINI@unsupported?5key?5size?$AA@ 00072754     libeay32:evp_err.obj
 0002:0000a76c       ??_C@_0CE@LAMCIFFJ@unsupported?5key?5derivation?5funct@ 0007276c     libeay32:evp_err.obj
 0002:0000a790       ??_C@_0BG@HOCGGEGP@unsupported?5keylength?$AA@ 00072790     libeay32:evp_err.obj
 0002:0000a7a8       ??_C@_0BM@HIBGCGNH@unsuported?5number?5of?5rounds?$AA@ 000727a8     libeay32:evp_err.obj
 0002:0000a7c4       ??_C@_0BG@FAIBJLPO@unknown?5pbe?5algorithm?$AA@ 000727c4     libeay32:evp_err.obj
 0002:0000a7dc       ??_C@_0P@KCIKKMPB@unknown?5digest?$AA@ 000727dc     libeay32:evp_err.obj
 0002:0000a7ec       ??_C@_09OJDLMMBJ@too?5large?$AA@ 000727ec     libeay32:evp_err.obj
 0002:0000a7f8       ??_C@_0BD@MMPLJMCH@public?5key?5not?5rsa?$AA@ 000727f8     libeay32:evp_err.obj
 0002:0000a80c       ??_C@_0BJ@FKCOBHOL@private?5key?5encode?5error?$AA@ 0007280c     libeay32:evp_err.obj
 0002:0000a828       ??_C@_0BJ@PGCKGKGA@private?5key?5decode?5error?$AA@ 00072828     libeay32:evp_err.obj
 0002:0000a844       ??_C@_0BK@DPIDMHCF@pkcs8?5unknown?5broken?5type?$AA@ 00072844     libeay32:evp_err.obj
 0002:0000a860       ??_C@_0BJ@LOKHPOOE@operaton?5not?5initialized?$AA@ 00072860     libeay32:evp_err.obj
 0002:0000a87c       ??_C@_0CJ@FDIBODBP@operation?5not?5supported?5for?5this@ 0007287c     libeay32:evp_err.obj
 0002:0000a8a8       ??_C@_0BO@JCHGAODK@no?5verify?5function?5configured?$AA@ 000728a8     libeay32:evp_err.obj
 0002:0000a8c8       ??_C@_0BM@MKFHONFA@no?5sign?5function?5configured?$AA@ 000728c8     libeay32:evp_err.obj
 0002:0000a8e4       ??_C@_0BB@ODHHEDOG@no?5operation?5set?$AA@ 000728e4     libeay32:evp_err.obj
 0002:0000a8f8       ??_C@_0L@PBOBDIJK@no?5key?5set?$AA@ 000728f8     libeay32:evp_err.obj
 0002:0000a904       ??_C@_0BC@LCMEIJMC@no?5dsa?5parameters?$AA@ 00072904     libeay32:evp_err.obj
 0002:0000a918       ??_C@_0O@GNLJHFJN@no?5cipher?5set?$AA@ 00072918     libeay32:evp_err.obj
 0002:0000a928       ??_C@_0BH@NFDMIJPE@message?5digest?5is?5null?$AA@ 00072928     libeay32:evp_err.obj
 0002:0000a940       ??_C@_0P@OKANNIHB@keygen?5failure?$AA@ 00072940     libeay32:evp_err.obj
 0002:0000a950       ??_C@_0BC@ECMLAGML@invalid?5operation?$AA@ 00072950     libeay32:evp_err.obj
 0002:0000a964       ??_C@_0BC@EPKPKIBM@invalid?5fips?5mode?$AA@ 00072964     libeay32:evp_err.obj
 0002:0000a978       ??_C@_0P@BHAJJOEL@invalid?5digest?$AA@ 00072978     libeay32:evp_err.obj
 0002:0000a988       ??_C@_0BG@FEDNMCDD@input?5not?5initialized?$AA@ 00072988     libeay32:evp_err.obj
 0002:0000a9a0       ??_C@_0BF@BLPPFHJN@initialization?5error?$AA@ 000729a0     libeay32:evp_err.obj
 0002:0000a9b8       ??_C@_0BD@CPNEAEMK@expecting?5a?5ec?5key?$AA@ 000729b8     libeay32:evp_err.obj
 0002:0000a9cc       ??_C@_0BG@HCFIIKBE@expecting?5a?5ecdsa?5key?$AA@ 000729cc     libeay32:evp_err.obj
 0002:0000a9e4       ??_C@_0BE@DANDDMPD@expecting?5a?5dsa?5key?$AA@ 000729e4     libeay32:evp_err.obj
 0002:0000a9f8       ??_C@_0BD@ODGEPPLN@expecting?5a?5dh?5key?$AA@ 000729f8     libeay32:evp_err.obj
 0002:0000aa0c       ??_C@_0BF@PLFLMHPC@expecting?5an?5rsa?5key?$AA@ 00072a0c     libeay32:evp_err.obj
 0002:0000aa24       ??_C@_0BJ@OKDOIMO@evp?5pbe?5cipherinit?5error?$AA@ 00072a24     libeay32:evp_err.obj
 0002:0000aa40       ??_C@_0BI@GOPCKPEG@error?5setting?5fips?5mode?$AA@ 00072a40     libeay32:evp_err.obj
 0002:0000aa58       ??_C@_0BC@NHLCEGII@disabled?5for?5fips?$AA@ 00072a58     libeay32:evp_err.obj
 0002:0000aa6c       ??_C@_0BF@GPPMHNBE@different?5parameters?$AA@ 00072a6c     libeay32:evp_err.obj
 0002:0000aa84       ??_C@_0BE@KPACBDBO@different?5key?5types?$AA@ 00072a84     libeay32:evp_err.obj
 0002:0000aa98       ??_C@_0CC@CACKLKH@data?5not?5multiple?5of?5block?5lengt@ 00072a98     libeay32:evp_err.obj
 0002:0000aabc       ??_C@_0BP@HNCHOJGH@ctrl?5operation?5not?5implemented?$AA@ 00072abc     libeay32:evp_err.obj
 0002:0000aadc       ??_C@_0BF@HEOEPAFD@ctrl?5not?5implemented?$AA@ 00072adc     libeay32:evp_err.obj
 0002:0000aaf4       ??_C@_0BG@GAFLOAPP@command?5not?5supported?$AA@ 00072af4     libeay32:evp_err.obj
 0002:0000ab0c       ??_C@_0BH@NKJMBAMK@cipher?5parameter?5error?$AA@ 00072b0c     libeay32:evp_err.obj
 0002:0000ab24       ??_C@_0BK@KFELEBBK@camellia?5key?5setup?5failed?$AA@ 00072b24     libeay32:evp_err.obj
 0002:0000ab40       ??_C@_0BA@MGOHMGOK@bn?5pubkey?5error?$AA@ 00072b40     libeay32:evp_err.obj
 0002:0000ab50       ??_C@_0P@IOHAFLFI@bad?5key?5length?$AA@ 00072b50     libeay32:evp_err.obj
 0002:0000ab60       ??_C@_0BB@PEINPMDG@bad?5block?5length?$AA@ 00072b60     libeay32:evp_err.obj
 0002:0000ab74       ??_C@_08MEGCJFEA@asn1?5lib?$AA@ 00072b74     libeay32:evp_err.obj
 0002:0000ab80       ??_C@_0BF@JJHFFCED@aes?5key?5setup?5failed?$AA@ 00072b80     libeay32:evp_err.obj
 0002:0000ab98       ??_C@_0BE@IOOKKMBD@aes?5iv?5setup?5failed?$AA@ 00072b98     libeay32:evp_err.obj
 0002:0000abac       ??_C@_08INALDHMD@RC5_CTRL?$AA@ 00072bac     libeay32:evp_err.obj
 0002:0000abb8       ??_C@_0BC@MNOALPJL@RC2_MAGIC_TO_METH?$AA@ 00072bb8     libeay32:evp_err.obj
 0002:0000abcc       ??_C@_0O@CKODOHEG@PKEY_SET_TYPE?$AA@ 00072bcc     libeay32:evp_err.obj
 0002:0000abdc       ??_C@_0BB@PCHIINPO@PKCS8_set_broken?$AA@ 00072bdc     libeay32:evp_err.obj
 0002:0000abf0       ??_C@_0BJ@IFPKEILH@PKCS5_V2_PBKDF2_KEYIVGEN?$AA@ 00072bf0     libeay32:evp_err.obj
 0002:0000ac0c       ??_C@_0BG@DEAJDLGC@PKCS5_v2_PBE_keyivgen?$AA@ 00072c0c     libeay32:evp_err.obj
 0002:0000ac24       ??_C@_0BD@BCPAFJOG@PKCS5_PBE_keyivgen?$AA@ 00072c24     libeay32:evp_err.obj
 0002:0000ac38       ??_C@_0M@GCLMFPBB@INT_CTX_NEW?$AA@ 00072c38     libeay32:evp_err.obj
 0002:0000ac44       ??_C@_0N@ICAPKKKM@HMAC_Init_ex?$AA@ 00072c44     libeay32:evp_err.obj
 0002:0000ac54       ??_C@_0BB@EEFMLAEP@FIPS_MD_CTX_COPY?$AA@ 00072c54     libeay32:evp_err.obj
 0002:0000ac68       ??_C@_0BA@NKKAHEFL@FIPS_DIGESTINIT?$AA@ 00072c68     libeay32:evp_err.obj
 0002:0000ac78       ??_C@_0BP@BHEFJLJO@FIPS_CIPHER_CTX_SET_KEY_LENGTH?$AA@ 00072c78     libeay32:evp_err.obj
 0002:0000ac98       ??_C@_0BF@NFPKJHPD@FIPS_CIPHER_CTX_CTRL?$AA@ 00072c98     libeay32:evp_err.obj
 0002:0000acb0       ??_C@_0BF@GGNDHFBH@FIPS_CIPHER_CTX_COPY?$AA@ 00072cb0     libeay32:evp_err.obj
 0002:0000acc8       ??_C@_0BA@HCGIBBFI@FIPS_CIPHERINIT?$AA@ 00072cc8     libeay32:evp_err.obj
 0002:0000acd8       ??_C@_0BA@GLLLOEJG@EVP_VerifyFinal?$AA@ 00072cd8     libeay32:evp_err.obj
 0002:0000ace8       ??_C@_0O@CAMPOJIJ@EVP_SignFinal?$AA@ 00072ce8     libeay32:evp_err.obj
 0002:0000acf8       ??_C@_0N@KINHBLCG@EVP_RIJNDAEL?$AA@ 00072cf8     libeay32:evp_err.obj
 0002:0000ad08       ??_C@_0BN@MDHBFHEI@EVP_PKEY_verify_recover_init?$AA@ 00072d08     libeay32:evp_err.obj
 0002:0000ad28       ??_C@_0BI@JFLFDOB@EVP_PKEY_verify_recover?$AA@ 00072d28     libeay32:evp_err.obj
 0002:0000ad40       ??_C@_0BF@PDPMCIFG@EVP_PKEY_verify_init?$AA@ 00072d40     libeay32:evp_err.obj
 0002:0000ad58       ??_C@_0BA@KBJNJNKI@EVP_PKEY_verify?$AA@ 00072d58     libeay32:evp_err.obj
 0002:0000ad68       ??_C@_0BD@PIOCCDMM@EVP_PKEY_sign_init?$AA@ 00072d68     libeay32:evp_err.obj
 0002:0000ad7c       ??_C@_0O@BEINPMKB@EVP_PKEY_sign?$AA@ 00072d7c     libeay32:evp_err.obj
 0002:0000ad8c       ??_C@_0BH@OKHDFNDA@EVP_PKEY_paramgen_init?$AA@ 00072d8c     libeay32:evp_err.obj
 0002:0000ada4       ??_C@_0BC@IBBHNDMH@EVP_PKEY_paramgen?$AA@ 00072da4     libeay32:evp_err.obj
 0002:0000adb8       ??_C@_0N@MHABMGDE@EVP_PKEY_new?$AA@ 00072db8     libeay32:evp_err.obj
 0002:0000adc8       ??_C@_0BF@HNJPEBIC@EVP_PKEY_keygen_init?$AA@ 00072dc8     libeay32:evp_err.obj
 0002:0000ade0       ??_C@_0BA@DHFOBMEL@EVP_PKEY_keygen?$AA@ 00072de0     libeay32:evp_err.obj
 0002:0000adf0       ??_C@_0BC@IMEMINHC@EVP_PKEY_get1_RSA?$AA@ 00072df0     libeay32:evp_err.obj
 0002:0000ae04       ??_C@_0BF@IJHAKIDN@EVP_PKEY_get1_EC_KEY?$AA@ 00072e04     libeay32:evp_err.obj
 0002:0000ae1c       ??_C@_0BE@LEFNNDP@EVP_PKEY_GET1_ECDSA?$AA@ 00072e1c     libeay32:evp_err.obj
 0002:0000ae30       ??_C@_0BC@PJDOIFDB@EVP_PKEY_get1_DSA?$AA@ 00072e30     libeay32:evp_err.obj
 0002:0000ae44       ??_C@_0BB@CPLHOEAA@EVP_PKEY_get1_DH?$AA@ 00072e44     libeay32:evp_err.obj
 0002:0000ae58       ??_C@_0BF@MKBOMPDM@EVP_PKEY_encrypt_old?$AA@ 00072e58     libeay32:evp_err.obj
 0002:0000ae70       ??_C@_0BG@EJGHHAMC@EVP_PKEY_encrypt_init?$AA@ 00072e70     libeay32:evp_err.obj
 0002:0000ae88       ??_C@_0BB@LLNNGDGM@EVP_PKEY_encrypt?$AA@ 00072e88     libeay32:evp_err.obj
 0002:0000ae9c       ??_C@_0BJ@CECPMDDP@EVP_PKEY_derive_set_peer?$AA@ 00072e9c     libeay32:evp_err.obj
 0002:0000aeb8       ??_C@_0BF@MPBKJMKE@EVP_PKEY_derive_init?$AA@ 00072eb8     libeay32:evp_err.obj
 0002:0000aed0       ??_C@_0BA@KLINOOGC@EVP_PKEY_derive?$AA@ 00072ed0     libeay32:evp_err.obj
 0002:0000aee0       ??_C@_0BF@HCJKAEBH@EVP_PKEY_decrypt_old?$AA@ 00072ee0     libeay32:evp_err.obj
 0002:0000aef8       ??_C@_0BG@OFGDANEJ@EVP_PKEY_decrypt_init?$AA@ 00072ef8     libeay32:evp_err.obj
 0002:0000af10       ??_C@_0BB@HFHADHAI@EVP_PKEY_decrypt?$AA@ 00072f10     libeay32:evp_err.obj
 0002:0000af24       ??_C@_0BB@BPOPGGNH@EVP_PKEY_CTX_dup?$AA@ 00072f24     libeay32:evp_err.obj
 0002:0000af38       ??_C@_0BG@IHCGKNFK@EVP_PKEY_CTX_ctrl_str?$AA@ 00072f38     libeay32:evp_err.obj
 0002:0000af50       ??_C@_0BC@NIPIODKB@EVP_PKEY_CTX_ctrl?$AA@ 00072f50     libeay32:evp_err.obj
 0002:0000af64       ??_C@_0BJ@PGNHNKFL@EVP_PKEY_copy_parameters?$AA@ 00072f64     libeay32:evp_err.obj
 0002:0000af80       ??_C@_0BG@JJKNEENC@EVP_PKEY2PKCS8_broken?$AA@ 00072f80     libeay32:evp_err.obj
 0002:0000af98       ??_C@_0BG@LDGBPHID@EVP_PKCS82PKEY_BROKEN?$AA@ 00072f98     libeay32:evp_err.obj
 0002:0000afb0       ??_C@_0P@NALOFFAP@EVP_PKCS82PKEY?$AA@ 00072fb0     libeay32:evp_err.obj
 0002:0000afc0       ??_C@_0BD@IMFOLFNB@EVP_PBE_CipherInit?$AA@ 00072fc0     libeay32:evp_err.obj
 0002:0000afd4       ??_C@_0BF@MFFOGHAM@EVP_PBE_alg_add_type?$AA@ 00072fd4     libeay32:evp_err.obj
 0002:0000afec       ??_C@_0BA@LHOGICEL@EVP_PBE_alg_add?$AA@ 00072fec     libeay32:evp_err.obj
 0002:0000affc       ??_C@_0N@HHIKMCLD@EVP_OpenInit?$AA@ 00072ffc     libeay32:evp_err.obj
 0002:0000b00c       ??_C@_0M@OOKKIKHO@EVP_MD_size?$AA@ 0007300c     libeay32:evp_err.obj
 0002:0000b018       ??_C@_0BD@OOMFHFKA@EVP_MD_CTX_copy_ex?$AA@ 00073018     libeay32:evp_err.obj
 0002:0000b02c       ??_C@_0BE@EADDKHIK@EVP_EncryptFinal_ex?$AA@ 0007302c     libeay32:evp_err.obj
 0002:0000b040       ??_C@_0BC@NBJFCNLO@EVP_DigestInit_ex?$AA@ 00073040     libeay32:evp_err.obj
 0002:0000b054       ??_C@_0BE@DAKPJAOF@EVP_DecryptFinal_ex?$AA@ 00073054     libeay32:evp_err.obj
 0002:0000b068       ??_C@_0BO@LEIONLOF@EVP_CIPHER_CTX_set_key_length?$AA@ 00073068     libeay32:evp_err.obj
 0002:0000b088       ??_C@_0BE@PBKBIICA@EVP_CIPHER_CTX_ctrl?$AA@ 00073088     libeay32:evp_err.obj
 0002:0000b09c       ??_C@_0BE@ECIIGKME@EVP_CIPHER_CTX_copy?$AA@ 0007309c     libeay32:evp_err.obj
 0002:0000b0b0       ??_C@_0BC@FOOGEGCP@EVP_CipherInit_ex?$AA@ 000730b0     libeay32:evp_err.obj
 0002:0000b0c4       ??_C@_0BB@KFLGPIAK@ECKEY_PKEY2PKCS8?$AA@ 000730c4     libeay32:evp_err.obj
 0002:0000b0d8       ??_C@_0BB@IBEKDJPK@ECDSA_PKEY2PKCS8?$AA@ 000730d8     libeay32:evp_err.obj
 0002:0000b0ec       ??_C@_0P@DBCIAANA@DSA_PKEY2PKCS8?$AA@ 000730ec     libeay32:evp_err.obj
 0002:0000b0fc       ??_C@_0O@EFMKNPDB@DSAPKEY2PKCS8?$AA@ 000730fc     libeay32:evp_err.obj
 0002:0000b10c       ??_C@_0P@GNOJHNOK@DO_SIGVER_INIT?$AA@ 0007310c     libeay32:evp_err.obj
 0002:0000b11c       ??_C@_08BIAFNOBD@D2I_PKEY?$AA@ 0007311c     libeay32:evp_err.obj
 0002:0000b128       ??_C@_09KEJNODOG@CMAC_INIT?$AA@ 00073128     libeay32:evp_err.obj
 0002:0000b134       ??_C@_0BC@JBPLKLIN@CAMELLIA_INIT_KEY?$AA@ 00073134     libeay32:evp_err.obj
 0002:0000b148       ??_C@_0BA@EIFHEKIO@ALG_MODULE_INIT?$AA@ 00073148     libeay32:evp_err.obj
 0002:0000b158       ??_C@_0P@BEBJCGPN@AES_XTS_CIPHER?$AA@ 00073158     libeay32:evp_err.obj
 0002:0000b168       ??_C@_07KNBKDFMO@AES_XTS?$AA@ 00073168     libeay32:evp_err.obj
 0002:0000b170       ??_C@_0N@HCMHGGIL@AES_INIT_KEY?$AA@ 00073170     libeay32:evp_err.obj
 0002:0000b180       ??_C@_0BB@KJGGIEDD@AESNI_XTS_CIPHER?$AA@ 00073180     libeay32:evp_err.obj
 0002:0000b194       ??_C@_0P@PFOKDBDH@AESNI_INIT_KEY?$AA@ 00073194     libeay32:evp_err.obj
 0002:0000b1a4       ??_C@_0BD@CLOJELDD@key?5size?5too?5small?$AA@ 000731a4     libeay32:dh_err.obj
 0002:0000b1b8       ??_C@_0BD@NPJGJJNC@invalid?5public?5key?$AA@ 000731b8     libeay32:dh_err.obj
 0002:0000b1cc       ??_C@_0O@FMBNEOHL@bad?5generator?$AA@ 000731cc     libeay32:dh_err.obj
 0002:0000b1dc       ??_C@_0P@OONACJM@PKEY_DH_KEYGEN?$AA@ 000731dc     libeay32:dh_err.obj
 0002:0000b1ec       ??_C@_0P@JCDOPALF@PKEY_DH_DERIVE?$AA@ 000731ec     libeay32:dh_err.obj
 0002:0000b1fc       ??_C@_0BE@OEKEKGDH@GENERATE_PARAMETERS?$AA@ 000731fc     libeay32:dh_err.obj
 0002:0000b210       ??_C@_0N@LOPKMDIL@GENERATE_KEY?$AA@ 00073210     libeay32:dh_err.obj
 0002:0000b220       ??_C@_0M@BKOJCMIP@DO_DH_PRINT?$AA@ 00073220     libeay32:dh_err.obj
 0002:0000b22c       ??_C@_0O@IBAJOGMG@DH_PUB_ENCODE?$AA@ 0007322c     libeay32:dh_err.obj
 0002:0000b23c       ??_C@_0O@ENLJBNLB@DH_PUB_DECODE?$AA@ 0007323c     libeay32:dh_err.obj
 0002:0000b24c       ??_C@_0P@MCCBOHPM@DH_PRIV_ENCODE?$AA@ 0007324c     libeay32:dh_err.obj
 0002:0000b25c       ??_C@_0P@OJBBMIL@DH_PRIV_DECODE?$AA@ 0007325c     libeay32:dh_err.obj
 0002:0000b26c       ??_C@_0BA@ELDDJPC@DH_PARAM_DECODE?$AA@ 0007326c     libeay32:dh_err.obj
 0002:0000b27c       ??_C@_0O@PABKEMIE@DH_new_method?$AA@ 0007327c     libeay32:dh_err.obj
 0002:0000b28c       ??_C@_0BK@LEHNHMII@DH_generate_parameters_ex?$AA@ 0007328c     libeay32:dh_err.obj
 0002:0000b2a8       ??_C@_0BA@PHELBJJ@DH_generate_key?$AA@ 000732a8     libeay32:dh_err.obj
 0002:0000b2b8       ??_C@_0P@DOMAGPNP@DH_compute_key?$AA@ 000732b8     libeay32:dh_err.obj
 0002:0000b2c8       ??_C@_0BF@BNFPPOCD@DH_BUILTIN_GENPARAMS?$AA@ 000732c8     libeay32:dh_err.obj
 0002:0000b2e0       ??_C@_0BC@DJCNMFPF@DHparams_print_fp?$AA@ 000732e0     libeay32:dh_err.obj
 0002:0000b2f4       ??_C@_0M@OBMGPJBG@COMPUTE_KEY?$AA@ 000732f4     libeay32:dh_err.obj
 0002:0000b300       ??_C@_0BH@BMPGLKME@wrong?5signature?5length?$AA@ 00073300     libeay32:rsa_err.obj
 0002:0000b318       ??_C@_0O@LAEBBFFA@value?5missing?$AA@ 00073318     libeay32:rsa_err.obj
 0002:0000b328       ??_C@_0BL@NFPHCDHM@unsupported?5signature?5type?$AA@ 00073328     libeay32:rsa_err.obj
 0002:0000b344       ??_C@_0BL@LLKOMKEH@unsupported?5mask?5parameter?$AA@ 00073344     libeay32:rsa_err.obj
 0002:0000b360       ??_C@_0BL@BEBLEDFG@unsupported?5mask?5algorithm?$AA@ 00073360     libeay32:rsa_err.obj
 0002:0000b37c       ??_C@_0BD@IOMBGLMN@unknown?5pss?5digest?$AA@ 0007337c     libeay32:rsa_err.obj
 0002:0000b390       ??_C@_0BF@PMKFBMAN@unknown?5padding?5type?$AA@ 00073390     libeay32:rsa_err.obj
 0002:0000b3a8       ??_C@_0BE@GKBFEOFH@unknown?5mask?5digest?$AA@ 000733a8     libeay32:rsa_err.obj
 0002:0000b3bc       ??_C@_0BH@FNFJOEPG@unknown?5algorithm?5type?$AA@ 000733bc     libeay32:rsa_err.obj
 0002:0000b3d4       ??_C@_0BG@LCCLIBDD@sslv3?5rollback?5attack?$AA@ 000733d4     libeay32:rsa_err.obj
 0002:0000b3ec       ??_C@_0BM@NMIBMGCO@salt?5length?5recovery?5failed?$AA@ 000733ec     libeay32:rsa_err.obj
 0002:0000b408       ??_C@_0BJ@GBKHEAEB@salt?5length?5check?5failed?$AA@ 00073408     libeay32:rsa_err.obj
 0002:0000b424       ??_C@_0BN@NCCKMPPH@rsa?5operations?5not?5supported?$AA@ 00073424     libeay32:rsa_err.obj
 0002:0000b444       ??_C@_0M@IAJBGGOK@q?5not?5prime?$AA@ 00073444     libeay32:rsa_err.obj
 0002:0000b450       ??_C@_0M@BLDECKIF@p?5not?5prime?$AA@ 00073450     libeay32:rsa_err.obj
 0002:0000b45c       ??_C@_0BF@INPMJCDD@padding?5check?5failed?$AA@ 0007345c     libeay32:rsa_err.obj
 0002:0000b474       ??_C@_0CD@IMIHDNGM@operation?5not?5allowed?5in?5fips?5mo@ 00073474     libeay32:rsa_err.obj
 0002:0000b498       ??_C@_0BE@EOPELEIO@oaep?5decoding?5error?$AA@ 00073498     libeay32:rsa_err.obj
 0002:0000b4ac       ??_C@_0BF@HDECBJIA@n?5does?5not?5equal?5p?5q?$AA@ 000734ac     libeay32:rsa_err.obj
 0002:0000b4c4       ??_C@_0BK@GGMKFEM@null?5before?5block?5missing?$AA@ 000734c4     libeay32:rsa_err.obj
 0002:0000b4e0       ??_C@_0BD@JKKNAJDI@no?5public?5exponent?$AA@ 000734e0     libeay32:rsa_err.obj
 0002:0000b4f4       ??_C@_0BE@JOKANPEI@non?5fips?5rsa?5method?$AA@ 000734f4     libeay32:rsa_err.obj
 0002:0000b508       ??_C@_0BD@FKBIBGMM@last?5octet?5invalid?$AA@ 00073508     libeay32:rsa_err.obj
 0002:0000b51c       ??_C@_0BG@DEDKEMGA@iqmp?5not?5inverse?5of?5q?$AA@ 0007351c     libeay32:rsa_err.obj
 0002:0000b534       ??_C@_0BE@DPIBPLCJ@invalid?5x931?5digest?$AA@ 00073534     libeay32:rsa_err.obj
 0002:0000b548       ??_C@_0BA@ODEFPDHP@invalid?5trailer?$AA@ 00073548     libeay32:rsa_err.obj
 0002:0000b558       ??_C@_0BE@FAHIJHPF@invalid?5salt?5length?$AA@ 00073558     libeay32:rsa_err.obj
 0002:0000b56c       ??_C@_0BE@DPJFANO@invalid?5pss?5saltlen?$AA@ 0007356c     libeay32:rsa_err.obj
 0002:0000b580       ??_C@_0BH@ODMONKNF@invalid?5pss?5parameters?$AA@ 00073580     libeay32:rsa_err.obj
 0002:0000b598       ??_C@_0BF@KDMBBEMK@invalid?5padding?5mode?$AA@ 00073598     libeay32:rsa_err.obj
 0002:0000b5b0       ??_C@_0BA@JFFKNHBD@invalid?5padding?$AA@ 000735b0     libeay32:rsa_err.obj
 0002:0000b5c0       ??_C@_0BA@GDHINNEO@invalid?5mgf1?5md?$AA@ 000735c0     libeay32:rsa_err.obj
 0002:0000b5d0       ??_C@_0BH@EKFCLFAD@invalid?5message?5length?$AA@ 000735d0     libeay32:rsa_err.obj
 0002:0000b5e8       ??_C@_0BA@EPNDMLGL@invalid?5keybits?$AA@ 000735e8     libeay32:rsa_err.obj
 0002:0000b5f8       ??_C@_0P@NOGGNOMF@invalid?5header?$AA@ 000735f8     libeay32:rsa_err.obj
 0002:0000b608       ??_C@_0BG@DCMIKGHM@invalid?5digest?5length?$AA@ 00073608     libeay32:rsa_err.obj
 0002:0000b620       ??_C@_0CE@PNNJELPM@illegal?5or?5unsupported?5padding?5m@ 00073620     libeay32:rsa_err.obj
 0002:0000b644       ??_C@_0BE@NOENCFCG@first?5octet?5invalid?$AA@ 00073644     libeay32:rsa_err.obj
 0002:0000b658       ??_C@_0BH@NCGBLFLB@d?5e?5not?5congruent?5to?51?$AA@ 00073658     libeay32:rsa_err.obj
 0002:0000b670       ??_C@_0BI@DHGHJHEG@dmq1?5not?5congruent?5to?5d?$AA@ 00073670     libeay32:rsa_err.obj
 0002:0000b688       ??_C@_0BI@CAEPPDIG@dmp1?5not?5congruent?5to?5d?$AA@ 00073688     libeay32:rsa_err.obj
 0002:0000b6a0       ??_C@_0BL@JJIEEIJC@digest?5too?5big?5for?5rsa?5key?$AA@ 000736a0     libeay32:rsa_err.obj
 0002:0000b6bc       ??_C@_0BM@JHCGOKFN@data?5too?5small?5for?5key?5size?$AA@ 000736bc     libeay32:rsa_err.obj
 0002:0000b6d8       ??_C@_0P@ODJPKBGD@data?5too?5small?$AA@ 000736d8     libeay32:rsa_err.obj
 0002:0000b6e8       ??_C@_0BL@NKECKCIM@data?5too?5large?5for?5modulus?$AA@ 000736e8     libeay32:rsa_err.obj
 0002:0000b704       ??_C@_0P@ELNEFAPF@data?5too?5large?$AA@ 00073704     libeay32:rsa_err.obj
 0002:0000b714       ??_C@_0BK@IFDNCIJ@data?5greater?5than?5mod?5len?$AA@ 00073714     libeay32:rsa_err.obj
 0002:0000b730       ??_C@_0BF@CPFAMEOF@block?5type?5is?5not?502?$AA@ 00073730     libeay32:rsa_err.obj
 0002:0000b748       ??_C@_0BF@EHNJHCG@block?5type?5is?5not?501?$AA@ 00073748     libeay32:rsa_err.obj
 0002:0000b760       ??_C@_0BD@NMJFBDLM@bad?5pad?5byte?5count?$AA@ 00073760     libeay32:rsa_err.obj
 0002:0000b774       ??_C@_0BJ@NJEIMCLK@bad?5fixed?5header?5decrypt?$AA@ 00073774     libeay32:rsa_err.obj
 0002:0000b790       ??_C@_0M@JODLPONG@bad?5e?5value?$AA@ 00073790     libeay32:rsa_err.obj
 0002:0000b79c       ??_C@_0BD@CGPAGFLI@algorithm?5mismatch?$AA@ 0007379c     libeay32:rsa_err.obj
 0002:0000b7b0       ??_C@_0BK@CEFEDGHB@RSA_verify_PKCS1_PSS_mgf1?$AA@ 000737b0     libeay32:rsa_err.obj
 0002:0000b7cc       ??_C@_0BF@IGJEFDEP@RSA_verify_PKCS1_PSS?$AA@ 000737cc     libeay32:rsa_err.obj
 0002:0000b7e4       ??_C@_0BN@EFLGKFKB@RSA_verify_ASN1_OCTET_STRING?$AA@ 000737e4     libeay32:rsa_err.obj
 0002:0000b804       ??_C@_0L@DHMOEGA@RSA_verify?$AA@ 00073804     libeay32:rsa_err.obj
 0002:0000b810       ??_C@_0BL@CNIEBPPN@RSA_sign_ASN1_OCTET_STRING?$AA@ 00073810     libeay32:rsa_err.obj
 0002:0000b82c       ??_C@_08MPOFALHB@RSA_sign?$AA@ 0007382c     libeay32:rsa_err.obj
 0002:0000b838       ??_C@_0BD@BJFMCAGF@RSA_setup_blinding?$AA@ 00073838     libeay32:rsa_err.obj
 0002:0000b84c       ??_C@_0P@OJCEKOHG@RSA_PUB_DECODE?$AA@ 0007384c     libeay32:rsa_err.obj
 0002:0000b85c       ??_C@_0BD@DNFCKLEJ@RSA_public_encrypt?$AA@ 0007385c     libeay32:rsa_err.obj
 0002:0000b870       ??_C@_0BD@PDPPPPCN@RSA_public_decrypt?$AA@ 00073870     libeay32:rsa_err.obj
 0002:0000b884       ??_C@_0BA@MHIFCNFM@RSA_PRIV_ENCODE?$AA@ 00073884     libeay32:rsa_err.obj
 0002:0000b894       ??_C@_0BA@LDFNGCL@RSA_PRIV_DECODE?$AA@ 00073894     libeay32:rsa_err.obj
 0002:0000b8a4       ??_C@_0BE@KCOGGGIC@RSA_private_encrypt?$AA@ 000738a4     libeay32:rsa_err.obj
 0002:0000b8b8       ??_C@_0BE@GMELDCOG@RSA_private_decrypt?$AA@ 000738b8     libeay32:rsa_err.obj
 0002:0000b8cc       ??_C@_0N@EDDOANOK@RSA_print_fp?$AA@ 000738cc     libeay32:rsa_err.obj
 0002:0000b8dc       ??_C@_09BNOFLLFN@RSA_print?$AA@ 000738dc     libeay32:rsa_err.obj
 0002:0000b8e8       ??_C@_0BH@HNEKADOE@RSA_padding_check_X931?$AA@ 000738e8     libeay32:rsa_err.obj
 0002:0000b900       ??_C@_0BJ@KGLGCBIK@RSA_padding_check_SSLv23?$AA@ 00073900     libeay32:rsa_err.obj
 0002:0000b91c       ??_C@_0BP@NOENDBAC@RSA_padding_check_PKCS1_type_2?$AA@ 0007391c     libeay32:rsa_err.obj
 0002:0000b93c       ??_C@_0BP@PFGAGCMB@RSA_padding_check_PKCS1_type_1?$AA@ 0007393c     libeay32:rsa_err.obj
 0002:0000b95c       ??_C@_0BN@IOMKEGJG@RSA_padding_check_PKCS1_OAEP?$AA@ 0007395c     libeay32:rsa_err.obj
 0002:0000b97c       ??_C@_0BH@HPODLAP@RSA_padding_check_none?$AA@ 0007397c     libeay32:rsa_err.obj
 0002:0000b994       ??_C@_0BF@EIOFIDKM@RSA_padding_add_X931?$AA@ 00073994     libeay32:rsa_err.obj
 0002:0000b9ac       ??_C@_0BH@HDKOFCAI@RSA_padding_add_SSLv23?$AA@ 000739ac     libeay32:rsa_err.obj
 0002:0000b9c4       ??_C@_0BN@CNKIJGGF@RSA_padding_add_PKCS1_type_2?$AA@ 000739c4     libeay32:rsa_err.obj
 0002:0000b9e4       ??_C@_0BN@GIFMFKG@RSA_padding_add_PKCS1_type_1?$AA@ 000739e4     libeay32:rsa_err.obj
 0002:0000ba04       ??_C@_0BP@EAMMIKJG@RSA_padding_add_PKCS1_PSS_mgf1?$AA@ 00073a04     libeay32:rsa_err.obj
 0002:0000ba24       ??_C@_0BK@OBENMGDB@RSA_padding_add_PKCS1_PSS?$AA@ 00073a24     libeay32:rsa_err.obj
 0002:0000ba40       ??_C@_0BL@OLIPFACN@RSA_padding_add_PKCS1_OAEP?$AA@ 00073a40     libeay32:rsa_err.obj
 0002:0000ba5c       ??_C@_0BF@DCFBLLEH@RSA_padding_add_none?$AA@ 00073a5c     libeay32:rsa_err.obj
 0002:0000ba74       ??_C@_0BI@OOBCANGE@RSA_NULL_PUBLIC_ENCRYPT?$AA@ 00073a74     libeay32:rsa_err.obj
 0002:0000ba8c       ??_C@_0BI@CALPFJAA@RSA_NULL_PUBLIC_DECRYPT?$AA@ 00073a8c     libeay32:rsa_err.obj
 0002:0000baa4       ??_C@_0BJ@LPMCNPIA@RSA_NULL_PRIVATE_ENCRYPT?$AA@ 00073aa4     libeay32:rsa_err.obj
 0002:0000bac0       ??_C@_0BJ@HBGPILOE@RSA_NULL_PRIVATE_DECRYPT?$AA@ 00073ac0     libeay32:rsa_err.obj
 0002:0000badc       ??_C@_0BB@HDGNLFN@RSA_NULL_MOD_EXP?$AA@ 00073adc     libeay32:rsa_err.obj
 0002:0000baf0       ??_C@_08LPADNPHO@RSA_NULL?$AA@ 00073af0     libeay32:rsa_err.obj
 0002:0000bafc       ??_C@_0P@FEIHPPED@RSA_new_method?$AA@ 00073afc     libeay32:rsa_err.obj
 0002:0000bb0c       ??_C@_0BA@JIOKLGDH@RSA_memory_lock?$AA@ 00073b0c     libeay32:rsa_err.obj
 0002:0000bb1c       ??_C@_0BA@CLMBBCBN@RSA_ITEM_VERIFY?$AA@ 00073b1c     libeay32:rsa_err.obj
 0002:0000bb2c       ??_C@_0BE@JLCMLJM@RSA_generate_key_ex?$AA@ 00073b2c     libeay32:rsa_err.obj
 0002:0000bb40       ??_C@_0BB@NJKHLGLL@RSA_generate_key?$AA@ 00073b40     libeay32:rsa_err.obj
 0002:0000bb54       ??_C@_0BH@LNLHMMLN@RSA_EAY_PUBLIC_ENCRYPT?$AA@ 00073b54     libeay32:rsa_err.obj
 0002:0000bb6c       ??_C@_0BH@HDBKJINJ@RSA_EAY_PUBLIC_DECRYPT?$AA@ 00073b6c     libeay32:rsa_err.obj
 0002:0000bb84       ??_C@_0BI@EAJOBADB@RSA_EAY_PRIVATE_ENCRYPT?$AA@ 00073b84     libeay32:rsa_err.obj
 0002:0000bb9c       ??_C@_0BI@IODDEEFF@RSA_EAY_PRIVATE_DECRYPT?$AA@ 00073b9c     libeay32:rsa_err.obj
 0002:0000bbb4       ??_C@_0O@GHGJHIFH@RSA_check_key?$AA@ 00073bb4     libeay32:rsa_err.obj
 0002:0000bbc4       ??_C@_0BD@CBDKPIGP@RSA_BUILTIN_KEYGEN?$AA@ 00073bc4     libeay32:rsa_err.obj
 0002:0000bbd8       ??_C@_0BH@FFOJNJJB@PKEY_RSA_VERIFYRECOVER?$AA@ 00073bd8     libeay32:rsa_err.obj
 0002:0000bbf0       ??_C@_0BA@FJNHLEJE@PKEY_RSA_VERIFY?$AA@ 00073bf0     libeay32:rsa_err.obj
 0002:0000bc00       ??_C@_0O@KKAOJPHB@PKEY_RSA_SIGN?$AA@ 00073c00     libeay32:rsa_err.obj
 0002:0000bc10       ??_C@_0BC@DONPGKEJ@PKEY_RSA_CTRL_STR?$AA@ 00073c10     libeay32:rsa_err.obj
 0002:0000bc24       ??_C@_0O@EAEGIEKI@PKEY_RSA_CTRL?$AA@ 00073c24     libeay32:rsa_err.obj
 0002:0000bc34       ??_C@_0BE@DBENECLB@OLD_RSA_PRIV_DECODE?$AA@ 00073c34     libeay32:rsa_err.obj
 0002:0000bc48       ??_C@_0M@IECFMAGM@MEMORY_LOCK?$AA@ 00073c48     libeay32:rsa_err.obj
 0002:0000bc54       ??_C@_0P@KHENOEA@INT_RSA_VERIFY?$AA@ 00073c54     libeay32:rsa_err.obj
 0002:0000bc64       ??_C@_0N@OOAIIILJ@DO_RSA_PRINT?$AA@ 00073c64     libeay32:rsa_err.obj
 0002:0000bc74       ??_C@_0BB@ODOKNOAB@CHECK_PADDING_MD?$AA@ 00073c74     libeay32:rsa_err.obj
 0002:0000bc88       ??_C@_0BN@FMADIABH@too?5many?5temporary?5variables?$AA@ 00073c88     libeay32:bn_err.obj
 0002:0000bca8       ??_C@_0BE@OPCNEJGC@too?5many?5iterations?$AA@ 00073ca8     libeay32:bn_err.obj
 0002:0000bcbc       ??_C@_0P@ICPCEPDP@p?5is?5not?5prime?$AA@ 00073cbc     libeay32:bn_err.obj
 0002:0000bccc       ??_C@_0M@OMKNCEPO@no?5solution?$AA@ 00073ccc     libeay32:bn_err.obj
 0002:0000bcd8       ??_C@_0L@CDEIJFEG@no?5inverse?$AA@ 00073cd8     libeay32:bn_err.obj
 0002:0000bce4       ??_C@_0N@NDJIBCN@not?5a?5square?$AA@ 00073ce4     libeay32:bn_err.obj
 0002:0000bcf4       ??_C@_0O@GOKDDJMP@invalid?5range?$AA@ 00073cf4     libeay32:bn_err.obj
 0002:0000bd04       ??_C@_0P@BHAFPBHF@invalid?5length?$AA@ 00073d04     libeay32:bn_err.obj
 0002:0000bd14       ??_C@_0BC@JDEDLNHC@input?5not?5reduced?$AA@ 00073d14     libeay32:bn_err.obj
 0002:0000bd28       ??_C@_0BN@BKAHLPJH@expand?5on?5static?5bignum?5data?$AA@ 00073d28     libeay32:bn_err.obj
 0002:0000bd48       ??_C@_0P@PPHOEKAA@encoding?5error?$AA@ 00073d48     libeay32:bn_err.obj
 0002:0000bd58       ??_C@_0M@BLFJLCCH@div?5by?5zero?$AA@ 00073d58     libeay32:bn_err.obj
 0002:0000bd64       ??_C@_0BJ@OJGGDJF@called?5with?5even?5modulus?$AA@ 00073d64     libeay32:bn_err.obj
 0002:0000bd80       ??_C@_0BA@GFLMOMGJ@bignum?5too?5long?$AA@ 00073d80     libeay32:bn_err.obj
 0002:0000bd90       ??_C@_0P@CGNJGONO@bad?5reciprocal?$AA@ 00073d90     libeay32:bn_err.obj
 0002:0000bda0       ??_C@_0N@DINPDMFF@arg2?5lt?5arg3?$AA@ 00073da0     libeay32:bn_err.obj
 0002:0000bdb0       ??_C@_07FFMAJCFD@BN_usub?$AA@ 00073db0     libeay32:bn_err.obj
 0002:0000bdb8       ??_C@_0O@GGLCDEBH@BN_rand_range?$AA@ 00073db8     libeay32:bn_err.obj
 0002:0000bdc8       ??_C@_07FLNJDKEA@BN_rand?$AA@ 00073dc8     libeay32:bn_err.obj
 0002:0000bdd0       ??_C@_06MLINBBBN@BN_new?$AA@ 00073dd0     libeay32:bn_err.obj
 0002:0000bdd8       ??_C@_09IDACCFHO@BN_mpi2bn?$AA@ 00073dd8     libeay32:bn_err.obj
 0002:0000bde4       ??_C@_0M@MDECKEMJ@BN_mod_sqrt?$AA@ 00073de4     libeay32:bn_err.obj
 0002:0000bdf0       ??_C@_0BG@BPLEAIGL@BN_mod_mul_reciprocal?$AA@ 00073df0     libeay32:bn_err.obj
 0002:0000be08       ??_C@_0BE@HCGJNJDH@BN_mod_lshift_quick?$AA@ 00073e08     libeay32:bn_err.obj
 0002:0000be1c       ??_C@_0BJ@GNNEGKDJ@BN_mod_inverse_no_branch?$AA@ 00073e1c     libeay32:bn_err.obj
 0002:0000be38       ??_C@_0P@PJDAOIEB@BN_mod_inverse?$AA@ 00073e38     libeay32:bn_err.obj
 0002:0000be48       ??_C@_0BC@IAKJJHKD@BN_mod_exp_simple?$AA@ 00073e48     libeay32:bn_err.obj
 0002:0000be5c       ??_C@_0BA@MFDDJGKA@BN_mod_exp_recp?$AA@ 00073e5c     libeay32:bn_err.obj
 0002:0000be6c       ??_C@_0BF@NHOGELCA@BN_mod_exp_mont_word?$AA@ 00073e6c     libeay32:bn_err.obj
 0002:0000be84       ??_C@_0BK@MLKANOIE@BN_mod_exp_mont_consttime?$AA@ 00073e84     libeay32:bn_err.obj
 0002:0000bea0       ??_C@_0BA@CEIKCAMA@BN_mod_exp_mont?$AA@ 00073ea0     libeay32:bn_err.obj
 0002:0000beb0       ??_C@_0BB@KAANGNEC@BN_mod_exp2_mont?$AA@ 00073eb0     libeay32:bn_err.obj
 0002:0000bec4       ??_C@_0BB@COMHDKLD@BN_GF2m_mod_sqrt?$AA@ 00073ec4     libeay32:bn_err.obj
 0002:0000bed8       ??_C@_0BA@CEFPIHFI@BN_GF2m_mod_sqr?$AA@ 00073ed8     libeay32:bn_err.obj
 0002:0000bee8       ??_C@_0BL@JJDJOBHG@BN_GF2m_mod_solve_quad_arr?$AA@ 00073ee8     libeay32:bn_err.obj
 0002:0000bf04       ??_C@_0BH@EFEHBMGJ@BN_GF2m_mod_solve_quad?$AA@ 00073f04     libeay32:bn_err.obj
 0002:0000bf1c       ??_C@_0BA@EHNBDAPH@BN_GF2m_mod_mul?$AA@ 00073f1c     libeay32:bn_err.obj
 0002:0000bf2c       ??_C@_0BA@GMMKNGBG@BN_GF2m_mod_exp?$AA@ 00073f2c     libeay32:bn_err.obj
 0002:0000bf3c       ??_C@_0M@HLNBKHPC@BN_GF2m_mod?$AA@ 00073f3c     libeay32:bn_err.obj
 0002:0000bf48       ??_C@_0BD@EECAEFPD@BN_EXPAND_INTERNAL?$AA@ 00073f48     libeay32:bn_err.obj
 0002:0000bf5c       ??_C@_0L@GPKOAPJM@bn_expand2?$AA@ 00073f5c     libeay32:bn_err.obj
 0002:0000bf68       ??_C@_06EHDDDAPI@BN_exp?$AA@ 00073f68     libeay32:bn_err.obj
 0002:0000bf70       ??_C@_0M@MCFMHDMJ@BN_div_recp?$AA@ 00073f70     libeay32:bn_err.obj
 0002:0000bf7c       ??_C@_0BB@FFIOCBDM@BN_div_no_branch?$AA@ 00073f7c     libeay32:bn_err.obj
 0002:0000bf90       ??_C@_06LEDBDJFM@BN_div?$AA@ 00073f90     libeay32:bn_err.obj
 0002:0000bf98       ??_C@_0N@IHLKEKP@BN_CTX_start?$AA@ 00073f98     libeay32:bn_err.obj
 0002:0000bfa8       ??_C@_0L@OIEJOLGJ@BN_CTX_new?$AA@ 00073fa8     libeay32:bn_err.obj
 0002:0000bfb4       ??_C@_0L@LOGMPHCA@BN_CTX_get?$AA@ 00073fb4     libeay32:bn_err.obj
 0002:0000bfc0       ??_C@_09LODCIEDC@BN_bn2hex?$AA@ 00073fc0     libeay32:bn_err.obj
 0002:0000bfcc       ??_C@_09FNNCPABA@BN_bn2dec?$AA@ 00073fcc     libeay32:bn_err.obj
 0002:0000bfd8       ??_C@_0BD@IEOEBKMM@BN_BLINDING_update?$AA@ 00073fd8     libeay32:bn_err.obj
 0002:0000bfec       ??_C@_0BA@NFFODEFF@BN_BLINDING_new?$AA@ 00073fec     libeay32:bn_err.obj
 0002:0000bffc       ??_C@_0BG@KNPDOBDE@BN_BLINDING_invert_ex?$AA@ 00073ffc     libeay32:bn_err.obj
 0002:0000c014       ??_C@_0BJ@OIJBBKAP@BN_BLINDING_create_param?$AA@ 00074014     libeay32:bn_err.obj
 0002:0000c030       ??_C@_0BH@GHOHGGBP@BN_BLINDING_convert_ex?$AA@ 00074030     libeay32:bn_err.obj
 0002:0000c048       ??_C@_06LDPKGPF@BNRAND?$AA@ 00074048     libeay32:bn_err.obj
 0002:000157e8       ??_C@_09FHIEKOPH@rsaesOaep?$AA@ 0007d7e8     libeay32:obj_dat.obj
 0002:000157f4       ??_C@_0L@NCPDMLAN@RSAES?9OAEP?$AA@ 0007d7f4     libeay32:obj_dat.obj
 0002:00015800       ??_C@_0BG@MBIALEGA@aes?9256?9cbc?9hmac?9sha1?$AA@ 0007d800     libeay32:obj_dat.obj
 0002:00015818       ??_C@_0BG@NJKHMG@AES?9256?9CBC?9HMAC?9SHA1?$AA@ 0007d818     libeay32:obj_dat.obj
 0002:00015830       ??_C@_0BG@GKCPENNE@aes?9192?9cbc?9hmac?9sha1?$AA@ 0007d830     libeay32:obj_dat.obj
 0002:00015848       ??_C@_0BG@KLHGFOHC@AES?9192?9CBC?9HMAC?9SHA1?$AA@ 0007d848     libeay32:obj_dat.obj
 0002:00015860       ??_C@_0BG@CLBGODOC@aes?9128?9cbc?9hmac?9sha1?$AA@ 0007d860     libeay32:obj_dat.obj
 0002:00015878       ??_C@_0BG@OKEPPAEE@AES?9128?9CBC?9HMAC?9SHA1?$AA@ 0007d878     libeay32:obj_dat.obj
 0002:00015890       ??_C@_0N@EFPJLHOG@rc4?9hmac?9md5?$AA@ 0007d890     libeay32:obj_dat.obj
 0002:000158a0       ??_C@_0N@MFFPBCGK@RC4?9HMAC?9MD5?$AA@ 0007d8a0     libeay32:obj_dat.obj
 0002:000158b0       ??_C@_0M@FHDOMLNI@aes?9256?9xts?$AA@ 0007d8b0     libeay32:obj_dat.obj
 0002:000158bc       ??_C@_0M@ILDFFBFL@AES?9256?9XTS?$AA@ 0007d8bc     libeay32:obj_dat.obj
 0002:000158c8       ??_C@_0M@CGBMJDMF@aes?9128?9xts?$AA@ 0007d8c8     libeay32:obj_dat.obj
 0002:000158d4       ??_C@_0M@PKBHAJEG@AES?9128?9XTS?$AA@ 0007d8d4     libeay32:obj_dat.obj
 0002:000158e0       ??_C@_09FGGKIFKD@rsassaPss?$AA@ 0007d8e0     libeay32:obj_dat.obj
 0002:000158ec       ??_C@_0L@CPMAKEFG@RSASSA?9PSS?$AA@ 0007d8ec     libeay32:obj_dat.obj
 0002:000158f8       ??_C@_04HEIJMEIE@mgf1?$AA@ 0007d8f8     libeay32:obj_dat.obj
 0002:00015900       ??_C@_04CNDHACFO@MGF1?$AA@ 0007d900     libeay32:obj_dat.obj
 0002:00015908       ??_C@_0BH@FHBOBBKO@Any?5Extended?5Key?5Usage?$AA@ 0007d908     libeay32:obj_dat.obj
 0002:00015920       ??_C@_0BE@FKFLDMON@anyExtendedKeyUsage?$AA@ 0007d920     libeay32:obj_dat.obj
 0002:00015934       ??_C@_0BE@PHKLGFJC@id?9camellia256?9wrap?$AA@ 0007d934     libeay32:obj_dat.obj
 0002:00015948       ??_C@_0BE@GNMGGIAL@id?9camellia192?9wrap?$AA@ 0007d948     libeay32:obj_dat.obj
 0002:0001595c       ??_C@_0BE@JENMCLBD@id?9camellia128?9wrap?$AA@ 0007d95c     libeay32:obj_dat.obj
 0002:00015970       ??_C@_0M@MJDNCKAH@aes?9256?9ctr?$AA@ 0007d970     libeay32:obj_dat.obj
 0002:0001597c       ??_C@_0M@BFDGLAIE@AES?9256?9CTR?$AA@ 0007d97c     libeay32:obj_dat.obj
 0002:00015988       ??_C@_0M@BLIDAFIG@aes?9192?9ctr?$AA@ 0007d988     libeay32:obj_dat.obj
 0002:00015994       ??_C@_0M@MHIIJPAF@AES?9192?9CTR?$AA@ 0007d994     libeay32:obj_dat.obj
 0002:000159a0       ??_C@_0M@LIBPHCBK@aes?9128?9ctr?$AA@ 0007d9a0     libeay32:obj_dat.obj
 0002:000159ac       ??_C@_0M@GEBEOIJJ@AES?9128?9CTR?$AA@ 0007d9ac     libeay32:obj_dat.obj
 0002:000159b8       ??_C@_0BD@OHLFOIJM@id?9aes256?9wrap?9pad?$AA@ 0007d9b8     libeay32:obj_dat.obj
 0002:000159cc       ??_C@_0M@BNAOJBGM@aes?9256?9ccm?$AA@ 0007d9cc     libeay32:obj_dat.obj
 0002:000159d8       ??_C@_0O@EDMKMBKB@id?9aes256?9CCM?$AA@ 0007d9d8     libeay32:obj_dat.obj
 0002:000159e8       ??_C@_0M@JCGMAGDL@aes?9256?9gcm?$AA@ 0007d9e8     libeay32:obj_dat.obj
 0002:000159f4       ??_C@_0O@MMKIFGPG@id?9aes256?9GCM?$AA@ 0007d9f4     libeay32:obj_dat.obj
 0002:00015a04       ??_C@_0BD@OPKMLKFB@id?9aes192?9wrap?9pad?$AA@ 0007da04     libeay32:obj_dat.obj
 0002:00015a18       ??_C@_0M@MPLALOON@aes?9192?9ccm?$AA@ 0007da18     libeay32:obj_dat.obj
 0002:00015a24       ??_C@_0O@JBHEOOCA@id?9aes192?9CCM?$AA@ 0007da24     libeay32:obj_dat.obj
 0002:00015a34       ??_C@_0M@EANCCJLK@aes?9192?9gcm?$AA@ 0007da34     libeay32:obj_dat.obj
 0002:00015a40       ??_C@_0O@BOBGHJHH@id?9aes192?9GCM?$AA@ 0007da40     libeay32:obj_dat.obj
 0002:00015a50       ??_C@_0BD@HMJBEGNL@id?9aes128?9wrap?9pad?$AA@ 0007da50     libeay32:obj_dat.obj
 0002:00015a64       ??_C@_0M@GMCMMJHB@aes?9128?9ccm?$AA@ 0007da64     libeay32:obj_dat.obj
 0002:00015a70       ??_C@_0O@DCOIJJLM@id?9aes128?9CCM?$AA@ 0007da70     libeay32:obj_dat.obj
 0002:00015a80       ??_C@_0M@ODEOFOCG@aes?9128?9gcm?$AA@ 0007da80     libeay32:obj_dat.obj
 0002:00015a8c       ??_C@_0O@LNIKAOOL@id?9aes128?9GCM?$AA@ 0007da8c     libeay32:obj_dat.obj
 0002:00015a9c       ??_C@_04CJMGLDNC@cmac?$AA@ 0007da9c     libeay32:obj_dat.obj
 0002:00015aa4       ??_C@_04OFPMFBKK@CMAC?$AA@ 0007daa4     libeay32:obj_dat.obj
 0002:00015aac       ??_C@_0BA@NJOHMDIG@id?9alg?9PWRI?9KEK?$AA@ 0007daac     libeay32:obj_dat.obj
 0002:00015abc       ??_C@_07ILKEFPGB@dmdName?$AA@ 0007dabc     libeay32:obj_dat.obj
 0002:00015ac4       ??_C@_0BE@MNOFELKF@deltaRevocationList?$AA@ 0007dac4     libeay32:obj_dat.obj
 0002:00015ad8       ??_C@_0BE@KGOGIPEN@supportedAlgorithms?$AA@ 0007dad8     libeay32:obj_dat.obj
 0002:00015aec       ??_C@_0BA@EKKIBBF@houseIdentifier?$AA@ 0007daec     libeay32:obj_dat.obj
 0002:00015afc       ??_C@_0N@FIGDLDDJ@uniqueMember?$AA@ 0007dafc     libeay32:obj_dat.obj
 0002:00015b0c       ??_C@_0BC@IIJOGNNH@distinguishedName?$AA@ 0007db0c     libeay32:obj_dat.obj
 0002:00015b20       ??_C@_0BE@FKAMNJMM@protocolInformation?$AA@ 0007db20     libeay32:obj_dat.obj
 0002:00015b34       ??_C@_0BE@NNAGLFEM@enhancedSearchGuide?$AA@ 0007db34     libeay32:obj_dat.obj
 0002:00015b48       ??_C@_0BF@GAAPBDAE@crossCertificatePair?$AA@ 0007db48     libeay32:obj_dat.obj
 0002:00015b60       ??_C@_0BK@IMFDMOND@certificateRevocationList?$AA@ 0007db60     libeay32:obj_dat.obj
 0002:00015b7c       ??_C@_0BI@EODAEBFG@authorityRevocationList?$AA@ 0007db7c     libeay32:obj_dat.obj
 0002:00015b94       ??_C@_0O@JJCNKCKK@cACertificate?$AA@ 0007db94     libeay32:obj_dat.obj
 0002:00015ba4       ??_C@_0BA@FEECIELF@userCertificate?$AA@ 0007dba4     libeay32:obj_dat.obj
 0002:00015bb4       ??_C@_0N@JHMNNHKM@userPassword?$AA@ 0007dbb4     libeay32:obj_dat.obj
 0002:00015bc4       ??_C@_07JJAENDGN@seeAlso?$AA@ 0007dbc4     libeay32:obj_dat.obj
 0002:00015bcc       ??_C@_0N@NAEJMDPF@roleOccupant?$AA@ 0007dbcc     libeay32:obj_dat.obj
 0002:00015bdc       ??_C@_05HEIBENID@owner?$AA@ 0007dbdc     libeay32:obj_dat.obj
 0002:00015be4       ??_C@_06HDFDANIG@member?$AA@ 0007dbe4     libeay32:obj_dat.obj
 0002:00015bec       ??_C@_0BM@NHJFOGBI@supportedApplicationContext?$AA@ 0007dbec     libeay32:obj_dat.obj
 0002:00015c08       ??_C@_0BE@KHACCONJ@presentationAddress?$AA@ 0007dc08     libeay32:obj_dat.obj
 0002:00015c1c       ??_C@_0BI@MKMMOKIA@preferredDeliveryMethod?$AA@ 0007dc1c     libeay32:obj_dat.obj
 0002:00015c34       ??_C@_0BF@CMAFNEOO@destinationIndicator?$AA@ 0007dc34     libeay32:obj_dat.obj
 0002:00015c4c       ??_C@_0BC@DLLOJDNE@registeredAddress?$AA@ 0007dc4c     libeay32:obj_dat.obj
 0002:00015c60       ??_C@_0BI@OAHCBLEE@internationaliSDNNumber?$AA@ 0007dc60     libeay32:obj_dat.obj
 0002:00015c78       ??_C@_0M@MOCAHDLJ@x121Address?$AA@ 0007dc78     libeay32:obj_dat.obj
 0002:00015c84       ??_C@_0BJ@NDMMBDAB@facsimileTelephoneNumber?$AA@ 0007dc84     libeay32:obj_dat.obj
 0002:00015ca0       ??_C@_0BK@BBNEJJDC@teletexTerminalIdentifier?$AA@ 0007dca0     libeay32:obj_dat.obj
 0002:00015cbc       ??_C@_0M@MMDMBPMM@telexNumber?$AA@ 0007dcbc     libeay32:obj_dat.obj
 0002:00015cc8       ??_C@_0BA@NCAGJGBF@telephoneNumber?$AA@ 0007dcc8     libeay32:obj_dat.obj
 0002:00015cd8       ??_C@_0BL@DENBGONK@physicalDeliveryOfficeName?$AA@ 0007dcd8     libeay32:obj_dat.obj
 0002:00015cf4       ??_C@_0O@PCCHCGPG@postOfficeBox?$AA@ 0007dcf4     libeay32:obj_dat.obj
 0002:00015d04       ??_C@_0O@KABBPKPG@postalAddress?$AA@ 0007dd04     libeay32:obj_dat.obj
 0002:00015d14       ??_C@_0BB@GFJJGHBI@businessCategory?$AA@ 0007dd14     libeay32:obj_dat.obj
 0002:00015d28       ??_C@_0M@MCCFGANF@searchGuide?$AA@ 0007dd28     libeay32:obj_dat.obj
 0002:00015d34       ??_C@_0BF@DGGAJJCO@Permanent?5Identifier?$AA@ 0007dd34     libeay32:obj_dat.obj
 0002:00015d4c       ??_C@_0BK@BMFCOPIC@id?9on?9permanentIdentifier?$AA@ 0007dd4c     libeay32:obj_dat.obj
 0002:00015d68       ??_C@_0BE@KEJIKEFG@X509v3?5Freshest?5CRL?$AA@ 0007dd68     libeay32:obj_dat.obj
 0002:00015d7c       ??_C@_0M@PKNKMHEG@freshestCRL?$AA@ 0007dd7c     libeay32:obj_dat.obj
 0002:00015d88       ??_C@_0BI@FMFOLFMC@Microsoft?5Local?5Key?5set?$AA@ 0007dd88     libeay32:obj_dat.obj
 0002:00015da0       ??_C@_0M@LCODBGNO@LocalKeySet?$AA@ 0007dda0     libeay32:obj_dat.obj
 0002:00015dac       ??_C@_04FOBGICMD@hmac?$AA@ 0007ddac     libeay32:obj_dat.obj
 0002:00015db4       ??_C@_04JCCMGALL@HMAC?$AA@ 0007ddb4     libeay32:obj_dat.obj
 0002:00015dbc       ??_C@_0CJ@NCCJHEBD@GOST?5R?53410?92001?5Parameter?5Set?5C@ 0007ddbc     libeay32:obj_dat.obj
 0002:00015de8       ??_C@_0BO@LBPHKLOM@id?9GostR3410?92001?9ParamSet?9cc?$AA@ 0007dde8     libeay32:obj_dat.obj
 0002:00015e08       ??_C@_0DB@BGOOPLFE@GOST?5R?534?411?994?5with?5GOST?5R?534?41@ 0007de08     libeay32:obj_dat.obj
 0002:00015e3c       ??_C@_0CH@JJNMILDM@id?9GostR3411?994?9with?9GostR3410?92@ 0007de3c     libeay32:obj_dat.obj
 0002:00015e64       ??_C@_0CP@ILDIBBAJ@GOST?5R?534?411?994?5with?5GOST?5R?534?41@ 0007de64     libeay32:obj_dat.obj
 0002:00015e94       ??_C@_0CF@FCIKJGLH@id?9GostR3411?994?9with?9GostR3410?99@ 0007de94     libeay32:obj_dat.obj
 0002:00015ebc       ??_C@_0BK@IGCJADLM@GOST?534?410?92001?5Cryptocom?$AA@ 0007debc     libeay32:obj_dat.obj
 0002:00015ed8       ??_C@_0L@PKDOCLKG@gost2001cc?$AA@ 0007ded8     libeay32:obj_dat.obj
 0002:00015ee4       ??_C@_0BI@GJIILMEB@GOST?534?410?994?5Cryptocom?$AA@ 0007dee4     libeay32:obj_dat.obj
 0002:00015efc       ??_C@_08LCDFMIFG@gost94cc?$AA@ 0007defc     libeay32:obj_dat.obj
 0002:00015f08       ??_C@_0CB@KNOPDNHN@GOST?528147?989?5Cryptocom?5ParamSet@ 0007df08     libeay32:obj_dat.obj
 0002:00015f2c       ??_C@_0BD@MEAAKKFJ@id?9Gost28147?989?9cc?$AA@ 0007df2c     libeay32:obj_dat.obj
 0002:00015f40       ??_C@_0BF@PGMBMCGF@id?9GostR3410?994?9bBis?$AA@ 0007df40     libeay32:obj_dat.obj
 0002:00015f58       ??_C@_0BC@MKOAJFN@id?9GostR3410?994?9b?$AA@ 0007df58     libeay32:obj_dat.obj
 0002:00015f6c       ??_C@_0BF@LBGBLILF@id?9GostR3410?994?9aBis?$AA@ 0007df6c     libeay32:obj_dat.obj
 0002:00015f84       ??_C@_0BC@CHIDFKJO@id?9GostR3410?994?9a?$AA@ 0007df84     libeay32:obj_dat.obj
 0002:00015f98       ??_C@_0CK@GDLEHLKF@id?9GostR3410?92001?9CryptoPro?9XchB@ 0007df98     libeay32:obj_dat.obj
 0002:00015fc4       ??_C@_0CK@PKFGBNKE@id?9GostR3410?92001?9CryptoPro?9XchA@ 0007dfc4     libeay32:obj_dat.obj
 0002:00015ff0       ??_C@_0CH@DLGDIIGO@id?9GostR3410?92001?9CryptoPro?9C?9Pa@ 0007dff0     libeay32:obj_dat.obj
 0002:00016018       ??_C@_0CH@PKONFHKO@id?9GostR3410?92001?9CryptoPro?9B?9Pa@ 0007e018     libeay32:obj_dat.obj
 0002:00016040       ??_C@_0CH@GDAPDBKP@id?9GostR3410?92001?9CryptoPro?9A?9Pa@ 0007e040     libeay32:obj_dat.obj
 0002:00016068       ??_C@_0BP@GEEJLPDI@id?9GostR3410?92001?9TestParamSet?$AA@ 0007e068     libeay32:obj_dat.obj
 0002:00016088       ??_C@_0CI@DAANNIN@id?9GostR3410?994?9CryptoPro?9XchC?9P@ 0007e088     libeay32:obj_dat.obj
 0002:000160b0       ??_C@_0CI@MCIOACEN@id?9GostR3410?994?9CryptoPro?9XchB?9P@ 0007e0b0     libeay32:obj_dat.obj
 0002:000160d8       ??_C@_0CI@FLGMGEEM@id?9GostR3410?994?9CryptoPro?9XchA?9P@ 0007e0d8     libeay32:obj_dat.obj
 0002:00016100       ??_C@_0CF@LMAJFDGB@id?9GostR3410?994?9CryptoPro?9D?9Para@ 0007e100     libeay32:obj_dat.obj
 0002:00016128       ??_C@_0CF@JFDCEGOC@id?9GostR3410?994?9CryptoPro?9C?9Para@ 0007e128     libeay32:obj_dat.obj
 0002:00016150       ??_C@_0CF@FELMJJCC@id?9GostR3410?994?9CryptoPro?9B?9Para@ 0007e150     libeay32:obj_dat.obj
 0002:00016178       ??_C@_0CF@MNFOPPCD@id?9GostR3410?994?9CryptoPro?9A?9Para@ 0007e178     libeay32:obj_dat.obj
 0002:000161a0       ??_C@_0BN@NAOAJFAF@id?9GostR3410?994?9TestParamSet?$AA@ 0007e1a0     libeay32:obj_dat.obj
 0002:000161c0       ??_C@_0CJ@IIADIAJH@id?9Gost28147?989?9CryptoPro?9RIC?91?9@ 0007e1c0     libeay32:obj_dat.obj
 0002:000161ec       ??_C@_0CN@IIJDEMNM@id?9Gost28147?989?9CryptoPro?9Oscar?9@ 0007e1ec     libeay32:obj_dat.obj
 0002:0001621c       ??_C@_0CN@EJBNJDBM@id?9Gost28147?989?9CryptoPro?9Oscar?9@ 0007e21c     libeay32:obj_dat.obj
 0002:0001624c       ??_C@_0CF@IEBLBMOP@id?9Gost28147?989?9CryptoPro?9D?9Para@ 0007e24c     libeay32:obj_dat.obj
 0002:00016274       ??_C@_0CF@KNCAAJGM@id?9Gost28147?989?9CryptoPro?9C?9Para@ 0007e274     libeay32:obj_dat.obj
 0002:0001629c       ??_C@_0CF@GMKONGKM@id?9Gost28147?989?9CryptoPro?9B?9Para@ 0007e29c     libeay32:obj_dat.obj
 0002:000162c4       ??_C@_0CF@PFEMLAKN@id?9Gost28147?989?9CryptoPro?9A?9Para@ 0007e2c4     libeay32:obj_dat.obj
 0002:000162ec       ??_C@_0BN@GKJFBLMI@id?9Gost28147?989?9TestParamSet?$AA@ 0007e2ec     libeay32:obj_dat.obj
 0002:0001630c       ??_C@_0CC@DOHJLMBI@id?9GostR3411?994?9CryptoProParamSe@ 0007e30c     libeay32:obj_dat.obj
 0002:00016330       ??_C@_0BN@DPLCCDOE@id?9GostR3411?994?9TestParamSet?$AA@ 0007e330     libeay32:obj_dat.obj
 0002:00016350       ??_C@_0CA@BLJAEGEG@id?9Gost28147?989?9None?9KeyMeshing?$AA@ 0007e350     libeay32:obj_dat.obj
 0002:00016370       ??_C@_0CF@MMKONEIK@id?9Gost28147?989?9CryptoPro?9KeyMes@ 0007e370     libeay32:obj_dat.obj
 0002:00016398       ??_C@_0BD@LGKAOLPL@GOST?5R?534?410?994?5DH?$AA@ 0007e398     libeay32:obj_dat.obj
 0002:000163ac       ??_C@_0BC@CEMDDFNK@id?9GostR3410?994DH?$AA@ 0007e3ac     libeay32:obj_dat.obj
 0002:000163c0       ??_C@_0BF@OKPANPLK@GOST?5R?534?410?92001?5DH?$AA@ 0007e3c0     libeay32:obj_dat.obj
 0002:000163d8       ??_C@_0BE@OBKEJCJB@id?9GostR3410?92001DH?$AA@ 0007e3d8     libeay32:obj_dat.obj
 0002:000163ec       ??_C@_0BE@FFELJBNB@GOST?5R?534?411?994?5PRF?$AA@ 0007e3ec     libeay32:obj_dat.obj
 0002:00016400       ??_C@_0BB@LJIINAAP@prf?9gostr3411?994?$AA@ 0007e400     libeay32:obj_dat.obj
 0002:00016414       ??_C@_0BC@BPAGAEJB@GOST?528147?989?5MAC?$AA@ 0007e414     libeay32:obj_dat.obj
 0002:00016428       ??_C@_08JCNEGNFC@gost?9mac?$AA@ 0007e428     libeay32:obj_dat.obj
 0002:00016434       ??_C@_0L@INGOKGPP@gost89?9cnt?$AA@ 0007e434     libeay32:obj_dat.obj
 0002:00016440       ??_C@_0O@POKHNLDL@GOST?528147?989?$AA@ 0007e440     libeay32:obj_dat.obj
 0002:00016450       ??_C@_06KLPDHLCD@gost89?$AA@ 0007e450     libeay32:obj_dat.obj
 0002:00016458       ??_C@_0BA@JOCBNIHN@GOST?5R?534?410?994?$AA@ 0007e458     libeay32:obj_dat.obj
 0002:00016468       ??_C@_06BPJPGPFJ@gost94?$AA@ 0007e468     libeay32:obj_dat.obj
 0002:00016470       ??_C@_0BC@IBNIHBI@GOST?5R?534?410?92001?$AA@ 0007e470     libeay32:obj_dat.obj
 0002:00016484       ??_C@_08KMPAMBCP@gost2001?$AA@ 0007e484     libeay32:obj_dat.obj
 0002:00016490       ??_C@_0BD@BHKLGKNG@HMAC?5GOST?534?411?994?$AA@ 0007e490     libeay32:obj_dat.obj
 0002:000164a4       ??_C@_0BE@EBBOKDGI@id?9HMACGostR3411?994?$AA@ 0007e4a4     libeay32:obj_dat.obj
 0002:000164b8       ??_C@_0BA@KDEBPBMN@GOST?5R?534?411?994?$AA@ 0007e4b8     libeay32:obj_dat.obj
 0002:000164c8       ??_C@_09MIOJGGFD@md_gost94?$AA@ 0007e4c8     libeay32:obj_dat.obj
 0002:000164d4       ??_C@_0CF@PAGBHGOC@GOST?5R?534?411?994?5with?5GOST?5R?534?41@ 0007e4d4     libeay32:obj_dat.obj
 0002:000164fc       ??_C@_0CC@LCAPGDKC@id?9GostR3411?994?9with?9GostR3410?99@ 0007e4fc     libeay32:obj_dat.obj
 0002:00016520       ??_C@_0CH@MPKKPBGC@GOST?5R?534?411?994?5with?5GOST?5R?534?41@ 0007e520     libeay32:obj_dat.obj
 0002:00016548       ??_C@_0CE@FCAOBIOC@id?9GostR3411?994?9with?9GostR3410?92@ 0007e548     libeay32:obj_dat.obj
 0002:0001656c       ??_C@_09JGBNPHGI@cryptocom?$AA@ 0007e56c     libeay32:obj_dat.obj
 0002:00016578       ??_C@_09PCHJFNLI@cryptopro?$AA@ 0007e578     libeay32:obj_dat.obj
 0002:00016584       ??_C@_09DEGKDAEL@whirlpool?$AA@ 0007e584     libeay32:obj_dat.obj
 0002:00016590       ??_C@_0BA@FMFCOCGA@dsa_with_SHA256?$AA@ 0007e590     libeay32:obj_dat.obj
 0002:000165a0       ??_C@_0BA@GLCLJGGH@dsa_with_SHA224?$AA@ 0007e5a0     libeay32:obj_dat.obj
 0002:000165b0       ??_C@_0P@FLKKCAHA@hmacWithSHA512?$AA@ 0007e5b0     libeay32:obj_dat.obj
 0002:000165c0       ??_C@_0P@CHEKODKF@hmacWithSHA384?$AA@ 0007e5c0     libeay32:obj_dat.obj
 0002:000165d0       ??_C@_0P@KFBIHFBB@hmacWithSHA256?$AA@ 0007e5d0     libeay32:obj_dat.obj
 0002:000165e0       ??_C@_0P@JCGBABBG@hmacWithSHA224?$AA@ 0007e5e0     libeay32:obj_dat.obj
 0002:000165f0       ??_C@_0M@KOBPMNIO@hmacWithMD5?$AA@ 0007e5f0     libeay32:obj_dat.obj
 0002:000165fc       ??_C@_0BC@DONDMJAG@ecdsa?9with?9SHA512?$AA@ 0007e5fc     libeay32:obj_dat.obj
 0002:00016610       ??_C@_0BC@ECDDAKND@ecdsa?9with?9SHA384?$AA@ 0007e610     libeay32:obj_dat.obj
 0002:00016624       ??_C@_0BC@MAGBJMGH@ecdsa?9with?9SHA256?$AA@ 0007e624     libeay32:obj_dat.obj
 0002:00016638       ??_C@_0BC@PHBIOIGA@ecdsa?9with?9SHA224?$AA@ 0007e638     libeay32:obj_dat.obj
 0002:0001664c       ??_C@_0BF@INFCLNHO@ecdsa?9with?9Specified?$AA@ 0007e64c     libeay32:obj_dat.obj
 0002:00016664       ??_C@_0BH@GCJALNKM@ecdsa?9with?9Recommended?$AA@ 0007e664     libeay32:obj_dat.obj
 0002:0001667c       ??_C@_0P@KDMMBOEP@id?9aes256?9wrap?$AA@ 0007e67c     libeay32:obj_dat.obj
 0002:0001668c       ??_C@_0P@DJKBBDNG@id?9aes192?9wrap?$AA@ 0007e68c     libeay32:obj_dat.obj
 0002:0001669c       ??_C@_0P@MALLFAMO@id?9aes128?9wrap?$AA@ 0007e69c     libeay32:obj_dat.obj
 0002:000166ac       ??_C@_0BI@FNBGJEPL@id?9ct?9asciiTextWithCRLF?$AA@ 0007e6ac     libeay32:obj_dat.obj
 0002:000166c4       ??_C@_0BL@HEJKLKLL@id?9smime?9ct?9compressedData?$AA@ 0007e6c4     libeay32:obj_dat.obj
 0002:000166e0       ??_C@_0O@LBCGFGCI@CA?5Repository?$AA@ 0007e6e0     libeay32:obj_dat.obj
 0002:000166f0       ??_C@_0N@CKNFLOGG@caRepository?$AA@ 0007e6f0     libeay32:obj_dat.obj
 0002:00016700       ??_C@_0BD@MGCOMIO@id?9it?9suppLangTags?$AA@ 0007e700     libeay32:obj_dat.obj
 0002:00016714       ??_C@_0BJ@CDGIGDFG@Diffie?9Hellman?5based?5MAC?$AA@ 0007e714     libeay32:obj_dat.obj
 0002:00016730       ??_C@_0O@MEHCKGFD@id?9DHBasedMac?$AA@ 0007e730     libeay32:obj_dat.obj
 0002:00016740       ??_C@_0BD@FANJCJAP@password?5based?5MAC?$AA@ 0007e740     libeay32:obj_dat.obj
 0002:00016754       ??_C@_0BE@HCNFOMHA@id?9PasswordBasedMAC?$AA@ 0007e754     libeay32:obj_dat.obj
 0002:00016768       ??_C@_09KBOMLGBN@hmac?9sha1?$AA@ 0007e768     libeay32:obj_dat.obj
 0002:00016774       ??_C@_09DDFKKHO@HMAC?9SHA1?$AA@ 0007e774     libeay32:obj_dat.obj
 0002:00016780       ??_C@_08LPACCAD@hmac?9md5?$AA@ 0007e780     libeay32:obj_dat.obj
 0002:0001678c       ??_C@_08CABJBHIC@HMAC?9MD5?$AA@ 0007e78c     libeay32:obj_dat.obj
 0002:00016798       ??_C@_08JGLJJHP@seed?9cfb?$AA@ 0007e798     libeay32:obj_dat.obj
 0002:000167a4       ??_C@_08LHAGIIFM@SEED?9CFB?$AA@ 0007e7a4     libeay32:obj_dat.obj
 0002:000167b0       ??_C@_08EDLNCGMH@seed?9ofb?$AA@ 0007e7b0     libeay32:obj_dat.obj
 0002:000167bc       ??_C@_08PNNADHOE@SEED?9OFB?$AA@ 0007e7bc     libeay32:obj_dat.obj
 0002:000167c8       ??_C@_08BHHJAAOC@seed?9cbc?$AA@ 0007e7c8     libeay32:obj_dat.obj
 0002:000167d4       ??_C@_08KJBEBBMB@SEED?9CBC?$AA@ 0007e7d4     libeay32:obj_dat.obj
 0002:000167e0       ??_C@_08CKMLAEEI@seed?9ecb?$AA@ 0007e7e0     libeay32:obj_dat.obj
 0002:000167ec       ??_C@_08JEKGBFGL@SEED?9ECB?$AA@ 0007e7ec     libeay32:obj_dat.obj
 0002:000167f8       ??_C@_04LLEAHKNI@kisa?$AA@ 0007e7f8     libeay32:obj_dat.obj
 0002:00016800       ??_C@_04HHHKJIKA@KISA?$AA@ 0007e800     libeay32:obj_dat.obj
 0002:00016808       ??_C@_0BK@EMNEMCDI@X509v3?5Certificate?5Issuer?$AA@ 0007e808     libeay32:obj_dat.obj
 0002:00016824       ??_C@_0BC@NAJGKAHO@certificateIssuer?$AA@ 0007e824     libeay32:obj_dat.obj
 0002:00016838       ??_C@_0CC@MMIACGNM@X509v3?5Issuing?5Distrubution?5Poin@ 0007e838     libeay32:obj_dat.obj
 0002:0001685c       ??_C@_0BJ@OAOPOBMH@issuingDistributionPoint?$AA@ 0007e85c     libeay32:obj_dat.obj
 0002:00016878       ??_C@_0CE@OGGDDHCK@X509v3?5Subject?5Directory?5Attribu@ 0007e878     libeay32:obj_dat.obj
 0002:0001689c       ??_C@_0BL@GAJEKNCJ@subjectDirectoryAttributes?$AA@ 0007e89c     libeay32:obj_dat.obj
 0002:000168b8       ??_C@_0BB@EGAOKAEM@camellia?9256?9ofb?$AA@ 0007e8b8     libeay32:obj_dat.obj
 0002:000168cc       ??_C@_0BB@FFEGHOPL@CAMELLIA?9256?9OFB?$AA@ 0007e8cc     libeay32:obj_dat.obj
 0002:000168e0       ??_C@_0BB@JELAIPMN@camellia?9192?9ofb?$AA@ 0007e8e0     libeay32:obj_dat.obj
 0002:000168f4       ??_C@_0BB@IHPIFBHK@CAMELLIA?9192?9OFB?$AA@ 0007e8f4     libeay32:obj_dat.obj
 0002:00016908       ??_C@_0BB@DHCMPIFB@camellia?9128?9ofb?$AA@ 0007e908     libeay32:obj_dat.obj
 0002:0001691c       ??_C@_0BB@CEGECGOG@CAMELLIA?9128?9OFB?$AA@ 0007e91c     libeay32:obj_dat.obj
 0002:00016930       ??_C@_0BC@KNEDFCOB@camellia?9256?9cfb8?$AA@ 0007e930     libeay32:obj_dat.obj
 0002:00016944       ??_C@_0BC@PIFFDMBA@CAMELLIA?9256?9CFB8?$AA@ 0007e944     libeay32:obj_dat.obj
 0002:00016958       ??_C@_0BC@DHCOFPHI@camellia?9192?9cfb8?$AA@ 0007e958     libeay32:obj_dat.obj
 0002:0001696c       ??_C@_0BC@GCDIDBIJ@CAMELLIA?9192?9CFB8?$AA@ 0007e96c     libeay32:obj_dat.obj
 0002:00016980       ??_C@_0BC@MODEBMGA@camellia?9128?9cfb8?$AA@ 0007e980     libeay32:obj_dat.obj
 0002:00016994       ??_C@_0BC@JLCCHCJB@CAMELLIA?9128?9CFB8?$AA@ 0007e994     libeay32:obj_dat.obj
 0002:000169a8       ??_C@_0BC@HMIBOJKI@camellia?9256?9cfb1?$AA@ 0007e9a8     libeay32:obj_dat.obj
 0002:000169bc       ??_C@_0BC@CJJHIHFJ@CAMELLIA?9256?9CFB1?$AA@ 0007e9bc     libeay32:obj_dat.obj
 0002:000169d0       ??_C@_0BC@OGOMOEDB@camellia?9192?9cfb1?$AA@ 0007e9d0     libeay32:obj_dat.obj
 0002:000169e4       ??_C@_0BC@LDPKIKMA@CAMELLIA?9192?9CFB1?$AA@ 0007e9e4     libeay32:obj_dat.obj
 0002:000169f8       ??_C@_0BC@BPPGKHCJ@camellia?9128?9cfb1?$AA@ 0007e9f8     libeay32:obj_dat.obj
 0002:00016a0c       ??_C@_0BC@EKOAMJNI@CAMELLIA?9128?9CFB1?$AA@ 0007ea0c     libeay32:obj_dat.obj
 0002:00016a20       ??_C@_0BB@MNIBPPE@camellia?9256?9cfb?$AA@ 0007ea20     libeay32:obj_dat.obj
 0002:00016a34       ??_C@_0BB@BPJAMBED@CAMELLIA?9256?9CFB?$AA@ 0007ea34     libeay32:obj_dat.obj
 0002:00016a48       ??_C@_0BB@NOGGDAHF@camellia?9192?9cfb?$AA@ 0007ea48     libeay32:obj_dat.obj
 0002:00016a5c       ??_C@_0BB@MNCOOOMC@CAMELLIA?9192?9CFB?$AA@ 0007ea5c     libeay32:obj_dat.obj
 0002:00016a70       ??_C@_0BB@HNPKEHOJ@camellia?9128?9cfb?$AA@ 0007ea70     libeay32:obj_dat.obj
 0002:00016a84       ??_C@_0BB@GOLCJJFO@CAMELLIA?9128?9CFB?$AA@ 0007ea84     libeay32:obj_dat.obj
 0002:00016a98       ??_C@_0BB@CPHIICMD@camellia?9256?9ecb?$AA@ 0007ea98     libeay32:obj_dat.obj
 0002:00016aac       ??_C@_0BB@DMDAFMHE@CAMELLIA?9256?9ECB?$AA@ 0007eaac     libeay32:obj_dat.obj
 0002:00016ac0       ??_C@_0BB@PNMGKNEC@camellia?9192?9ecb?$AA@ 0007eac0     libeay32:obj_dat.obj
 0002:00016ad4       ??_C@_0BB@OOIOHDPF@CAMELLIA?9192?9ECB?$AA@ 0007ead4     libeay32:obj_dat.obj
 0002:00016ae8       ??_C@_0BB@FOFKNKNO@camellia?9128?9ecb?$AA@ 0007eae8     libeay32:obj_dat.obj
 0002:00016afc       ??_C@_0BB@ENBCAEGJ@CAMELLIA?9128?9ECB?$AA@ 0007eafc     libeay32:obj_dat.obj
 0002:00016b10       ??_C@_0BB@BCMKIGGJ@camellia?9256?9cbc?$AA@ 0007eb10     libeay32:obj_dat.obj
 0002:00016b24       ??_C@_0BB@BICFINO@CAMELLIA?9256?9CBC?$AA@ 0007eb24     libeay32:obj_dat.obj
 0002:00016b38       ??_C@_0BB@MAHEKJOI@camellia?9192?9cbc?$AA@ 0007eb38     libeay32:obj_dat.obj
 0002:00016b4c       ??_C@_0BB@NDDMHHFP@CAMELLIA?9192?9CBC?$AA@ 0007eb4c     libeay32:obj_dat.obj
 0002:00016b60       ??_C@_0BB@GDOINOHE@camellia?9128?9cbc?$AA@ 0007eb60     libeay32:obj_dat.obj
 0002:00016b74       ??_C@_0BB@HAKAAAMD@CAMELLIA?9128?9CBC?$AA@ 0007eb74     libeay32:obj_dat.obj
 0002:00016b88       ??_C@_06DEKODPNG@ipsec4?$AA@ 0007eb88     libeay32:obj_dat.obj
 0002:00016b90       ??_C@_0O@FENFAHJA@Oakley?9EC2N?94?$AA@ 0007eb90     libeay32:obj_dat.obj
 0002:00016ba0       ??_C@_06HLOPKJBB@ipsec3?$AA@ 0007eba0     libeay32:obj_dat.obj
 0002:00016ba8       ??_C@_0O@BLJEJBFH@Oakley?9EC2N?93?$AA@ 0007eba8     libeay32:obj_dat.obj
 0002:00016bb8       ??_C@_0BK@FPAAFIAO@X509v3?5Inhibit?5Any?5Policy?$AA@ 0007ebb8     libeay32:obj_dat.obj
 0002:00016bd4       ??_C@_0BB@CFCCDKGF@inhibitAnyPolicy?$AA@ 0007ebd4     libeay32:obj_dat.obj
 0002:00016be8       ??_C@_0BH@NJBPACCN@X509v3?5Policy?5Mappings?$AA@ 0007ebe8     libeay32:obj_dat.obj
 0002:00016c00       ??_C@_0P@MEGGINDP@policyMappings?$AA@ 0007ec00     libeay32:obj_dat.obj
 0002:00016c10       ??_C@_0BC@CEEMIAHF@X509v3?5Any?5Policy?$AA@ 0007ec10     libeay32:obj_dat.obj
 0002:00016c24       ??_C@_09HBBJOJHB@anyPolicy?$AA@ 0007ec24     libeay32:obj_dat.obj
 0002:00016c30       ??_C@_0BI@MNOLKEAO@wap?9wsg?9idm?9ecid?9wtls12?$AA@ 0007ec30     libeay32:obj_dat.obj
 0002:00016c48       ??_C@_0BI@OGMGPHMN@wap?9wsg?9idm?9ecid?9wtls11?$AA@ 0007ec48     libeay32:obj_dat.obj
 0002:00016c60       ??_C@_0BI@PPNNMGIM@wap?9wsg?9idm?9ecid?9wtls10?$AA@ 0007ec60     libeay32:obj_dat.obj
 0002:00016c78       ??_C@_0BH@DMKMEGHN@wap?9wsg?9idm?9ecid?9wtls9?$AA@ 0007ec78     libeay32:obj_dat.obj
 0002:00016c90       ??_C@_0BH@CFLHHHDM@wap?9wsg?9idm?9ecid?9wtls8?$AA@ 0007ec90     libeay32:obj_dat.obj
 0002:00016ca8       ??_C@_0BH@KCCPGLPD@wap?9wsg?9idm?9ecid?9wtls7?$AA@ 0007eca8     libeay32:obj_dat.obj
 0002:00016cc0       ??_C@_0BH@LLDEFKLC@wap?9wsg?9idm?9ecid?9wtls6?$AA@ 0007ecc0     libeay32:obj_dat.obj
 0002:00016cd8       ??_C@_0BH@JABJAJHB@wap?9wsg?9idm?9ecid?9wtls5?$AA@ 0007ecd8     libeay32:obj_dat.obj
 0002:00016cf0       ??_C@_0BH@IJACDIDA@wap?9wsg?9idm?9ecid?9wtls4?$AA@ 0007ecf0     libeay32:obj_dat.obj
 0002:00016d08       ??_C@_0BH@MGEDKOPH@wap?9wsg?9idm?9ecid?9wtls3?$AA@ 0007ed08     libeay32:obj_dat.obj
 0002:00016d20       ??_C@_0BH@PEHFMMHF@wap?9wsg?9idm?9ecid?9wtls1?$AA@ 0007ed20     libeay32:obj_dat.obj
 0002:00016d38       ??_C@_09MPLFOIFJ@sect571r1?$AA@ 0007ed38     libeay32:obj_dat.obj
 0002:00016d44       ??_C@_09NMECHAKG@sect571k1?$AA@ 0007ed44     libeay32:obj_dat.obj
 0002:00016d50       ??_C@_09HDHNMPAD@sect409r1?$AA@ 0007ed50     libeay32:obj_dat.obj
 0002:00016d5c       ??_C@_09GAIKFHPM@sect409k1?$AA@ 0007ed5c     libeay32:obj_dat.obj
 0002:00016d68       ??_C@_09PKOJIHLL@sect283r1?$AA@ 0007ed68     libeay32:obj_dat.obj
 0002:00016d74       ??_C@_09OJBOBPEE@sect283k1?$AA@ 0007ed74     libeay32:obj_dat.obj
 0002:00016d80       ??_C@_09PBHDMODB@sect239k1?$AA@ 0007ed80     libeay32:obj_dat.obj
 0002:00016d8c       ??_C@_09INDJLGKK@sect233r1?$AA@ 0007ed8c     libeay32:obj_dat.obj
 0002:00016d98       ??_C@_09JOMOCOFF@sect233k1?$AA@ 0007ed98     libeay32:obj_dat.obj
 0002:00016da4       ??_C@_09GKDAIPGG@sect193r2?$AA@ 0007eda4     libeay32:obj_dat.obj
 0002:00016db0       ??_C@_09EBBNNMKF@sect193r1?$AA@ 0007edb0     libeay32:obj_dat.obj
 0002:00016dbc       ??_C@_09OIGABILH@sect163r2?$AA@ 0007edbc     libeay32:obj_dat.obj
 0002:00016dc8       ??_C@_09MDENELHE@sect163r1?$AA@ 0007edc8     libeay32:obj_dat.obj
 0002:00016dd4       ??_C@_09NALKNDIL@sect163k1?$AA@ 0007edd4     libeay32:obj_dat.obj
 0002:00016de0       ??_C@_09IKIJFPEM@sect131r2?$AA@ 0007ede0     libeay32:obj_dat.obj
 0002:00016dec       ??_C@_09KBKEAMIP@sect131r1?$AA@ 0007edec     libeay32:obj_dat.obj
 0002:00016df8       ??_C@_09FKEAMEKH@sect113r2?$AA@ 0007edf8     libeay32:obj_dat.obj
 0002:00016e04       ??_C@_09HBGNJHGE@sect113r1?$AA@ 0007ee04     libeay32:obj_dat.obj
 0002:00016e10       ??_C@_09PDBKEDDK@secp521r1?$AA@ 0007ee10     libeay32:obj_dat.obj
 0002:00016e1c       ??_C@_09FICNEILE@secp384r1?$AA@ 0007ee1c     libeay32:obj_dat.obj
 0002:00016e28       ??_C@_09NCBPAPNE@secp256k1?$AA@ 0007ee28     libeay32:obj_dat.obj
 0002:00016e34       ??_C@_09NJMBIDLA@secp224r1?$AA@ 0007ee34     libeay32:obj_dat.obj
 0002:00016e40       ??_C@_09MKDGBLEP@secp224k1?$AA@ 0007ee40     libeay32:obj_dat.obj
 0002:00016e4c       ??_C@_09BOBJAHCM@secp192k1?$AA@ 0007ee4c     libeay32:obj_dat.obj
 0002:00016e58       ??_C@_09OJKJDEK@secp160r2?$AA@ 0007ee58     libeay32:obj_dat.obj
 0002:00016e64       ??_C@_09CFLHMAIJ@secp160r1?$AA@ 0007ee64     libeay32:obj_dat.obj
 0002:00016e70       ??_C@_09DGEAFIHG@secp160k1?$AA@ 0007ee70     libeay32:obj_dat.obj
 0002:00016e7c       ??_C@_09DOKOBNGF@secp128r2?$AA@ 0007ee7c     libeay32:obj_dat.obj
 0002:00016e88       ??_C@_09BFIDEOKG@secp128r1?$AA@ 0007ee88     libeay32:obj_dat.obj
 0002:00016e94       ??_C@_09BGLDIHNB@secp112r2?$AA@ 0007ee94     libeay32:obj_dat.obj
 0002:00016ea0       ??_C@_09DNJONEBC@secp112r1?$AA@ 0007eea0     libeay32:obj_dat.obj
 0002:00016eac       ??_C@_0L@OFJKDCBG@c2tnb431r1?$AA@ 0007eeac     libeay32:obj_dat.obj
 0002:00016eb8       ??_C@_0L@BGFAFBLD@c2pnb368w1?$AA@ 0007eeb8     libeay32:obj_dat.obj
 0002:00016ec4       ??_C@_0L@LFGCHHDN@c2tnb359v1?$AA@ 0007eec4     libeay32:obj_dat.obj
 0002:00016ed0       ??_C@_0L@NDMGBLKL@c2pnb304w1?$AA@ 0007eed0     libeay32:obj_dat.obj
 0002:00016edc       ??_C@_0L@IPNBELMC@c2pnb272w1?$AA@ 0007eedc     libeay32:obj_dat.obj
 0002:00016ee8       ??_C@_0L@LLIHEIJA@c2onb239v5?$AA@ 0007eee8     libeay32:obj_dat.obj
 0002:00016ef4       ??_C@_0L@KCJMHJNB@c2onb239v4?$AA@ 0007eef4     libeay32:obj_dat.obj
 0002:00016f00       ??_C@_0L@MDEIDDLK@c2tnb239v3?$AA@ 0007ef00     libeay32:obj_dat.obj
 0002:00016f0c       ??_C@_0L@NKFDACPL@c2tnb239v2?$AA@ 0007ef0c     libeay32:obj_dat.obj
 0002:00016f18       ??_C@_0L@PBHOFBDI@c2tnb239v1?$AA@ 0007ef18     libeay32:obj_dat.obj
 0002:00016f24       ??_C@_0L@FCEMHHLG@c2pnb208w1?$AA@ 0007ef24     libeay32:obj_dat.obj
 0002:00016f30       ??_C@_0L@LCBHAKHA@c2onb191v5?$AA@ 0007ef30     libeay32:obj_dat.obj
 0002:00016f3c       ??_C@_0L@KLAMDLDB@c2onb191v4?$AA@ 0007ef3c     libeay32:obj_dat.obj
 0002:00016f48       ??_C@_0L@MKNIHBFK@c2tnb191v3?$AA@ 0007ef48     libeay32:obj_dat.obj
 0002:00016f54       ??_C@_0L@NDMDEABL@c2tnb191v2?$AA@ 0007ef54     libeay32:obj_dat.obj
 0002:00016f60       ??_C@_0L@PIOOBDNI@c2tnb191v1?$AA@ 0007ef60     libeay32:obj_dat.obj
 0002:00016f6c       ??_C@_0L@IHOFMEAM@c2pnb176v1?$AA@ 0007ef6c     libeay32:obj_dat.obj
 0002:00016f78       ??_C@_0L@LPGNHPAM@c2pnb163v3?$AA@ 0007ef78     libeay32:obj_dat.obj
 0002:00016f84       ??_C@_0L@KGHGEOEN@c2pnb163v2?$AA@ 0007ef84     libeay32:obj_dat.obj
 0002:00016f90       ??_C@_0L@INFLBNIO@c2pnb163v1?$AA@ 0007ef90     libeay32:obj_dat.obj
 0002:00016f9c       ??_C@_07GLJEBFP@ppBasis?$AA@ 0007ef9c     libeay32:obj_dat.obj
 0002:00016fa4       ??_C@_07ICPDEPKF@tpBasis?$AA@ 0007efa4     libeay32:obj_dat.obj
 0002:00016fac       ??_C@_07JEMDIFEL@onBasis?$AA@ 0007efac     libeay32:obj_dat.obj
 0002:00016fb4       ??_C@_0BM@PPOCDOAJ@id?9characteristic?9two?9basis?$AA@ 0007efb4     libeay32:obj_dat.obj
 0002:00016fd0       ??_C@_07KJBJKKHG@wap?9wsg?$AA@ 0007efd0     libeay32:obj_dat.obj
 0002:00016fd8       ??_C@_03EOHJGACH@wap?$AA@  0007efd8     libeay32:obj_dat.obj
 0002:00016fdc       ??_C@_0N@GOPBJFID@certicom?9arc?$AA@ 0007efdc     libeay32:obj_dat.obj
 0002:00016fec       ??_C@_0BI@NDBFOMIA@identified?9organization?$AA@ 0007efec     libeay32:obj_dat.obj
 0002:00017004       ??_C@_06DJABMLNO@sha224?$AA@ 0007f004     libeay32:obj_dat.obj
 0002:0001700c       ??_C@_06DANBNIHA@SHA224?$AA@ 0007f00c     libeay32:obj_dat.obj
 0002:00017014       ??_C@_06PAMKOKLI@sha512?$AA@ 0007f014     libeay32:obj_dat.obj
 0002:0001701c       ??_C@_06PJBKPJBG@SHA512?$AA@ 0007f01c     libeay32:obj_dat.obj
 0002:00017024       ??_C@_06IMCKCJGN@sha384?$AA@ 0007f024     libeay32:obj_dat.obj
 0002:0001702c       ??_C@_06IFPKDKMD@SHA384?$AA@ 0007f02c     libeay32:obj_dat.obj
 0002:00017034       ??_C@_06OHILPNJ@sha256?$AA@ 0007f034     libeay32:obj_dat.obj
 0002:0001703c       ??_C@_06HKIKMHH@SHA256?$AA@ 0007f03c     libeay32:obj_dat.obj
 0002:00017044       ??_C@_0BI@HODNLFBE@sha224WithRSAEncryption?$AA@ 0007f044     libeay32:obj_dat.obj
 0002:0001705c       ??_C@_0L@BPFBIPIP@RSA?9SHA224?$AA@ 0007f05c     libeay32:obj_dat.obj
 0002:00017068       ??_C@_0BI@CFKPHFJF@sha512WithRSAEncryption?$AA@ 0007f068     libeay32:obj_dat.obj
 0002:00017080       ??_C@_0L@NGJKKOOJ@RSA?9SHA512?$AA@ 0007f080     libeay32:obj_dat.obj
 0002:0001708c       ??_C@_0BI@LGPCJGLE@sha384WithRSAEncryption?$AA@ 0007f08c     libeay32:obj_dat.obj
 0002:000170a4       ??_C@_0L@KKHKGNDM@RSA?9SHA384?$AA@ 0007f0a4     libeay32:obj_dat.obj
 0002:000170b0       ??_C@_0BI@OLMNBFHG@sha256WithRSAEncryption?$AA@ 0007f0b0     libeay32:obj_dat.obj
 0002:000170c8       ??_C@_0L@CICIPLII@RSA?9SHA256?$AA@ 0007f0c8     libeay32:obj_dat.obj
 0002:000170d4       ??_C@_0M@MLMKHJLC@Independent?$AA@ 0007f0d4     libeay32:obj_dat.obj
 0002:000170e0       ??_C@_0BD@JMNHHICP@id?9ppl?9independent?$AA@ 0007f0e0     libeay32:obj_dat.obj
 0002:000170f4       ??_C@_0BI@MLJLAGL@X509v3?5Name?5Constraints?$AA@ 0007f0f4     libeay32:obj_dat.obj
 0002:0001710c       ??_C@_0BA@NDBMPGLN@nameConstraints?$AA@ 0007f10c     libeay32:obj_dat.obj
 0002:0001711c       ??_C@_0M@FFLAPACB@Inherit?5all?$AA@ 0007f11c     libeay32:obj_dat.obj
 0002:00017128       ??_C@_0BC@PCEJIIF@id?9ppl?9inheritAll?$AA@ 0007f128     libeay32:obj_dat.obj
 0002:0001713c       ??_C@_0N@BEBFEGLC@Any?5language?$AA@ 0007f13c     libeay32:obj_dat.obj
 0002:0001714c       ??_C@_0BD@HNCKDFAM@id?9ppl?9anyLanguage?$AA@ 0007f14c     libeay32:obj_dat.obj
 0002:00017160       ??_C@_0BO@CCHFGBDO@Proxy?5Certificate?5Information?$AA@ 0007f160     libeay32:obj_dat.obj
 0002:00017180       ??_C@_0O@LOINHHBF@proxyCertInfo?$AA@ 0007f180     libeay32:obj_dat.obj
 0002:00017190       ??_C@_06CAAPGDCJ@id?9ppl?$AA@ 0007f190     libeay32:obj_dat.obj
 0002:00017198       ??_C@_0L@NCDHJCMF@postalCode?$AA@ 0007f198     libeay32:obj_dat.obj
 0002:000171a4       ??_C@_0O@GFJANBCD@streetAddress?$AA@ 0007f1a4     libeay32:obj_dat.obj
 0002:000171b4       ??_C@_06KFAFKEEH@street?$AA@ 0007f1b4     libeay32:obj_dat.obj
 0002:000171bc       ??_C@_0O@KGNFGAAA@des?9ede3?9cfb8?$AA@ 0007f1bc     libeay32:obj_dat.obj
 0002:000171cc       ??_C@_0O@KNJKKNCK@DES?9EDE3?9CFB8?$AA@ 0007f1cc     libeay32:obj_dat.obj
 0002:000171dc       ??_C@_0O@HHBHNLEJ@des?9ede3?9cfb1?$AA@ 0007f1dc     libeay32:obj_dat.obj
 0002:000171ec       ??_C@_0O@HMFIBGGD@DES?9EDE3?9CFB1?$AA@ 0007f1ec     libeay32:obj_dat.obj
 0002:000171fc       ??_C@_08HKNDEPIP@des?9cfb8?$AA@ 0007f1fc     libeay32:obj_dat.obj
 0002:00017208       ??_C@_08JHFHFADM@DES?9CFB8?$AA@ 0007f208     libeay32:obj_dat.obj
 0002:00017214       ??_C@_08KLBBPEMG@des?9cfb1?$AA@ 0007f214     libeay32:obj_dat.obj
 0002:00017220       ??_C@_08EGJFOLHF@DES?9CFB1?$AA@ 0007f220     libeay32:obj_dat.obj
 0002:0001722c       ??_C@_0N@GPAECIBG@aes?9256?9cfb8?$AA@ 0007f22c     libeay32:obj_dat.obj
 0002:0001723c       ??_C@_0N@BLGJPBBG@AES?9256?9CFB8?$AA@ 0007f23c     libeay32:obj_dat.obj
 0002:0001724c       ??_C@_0N@PFGJCFIP@aes?9192?9cfb8?$AA@ 0007f24c     libeay32:obj_dat.obj
 0002:0001725c       ??_C@_0N@IBAEPMIP@AES?9192?9CFB8?$AA@ 0007f25c     libeay32:obj_dat.obj
 0002:0001726c       ??_C@_0N@MHDGGJH@aes?9128?9cfb8?$AA@ 0007f26c     libeay32:obj_dat.obj
 0002:0001727c       ??_C@_0N@HIBOLPJH@AES?9128?9CFB8?$AA@ 0007f27c     libeay32:obj_dat.obj
 0002:0001728c       ??_C@_0N@LOMGJDFP@aes?9256?9cfb1?$AA@ 0007f28c     libeay32:obj_dat.obj
 0002:0001729c       ??_C@_0N@MKKLEKFP@AES?9256?9CFB1?$AA@ 0007f29c     libeay32:obj_dat.obj
 0002:000172ac       ??_C@_0N@CEKLJOMG@aes?9192?9cfb1?$AA@ 0007f2ac     libeay32:obj_dat.obj
 0002:000172bc       ??_C@_0N@FAMGEHMG@AES?9192?9CFB1?$AA@ 0007f2bc     libeay32:obj_dat.obj
 0002:000172cc       ??_C@_0N@NNLBNNNO@aes?9128?9cfb1?$AA@ 0007f2cc     libeay32:obj_dat.obj
 0002:000172dc       ??_C@_0N@KJNMAENO@AES?9128?9CFB1?$AA@ 0007f2dc     libeay32:obj_dat.obj
 0002:000172ec       ??_C@_0CD@POJHJMFG@Microsoft?5Universal?5Principal?5Na@ 0007f2ec     libeay32:obj_dat.obj
 0002:00017310       ??_C@_05LKLAGLGM@msUPN?$AA@ 0007f310     libeay32:obj_dat.obj
 0002:00017318       ??_C@_0BJ@BHLLFCI@Microsoft?5Smartcardlogin?$AA@ 0007f318     libeay32:obj_dat.obj
 0002:00017334       ??_C@_0BB@MJPMDGHF@msSmartcardLogin?$AA@ 0007f334     libeay32:obj_dat.obj
 0002:00017348       ??_C@_0BM@PGMBEIHL@International?5Organizations?$AA@ 0007f348     libeay32:obj_dat.obj
 0002:00017364       ??_C@_0BM@PBBEOBAP@international?9organizations?$AA@ 0007f364     libeay32:obj_dat.obj
 0002:00017380       ??_C@_0BA@DDCJMADA@joint?9iso?9itu?9t?$AA@ 0007f380     libeay32:obj_dat.obj
 0002:00017390       ??_C@_0BA@NPJCPIN@JOINT?9ISO?9ITU?9T?$AA@ 0007f390     libeay32:obj_dat.obj
 0002:000173a0       ??_C@_05EKLDHPCO@itu?9t?$AA@ 0007f3a0     libeay32:obj_dat.obj
 0002:000173a8       ??_C@_05LJGINOIA@ITU?9T?$AA@ 0007f3a8     libeay32:obj_dat.obj
 0002:000173b0       ??_C@_0BF@EIIDBKMM@rsaOAEPEncryptionSET?$AA@ 0007f3b0     libeay32:obj_dat.obj
 0002:000173c8       ??_C@_08PPLOLAOD@des?9cdmf?$AA@ 0007f3c8     libeay32:obj_dat.obj
 0002:000173d4       ??_C@_08IHLOILPC@DES?9CDMF?$AA@ 0007f3d4     libeay32:obj_dat.obj
 0002:000173e0       ??_C@_0BA@JHOGHBHC@set?9brand?9Novus?$AA@ 0007f3e0     libeay32:obj_dat.obj
 0002:000173f0       ??_C@_0BF@EKCBHCKG@set?9brand?9MasterCard?$AA@ 0007f3f0     libeay32:obj_dat.obj
 0002:00017408       ??_C@_0P@KADKEMKM@set?9brand?9Visa?$AA@ 0007f408     libeay32:obj_dat.obj
 0002:00017418       ??_C@_0O@ODFDKJIN@set?9brand?9JCB?$AA@ 0007f418     libeay32:obj_dat.obj
 0002:00017428       ??_C@_0BK@NGHCPIFJ@set?9brand?9AmericanExpress?$AA@ 0007f428     libeay32:obj_dat.obj
 0002:00017444       ??_C@_0BB@MJOMIBOM@set?9brand?9Diners?$AA@ 0007f444     libeay32:obj_dat.obj
 0002:00017458       ??_C@_0BD@EBDAHFCK@set?9brand?9IATA?9ATA?$AA@ 0007f458     libeay32:obj_dat.obj
 0002:0001746c       ??_C@_0BI@BMDLNIII@secure?5device?5signature?$AA@ 0007f46c     libeay32:obj_dat.obj
 0002:00017484       ??_C@_0BC@HILPEDHB@setAttr?9SecDevSig?$AA@ 0007f484     libeay32:obj_dat.obj
 0002:00017498       ??_C@_0BH@FLMFBHA@ICC?5or?5token?5signature?$AA@ 0007f498     libeay32:obj_dat.obj
 0002:000174b0       ??_C@_0BC@KFHJNGAA@setAttr?9TokICCsig?$AA@ 0007f4b0     libeay32:obj_dat.obj
 0002:000174c4       ??_C@_0BC@EEELFHMJ@cleartext?5track?52?$AA@ 0007f4c4     libeay32:obj_dat.obj
 0002:000174d8       ??_C@_0BD@GDDCOMNC@setAttr?9T2cleartxt?$AA@ 0007f4d8     libeay32:obj_dat.obj
 0002:000174ec       ??_C@_0BC@MCHFBPJF@encrypted?5track?52?$AA@ 0007f4ec     libeay32:obj_dat.obj
 0002:00017500       ??_C@_0O@GFEDKLID@setAttr?9T2Enc?$AA@ 0007f500     libeay32:obj_dat.obj
 0002:00017510       ??_C@_0BE@BANBLNDJ@generate?5cryptogram?$AA@ 0007f510     libeay32:obj_dat.obj
 0002:00017524       ??_C@_0BE@FJCINFHM@setAttr?9GenCryptgrm?$AA@ 0007f524     libeay32:obj_dat.obj
 0002:00017538       ??_C@_0BD@DMNGIJGO@setAttr?9IssCap?9Sig?$AA@ 0007f538     libeay32:obj_dat.obj
 0002:0001754c       ??_C@_0BC@FKLLNJMF@setAttr?9IssCap?9T2?$AA@ 0007f54c     libeay32:obj_dat.obj
 0002:00017560       ??_C@_0BD@CMJDLAHE@setAttr?9IssCap?9CVM?$AA@ 0007f560     libeay32:obj_dat.obj
 0002:00017574       ??_C@_0BG@ICNBHDJ@setAttr?9Token?9B0Prime?$AA@ 0007f574     libeay32:obj_dat.obj
 0002:0001758c       ??_C@_0BC@BMANBENP@setAttr?9Token?9EMV?$AA@ 0007f58c     libeay32:obj_dat.obj
 0002:000175a0       ??_C@_0O@NOCONBCM@set?9addPolicy?$AA@ 0007f5a0     libeay32:obj_dat.obj
 0002:000175b0       ??_C@_0BB@MADMNAKK@set?9rootKeyThumb?$AA@ 0007f5b0     libeay32:obj_dat.obj
 0002:000175c4       ??_C@_0BE@HBDPGKCG@issuer?5capabilities?$AA@ 0007f5c4     libeay32:obj_dat.obj
 0002:000175d8       ??_C@_0P@OGFLCCKL@setAttr?9IssCap?$AA@ 0007f5d8     libeay32:obj_dat.obj
 0002:000175e8       ??_C@_0BC@IKOKMCIL@setAttr?9TokenType?$AA@ 0007f5e8     libeay32:obj_dat.obj
 0002:000175fc       ??_C@_0BN@HEFBDPEB@payment?5gateway?5capabilities?$AA@ 0007f5fc     libeay32:obj_dat.obj
 0002:0001761c       ??_C@_0BA@FAIFDKDK@setAttr?9PGWYcap?$AA@ 0007f61c     libeay32:obj_dat.obj
 0002:0001762c       ??_C@_0N@DCNKAAPN@setAttr?9Cert?$AA@ 0007f62c     libeay32:obj_dat.obj
 0002:0001763c       ??_C@_0BL@OLCLGJDA@setCext?9IssuerCapabilities?$AA@ 0007f63c     libeay32:obj_dat.obj
 0002:00017658       ??_C@_0BC@KMFGLCBL@setCext?9TokenType?$AA@ 0007f658     libeay32:obj_dat.obj
 0002:0001766c       ??_C@_0BD@FHFLAKJD@setCext?9Track2Data?$AA@ 0007f66c     libeay32:obj_dat.obj
 0002:00017680       ??_C@_0BI@FIIEHNL@setCext?9TokenIdentifier?$AA@ 0007f680     libeay32:obj_dat.obj
 0002:00017698       ??_C@_0BJ@CNLNHONG@setCext?9PGWYcapabilities?$AA@ 0007f698     libeay32:obj_dat.obj
 0002:000176b4       ??_C@_0BB@HIAOOOIO@setCext?9setQualf?$AA@ 0007f6b4     libeay32:obj_dat.obj
 0002:000176c8       ??_C@_0P@DFHCPLJG@setCext?9setExt?$AA@ 0007f6c8     libeay32:obj_dat.obj
 0002:000176d8       ??_C@_0BC@BPADJLFJ@setCext?9tunneling?$AA@ 0007f6d8     libeay32:obj_dat.obj
 0002:000176ec       ??_C@_0BG@CMNKGOHO@setCext?9cCertRequired?$AA@ 0007f6ec     libeay32:obj_dat.obj
 0002:00017704       ??_C@_0BC@ONMLOIHK@setCext?9merchData?$AA@ 0007f704     libeay32:obj_dat.obj
 0002:00017718       ??_C@_0BB@LHGCHNFD@setCext?9certType?$AA@ 0007f718     libeay32:obj_dat.obj
 0002:0001772c       ??_C@_0BD@MELPLACB@setCext?9hashedRoot?$AA@ 0007f72c     libeay32:obj_dat.obj
 0002:00017740       ??_C@_0BA@DLJGCPKK@set?9policy?9root?$AA@ 0007f740     libeay32:obj_dat.obj
 0002:00017750       ??_C@_0BI@MFPOFNGC@additional?5verification?$AA@ 0007f750     libeay32:obj_dat.obj
 0002:00017768       ??_C@_09GMOEIEJI@setext?9cv?$AA@ 0007f768     libeay32:obj_dat.obj
 0002:00017774       ??_C@_0O@PNAFPHHK@setext?9track2?$AA@ 0007f774     libeay32:obj_dat.obj
 0002:00017784       ??_C@_0O@PNHGIFHA@setext?9pinAny?$AA@ 0007f784     libeay32:obj_dat.obj
 0002:00017794       ??_C@_0BB@IKLFBNP@setext?9pinSecure?$AA@ 0007f794     libeay32:obj_dat.obj
 0002:000177a8       ??_C@_0BI@IMGNFPLI@merchant?5initiated?5auth?$AA@ 0007f7a8     libeay32:obj_dat.obj
 0002:000177c0       ??_C@_0O@IFMPKKOL@setext?9miAuth?$AA@ 0007f7c0     libeay32:obj_dat.obj
 0002:000177d0       ??_C@_0BD@IMJHIOH@generic?5cryptogram?$AA@ 0007f7d0     libeay32:obj_dat.obj
 0002:000177e4       ??_C@_0BA@NKJJMGPC@setext?9genCrypt?$AA@ 0007f7e4     libeay32:obj_dat.obj
 0002:000177f4       ??_C@_0BJ@BPGLEKIJ@setct?9BCIDistributionTBS?$AA@ 0007f7f4     libeay32:obj_dat.obj
 0002:00017810       ??_C@_0BM@GINBKIMJ@setct?9CRLNotificationResTBS?$AA@ 0007f810     libeay32:obj_dat.obj
 0002:0001782c       ??_C@_0BJ@KMIJGANO@setct?9CRLNotificationTBS?$AA@ 0007f82c     libeay32:obj_dat.obj
 0002:00017848       ??_C@_0BB@KEDMFAIN@setct?9CertResTBE?$AA@ 0007f848     libeay32:obj_dat.obj
 0002:0001785c       ??_C@_0BC@KMAHLFJK@setct?9CertReqTBEX?$AA@ 0007f85c     libeay32:obj_dat.obj
 0002:00017870       ??_C@_0BB@NOPMADON@setct?9CertReqTBE?$AA@ 0007f870     libeay32:obj_dat.obj
 0002:00017884       ??_C@_0BE@MIADHNEP@setct?9RegFormReqTBE?$AA@ 0007f884     libeay32:obj_dat.obj
 0002:00017898       ??_C@_0BH@PFFPEIML@setct?9BatchAdminResTBE?$AA@ 0007f898     libeay32:obj_dat.obj
 0002:000178b0       ??_C@_0BH@IPJPBLKL@setct?9BatchAdminReqTBE?$AA@ 0007f8b0     libeay32:obj_dat.obj
 0002:000178c8       ??_C@_0BE@MGLMPAHD@setct?9CredRevResTBE?$AA@ 0007f8c8     libeay32:obj_dat.obj
 0002:000178dc       ??_C@_0BF@PGGAOKCB@setct?9CredRevReqTBEX?$AA@ 0007f8dc     libeay32:obj_dat.obj
 0002:000178f4       ??_C@_0BE@LMHMKDBD@setct?9CredRevReqTBE?$AA@ 0007f8f4     libeay32:obj_dat.obj
 0002:00017908       ??_C@_0BB@NFFENEIP@setct?9CredResTBE?$AA@ 0007f908     libeay32:obj_dat.obj
 0002:0001791c       ??_C@_0BC@ECHILMDC@setct?9CredReqTBEX?$AA@ 0007f91c     libeay32:obj_dat.obj
 0002:00017930       ??_C@_0BB@KPJEIHOP@setct?9CredReqTBE?$AA@ 0007f930     libeay32:obj_dat.obj
 0002:00017944       ??_C@_0BD@GIBDNMDG@setct?9CapRevResTBE?$AA@ 0007f944     libeay32:obj_dat.obj
 0002:00017958       ??_C@_0BE@PAHIPABC@setct?9CapRevReqTBEX?$AA@ 0007f958     libeay32:obj_dat.obj
 0002:0001796c       ??_C@_0BD@BCNDIPFG@setct?9CapRevReqTBE?$AA@ 0007f96c     libeay32:obj_dat.obj
 0002:00017980       ??_C@_0BA@MEFGIEBL@setct?9CapResTBE?$AA@ 0007f980     libeay32:obj_dat.obj
 0002:00017990       ??_C@_0BB@LFALOJDP@setct?9CapReqTBEX?$AA@ 0007f990     libeay32:obj_dat.obj
 0002:000179a4       ??_C@_0BA@LOJGNHHL@setct?9CapReqTBE?$AA@ 0007f9a4     libeay32:obj_dat.obj
 0002:000179b4       ??_C@_0BF@KKFFJIHO@setct?9AuthRevResTBEB?$AA@ 0007f9b4     libeay32:obj_dat.obj
 0002:000179cc       ??_C@_0BE@MHAGABNC@setct?9AuthRevResTBE?$AA@ 0007f9cc     libeay32:obj_dat.obj
 0002:000179e0       ??_C@_0BE@LNMGFCLC@setct?9AuthRevReqTBE?$AA@ 0007f9e0     libeay32:obj_dat.obj
 0002:000179f4       ??_C@_0BI@PALCIALL@setct?9AcqCardCodeMsgTBE?$AA@ 0007f9f4     libeay32:obj_dat.obj
 0002:00017a0c       ??_C@_0BD@OMCOOIME@setct?9CapTokenTBEX?$AA@ 0007fa0c     libeay32:obj_dat.obj
 0002:00017a20       ??_C@_0BC@CIKKDLAH@setct?9CapTokenTBE?$AA@ 0007fa20     libeay32:obj_dat.obj
 0002:00017a34       ??_C@_0BD@DHGMJDKO@setct?9AuthTokenTBE?$AA@ 0007fa34     libeay32:obj_dat.obj
 0002:00017a48       ??_C@_0BC@OEOIIPOH@setct?9AuthResTBEX?$AA@ 0007fa48     libeay32:obj_dat.obj
 0002:00017a5c       ??_C@_0BB@IDPADFEK@setct?9AuthResTBE?$AA@ 0007fa5c     libeay32:obj_dat.obj
 0002:00017a70       ??_C@_0BB@PJDAGGCK@setct?9AuthReqTBE?$AA@ 0007fa70     libeay32:obj_dat.obj
 0002:00017a84       ??_C@_0BE@IBOAPLDD@setct?9PIUnsignedTBE?$AA@ 0007fa84     libeay32:obj_dat.obj
 0002:00017a98       ??_C@_0BG@JDDNBPAG@setct?9PIDualSignedTBE?$AA@ 0007fa98     libeay32:obj_dat.obj
 0002:00017ab0       ??_C@_0P@DLHKHMDJ@setct?9ErrorTBS?$AA@ 0007fab0     libeay32:obj_dat.obj
 0002:00017ac0       ??_C@_0BE@OIDIJLCF@setct?9CertInqReqTBS?$AA@ 0007fac0     libeay32:obj_dat.obj
 0002:00017ad4       ??_C@_0BC@BIIFIBNO@setct?9CertResData?$AA@ 0007fad4     libeay32:obj_dat.obj
 0002:00017ae8       ??_C@_0BB@MCGELGDK@setct?9CertReqTBS?$AA@ 0007fae8     libeay32:obj_dat.obj
 0002:00017afc       ??_C@_0BC@FFENCANF@setct?9CertReqData?$AA@ 0007fafc     libeay32:obj_dat.obj
 0002:00017b10       ??_C@_0BE@KOFLJLPI@setct?9RegFormResTBS?$AA@ 0007fb10     libeay32:obj_dat.obj
 0002:00017b24       ??_C@_0BG@DIBJJIJB@setct?9MeAqCInitResTBS?$AA@ 0007fb24     libeay32:obj_dat.obj
 0002:00017b3c       ??_C@_0BG@OMHIHPPP@setct?9CardCInitResTBS?$AA@ 0007fb3c     libeay32:obj_dat.obj
 0002:00017b54       ??_C@_0BI@IHGLAGGD@setct?9BatchAdminResData?$AA@ 0007fb54     libeay32:obj_dat.obj
 0002:00017b6c       ??_C@_0BI@MKKDKHGI@setct?9BatchAdminReqData?$AA@ 0007fb6c     libeay32:obj_dat.obj
 0002:00017b84       ??_C@_0BC@CFHCKIIA@setct?9PCertResTBS?$AA@ 0007fb84     libeay32:obj_dat.obj
 0002:00017b98       ??_C@_0BD@DDNGMNFC@setct?9PCertReqData?$AA@ 0007fb98     libeay32:obj_dat.obj
 0002:00017bac       ??_C@_0BF@ECOCNOGF@setct?9CredRevResData?$AA@ 0007fbac     libeay32:obj_dat.obj
 0002:00017bc4       ??_C@_0BF@OOMLDFOD@setct?9CredRevReqTBSX?$AA@ 0007fbc4     libeay32:obj_dat.obj
 0002:00017bdc       ??_C@_0BE@KAOEBGME@setct?9CredRevReqTBS?$AA@ 0007fbdc     libeay32:obj_dat.obj
 0002:00017bf0       ??_C@_0BC@PGPKIIHG@setct?9CredResData?$AA@ 0007fbf0     libeay32:obj_dat.obj
 0002:00017c04       ??_C@_0BC@FKNDGDPA@setct?9CredReqTBSX?$AA@ 0007fc04     libeay32:obj_dat.obj
 0002:00017c18       ??_C@_0BB@LDAMDCDI@setct?9CredReqTBS?$AA@ 0007fc18     libeay32:obj_dat.obj
 0002:00017c2c       ??_C@_0BE@EEPKMEFG@setct?9CapRevResData?$AA@ 0007fc2c     libeay32:obj_dat.obj
 0002:00017c40       ??_C@_0BE@OINDCPNA@setct?9CapRevReqTBSX?$AA@ 0007fc40     libeay32:obj_dat.obj
 0002:00017c54       ??_C@_0BD@OELDKIB@setct?9CapRevReqTBS?$AA@ 0007fc54     libeay32:obj_dat.obj
 0002:00017c68       ??_C@_0BB@BIJNNHL@setct?9CapResData?$AA@ 0007fc68     libeay32:obj_dat.obj
 0002:00017c7c       ??_C@_0BB@KNKADGPN@setct?9CapReqTBSX?$AA@ 0007fc7c     libeay32:obj_dat.obj
 0002:00017c90       ??_C@_0BA@KCAOGCKM@setct?9CapReqTBS?$AA@ 0007fc90     libeay32:obj_dat.obj
 0002:00017ca0       ??_C@_0BE@NLJOLEAF@setct?9AuthRevResTBS?$AA@ 0007fca0     libeay32:obj_dat.obj
 0002:00017cb4       ??_C@_0BF@ODDCPHOK@setct?9AuthRevResData?$AA@ 0007fcb4     libeay32:obj_dat.obj
 0002:00017ccc       ??_C@_0BE@KBFOOHGF@setct?9AuthRevReqTBS?$AA@ 0007fccc     libeay32:obj_dat.obj
 0002:00017ce0       ??_C@_0BF@LAOAGKEH@setct?9AcqCardCodeMsg?$AA@ 0007fce0     libeay32:obj_dat.obj
 0002:00017cf8       ??_C@_0BC@DEDCIONA@setct?9CapTokenTBS?$AA@ 0007fcf8     libeay32:obj_dat.obj
 0002:00017d0c       ??_C@_0BD@BFGEHNIL@setct?9CapTokenData?$AA@ 0007fd0c     libeay32:obj_dat.obj
 0002:00017d20       ??_C@_0BD@CLPECGHJ@setct?9AuthTokenTBS?$AA@ 0007fd20     libeay32:obj_dat.obj
 0002:00017d34       ??_C@_0BC@PMEDFACF@setct?9AuthResTBSX?$AA@ 0007fd34     libeay32:obj_dat.obj
 0002:00017d48       ??_C@_0BB@JPGIIAJN@setct?9AuthResTBS?$AA@ 0007fd48     libeay32:obj_dat.obj
 0002:00017d5c       ??_C@_0BB@OFKINDPN@setct?9AuthReqTBS?$AA@ 0007fd5c     libeay32:obj_dat.obj
 0002:00017d70       ??_C@_0P@NGDEPBBH@setct?9PResData?$AA@ 0007fd70     libeay32:obj_dat.obj
 0002:00017d80       ??_C@_0N@GIGHFPBJ@setct?9PI?9TBS?$AA@ 0007fd80     libeay32:obj_dat.obj
 0002:00017d90       ??_C@_0BD@GIEGHJGD@setct?9PInitResData?$AA@ 0007fd90     libeay32:obj_dat.obj
 0002:00017da4       ??_C@_0BC@DDFFKACM@setct?9CapTokenSeq?$AA@ 0007fda4     libeay32:obj_dat.obj
 0002:00017db8       ??_C@_0BI@CNLKCNFM@setct?9AuthRevResBaggage?$AA@ 0007fdb8     libeay32:obj_dat.obj
 0002:00017dd0       ??_C@_0BI@DEMAFNK@setct?9AuthRevReqBaggage?$AA@ 0007fdd0     libeay32:obj_dat.obj
 0002:00017de8       ??_C@_0BF@EFHLGKOJ@setct?9AuthResBaggage?$AA@ 0007fde8     libeay32:obj_dat.obj
 0002:00017e00       ??_C@_0P@LPBKKIBL@setct?9HODInput?$AA@ 0007fe00     libeay32:obj_dat.obj
 0002:00017e10       ??_C@_0BF@BDFGFMFJ@setct?9PIDataUnsigned?$AA@ 0007fe10     libeay32:obj_dat.obj
 0002:00017e28       ??_C@_0N@PGCGIPOF@setct?9PIData?$AA@ 0007fe28     libeay32:obj_dat.obj
 0002:00017e38       ??_C@_08MNJJNIEC@setct?9PI?$AA@ 0007fe38     libeay32:obj_dat.obj
 0002:00017e44       ??_C@_0N@GHLAGDMC@setct?9OIData?$AA@ 0007fe44     libeay32:obj_dat.obj
 0002:00017e54       ??_C@_0O@PFJCCKAL@setct?9PANOnly?$AA@ 0007fe54     libeay32:obj_dat.obj
 0002:00017e64       ??_C@_0P@LAMDLEMO@setct?9PANToken?$AA@ 0007fe64     libeay32:obj_dat.obj
 0002:00017e74       ??_C@_0O@EKAPGBNN@setct?9PANData?$AA@ 0007fe74     libeay32:obj_dat.obj
 0002:00017e84       ??_C@_09JHODGPNO@set?9brand?$AA@ 0007fe84     libeay32:obj_dat.obj
 0002:00017e90       ??_C@_0BH@PDPIEGPA@certificate?5extensions?$AA@ 0007fe90     libeay32:obj_dat.obj
 0002:00017ea8       ??_C@_0M@KEIBDDC@set?9certExt?$AA@ 0007fea8     libeay32:obj_dat.obj
 0002:00017eb4       ??_C@_0L@LAAAKICM@set?9policy?$AA@ 0007feb4     libeay32:obj_dat.obj
 0002:00017ec0       ??_C@_08OFDIOKIA@set?9attr?$AA@ 0007fec0     libeay32:obj_dat.obj
 0002:00017ecc       ??_C@_0BD@LEIDLLNO@message?5extensions?$AA@ 0007fecc     libeay32:obj_dat.obj
 0002:00017ee0       ??_C@_0L@PKPEIEIJ@set?9msgExt?$AA@ 0007fee0     libeay32:obj_dat.obj
 0002:00017eec       ??_C@_0O@HJGLMADJ@content?5types?$AA@ 0007feec     libeay32:obj_dat.obj
 0002:00017efc       ??_C@_09EJPBIJJA@set?9ctype?$AA@ 0007fefc     libeay32:obj_dat.obj
 0002:00017f08       ??_C@_0BP@KEIHJPNF@Secure?5Electronic?5Transactions?$AA@ 0007ff08     libeay32:obj_dat.obj
 0002:00017f28       ??_C@_06KKEMDFAF@id?9set?$AA@ 0007ff28     libeay32:obj_dat.obj
 0002:00017f30       ??_C@_09NNMENHIH@pseudonym?$AA@ 0007ff30     libeay32:obj_dat.obj
 0002:00017f3c       ??_C@_0BE@DAEHFOO@generationQualifier?$AA@ 0007ff3c     libeay32:obj_dat.obj
 0002:00017f50       ??_C@_0BJ@KCNAIDP@id?9hex?9multipart?9message?$AA@ 0007ff50     libeay32:obj_dat.obj
 0002:00017f6c       ??_C@_0BH@ILCJEHBB@id?9hex?9partial?9message?$AA@ 0007ff6c     libeay32:obj_dat.obj
 0002:00017f84       ??_C@_0BA@MOFCNIEE@mime?9mhs?9bodies?$AA@ 0007ff84     libeay32:obj_dat.obj
 0002:00017f94       ??_C@_0BC@NIFMCBEJ@mime?9mhs?9headings?$AA@ 0007ff94     libeay32:obj_dat.obj
 0002:00017fa8       ??_C@_08DNBACEKK@MIME?5MHS?$AA@ 0007ffa8     libeay32:obj_dat.obj
 0002:00017fb4       ??_C@_08HLONPBDI@mime?9mhs?$AA@ 0007ffb4     libeay32:obj_dat.obj
 0002:00017fc0       ??_C@_0BF@EFCCADKK@x500UniqueIdentifier?$AA@ 0007ffc0     libeay32:obj_dat.obj
 0002:00017fd8       ??_C@_0BC@KCCHJGGO@documentPublisher?$AA@ 0007ffd8     libeay32:obj_dat.obj
 0002:00017fec       ??_C@_05KNIAAKIP@audio?$AA@ 0007ffec     libeay32:obj_dat.obj
 0002:00017ff4       ??_C@_0M@KIABODOB@dITRedirect?$AA@ 0007fff4     libeay32:obj_dat.obj
 0002:00018000       ??_C@_0BC@CBOFINFC@personalSignature?$AA@ 00080000     libeay32:obj_dat.obj
 0002:00018014       ??_C@_0BG@FLFPEGPE@subtreeMaximumQuality?$AA@ 00080014     libeay32:obj_dat.obj
 0002:0001802c       ??_C@_0BG@HMOECBMF@subtreeMinimumQuality?$AA@ 0008002c     libeay32:obj_dat.obj
 0002:00018044       ??_C@_0BD@EHDOPADK@singleLevelQuality?$AA@ 00080044     libeay32:obj_dat.obj
 0002:00018058       ??_C@_0L@LMCCHBHL@dSAQuality?$AA@ 00080058     libeay32:obj_dat.obj
 0002:00018064       ??_C@_0N@POAALOHC@buildingName?$AA@ 00080064     libeay32:obj_dat.obj
 0002:00018074       ??_C@_0BF@OFOHKDCI@mailPreferenceOption?$AA@ 00080074     libeay32:obj_dat.obj
 0002:0001808c       ??_C@_0N@DGNBNBGJ@janetMailbox?$AA@ 0008008c     libeay32:obj_dat.obj
 0002:0001809c       ??_C@_0BF@IANLBJMF@organizationalStatus?$AA@ 0008009c     libeay32:obj_dat.obj
 0002:000180b4       ??_C@_0BE@MGDAFGCM@friendlyCountryName?$AA@ 000800b4     libeay32:obj_dat.obj
 0002:000180c8       ??_C@_0BF@JICDDEFM@pagerTelephoneNumber?$AA@ 000800c8     libeay32:obj_dat.obj
 0002:000180e0       ??_C@_0BG@DCPABLLG@mobileTelephoneNumber?$AA@ 000800e0     libeay32:obj_dat.obj
 0002:000180f8       ??_C@_0O@CCHLDBGG@personalTitle?$AA@ 000800f8     libeay32:obj_dat.obj
 0002:00018108       ??_C@_0BC@NPJKACJF@homePostalAddress?$AA@ 00080108     libeay32:obj_dat.obj
 0002:0001811c       ??_C@_0P@OJOOFNGB@associatedName?$AA@ 0008011c     libeay32:obj_dat.obj
 0002:0001812c       ??_C@_0BB@MEFMIBKO@associatedDomain?$AA@ 0008012c     libeay32:obj_dat.obj
 0002:00018140       ??_C@_0M@GHEAGPOE@cNAMERecord?$AA@ 00080140     libeay32:obj_dat.obj
 0002:0001814c       ??_C@_09OCFHDJJF@sOARecord?$AA@ 0008014c     libeay32:obj_dat.obj
 0002:00018158       ??_C@_08FBLONLGA@nSRecord?$AA@ 00080158     libeay32:obj_dat.obj
 0002:00018164       ??_C@_08DFFJPLPD@mXRecord?$AA@ 00080164     libeay32:obj_dat.obj
 0002:00018170       ??_C@_0BF@MIIMJDJB@pilotAttributeType27?$AA@ 00080170     libeay32:obj_dat.obj
 0002:00018188       ??_C@_07IBNMBOJB@aRecord?$AA@ 00080188     libeay32:obj_dat.obj
 0002:00018190       ??_C@_0P@ECLEJAJJ@lastModifiedBy?$AA@ 00080190     libeay32:obj_dat.obj
 0002:000181a0       ??_C@_0BB@LHLABCIP@lastModifiedTime?$AA@ 000801a0     libeay32:obj_dat.obj
 0002:000181b4       ??_C@_0N@CEOKELFP@otherMailbox?$AA@ 000801b4     libeay32:obj_dat.obj
 0002:000181c4       ??_C@_09EMBFDNKC@secretary?$AA@ 000801c4     libeay32:obj_dat.obj
 0002:000181d0       ??_C@_0BE@CPLAKLNE@homeTelephoneNumber?$AA@ 000801d0     libeay32:obj_dat.obj
 0002:000181e4       ??_C@_0BB@COFKDFJ@documentLocation?$AA@ 000801e4     libeay32:obj_dat.obj
 0002:000181f8       ??_C@_0P@DABDJKFB@documentAuthor?$AA@ 000801f8     libeay32:obj_dat.obj
 0002:00018208       ??_C@_0BA@GHOLKFM@documentVersion?$AA@ 00080208     libeay32:obj_dat.obj
 0002:00018218       ??_C@_0O@BDIDABAC@documentTitle?$AA@ 00080218     libeay32:obj_dat.obj
 0002:00018228       ??_C@_0BD@MEPJGCEO@documentIdentifier?$AA@ 00080228     libeay32:obj_dat.obj
 0002:0001823c       ??_C@_07JPLKDPHP@manager?$AA@ 0008023c     libeay32:obj_dat.obj
 0002:00018244       ??_C@_04OODOLJMA@host?$AA@ 00080244     libeay32:obj_dat.obj
 0002:0001824c       ??_C@_09CCPGMHEM@userClass?$AA@ 0008024c     libeay32:obj_dat.obj
 0002:00018258       ??_C@_05DOIFDPKA@photo?$AA@ 00080258     libeay32:obj_dat.obj
 0002:00018260       ??_C@_0L@DGKNANFO@roomNumber?$AA@ 00080260     libeay32:obj_dat.obj
 0002:0001826c       ??_C@_0P@PAMFCEKP@favouriteDrink?$AA@ 0008026c     libeay32:obj_dat.obj
 0002:0001827c       ??_C@_04NIDJFNBE@info?$AA@ 0008027c     libeay32:obj_dat.obj
 0002:00018284       ??_C@_0O@PDNFEOHL@rfc822Mailbox?$AA@ 00080284     libeay32:obj_dat.obj
 0002:00018294       ??_C@_04FFKLPPHM@mail?$AA@ 00080294     libeay32:obj_dat.obj
 0002:0001829c       ??_C@_0BF@HDIIKJDI@textEncodedORAddress?$AA@ 0008029c     libeay32:obj_dat.obj
 0002:000182b4       ??_C@_06LPELCIKE@userId?$AA@ 000802b4     libeay32:obj_dat.obj
 0002:000182bc       ??_C@_03MJDGODDN@UID?$AA@  000802bc     libeay32:obj_dat.obj
 0002:000182c0       ??_C@_0BE@DDFOMMI@qualityLabelledData?$AA@ 000802c0     libeay32:obj_dat.obj
 0002:000182d4       ??_C@_08MPJGPMC@pilotDSA?$AA@ 000802d4     libeay32:obj_dat.obj
 0002:000182e0       ??_C@_0BC@PLDKCMI@pilotOrganization?$AA@ 000802e0     libeay32:obj_dat.obj
 0002:000182f4       ??_C@_0BF@CONLNHDI@simpleSecurityObject?$AA@ 000802f4     libeay32:obj_dat.obj
 0002:0001830c       ??_C@_0BA@LKHIAMBK@friendlyCountry?$AA@ 0008030c     libeay32:obj_dat.obj
 0002:0001831c       ??_C@_0BE@OPAPHNCO@domainRelatedObject?$AA@ 0008031c     libeay32:obj_dat.obj
 0002:00018330       ??_C@_09BOCGGGMK@dNSDomain?$AA@ 00080330     libeay32:obj_dat.obj
 0002:0001833c       ??_C@_0BA@KIAIOBLD@rFC822localPart?$AA@ 0008033c     libeay32:obj_dat.obj
 0002:0001834c       ??_C@_0P@OAPEDDHP@documentSeries?$AA@ 0008034c     libeay32:obj_dat.obj
 0002:0001835c       ??_C@_04EKFCMFOP@room?$AA@ 0008035c     libeay32:obj_dat.obj
 0002:00018364       ??_C@_08JEEDKNPB@document?$AA@ 00080364     libeay32:obj_dat.obj
 0002:00018370       ??_C@_07PMDLEBNF@account?$AA@ 00080370     libeay32:obj_dat.obj
 0002:00018378       ??_C@_0M@NCGDCEIP@pilotPerson?$AA@ 00080378     libeay32:obj_dat.obj
 0002:00018384       ??_C@_0M@MCCFCPKP@pilotObject?$AA@ 00080384     libeay32:obj_dat.obj
 0002:00018390       ??_C@_0BK@LELMGJGD@caseIgnoreIA5StringSyntax?$AA@ 00080390     libeay32:obj_dat.obj
 0002:000183ac       ??_C@_0BA@KPIIGILK@iA5StringSyntax?$AA@ 000803ac     libeay32:obj_dat.obj
 0002:000183bc       ??_C@_0M@DLMEDAFC@pilotGroups?$AA@ 000803bc     libeay32:obj_dat.obj
 0002:000183c8       ??_C@_0BB@MJFNAIDM@pilotObjectClass?$AA@ 000803c8     libeay32:obj_dat.obj
 0002:000183dc       ??_C@_0BF@CDEFHHCF@pilotAttributeSyntax?$AA@ 000803dc     libeay32:obj_dat.obj
 0002:000183f4       ??_C@_0BD@NEGIHOAI@pilotAttributeType?$AA@ 000803f4     libeay32:obj_dat.obj
 0002:00018408       ??_C@_05KIBFDOPF@pilot?$AA@ 00080408     libeay32:obj_dat.obj
 0002:00018410       ??_C@_03BIDCBJP@ucl?$AA@   00080410     libeay32:obj_dat.obj
 0002:00018414       ??_C@_03OHCBHMED@pss?$AA@  00080414     libeay32:obj_dat.obj
 0002:00018418       ??_C@_04PJOLNDGD@data?$AA@ 00080418     libeay32:obj_dat.obj
 0002:00018420       ??_C@_0BI@EEABHGCD@Hold?5Instruction?5Reject?$AA@ 00080420     libeay32:obj_dat.obj
 0002:00018438       ??_C@_0BG@BDAACIJE@holdInstructionReject?$AA@ 00080438     libeay32:obj_dat.obj
 0002:00018450       ??_C@_0BN@IJKNPIFC@Hold?5Instruction?5Call?5Issuer?$AA@ 00080450     libeay32:obj_dat.obj
 0002:00018470       ??_C@_0BK@ENEKHHMB@holdInstructionCallIssuer?$AA@ 00080470     libeay32:obj_dat.obj
 0002:0001848c       ??_C@_0BG@ECBIHNGK@Hold?5Instruction?5None?$AA@ 0008048c     libeay32:obj_dat.obj
 0002:000184a4       ??_C@_0BE@KPEIPHPJ@holdInstructionNone?$AA@ 000804a4     libeay32:obj_dat.obj
 0002:000184b8       ??_C@_0BG@LHBPDMAN@Hold?5Instruction?5Code?$AA@ 000804b8     libeay32:obj_dat.obj
 0002:000184d0       ??_C@_0BE@FKEPLGJO@holdInstructionCode?$AA@ 000804d0     libeay32:obj_dat.obj
 0002:000184e4       ??_C@_0M@JMFNEPEI@aes?9256?9cfb?$AA@ 000804e4     libeay32:obj_dat.obj
 0002:000184f0       ??_C@_0M@EAFGNFML@AES?9256?9CFB?$AA@ 000804f0     libeay32:obj_dat.obj
 0002:000184fc       ??_C@_0M@NGILPAPA@aes?9256?9ofb?$AA@ 000804fc     libeay32:obj_dat.obj
 0002:00018508       ??_C@_0M@KIAGKHD@AES?9256?9OFB?$AA@ 00080508     libeay32:obj_dat.obj
 0002:00018514       ??_C@_0M@ICEPNGNF@aes?9256?9cbc?$AA@ 00080514     libeay32:obj_dat.obj
 0002:00018520       ??_C@_0M@FOEEEMFG@AES?9256?9CBC?$AA@ 00080520     libeay32:obj_dat.obj
 0002:0001852c       ??_C@_0M@LPPNNCHP@aes?9256?9ecb?$AA@ 0008052c     libeay32:obj_dat.obj
 0002:00018538       ??_C@_0M@GDPGEIPM@AES?9256?9ECB?$AA@ 00080538     libeay32:obj_dat.obj
 0002:00018544       ??_C@_0M@EOODGAMJ@aes?9192?9cfb?$AA@ 00080544     libeay32:obj_dat.obj
 0002:00018550       ??_C@_0M@JCOIPKEK@AES?9192?9CFB?$AA@ 00080550     libeay32:obj_dat.obj
 0002:0001855c       ??_C@_0M@EDFNPHB@aes?9192?9ofb?$AA@ 0008055c     libeay32:obj_dat.obj
 0002:00018568       ??_C@_0M@NIDOEFPC@AES?9192?9OFB?$AA@ 00080568     libeay32:obj_dat.obj
 0002:00018574       ??_C@_0M@FAPBPJFE@aes?9192?9cbc?$AA@ 00080574     libeay32:obj_dat.obj
 0002:00018580       ??_C@_0M@IMPKGDNH@AES?9192?9CBC?$AA@ 00080580     libeay32:obj_dat.obj
 0002:0001858c       ??_C@_0M@GNEDPNPO@aes?9192?9ecb?$AA@ 0008058c     libeay32:obj_dat.obj
 0002:00018598       ??_C@_0M@LBEIGHHN@AES?9192?9ECB?$AA@ 00080598     libeay32:obj_dat.obj
 0002:000185a4       ??_C@_0M@ONHPBHFF@aes?9128?9cfb?$AA@ 000805a4     libeay32:obj_dat.obj
 0002:000185b0       ??_C@_0M@DBHEINNG@AES?9128?9CFB?$AA@ 000805b0     libeay32:obj_dat.obj
 0002:000185bc       ??_C@_0M@KHKJKION@aes?9128?9ofb?$AA@ 000805bc     libeay32:obj_dat.obj
 0002:000185c8       ??_C@_0M@HLKCDCGO@AES?9128?9OFB?$AA@ 000805c8     libeay32:obj_dat.obj
 0002:000185d4       ??_C@_0M@PDGNIOMI@aes?9128?9cbc?$AA@ 000805d4     libeay32:obj_dat.obj
 0002:000185e0       ??_C@_0M@CPGGBEEL@AES?9128?9CBC?$AA@ 000805e0     libeay32:obj_dat.obj
 0002:000185ec       ??_C@_0M@MONPIKGC@aes?9128?9ecb?$AA@ 000805ec     libeay32:obj_dat.obj
 0002:000185f8       ??_C@_0M@BCNEBAOB@AES?9128?9ECB?$AA@ 000805f8     libeay32:obj_dat.obj
 0002:00018604       ??_C@_0BD@HDEEGCLB@Microsoft?5CSP?5Name?$AA@ 00080604     libeay32:obj_dat.obj
 0002:00018618       ??_C@_07BPKAKPJK@CSPName?$AA@ 00080618     libeay32:obj_dat.obj
 0002:00018620       ??_C@_0BA@DGJNDOPM@ecdsa?9with?9SHA1?$AA@ 00080620     libeay32:obj_dat.obj
 0002:00018630       ??_C@_0L@JJFEINOP@prime256v1?$AA@ 00080630     libeay32:obj_dat.obj
 0002:0001863c       ??_C@_0L@HMEBAKJL@prime239v3?$AA@ 0008063c     libeay32:obj_dat.obj
 0002:00018648       ??_C@_0L@GFFKDLNK@prime239v2?$AA@ 00080648     libeay32:obj_dat.obj
 0002:00018654       ??_C@_0L@EOHHGIBJ@prime239v1?$AA@ 00080654     libeay32:obj_dat.obj
 0002:00018660       ??_C@_0L@GHGEOHJF@prime192v3?$AA@ 00080660     libeay32:obj_dat.obj
 0002:0001866c       ??_C@_0L@HOHPNGNE@prime192v2?$AA@ 0008066c     libeay32:obj_dat.obj
 0002:00018678       ??_C@_0L@FFFCIFBH@prime192v1?$AA@ 00080678     libeay32:obj_dat.obj
 0002:00018684       ??_C@_0P@NEOBKIMO@id?9ecPublicKey?$AA@ 00080684     libeay32:obj_dat.obj
 0002:00018694       ??_C@_0BJ@HECCMKCN@characteristic?9two?9field?$AA@ 00080694     libeay32:obj_dat.obj
 0002:000186b0       ??_C@_0M@LGLKIODB@prime?9field?$AA@ 000806b0     libeay32:obj_dat.obj
 0002:000186bc       ??_C@_0L@HAOKGHPF@ANSI?5X9?462?$AA@ 000806bc     libeay32:obj_dat.obj
 0002:000186c8       ??_C@_0L@LBMOMFCJ@ansi?9X9?962?$AA@ 000806c8     libeay32:obj_dat.obj
 0002:000186d4       ??_C@_0BP@DEKFNCEH@X509v3?5No?5Revocation?5Available?$AA@ 000806d4     libeay32:obj_dat.obj
 0002:000186f4       ??_C@_0L@ECGDAGCK@noRevAvail?$AA@ 000806f4     libeay32:obj_dat.obj
 0002:00018700       ??_C@_0BE@IECCFFCH@X509v3?5AC?5Targeting?$AA@ 00080700     libeay32:obj_dat.obj
 0002:00018714       ??_C@_0BC@JINDJNPM@targetInformation?$AA@ 00080714     libeay32:obj_dat.obj
 0002:00018728       ??_C@_0BK@DNMBLGM@X509v3?5Policy?5Constraints?$AA@ 00080728     libeay32:obj_dat.obj
 0002:00018744       ??_C@_0BC@IJLMCBHD@policyConstraints?$AA@ 00080744     libeay32:obj_dat.obj
 0002:00018758       ??_C@_04IAMNPBLO@role?$AA@ 00080758     libeay32:obj_dat.obj
 0002:00018760       ??_C@_0BA@PEFFHNFH@id?9aca?9encAttrs?$AA@ 00080760     libeay32:obj_dat.obj
 0002:00018770       ??_C@_0BL@OMFIOBLF@Subject?5Information?5Access?$AA@ 00080770     libeay32:obj_dat.obj
 0002:0001878c       ??_C@_0BC@IEIBIKBA@subjectInfoAccess?$AA@ 0008078c     libeay32:obj_dat.obj
 0002:000187a0       ??_C@_0M@BKAIKGEL@ac?9proxying?$AA@ 000807a0     libeay32:obj_dat.obj
 0002:000187ac       ??_C@_0BF@JDOFKNPK@md4WithRSAEncryption?$AA@ 000807ac     libeay32:obj_dat.obj
 0002:000187c4       ??_C@_07MHHBEDHA@RSA?9MD4?$AA@ 000807c4     libeay32:obj_dat.obj
 0002:000187cc       ??_C@_09ECGCCLFI@clearance?$AA@ 000807cc     libeay32:obj_dat.obj
 0002:000187d8       ??_C@_0BJ@MAOJIBHF@Selected?5Attribute?5Types?$AA@ 000807d8     libeay32:obj_dat.obj
 0002:000187f4       ??_C@_0BJ@BDDNHDDA@selected?9attribute?9types?$AA@ 000807f4     libeay32:obj_dat.obj
 0002:00018810       ??_C@_04HIBGFPH@NULL?$AA@  00080810     libeay32:obj_dat.obj
 0002:00018818       ??_C@_06HFDFFJHI@Domain?$AA@ 00080818     libeay32:obj_dat.obj
 0002:00018820       ??_C@_06LKIIGAOE@domain?$AA@ 00080820     libeay32:obj_dat.obj
 0002:00018828       ??_C@_0BA@DMAKFKAH@domainComponent?$AA@ 00080828     libeay32:obj_dat.obj
 0002:00018838       ??_C@_02KMHJBPDH@DC?$AA@   00080838     libeay32:obj_dat.obj
 0002:0001883c       ??_C@_08GPNKJGDG@dcObject?$AA@ 0008083c     libeay32:obj_dat.obj
 0002:00018848       ??_C@_08KAGHKPKK@dcobject?$AA@ 00080848     libeay32:obj_dat.obj
 0002:00018854       ??_C@_0M@CEEPHGPL@Enterprises?$AA@ 00080854     libeay32:obj_dat.obj
 0002:00018860       ??_C@_0M@DMHOKNAD@enterprises?$AA@ 00080860     libeay32:obj_dat.obj
 0002:0001886c       ??_C@_04JEGKNAHI@Mail?$AA@ 0008086c     libeay32:obj_dat.obj
 0002:00018874       ??_C@_06JDJOGLHO@SNMPv2?$AA@ 00080874     libeay32:obj_dat.obj
 0002:0001887c       ??_C@_06DKHMNHOO@snmpv2?$AA@ 0008087c     libeay32:obj_dat.obj
 0002:00018884       ??_C@_08EDKKPLCC@Security?$AA@ 00080884     libeay32:obj_dat.obj
 0002:00018890       ??_C@_08MBFLHJIB@security?$AA@ 00080890     libeay32:obj_dat.obj
 0002:0001889c       ??_C@_07CFINJGKH@Private?$AA@ 0008089c     libeay32:obj_dat.obj
 0002:000188a4       ??_C@_07NMPLPEPB@private?$AA@ 000808a4     libeay32:obj_dat.obj
 0002:000188ac       ??_C@_0N@FKCIGJFM@Experimental?$AA@ 000808ac     libeay32:obj_dat.obj
 0002:000188bc       ??_C@_0N@OJFGCCKJ@experimental?$AA@ 000808bc     libeay32:obj_dat.obj
 0002:000188cc       ??_C@_0L@ENAJINDB@Management?$AA@ 000808cc     libeay32:obj_dat.obj
 0002:000188d8       ??_C@_04PFNCJACF@mgmt?$AA@ 000808d8     libeay32:obj_dat.obj
 0002:000188e0       ??_C@_09EOAFACM@Directory?$AA@ 000808e0     libeay32:obj_dat.obj
 0002:000188ec       ??_C@_09ELLNFDPM@directory?$AA@ 000808ec     libeay32:obj_dat.obj
 0002:000188f8       ??_C@_04BAMKDBHE@iana?$AA@ 000808f8     libeay32:obj_dat.obj
 0002:00018900       ??_C@_04NMPANDAM@IANA?$AA@ 00080900     libeay32:obj_dat.obj
 0002:00018908       ??_C@_03CIOFGCAJ@dod?$AA@  00080908     libeay32:obj_dat.obj
 0002:0001890c       ??_C@_03CFBOKPHF@DOD?$AA@  0008090c     libeay32:obj_dat.obj
 0002:00018910       ??_C@_03MADHIGOI@org?$AA@  00080910     libeay32:obj_dat.obj
 0002:00018914       ??_C@_03MNMMELJE@ORG?$AA@  00080914     libeay32:obj_dat.obj
 0002:00018918       ??_C@_0CA@FIOIBJEO@directory?5services?5?9?5algorithms?$AA@ 00080918     libeay32:obj_dat.obj
 0002:00018938       ??_C@_0P@NMIAKCBG@X500algorithms?$AA@ 00080938     libeay32:obj_dat.obj
 0002:00018948       ??_C@_0N@JHANBHGC@rsaSignature?$AA@ 00080948     libeay32:obj_dat.obj
 0002:00018958       ??_C@_09JPNFBOJG@algorithm?$AA@ 00080958     libeay32:obj_dat.obj
 0002:00018964       ??_C@_0L@INBPOG@Trust?5Root?$AA@ 00080964     libeay32:obj_dat.obj
 0002:00018970       ??_C@_09LNEPAILM@trustRoot?$AA@ 00080970     libeay32:obj_dat.obj
 0002:0001897c       ??_C@_04LNEJFJGI@path?$AA@ 0008097c     libeay32:obj_dat.obj
 0002:00018984       ??_C@_05HDPIMK@valid?$AA@  00080984     libeay32:obj_dat.obj
 0002:0001898c       ??_C@_0BF@MPEDLKDP@Extended?5OCSP?5Status?$AA@ 0008098c     libeay32:obj_dat.obj
 0002:000189a4       ??_C@_0P@EGENIBNC@extendedStatus?$AA@ 000809a4     libeay32:obj_dat.obj
 0002:000189b4       ??_C@_0BF@CEIKAD@OCSP?5Service?5Locator?$AA@ 000809b4     libeay32:obj_dat.obj
 0002:000189cc       ??_C@_0P@LCDAPLHC@serviceLocator?$AA@ 000809cc     libeay32:obj_dat.obj
 0002:000189dc       ??_C@_0BE@JAFPABJB@OCSP?5Archive?5Cutoff?$AA@ 000809dc     libeay32:obj_dat.obj
 0002:000189f0       ??_C@_0O@FIEDPKGI@archiveCutoff?$AA@ 000809f0     libeay32:obj_dat.obj
 0002:00018a00       ??_C@_0O@HFOALJCG@OCSP?5No?5Check?$AA@ 00080a00     libeay32:obj_dat.obj
 0002:00018a10       ??_C@_07MCKMCKHJ@noCheck?$AA@ 00080a10     libeay32:obj_dat.obj
 0002:00018a18       ??_C@_0BK@JKKLNLEI@Acceptable?5OCSP?5Responses?$AA@ 00080a18     libeay32:obj_dat.obj
 0002:00018a34       ??_C@_0BE@FBPDIHIK@acceptableResponses?$AA@ 00080a34     libeay32:obj_dat.obj
 0002:00018a48       ??_C@_0M@LCLKJALE@OCSP?5CRL?5ID?$AA@ 00080a48     libeay32:obj_dat.obj
 0002:00018a54       ??_C@_05NOENOBME@CrlID?$AA@ 00080a54     libeay32:obj_dat.obj
 0002:00018a5c       ??_C@_0L@NCNDEJFL@OCSP?5Nonce?$AA@ 00080a5c     libeay32:obj_dat.obj
 0002:00018a68       ??_C@_05OJOPLPHH@Nonce?$AA@ 00080a68     libeay32:obj_dat.obj
 0002:00018a70       ??_C@_0BE@ONEEPEOL@Basic?5OCSP?5Response?$AA@ 00080a70     libeay32:obj_dat.obj
 0002:00018a84       ??_C@_0BC@KFAFMFFF@basicOCSPResponse?$AA@ 00080a84     libeay32:obj_dat.obj
 0002:00018a98       ??_C@_07JCKMJMPC@ad?5dvcs?$AA@ 00080a98     libeay32:obj_dat.obj
 0002:00018aa0       ??_C@_07JCCJJKFE@AD_DVCS?$AA@ 00080aa0     libeay32:obj_dat.obj
 0002:00018aa8       ??_C@_0BB@NMPPBOGK@AD?5Time?5Stamping?$AA@ 00080aa8     libeay32:obj_dat.obj
 0002:00018abc       ??_C@_0BA@PBBONLHE@ad_timestamping?$AA@ 00080abc     libeay32:obj_dat.obj
 0002:00018acc       ??_C@_0BD@DDALHPCH@id?9cct?9PKIResponse?$AA@ 00080acc     libeay32:obj_dat.obj
 0002:00018ae0       ??_C@_0P@FNCPPGJO@id?9cct?9PKIData?$AA@ 00080ae0     libeay32:obj_dat.obj
 0002:00018af0       ??_C@_0L@CDHPLMPE@id?9cct?9crs?$AA@ 00080af0     libeay32:obj_dat.obj
 0002:00018afc       ??_C@_0BH@DJONLBHI@id?9qcs?9pkixQCSyntax?9v1?$AA@ 00080afc     libeay32:obj_dat.obj
 0002:00018b14       ??_C@_0M@FBOAJIIJ@id?9aca?9role?$AA@ 00080b14     libeay32:obj_dat.obj
 0002:00018b20       ??_C@_0N@HOPCGOGP@id?9aca?9group?$AA@ 00080b20     libeay32:obj_dat.obj
 0002:00018b30       ??_C@_0BI@IDHFJBKH@id?9aca?9chargingIdentity?$AA@ 00080b30     libeay32:obj_dat.obj
 0002:00018b48       ??_C@_0BG@GFJCFEAI@id?9aca?9accessIdentity?$AA@ 00080b48     libeay32:obj_dat.obj
 0002:00018b60       ??_C@_0BK@OFEDAOCA@id?9aca?9authenticationInfo?$AA@ 00080b60     libeay32:obj_dat.obj
 0002:00018b7c       ??_C@_0BK@BJMNIGCJ@id?9pda?9countryOfResidence?$AA@ 00080b7c     libeay32:obj_dat.obj
 0002:00018b98       ??_C@_0BM@KMGEGNAB@id?9pda?9countryOfCitizenship?$AA@ 00080b98     libeay32:obj_dat.obj
 0002:00018bb4       ??_C@_0O@JMCFNPFD@id?9pda?9gender?$AA@ 00080bb4     libeay32:obj_dat.obj
 0002:00018bc4       ??_C@_0BE@NIFFDBPJ@id?9pda?9placeOfBirth?$AA@ 00080bc4     libeay32:obj_dat.obj
 0002:00018bd8       ??_C@_0BD@BADJMIPF@id?9pda?9dateOfBirth?$AA@ 00080bd8     libeay32:obj_dat.obj
 0002:00018bec       ??_C@_0BD@IGLADCFL@id?9on?9personalData?$AA@ 00080bec     libeay32:obj_dat.obj
 0002:00018c00       ??_C@_0BN@MIGHDJON@id?9cmc?9confirmCertAcceptance?$AA@ 00080c00     libeay32:obj_dat.obj
 0002:00018c20       ??_C@_0BG@EEIJMDPB@id?9cmc?9popLinkWitness?$AA@ 00080c20     libeay32:obj_dat.obj
 0002:00018c38       ??_C@_0BF@GGLCNKGO@id?9cmc?9popLinkRandom?$AA@ 00080c38     libeay32:obj_dat.obj
 0002:00018c50       ??_C@_0BE@JKLJLIIH@id?9cmc?9queryPending?$AA@ 00080c50     libeay32:obj_dat.obj
 0002:00018c64       ??_C@_0BE@CKMFMMDP@id?9cmc?9responseInfo?$AA@ 00080c64     libeay32:obj_dat.obj
 0002:00018c78       ??_C@_0P@PCIOIKNC@id?9cmc?9regInfo?$AA@ 00080c78     libeay32:obj_dat.obj
 0002:00018c88       ??_C@_0BF@BOEAJJNI@id?9cmc?9revokeRequest?$AA@ 00080c88     libeay32:obj_dat.obj
 0002:00018ca0       ??_C@_0O@OIGIOBJ@id?9cmc?9getCRL?$AA@ 00080ca0     libeay32:obj_dat.obj
 0002:00018cb0       ??_C@_0P@GMDPJKDO@id?9cmc?9getCert?$AA@ 00080cb0     libeay32:obj_dat.obj
 0002:00018cc0       ??_C@_0BF@BMODAINP@id?9cmc?9lraPOPWitness?$AA@ 00080cc0     libeay32:obj_dat.obj
 0002:00018cd8       ??_C@_0BE@KBIPLENG@id?9cmc?9decryptedPOP?$AA@ 00080cd8     libeay32:obj_dat.obj
 0002:00018cec       ??_C@_0BE@NILMJFN@id?9cmc?9encryptedPOP?$AA@ 00080cec     libeay32:obj_dat.obj
 0002:00018d00       ??_C@_0BF@HLOCACJF@id?9cmc?9addExtensions?$AA@ 00080d00     libeay32:obj_dat.obj
 0002:00018d18       ??_C@_0BG@JLHHNNCH@id?9cmc?9recipientNonce?$AA@ 00080d18     libeay32:obj_dat.obj
 0002:00018d30       ??_C@_0BD@BCMJDDMP@id?9cmc?9senderNonce?$AA@ 00080d30     libeay32:obj_dat.obj
 0002:00018d44       ??_C@_0BF@GEJAHBF@id?9cmc?9transactionId?$AA@ 00080d44     libeay32:obj_dat.obj
 0002:00018d5c       ??_C@_0BC@LLJKCHEN@id?9cmc?9dataReturn?$AA@ 00080d5c     libeay32:obj_dat.obj
 0002:00018d70       ??_C@_0BF@IDAHNDCK@id?9cmc?9identityProof?$AA@ 00080d70     libeay32:obj_dat.obj
 0002:00018d88       ??_C@_0BG@PPIINOMK@id?9cmc?9identification?$AA@ 00080d88     libeay32:obj_dat.obj
 0002:00018da0       ??_C@_0BC@CMNEPEAI@id?9cmc?9statusInfo?$AA@ 00080da0     libeay32:obj_dat.obj
 0002:00018db4       ??_C@_0O@OBGPPBGA@id?9alg?9dh?9pop?$AA@ 00080db4     libeay32:obj_dat.obj
 0002:00018dc4       ??_C@_0BI@KIODNBCM@id?9alg?9dh?9sig?9hmac?9sha1?$AA@ 00080dc4     libeay32:obj_dat.obj
 0002:00018ddc       ??_C@_0BD@LAAJOBHI@id?9alg?9noSignature?$AA@ 00080ddc     libeay32:obj_dat.obj
 0002:00018df0       ??_C@_0N@KIJONBNA@id?9alg?9des40?$AA@ 00080df0     libeay32:obj_dat.obj
 0002:00018e00       ??_C@_0BD@EEAPBNJJ@id?9regInfo?9certReq?$AA@ 00080e00     libeay32:obj_dat.obj
 0002:00018e14       ??_C@_0BF@FHFGHAHE@id?9regInfo?9utf8Pairs?$AA@ 00080e14     libeay32:obj_dat.obj
 0002:00018e2c       ??_C@_0BL@GHBPLPHM@id?9regCtrl?9protocolEncrKey?$AA@ 00080e2c     libeay32:obj_dat.obj
 0002:00018e48       ??_C@_0BF@GFJPNJIG@id?9regCtrl?9oldCertID?$AA@ 00080e48     libeay32:obj_dat.obj
 0002:00018e60       ??_C@_0BN@ONKHMAOP@id?9regCtrl?9pkiArchiveOptions?$AA@ 00080e60     libeay32:obj_dat.obj
 0002:00018e80       ??_C@_0BO@GJKPPLPL@id?9regCtrl?9pkiPublicationInfo?$AA@ 00080e80     libeay32:obj_dat.obj
 0002:00018ea0       ??_C@_0BJ@FBKKLLKP@id?9regCtrl?9authenticator?$AA@ 00080ea0     libeay32:obj_dat.obj
 0002:00018ebc       ??_C@_0BE@JDMKCIPE@id?9regCtrl?9regToken?$AA@ 00080ebc     libeay32:obj_dat.obj
 0002:00018ed0       ??_C@_0L@BGHMJHOP@id?9regInfo?$AA@ 00080ed0     libeay32:obj_dat.obj
 0002:00018edc       ??_C@_0L@FDGKGANK@id?9regCtrl?$AA@ 00080edc     libeay32:obj_dat.obj
 0002:00018ee8       ??_C@_0BF@CLCJJGFI@id?9it?9origPKIMessage?$AA@ 00080ee8     libeay32:obj_dat.obj
 0002:00018f00       ??_C@_0BG@KCBHNMIK@id?9it?9confirmWaitTime?$AA@ 00080f00     libeay32:obj_dat.obj
 0002:00018f18       ??_C@_0BG@MKDHCJKF@id?9it?9implicitConfirm?$AA@ 00080f18     libeay32:obj_dat.obj
 0002:00018f30       ??_C@_0BE@FOOOCPMH@id?9it?9revPassphrase?$AA@ 00080f30     libeay32:obj_dat.obj
 0002:00018f44       ??_C@_0BG@KPIIFBLH@id?9it?9keyPairParamRep?$AA@ 00080f44     libeay32:obj_dat.obj
 0002:00018f5c       ??_C@_0BG@LGJDGAPG@id?9it?9keyPairParamReq?$AA@ 00080f5c     libeay32:obj_dat.obj
 0002:00018f74       ??_C@_0BL@HBPHBFLO@id?9it?9subscriptionResponse?$AA@ 00080f74     libeay32:obj_dat.obj
 0002:00018f90       ??_C@_0BK@MKGCMKGI@id?9it?9subscriptionRequest?$AA@ 00080f90     libeay32:obj_dat.obj
 0002:00018fac       ??_C@_0BG@BPLKDJPD@id?9it?9unsupportedOIDs?$AA@ 00080fac     libeay32:obj_dat.obj
 0002:00018fc4       ??_C@_0BB@NHKBGJFG@id?9it?9currentCRL?$AA@ 00080fc4     libeay32:obj_dat.obj
 0002:00018fd8       ??_C@_0BG@OAKEHPLC@id?9it?9caKeyUpdateInfo?$AA@ 00080fd8     libeay32:obj_dat.obj
 0002:00018ff0       ??_C@_0BH@JFBOPDCH@id?9it?9preferredSymmAlg?$AA@ 00080ff0     libeay32:obj_dat.obj
 0002:00019008       ??_C@_0BG@FKIDIODL@id?9it?9encKeyPairTypes?$AA@ 00081008     libeay32:obj_dat.obj
 0002:00019020       ??_C@_0BH@POCENFBA@id?9it?9signKeyPairTypes?$AA@ 00081020     libeay32:obj_dat.obj
 0002:00019038       ??_C@_0BE@GJACIPND@id?9it?9caProtEncCert?$AA@ 00081038     libeay32:obj_dat.obj
 0002:0001904c       ??_C@_04FFLIHJGD@dvcs?$AA@ 0008104c     libeay32:obj_dat.obj
 0002:00019054       ??_C@_04JJICJLBL@DVCS?$AA@ 00081054     libeay32:obj_dat.obj
 0002:0001905c       ??_C@_0L@DECDDCGF@IPSec?5User?$AA@ 0008105c     libeay32:obj_dat.obj
 0002:00019068       ??_C@_09GOHJKOFF@ipsecUser?$AA@ 00081068     libeay32:obj_dat.obj
 0002:00019074       ??_C@_0N@EKDIOGLO@IPSec?5Tunnel?$AA@ 00081074     libeay32:obj_dat.obj
 0002:00019084       ??_C@_0M@GMMHFFHI@ipsecTunnel?$AA@ 00081084     libeay32:obj_dat.obj
 0002:00019090       ??_C@_0BB@JEJDAICO@IPSec?5End?5System?$AA@ 00081090     libeay32:obj_dat.obj
 0002:000190a4       ??_C@_0P@MKBFMAPP@ipsecEndSystem?$AA@ 000810a4     libeay32:obj_dat.obj
 0002:000190b4       ??_C@_0L@HLNNPJEH@textNotice?$AA@ 000810b4     libeay32:obj_dat.obj
 0002:000190c0       ??_C@_0BG@JCJJBMAI@sbgp?9routerIdentifier?$AA@ 000810c0     libeay32:obj_dat.obj
 0002:000190d8       ??_C@_0BG@OJEHJDKA@sbgp?9autonomousSysNum?$AA@ 000810d8     libeay32:obj_dat.obj
 0002:000190f0       ??_C@_0BB@NNCKCHBC@sbgp?9ipAddrBlock?$AA@ 000810f0     libeay32:obj_dat.obj
 0002:00019104       ??_C@_0L@DLGBNBJE@aaControls?$AA@ 00081104     libeay32:obj_dat.obj
 0002:00019110       ??_C@_0N@FPEEOJCI@ac?9targeting?$AA@ 00081110     libeay32:obj_dat.obj
 0002:00019120       ??_C@_0P@CIOHPJGC@ac?9auditEntity?$AA@ 00081120     libeay32:obj_dat.obj
 0002:00019130       ??_C@_0N@FPMNLLM@qcStatements?$AA@ 00081130     libeay32:obj_dat.obj
 0002:00019140       ??_C@_0P@KFKDECPH@Biometric?5Info?$AA@ 00081140     libeay32:obj_dat.obj
 0002:00019150       ??_C@_0O@MPIIPAHM@biometricInfo?$AA@ 00081150     libeay32:obj_dat.obj
 0002:00019160       ??_C@_0P@MMOAAMFD@id?9mod?9cmp2000?$AA@ 00081160     libeay32:obj_dat.obj
 0002:00019170       ??_C@_0M@GHDGNJKI@id?9mod?9dvcs?$AA@ 00081170     libeay32:obj_dat.obj
 0002:0001917c       ??_C@_0M@EACKLPKH@id?9mod?9ocsp?$AA@ 0008117c     libeay32:obj_dat.obj
 0002:00019188       ??_C@_0BK@GAJOODEK@id?9mod?9timestamp?9protocol?$AA@ 00081188     libeay32:obj_dat.obj
 0002:000191a4       ??_C@_0BG@EPPFBJNH@id?9mod?9attribute?9cert?$AA@ 000811a4     libeay32:obj_dat.obj
 0002:000191bc       ??_C@_0BJ@IGODAJIK@id?9mod?9qualified?9cert?993?$AA@ 000811bc     libeay32:obj_dat.obj
 0002:000191d8       ??_C@_0BJ@GENFLKHG@id?9mod?9qualified?9cert?988?$AA@ 000811d8     libeay32:obj_dat.obj
 0002:000191f4       ??_C@_0L@MONEHBKH@id?9mod?9cmp?$AA@ 000811f4     libeay32:obj_dat.obj
 0002:00019200       ??_C@_0BG@NAFGGBFM@id?9mod?9kea?9profile?993?$AA@ 00081200     libeay32:obj_dat.obj
 0002:00019218       ??_C@_0BG@DCGANCKA@id?9mod?9kea?9profile?988?$AA@ 00081218     libeay32:obj_dat.obj
 0002:00019230       ??_C@_0L@KPDLDADF@id?9mod?9cmc?$AA@ 00081230     libeay32:obj_dat.obj
 0002:0001923c       ??_C@_0M@GHFPFJPB@id?9mod?9crmf?$AA@ 0008123c     libeay32:obj_dat.obj
 0002:00019248       ??_C@_0BF@EOKAKKIK@id?9pkix1?9implicit?993?$AA@ 00081248     libeay32:obj_dat.obj
 0002:00019260       ??_C@_0BF@JEALIPIC@id?9pkix1?9explicit?993?$AA@ 00081260     libeay32:obj_dat.obj
 0002:00019278       ??_C@_0BF@KMJGBJHG@id?9pkix1?9implicit?988?$AA@ 00081278     libeay32:obj_dat.obj
 0002:00019290       ??_C@_0BF@HGDNDMHO@id?9pkix1?9explicit?988?$AA@ 00081290     libeay32:obj_dat.obj
 0002:000192a8       ??_C@_06PONIBOCI@id?9cct?$AA@ 000812a8     libeay32:obj_dat.obj
 0002:000192b0       ??_C@_06ELIJBHPL@id?9qcs?$AA@ 000812b0     libeay32:obj_dat.obj
 0002:000192b8       ??_C@_06GDGEDALH@id?9aca?$AA@ 000812b8     libeay32:obj_dat.obj
 0002:000192c0       ??_C@_06IOIOBGMI@id?9pda?$AA@ 000812c0     libeay32:obj_dat.obj
 0002:000192c8       ??_C@_05OHNJGMJE@id?9on?$AA@ 000812c8     libeay32:obj_dat.obj
 0002:000192d0       ??_C@_06PBMFLHLE@id?9cmc?$AA@ 000812d0     libeay32:obj_dat.obj
 0002:000192d8       ??_C@_06DOGCNAAM@id?9alg?$AA@ 000812d8     libeay32:obj_dat.obj
 0002:000192e0       ??_C@_07OMHOPMIM@id?9pkip?$AA@ 000812e0     libeay32:obj_dat.obj
 0002:000192e8       ??_C@_05FDHJOKPN@id?9it?$AA@ 000812e8     libeay32:obj_dat.obj
 0002:000192f0       ??_C@_05EBEMBIDF@id?9qt?$AA@ 000812f0     libeay32:obj_dat.obj
 0002:000192f8       ??_C@_0M@FNAFBNKE@id?9pkix?9mod?$AA@ 000812f8     libeay32:obj_dat.obj
 0002:00019304       ??_C@_03ODADJPDG@md4?$AA@  00081304     libeay32:obj_dat.obj
 0002:00019308       ??_C@_03HLHMHGOI@MD4?$AA@  00081308     libeay32:obj_dat.obj
 0002:0001930c       ??_C@_0CB@MICJDGGH@id?9smime?9cti?9ets?9proofOfCreation@ 0008130c     libeay32:obj_dat.obj
 0002:00019330       ??_C@_0CB@DDLMHEBC@id?9smime?9cti?9ets?9proofOfApproval@ 00081330     libeay32:obj_dat.obj
 0002:00019354       ??_C@_0BP@ODCAFFCM@id?9smime?9cti?9ets?9proofOfSender?$AA@ 00081354     libeay32:obj_dat.obj
 0002:00019374       ??_C@_0CB@ICJGPMEP@id?9smime?9cti?9ets?9proofOfDelivery@ 00081374     libeay32:obj_dat.obj
 0002:00019398       ??_C@_0CA@HNGOKBGC@id?9smime?9cti?9ets?9proofOfReceipt?$AA@ 00081398     libeay32:obj_dat.obj
 0002:000193b8       ??_C@_0BP@BCHFEGHC@id?9smime?9cti?9ets?9proofOfOrigin?$AA@ 000813b8     libeay32:obj_dat.obj
 0002:000193d8       ??_C@_0BN@GPAAHNOH@id?9smime?9spq?9ets?9sqt?9unotice?$AA@ 000813d8     libeay32:obj_dat.obj
 0002:000193f8       ??_C@_0BJ@IMNKDGEG@id?9smime?9spq?9ets?9sqt?9uri?$AA@ 000813f8     libeay32:obj_dat.obj
 0002:00019414       ??_C@_0BB@BMOBKAGE@id?9smime?9cd?9ldap?$AA@ 00081414     libeay32:obj_dat.obj
 0002:00019428       ??_C@_0BI@FIFDKKFJ@id?9smime?9alg?9CMSRC2wrap?$AA@ 00081428     libeay32:obj_dat.obj
 0002:00019440       ??_C@_0BJ@FOFHEIDB@id?9smime?9alg?9CMS3DESwrap?$AA@ 00081440     libeay32:obj_dat.obj
 0002:0001945c       ??_C@_0BC@COOODKPD@id?9smime?9alg?9ESDH?$AA@ 0008145c     libeay32:obj_dat.obj
 0002:00019470       ??_C@_0BF@JNCPAJCA@id?9smime?9alg?9RC2wrap?$AA@ 00081470     libeay32:obj_dat.obj
 0002:00019488       ??_C@_0BG@HHELPNAK@id?9smime?9alg?93DESwrap?$AA@ 00081488     libeay32:obj_dat.obj
 0002:000194a0       ??_C@_0BJ@FIJMOHBJ@id?9smime?9alg?9ESDHwithRC2?$AA@ 000814a0     libeay32:obj_dat.obj
 0002:000194bc       ??_C@_0BK@JNJOCCCB@id?9smime?9alg?9ESDHwith3DES?$AA@ 000814bc     libeay32:obj_dat.obj
 0002:000194d8       ??_C@_0BF@KEMAMBKF@id?9smime?9aa?9dvcs?9dvc?$AA@ 000814d8     libeay32:obj_dat.obj
 0002:000194f0       ??_C@_0BK@HDBIPLFI@id?9smime?9aa?9signatureType?$AA@ 000814f0     libeay32:obj_dat.obj
 0002:0001950c       ??_C@_0CB@BEMKNJGO@id?9smime?9aa?9ets?9archiveTimeStamp@ 0008150c     libeay32:obj_dat.obj
 0002:00019530       ??_C@_0CB@CJNBPJE@id?9smime?9aa?9ets?9certCRLTimestamp@ 00081530     libeay32:obj_dat.obj
 0002:00019554       ??_C@_0BN@HGLOGOFI@id?9smime?9aa?9ets?9escTimeStamp?$AA@ 00081554     libeay32:obj_dat.obj
 0002:00019574       ??_C@_0CB@GOCEFPFO@id?9smime?9aa?9ets?9revocationValues@ 00081574     libeay32:obj_dat.obj
 0002:00019598       ??_C@_0BL@IFKOLDIG@id?9smime?9aa?9ets?9certValues?$AA@ 00081598     libeay32:obj_dat.obj
 0002:000195b4       ??_C@_0BP@BCHJHNFO@id?9smime?9aa?9ets?9RevocationRefs?$AA@ 000815b4     libeay32:obj_dat.obj
 0002:000195d4       ??_C@_0CA@NKIOCHLG@id?9smime?9aa?9ets?9CertificateRefs?$AA@ 000815d4     libeay32:obj_dat.obj
 0002:000195f4       ??_C@_0CB@GHKINGOH@id?9smime?9aa?9ets?9contentTimestamp@ 000815f4     libeay32:obj_dat.obj
 0002:00019618       ??_C@_0BN@JFIFOPBH@id?9smime?9aa?9ets?9otherSigCert?$AA@ 00081618     libeay32:obj_dat.obj
 0002:00019638       ??_C@_0BL@KDJDAGDC@id?9smime?9aa?9ets?9signerAttr?$AA@ 00081638     libeay32:obj_dat.obj
 0002:00019654       ??_C@_0BP@EODAELPO@id?9smime?9aa?9ets?9signerLocation?$AA@ 00081654     libeay32:obj_dat.obj
 0002:00019674       ??_C@_0BP@OLIFPEIM@id?9smime?9aa?9ets?9commitmentType?$AA@ 00081674     libeay32:obj_dat.obj
 0002:00019694       ??_C@_0BM@GKFMJCFL@id?9smime?9aa?9ets?9sigPolicyId?$AA@ 00081694     libeay32:obj_dat.obj
 0002:000196b0       ??_C@_0BL@DHJOIJNE@id?9smime?9aa?9timeStampToken?$AA@ 000816b0     libeay32:obj_dat.obj
 0002:000196cc       ??_C@_0BO@CEEOANBD@id?9smime?9aa?9smimeEncryptCerts?$AA@ 000816cc     libeay32:obj_dat.obj
 0002:000196ec       ??_C@_0BP@LHGJLGIB@id?9smime?9aa?9signingCertificate?$AA@ 000816ec     libeay32:obj_dat.obj
 0002:0001970c       ??_C@_0BK@LAPEFMP@id?9smime?9aa?9encrypKeyPref?$AA@ 0008170c     libeay32:obj_dat.obj
 0002:00019728       ??_C@_0BN@LEFAEFL@id?9smime?9aa?9contentReference?$AA@ 00081728     libeay32:obj_dat.obj
 0002:00019748       ??_C@_0BN@NFAAOKEA@id?9smime?9aa?9equivalentLabels?$AA@ 00081748     libeay32:obj_dat.obj
 0002:00019768       ??_C@_0BF@CFNHFPDB@id?9smime?9aa?9macValue?$AA@ 00081768     libeay32:obj_dat.obj
 0002:00019780       ??_C@_0BO@KMJGIAMK@id?9smime?9aa?9contentIdentifier?$AA@ 00081780     libeay32:obj_dat.obj
 0002:000197a0       ??_C@_0BN@GCCNOJCG@id?9smime?9aa?9encapContentType?$AA@ 000817a0     libeay32:obj_dat.obj
 0002:000197c0       ??_C@_0BJ@LJLDKMDH@id?9smime?9aa?9msgSigDigest?$AA@ 000817c0     libeay32:obj_dat.obj
 0002:000197dc       ??_C@_0BI@EMGPJFHB@id?9smime?9aa?9contentHint?$AA@ 000817dc     libeay32:obj_dat.obj
 0002:000197f4       ??_C@_0BM@OEKGBMLE@id?9smime?9aa?9mlExpandHistory?$AA@ 000817f4     libeay32:obj_dat.obj
 0002:00019810       ??_C@_0BK@DNJNJILO@id?9smime?9aa?9securityLabel?$AA@ 00081810     libeay32:obj_dat.obj
 0002:0001982c       ??_C@_0BL@LMGNMPFD@id?9smime?9aa?9receiptRequest?$AA@ 0008182c     libeay32:obj_dat.obj
 0002:00019848       ??_C@_0BN@POKJLKJJ@id?9smime?9ct?9DVCSResponseData?$AA@ 00081848     libeay32:obj_dat.obj
 0002:00019868       ??_C@_0BM@MFKPCEGN@id?9smime?9ct?9DVCSRequestData?$AA@ 00081868     libeay32:obj_dat.obj
 0002:00019884       ??_C@_0BI@BGKPNMK@id?9smime?9ct?9contentInfo?$AA@ 00081884     libeay32:obj_dat.obj
 0002:0001989c       ??_C@_0BE@FKPPBHI@id?9smime?9ct?9TDTInfo?$AA@ 0008189c     libeay32:obj_dat.obj
 0002:000198b0       ??_C@_0BE@KHNGFDDI@id?9smime?9ct?9TSTInfo?$AA@ 000818b0     libeay32:obj_dat.obj
 0002:000198c4       ??_C@_0BI@DBILCLFJ@id?9smime?9ct?9publishCert?$AA@ 000818c4     libeay32:obj_dat.obj
 0002:000198dc       ??_C@_0BF@KGEHGOF@id?9smime?9ct?9authData?$AA@ 000818dc     libeay32:obj_dat.obj
 0002:000198f4       ??_C@_0BE@GCHIHBHA@id?9smime?9ct?9receipt?$AA@ 000818f4     libeay32:obj_dat.obj
 0002:00019908       ??_C@_0BP@CCCOHHAI@id?9smime?9mod?9ets?9eSigPolicy?997?$AA@ 00081908     libeay32:obj_dat.obj
 0002:00019928       ??_C@_0BP@KEHEABPA@id?9smime?9mod?9ets?9eSigPolicy?988?$AA@ 00081928     libeay32:obj_dat.obj
 0002:00019948       ??_C@_0BP@POGMGJII@id?9smime?9mod?9ets?9eSignature?997?$AA@ 00081948     libeay32:obj_dat.obj
 0002:00019968       ??_C@_0BP@HIDGBPHA@id?9smime?9mod?9ets?9eSignature?988?$AA@ 00081968     libeay32:obj_dat.obj
 0002:00019988       ??_C@_0BE@PEENABNJ@id?9smime?9mod?9msg?9v3?$AA@ 00081988     libeay32:obj_dat.obj
 0002:0001999c       ??_C@_0BB@LBBEMNBN@id?9smime?9mod?9oid?$AA@ 0008199c     libeay32:obj_dat.obj
 0002:000199b0       ??_C@_0BB@MKJLIPEJ@id?9smime?9mod?9ess?$AA@ 000819b0     libeay32:obj_dat.obj
 0002:000199c4       ??_C@_0BB@PJEIFOOP@id?9smime?9mod?9cms?$AA@ 000819c4     libeay32:obj_dat.obj
 0002:000199d8       ??_C@_0N@CFBKAPGC@id?9smime?9cti?$AA@ 000819d8     libeay32:obj_dat.obj
 0002:000199e8       ??_C@_0N@PABBGIHI@id?9smime?9spq?$AA@ 000819e8     libeay32:obj_dat.obj
 0002:000199f8       ??_C@_0M@LHBAJBP@id?9smime?9cd?$AA@ 000819f8     libeay32:obj_dat.obj
 0002:00019a04       ??_C@_0N@DKFBIKP@id?9smime?9alg?$AA@ 00081a04     libeay32:obj_dat.obj
 0002:00019a14       ??_C@_0M@HFICCJDE@id?9smime?9aa?$AA@ 00081a14     libeay32:obj_dat.obj
 0002:00019a20       ??_C@_0M@EBLDBLEO@id?9smime?9ct?$AA@ 00081a20     libeay32:obj_dat.obj
 0002:00019a2c       ??_C@_0N@GABIEKIN@id?9smime?9mod?$AA@ 00081a2c     libeay32:obj_dat.obj
 0002:00019a3c       ??_C@_06DFGHEKNE@S?1MIME?$AA@ 00081a3c     libeay32:obj_dat.obj
 0002:00019a44       ??_C@_05HHBEAKJJ@SMIME?$AA@ 00081a44     libeay32:obj_dat.obj
 0002:00019a4c       ??_C@_05HGOIFJJD@pkcs5?$AA@ 00081a4c     libeay32:obj_dat.obj
 0002:00019a54       ??_C@_05BCIEJMJH@pkcs1?$AA@ 00081a54     libeay32:obj_dat.obj
 0002:00019a5c       ??_C@_0L@DJCLIPOH@X9?457?5CM?5?$DP?$AA@ 00081a5c     libeay32:obj_dat.obj
 0002:00019a68       ??_C@_04CGFPFLFA@X9cm?$AA@ 00081a68     libeay32:obj_dat.obj
 0002:00019a70       ??_C@_05PAJLFBHD@X9?457?$AA@ 00081a70     libeay32:obj_dat.obj
 0002:00019a78       ??_C@_05OCCOPOJN@X9?957?$AA@ 00081a78     libeay32:obj_dat.obj
 0002:00019a80       ??_C@_0BD@NMCDOJHL@ISO?5US?5Member?5Body?$AA@ 00081a80     libeay32:obj_dat.obj
 0002:00019a94       ??_C@_06EKAADAMF@ISO?9US?$AA@ 00081a94     libeay32:obj_dat.obj
 0002:00019a9c       ??_C@_0BA@BGDAEHGF@ISO?5Member?5Body?$AA@ 00081a9c     libeay32:obj_dat.obj
 0002:00019aac       ??_C@_0M@CMICFDOA@member?9body?$AA@ 00081aac     libeay32:obj_dat.obj
 0002:00019ab8       ??_C@_03CMEHDJAL@iso?$AA@  00081ab8     libeay32:obj_dat.obj
 0002:00019abc       ??_C@_03CBLMPEHH@ISO?$AA@  00081abc     libeay32:obj_dat.obj
 0002:00019ac0       ??_C@_0N@CPJNIPDD@OCSP?5Signing?$AA@ 00081ac0     libeay32:obj_dat.obj
 0002:00019ad0       ??_C@_0M@HBKJLKNM@OCSPSigning?$AA@ 00081ad0     libeay32:obj_dat.obj
 0002:00019adc       ??_C@_0L@CABCENFK@CA?5Issuers?$AA@ 00081adc     libeay32:obj_dat.obj
 0002:00019ae8       ??_C@_09GFPECPIH@caIssuers?$AA@ 00081ae8     libeay32:obj_dat.obj
 0002:00019af4       ??_C@_04LOJOPNBE@OCSP?$AA@ 00081af4     libeay32:obj_dat.obj
 0002:00019afc       ??_C@_0BN@EILCOJAN@Authority?5Information?5Access?$AA@ 00081afc     libeay32:obj_dat.obj
 0002:00019b1c       ??_C@_0BE@PLCGCINM@authorityInfoAccess?$AA@ 00081b1c     libeay32:obj_dat.obj
 0002:00019b30       ??_C@_05BHKIKJBE@id?9ad?$AA@ 00081b30     libeay32:obj_dat.obj
 0002:00019b38       ??_C@_05BDFHFBBC@id?9pe?$AA@ 00081b38     libeay32:obj_dat.obj
 0002:00019b40       ??_C@_0M@DNNLEIMI@dnQualifier?$AA@ 00081b40     libeay32:obj_dat.obj
 0002:00019b4c       ??_C@_04MEMAJGDJ@name?$AA@ 00081b4c     libeay32:obj_dat.obj
 0002:00019b54       ??_C@_0BC@GLHEKHCC@Extension?5Request?$AA@ 00081b54     libeay32:obj_dat.obj
 0002:00019b68       ??_C@_06EJACAMDF@extReq?$AA@ 00081b68     libeay32:obj_dat.obj
 0002:00019b70       ??_C@_0BM@MEJAMAEO@Microsoft?5Extension?5Request?$AA@ 00081b70     libeay32:obj_dat.obj
 0002:00019b8c       ??_C@_08HCCJAOPJ@msExtReq?$AA@ 00081b8c     libeay32:obj_dat.obj
 0002:00019b98       ??_C@_0BG@JLHBEJLP@pbeWithSHA1AndDES?9CBC?$AA@ 00081b98     libeay32:obj_dat.obj
 0002:00019bb0       ??_C@_0N@GOPIPBOD@PBE?9SHA1?9DES?$AA@ 00081bb0     libeay32:obj_dat.obj
 0002:00019bc0       ??_C@_0BF@CKDLCJKD@pbeWithMD5AndRC2?9CBC?$AA@ 00081bc0     libeay32:obj_dat.obj
 0002:00019bd8       ??_C@_0P@IDPFKEHM@PBE?9MD5?9RC2?964?$AA@ 00081bd8     libeay32:obj_dat.obj
 0002:00019be8       ??_C@_0BF@FOKDMACM@pbeWithMD2AndRC2?9CBC?$AA@ 00081be8     libeay32:obj_dat.obj
 0002:00019c00       ??_C@_0P@OHJEMJLF@PBE?9MD2?9RC2?964?$AA@ 00081c00     libeay32:obj_dat.obj
 0002:00019c10       ??_C@_0BE@CEEFMCAI@S?1MIME?5Capabilities?$AA@ 00081c10     libeay32:obj_dat.obj
 0002:00019c24       ??_C@_0L@LCBJGKJG@SMIME?9CAPS?$AA@ 00081c24     libeay32:obj_dat.obj
 0002:00019c30       ??_C@_0L@CLELMECA@rc2?964?9cbc?$AA@ 00081c30     libeay32:obj_dat.obj
 0002:00019c3c       ??_C@_0L@OPHBIFFL@RC2?964?9CBC?$AA@ 00081c3c     libeay32:obj_dat.obj
 0002:00019c48       ??_C@_0BN@KPMBKEE@Policy?5Qualifier?5User?5Notice?$AA@ 00081c48     libeay32:obj_dat.obj
 0002:00019c68       ??_C@_0O@CJFHFAHE@id?9qt?9unotice?$AA@ 00081c68     libeay32:obj_dat.obj
 0002:00019c78       ??_C@_0BF@HPKIKKPI@Policy?5Qualifier?5CPS?$AA@ 00081c78     libeay32:obj_dat.obj
 0002:00019c90       ??_C@_09MIPGHKGJ@id?9qt?9cps?$AA@ 00081c90     libeay32:obj_dat.obj
 0002:00019c9c       ??_C@_0N@KANOAIP@hmacWithSHA1?$AA@ 00081c9c     libeay32:obj_dat.obj
 0002:00019cac       ??_C@_06DEJMPFNK@PBMAC1?$AA@ 00081cac     libeay32:obj_dat.obj
 0002:00019cb4       ??_C@_05EPMADBBF@PBES2?$AA@ 00081cb4     libeay32:obj_dat.obj
 0002:00019cbc       ??_C@_07KAOEJCFK@x509Crl?$AA@ 00081cbc     libeay32:obj_dat.obj
 0002:00019cc4       ??_C@_0BA@BFAOBDKH@sdsiCertificate?$AA@ 00081cc4     libeay32:obj_dat.obj
 0002:00019cd4       ??_C@_0BA@EMOFOCJL@x509Certificate?$AA@ 00081cd4     libeay32:obj_dat.obj
 0002:00019ce4       ??_C@_0L@BCMHPPAO@localKeyID?$AA@ 00081ce4     libeay32:obj_dat.obj
 0002:00019cf0       ??_C@_0N@BGFMPLCM@friendlyName?$AA@ 00081cf0     libeay32:obj_dat.obj
 0002:00019d00       ??_C@_0BA@KAKLKBBC@safeContentsBag?$AA@ 00081d00     libeay32:obj_dat.obj
 0002:00019d10       ??_C@_09DELDBPIE@secretBag?$AA@ 00081d10     libeay32:obj_dat.obj
 0002:00019d1c       ??_C@_06JAFBIMLO@crlBag?$AA@ 00081d1c     libeay32:obj_dat.obj
 0002:00019d24       ??_C@_07FDLMCII@certBag?$AA@ 00081d24     libeay32:obj_dat.obj
 0002:00019d2c       ??_C@_0BE@ELJKIANF@pkcs8ShroudedKeyBag?$AA@ 00081d2c     libeay32:obj_dat.obj
 0002:00019d40       ??_C@_06BFGNOIAI@keyBag?$AA@ 00081d40     libeay32:obj_dat.obj
 0002:00019d48       ??_C@_0BL@CKNKIMON@pbeWithSHA1And40BitRC2?9CBC?$AA@ 00081d48     libeay32:obj_dat.obj
 0002:00019d64       ??_C@_0BA@MNBMNMAN@PBE?9SHA1?9RC2?940?$AA@ 00081d64     libeay32:obj_dat.obj
 0002:00019d74       ??_C@_0BM@DOLDINME@pbeWithSHA1And128BitRC2?9CBC?$AA@ 00081d74     libeay32:obj_dat.obj
 0002:00019d90       ??_C@_0BB@FNLJPIMG@PBE?9SHA1?9RC2?9128?$AA@ 00081d90     libeay32:obj_dat.obj
 0002:00019da4       ??_C@_0CB@NCMPKEGH@pbeWithSHA1And2?9KeyTripleDES?9CBC@ 00081da4     libeay32:obj_dat.obj
 0002:00019dc8       ??_C@_0O@HOHOOIGM@PBE?9SHA1?92DES?$AA@ 00081dc8     libeay32:obj_dat.obj
 0002:00019dd8       ??_C@_0CB@FCNCEDP@pbeWithSHA1And3?9KeyTripleDES?9CBC@ 00081dd8     libeay32:obj_dat.obj
 0002:00019dfc       ??_C@_0O@EDBOMBNM@PBE?9SHA1?93DES?$AA@ 00081dfc     libeay32:obj_dat.obj
 0002:00019e0c       ??_C@_0BH@OCAEJMIL@pbeWithSHA1And40BitRC4?$AA@ 00081e0c     libeay32:obj_dat.obj
 0002:00019e24       ??_C@_0BA@ECFMCJKN@PBE?9SHA1?9RC4?940?$AA@ 00081e24     libeay32:obj_dat.obj
 0002:00019e34       ??_C@_0BI@LBIFCLPB@pbeWithSHA1And128BitRC4?$AA@ 00081e34     libeay32:obj_dat.obj
 0002:00019e4c       ??_C@_0BB@ILOABLNL@PBE?9SHA1?9RC4?9128?$AA@ 00081e4c     libeay32:obj_dat.obj
 0002:00019e60       ??_C@_0BD@PNDCMCDK@Strong?5Extranet?5ID?$AA@ 00081e60     libeay32:obj_dat.obj
 0002:00019e74       ??_C@_07DKMNOLMH@SXNetID?$AA@ 00081e74     libeay32:obj_dat.obj
 0002:00019e7c       ??_C@_0BA@JDBEMONE@Invalidity?5Date?$AA@ 00081e7c     libeay32:obj_dat.obj
 0002:00019e8c       ??_C@_0P@BKEGCOMO@invalidityDate?$AA@ 00081e8c     libeay32:obj_dat.obj
 0002:00019e9c       ??_C@_0BH@GODIEFKG@X509v3?5CRL?5Reason?5Code?$AA@ 00081e9c     libeay32:obj_dat.obj
 0002:00019eb4       ??_C@_09MCDAGILE@CRLReason?$AA@ 00081eb4     libeay32:obj_dat.obj
 0002:00019ec0       ??_C@_0BL@HLNLPBHP@X509v3?5Delta?5CRL?5Indicator?$AA@ 00081ec0     libeay32:obj_dat.obj
 0002:00019edc       ??_C@_08ECNAKPJJ@deltaCRL?$AA@ 00081edc     libeay32:obj_dat.obj
 0002:00019ee8       ??_C@_0BN@MDNLHLBL@Netscape?5Server?5Gated?5Crypto?$AA@ 00081ee8     libeay32:obj_dat.obj
 0002:00019f08       ??_C@_05LFIIINKG@nsSGC?$AA@ 00081f08     libeay32:obj_dat.obj
 0002:00019f10       ??_C@_0CA@IJODBCMB@Microsoft?5Encrypted?5File?5System?$AA@ 00081f10     libeay32:obj_dat.obj
 0002:00019f30       ??_C@_05NGOIPCN@msEFS?$AA@ 00081f30     libeay32:obj_dat.obj
 0002:00019f38       ??_C@_0BO@FBDDCLK@Microsoft?5Server?5Gated?5Crypto?$AA@ 00081f38     libeay32:obj_dat.obj
 0002:00019f58       ??_C@_05DDBMPPAI@msSGC?$AA@ 00081f58     libeay32:obj_dat.obj
 0002:00019f60       ??_C@_0BN@GNMCHNOI@Microsoft?5Trust?5List?5Signing?$AA@ 00081f60     libeay32:obj_dat.obj
 0002:00019f80       ??_C@_09HGCLLDPK@msCTLSign?$AA@ 00081f80     libeay32:obj_dat.obj
 0002:00019f8c       ??_C@_0CC@GKFNEBFA@Microsoft?5Commercial?5Code?5Signin@ 00081f8c     libeay32:obj_dat.obj
 0002:00019fb0       ??_C@_09PDGAMFAO@msCodeCom?$AA@ 00081fb0     libeay32:obj_dat.obj
 0002:00019fbc       ??_C@_0CC@NDDHKAMP@Microsoft?5Individual?5Code?5Signin@ 00081fbc     libeay32:obj_dat.obj
 0002:00019fe0       ??_C@_09EMNNPEBE@msCodeInd?$AA@ 00081fe0     libeay32:obj_dat.obj
 0002:00019fec       ??_C@_0O@GMMBLMEE@Time?5Stamping?$AA@ 00081fec     libeay32:obj_dat.obj
 0002:00019ffc       ??_C@_0N@LONEBHPN@timeStamping?$AA@ 00081ffc     libeay32:obj_dat.obj
 0002:0001a00c       ??_C@_0BC@BLBGFKKG@E?9mail?5Protection?$AA@ 0008200c     libeay32:obj_dat.obj
 0002:0001a020       ??_C@_0BA@NPCFDPCO@emailProtection?$AA@ 00082020     libeay32:obj_dat.obj
 0002:0001a030       ??_C@_0N@CHJHLHFC@Code?5Signing?$AA@ 00082030     libeay32:obj_dat.obj
 0002:0001a040       ??_C@_0M@OJNCNGJ@codeSigning?$AA@ 00082040     libeay32:obj_dat.obj
 0002:0001a04c       ??_C@_0BO@FEMCBEOF@TLS?5Web?5Client?5Authentication?$AA@ 0008204c     libeay32:obj_dat.obj
 0002:0001a06c       ??_C@_0L@HCMKLLOP@clientAuth?$AA@ 0008206c     libeay32:obj_dat.obj
 0002:0001a078       ??_C@_0BO@HPFOJNNE@TLS?5Web?5Server?5Authentication?$AA@ 00082078     libeay32:obj_dat.obj
 0002:0001a098       ??_C@_0L@CINGAJGN@serverAuth?$AA@ 00082098     libeay32:obj_dat.obj
 0002:0001a0a4       ??_C@_05DEJBPLJH@id?9kp?$AA@ 000820a4     libeay32:obj_dat.obj
 0002:0001a0ac       ??_C@_04EAPCHJAG@PKIX?$AA@ 000820ac     libeay32:obj_dat.obj
 0002:0001a0b4       ??_C@_0BK@KFMGFBEG@X509v3?5Extended?5Key?5Usage?$AA@ 000820b4     libeay32:obj_dat.obj
 0002:0001a0d0       ??_C@_0BB@DGDLKPHD@extendedKeyUsage?$AA@ 000820d0     libeay32:obj_dat.obj
 0002:0001a0e4       ??_C@_0BB@KGNEOBKL@zlib?5compression?$AA@ 000820e4     libeay32:obj_dat.obj
 0002:0001a0f8       ??_C@_04CHLIKDMF@ZLIB?$AA@ 000820f8     libeay32:obj_dat.obj
 0002:0001a100       ??_C@_0BH@CAEIMNHD@run?5length?5compression?$AA@ 00082100     libeay32:obj_dat.obj
 0002:0001a118       ??_C@_03ELDBCICO@RLE?$AA@  00082118     libeay32:obj_dat.obj
 0002:0001a11c       ??_C@_07NLMEMEEK@rc5?9ofb?$AA@ 0008211c     libeay32:obj_dat.obj
 0002:0001a124       ??_C@_07OAPEFCPM@RC5?9OFB?$AA@ 00082124     libeay32:obj_dat.obj
 0002:0001a12c       ??_C@_07JBBCHLPC@rc5?9cfb?$AA@ 0008212c     libeay32:obj_dat.obj
 0002:0001a134       ??_C@_07KKCCONEE@RC5?9CFB?$AA@ 00082134     libeay32:obj_dat.obj
 0002:0001a13c       ??_C@_07LCLCOGMF@rc5?9ecb?$AA@ 0008213c     libeay32:obj_dat.obj
 0002:0001a144       ??_C@_07IJICHAHD@RC5?9ECB?$AA@ 00082144     libeay32:obj_dat.obj
 0002:0001a14c       ??_C@_07IPAAOCGP@rc5?9cbc?$AA@ 0008214c     libeay32:obj_dat.obj
 0002:0001a154       ??_C@_07LEDAHENJ@RC5?9CBC?$AA@ 00082154     libeay32:obj_dat.obj
 0002:0001a15c       ??_C@_0BB@DCJDAKFH@ripemd160WithRSA?$AA@ 0008215c     libeay32:obj_dat.obj
 0002:0001a170       ??_C@_0O@JPOIHGOH@RSA?9RIPEMD160?$AA@ 00082170     libeay32:obj_dat.obj
 0002:0001a180       ??_C@_09EDIPKBN@ripemd160?$AA@ 00082180     libeay32:obj_dat.obj
 0002:0001a18c       ??_C@_09DJDCAKJG@RIPEMD160?$AA@ 0008218c     libeay32:obj_dat.obj
 0002:0001a198       ??_C@_0O@GMANLAEO@dsaEncryption?$AA@ 00082198     libeay32:obj_dat.obj
 0002:0001a1a8       ??_C@_0M@KECGAPAA@sha1WithRSA?$AA@ 000821a8     libeay32:obj_dat.obj
 0002:0001a1b4       ??_C@_0L@EMMEGDKK@RSA?9SHA1?92?$AA@ 000821b4     libeay32:obj_dat.obj
 0002:0001a1c0       ??_C@_08GOLKFMKI@md5?9sha1?$AA@ 000821c0     libeay32:obj_dat.obj
 0002:0001a1cc       ??_C@_08EMIDHKIH@MD5?9SHA1?$AA@ 000821cc     libeay32:obj_dat.obj
 0002:0001a1d8       ??_C@_0M@EFJKPOPH@dsaWithSHA1?$AA@ 000821d8     libeay32:obj_dat.obj
 0002:0001a1e4       ??_C@_08IOHJAANG@DSA?9SHA1?$AA@ 000821e4     libeay32:obj_dat.obj
 0002:0001a1f0       ??_C@_0BG@JCFINJGL@pbeWithMD5AndCast5CBC?$AA@ 000821f0     libeay32:obj_dat.obj
 0002:0001a208       ??_C@_09ECHHPLBP@cast5?9ofb?$AA@ 00082208     libeay32:obj_dat.obj
 0002:0001a214       ??_C@_09LEOLOMNK@CAST5?9OFB?$AA@ 00082214     libeay32:obj_dat.obj
 0002:0001a220       ??_C@_09IKBEEKH@cast5?9cfb?$AA@ 00082220     libeay32:obj_dat.obj
 0002:0001a22c       ??_C@_09PODNFDGC@CAST5?9CFB?$AA@ 0008222c     libeay32:obj_dat.obj
 0002:0001a238       ??_C@_09CLABNJJA@cast5?9ecb?$AA@ 00082238     libeay32:obj_dat.obj
 0002:0001a244       ??_C@_09NNJNMOFF@CAST5?9ECB?$AA@ 00082244     libeay32:obj_dat.obj
 0002:0001a250       ??_C@_09BGLDNNDK@cast5?9cbc?$AA@ 00082250     libeay32:obj_dat.obj
 0002:0001a25c       ??_C@_09OACPMKPP@CAST5?9CBC?$AA@ 0008225c     libeay32:obj_dat.obj
 0002:0001a268       ??_C@_0M@PPJNHBMP@description?$AA@ 00082268     libeay32:obj_dat.obj
 0002:0001a274       ??_C@_05PHLGJONK@title?$AA@ 00082274     libeay32:obj_dat.obj
 0002:0001a27c       ??_C@_0N@OMOHFKCJ@serialNumber?$AA@ 0008227c     libeay32:obj_dat.obj
 0002:0001a28c       ??_C@_0L@CNDCBNIN@md5WithRSA?$AA@ 0008228c     libeay32:obj_dat.obj
 0002:0001a298       ??_C@_0L@NACEPNFC@RSA?9NP?9MD5?$AA@ 00082298     libeay32:obj_dat.obj
 0002:0001a2a4       ??_C@_0BP@EGHJGANM@X509v3?5CRL?5Distribution?5Points?$AA@ 000822a4     libeay32:obj_dat.obj
 0002:0001a2c4       ??_C@_0BG@CCHGOEBE@crlDistributionPoints?$AA@ 000822c4     libeay32:obj_dat.obj
 0002:0001a2dc       ??_C@_08PAKNLFON@initials?$AA@ 000822dc     libeay32:obj_dat.obj
 0002:0001a2e8       ??_C@_07LNKFHLHI@surname?$AA@ 000822e8     libeay32:obj_dat.obj
 0002:0001a2f0       ??_C@_02LONEIP@SN?$AA@     000822f0     libeay32:obj_dat.obj
 0002:0001a2f4       ??_C@_09GCBNJLNP@givenName?$AA@ 000822f4     libeay32:obj_dat.obj
 0002:0001a300       ??_C@_02BLJBNPCD@GN?$AA@   00082300     libeay32:obj_dat.obj
 0002:0001a304       ??_C@_0L@CHEFJHBP@rc2?940?9cbc?$AA@ 00082304     libeay32:obj_dat.obj
 0002:0001a310       ??_C@_0L@ODHPNGGE@RC2?940?9CBC?$AA@ 00082310     libeay32:obj_dat.obj
 0002:0001a31c       ??_C@_06GNNJIOGN@rc4?940?$AA@ 0008231c     libeay32:obj_dat.obj
 0002:0001a324       ??_C@_06KFMILCMH@RC4?940?$AA@ 00082324     libeay32:obj_dat.obj
 0002:0001a32c       ??_C@_0M@HGGNEPNN@mdc2WithRSA?$AA@ 0008232c     libeay32:obj_dat.obj
 0002:0001a338       ??_C@_08OMAMCKNL@RSA?9MDC2?$AA@ 00082338     libeay32:obj_dat.obj
 0002:0001a344       ??_C@_04ELNKPKEC@mdc2?$AA@ 00082344     libeay32:obj_dat.obj
 0002:0001a34c       ??_C@_04BCGEDMJI@MDC2?$AA@ 0008234c     libeay32:obj_dat.obj
 0002:0001a354       ??_C@_06OBJCCDFN@bf?9ofb?$AA@ 00082354     libeay32:obj_dat.obj
 0002:0001a35c       ??_C@_06CEHINCIL@BF?9OFB?$AA@ 0008235c     libeay32:obj_dat.obj
 0002:0001a364       ??_C@_06KLEEJMOF@bf?9cfb?$AA@ 00082364     libeay32:obj_dat.obj
 0002:0001a36c       ??_C@_06GOKOGNDD@BF?9CFB?$AA@ 0008236c     libeay32:obj_dat.obj
 0002:0001a374       ??_C@_06IIOEABNC@bf?9ecb?$AA@ 00082374     libeay32:obj_dat.obj
 0002:0001a37c       ??_C@_06ENAOPAAE@BF?9ECB?$AA@ 0008237c     libeay32:obj_dat.obj
 0002:0001a384       ??_C@_06LFFGAFHI@bf?9cbc?$AA@ 00082384     libeay32:obj_dat.obj
 0002:0001a38c       ??_C@_06HALMPEKO@BF?9CBC?$AA@ 0008238c     libeay32:obj_dat.obj
 0002:0001a394       ??_C@_0CA@GODCHEHD@X509v3?5Authority?5Key?5Identifier?$AA@ 00082394     libeay32:obj_dat.obj
 0002:0001a3b4       ??_C@_0BH@ICHFALGD@authorityKeyIdentifier?$AA@ 000823b4     libeay32:obj_dat.obj
 0002:0001a3cc       ??_C@_0BM@OOFGKLPK@X509v3?5Certificate?5Policies?$AA@ 000823cc     libeay32:obj_dat.obj
 0002:0001a3e8       ??_C@_0BE@OLMJNPEP@certificatePolicies?$AA@ 000823e8     libeay32:obj_dat.obj
 0002:0001a3fc       ??_C@_0BC@PCPNBDDJ@X509v3?5CRL?5Number?$AA@ 000823fc     libeay32:obj_dat.obj
 0002:0001a410       ??_C@_09JDPHHKMA@crlNumber?$AA@ 00082410     libeay32:obj_dat.obj
 0002:0001a41c       ??_C@_0BJ@FBHDAJML@X509v3?5Basic?5Constraints?$AA@ 0008241c     libeay32:obj_dat.obj
 0002:0001a438       ??_C@_0BB@IKNGJCLO@basicConstraints?$AA@ 00082438     libeay32:obj_dat.obj
 0002:0001a44c       ??_C@_0BP@FMJCGPCG@X509v3?5Issuer?5Alternative?5Name?$AA@ 0008244c     libeay32:obj_dat.obj
 0002:0001a46c       ??_C@_0O@DLIFHFCD@issuerAltName?$AA@ 0008246c     libeay32:obj_dat.obj
 0002:0001a47c       ??_C@_0CA@OPCJJLNF@X509v3?5Subject?5Alternative?5Name?$AA@ 0008247c     libeay32:obj_dat.obj
 0002:0001a49c       ??_C@_0P@EOFJHHKD@subjectAltName?$AA@ 0008249c     libeay32:obj_dat.obj
 0002:0001a4ac       ??_C@_0CA@CLGHAMIP@X509v3?5Private?5Key?5Usage?5Period?$AA@ 000824ac     libeay32:obj_dat.obj
 0002:0001a4cc       ??_C@_0BG@JOIAJOMN@privateKeyUsagePeriod?$AA@ 000824cc     libeay32:obj_dat.obj
 0002:0001a4e4       ??_C@_0BB@BPPOKNBO@X509v3?5Key?5Usage?$AA@ 000824e4     libeay32:obj_dat.obj
 0002:0001a4f8       ??_C@_08BCICBOHF@keyUsage?$AA@ 000824f8     libeay32:obj_dat.obj
 0002:0001a504       ??_C@_0BO@ILPNOINJ@X509v3?5Subject?5Key?5Identifier?$AA@ 00082504     libeay32:obj_dat.obj
 0002:0001a524       ??_C@_0BF@MOEDIMBI@subjectKeyIdentifier?$AA@ 00082524     libeay32:obj_dat.obj
 0002:0001a53c       ??_C@_05NDHEMDL@id?9ce?$AA@ 0008253c     libeay32:obj_dat.obj
 0002:0001a544       ??_C@_08KPMCEEEO@desx?9cbc?$AA@ 00082544     libeay32:obj_dat.obj
 0002:0001a550       ??_C@_08BBKPFFGN@DESX?9CBC?$AA@ 00082550     libeay32:obj_dat.obj
 0002:0001a55c       ??_C@_0BO@KKKBMKBD@Netscape?5Certificate?5Sequence?$AA@ 0008255c     libeay32:obj_dat.obj
 0002:0001a57c       ??_C@_0P@OCCBBJKK@nsCertSequence?$AA@ 0008257c     libeay32:obj_dat.obj
 0002:0001a58c       ??_C@_0BB@DCFBGIOA@Netscape?5Comment?$AA@ 0008258c     libeay32:obj_dat.obj
 0002:0001a5a0       ??_C@_09BALDFHMJ@nsComment?$AA@ 000825a0     libeay32:obj_dat.obj
 0002:0001a5ac       ??_C@_0BJ@GMBLEMAL@Netscape?5SSL?5Server?5Name?$AA@ 000825ac     libeay32:obj_dat.obj
 0002:0001a5c8       ??_C@_0BA@KNOKNJNE@nsSslServerName?$AA@ 000825c8     libeay32:obj_dat.obj
 0002:0001a5d8       ??_C@_0BH@EMEFHLC@Netscape?5CA?5Policy?5Url?$AA@ 000825d8     libeay32:obj_dat.obj
 0002:0001a5f0       ??_C@_0O@DHDIMJD@nsCaPolicyUrl?$AA@ 000825f0     libeay32:obj_dat.obj
 0002:0001a600       ??_C@_0BF@FKENIIHB@Netscape?5Renewal?5Url?$AA@ 00082600     libeay32:obj_dat.obj
 0002:0001a618       ??_C@_0N@JILHKMLM@nsRenewalUrl?$AA@ 00082618     libeay32:obj_dat.obj
 0002:0001a628       ??_C@_0BL@EMOMOFDB@Netscape?5CA?5Revocation?5Url?$AA@ 00082628     libeay32:obj_dat.obj
 0002:0001a644       ??_C@_0BC@IKAPCMGG@nsCaRevocationUrl?$AA@ 00082644     libeay32:obj_dat.obj
 0002:0001a658       ??_C@_0BI@BCDINENC@Netscape?5Revocation?5Url?$AA@ 00082658     libeay32:obj_dat.obj
 0002:0001a670       ??_C@_0BA@DKPGPAKK@nsRevocationUrl?$AA@ 00082670     libeay32:obj_dat.obj
 0002:0001a680       ??_C@_0BC@DIHCABP@Netscape?5Base?5Url?$AA@ 00082680     libeay32:obj_dat.obj
 0002:0001a694       ??_C@_09OCIGDOMM@nsBaseUrl?$AA@ 00082694     libeay32:obj_dat.obj
 0002:0001a6a0       ??_C@_0BD@NFPBEMEE@Netscape?5Cert?5Type?$AA@ 000826a0     libeay32:obj_dat.obj
 0002:0001a6b4       ??_C@_0L@IICLKDNB@nsCertType?$AA@ 000826b4     libeay32:obj_dat.obj
 0002:0001a6c0       ??_C@_0BA@DDLLDHEM@dsaWithSHA1?9old?$AA@ 000826c0     libeay32:obj_dat.obj
 0002:0001a6d0       ??_C@_0N@ONIKBKNK@DSA?9SHA1?9old?$AA@ 000826d0     libeay32:obj_dat.obj
 0002:0001a6e0       ??_C@_06KBOEGBGA@PBKDF2?$AA@ 000826e0     libeay32:obj_dat.obj
 0002:0001a6e8       ??_C@_0BG@IBNNJING@pbeWithSHA1AndRC2?9CBC?$AA@ 000826e8     libeay32:obj_dat.obj
 0002:0001a700       ??_C@_0BA@KKPEMNGH@PBE?9SHA1?9RC2?964?$AA@ 00082700     libeay32:obj_dat.obj
 0002:0001a710       ??_C@_0BC@FFHHBCCH@dsaEncryption?9old?$AA@ 00082710     libeay32:obj_dat.obj
 0002:0001a724       ??_C@_07PLHLFGGF@DSA?9old?$AA@ 00082724     libeay32:obj_dat.obj
 0002:0001a72c       ??_C@_0L@BEHMICBH@dsaWithSHA?$AA@ 0008272c     libeay32:obj_dat.obj
 0002:0001a738       ??_C@_07JGDBCPKH@DSA?9SHA?$AA@ 00082738     libeay32:obj_dat.obj
 0002:0001a740       ??_C@_0BG@DALFFFBE@sha1WithRSAEncryption?$AA@ 00082740     libeay32:obj_dat.obj
 0002:0001a758       ??_C@_08FBKDDLCN@RSA?9SHA1?$AA@ 00082758     libeay32:obj_dat.obj
 0002:0001a764       ??_C@_04PGHFOLLE@sha1?$AA@ 00082764     libeay32:obj_dat.obj
 0002:0001a76c       ??_C@_04KPMLCNGO@SHA1?$AA@ 0008276c     libeay32:obj_dat.obj
 0002:0001a774       ??_C@_0N@LODGAID@des?9ede3?9ofb?$AA@ 00082774     libeay32:obj_dat.obj
 0002:0001a784       ??_C@_0N@JPPBGLEM@DES?9EDE3?9OFB?$AA@ 00082784     libeay32:obj_dat.obj
 0002:0001a794       ??_C@_0M@BOHDOFGF@des?9ede?9ofb?$AA@ 00082794     libeay32:obj_dat.obj
 0002:0001a7a0       ??_C@_0M@PDBPCBBK@DES?9EDE?9OFB?$AA@ 000827a0     libeay32:obj_dat.obj
 0002:0001a7ac       ??_C@_0N@EBDFNPDL@des?9ede3?9cfb?$AA@ 000827ac     libeay32:obj_dat.obj
 0002:0001a7bc       ??_C@_0N@NFCHNEPE@DES?9EDE3?9CFB?$AA@ 000827bc     libeay32:obj_dat.obj
 0002:0001a7cc       ??_C@_0M@FEKFFKNN@des?9ede?9cfb?$AA@ 000827cc     libeay32:obj_dat.obj
 0002:0001a7d8       ??_C@_0M@LJMJJOKC@DES?9EDE?9CFB?$AA@ 000827d8     libeay32:obj_dat.obj
 0002:0001a7e4       ??_C@_0BD@JJEILMNP@Netscape?5Data?5Type?$AA@ 000827e4     libeay32:obj_dat.obj
 0002:0001a7f8       ??_C@_0L@FIMLGGPA@nsDataType?$AA@ 000827f8     libeay32:obj_dat.obj
 0002:0001a804       ??_C@_0BP@LHPGKGFM@Netscape?5Certificate?5Extension?$AA@ 00082804     libeay32:obj_dat.obj
 0002:0001a824       ??_C@_09JDCKDNMG@nsCertExt?$AA@ 00082824     libeay32:obj_dat.obj
 0002:0001a830       ??_C@_0BO@IAIBEBGO@Netscape?5Communications?5Corp?4?$AA@ 00082830     libeay32:obj_dat.obj
 0002:0001a850       ??_C@_08BDEPHMAF@Netscape?$AA@ 00082850     libeay32:obj_dat.obj
 0002:0001a85c       ??_C@_0BO@LDCCNBPE@extendedCertificateAttributes?$AA@ 0008285c     libeay32:obj_dat.obj
 0002:0001a87c       ??_C@_0BE@MACPCAPF@unstructuredAddress?$AA@ 0008287c     libeay32:obj_dat.obj
 0002:0001a890       ??_C@_0BC@OKHONEEM@challengePassword?$AA@ 00082890     libeay32:obj_dat.obj
 0002:0001a8a4       ??_C@_0BB@IPFGMODP@countersignature?$AA@ 000828a4     libeay32:obj_dat.obj
 0002:0001a8b8       ??_C@_0M@IJBJCCMP@signingTime?$AA@ 000828b8     libeay32:obj_dat.obj
 0002:0001a8c4       ??_C@_0O@JDGJDGC@messageDigest?$AA@ 000828c4     libeay32:obj_dat.obj
 0002:0001a8d4       ??_C@_0M@DOEFOEJD@contentType?$AA@ 000828d4     libeay32:obj_dat.obj
 0002:0001a8e0       ??_C@_0BB@CJIILOEM@unstructuredName?$AA@ 000828e0     libeay32:obj_dat.obj
 0002:0001a8f4       ??_C@_0N@IHLBAGEP@emailAddress?$AA@ 000828f4     libeay32:obj_dat.obj
 0002:0001a904       ??_C@_05NKFNBGJP@pkcs9?$AA@ 00082904     libeay32:obj_dat.obj
 0002:0001a90c       ??_C@_08OGDEHPAF@idea?9ofb?$AA@ 0008290c     libeay32:obj_dat.obj
 0002:0001a918       ??_C@_08FIFJGOCG@IDEA?9OFB?$AA@ 00082918     libeay32:obj_dat.obj
 0002:0001a924       ??_C@_07NLMBCAKN@des?9ofb?$AA@ 00082924     libeay32:obj_dat.obj
 0002:0001a92c       ??_C@_07OHFNLDCN@DES?9OFB?$AA@ 0008292c     libeay32:obj_dat.obj
 0002:0001a934       ??_C@_0N@FPCHEGKG@des?9ede3?9cbc?$AA@ 00082934     libeay32:obj_dat.obj
 0002:0001a944       ??_C@_0N@MLDFENGJ@DES?9EDE3?9CBC?$AA@ 00082944     libeay32:obj_dat.obj
 0002:0001a954       ??_C@_0M@EKLHMDEA@des?9ede?9cbc?$AA@ 00082954     libeay32:obj_dat.obj
 0002:0001a960       ??_C@_0M@KHNLAHDP@DES?9EDE?9CBC?$AA@ 00082960     libeay32:obj_dat.obj
 0002:0001a96c       ??_C@_0BF@LIDINENF@shaWithRSAEncryption?$AA@ 0008296c     libeay32:obj_dat.obj
 0002:0001a984       ??_C@_07CMOFBHAL@RSA?9SHA?$AA@ 00082984     libeay32:obj_dat.obj
 0002:0001a98c       ??_C@_03JNBDOPOP@sha?$AA@  0008298c     libeay32:obj_dat.obj
 0002:0001a990       ??_C@_03JAOICCJD@SHA?$AA@  00082990     libeay32:obj_dat.obj
 0002:0001a994       ??_C@_07MGMBPEPC@rc2?9ofb?$AA@ 00082994     libeay32:obj_dat.obj
 0002:0001a99c       ??_C@_07PNPBGCEE@RC2?9OFB?$AA@ 0008299c     libeay32:obj_dat.obj
 0002:0001a9a4       ??_C@_07IMBHELEK@rc2?9cfb?$AA@ 000829a4     libeay32:obj_dat.obj
 0002:0001a9ac       ??_C@_07LHCHNNPM@RC2?9CFB?$AA@ 000829ac     libeay32:obj_dat.obj
 0002:0001a9b4       ??_C@_07KPLHNGHN@rc2?9ecb?$AA@ 000829b4     libeay32:obj_dat.obj
 0002:0001a9bc       ??_C@_07JEIHEAML@RC2?9ECB?$AA@ 000829bc     libeay32:obj_dat.obj
 0002:0001a9c4       ??_C@_07JCAFNCNH@rc2?9cbc?$AA@ 000829c4     libeay32:obj_dat.obj
 0002:0001a9cc       ??_C@_07KJDFEEGB@RC2?9CBC?$AA@ 000829cc     libeay32:obj_dat.obj
 0002:0001a9d4       ??_C@_08IPECFNIK@idea?9ecb?$AA@ 000829d4     libeay32:obj_dat.obj
 0002:0001a9e0       ??_C@_08DBCPEMKJ@IDEA?9ECB?$AA@ 000829e0     libeay32:obj_dat.obj
 0002:0001a9ec       ??_C@_08KMOCMALN@idea?9cfb?$AA@ 000829ec     libeay32:obj_dat.obj
 0002:0001a9f8       ??_C@_08BCIPNBJO@IDEA?9CFB?$AA@ 000829f8     libeay32:obj_dat.obj
 0002:0001aa04       ??_C@_08LCPAFJCA@idea?9cbc?$AA@ 00082a04     libeay32:obj_dat.obj
 0002:0001aa10       ??_C@_08MJNEIAD@IDEA?9CBC?$AA@ 00082a10     libeay32:obj_dat.obj
 0002:0001aa1c       ??_C@_08LJCBLNOK@des?9ede3?$AA@ 00082a1c     libeay32:obj_dat.obj
 0002:0001aa28       ??_C@_08FEKFKCFJ@DES?9EDE3?$AA@ 00082a28     libeay32:obj_dat.obj
 0002:0001aa34       ??_C@_07PILJICGA@des?9ede?$AA@ 00082a34     libeay32:obj_dat.obj
 0002:0001aa3c       ??_C@_07MECFBBOA@DES?9EDE?$AA@ 00082a3c     libeay32:obj_dat.obj
 0002:0001aa44       ??_C@_07IPAFAGII@des?9cbc?$AA@ 00082a44     libeay32:obj_dat.obj
 0002:0001aa4c       ??_C@_07LDJJJFAI@DES?9CBC?$AA@ 00082a4c     libeay32:obj_dat.obj
 0002:0001aa54       ??_C@_07JBBHJPBF@des?9cfb?$AA@ 00082a54     libeay32:obj_dat.obj
 0002:0001aa5c       ??_C@_07KNILAMJF@DES?9CFB?$AA@ 00082a5c     libeay32:obj_dat.obj
 0002:0001aa64       ??_C@_07LCLHACCC@des?9ecb?$AA@ 00082a64     libeay32:obj_dat.obj
 0002:0001aa6c       ??_C@_07IOCLJBKC@DES?9ECB?$AA@ 00082a6c     libeay32:obj_dat.obj
 0002:0001aa74       ??_C@_0P@HCMIBBEB@dhKeyAgreement?$AA@ 00082a74     libeay32:obj_dat.obj
 0002:0001aa84       ??_C@_05CALCPOBF@pkcs3?$AA@ 00082a84     libeay32:obj_dat.obj
 0002:0001aa8c       ??_C@_0BE@CAMKAFJN@pkcs7?9encryptedData?$AA@ 00082a8c     libeay32:obj_dat.obj
 0002:0001aaa0       ??_C@_0BB@CJNFBHDI@pkcs7?9digestData?$AA@ 00082aa0     libeay32:obj_dat.obj
 0002:0001aab4       ??_C@_0BN@LMEEMCPG@pkcs7?9signedAndEnvelopedData?$AA@ 00082ab4     libeay32:obj_dat.obj
 0002:0001aad4       ??_C@_0BE@FAIIHMP@pkcs7?9envelopedData?$AA@ 00082ad4     libeay32:obj_dat.obj
 0002:0001aae8       ??_C@_0BB@PEKKHBEJ@pkcs7?9signedData?$AA@ 00082ae8     libeay32:obj_dat.obj
 0002:0001aafc       ??_C@_0L@BCKMJOMA@pkcs7?9data?$AA@ 00082afc     libeay32:obj_dat.obj
 0002:0001ab08       ??_C@_05EENODLBB@pkcs7?$AA@ 00082b08     libeay32:obj_dat.obj
 0002:0001ab10       ??_C@_03DICHAJGH@RSA?$AA@  00082b10     libeay32:obj_dat.obj
 0002:0001ab14       ??_C@_0BH@LAMMAAM@organizationalUnitName?$AA@ 00082b14     libeay32:obj_dat.obj
 0002:0001ab2c       ??_C@_02LMLEEFAB@OU?$AA@   00082b2c     libeay32:obj_dat.obj
 0002:0001ab30       ??_C@_0BB@GBCNPHLL@organizationName?$AA@ 00082b30     libeay32:obj_dat.obj
 0002:0001ab44       ??_C@_01MJMHLOMK@O?$AA@    00082b44     libeay32:obj_dat.obj
 0002:0001ab48       ??_C@_0BE@NKDCJFMD@stateOrProvinceName?$AA@ 00082b48     libeay32:obj_dat.obj
 0002:0001ab5c       ??_C@_02LAJDCOFE@ST?$AA@   00082b5c     libeay32:obj_dat.obj
 0002:0001ab60       ??_C@_0N@LEDCGGBI@localityName?$AA@ 00082b60     libeay32:obj_dat.obj
 0002:0001ab70       ??_C@_01OCOKONAJ@L?$AA@    00082b70     libeay32:obj_dat.obj
 0002:0001ab74       ??_C@_0M@NPBHECMC@countryName?$AA@ 00082b74     libeay32:obj_dat.obj
 0002:0001ab80       ??_C@_01GFHCPBMG@C?$AA@    00082b80     libeay32:obj_dat.obj
 0002:0001ab84       ??_C@_0L@OILMNBLH@commonName?$AA@ 00082b84     libeay32:obj_dat.obj
 0002:0001ab90       ??_C@_02BMJIHHPP@CN?$AA@   00082b90     libeay32:obj_dat.obj
 0002:0001ab94       ??_C@_04NMKEOMFB@X509?$AA@ 00082b94     libeay32:obj_dat.obj
 0002:0001ab9c       ??_C@_0BL@NJHHPHOL@directory?5services?5?$CIX?4500?$CJ?$AA@ 00082b9c     libeay32:obj_dat.obj
 0002:0001abb8       ??_C@_04NGGFHBI@X500?$AA@  00082bb8     libeay32:obj_dat.obj
 0002:0001abc0       ??_C@_0BF@DAJHPIMK@pbeWithMD5AndDES?9CBC?$AA@ 00082bc0     libeay32:obj_dat.obj
 0002:0001abd8       ??_C@_0M@KBNDBPIJ@PBE?9MD5?9DES?$AA@ 00082bd8     libeay32:obj_dat.obj
 0002:0001abe4       ??_C@_0BF@EEAPBBEF@pbeWithMD2AndDES?9CBC?$AA@ 00082be4     libeay32:obj_dat.obj
 0002:0001abfc       ??_C@_0M@LMNGCPDB@PBE?9MD2?9DES?$AA@ 00082bfc     libeay32:obj_dat.obj
 0002:0001ac08       ??_C@_0BF@EEAHCNKC@md5WithRSAEncryption?$AA@ 00082c08     libeay32:obj_dat.obj
 0002:0001ac20       ??_C@_07NOGKHCDB@RSA?9MD5?$AA@ 00082c20     libeay32:obj_dat.obj
 0002:0001ac28       ??_C@_0BF@ODJKGOJ@md2WithRSAEncryption?$AA@ 00082c28     libeay32:obj_dat.obj
 0002:0001ac40       ??_C@_07JBCLOEPG@RSA?9MD2?$AA@ 00082c40     libeay32:obj_dat.obj
 0002:0001ac48       ??_C@_0O@PCHNMHJE@rsaEncryption?$AA@ 00082c48     libeay32:obj_dat.obj
 0002:0001ac58       ??_C@_03OODGMOHK@rc4?$AA@  00082c58     libeay32:obj_dat.obj
 0002:0001ac5c       ??_C@_03HGEJCHKE@RC4?$AA@  00082c5c     libeay32:obj_dat.obj
 0002:0001ac60       ??_C@_03PKBIKOHH@md5?$AA@  00082c60     libeay32:obj_dat.obj
 0002:0001ac64       ??_C@_03GCGHEHKJ@MD5?$AA@  00082c64     libeay32:obj_dat.obj
 0002:0001ac68       ??_C@_03LFFJDILA@md2?$AA@  00082c68     libeay32:obj_dat.obj
 0002:0001ac6c       ??_C@_03CNCGNBGO@MD2?$AA@  00082c6c     libeay32:obj_dat.obj
 0002:0001ac70       ??_C@_0BN@EBHJCEC@RSA?5Data?5Security?0?5Inc?4?5PKCS?$AA@ 00082c70     libeay32:obj_dat.obj
 0002:0001ac90       ??_C@_04GCKLMHGD@pkcs?$AA@ 00082c90     libeay32:obj_dat.obj
 0002:0001ac98       ??_C@_0BI@MPBNCOIB@RSA?5Data?5Security?0?5Inc?4?$AA@ 00082c98     libeay32:obj_dat.obj
 0002:0001acb0       ??_C@_06GGEMKGKC@rsadsi?$AA@ 00082cb0     libeay32:obj_dat.obj
 0002:0001acb8       ??_C@_09MLGAJAED@undefined?$AA@ 00082cb8     libeay32:obj_dat.obj
 0002:0001acc4       ??_C@_05DBLJEJPC@UNDEF?$AA@ 00082cc4     libeay32:obj_dat.obj
 0002:0001acd0       ??_C@_0FB@EJHIDBFI@d?3?2wm653wehh?2platform?2mvv210?2src@ 00082cd0     libeay32:obj_dat.obj
 0002:0001ad24       ??_C@_04MDEFHJHM@?4?$CFlu?$AA@ 00082d24     libeay32:obj_dat.obj
 0002:0001ad30       ??_C@_0EL@CLIEFBLC@d?3?2wm653wehh?2platform?2mvv210?2src@ 00082d30     libeay32:bn_mod.obj
 0002:0001ad80       ??_C@_0EL@EPOPJPNF@d?3?2wm653wehh?2platform?2mvv210?2src@ 00082d80     libeay32:bn_gcd.obj
 0002:0001add0       ??_C@_0EM@LBEFNFCH@d?3?2wm653wehh?2platform?2mvv210?2src@ 00082dd0     libeay32:bn_exp2.obj
 0002:0001ae20       ??_C@_0FA@DONMMNBK@d?3?2wm653wehh?2platform?2mvv210?2src@ 00082e20     libeay32:eng_lib.obj
 0002:0001ae70       ??_C@_0FC@LCBCBJII@d?3?2wm653wehh?2platform?2mvv210?2src@ 00082e70     libeay32:eng_table.obj
 0002:0001aec8       ??_C@_0EP@PHBFPCHC@d?3?2wm653wehh?2platform?2mvv210?2src@ 00082ec8     libeay32:tasn_new.obj
 0002:0001af18       ??_C@_0BC@MGHKLCAP@OpenSSL?5DH?5Method?$AA@ 00082f18     libeay32:dh_key.obj
 0002:0001af30       ??_C@_0EL@KHODDKOC@d?3?2wm653wehh?2platform?2mvv210?2src@ 00082f30     libeay32:dh_key.obj
 0002:0001af80       ??_C@_0EM@IJKLDGFG@d?3?2wm653wehh?2platform?2mvv210?2src@ 00082f80     libeay32:a_int.obj
 0002:0001afd0       ??_C@_0EP@EOLMKMCC@d?3?2wm653wehh?2platform?2mvv210?2src@ 00082fd0     libeay32:a_object.obj
 0002:0001b020       ??_C@_09OJNEAJGG@?$DMINVALID?$DO?$AA@ 00083020     libeay32:a_object.obj
 0002:0001b030       ??_C@_0EP@PHFMEFHI@d?3?2wm653wehh?2platform?2mvv210?2src@ 00083030     libeay32:a_bitstr.obj
 0002:0001b080       ??_C@_0EP@DLKDJLKC@d?3?2wm653wehh?2platform?2mvv210?2src@ 00083080     libeay32:buffer.obj
 0002:0001b0d0       ??_C@_0EP@EEJMGOIG@d?3?2wm653wehh?2platform?2mvv210?2src@ 000830d0     libeay32:tasn_utl.obj
 0002:0001b120       ??_C@_0EM@LKCJBLMG@d?3?2wm653wehh?2platform?2mvv210?2src@ 00083120     libeay32:bn_recp.obj
 0002:0001b16c       RSA_version                0008316c     libeay32:rsa_lib.obj
 0002:0001b198       ??_C@_0EN@MLDILJPH@d?3?2wm653wehh?2platform?2mvv210?2src@ 00083198     libeay32:rsa_lib.obj
 0002:0001b1e8       ??_C@_0EL@FFHGPJNM@d?3?2wm653wehh?2platform?2mvv210?2src@ 000831e8     libeay32:ec_key.obj
 0002:0001b2bc       ??_C@_06IEOJBDIK@object?$AA@ 000832bc     libeay32:x_attrib.obj
 0002:0001b2c4       ??_C@_0P@IBKNNFL@X509_ATTRIBUTE?$AA@ 000832c4     libeay32:x_attrib.obj
 0002:0001b2d4       ??_C@_0N@MCAEPLPL@value?4single?$AA@ 000832d4     libeay32:x_attrib.obj
 0002:0001b2e4       ??_C@_09MPCDAIAO@value?4set?$AA@ 000832e4     libeay32:x_attrib.obj
 0002:0001b2f0       ??_C@_0EP@HIMPJABG@d?3?2wm653wehh?2platform?2mvv210?2src@ 000832f0     libeay32:pmeth_lib.obj
 0002:0001b340       ??_C@_06IJPNAHC@digest?$AA@ 00083340     libeay32:pmeth_lib.obj
 0002:0001b348       ??_C@_0FC@GLILKHMO@d?3?2wm653wehh?2platform?2mvv210?2src@ 00083348     libeay32:tb_digest.obj
 0002:0001b3a0       ??_C@_0EN@HNCBNDLA@d?3?2wm653wehh?2platform?2mvv210?2src@ 000833a0     libeay32:evp_lib.obj
 0002:0001b3f0       ??_C@_0BD@LHHAEAAJ@l?5?$DM?$DN?5sizeof?$CIc?9?$DOiv?$CJ?$AA@ 000833f0     libeay32:evp_lib.obj
 0002:0001b404       ??_C@_0BD@CKKMELBK@j?5?$DM?$DN?5sizeof?$CIc?9?$DOiv?$CJ?$AA@ 00083404     libeay32:evp_lib.obj
 0002:0001b418       ??_C@_0EO@NHOCECJL@d?3?2wm653wehh?2platform?2mvv210?2src@ 00083418     libeay32:rsa_sign.obj
 0002:0001b468       ??_C@_0DF@DGNAAHIE@signature?5has?5problems?0?5re?9make?5@ 00083468     libeay32:rsa_sign.obj
 0002:0001b4a0       SHA1_version               000834a0     libeay32:sha1dgst.obj
 0002:0001b4c8       SHA256_version             000834c8     libeay32:sha256.obj
 0002:0001b5f8       SHA512_version             000835f8     libeay32:sha512.obj
 0002:0001b8a8       ??_C@_0FB@OACJPALH@d?3?2wm653wehh?2platform?2mvv210?2src@ 000838a8     libeay32:obj_lib.obj
 0002:0001b910       ??_C@_0EN@HOIICIBH@d?3?2wm653wehh?2platform?2mvv210?2src@ 00083910     libeay32:bn_print.obj
 0002:0001b960       ??_C@_04LJCFADJL@?$CF09u?$AA@ 00083960     libeay32:bn_print.obj
 0002:0001b968       ??_C@_02GMHACPFF@?$CFu?$AA@ 00083968     libeay32:bn_print.obj
 0002:0001b96c       ??_C@_01JOAMLHOP@?9?$AA@   0008396c     libeay32:bn_print.obj
 0002:0001b970       ??_C@_0FC@BNEDDMOL@d?3?2wm653wehh?2platform?2mvv210?2src@ 00083970     libeay32:tb_asnmth.obj
 0002:0001b9c8       ??_C@_0FC@NEBNNILH@d?3?2wm653wehh?2platform?2mvv210?2src@ 000839c8     libeay32:tb_pkmeth.obj
 0002:0001ba1c       ??_C@_0BI@NFPKAKEA@Eric?5Young?8s?5PKCS?$CD1?5RSA?$AA@ 00083a1c     libeay32:rsa_eay.obj
 0002:0001ba38       ??_C@_0EN@FLFPHDGA@d?3?2wm653wehh?2platform?2mvv210?2src@ 00083a38     libeay32:rsa_eay.obj
 0002:0001ba90       ??_C@_0EN@CHOOKOEN@d?3?2wm653wehh?2platform?2mvv210?2src@ 00083a90     libeay32:bn_blind.obj
 0002:0001bb08       ??_C@_0EL@KJLPEPL@d?3?2wm653wehh?2platform?2mvv210?2src@ 00083b08     libeay32:ec_lib.obj
 0002:0001efd0       ??_C@_0HB@IIAMGFOE@?6?7IPSec?1IKE?1Oakley?5curve?5?$CD4?5over@ 00086fd0     libeay32:ec_curve.obj
 0002:0001f048       ??_C@_0HB@LGGCBEEP@?6?7IPSec?1IKE?1Oakley?5curve?5?$CD3?5over@ 00087048     libeay32:ec_curve.obj
 0002:0001f0bc       ??_C@_0CG@MLNHEHNL@WTLS?5curvs?5over?5a?5224?5bit?5prime?5@ 000870bc     libeay32:ec_curve.obj
 0002:0001f0e4       ??_C@_0CG@JBBHINGJ@WTLS?5curve?5over?5a?5160?5bit?5prime?5@ 000870e4     libeay32:ec_curve.obj
 0002:0001f10c       ??_C@_0CG@NOPNGNKB@WTLS?5curve?5over?5a?5112?5bit?5prime?5@ 0008710c     libeay32:ec_curve.obj
 0002:0001f134       ??_C@_0CH@PAECJHG@WTLS?5curve?5over?5a?5113?5bit?5binary@ 00087134     libeay32:ec_curve.obj
 0002:0001f15c       ??_C@_0CI@PHOKEIPD@X9?462?5curve?5over?5a?5431?5bit?5binar@ 0008715c     libeay32:ec_curve.obj
 0002:0001f184       ??_C@_0CI@GLMEIDGJ@X9?462?5curve?5over?5a?5368?5bit?5binar@ 00087184     libeay32:ec_curve.obj
 0002:0001f1ac       ??_C@_0CI@BDIPEOPL@X9?462?5curve?5over?5a?5359?5bit?5binar@ 000871ac     libeay32:ec_curve.obj
 0002:0001f1d4       ??_C@_0CI@PCOAONL@X9?462?5curve?5over?5a?5304?5bit?5binar@ 000871d4     libeay32:ec_curve.obj
 0002:0001f1fc       ??_C@_0CI@OMGMCAMF@X9?462?5curve?5over?5a?5272?5bit?5binar@ 000871fc     libeay32:ec_curve.obj
 0002:0001f224       ??_C@_0CI@IHGFALA@X9?462?5curve?5over?5a?5239?5bit?5binar@ 00087224     libeay32:ec_curve.obj
 0002:0001f24c       ??_C@_0CI@HADNJNCC@X9?462?5curve?5over?5a?5208?5bit?5binar@ 0008724c     libeay32:ec_curve.obj
 0002:0001f274       ??_C@_0CI@CNNMGPOI@X9?462?5curve?5over?5a?5191?5bit?5binar@ 00087274     libeay32:ec_curve.obj
 0002:0001f29c       ??_C@_0CI@HOBKKPME@X9?462?5curve?5over?5a?5176?5bit?5binar@ 0008729c     libeay32:ec_curve.obj
 0002:0001f2c4       ??_C@_0CI@CFPHBJDI@X9?462?5curve?5over?5a?5163?5bit?5binar@ 000872c4     libeay32:ec_curve.obj
 0002:0001f2ec       ??_C@_0CM@EACJKLC@NIST?1SECG?5curve?5over?5a?5571?5bit?5b@ 000872ec     libeay32:ec_curve.obj
 0002:0001f318       ??_C@_0CM@HDDNKCDK@NIST?1SECG?5curve?5over?5a?5409?5bit?5b@ 00087318     libeay32:ec_curve.obj
 0002:0001f344       ??_C@_0CM@GFMOGKDK@NIST?1SECG?5curve?5over?5a?5283?5bit?5b@ 00087344     libeay32:ec_curve.obj
 0002:0001f370       ??_C@_0CH@CLCLBOGN@SECG?5curve?5over?5a?5239?5bit?5binary@ 00087370     libeay32:ec_curve.obj
 0002:0001f398       ??_C@_0DB@PNCPLOPN@NIST?1SECG?1WTLS?5curve?5over?5a?5233?5@ 00087398     libeay32:ec_curve.obj
 0002:0001f3cc       ??_C@_0CH@HKDFCHME@SECG?5curve?5over?5a?5193?5bit?5binary@ 000873cc     libeay32:ec_curve.obj
 0002:0001f3f4       ??_C@_0CM@HCIKDLO@NIST?1SECG?5curve?5over?5a?5163?5bit?5b@ 000873f4     libeay32:ec_curve.obj
 0002:0001f420       ??_C@_0CH@GKKFHOF@SECG?5curve?5over?5a?5163?5bit?5binary@ 00087420     libeay32:ec_curve.obj
 0002:0001f448       ??_C@_0DB@KNLLOMAB@NIST?1SECG?1WTLS?5curve?5over?5a?5163?5@ 00087448     libeay32:ec_curve.obj
 0002:0001f47c       ??_C@_0CH@FJJEIBAL@SECG?5curve?5over?5a?5131?5bit?5binary@ 0008747c     libeay32:ec_curve.obj
 0002:0001f4a4       ??_C@_0CM@EPOILLGK@SECG?1WTLS?5curve?5over?5a?5131?5bit?5b@ 000874a4     libeay32:ec_curve.obj
 0002:0001f4d0       ??_C@_0CH@OHOOPBHG@SECG?5curve?5over?5a?5113?5bit?5binary@ 000874d0     libeay32:ec_curve.obj
 0002:0001f4f8       ??_C@_0CM@IACJENLF@X9?462?1SECG?5curve?5over?5a?5256?5bit?5@ 000874f8     libeay32:ec_curve.obj
 0002:0001f524       ??_C@_0CH@COBCAEEE@X9?462?5curve?5over?5a?5239?5bit?5prime@ 00087524     libeay32:ec_curve.obj
 0002:0001f54c       ??_C@_0CH@BHJCBJE@X9?462?5curve?5over?5a?5192?5bit?5prime@ 0008754c     libeay32:ec_curve.obj
 0002:0001f574       ??_C@_0DB@HJIMEGJL@NIST?1X9?462?1SECG?5curve?5over?5a?5192@ 00087574     libeay32:ec_curve.obj
 0002:0001f5a8       ??_C@_0CL@NCEJLDDF@NIST?1SECG?5curve?5over?5a?5521?5bit?5p@ 000875a8     libeay32:ec_curve.obj
 0002:0001f5d4       ??_C@_0CL@MPIFFEHD@NIST?1SECG?5curve?5over?5a?5384?5bit?5p@ 000875d4     libeay32:ec_curve.obj
 0002:0001f600       ??_C@_0CG@MBJIMJMI@SECG?5curve?5over?5a?5256?5bit?5prime?5@ 00087600     libeay32:ec_curve.obj
 0002:0001f628       ??_C@_0CL@NHPHHEEB@NIST?1SECG?5curve?5over?5a?5224?5bit?5p@ 00087628     libeay32:ec_curve.obj
 0002:0001f654       ??_C@_0CG@IOHCCJAA@SECG?5curve?5over?5a?5224?5bit?5prime?5@ 00087654     libeay32:ec_curve.obj
 0002:0001f67c       ??_C@_0CG@IFFAEDGD@SECG?5curve?5over?5a?5192?5bit?5prime?5@ 0008767c     libeay32:ec_curve.obj
 0002:0001f6a4       ??_C@_0CL@NDOOJKPB@SECG?1WTLS?5curve?5over?5a?5160?5bit?5p@ 000876a4     libeay32:ec_curve.obj
 0002:0001f6d0       ??_C@_0CG@MDBLLOCO@SECG?5curve?5over?5a?5160?5bit?5prime?5@ 000876d0     libeay32:ec_curve.obj
 0002:0001f6f8       ??_C@_0CG@DNCCBNMA@SECG?5curve?5over?5a?5128?5bit?5prime?5@ 000876f8     libeay32:ec_curve.obj
 0002:0001f720       ??_C@_0CG@IMPBFOOG@SECG?5curve?5over?5a?5112?5bit?5prime?5@ 00087720     libeay32:ec_curve.obj
 0002:0001f748       ??_C@_0CL@JMAEHKDJ@SECG?1WTLS?5curve?5over?5a?5112?5bit?5p@ 00087748     libeay32:ec_curve.obj
 0002:0001f778       ??_C@_0EN@GGBLGKDN@d?3?2wm653wehh?2platform?2mvv210?2src@ 00087778     libeay32:ec_curve.obj
 0002:0001f7c8       cmac_asn1_meth             000877c8     libeay32:cm_ameth.obj
 0002:0001f834       ??_C@_0BE@GBIGMENL@OpenSSL?5CMAC?5method?$AA@ 00087834     libeay32:cm_ameth.obj
 0002:0001f848       hmac_asn1_meth             00087848     libeay32:hm_ameth.obj
 0002:0001f8b4       ??_C@_0BE@BABEGANF@OpenSSL?5HMAC?5method?$AA@ 000878b4     libeay32:hm_ameth.obj
 0002:0001f8c8       ??_C@_0EP@LPMJCFIA@d?3?2wm653wehh?2platform?2mvv210?2src@ 000878c8     libeay32:hm_ameth.obj
 0002:0001f918       eckey_asn1_meth            00087918     libeay32:ec_ameth.obj
 0002:0001f984       ??_C@_0BF@DKDIFOGG@OpenSSL?5EC?5algorithm?$AA@ 00087984     libeay32:ec_ameth.obj
 0002:0001f99c       ??_C@_02KNLLHFAA@EC?$AA@   0008799c     libeay32:ec_ameth.obj
 0002:0001f9a0       ??_C@_0EN@OGHGAGHH@d?3?2wm653wehh?2platform?2mvv210?2src@ 000879a0     libeay32:ec_ameth.obj
 0002:0001f9f0       ??_C@_05FJHKEHEO@pub?3?5?$AA@ 000879f0     libeay32:ec_ameth.obj
 0002:0001f9f8       ??_C@_05PFPGJCCA@priv?3?$AA@ 000879f8     libeay32:ec_ameth.obj
 0002:0001fa00       ??_C@_0O@OPPPNLCD@?$CFs?3?5?$CI?$CFd?5bit?$CJ?6?$AA@ 00087a00     libeay32:ec_ameth.obj
 0002:0001fa10       ??_C@_0BB@DMDKLH@ECDSA?9Parameters?$AA@ 00087a10     libeay32:ec_ameth.obj
 0002:0001fa24       ??_C@_0L@FMJMEKAC@Public?9Key?$AA@ 00087a24     libeay32:ec_ameth.obj
 0002:0001fa30       ??_C@_0M@CJKOCIEC@Private?9Key?$AA@ 00087a30     libeay32:ec_ameth.obj
 0002:0001fa40       dsa_asn1_meths             00087a40     libeay32:dsa_ameth.obj
 0002:0001fc60       ??_C@_0EP@BEDNKKJD@d?3?2wm653wehh?2platform?2mvv210?2src@ 00087c60     libeay32:dsa_ameth.obj
 0002:0001fcb0       ??_C@_05LKAKAJND@G?3?5?5?5?$AA@ 00087cb0     libeay32:dsa_ameth.obj
 0002:0001fcb8       ??_C@_05GPIFOIFF@Q?3?5?5?5?$AA@ 00087cb8     libeay32:dsa_ameth.obj
 0002:0001fcc0       ??_C@_05KENJDLPA@P?3?5?5?5?$AA@ 00087cc0     libeay32:dsa_ameth.obj
 0002:0001fcc8       ??_C@_0P@LAFOADJN@DSA?9Parameters?$AA@ 00087cc8     libeay32:dsa_ameth.obj
 0002:0001fcd8       ??_C@_05CFOBEMGI@s?3?5?5?5?$AA@ 00087cd8     libeay32:dsa_ameth.obj
 0002:0001fce0       ??_C@_05OOLNJPMN@r?3?5?5?5?$AA@ 00087ce0     libeay32:dsa_ameth.obj
 0002:0001fce8       ??_C@_01EEMJAFIK@?6?$AA@   00087ce8     libeay32:dsa_ameth.obj
 0002:0001fcf0       dh_asn1_meth               00087cf0     libeay32:dh_ameth.obj
 0002:0001fd5c       ??_C@_0BJ@OPGBMMOB@OpenSSL?5PKCS?$CD3?5DH?5method?$AA@ 00087d5c     libeay32:dh_ameth.obj
 0002:0001fd78       ??_C@_02EPINMGPM@DH?$AA@   00087d78     libeay32:dh_ameth.obj
 0002:0001fd80       ??_C@_0EN@KFNOHMJF@d?3?2wm653wehh?2platform?2mvv210?2src@ 00087d80     libeay32:dh_ameth.obj
 0002:0001fdd0       ??_C@_0CF@KKPEILHE@recommended?9private?9length?3?5?$CFd?5b@ 00087dd0     libeay32:dh_ameth.obj
 0002:0001fdf8       ??_C@_0L@HDGHCIJF@generator?3?$AA@ 00087df8     libeay32:dh_ameth.obj
 0002:0001fe04       ??_C@_06POMKLBDA@prime?3?$AA@ 00087e04     libeay32:dh_ameth.obj
 0002:0001fe0c       ??_C@_0M@BCALNHOD@public?9key?3?$AA@ 00087e0c     libeay32:dh_ameth.obj
 0002:0001fe18       ??_C@_0N@MPONDEBM@private?9key?3?$AA@ 00087e18     libeay32:dh_ameth.obj
 0002:0001fe28       ??_C@_0BF@HJBOBPFM@PKCS?$CD3?5DH?5Parameters?$AA@ 00087e28     libeay32:dh_ameth.obj
 0002:0001fe40       ??_C@_0BF@NEOAIGKI@PKCS?$CD3?5DH?5Public?9Key?$AA@ 00087e40     libeay32:dh_ameth.obj
 0002:0001fe58       ??_C@_0BG@BPCFBOHI@PKCS?$CD3?5DH?5Private?9Key?$AA@ 00087e58     libeay32:dh_ameth.obj
 0002:0001fe70       rsa_asn1_meths             00087e70     libeay32:rsa_ameth.obj
 0002:0001ff48       ??_C@_0BD@MHOEKPBI@OpenSSL?5RSA?5method?$AA@ 00087f48     libeay32:rsa_ameth.obj
 0002:0001ff60       ??_C@_0EP@ECKOLFPF@d?3?2wm653wehh?2platform?2mvv210?2src@ 00087f60     libeay32:rsa_ameth.obj
 0002:0001ffb0       ??_C@_0N@GNAMJPHF@coefficient?3?$AA@ 00087fb0     libeay32:rsa_ameth.obj
 0002:0001ffc0       ??_C@_0L@OKKEHIPG@exponent2?3?$AA@ 00087fc0     libeay32:rsa_ameth.obj
 0002:0001ffcc       ??_C@_0L@OIOCMGKP@exponent1?3?$AA@ 00087fcc     libeay32:rsa_ameth.obj
 0002:0001ffd8       ??_C@_07NJNHFNM@prime2?3?$AA@ 00087fd8     libeay32:rsa_ameth.obj
 0002:0001ffe0       ??_C@_07PNLMLIF@prime1?3?$AA@ 00087fe0     libeay32:rsa_ameth.obj
 0002:0001ffe8       ??_C@_0BB@NFOLHHHJ@privateExponent?3?$AA@ 00087fe8     libeay32:rsa_ameth.obj
 0002:0001fffc       ??_C@_08GIMLILAA@Modulus?3?$AA@ 00087ffc     libeay32:rsa_ameth.obj
 0002:00020008       ??_C@_09DALHJPOO@Exponent?3?$AA@ 00088008     libeay32:rsa_ameth.obj
 0002:00020014       ??_C@_0BG@HAJOCCOP@Public?9Key?3?5?$CI?$CFd?5bit?$CJ?6?$AA@ 00088014     libeay32:rsa_ameth.obj
 0002:0002002c       ??_C@_08OKDKAJKD@modulus?3?$AA@ 0008802c     libeay32:rsa_ameth.obj
 0002:00020038       ??_C@_0BA@FAAMOFHC@publicExponent?3?$AA@ 00088038     libeay32:rsa_ameth.obj
 0002:00020048       ??_C@_0BH@JHLDJION@Private?9Key?3?5?$CI?$CFd?5bit?$CJ?6?$AA@ 00088048     libeay32:rsa_ameth.obj
 0002:00020060       ??_C@_0P@DDPOEOJA@0xbc?5?$CIdefault?$CJ?$AA@ 00088060     libeay32:rsa_ameth.obj
 0002:00020070       ??_C@_0BA@LIMPMLCB@Trailer?5Field?3?5?$AA@ 00088070     libeay32:rsa_ameth.obj
 0002:00020080       ??_C@_0N@LMKHLINK@20?5?$CIdefault?$CJ?$AA@ 00088080     libeay32:rsa_ameth.obj
 0002:00020090       ??_C@_0O@KKNIODBM@Salt?5Length?3?5?$AA@ 00088090     libeay32:rsa_ameth.obj
 0002:000200a0       ??_C@_0BJ@NNFOENLD@mgf1?5with?5sha1?5?$CIdefault?$CJ?$AA@ 000880a0     libeay32:rsa_ameth.obj
 0002:000200bc       ??_C@_07DNODLGKM@INVALID?$AA@ 000880bc     libeay32:rsa_ameth.obj
 0002:000200c4       ??_C@_06BIDGLIKJ@?5with?5?$AA@ 000880c4     libeay32:rsa_ameth.obj
 0002:000200cc       ??_C@_0BB@HEAMLCPA@Mask?5Algorithm?3?5?$AA@ 000880cc     libeay32:rsa_ameth.obj
 0002:000200e0       ??_C@_0P@ODEAMLKF@sha1?5?$CIdefault?$CJ?$AA@ 000880e0     libeay32:rsa_ameth.obj
 0002:000200f0       ??_C@_0BB@PMMDHLKH@Hash?5Algorithm?3?5?$AA@ 000880f0     libeay32:rsa_ameth.obj
 0002:00020104       ??_C@_0BL@KMBKPBGM@?5?$CIINVALID?5PSS?5PARAMETERS?$CJ?6?$AA@ 00088104     libeay32:rsa_ameth.obj
 0002:00020120       cmac_pkey_meth             00088120     libeay32:cm_pmeth.obj
 0002:0002018c       ??_C@_06BHJHKMJC@hexkey?$AA@ 0008818c     libeay32:cm_pmeth.obj
 0002:00020194       ??_C@_06KDGDAFPH@cipher?$AA@ 00088194     libeay32:cm_pmeth.obj
 0002:0002019c       ??_C@_03ICHNJLJF@key?$AA@  0008819c     libeay32:cm_pmeth.obj
 0002:000201a0       hmac_pkey_meth             000881a0     libeay32:hm_pmeth.obj
 0002:00020210       ??_C@_0EP@PNIBEDF@d?3?2wm653wehh?2platform?2mvv210?2src@ 00088210     libeay32:hm_pmeth.obj
 0002:00020260       ec_pkey_meth               00088260     libeay32:ec_pmeth.obj
 0002:000202d0       ??_C@_0EN@FGGHDHMC@d?3?2wm653wehh?2platform?2mvv210?2src@ 000882d0     libeay32:ec_pmeth.obj
 0002:00020320       ??_C@_0BC@BLCJLNNM@ec_paramgen_curve?$AA@ 00088320     libeay32:ec_pmeth.obj
 0002:00020338       dsa_pkey_meth              00088338     libeay32:dsa_pmeth.obj
 0002:000203a8       ??_C@_0EP@KECMJLCG@d?3?2wm653wehh?2platform?2mvv210?2src@ 000883a8     libeay32:dsa_pmeth.obj
 0002:000203f8       ??_C@_0BA@HDLNDIMK@dsa_paramgen_md?$AA@ 000883f8     libeay32:dsa_pmeth.obj
 0002:00020408       ??_C@_0BE@JHBKDNPA@dsa_paramgen_q_bits?$AA@ 00088408     libeay32:dsa_pmeth.obj
 0002:0002041c       ??_C@_0BC@DOMHFBFC@dsa_paramgen_bits?$AA@ 0008841c     libeay32:dsa_pmeth.obj
 0002:00020430       dh_pkey_meth               00088430     libeay32:dh_pmeth.obj
 0002:000204a0       ??_C@_0EN@BFMPENCA@d?3?2wm653wehh?2platform?2mvv210?2src@ 000884a0     libeay32:dh_pmeth.obj
 0002:000204f0       ??_C@_0BG@POLEFOHA@dh_paramgen_generator?$AA@ 000884f0     libeay32:dh_pmeth.obj
 0002:00020508       ??_C@_0BG@LEMCDPBI@dh_paramgen_prime_len?$AA@ 00088508     libeay32:dh_pmeth.obj
 0002:00020520       rsa_pkey_meth              00088520     libeay32:rsa_pmeth.obj
 0002:00020590       ??_C@_0EP@PCLPIEEA@d?3?2wm653wehh?2platform?2mvv210?2src@ 00088590     libeay32:rsa_pmeth.obj
 0002:000205e0       ??_C@_0BC@DMECNPFD@rsa_keygen_pubexp?$AA@ 000885e0     libeay32:rsa_pmeth.obj
 0002:000205f4       ??_C@_0BA@GFPKPLAF@rsa_keygen_bits?$AA@ 000885f4     libeay32:rsa_pmeth.obj
 0002:00020604       ??_C@_0BA@CIHMEEHB@rsa_pss_saltlen?$AA@ 00088604     libeay32:rsa_pmeth.obj
 0002:00020614       ??_C@_04JNCMEILM@x931?$AA@ 00088614     libeay32:rsa_pmeth.obj
 0002:0002061c       ??_C@_04EIGNDHKO@oeap?$AA@ 0008861c     libeay32:rsa_pmeth.obj
 0002:00020624       ??_C@_04CGFJFPFD@none?$AA@ 00088624     libeay32:rsa_pmeth.obj
 0002:0002062c       ??_C@_06PDLHKEJK@sslv23?$AA@ 0008862c     libeay32:rsa_pmeth.obj
 0002:00020634       ??_C@_0BB@BILFEOKG@rsa_padding_mode?$AA@ 00088634     libeay32:rsa_pmeth.obj
 0002:00020648       ??_C@_0EP@KDEOOFHE@d?3?2wm653wehh?2platform?2mvv210?2src@ 00088648     libeay32:evp_asn1.obj
 0002:00020698       ??_C@_0EO@DEEJNAGE@d?3?2wm653wehh?2platform?2mvv210?2src@ 00088698     libeay32:rsa_crpt.obj
 0002:0002072c       ??_C@_08DFMPDBMK@X509_SIG?$AA@ 0008872c     libeay32:x_sig.obj
 0002:00020738       ??_C@_05CJCEEADM@algor?$AA@ 00088738     libeay32:x_sig.obj
 0002:00020740       ??_C@_0EN@BMFEIIDL@d?3?2wm653wehh?2platform?2mvv210?2src@ 00088740     libeay32:rsa_pk1.obj
 0002:00020790       ??_C@_0EN@PDDHPBKJ@d?3?2wm653wehh?2platform?2mvv210?2src@ 00088790     libeay32:rsa_ssl.obj
 0002:000207e0       ??_C@_0EO@NNKDLJPI@d?3?2wm653wehh?2platform?2mvv210?2src@ 000887e0     libeay32:rsa_none.obj
 0002:00020830       ??_C@_0EO@FBMJEFIA@d?3?2wm653wehh?2platform?2mvv210?2src@ 00088830     libeay32:rsa_oaep.obj
 0002:00020880       ??_C@_0EO@IHJGGIGJ@d?3?2wm653wehh?2platform?2mvv210?2src@ 00088880     libeay32:rsa_x931.obj
 0002:000208d0       ??_C@_0EM@NFBEAOGE@d?3?2wm653wehh?2platform?2mvv210?2src@ 000888d0     libeay32:ec_mult.obj
 0002:00020920       ??_C@_0EL@CJHJHLOJ@d?3?2wm653wehh?2platform?2mvv210?2src@ 00088920     libeay32:cmac.obj
 0002:00020cf0       ??_C@_0O@DFJMHGOP@EC_PRIVATEKEY?$AA@ 00088cf0     libeay32:ec_asn1.obj
 0002:00020d00       ??_C@_09IDENFCJL@publicKey?$AA@ 00088d00     libeay32:ec_asn1.obj
 0002:00020d0c       ??_C@_0L@HHPOFMCB@parameters?$AA@ 00088d0c     libeay32:ec_asn1.obj
 0002:00020d18       ??_C@_0L@BCENACFO@privateKey?$AA@ 00088d18     libeay32:ec_asn1.obj
 0002:00020d24       ??_C@_0P@PBBIGPFJ@ECPKPARAMETERS?$AA@ 00088d24     libeay32:ec_asn1.obj
 0002:00020d34       ??_C@_0BD@HOIIAPI@value?4implicitlyCA?$AA@ 00088d34     libeay32:ec_asn1.obj
 0002:00020d48       ??_C@_0BB@KOECJJJ@value?4parameters?$AA@ 00088d48     libeay32:ec_asn1.obj
 0002:00020d5c       ??_C@_0BC@JEJHGDNN@value?4named_curve?$AA@ 00088d5c     libeay32:ec_asn1.obj
 0002:00020d70       ??_C@_0N@ECDPFONH@ECPARAMETERS?$AA@ 00088d70     libeay32:ec_asn1.obj
 0002:00020d80       ??_C@_08DKFAOMDI@cofactor?$AA@ 00088d80     libeay32:ec_asn1.obj
 0002:00020d8c       ??_C@_05NDNMCCJH@order?$AA@ 00088d8c     libeay32:ec_asn1.obj
 0002:00020d94       ??_C@_04BHIIPFEC@base?$AA@ 00088d94     libeay32:ec_asn1.obj
 0002:00020d9c       ??_C@_05HIKPKPAA@curve?$AA@ 00088d9c     libeay32:ec_asn1.obj
 0002:00020da4       ??_C@_07MJJGNICD@fieldID?$AA@ 00088da4     libeay32:ec_asn1.obj
 0002:00020dac       ??_C@_0M@BHDPNPCK@X9_62_CURVE?$AA@ 00088dac     libeay32:ec_asn1.obj
 0002:00020db8       ??_C@_04MENKDCKE@seed?$AA@ 00088db8     libeay32:ec_asn1.obj
 0002:00020dc0       ??_C@_0O@PGPIAKKH@X9_62_FIELDID?$AA@ 00088dc0     libeay32:ec_asn1.obj
 0002:00020dd0       ??_C@_09OAOLGAOM@fieldType?$AA@ 00088dd0     libeay32:ec_asn1.obj
 0002:00020ddc       ??_C@_0L@NLMAKEBL@p?4char_two?$AA@ 00088ddc     libeay32:ec_asn1.obj
 0002:00020de8       ??_C@_07DPJEDCLB@p?4prime?$AA@ 00088de8     libeay32:ec_asn1.obj
 0002:00020df0       ??_C@_0BJ@CCODLOLO@X9_62_CHARACTERISTIC_TWO?$AA@ 00088df0     libeay32:ec_asn1.obj
 0002:00020e0c       ??_C@_04GPMDFGEJ@type?$AA@ 00088e0c     libeay32:ec_asn1.obj
 0002:00020e14       ??_C@_01GOHFPIOK@m?$AA@    00088e14     libeay32:ec_asn1.obj
 0002:00020e18       ??_C@_09DMGLCKOJ@p?4ppBasis?$AA@ 00088e18     libeay32:ec_asn1.obj
 0002:00020e24       ??_C@_09LICBCEBD@p?4tpBasis?$AA@ 00088e24     libeay32:ec_asn1.obj
 0002:00020e30       ??_C@_09KOBBOOPN@p?4onBasis?$AA@ 00088e30     libeay32:ec_asn1.obj
 0002:00020e3c       ??_C@_07PBHIMFBE@p?4other?$AA@ 00088e3c     libeay32:ec_asn1.obj
 0002:00020e44       ??_C@_0BC@NPDMPFCL@X9_62_PENTANOMIAL?$AA@ 00088e44     libeay32:ec_asn1.obj
 0002:00020e58       ??_C@_02LAFHGHBM@k3?$AA@   00088e58     libeay32:ec_asn1.obj
 0002:00020e5c       ??_C@_02KJEMFGFN@k2?$AA@   00088e5c     libeay32:ec_asn1.obj
 0002:00020e60       ??_C@_02ICGBAFJO@k1?$AA@   00088e60     libeay32:ec_asn1.obj
 0002:00020e68       ??_C@_0EM@BCOHHMGC@d?3?2wm653wehh?2platform?2mvv210?2src@ 00088e68     libeay32:ec_asn1.obj
 0002:00020f10       ??_C@_0M@INJPOKDH@X509_PUBKEY?$AA@ 00088f10     libeay32:x_pubkey.obj
 0002:00020f1c       ??_C@_0L@PJCANJEE@public_key?$AA@ 00088f1c     libeay32:x_pubkey.obj
 0002:00020f28       ??_C@_0EP@OKMPOBJE@d?3?2wm653wehh?2platform?2mvv210?2src@ 00088f28     libeay32:x_pubkey.obj
 0002:00020fec       ??_C@_0M@MMOLGLEG@X509_ALGORS?$AA@ 00088fec     libeay32:x_algor.obj
 0002:00020ff8       ??_C@_0L@BNOBMJFK@algorithms?$AA@ 00088ff8     libeay32:x_algor.obj
 0002:00021004       ??_C@_0L@BFHONDPK@X509_ALGOR?$AA@ 00089004     libeay32:x_algor.obj
 0002:00021010       ??_C@_09DAGAJHIH@parameter?$AA@ 00089010     libeay32:x_algor.obj
 0002:000210a8       ??_C@_0BE@LDIFBBLG@PKCS8_PRIV_KEY_INFO?$AA@ 000890a8     libeay32:p8_pkey.obj
 0002:000210bc       ??_C@_0L@HNMJPKNA@attributes?$AA@ 000890bc     libeay32:p8_pkey.obj
 0002:000210c8       ??_C@_04JMMJFDFL@pkey?$AA@ 000890c8     libeay32:p8_pkey.obj
 0002:000210d0       ??_C@_07PLCMOKAM@pkeyalg?$AA@ 000890d0     libeay32:p8_pkey.obj
 0002:000210d8       ECDSA_version              000890d8     libeay32:ecs_lib.obj
 0002:00021108       ??_C@_0EP@HDBDKLOP@d?3?2wm653wehh?2platform?2mvv210?2src@ 00089108     libeay32:ecs_lib.obj
 0002:00021158       ??_C@_0BE@FPCNHCIJ@Generator?5?$CIhybrid?$CJ?3?$AA@ 00089158     libeay32:eck_prn.obj
 0002:0002116c       ??_C@_0BK@DOCPEENO@Generator?5?$CIuncompressed?$CJ?3?$AA@ 0008916c     libeay32:eck_prn.obj
 0002:00021188       ??_C@_0BI@DFFFIKFB@Generator?5?$CIcompressed?$CJ?3?$AA@ 00089188     libeay32:eck_prn.obj
 0002:000211a0       ??_C@_06LEJCPMLM@?$CF02x?$CFs?$AA@ 000891a0     libeay32:eck_prn.obj
 0002:000211a8       ??_C@_01JLIPDDHJ@?3?$AA@   000891a8     libeay32:eck_prn.obj
 0002:000211b0       ??_C@_0EM@FLNGOIDD@d?3?2wm653wehh?2platform?2mvv210?2src@ 000891b0     libeay32:eck_prn.obj
 0002:000211fc       ??_C@_05PDHKGGIM@Seed?3?$AA@ 000891fc     libeay32:eck_prn.obj
 0002:00021204       ??_C@_0L@IEMHODML@Cofactor?3?5?$AA@ 00089204     libeay32:eck_prn.obj
 0002:00021210       ??_C@_07KOGOKIFH@Order?3?5?$AA@ 00089210     libeay32:eck_prn.obj
 0002:00021218       ??_C@_05OKMHJIGA@B?3?5?5?5?$AA@ 00089218     libeay32:eck_prn.obj
 0002:00021220       ??_C@_05GMFDOKMO@A?3?5?5?5?$AA@ 00089220     libeay32:eck_prn.obj
 0002:00021228       ??_C@_06DBHHIIKM@Prime?3?$AA@ 00089228     libeay32:eck_prn.obj
 0002:00021230       ??_C@_0M@JDIPGLHE@Polynomial?3?$AA@ 00089230     libeay32:eck_prn.obj
 0002:0002123c       ??_C@_0BA@ENMKKION@Basis?5Type?3?5?$CFs?6?$AA@ 0008923c     libeay32:eck_prn.obj
 0002:0002124c       ??_C@_0BA@KNKNOIFH@Field?5Type?3?5?$CFs?6?$AA@ 0008924c     libeay32:eck_prn.obj
 0002:0002125c       ??_C@_0N@JOFLCJFF@ASN1?5OID?3?5?$CFs?$AA@ 0008925c     libeay32:eck_prn.obj
 0002:0002126c       ??_C@_04HDOCAJNK@?$CFs?$CFs?$AA@ 0008926c     libeay32:t_pkey.obj
 0002:00021274       ??_C@_0M@IBLDKCHK@?5?$CINegative?$CJ?$AA@ 00089274     libeay32:t_pkey.obj
 0002:00021280       ??_C@_0BE@KHLFKPFC@?$CFs?5?$CFs?$CFlu?5?$CI?$CFs0x?$CFlx?$CJ?6?$AA@ 00089280     libeay32:t_pkey.obj
 0002:00021294       ??_C@_05NJJIPCOC@?$CFs?50?6?$AA@ 00089294     libeay32:t_pkey.obj
 0002:000212a0       ??_C@_0EN@IAKMHMJK@d?3?2wm653wehh?2platform?2mvv210?2src@ 000892a0     libeay32:ec_print.obj
 0002:000212f0       ??_C@_0EP@EBOHPFGP@d?3?2wm653wehh?2platform?2mvv210?2src@ 000892f0     libeay32:pk7_lib.obj
 0002:00021520       ??_C@_0EM@PJNFBCEL@d?3?2wm653wehh?2platform?2mvv210?2src@ 00089520     libeay32:cms_sd.obj
 0002:0002156c       ??_C@_03MKABNOCG@Dec?$AA@  0008956c     libeay32:t_x509.obj
 0002:00021570       ??_C@_03JPJOFNIA@Nov?$AA@  00089570     libeay32:t_x509.obj
 0002:00021574       ??_C@_03BMAOKBAD@Oct?$AA@  00089574     libeay32:t_x509.obj
 0002:00021578       ??_C@_03GGCAPAJC@Sep?$AA@  00089578     libeay32:t_x509.obj
 0002:0002157c       ??_C@_03IFJFEIGA@Aug?$AA@  0008957c     libeay32:t_x509.obj
 0002:00021580       ??_C@_03LBGABGKK@Jul?$AA@  00089580     libeay32:t_x509.obj
 0002:00021584       ??_C@_03IDFGHECI@Jun?$AA@  00089584     libeay32:t_x509.obj
 0002:00021588       ??_C@_03CNMDKL@May?$AA@    00089588     libeay32:t_x509.obj
 0002:0002158c       ??_C@_03LEOLGMJP@Apr?$AA@  0008958c     libeay32:t_x509.obj
 0002:00021590       ??_C@_03ODNJBKGA@Mar?$AA@  00089590     libeay32:t_x509.obj
 0002:00021594       ??_C@_03HJBDCHOM@Feb?$AA@  00089594     libeay32:t_x509.obj
 0002:00021598       ??_C@_03JIHJHPIE@Jan?$AA@  00089598     libeay32:t_x509.obj
 0002:000215a0       ??_C@_0EN@JFBJIANP@d?3?2wm653wehh?2platform?2mvv210?2src@ 000895a0     libeay32:t_x509.obj
 0002:000215f0       ??_C@_0P@FGACABCD@Bad?5time?5value?$AA@ 000895f0     libeay32:t_x509.obj
 0002:00021600       ??_C@_0BP@OGIOIJMK@?$CFs?5?$CF2d?5?$CF02d?3?$CF02d?3?$CF02d?$CF?4?$CKs?5?$CFd?$CFs?$AA@ 00089600     libeay32:t_x509.obj
 0002:00021620       ??_C@_04FIEKMBKB@?5GMT?$AA@ 00089620     libeay32:t_x509.obj
 0002:00021628       ??_C@_02KEGNLNML@?0?5?$AA@ 00089628     libeay32:t_x509.obj
 0002:0002169c       ??_C@_06IJDLPEM@length?$AA@ 0008969c     libeay32:dh_asn1.obj
 0002:0002185c       ??_C@_0P@PJJHDFJB@RSA_PSS_PARAMS?$AA@ 0008985c     libeay32:rsa_asn1.obj
 0002:0002186c       ??_C@_0N@KGDDKMLA@trailerField?$AA@ 0008986c     libeay32:rsa_asn1.obj
 0002:0002187c       ??_C@_0L@PKGNFOCE@saltLength?$AA@ 0008987c     libeay32:rsa_asn1.obj
 0002:00021888       ??_C@_0BB@KKPGFJED@maskGenAlgorithm?$AA@ 00089888     libeay32:rsa_asn1.obj
 0002:0002189c       ??_C@_0O@DHJLLKEK@hashAlgorithm?$AA@ 0008989c     libeay32:rsa_asn1.obj
 0002:000218ac       ??_C@_04BBEMPLKC@iqmp?$AA@ 000898ac     libeay32:rsa_asn1.obj
 0002:000218b4       ??_C@_04PENPDGE@dmq1?$AA@  000898b4     libeay32:rsa_asn1.obj
 0002:000218bc       ??_C@_04OIPJJFD@dmp1?$AA@  000898bc     libeay32:rsa_asn1.obj
 0002:000218c4       ??_C@_01LPLHEDKD@d?$AA@    000898c4     libeay32:rsa_asn1.obj
 0002:000218c8       ??_C@_01KGKMHCOC@e?$AA@    000898c8     libeay32:rsa_asn1.obj
 0002:000218cc       ??_C@_01EFFIKLCJ@n?$AA@    000898cc     libeay32:rsa_asn1.obj
 0002:000218d0       ??_C@_02JPPHBJLD@?2?6?$AA@ 000898d0     libeay32:f_int.obj
 0002:000218d4       ??_C@_02PLJDPFIO@00?$AA@   000898d4     libeay32:f_int.obj
 0002:000218d8       ??_C@_0EN@EGODLFJH@d?3?2wm653wehh?2platform?2mvv210?2src@ 000898d8     libeay32:cms_env.obj
 0002:00021928       ??_C@_0EO@ENFGJDHG@d?3?2wm653wehh?2platform?2mvv210?2src@ 00089928     libeay32:m_sigver.obj
 0002:00021978       ??_C@_0EP@ECCLNLMM@d?3?2wm653wehh?2platform?2mvv210?2src@ 00089978     libeay32:asn_pack.obj
 0002:000219e0       ??_C@_0EP@DFJOCJBM@d?3?2wm653wehh?2platform?2mvv210?2src@ 000899e0     libeay32:v3_utl.obj
 0002:00021a30       ??_C@_05MAJJAKPI@FALSE?$AA@ 00089a30     libeay32:v3_utl.obj
 0002:00021a38       ??_C@_04HCDDPBNL@TRUE?$AA@ 00089a38     libeay32:v3_utl.obj
 0002:00021a40       ??_C@_07BDICHDDB@?0value?3?$AA@ 00089a40     libeay32:v3_utl.obj
 0002:00021a48       ??_C@_06FONLLLNC@?0name?3?$AA@ 00089a48     libeay32:v3_utl.obj
 0002:00021a50       ??_C@_08PCLJGJAL@section?3?$AA@ 00089a50     libeay32:v3_utl.obj
 0002:00021a5c       ??_C@_02KAJCLHKP@no?$AA@   00089a5c     libeay32:v3_utl.obj
 0002:00021a60       ??_C@_02NFLNFON@NO?$AA@    00089a60     libeay32:v3_utl.obj
 0002:00021a64       ??_C@_01NANMIPIL@N?$AA@    00089a64     libeay32:v3_utl.obj
 0002:00021a68       ??_C@_05LAPONLG@false?$AA@ 00089a68     libeay32:v3_utl.obj
 0002:00021a70       ??_C@_03ICICOMAL@yes?$AA@  00089a70     libeay32:v3_utl.obj
 0002:00021a74       ??_C@_03IPHJCBHH@YES?$AA@  00089a74     libeay32:v3_utl.obj
 0002:00021a78       ??_C@_01EANLCPLP@y?$AA@    00089a78     libeay32:v3_utl.obj
 0002:00021a7c       ??_C@_01NFFPALBN@Y?$AA@    00089a7c     libeay32:v3_utl.obj
 0002:00021a80       ??_C@_04LOAJBDKD@true?$AA@ 00089a80     libeay32:v3_utl.obj
 0002:00021a88       ??_C@_0M@PCENNPGA@?$CFd?4?$CFd?4?$CFd?4?$CFd?$AA@ 00089a88     libeay32:v3_utl.obj
 0002:00021a94       ??_C@_0CF@JFAAPJDH@len?$DO?$DN0?5?$CG?$CG?5len?$DM?$DN?$CIint?$CJsizeof?$CIctx?9?$DO@ 00089a94     libeay32:hmac.obj
 0002:00021abc       ??_C@_0BL@OKHNPHMK@j?5?$DM?$DN?5?$CIint?$CJsizeof?$CIctx?9?$DOkey?$CJ?$AA@ 00089abc     libeay32:hmac.obj
 0002:00021ad8       ??_C@_0EL@FKOMILBN@d?3?2wm653wehh?2platform?2mvv210?2src@ 00089ad8     libeay32:hmac.obj
 0002:00021b28       ??_C@_0EL@BNOPJFLP@d?3?2wm653wehh?2platform?2mvv210?2src@ 00089b28     libeay32:dh_gen.obj
 0002:00021b80       ??_C@_0EN@HNNJMEMO@d?3?2wm653wehh?2platform?2mvv210?2src@ 00089b80     libeay32:rsa_pss.obj
 0002:00021bd0       ??_C@_0EO@KJLCAEHF@d?3?2wm653wehh?2platform?2mvv210?2src@ 00089bd0     libeay32:rsa_saos.obj
 0002:00021c20       ??_C@_0EN@CONJBLIN@d?3?2wm653wehh?2platform?2mvv210?2src@ 00089c20     libeay32:rsa_gen.obj
 0002:00021e18       ??_C@_0EN@ODDCBIPI@d?3?2wm653wehh?2platform?2mvv210?2src@ 00089e18     libeay32:evp_pbe.obj
 0002:00021e68       ??_C@_05DLJFLBDA@TYPE?$DN?$AA@ 00089e68     libeay32:evp_pbe.obj
 0002:00021f10       ??_C@_0EN@LKHNEOCI@d?3?2wm653wehh?2platform?2mvv210?2src@ 00089f10     libeay32:ecp_mont.obj
 0002:00022000       ??_C@_0EN@MFLMOEJL@d?3?2wm653wehh?2platform?2mvv210?2src@ 0008a000     libeay32:ecp_nist.obj
 0002:000220f0       ??_C@_0EN@HKENHFKC@d?3?2wm653wehh?2platform?2mvv210?2src@ 0008a0f0     libeay32:ec2_smpl.obj
 0002:00022140       EVP_version                0008a140     libeay32:evp_enc.obj
 0002:00022168       ??_C@_0EN@FALCDJAN@d?3?2wm653wehh?2platform?2mvv210?2src@ 0008a168     libeay32:evp_enc.obj
 0002:000221b8       ??_C@_0BM@NOPGEACO@bl?5?$DM?$DN?5?$CIint?$CJsizeof?$CIctx?9?$DObuf?$CJ?$AA@ 0008a1b8     libeay32:evp_enc.obj
 0002:000221d4       ??_C@_0BF@NLHGELBH@b?5?$DM?$DN?5sizeof?5ctx?9?$DObuf?$AA@ 0008a1d4     libeay32:evp_enc.obj
 0002:000221ec       ??_C@_0BH@JPOFFCDO@b?5?$DM?$DN?5sizeof?5ctx?9?$DOfinal?$AA@ 0008a1ec     libeay32:evp_enc.obj
 0002:00022204       ??_C@_0DG@IKOHIL@EVP_CIPHER_CTX_iv_length?$CIctx?$CJ?5?$DM?$DN@ 0008a204     libeay32:evp_enc.obj
 0002:00022240       ??_C@_0FO@KIBMBINE@ctx?9?$DOcipher?9?$DOblock_size?5?$DN?$DN?51?5?$HM?$HM?5@ 0008a240     libeay32:evp_enc.obj
 0002:000222a0       ??_C@_0EL@LDMNJGLH@d?3?2wm653wehh?2platform?2mvv210?2src@ 0008a2a0     libeay32:ec_oct.obj
 0002:000222ec       ??_C@_0BF@DJKLHCAL@OpenSSL?5ECDSA?5method?$AA@ 0008a2ec     libeay32:ecs_ossl.obj
 0002:00022308       ??_C@_0FA@PJGMNPFB@d?3?2wm653wehh?2platform?2mvv210?2src@ 0008a308     libeay32:ecs_ossl.obj
 0002:00022908       ??_C@_0BC@DLHIINOH@PKCS7_ATTR_VERIFY?$AA@ 0008a908     libeay32:pk7_asn1.obj
 0002:0002291c       ??_C@_0BA@IJMFEGLH@PKCS7_ATTR_SIGN?$AA@ 0008a91c     libeay32:pk7_asn1.obj
 0002:0002292c       ??_C@_0BB@ODHHPICH@PKCS7_ATTRIBUTES?$AA@ 0008a92c     libeay32:pk7_asn1.obj
 0002:00022940       ??_C@_0N@NAILNAH@PKCS7_DIGEST?$AA@ 0008a940     libeay32:pk7_asn1.obj
 0002:00022950       ??_C@_02EBCANADN@md?$AA@   0008a950     libeay32:pk7_asn1.obj
 0002:00022954       ??_C@_0O@GIFGHKGC@PKCS7_ENCRYPT?$AA@ 0008a954     libeay32:pk7_asn1.obj
 0002:00022964       ??_C@_0BE@LMHBPFDD@PKCS7_SIGN_ENVELOPE?$AA@ 0008a964     libeay32:pk7_asn1.obj
 0002:00022978       ??_C@_0BC@INKEDPEG@PKCS7_ENC_CONTENT?$AA@ 0008a978     libeay32:pk7_asn1.obj
 0002:0002298c       ??_C@_0N@IEAAACJL@content_type?$AA@ 0008a98c     libeay32:pk7_asn1.obj
 0002:0002299c       ??_C@_0BB@MGPEFENK@PKCS7_RECIP_INFO?$AA@ 0008a99c     libeay32:pk7_asn1.obj
 0002:000229b0       ??_C@_07LBLKCHGJ@enc_key?$AA@ 0008a9b0     libeay32:pk7_asn1.obj
 0002:000229b8       ??_C@_0O@ODFHHMFC@key_enc_algor?$AA@ 0008a9b8     libeay32:pk7_asn1.obj
 0002:000229c8       ??_C@_0P@KCJMJLOD@PKCS7_ENVELOPE?$AA@ 0008a9c8     libeay32:pk7_asn1.obj
 0002:000229d8       ??_C@_08ENNDKKOI@enc_data?$AA@ 0008a9d8     libeay32:pk7_asn1.obj
 0002:000229e4       ??_C@_0O@HGJALPPJ@recipientinfo?$AA@ 0008a9e4     libeay32:pk7_asn1.obj
 0002:000229f4       ??_C@_0BI@POAIONGK@PKCS7_ISSUER_AND_SERIAL?$AA@ 0008a9f4     libeay32:pk7_asn1.obj
 0002:00022a0c       ??_C@_06KCELPKEE@serial?$AA@ 0008aa0c     libeay32:pk7_asn1.obj
 0002:00022a14       ??_C@_06EAINIONG@issuer?$AA@ 0008aa14     libeay32:pk7_asn1.obj
 0002:00022a1c       ??_C@_0BC@BFFCPPDG@PKCS7_SIGNER_INFO?$AA@ 0008aa1c     libeay32:pk7_asn1.obj
 0002:00022a30       ??_C@_0M@NNBFAOJK@unauth_attr?$AA@ 0008aa30     libeay32:pk7_asn1.obj
 0002:00022a3c       ??_C@_0L@PJDBOMFC@enc_digest?$AA@ 0008aa3c     libeay32:pk7_asn1.obj
 0002:00022a48       ??_C@_0P@KLFHBHJD@digest_enc_alg?$AA@ 0008aa48     libeay32:pk7_asn1.obj
 0002:00022a58       ??_C@_09PLABOLFJ@auth_attr?$AA@ 0008aa58     libeay32:pk7_asn1.obj
 0002:00022a64       ??_C@_0L@OGBFEEJI@digest_alg?$AA@ 0008aa64     libeay32:pk7_asn1.obj
 0002:00022a70       ??_C@_0BC@PMGLGNPO@issuer_and_serial?$AA@ 0008aa70     libeay32:pk7_asn1.obj
 0002:00022a84       ??_C@_0N@CKBJFFNF@PKCS7_SIGNED?$AA@ 0008aa84     libeay32:pk7_asn1.obj
 0002:00022a94       ??_C@_0M@KEDNAHBP@signer_info?$AA@ 0008aa94     libeay32:pk7_asn1.obj
 0002:00022aa0       ??_C@_03GJBFOAJL@crl?$AA@  0008aaa0     libeay32:pk7_asn1.obj
 0002:00022aa4       ??_C@_04PHJBACIC@cert?$AA@ 0008aaa4     libeay32:pk7_asn1.obj
 0002:00022aac       ??_C@_08ODCIAOPM@contents?$AA@ 0008aaac     libeay32:pk7_asn1.obj
 0002:00022ab8       ??_C@_07MPDKKGPO@md_algs?$AA@ 0008aab8     libeay32:pk7_asn1.obj
 0002:00022ac0       ??_C@_05BKMMPIPN@PKCS7?$AA@ 0008aac0     libeay32:pk7_asn1.obj
 0002:00022ac8       ??_C@_0M@IDEHBFAL@d?4encrypted?$AA@ 0008aac8     libeay32:pk7_asn1.obj
 0002:00022ad4       ??_C@_08JOIJLLGO@d?4digest?$AA@ 0008aad4     libeay32:pk7_asn1.obj
 0002:00022ae0       ??_C@_0BH@FHPJHCLF@d?4signed_and_enveloped?$AA@ 0008aae0     libeay32:pk7_asn1.obj
 0002:00022af8       ??_C@_0M@CLKMIMCI@d?4enveloped?$AA@ 0008aaf8     libeay32:pk7_asn1.obj
 0002:00022b04       ??_C@_06GOHGJFCL@d?4sign?$AA@ 0008ab04     libeay32:pk7_asn1.obj
 0002:00022b0c       ??_C@_06OAPKPHLA@d?4data?$AA@ 0008ab0c     libeay32:pk7_asn1.obj
 0002:00022b14       ??_C@_07JIJPKMF@d?4other?$AA@ 0008ab14     libeay32:pk7_asn1.obj
 0002:00022c90       ??_C@_07OBHFIHGJ@sig_alg?$AA@ 0008ac90     libeay32:x_x509.obj
 0002:00022c98       ??_C@_09NKDPGBBA@cert_info?$AA@ 0008ac98     libeay32:x_x509.obj
 0002:00022ca4       ??_C@_09LCJGKABB@X509_CINF?$AA@ 0008aca4     libeay32:x_x509.obj
 0002:00022cb0       ??_C@_0L@ICCCPLKC@extensions?$AA@ 0008acb0     libeay32:x_x509.obj
 0002:00022cbc       ??_C@_0L@JMFHLKAL@subjectUID?$AA@ 0008acbc     libeay32:x_x509.obj
 0002:00022cc8       ??_C@_09KIIAMAEE@issuerUID?$AA@ 0008acc8     libeay32:x_x509.obj
 0002:00022cd4       ??_C@_07JNNGEGGO@subject?$AA@ 0008acd4     libeay32:x_x509.obj
 0002:00022cdc       ??_C@_08GCHKOCBP@validity?$AA@ 0008acdc     libeay32:x_x509.obj
 0002:00022ce8       ??_C@_09CMIIOJHF@signature?$AA@ 0008ace8     libeay32:x_x509.obj
 0002:00022e84       ??_C@_08JGFBPDAP@X509_CRL?$AA@ 0008ae84     libeay32:x_crl.obj
 0002:00022e90       ??_C@_0O@IMOAEKCP@X509_CRL_INFO?$AA@ 0008ae90     libeay32:x_crl.obj
 0002:00022ea0       ??_C@_07MIJFAMBD@revoked?$AA@ 0008aea0     libeay32:x_crl.obj
 0002:00022ea8       ??_C@_0L@BMOABHOK@nextUpdate?$AA@ 0008aea8     libeay32:x_crl.obj
 0002:00022eb4       ??_C@_0L@MPDCJAIM@lastUpdate?$AA@ 0008aeb4     libeay32:x_crl.obj
 0002:00022ec0       ??_C@_0N@JBPKOADN@X509_REVOKED?$AA@ 0008aec0     libeay32:x_crl.obj
 0002:00022ed0       ??_C@_0P@HBDMPDNI@revocationDate?$AA@ 0008aed0     libeay32:x_crl.obj
 0002:00022ee0       ??_C@_0EM@HLHJDKMD@d?3?2wm653wehh?2platform?2mvv210?2src@ 0008aee0     libeay32:x_crl.obj
 0002:00022f70       x509_name_ff               0008af70     libeay32:x_name.obj
 0002:00023008       ??_C@_09KGNJKBNF@X509_NAME?$AA@ 0008b008     libeay32:x_name.obj
 0002:00023014       ??_C@_0BD@FDNDONGH@X509_NAME_INTERNAL?$AA@ 0008b014     libeay32:x_name.obj
 0002:00023028       ??_C@_04FABLJDN@Name?$AA@  0008b028     libeay32:x_name.obj
 0002:00023030       ??_C@_0BC@GJMCELDI@X509_NAME_ENTRIES?$AA@ 0008b030     libeay32:x_name.obj
 0002:00023044       ??_C@_04IEOKPFHO@RDNS?$AA@ 0008b044     libeay32:x_name.obj
 0002:0002304c       ??_C@_0BA@KEPIIMOE@X509_NAME_ENTRY?$AA@ 0008b04c     libeay32:x_name.obj
 0002:0002305c       ??_C@_05MFEJDJP@value?$AA@ 0008b05c     libeay32:x_name.obj
 0002:00023068       ??_C@_0EN@KBGECLLO@d?3?2wm653wehh?2platform?2mvv210?2src@ 0008b068     libeay32:x_name.obj
 0002:00023e94       ??_C@_0M@GJHAMFIP@CMS_Receipt?$AA@ 0008be94     libeay32:cms_asn1.obj
 0002:00023ea0       ??_C@_0BJ@OPFDHHHB@originatorSignatureValue?$AA@ 0008bea0     libeay32:cms_asn1.obj
 0002:00023ebc       ??_C@_0BD@KOFKAGLC@CMS_ReceiptRequest?$AA@ 0008bebc     libeay32:cms_asn1.obj
 0002:00023ed0       ??_C@_0L@BBBJMFCF@receiptsTo?$AA@ 0008bed0     libeay32:cms_asn1.obj
 0002:00023edc       ??_C@_0N@CIHGCFJG@receiptsFrom?$AA@ 0008bedc     libeay32:cms_asn1.obj
 0002:00023eec       ??_C@_0BI@BHIBPADG@signedContentIdentifier?$AA@ 0008beec     libeay32:cms_asn1.obj
 0002:00023f04       ??_C@_0BB@JKAAKCKP@CMS_ReceiptsFrom?$AA@ 0008bf04     libeay32:cms_asn1.obj
 0002:00023f18       ??_C@_0O@ECMNNMJA@d?4receiptList?$AA@ 0008bf18     libeay32:cms_asn1.obj
 0002:00023f28       ??_C@_0BB@DENHEDOF@d?4allOrFirstTier?$AA@ 0008bf28     libeay32:cms_asn1.obj
 0002:00023f3c       ??_C@_0BG@NLALJKHJ@CMS_Attributes_Verify?$AA@ 0008bf3c     libeay32:cms_asn1.obj
 0002:00023f54       ??_C@_0BE@PAHMALPK@CMS_Attributes_Sign?$AA@ 0008bf54     libeay32:cms_asn1.obj
 0002:00023f68       ??_C@_0P@KAJKPCJH@CMS_ATTRIBUTES?$AA@ 0008bf68     libeay32:cms_asn1.obj
 0002:00023f78       ??_C@_0BA@ECDDPOHH@CMS_ContentInfo?$AA@ 0008bf78     libeay32:cms_asn1.obj
 0002:00023f88       ??_C@_0BB@NELCELCK@d?4compressedData?$AA@ 0008bf88     libeay32:cms_asn1.obj
 0002:00023f9c       ??_C@_0BE@NPCJHPOJ@d?4authenticatedData?$AA@ 0008bf9c     libeay32:cms_asn1.obj
 0002:00023fb0       ??_C@_0BA@HJCBJEH@d?4encryptedData?$AA@ 0008bfb0     libeay32:cms_asn1.obj
 0002:00023fc0       ??_C@_0P@HJCJOBOP@d?4digestedData?$AA@ 0008bfc0     libeay32:cms_asn1.obj
 0002:00023fd0       ??_C@_0BA@CCFAJLBF@d?4envelopedData?$AA@ 0008bfd0     libeay32:cms_asn1.obj
 0002:00023fe0       ??_C@_0N@DDIMJOHE@d?4signedData?$AA@ 0008bfe0     libeay32:cms_asn1.obj
 0002:00023ff0       ??_C@_0BD@IAIGGNCI@CMS_CompressedData?$AA@ 0008bff0     libeay32:cms_asn1.obj
 0002:00024004       ??_C@_0BF@PNIPCJJ@compressionAlgorithm?$AA@ 0008c004     libeay32:cms_asn1.obj
 0002:0002401c       ??_C@_0BG@DOMHNMEC@CMS_AuthenticatedData?$AA@ 0008c01c     libeay32:cms_asn1.obj
 0002:00024034       ??_C@_0M@FBFPDIHA@unauthAttrs?$AA@ 0008c034     libeay32:cms_asn1.obj
 0002:00024040       ??_C@_03BADCJGEO@mac?$AA@  0008c040     libeay32:cms_asn1.obj
 0002:00024044       ??_C@_09HHELNNLD@authAttrs?$AA@ 0008c044     libeay32:cms_asn1.obj
 0002:00024050       ??_C@_0N@PGIFJMM@macAlgorithm?$AA@ 0008c050     libeay32:cms_asn1.obj
 0002:00024060       ??_C@_0BC@ONODDCLB@CMS_EncryptedData?$AA@ 0008c060     libeay32:cms_asn1.obj
 0002:00024074       ??_C@_0BB@NNEFCOGL@CMS_DigestedData?$AA@ 0008c074     libeay32:cms_asn1.obj
 0002:00024088       ??_C@_0BC@MICBLAOD@CMS_EnvelopedData?$AA@ 0008c088     libeay32:cms_asn1.obj
 0002:0002409c       ??_C@_0BB@JCNJKAMK@unprotectedAttrs?$AA@ 0008c09c     libeay32:cms_asn1.obj
 0002:000240b0       ??_C@_0BF@OHLPJHAO@encryptedContentInfo?$AA@ 0008c0b0     libeay32:cms_asn1.obj
 0002:000240c8       ??_C@_0P@MHKJPFAE@recipientInfos?$AA@ 0008c0c8     libeay32:cms_asn1.obj
 0002:000240d8       ??_C@_0P@HMLDCEHI@originatorInfo?$AA@ 0008c0d8     libeay32:cms_asn1.obj
 0002:000240e8       ??_C@_0BC@OIOGGOHC@CMS_RecipientInfo?$AA@ 0008c0e8     libeay32:cms_asn1.obj
 0002:000240fc       ??_C@_05CDKGAJPA@d?4ori?$AA@ 0008c0fc     libeay32:cms_asn1.obj
 0002:00024104       ??_C@_06MMLMDIAL@d?4pwri?$AA@ 0008c104     libeay32:cms_asn1.obj
 0002:0002410c       ??_C@_07GNHCNHGA@d?4kekri?$AA@ 0008c10c     libeay32:cms_asn1.obj
 0002:00024114       ??_C@_06KOPOJGNL@d?4kari?$AA@ 0008c114     libeay32:cms_asn1.obj
 0002:0002411c       ??_C@_06MJDJDBHG@d?4ktri?$AA@ 0008c11c     libeay32:cms_asn1.obj
 0002:00024124       ??_C@_0BH@ELFPNLNE@CMS_OtherRecipientInfo?$AA@ 0008c124     libeay32:cms_asn1.obj
 0002:0002413c       ??_C@_08CPLCPCAK@oriValue?$AA@ 0008c13c     libeay32:cms_asn1.obj
 0002:00024148       ??_C@_07FAMFHMLO@oriType?$AA@ 0008c148     libeay32:cms_asn1.obj
 0002:00024150       ??_C@_0BK@KBPCOALF@CMS_PasswordRecipientInfo?$AA@ 0008c150     libeay32:cms_asn1.obj
 0002:0002416c       ??_C@_0BH@OGDBOKG@keyDerivationAlgorithm?$AA@ 0008c16c     libeay32:cms_asn1.obj
 0002:00024184       ??_C@_0BF@NBHFGDNK@CMS_KEKRecipientInfo?$AA@ 0008c184     libeay32:cms_asn1.obj
 0002:0002419c       ??_C@_05NHGMHHPG@kekid?$AA@ 0008c19c     libeay32:cms_asn1.obj
 0002:000241a4       ??_C@_0BC@MBEMIKEG@CMS_KEKIdentifier?$AA@ 0008c1a4     libeay32:cms_asn1.obj
 0002:000241b8       ??_C@_0O@NFJHJHKH@keyIdentifier?$AA@ 0008c1b8     libeay32:cms_asn1.obj
 0002:000241c8       ??_C@_0BK@FMJLFKK@CMS_KeyAgreeRecipientInfo?$AA@ 0008c1c8     libeay32:cms_asn1.obj
 0002:000241e4       ??_C@_0BH@PJIHPFGD@recipientEncryptedKeys?$AA@ 0008c1e4     libeay32:cms_asn1.obj
 0002:000241fc       ??_C@_03BGILEBGG@ukm?$AA@  0008c1fc     libeay32:cms_asn1.obj
 0002:00024200       ??_C@_0L@LNFLHOFG@originator?$AA@ 0008c200     libeay32:cms_asn1.obj
 0002:0002420c       ??_C@_0BO@EGGGKLC@CMS_OriginatorIdentifierOrKey?$AA@ 0008c20c     libeay32:cms_asn1.obj
 0002:0002422c       ??_C@_0BA@GMAGEPIK@d?4originatorKey?$AA@ 0008c22c     libeay32:cms_asn1.obj
 0002:0002423c       ??_C@_0BI@BANGJHOF@CMS_OriginatorPublicKey?$AA@ 0008c23c     libeay32:cms_asn1.obj
 0002:00024254       ??_C@_0BK@PEPAIBDP@CMS_RecipientEncryptedKey?$AA@ 0008c254     libeay32:cms_asn1.obj
 0002:00024270       ??_C@_0CA@LLLOPIGI@CMS_KeyAgreeRecipientIdentifier?$AA@ 0008c270     libeay32:cms_asn1.obj
 0002:00024290       ??_C@_08NDNCHPPH@d?4rKeyId?$AA@ 0008c290     libeay32:cms_asn1.obj
 0002:0002429c       ??_C@_0BL@KIFNEPBG@CMS_RecipientKeyIdentifier?$AA@ 0008c29c     libeay32:cms_asn1.obj
 0002:000242b8       ??_C@_05BGEKGIIP@other?$AA@ 0008c2b8     libeay32:cms_asn1.obj
 0002:000242c0       ??_C@_04JNIHBGGH@date?$AA@ 0008c2c0     libeay32:cms_asn1.obj
 0002:000242c8       ??_C@_0BG@MPKMCLOF@CMS_OtherKeyAttribute?$AA@ 0008c2c8     libeay32:cms_asn1.obj
 0002:000242e0       ??_C@_07CNMADOPK@keyAttr?$AA@ 0008c2e0     libeay32:cms_asn1.obj
 0002:000242e8       ??_C@_09FBOICBLA@keyAttrId?$AA@ 0008c2e8     libeay32:cms_asn1.obj
 0002:000242f4       ??_C@_0BK@JKNAJMBM@CMS_KeyTransRecipientInfo?$AA@ 0008c2f4     libeay32:cms_asn1.obj
 0002:00024310       ??_C@_0N@DJLGIBLA@encryptedKey?$AA@ 0008c310     libeay32:cms_asn1.obj
 0002:00024320       ??_C@_0BH@NBKKPKMP@keyEncryptionAlgorithm?$AA@ 0008c320     libeay32:cms_asn1.obj
 0002:00024338       ??_C@_03FJBKBGPI@rid?$AA@  0008c338     libeay32:cms_asn1.obj
 0002:0002433c       ??_C@_0BJ@IHPALOIM@CMS_EncryptedContentInfo?$AA@ 0008c33c     libeay32:cms_asn1.obj
 0002:00024358       ??_C@_0BB@HAOJNDCF@encryptedContent?$AA@ 0008c358     libeay32:cms_asn1.obj
 0002:0002436c       ??_C@_0BL@JFGGCGJK@contentEncryptionAlgorithm?$AA@ 0008c36c     libeay32:cms_asn1.obj
 0002:00024388       ??_C@_0BD@BOLANDH@CMS_OriginatorInfo?$AA@ 0008c388     libeay32:cms_asn1.obj
 0002:0002439c       ??_C@_0P@IFJHOEIE@CMS_SignedData?$AA@ 0008c39c     libeay32:cms_asn1.obj
 0002:000243ac       ??_C@_0M@OPIAHELE@signerInfos?$AA@ 0008c3ac     libeay32:cms_asn1.obj
 0002:000243b8       ??_C@_04GDKGHFBJ@crls?$AA@ 0008c3b8     libeay32:cms_asn1.obj
 0002:000243c0       ??_C@_0N@NGKEHKOM@certificates?$AA@ 0008c3c0     libeay32:cms_asn1.obj
 0002:000243d0       ??_C@_0BB@EFFJPOAL@encapContentInfo?$AA@ 0008c3d0     libeay32:cms_asn1.obj
 0002:000243e4       ??_C@_0BB@CMPBPEDI@digestAlgorithms?$AA@ 0008c3e4     libeay32:cms_asn1.obj
 0002:000243f8       ??_C@_0BJ@MJACOINL@CMS_RevocationInfoChoice?$AA@ 0008c3f8     libeay32:cms_asn1.obj
 0002:00024414       ??_C@_05BEAHECAN@d?4crl?$AA@ 0008c414     libeay32:cms_asn1.obj
 0002:0002441c       ??_C@_0BO@ONAFHMMC@CMS_OtherRevocationInfoFormat?$AA@ 0008c41c     libeay32:cms_asn1.obj
 0002:0002443c       ??_C@_0N@MOBLFMFA@otherRevInfo?$AA@ 0008c43c     libeay32:cms_asn1.obj
 0002:0002444c       ??_C@_0BD@HLCFDNLB@otherRevInfoFormat?$AA@ 0008c44c     libeay32:cms_asn1.obj
 0002:00024460       ??_C@_0P@HBMKILHF@CMS_SignerInfo?$AA@ 0008c460     libeay32:cms_asn1.obj
 0002:00024470       ??_C@_0O@PDNEMLFH@unsignedAttrs?$AA@ 0008c470     libeay32:cms_asn1.obj
 0002:00024480       ??_C@_0BD@CBMBFDMH@signatureAlgorithm?$AA@ 0008c480     libeay32:cms_asn1.obj
 0002:00024494       ??_C@_0M@MDGDHPDJ@signedAttrs?$AA@ 0008c494     libeay32:cms_asn1.obj
 0002:000244a0       ??_C@_0BA@OBGGJDDI@digestAlgorithm?$AA@ 0008c4a0     libeay32:cms_asn1.obj
 0002:000244b0       ??_C@_03OBKGHBJN@sid?$AA@  0008c4b0     libeay32:cms_asn1.obj
 0002:000244b4       ??_C@_0BM@FGCJFMKP@CMS_EncapsulatedContentInfo?$AA@ 0008c4b4     libeay32:cms_asn1.obj
 0002:000244d0       ??_C@_08OOKAKDHE@eContent?$AA@ 0008c4d0     libeay32:cms_asn1.obj
 0002:000244dc       ??_C@_0N@EBAJNGML@eContentType?$AA@ 0008c4dc     libeay32:cms_asn1.obj
 0002:000244ec       ??_C@_0BF@HIKDPBH@CMS_SignerIdentifier?$AA@ 0008c4ec     libeay32:cms_asn1.obj
 0002:00024504       ??_C@_0BH@LJLJDHKP@d?4subjectKeyIdentifier?$AA@ 0008c504     libeay32:cms_asn1.obj
 0002:0002451c       ??_C@_0BI@DNGDMGHK@d?4issuerAndSerialNumber?$AA@ 0008c51c     libeay32:cms_asn1.obj
 0002:00024534       ??_C@_0BH@CFNIJMB@CMS_CertificateChoices?$AA@ 0008c534     libeay32:cms_asn1.obj
 0002:0002454c       ??_C@_0N@FODDOFO@d?4v2AttrCert?$AA@ 0008c54c     libeay32:cms_asn1.obj
 0002:0002455c       ??_C@_0N@OONEIFFN@d?4v1AttrCert?$AA@ 0008c55c     libeay32:cms_asn1.obj
 0002:0002456c       ??_C@_0BG@NLAONGA@d?4extendedCertificate?$AA@ 0008c56c     libeay32:cms_asn1.obj
 0002:00024584       ??_C@_0O@MNFCNMPJ@d?4certificate?$AA@ 0008c584     libeay32:cms_asn1.obj
 0002:00024594       ??_C@_0BL@CACJFKMB@CMS_OtherCertificateFormat?$AA@ 0008c594     libeay32:cms_asn1.obj
 0002:000245b0       ??_C@_09CDBALEP@otherCert?$AA@ 0008c5b0     libeay32:cms_asn1.obj
 0002:000245bc       ??_C@_0BA@FEKMLOFK@otherCertFormat?$AA@ 0008c5bc     libeay32:cms_asn1.obj
 0002:000245cc       ??_C@_0BK@GLMHLHML@CMS_IssuerAndSerialNumber?$AA@ 0008c5cc     libeay32:cms_asn1.obj
 0002:00024614       ??_C@_0O@MABGKINF@timestampsign?$AA@ 0008c614     libeay32:v3_purp.obj
 0002:00024624       ??_C@_0BD@HLGKGIIB@Time?5Stamp?5signing?$AA@ 0008c624     libeay32:v3_purp.obj
 0002:00024638       ??_C@_0L@IMHCEJBK@ocsphelper?$AA@ 0008c638     libeay32:v3_purp.obj
 0002:00024644       ??_C@_0M@NEPIMEJA@OCSP?5helper?$AA@ 0008c644     libeay32:v3_purp.obj
 0002:00024650       ??_C@_03OBJFJEBA@any?$AA@  0008c650     libeay32:v3_purp.obj
 0002:00024654       ??_C@_0M@NMNFLNDB@Any?5Purpose?$AA@ 0008c654     libeay32:v3_purp.obj
 0002:00024660       ??_C@_07IOMCDAPH@crlsign?$AA@ 0008c660     libeay32:v3_purp.obj
 0002:00024668       ??_C@_0M@MEKLJHLA@CRL?5signing?$AA@ 0008c668     libeay32:v3_purp.obj
 0002:00024674       ??_C@_0N@BPFJELMP@smimeencrypt?$AA@ 0008c674     libeay32:v3_purp.obj
 0002:00024684       ??_C@_0BC@DOGNOPGC@S?1MIME?5encryption?$AA@ 0008c684     libeay32:v3_purp.obj
 0002:00024698       ??_C@_09JPGBHOKH@smimesign?$AA@ 0008c698     libeay32:v3_purp.obj
 0002:000246a4       ??_C@_0P@LNDEBCCO@S?1MIME?5signing?$AA@ 0008c6a4     libeay32:v3_purp.obj
 0002:000246b4       ??_C@_0M@GKHHMMAE@nssslserver?$AA@ 0008c6b4     libeay32:v3_purp.obj
 0002:000246c0       ??_C@_0BE@BPEJPGJG@Netscape?5SSL?5server?$AA@ 0008c6c0     libeay32:v3_purp.obj
 0002:000246d4       ??_C@_09FEILOJPJ@sslserver?$AA@ 0008c6d4     libeay32:v3_purp.obj
 0002:000246e0       ??_C@_0L@PNDNFADH@SSL?5server?$AA@ 0008c6e0     libeay32:v3_purp.obj
 0002:000246ec       ??_C@_09BLMJDCHK@sslclient?$AA@ 0008c6ec     libeay32:v3_purp.obj
 0002:000246f8       ??_C@_0L@LCHPILLE@SSL?5client?$AA@ 0008c6f8     libeay32:v3_purp.obj
 0002:00024708       ??_C@_0FA@EPMAEJOB@d?3?2wm653wehh?2platform?2mvv210?2src@ 0008c708     libeay32:v3_purp.obj
 0002:00024774       ??_C@_09DHMKJJNA@ASN1_TIME?$AA@ 0008c774     libeay32:a_time.obj
 0002:00024780       ??_C@_0EN@IOPKJOHJ@d?3?2wm653wehh?2platform?2mvv210?2src@ 0008c780     libeay32:a_time.obj
 0002:000247d0       X509_version               0008c7d0     libeay32:x509_vfy.obj
 0002:000247fc       ??_C@_07DLHCIBDH@default?$AA@ 0008c7fc     libeay32:x509_vfy.obj
 0002:00024808       ??_C@_0EN@MLHPIIH@d?3?2wm653wehh?2platform?2mvv210?2src@ 0008c808     libeay32:cms_lib.obj
 0002:00024858       ??_C@_0EM@MHADPNEH@d?3?2wm653wehh?2platform?2mvv210?2src@ 0008c858     libeay32:p_sign.obj
 0002:000248b8       ??_C@_0EP@ELMNNBNC@d?3?2wm653wehh?2platform?2mvv210?2src@ 0008c8b8     libeay32:x509_obj.obj
 0002:00024908       ??_C@_0N@MJCHLFGM@NO?5X509_NAME?$AA@ 0008c908     libeay32:x509_obj.obj
 0002:00024918       ??_C@_08DGFAABGD@?$DMEMPTY?$DO?6?$AA@ 0008c918     libeay32:v3_prn.obj
 0002:00024924       ??_C@_03HIJPJGOM@?$CF?$CKs?$AA@ 0008c924     libeay32:v3_prn.obj
 0002:00024928       ??_C@_08CBBMEOFB@critical?$AA@ 0008c928     libeay32:v3_prn.obj
 0002:00024934       ??_C@_07GOIIHCND@?$CF?$CKs?$CFs?3?6?$AA@ 0008c934     libeay32:v3_prn.obj
 0002:000249f8       ??_C@_02HDBGODGB@?2?2?$AA@ 0008c9f8     libeay32:a_strex.obj
 0002:000249fc       ??_C@_05JJPGCIKH@?2?$CF02X?$AA@ 0008c9fc     libeay32:a_strex.obj
 0002:00024a04       ??_C@_01KICIPPFI@?2?$AA@   0008ca04     libeay32:a_strex.obj
 0002:00024a08       ??_C@_07FDBPKGOC@?2U?$CF04lX?$AA@ 0008ca08     libeay32:a_strex.obj
 0002:00024a10       ??_C@_07IOFGAIHD@?2W?$CF08lX?$AA@ 0008ca10     libeay32:a_strex.obj
 0002:00024a18       ??_C@_0EO@POPABNG@d?3?2wm653wehh?2platform?2mvv210?2src@ 0008ca18     libeay32:a_strex.obj
 0002:00024a68       ??_C@_01IPJKGB@?$CD?$AA@   0008ca68     libeay32:a_strex.obj
 0002:00024a6c       ??_C@_01BJJEKLCA@?$CC?$AA@ 0008ca6c     libeay32:a_strex.obj
 0002:00024a70       ??_C@_01NEMOKFLO@?$DN?$AA@ 0008ca70     libeay32:a_strex.obj
 0002:00024a74       ??_C@_03MHLONNLM@?5?$DN?5?$AA@ 0008ca74     libeay32:a_strex.obj
 0002:00024a78       ??_C@_01IHBHIGKO@?0?$AA@   0008ca78     libeay32:a_strex.obj
 0002:00024a7c       ??_C@_01MIFGBAGJ@?$CL?$AA@ 0008ca7c     libeay32:a_strex.obj
 0002:00024a80       ??_C@_02LNAEAIDO@?$DL?5?$AA@ 0008ca80     libeay32:a_strex.obj
 0002:00024a84       ??_C@_03NPBFACHO@?5?$CL?5?$AA@ 0008ca84     libeay32:a_strex.obj
 0002:00024a88       ??_C@_0EN@CBCEBCDK@d?3?2wm653wehh?2platform?2mvv210?2src@ 0008ca88     libeay32:cms_enc.obj
 0002:00024ad8       ??_C@_0EO@PHNCOBFO@d?3?2wm653wehh?2platform?2mvv210?2src@ 0008cad8     libeay32:pmeth_fn.obj
 0002:00024b30       AES_version                0008cb30     libeay32:aes_misc.obj
 0002:00024b58       ??_C@_0EO@LKMDOFNL@d?3?2wm653wehh?2platform?2mvv210?2src@ 0008cb58     libeay32:cms_pwri.obj
 0002:00024ba8       ??_C@_0EN@MHHCMNBH@d?3?2wm653wehh?2platform?2mvv210?2src@ 0008cba8     libeay32:a_enum.obj
 0002:00024bf8       ??_C@_0EP@KFOAJJMD@d?3?2wm653wehh?2platform?2mvv210?2src@ 0008cbf8     libeay32:x509name.obj
 0002:00024c48       ??_C@_05DFCJAACA@name?$DN?$AA@ 0008cc48     libeay32:x509name.obj
 0002:00024cc4       v3_sinfo                   0008ccc4     libeay32:v3_info.obj
 0002:00024cfc       v3_info                    0008ccfc     libeay32:v3_info.obj
 0002:00024d34       ??_C@_0BG@PFEKCAHJ@AUTHORITY_INFO_ACCESS?$AA@ 0008cd34     libeay32:v3_info.obj
 0002:00024d4c       ??_C@_0N@CJKIBDLK@GeneralNames?$AA@ 0008cd4c     libeay32:v3_info.obj
 0002:00024d5c       ??_C@_0BD@IKHCEBLA@ACCESS_DESCRIPTION?$AA@ 0008cd5c     libeay32:v3_info.obj
 0002:00024d70       ??_C@_08CBBFJFMD@location?$AA@ 0008cd70     libeay32:v3_info.obj
 0002:00024d7c       ??_C@_06GABBCIBA@method?$AA@ 0008cd7c     libeay32:v3_info.obj
 0002:00024d84       ??_C@_03NLJIHOMM@?5?9?5?$AA@ 0008cd84     libeay32:v3_info.obj
 0002:00024d88       ??_C@_0FA@EJINBECP@d?3?2wm653wehh?2platform?2mvv210?2src@ 0008cd88     libeay32:v3_info.obj
 0002:00024dd8       ??_C@_06KFEJCPI@value?$DN?$AA@ 0008cdd8     libeay32:v3_info.obj
 0002:00024de0       ??_C@_0EP@JMDNBNIF@d?3?2wm653wehh?2platform?2mvv210?2src@ 0008cde0     libeay32:conf_mod.obj
 0002:00024e30       ??_C@_01KMDKNFGN@?1?$AA@   0008ce30     libeay32:conf_mod.obj
 0002:00024fc4       ??_C@_0O@NFAAPMIG@GENERAL_NAMES?$AA@ 0008cfc4     libeay32:v3_genn.obj
 0002:00024fd4       ??_C@_0N@JCNPGCGM@GENERAL_NAME?$AA@ 0008cfd4     libeay32:v3_genn.obj
 0002:00024fe4       ??_C@_0P@KIENIEMD@d?4registeredID?$AA@ 0008cfe4     libeay32:v3_genn.obj
 0002:00024ff4       ??_C@_0M@PANAALJB@d?4iPAddress?$AA@ 0008cff4     libeay32:v3_genn.obj
 0002:00025000       ??_C@_0BM@CMCMADCA@d?4uniformResourceIdentifier?$AA@ 0008d000     libeay32:v3_genn.obj
 0002:0002501c       ??_C@_0P@OBCPPLOL@d?4ediPartyName?$AA@ 0008d01c     libeay32:v3_genn.obj
 0002:0002502c       ??_C@_0BA@JLDFBFLN@d?4directoryName?$AA@ 0008d02c     libeay32:v3_genn.obj
 0002:0002503c       ??_C@_0O@NKHOODFK@d?4x400Address?$AA@ 0008d03c     libeay32:v3_genn.obj
 0002:0002504c       ??_C@_09HIBJABFB@d?4dNSName?$AA@ 0008d04c     libeay32:v3_genn.obj
 0002:00025058       ??_C@_0N@MMCCMIPN@d?4rfc822Name?$AA@ 0008d058     libeay32:v3_genn.obj
 0002:00025068       ??_C@_0M@FGIBMCEL@d?4otherName?$AA@ 0008d068     libeay32:v3_genn.obj
 0002:00025074       ??_C@_0N@GEILLNKP@EDIPARTYNAME?$AA@ 0008d074     libeay32:v3_genn.obj
 0002:00025084       ??_C@_09EHIHAIPF@partyName?$AA@ 0008d084     libeay32:v3_genn.obj
 0002:00025090       ??_C@_0N@KBFEHHDO@nameAssigner?$AA@ 0008d090     libeay32:v3_genn.obj
 0002:000250a0       ??_C@_09MAFAINAH@OTHERNAME?$AA@ 0008d0a0     libeay32:v3_genn.obj
 0002:000250ac       ??_C@_07EEDOJOAA@type_id?$AA@ 0008d0ac     libeay32:v3_genn.obj
 0002:0002513c       ??_C@_0BA@JCMMJNEE@X509_EXTENSIONS?$AA@ 0008d13c     libeay32:x_exten.obj
 0002:0002514c       ??_C@_09KMFOEAAA@Extension?$AA@ 0008d14c     libeay32:x_exten.obj
 0002:00025158       ??_C@_0P@OMHBNPIC@X509_EXTENSION?$AA@ 0008d158     libeay32:x_exten.obj
 0002:000251ac       ??_C@_09FLJPBFIA@ECDSA_SIG?$AA@ 0008d1ac     libeay32:ecs_asn1.obj
 0002:000251b8       ECDH_version               0008d1b8     libeay32:ech_lib.obj
 0002:000251e0       ??_C@_0EO@JGKBLENE@d?3?2wm653wehh?2platform?2mvv210?2src@ 0008d1e0     libeay32:ech_lib.obj
 0002:00025230       ??_C@_0BF@JMOFLBJO@keylen?5?$DM?$DN?5sizeof?5key?$AA@ 0008d230     libeay32:p5_crpt2.obj
 0002:00025248       ??_C@_0EO@DONPFFAH@d?3?2wm653wehh?2platform?2mvv210?2src@ 0008d248     libeay32:p5_crpt2.obj
 0002:00025298       ??_C@_0FB@IJLBCKEP@d?3?2wm653wehh?2platform?2mvv210?2src@ 0008d298     libeay32:p12_crpt.obj
 0002:000252ec       ??_C@_0CD@HMFJNEFL@EVP_CIPHER_iv_length?$CIcipher?$CJ?5?$DM?$DN?5@ 0008d2ec     libeay32:p5_crpt.obj
 0002:00025310       ??_C@_0DF@FHOHFFEB@EVP_CIPHER_key_length?$CIcipher?$CJ?5?$DM?$DN@ 0008d310     libeay32:p5_crpt.obj
 0002:00025348       ??_C@_0EN@DFHCIHFJ@d?3?2wm653wehh?2platform?2mvv210?2src@ 0008d348     libeay32:p5_crpt.obj
 0002:00025438       ??_C@_0EN@IKCJFOCD@d?3?2wm653wehh?2platform?2mvv210?2src@ 0008d438     libeay32:ecp_smpl.obj
 0002:00025938       ??_C@_0EN@JCJEBHDE@d?3?2wm653wehh?2platform?2mvv210?2src@ 0008d938     libeay32:ec2_mult.obj
 0002:000259c8       ??_C@_0EM@KOFLLDDI@d?3?2wm653wehh?2platform?2mvv210?2src@ 0008d9c8     libeay32:bn_gf2m.obj
 0002:00025a18       ??_C@_0FC@NLMGEGGH@d?3?2wm653wehh?2platform?2mvv210?2src@ 0008da18     libeay32:tb_cipher.obj
 0002:00025a70       ??_C@_0EM@IBBLLJFJ@d?3?2wm653wehh?2platform?2mvv210?2src@ 0008da70     libeay32:ec2_oct.obj
 0002:00025ac0       ??_C@_0EM@OKKDHMMJ@d?3?2wm653wehh?2platform?2mvv210?2src@ 0008dac0     libeay32:ecp_oct.obj
 0002:00025b10       ??_C@_0FA@NNAIMOGG@d?3?2wm653wehh?2platform?2mvv210?2src@ 0008db10     libeay32:pk7_doit.obj
 0002:00025b60       ??_C@_0M@FCFDJGIC@?$CF?$CKs?$DMEMPTY?$DO?6?$AA@ 0008db60     libeay32:tasn_prn.obj
 0002:00025b6c       ??_C@_08POLPFBMC@SEQUENCE?$AA@ 0008db6c     libeay32:tasn_prn.obj
 0002:00025b78       ??_C@_03KPIFFHNE@SET?$AA@  0008db78     libeay32:tasn_prn.obj
 0002:00025bc0       ??_C@_08OPPGEJIL@X509_VAL?$AA@ 0008dbc0     libeay32:x_val.obj
 0002:00025bcc       ??_C@_08PJIFIJBI@notAfter?$AA@ 0008dbcc     libeay32:x_val.obj
 0002:00025bd8       ??_C@_09MJPOMOII@notBefore?$AA@ 0008dbd8     libeay32:x_val.obj
 0002:00025c44       v3_name_constraints        0008dc44     libeay32:v3_ncons.obj
 0002:00025cb8       ??_C@_0BB@MLLJAFMN@NAME_CONSTRAINTS?$AA@ 0008dcb8     libeay32:v3_ncons.obj
 0002:00025ccc       ??_C@_0BB@HLFEMJKE@excludedSubtrees?$AA@ 0008dccc     libeay32:v3_ncons.obj
 0002:00025ce0       ??_C@_0BC@FACFJLFB@permittedSubtrees?$AA@ 0008dce0     libeay32:v3_ncons.obj
 0002:00025cf4       ??_C@_0BA@ECMIFHDE@GENERAL_SUBTREE?$AA@ 0008dcf4     libeay32:v3_ncons.obj
 0002:00025d04       ??_C@_07MEIENILC@maximum?$AA@ 0008dd04     libeay32:v3_ncons.obj
 0002:00025d0c       ??_C@_07CCOEHHFD@minimum?$AA@ 0008dd0c     libeay32:v3_ncons.obj
 0002:00025d18       ??_C@_0FB@NFBAFBGE@d?3?2wm653wehh?2platform?2mvv210?2src@ 0008dd18     libeay32:v3_ncons.obj
 0002:00025d6c       ??_C@_08HPCEJEEF@excluded?$AA@ 0008dd6c     libeay32:v3_ncons.obj
 0002:00025d78       ??_C@_09HAKFOFAM@permitted?$AA@ 0008dd78     libeay32:v3_ncons.obj
 0002:00025d84       ??_C@_0BF@JMMIKJMP@IP?5Address?3?$DMinvalid?$DO?$AA@ 0008dd84     libeay32:v3_ncons.obj
 0002:00025d9c       ??_C@_02EMFKHFLK@?$CFX?$AA@ 0008dd9c     libeay32:v3_ncons.obj
 0002:00025da0       ??_C@_0BI@IFNIGPEJ@?$CFd?4?$CFd?4?$CFd?4?$CFd?1?$CFd?4?$CFd?4?$CFd?4?$CFd?$AA@ 0008dda0     libeay32:v3_ncons.obj
 0002:00025db8       ??_C@_03HBLCMHJN@IP?3?$AA@ 0008ddb8     libeay32:v3_ncons.obj
 0002:00025dbc       ??_C@_09DPPIOGNM@Permitted?$AA@ 0008ddbc     libeay32:v3_ncons.obj
 0002:00025dc8       ??_C@_08PNNFBGOG@Excluded?$AA@ 0008ddc8     libeay32:v3_ncons.obj
 0002:00025e9c       v3_idp                     0008de9c     libeay32:v3_crld.obj
 0002:00025ed4       v3_freshest_crl            0008ded4     libeay32:v3_crld.obj
 0002:00025f0c       v3_crld                    0008df0c     libeay32:v3_crld.obj
 0002:00026070       ??_C@_0BD@ENBCPHJ@ISSUING_DIST_POINT?$AA@ 0008e070     libeay32:v3_crld.obj
 0002:00026084       ??_C@_08DBIINPPL@onlyattr?$AA@ 0008e084     libeay32:v3_crld.obj
 0002:00026090       ??_C@_0M@BECDICJC@indirectCRL?$AA@ 0008e090     libeay32:v3_crld.obj
 0002:0002609c       ??_C@_0BA@FNMBIJDN@onlysomereasons?$AA@ 0008e09c     libeay32:v3_crld.obj
 0002:000260ac       ??_C@_06PMNIEKCA@onlyCA?$AA@ 0008e0ac     libeay32:v3_crld.obj
 0002:000260b4       ??_C@_08CENLBPEH@onlyuser?$AA@ 0008e0b4     libeay32:v3_crld.obj
 0002:000260c0       ??_C@_0BA@BBHAIMOE@CRL_DIST_POINTS?$AA@ 0008e0c0     libeay32:v3_crld.obj
 0002:000260d0       ??_C@_0BG@CHNNADAE@CRLDistributionPoints?$AA@ 0008e0d0     libeay32:v3_crld.obj
 0002:000260e8       ??_C@_0L@ELIKPJIH@DIST_POINT?$AA@ 0008e0e8     libeay32:v3_crld.obj
 0002:000260f4       ??_C@_09GJHADLCP@CRLissuer?$AA@ 0008e0f4     libeay32:v3_crld.obj
 0002:00026100       ??_C@_07PFOCLIJD@reasons?$AA@ 0008e100     libeay32:v3_crld.obj
 0002:00026108       ??_C@_09FBDFGJDL@distpoint?$AA@ 0008e108     libeay32:v3_crld.obj
 0002:00026114       ??_C@_0BA@MLHIPLLG@DIST_POINT_NAME?$AA@ 0008e114     libeay32:v3_crld.obj
 0002:00026124       ??_C@_0BC@JDMJBKME@name?4relativename?$AA@ 0008e124     libeay32:v3_crld.obj
 0002:00026138       ??_C@_0O@HJHJCLAE@name?4fullname?$AA@ 0008e138     libeay32:v3_crld.obj
 0002:00026148       ??_C@_0N@LOIIODKP@AACompromise?$AA@ 0008e148     libeay32:v3_crld.obj
 0002:00026158       ??_C@_0O@PAGOKAK@AA?5Compromise?$AA@ 0008e158     libeay32:v3_crld.obj
 0002:00026168       ??_C@_0BD@PBLGJKCE@privilegeWithdrawn?$AA@ 0008e168     libeay32:v3_crld.obj
 0002:0002617c       ??_C@_0BE@FJCCMGMM@Privilege?5Withdrawn?$AA@ 0008e17c     libeay32:v3_crld.obj
 0002:00026190       ??_C@_0BA@FBHLCNLK@certificateHold?$AA@ 0008e190     libeay32:v3_crld.obj
 0002:000261a0       ??_C@_0BB@IPDHDNJD@Certificate?5Hold?$AA@ 0008e1a0     libeay32:v3_crld.obj
 0002:000261b4       ??_C@_0BF@IGJCOPF@cessationOfOperation?$AA@ 0008e1b4     libeay32:v3_crld.obj
 0002:000261cc       ??_C@_0BH@OLCOAMGF@Cessation?5Of?5Operation?$AA@ 0008e1cc     libeay32:v3_crld.obj
 0002:000261e4       ??_C@_0L@NHCKNIFL@superseded?$AA@ 0008e1e4     libeay32:v3_crld.obj
 0002:000261f0       ??_C@_0L@FBLGFHIM@Superseded?$AA@ 0008e1f0     libeay32:v3_crld.obj
 0002:000261fc       ??_C@_0BD@BNOFAJLL@affiliationChanged?$AA@ 0008e1fc     libeay32:v3_crld.obj
 0002:00026210       ??_C@_0BE@EECEIFAP@Affiliation?5Changed?$AA@ 0008e210     libeay32:v3_crld.obj
 0002:00026224       ??_C@_0N@NONEFGOE@CACompromise?$AA@ 0008e224     libeay32:v3_crld.obj
 0002:00026234       ??_C@_0O@OOGICOKH@CA?5Compromise?$AA@ 0008e234     libeay32:v3_crld.obj
 0002:00026244       ??_C@_0O@MCEAAJLH@keyCompromise?$AA@ 0008e244     libeay32:v3_crld.obj
 0002:00026254       ??_C@_0P@JENDIECI@Key?5Compromise?$AA@ 0008e254     libeay32:v3_crld.obj
 0002:00026264       ??_C@_06OJAIHGIC@unused?$AA@ 0008e264     libeay32:v3_crld.obj
 0002:0002626c       ??_C@_06CGLFEPBO@Unused?$AA@ 0008e26c     libeay32:v3_crld.obj
 0002:00026278       ??_C@_0FA@EFIBGCB@d?3?2wm653wehh?2platform?2mvv210?2src@ 0008e278     libeay32:v3_crld.obj
 0002:000262c8       ??_C@_0L@NHIBCNGO@?$CF?$CKs?$CFs?3?6?$CF?$CKs?$AA@ 0008e2c8     libeay32:v3_crld.obj
 0002:000262d4       ??_C@_0BG@GIOHENJJ@?$CF?$CKsRelative?5Name?3?6?$CF?$CKs?$AA@ 0008e2d4     libeay32:v3_crld.obj
 0002:000262ec       ??_C@_0P@DKAHDIGH@?$CF?$CKsFull?5Name?3?6?$AA@ 0008e2ec     libeay32:v3_crld.obj
 0002:000262fc       ??_C@_0CA@IIIJNMJM@?$CF?$CKsOnly?5Attribute?5Certificates?6?$AA@ 0008e2fc     libeay32:v3_crld.obj
 0002:0002631c       ??_C@_0BC@JDEOGEEL@Only?5Some?5Reasons?$AA@ 0008e31c     libeay32:v3_crld.obj
 0002:00026330       ??_C@_0BB@FLBIDOKD@?$CF?$CKsIndirect?5CRL?6?$AA@ 0008e330     libeay32:v3_crld.obj
 0002:00026344       ??_C@_0BJ@GKBBKMLO@?$CF?$CKsOnly?5CA?5Certificates?6?$AA@ 0008e344     libeay32:v3_crld.obj
 0002:00026360       ??_C@_0BL@FLJCHEKF@?$CF?$CKsOnly?5User?5Certificates?6?$AA@ 0008e360     libeay32:v3_crld.obj
 0002:0002637c       ??_C@_0BA@NBJIBLNE@?$CF?$CKsCRL?5Issuer?3?6?$AA@ 0008e37c     libeay32:v3_crld.obj
 0002:0002638c       ??_C@_07MJENKMF@Reasons?$AA@ 0008e38c     libeay32:v3_crld.obj
 0002:00026394       ??_C@_0N@LGEOMMHB@relativename?$AA@ 0008e394     libeay32:v3_crld.obj
 0002:000263a4       ??_C@_08BMACPLOA@fullname?$AA@ 0008e3a4     libeay32:v3_crld.obj
 0002:000263b0       ??_C@_06PPFMJOEO@onlyAA?$AA@ 0008e3b0     libeay32:v3_crld.obj
 0002:00026410       ??_C@_0BA@OPHCNPAP@AUTHORITY_KEYID?$AA@ 0008e410     libeay32:v3_akeya.obj
 0002:00026420       ??_C@_05CNHMOIOC@keyid?$AA@ 0008e420     libeay32:v3_akeya.obj
 0002:000264ec       ??_C@_0P@BDECDGPA@X509_CERT_PAIR?$AA@ 0008e4ec     libeay32:x_x509a.obj
 0002:000264fc       ??_C@_07KOIEOCCE@reverse?$AA@ 0008e4fc     libeay32:x_x509a.obj
 0002:00026504       ??_C@_07CJMBKHEI@forward?$AA@ 0008e504     libeay32:x_x509a.obj
 0002:0002650c       ??_C@_0O@LJIIOIG@X509_CERT_AUX?$AA@ 0008e50c     libeay32:x_x509a.obj
 0002:0002651c       ??_C@_05NKHOCLEE@alias?$AA@ 0008e51c     libeay32:x_x509a.obj
 0002:00026524       ??_C@_06JPOFNODM@reject?$AA@ 0008e524     libeay32:x_x509a.obj
 0002:0002652c       ??_C@_05BMJJJIHB@trust?$AA@ 0008e52c     libeay32:x_x509a.obj
 0002:00026538       ??_C@_0EP@FNGDBEGO@d?3?2wm653wehh?2platform?2mvv210?2src@ 0008e538     libeay32:a_verify.obj
 0002:000265d8       ??_C@_0EM@EIEBKGJ@d?3?2wm653wehh?2platform?2mvv210?2src@ 0008e5d8     libeay32:cms_io.obj
 0002:000266ac       ??_C@_0BK@PILNOGHK@PROXY_CERT_INFO_EXTENSION?$AA@ 0008e6ac     libeay32:v3_pcia.obj
 0002:000266c8       ??_C@_0M@KKFBCGOG@proxyPolicy?$AA@ 0008e6c8     libeay32:v3_pcia.obj
 0002:000266d4       ??_C@_0BH@JBGKCLHC@pcPathLengthConstraint?$AA@ 0008e6d4     libeay32:v3_pcia.obj
 0002:000266ec       ??_C@_0N@CLKEFBDI@PROXY_POLICY?$AA@ 0008e6ec     libeay32:v3_pcia.obj
 0002:000266fc       ??_C@_06NJNJNICG@policy?$AA@ 0008e6fc     libeay32:v3_pcia.obj
 0002:00026704       ??_C@_0P@BLMEJDMO@policyLanguage?$AA@ 0008e704     libeay32:v3_pcia.obj
 0002:00026758       v3_bcons                   0008e758     libeay32:v3_bcons.obj
 0002:00026790       ??_C@_0BC@PKPCGCD@BASIC_CONSTRAINTS?$AA@ 0008e790     libeay32:v3_bcons.obj
 0002:000267a4       ??_C@_07OGCPICFF@pathlen?$AA@ 0008e7a4     libeay32:v3_bcons.obj
 0002:000267ac       ??_C@_02DGMJAJHC@ca?$AA@   0008e7ac     libeay32:v3_bcons.obj
 0002:000267b0       ??_C@_02JLAAGLDA@CA?$AA@   0008e7b0     libeay32:v3_bcons.obj
 0002:000267b8       ??_C@_0FB@ICLPEECL@d?3?2wm653wehh?2platform?2mvv210?2src@ 0008e7b8     libeay32:v3_bcons.obj
 0002:00026854       ??_C@_0BK@EMDNDBLP@?$CF04d?$CF02d?$CF02d?$CF02d?$CF02d?$CF02dZ?$AA@ 0008e854     libeay32:a_gentm.obj
 0002:00026870       ??_C@_0EO@HIOEHCAC@d?3?2wm653wehh?2platform?2mvv210?2src@ 0008e870     libeay32:a_gentm.obj
 0002:00026900       ??_C@_0BK@PMAAGDOP@?$CF02d?$CF02d?$CF02d?$CF02d?$CF02d?$CF02dZ?$AA@ 0008e900     libeay32:a_utctm.obj
 0002:00026920       ??_C@_0EO@DLENMAPA@d?3?2wm653wehh?2platform?2mvv210?2src@ 0008e920     libeay32:a_utctm.obj
 0002:00026970       ??_C@_0EP@COKBPCCM@d?3?2wm653wehh?2platform?2mvv210?2src@ 0008e970     libeay32:x509_att.obj
 0002:000269c0       ??_C@_0L@CFEJKCOD@TSA?5server?$AA@ 0008e9c0     libeay32:x509_trs.obj
 0002:000269cc       ??_C@_0N@CAJJAOJD@OCSP?5request?$AA@ 0008e9cc     libeay32:x509_trs.obj
 0002:000269dc       ??_C@_0P@JHCOMJOI@OCSP?5responder?$AA@ 0008e9dc     libeay32:x509_trs.obj
 0002:000269ec       ??_C@_0O@EEPBMPKP@Object?5Signer?$AA@ 0008e9ec     libeay32:x509_trs.obj
 0002:000269fc       ??_C@_0N@OEEPKGPL@S?1MIME?5email?$AA@ 0008e9fc     libeay32:x509_trs.obj
 0002:00026a0c       ??_C@_0L@DCIAGJKL@SSL?5Server?$AA@ 0008ea0c     libeay32:x509_trs.obj
 0002:00026a18       ??_C@_0L@HNMCLCCI@SSL?5Client?$AA@ 0008ea18     libeay32:x509_trs.obj
 0002:00026a24       ??_C@_0L@JNOGJJCA@compatible?$AA@ 0008ea24     libeay32:x509_trs.obj
 0002:00026ad0       ??_C@_0L@MDHNNNKP@ssl_server?$AA@ 0008ead0     libeay32:x509_vpm.obj
 0002:00026adc       ??_C@_0L@IMDPAGCM@ssl_client?$AA@ 0008eadc     libeay32:x509_vpm.obj
 0002:00026ae8       ??_C@_0L@GGDBHMO@smime_sign?$AA@ 0008eae8     libeay32:x509_vpm.obj
 0002:00026af4       ??_C@_0P@ONGHGJEC@message?5digest?$AA@ 0008eaf4     libeay32:bio_md.obj
 0002:00026b04       ??_C@_0O@DIEIKEFB@memory?5buffer?$AA@ 0008eb04     libeay32:bss_mem.obj
 0002:00026b18       ??_C@_0EN@IFBMAPDF@d?3?2wm653wehh?2platform?2mvv210?2src@ 0008eb18     libeay32:bss_mem.obj
 0002:00026b68       ??_C@_0EM@CLBFFJNJ@d?3?2wm653wehh?2platform?2mvv210?2src@ 0008eb68     libeay32:cms_dd.obj
 0002:00026c3c       ??_C@_09BIBABMFN@BMPSTRING?$AA@ 0008ec3c     libeay32:asn1_par.obj
 0002:00026c48       ??_C@_09FGHEBGDO@?$DMASN1?529?$DO?$AA@ 0008ec48     libeay32:asn1_par.obj
 0002:00026c54       ??_C@_0BA@EJHHDALK@UNIVERSALSTRING?$AA@ 0008ec54     libeay32:asn1_par.obj
 0002:00026c64       ??_C@_0O@DKDEPFLO@GENERALSTRING?$AA@ 0008ec64     libeay32:asn1_par.obj
 0002:00026c74       ??_C@_0O@KDAJCBO@VISIBLESTRING?$AA@ 0008ec74     libeay32:asn1_par.obj
 0002:00026c84       ??_C@_0O@MABADFB@GRAPHICSTRING?$AA@ 0008ec84     libeay32:asn1_par.obj
 0002:00026c94       ??_C@_0BA@LKNBIJBB@GENERALIZEDTIME?$AA@ 0008ec94     libeay32:asn1_par.obj
 0002:00026ca4       ??_C@_07HIOLDDN@UTCTIME?$AA@ 0008eca4     libeay32:asn1_par.obj
 0002:00026cac       ??_C@_09JOMPLKGB@IA5STRING?$AA@ 0008ecac     libeay32:asn1_par.obj
 0002:00026cb8       ??_C@_0P@LNAMNBEL@VIDEOTEXSTRING?$AA@ 0008ecb8     libeay32:asn1_par.obj
 0002:00026cc8       ??_C@_09FMBHBANP@T61STRING?$AA@ 0008ecc8     libeay32:asn1_par.obj
 0002:00026cd4       ??_C@_0BA@FKHILLED@PRINTABLESTRING?$AA@ 0008ecd4     libeay32:asn1_par.obj
 0002:00026ce4       ??_C@_0O@DFADMOGA@NUMERICSTRING?$AA@ 0008ece4     libeay32:asn1_par.obj
 0002:00026cf4       ??_C@_09ENNLEALE@?$DMASN1?515?$DO?$AA@ 0008ecf4     libeay32:asn1_par.obj
 0002:00026d00       ??_C@_09EMBJCKID@?$DMASN1?514?$DO?$AA@ 0008ed00     libeay32:asn1_par.obj
 0002:00026d0c       ??_C@_09EJFGDMAG@?$DMASN1?513?$DO?$AA@ 0008ed0c     libeay32:asn1_par.obj
 0002:00026d18       ??_C@_0L@DCBPGANN@UTF8STRING?$AA@ 0008ed18     libeay32:asn1_par.obj
 0002:00026d24       ??_C@_09EKNCOIGI@?$DMASN1?511?$DO?$AA@ 0008ed24     libeay32:asn1_par.obj
 0002:00026d30       ??_C@_0L@KNIEMAKM@ENUMERATED?$AA@ 0008ed30     libeay32:asn1_par.obj
 0002:00026d3c       ??_C@_04PKFANLLI@REAL?$AA@ 0008ed3c     libeay32:asn1_par.obj
 0002:00026d44       ??_C@_08JHLDEHEK@EXTERNAL?$AA@ 0008ed44     libeay32:asn1_par.obj
 0002:00026d50       ??_C@_0BC@HDOCNDIH@OBJECT?5DESCRIPTOR?$AA@ 0008ed50     libeay32:asn1_par.obj
 0002:00026d64       ??_C@_06IAMCMNFI@OBJECT?$AA@ 0008ed64     libeay32:asn1_par.obj
 0002:00026d6c       ??_C@_0N@KPGGMDFC@OCTET?5STRING?$AA@ 0008ed6c     libeay32:asn1_par.obj
 0002:00026d7c       ??_C@_0L@EKOKPLKE@BIT?5STRING?$AA@ 0008ed7c     libeay32:asn1_par.obj
 0002:00026d88       ??_C@_07EHCIHKNF@INTEGER?$AA@ 0008ed88     libeay32:asn1_par.obj
 0002:00026d90       ??_C@_07JDEDMABE@BOOLEAN?$AA@ 0008ed90     libeay32:asn1_par.obj
 0002:00026d98       ??_C@_03NCODFONH@EOC?$AA@  0008ed98     libeay32:asn1_par.obj
 0002:00026d9c       ??_C@_09GPGAJHPD@?$CIunknown?$CJ?$AA@ 0008ed9c     libeay32:asn1_par.obj
 0002:00026da8       ??_C@_0M@PCEPOGPN@?8?$CI?$CJ?$CL?0?9?4?1?3?$DN?$DP?$AA@ 0008eda8     libeay32:a_mbstr.obj
 0002:00026db4       ??_C@_08EOPONIBF@maxsize?$DN?$AA@ 0008edb4     libeay32:a_mbstr.obj
 0002:00026dc0       ??_C@_03JALODAI@?$CFld?$AA@ 0008edc0     libeay32:a_mbstr.obj
 0002:00026dc4       ??_C@_08JJBFGKFE@minsize?$DN?$AA@ 0008edc4     libeay32:a_mbstr.obj
 0002:00026dd0       ??_C@_0EO@JLLBAGMI@d?3?2wm653wehh?2platform?2mvv210?2src@ 0008edd0     libeay32:a_mbstr.obj
 0002:00026e20       ??_C@_0EN@GEIMIMFD@d?3?2wm653wehh?2platform?2mvv210?2src@ 0008ee20     libeay32:bio_enc.obj
 0002:00029048       ??_C@_0M@DPMJHKGH@PBKDF2PARAM?$AA@ 00091048     libeay32:p5_pbev2.obj
 0002:00029054       ??_C@_03NBFGPAGA@prf?$AA@  00091054     libeay32:p5_pbev2.obj
 0002:00029058       ??_C@_09PKJJLJJD@keylength?$AA@ 00091058     libeay32:p5_pbev2.obj
 0002:00029064       ??_C@_04BKLHDIKK@iter?$AA@ 00091064     libeay32:p5_pbev2.obj
 0002:0002906c       ??_C@_04OKLIMCN@salt?$AA@  0009106c     libeay32:p5_pbev2.obj
 0002:00029074       ??_C@_09DHBCCKCK@PBE2PARAM?$AA@ 00091074     libeay32:p5_pbev2.obj
 0002:00029080       ??_C@_0L@HBBFMHKN@encryption?$AA@ 00091080     libeay32:p5_pbev2.obj
 0002:0002908c       ??_C@_07KEPFKPDN@keyfunc?$AA@ 0009108c     libeay32:p5_pbev2.obj
 0002:00029218       v3_alt                     00091218     libeay32:v3_alt.obj
 0002:000292c0       ??_C@_0O@KAIENCPE@Registered?5ID?$AA@ 000912c0     libeay32:v3_alt.obj
 0002:000292d0       ??_C@_09DPMBDOD@?$DMinvalid?$DO?$AA@ 000912d0     libeay32:v3_alt.obj
 0002:000292dc       ??_C@_0L@NGHMMCPJ@IP?5Address?$AA@ 000912dc     libeay32:v3_alt.obj
 0002:000292e8       ??_C@_07FDBCPIKC@DirName?$AA@ 000912e8     libeay32:v3_alt.obj
 0002:000292f0       ??_C@_03GMOLNBOB@URI?$AA@  000912f0     libeay32:v3_alt.obj
 0002:000292f4       ??_C@_03CBFPEBNE@DNS?$AA@  000912f4     libeay32:v3_alt.obj
 0002:000292f8       ??_C@_05HKHCDHCL@email?$AA@ 000912f8     libeay32:v3_alt.obj
 0002:00029300       ??_C@_0N@EEELPIKD@EdiPartyName?$AA@ 00091300     libeay32:v3_alt.obj
 0002:00029310       ??_C@_08EBDOEGJI@X400Name?$AA@ 00091310     libeay32:v3_alt.obj
 0002:0002931c       ??_C@_0O@NHCJKCDC@?$DMunsupported?$DO?$AA@ 0009131c     libeay32:v3_alt.obj
 0002:0002932c       ??_C@_09PAKBLAPA@othername?$AA@ 0009132c     libeay32:v3_alt.obj
 0002:00029338       ??_C@_03NMJGLHB@?3?$CFX?$AA@ 00091338     libeay32:v3_alt.obj
 0002:0002933c       ??_C@_0BH@OAMIHBGI@IP?5Address?3?$CFd?4?$CFd?4?$CFd?4?$CFd?$AA@ 0009133c     libeay32:v3_alt.obj
 0002:00029354       ??_C@_09JDCPLDLD@DirName?3?5?$AA@ 00091354     libeay32:v3_alt.obj
 0002:00029360       ??_C@_06KCNJMDKO@URI?3?$CFs?$AA@ 00091360     libeay32:v3_alt.obj
 0002:00029368       ??_C@_06DNDEBJBH@DNS?3?$CFs?$AA@ 00091368     libeay32:v3_alt.obj
 0002:00029370       ??_C@_08LPBGKPKE@email?3?$CFs?$AA@ 00091370     libeay32:v3_alt.obj
 0002:0002937c       ??_C@_0BL@HEOLJEB@EdiPartyName?3?$DMunsupported?$DO?$AA@ 0009137c     libeay32:v3_alt.obj
 0002:00029398       ??_C@_0BH@HDOLFIDG@X400Name?3?$DMunsupported?$DO?$AA@ 00091398     libeay32:v3_alt.obj
 0002:000293b0       ??_C@_0BI@PGFKPDEJ@othername?3?$DMunsupported?$DO?$AA@ 000913b0     libeay32:v3_alt.obj
 0002:000293c8       ??_C@_0EP@GIOEMKKC@d?3?2wm653wehh?2platform?2mvv210?2src@ 000913c8     libeay32:v3_alt.obj
 0002:00029418       ??_C@_08LNPIPPMM@section?$DN?$AA@ 00091418     libeay32:v3_alt.obj
 0002:00029424       ??_C@_09DBGAJPPE@otherName?$AA@ 00091424     libeay32:v3_alt.obj
 0002:00029430       ??_C@_07KKGEJKPE@dirName?$AA@ 00091430     libeay32:v3_alt.obj
 0002:00029438       ??_C@_02MFEOMNPG@IP?$AA@   00091438     libeay32:v3_alt.obj
 0002:0002943c       ??_C@_03FEOBNLIE@RID?$AA@  0009143c     libeay32:v3_alt.obj
 0002:00029440       ??_C@_04COAGEIMF@copy?$AA@ 00091440     libeay32:v3_alt.obj
 0002:00029448       ??_C@_04HDMMNHEL@move?$AA@ 00091448     libeay32:v3_alt.obj
 0002:00029450       ??_C@_0EN@IDEDPOKO@d?3?2wm653wehh?2platform?2mvv210?2src@ 00091450     libeay32:dso_lib.obj
 0002:000294a0       CONF_version               000914a0     libeay32:conf_lib.obj
 0002:000294c8       ??_C@_0EP@PNEKGEFM@d?3?2wm653wehh?2platform?2mvv210?2src@ 000914c8     libeay32:conf_lib.obj
 0002:00029518       ??_C@_06NGDKEHGB@?5name?$DN?$AA@ 00091518     libeay32:conf_lib.obj
 0002:00029520       ??_C@_06BDPCGOPM@group?$DN?$AA@ 00091520     libeay32:conf_lib.obj
 0002:00029528       ??_C@_02JDPG@rb?$AA@       00091528     libeay32:conf_lib.obj
 0002:0002952c       v3_inhibit_anyp            0009152c     libeay32:v3_int.obj
 0002:00029564       v3_delta_crl               00091564     libeay32:v3_int.obj
 0002:0002959c       v3_crl_num                 0009159c     libeay32:v3_int.obj
 0002:00029648       v3_policy_mappings         00091648     libeay32:v3_pmaps.obj
 0002:00029680       ??_C@_0BA@DHPBCFFC@POLICY_MAPPINGS?$AA@ 00091680     libeay32:v3_pmaps.obj
 0002:00029690       ??_C@_0P@NLHMKCKF@POLICY_MAPPING?$AA@ 00091690     libeay32:v3_pmaps.obj
 0002:000296a0       ??_C@_0BE@FFIKMOKF@subjectDomainPolicy?$AA@ 000916a0     libeay32:v3_pmaps.obj
 0002:000296b4       ??_C@_0BD@JILOPHFL@issuerDomainPolicy?$AA@ 000916b4     libeay32:v3_pmaps.obj
 0002:000296c8       ??_C@_0FB@JMEEBLD@d?3?2wm653wehh?2platform?2mvv210?2src@ 000916c8     libeay32:v3_pmaps.obj
 0002:0002971c       v3_pci                     0009171c     libeay32:v3_pci.obj
 0002:00029754       ??_C@_0BE@HDJEDONA@?$CF?$CKsPolicy?5Text?3?5?$CFs?6?$AA@ 00091754     libeay32:v3_pci.obj
 0002:00029768       ??_C@_0BF@CGHJNACM@?$CF?$CKsPolicy?5Language?3?5?$AA@ 00091768     libeay32:v3_pci.obj
 0002:00029780       ??_C@_08MAJEGHKB@infinite?$AA@ 00091780     libeay32:v3_pci.obj
 0002:0002978c       ??_C@_0BM@BMCPHDD@?$CF?$CKsPath?5Length?5Constraint?3?5?$AA@ 0009178c     libeay32:v3_pci.obj
 0002:000297a8       ??_C@_05FHIGHPDA@text?3?$AA@ 000917a8     libeay32:v3_pci.obj
 0002:000297b0       ??_C@_05BOPHDICO@file?3?$AA@ 000917b0     libeay32:v3_pci.obj
 0002:000297b8       ??_C@_04ODCMNEMO@hex?3?$AA@ 000917b8     libeay32:v3_pci.obj
 0002:000297c0       ??_C@_0EP@IAENADAP@d?3?2wm653wehh?2platform?2mvv210?2src@ 000917c0     libeay32:v3_pci.obj
 0002:00029810       ??_C@_08JGCCIMAA@language?$AA@ 00091810     libeay32:v3_pci.obj
 0002:0002981c       v3_ocsp_serviceloc         0009181c     libeay32:v3_ocsp.obj
 0002:00029854       v3_ocsp_nocheck            00091854     libeay32:v3_ocsp.obj
 0002:0002988c       v3_ocsp_nonce              0009188c     libeay32:v3_ocsp.obj
 0002:000298c4       v3_crl_hold                000918c4     libeay32:v3_ocsp.obj
 0002:000298fc       v3_crl_invdate             000918fc     libeay32:v3_ocsp.obj
 0002:00029934       v3_ocsp_acutoff            00091934     libeay32:v3_ocsp.obj
 0002:0002996c       v3_ocsp_crlid              0009196c     libeay32:v3_ocsp.obj
 0002:000299a4       ??_C@_0N@IBJOMEDL@?$CF?$CKscrlTime?3?5?$AA@ 000919a4     libeay32:v3_ocsp.obj
 0002:000299b4       ??_C@_0M@MLCMBODE@?$CF?$CKscrlNum?3?5?$AA@ 000919b4     libeay32:v3_ocsp.obj
 0002:000299c0       ??_C@_0M@KIKBFHBJ@?$CF?$CKscrlUrl?3?5?$AA@ 000919c0     libeay32:v3_ocsp.obj
 0002:000299d0       ??_C@_0FA@DGLJGNPA@d?3?2wm653wehh?2platform?2mvv210?2src@ 000919d0     libeay32:v3_ocsp.obj
 0002:00029a20       ??_C@_04NFEJKGEM@?6?$CF?$CKs?$AA@ 00091a20     libeay32:v3_ocsp.obj
 0002:00029a28       ??_C@_0M@IHOINNJF@?$CF?$CKsIssuer?3?5?$AA@ 00091a28     libeay32:v3_ocsp.obj
 0002:00029a78       v3_policy_constraints      00091a78     libeay32:v3_pcons.obj
 0002:00029ab0       ??_C@_0BD@MMPNIEIJ@POLICY_CONSTRAINTS?$AA@ 00091ab0     libeay32:v3_pcons.obj
 0002:00029ac4       ??_C@_0BF@MOMLJGAL@inhibitPolicyMapping?$AA@ 00091ac4     libeay32:v3_pcons.obj
 0002:00029adc       ??_C@_0BG@HGJBEKFE@requireExplicitPolicy?$AA@ 00091adc     libeay32:v3_pcons.obj
 0002:00029af4       ??_C@_0BI@HNCHDEDI@Require?5Explicit?5Policy?$AA@ 00091af4     libeay32:v3_pcons.obj
 0002:00029b0c       ??_C@_0BH@HMKHOMED@Inhibit?5Policy?5Mapping?$AA@ 00091b0c     libeay32:v3_pcons.obj
 0002:00029b28       ??_C@_0FB@LMCBHCHN@d?3?2wm653wehh?2platform?2mvv210?2src@ 00091b28     libeay32:v3_pcons.obj
 0002:00029bac       v3_ocsp_accresp            00091bac     libeay32:v3_extku.obj
 0002:00029be4       v3_ext_ku                  00091be4     libeay32:v3_extku.obj
 0002:00029c1c       ??_C@_0BD@CKAGEBEF@EXTENDED_KEY_USAGE?$AA@ 00091c1c     libeay32:v3_extku.obj
 0002:00029c30       ??_C@_0FB@GJDJKHPC@d?3?2wm653wehh?2platform?2mvv210?2src@ 00091c30     libeay32:v3_extku.obj
 0002:00029d0c       v3_sxnet                   00091d0c     libeay32:v3_sxnet.obj
 0002:00029d44       ??_C@_05BPAJFIHK@SXNET?$AA@ 00091d44     libeay32:v3_sxnet.obj
 0002:00029d4c       ??_C@_03NDFJNBKD@ids?$AA@  00091d4c     libeay32:v3_sxnet.obj
 0002:00029d50       ??_C@_07FLDOGLPN@SXNETID?$AA@ 00091d50     libeay32:v3_sxnet.obj
 0002:00029d58       ??_C@_04CCHAHKJA@user?$AA@ 00091d58     libeay32:v3_sxnet.obj
 0002:00029d60       ??_C@_04LDDJGOBB@zone?$AA@ 00091d60     libeay32:v3_sxnet.obj
 0002:00029d68       ??_C@_0BF@NMLBNADB@?6?$CF?$CKsZone?3?5?$CFs?0?5User?3?5?$AA@ 00091d68     libeay32:v3_sxnet.obj
 0002:00029d80       ??_C@_0BI@GOEPAKBG@?$CF?$CKsVersion?3?5?$CFld?5?$CI0x?$CFlX?$CJ?$AA@ 00091d80     libeay32:v3_sxnet.obj
 0002:00029d98       ??_C@_0FB@HGCMGHKH@d?3?2wm653wehh?2platform?2mvv210?2src@ 00091d98     libeay32:v3_sxnet.obj
 0002:00029dec       v3_crl_reason              00091dec     libeay32:v3_enum.obj
 0002:00029e24       ??_C@_0O@BILLKPKO@removeFromCRL?$AA@ 00091e24     libeay32:v3_enum.obj
 0002:00029e34       ??_C@_0BA@GLPEKBIK@Remove?5From?5CRL?$AA@ 00091e34     libeay32:v3_enum.obj
 0002:00029e44       ??_C@_0M@MFMDLEDN@unspecified?$AA@ 00091e44     libeay32:v3_enum.obj
 0002:00029e50       ??_C@_0M@NNPCGPMF@Unspecified?$AA@ 00091e50     libeay32:v3_enum.obj
 0002:00029e5c       v3_akey_id                 00091e5c     libeay32:v3_akey.obj
 0002:00029e98       ??_C@_0FA@BIHNLJGI@d?3?2wm653wehh?2platform?2mvv210?2src@ 00091e98     libeay32:v3_akey.obj
 0002:00029ee8       ??_C@_06KHDOHNKC@always?$AA@ 00091ee8     libeay32:v3_akey.obj
 0002:0002a090       v3_cpols                   00092090     libeay32:v3_cpols.obj
 0002:0002a0c8       ??_C@_09DFHLGOKA@NOTICEREF?$AA@ 000920c8     libeay32:v3_cpols.obj
 0002:0002a0d4       ??_C@_09CFGHNILC@noticenos?$AA@ 000920d4     libeay32:v3_cpols.obj
 0002:0002a0e0       ??_C@_0N@HEIPMDAG@organization?$AA@ 000920e0     libeay32:v3_cpols.obj
 0002:0002a0f0       ??_C@_0L@HCNDPADF@USERNOTICE?$AA@ 000920f0     libeay32:v3_cpols.obj
 0002:0002a0fc       ??_C@_07MHGINJOA@exptext?$AA@ 000920fc     libeay32:v3_cpols.obj
 0002:0002a104       ??_C@_09FIKFDFH@noticeref?$AA@ 00092104     libeay32:v3_cpols.obj
 0002:0002a110       ??_C@_0P@POBJIHLD@POLICYQUALINFO?$AA@ 00092110     libeay32:v3_cpols.obj
 0002:0002a120       ??_C@_07LEEILOKB@pqualid?$AA@ 00092120     libeay32:v3_cpols.obj
 0002:0002a128       ??_C@_0N@JPAHANFF@d?4usernotice?$AA@ 00092128     libeay32:v3_cpols.obj
 0002:0002a138       ??_C@_08EECALGEF@d?4cpsuri?$AA@ 00092138     libeay32:v3_cpols.obj
 0002:0002a144       ??_C@_0L@POLPGHJK@POLICYINFO?$AA@ 00092144     libeay32:v3_cpols.obj
 0002:0002a150       ??_C@_0L@HMNGMMJI@qualifiers?$AA@ 00092150     libeay32:v3_cpols.obj
 0002:0002a15c       ??_C@_08NEBFOBH@policyid?$AA@ 0009215c     libeay32:v3_cpols.obj
 0002:0002a168       ??_C@_0BE@GJBJOOCP@CERTIFICATEPOLICIES?$AA@ 00092168     libeay32:v3_cpols.obj
 0002:0002a180       ??_C@_0FB@GCODJBIG@d?3?2wm653wehh?2platform?2mvv210?2src@ 00092180     libeay32:v3_cpols.obj
 0002:0002a1d4       ??_C@_0BG@IHHCDAMH@?$CF?$CKsExplicit?5Text?3?5?$CFs?6?$AA@ 000921d4     libeay32:v3_cpols.obj
 0002:0002a1ec       ??_C@_0O@EFHNHHDA@?$CF?$CKsNumber?$CFs?3?5?$AA@ 000921ec     libeay32:v3_cpols.obj
 0002:0002a1fc       ??_C@_0BF@OCNFPJOG@?$CF?$CKsOrganization?3?5?$CFs?6?$AA@ 000921fc     libeay32:v3_cpols.obj
 0002:0002a214       ??_C@_0O@OKDALMJE@noticeNumbers?$AA@ 00092214     libeay32:v3_cpols.obj
 0002:0002a224       ??_C@_0N@EALKMFB@explicitText?$AA@ 00092224     libeay32:v3_cpols.obj
 0002:0002a234       ??_C@_0M@ICGFCJNO@?$CF?$CKsCPS?3?5?$CFs?6?$AA@ 00092234     libeay32:v3_cpols.obj
 0002:0002a240       ??_C@_0BB@MMPKKFLI@?$CF?$CKsUser?5Notice?3?6?$AA@ 00092240     libeay32:v3_cpols.obj
 0002:0002a254       ??_C@_0BH@CHOAEJEJ@?$CF?$CKsUnknown?5Qualifier?3?5?$AA@ 00092254     libeay32:v3_cpols.obj
 0002:0002a26c       ??_C@_0M@BBFMFBLN@?$CF?$CKsPolicy?3?5?$AA@ 0009226c     libeay32:v3_cpols.obj
 0002:0002a278       ??_C@_0L@LADHLIJ@userNotice?$AA@ 00092278     libeay32:v3_cpols.obj
 0002:0002a284       ??_C@_03KKDAPHBH@CPS?$AA@  00092284     libeay32:v3_cpols.obj
 0002:0002a288       ??_C@_0BB@FIJMMMGE@policyIdentifier?$AA@ 00092288     libeay32:v3_cpols.obj
 0002:0002a29c       ??_C@_06MIFIGELF@ia5org?$AA@ 0009229c     libeay32:v3_cpols.obj
 0002:0002a2e8       v3_pkey_usage_period       000922e8     libeay32:v3_pku.obj
 0002:0002a320       ??_C@_0BC@CCOKACDM@PKEY_USAGE_PERIOD?$AA@ 00092320     libeay32:v3_pku.obj
 0002:0002a334       ??_C@_0M@FCHJLIHE@Not?5After?3?5?$AA@ 00092334     libeay32:v3_pku.obj
 0002:0002a340       ??_C@_0N@KGLJEEMK@Not?5Before?3?5?$AA@ 00092340     libeay32:v3_pku.obj
 0002:0002a350       v3_key_usage               00092350     libeay32:v3_bitst.obj
 0002:0002a388       v3_nscert                  00092388     libeay32:v3_bitst.obj
 0002:0002a3c0       ??_C@_0N@LIFHMFCO@decipherOnly?$AA@ 000923c0     libeay32:v3_bitst.obj
 0002:0002a3d0       ??_C@_0O@FKBAPCEG@Decipher?5Only?$AA@ 000923d0     libeay32:v3_bitst.obj
 0002:0002a3e0       ??_C@_0N@BEFDLIKF@encipherOnly?$AA@ 000923e0     libeay32:v3_bitst.obj
 0002:0002a3f0       ??_C@_0O@CANGKMJD@Encipher?5Only?$AA@ 000923f0     libeay32:v3_bitst.obj
 0002:0002a400       ??_C@_07IHBCCDFJ@cRLSign?$AA@ 00092400     libeay32:v3_bitst.obj
 0002:0002a408       ??_C@_08OCJGKMAN@CRL?5Sign?$AA@ 00092408     libeay32:v3_bitst.obj
 0002:0002a414       ??_C@_0M@ONBOOMGI@keyCertSign?$AA@ 00092414     libeay32:v3_bitst.obj
 0002:0002a420       ??_C@_0BB@ELNGMDLH@Certificate?5Sign?$AA@ 00092420     libeay32:v3_bitst.obj
 0002:0002a434       ??_C@_0N@GONHKOEO@keyAgreement?$AA@ 00092434     libeay32:v3_bitst.obj
 0002:0002a444       ??_C@_0O@EOJOBCHL@Key?5Agreement?$AA@ 00092444     libeay32:v3_bitst.obj
 0002:0002a454       ??_C@_0BB@LBKKKIGO@dataEncipherment?$AA@ 00092454     libeay32:v3_bitst.obj
 0002:0002a468       ??_C@_0BC@GNPIAJLP@Data?5Encipherment?$AA@ 00092468     libeay32:v3_bitst.obj
 0002:0002a47c       ??_C@_0BA@MINCLOJG@keyEncipherment?$AA@ 0009247c     libeay32:v3_bitst.obj
 0002:0002a48c       ??_C@_0BB@KNACIBEN@Key?5Encipherment?$AA@ 0009248c     libeay32:v3_bitst.obj
 0002:0002a4a0       ??_C@_0P@GPCNPOGO@nonRepudiation?$AA@ 000924a0     libeay32:v3_bitst.obj
 0002:0002a4b0       ??_C@_0BA@DJCGBBAI@Non?5Repudiation?$AA@ 000924b0     libeay32:v3_bitst.obj
 0002:0002a4c0       ??_C@_0BB@MFKHIIOM@digitalSignature?$AA@ 000924c0     libeay32:v3_bitst.obj
 0002:0002a4d4       ??_C@_0BC@DPKEIPIO@Digital?5Signature?$AA@ 000924d4     libeay32:v3_bitst.obj
 0002:0002a4e8       ??_C@_05JLEIJNEE@objCA?$AA@ 000924e8     libeay32:v3_bitst.obj
 0002:0002a4f0       ??_C@_0BC@FAMHGMHB@Object?5Signing?5CA?$AA@ 000924f0     libeay32:v3_bitst.obj
 0002:0002a504       ??_C@_07FFHDGPMJ@emailCA?$AA@ 00092504     libeay32:v3_bitst.obj
 0002:0002a50c       ??_C@_09GIEMCMEO@S?1MIME?5CA?$AA@ 0009250c     libeay32:v3_bitst.obj
 0002:0002a518       ??_C@_05JHLHLOEK@sslCA?$AA@ 00092518     libeay32:v3_bitst.obj
 0002:0002a520       ??_C@_06FMDLPOFJ@SSL?5CA?$AA@ 00092520     libeay32:v3_bitst.obj
 0002:0002a528       ??_C@_08FINKBBAF@reserved?$AA@ 00092528     libeay32:v3_bitst.obj
 0002:0002a534       ??_C@_07GIOKFKGL@objsign?$AA@ 00092534     libeay32:v3_bitst.obj
 0002:0002a53c       ??_C@_0P@DDHLFHHK@Object?5Signing?$AA@ 0009253c     libeay32:v3_bitst.obj
 0002:0002a54c       ??_C@_06HJHJCKIO@server?$AA@ 0009254c     libeay32:v3_bitst.obj
 0002:0002a554       ??_C@_06DGDLPBAN@client?$AA@ 00092554     libeay32:v3_bitst.obj
 0002:0002a560       ??_C@_0FB@EKHJICLH@d?3?2wm653wehh?2platform?2mvv210?2src@ 00092560     libeay32:v3_bitst.obj
 0002:0002a5b4       v3_skey_id                 000925b4     libeay32:v3_skey.obj
 0002:0002a5f0       ??_C@_0FA@OIDMDEIP@d?3?2wm653wehh?2platform?2mvv210?2src@ 000925f0     libeay32:v3_skey.obj
 0002:0002a640       ??_C@_04OIJGJDKO@hash?$AA@ 00092640     libeay32:v3_skey.obj
 0002:0002a648       v3_ns_ia5_list             00092648     libeay32:v3_ia5.obj
 0002:0002a808       ??_C@_0EP@FPIPLDCG@d?3?2wm653wehh?2platform?2mvv210?2src@ 00092808     libeay32:v3_ia5.obj
 0002:0002a858       ??_C@_0FA@GLNJJMIP@d?3?2wm653wehh?2platform?2mvv210?2src@ 00092858     libeay32:v3_conf.obj
 0002:0002a9a0       ??_C@_08JIPBBKBM@X509_REQ?$AA@ 000929a0     libeay32:x_req.obj
 0002:0002a9ac       ??_C@_08JILJKJG@req_info?$AA@ 000929ac     libeay32:x_req.obj
 0002:0002a9b8       ??_C@_0O@EHCMNJCB@X509_REQ_INFO?$AA@ 000929b8     libeay32:x_req.obj
 0002:0002a9c8       ??_C@_06GKCAPDID@pubkey?$AA@ 000929c8     libeay32:x_req.obj
 0002:0002a9d0       ??_C@_0BE@LILBBPKE@OpenSSL?5ECDH?5method?$AA@ 000929d0     libeay32:ech_ossl.obj
 0002:0002a9e8       ??_C@_0EP@EIICIEGK@d?3?2wm653wehh?2platform?2mvv210?2src@ 000929e8     libeay32:ech_ossl.obj
 0002:0002aa80       ??_C@_08CKLJFNPB@PBEPARAM?$AA@ 00092a80     libeay32:p5_pbe.obj
 0002:0002aa90       ??_C@_0FA@NBNNIDCA@d?3?2wm653wehh?2platform?2mvv210?2src@ 00092a90     libeay32:p12_key.obj
 0002:0002ab00       ??_C@_0EM@FGPLHJJK@d?3?2wm653wehh?2platform?2mvv210?2src@ 00092b00     libeay32:bn_sqrt.obj
 0002:0002ab50       ??_C@_0FA@FLDKBPHG@d?3?2wm653wehh?2platform?2mvv210?2src@ 00092b50     libeay32:pk7_attr.obj
 0002:0002ac3c       ??_C@_0O@DBIGEIKO@NETSCAPE_SPKI?$AA@ 00092c3c     libeay32:x_spki.obj
 0002:0002ac4c       ??_C@_09JJGBLAHB@sig_algor?$AA@ 00092c4c     libeay32:x_spki.obj
 0002:0002ac58       ??_C@_05NBLLCIIN@spkac?$AA@ 00092c58     libeay32:x_spki.obj
 0002:0002ac60       ??_C@_0P@OEBIEFNJ@NETSCAPE_SPKAC?$AA@ 00092c60     libeay32:x_spki.obj
 0002:0002ac70       ??_C@_09DBEGHIJJ@challenge?$AA@ 00092c70     libeay32:x_spki.obj
 0002:0002ac7c       MD5_version                00092c7c     libeay32:md5_dgst.obj
 0002:0002acb8       PEM_version                00092cb8     libeay32:pem_lib.obj
 0002:0002af2c       ??_C@_06DPGELLJH@FORMAT?$AA@ 00092f2c     libeay32:asn1_gen.obj
 0002:0002af34       ??_C@_04HPGCGPG@FORM?$AA@  00092f34     libeay32:asn1_gen.obj
 0002:0002af3c       ??_C@_07JHDNPBBM@BITWRAP?$AA@ 00092f3c     libeay32:asn1_gen.obj
 0002:0002af44       ??_C@_07OAIMKKNN@SETWRAP?$AA@ 00092f44     libeay32:asn1_gen.obj
 0002:0002af4c       ??_C@_07LAEBDLGO@SEQWRAP?$AA@ 00092f4c     libeay32:asn1_gen.obj
 0002:0002af54       ??_C@_07KIEILLID@OCTWRAP?$AA@ 00092f54     libeay32:asn1_gen.obj
 0002:0002af5c       ??_C@_08PPMOEJGF@IMPLICIT?$AA@ 00092f5c     libeay32:asn1_gen.obj
 0002:0002af68       ??_C@_03PKFOHEJD@IMP?$AA@  00092f68     libeay32:asn1_gen.obj
 0002:0002af6c       ??_C@_08CNKBIFDO@EXPLICIT?$AA@ 00092f6c     libeay32:asn1_gen.obj
 0002:0002af78       ??_C@_03KKGFKKLA@EXP?$AA@  00092f78     libeay32:asn1_gen.obj
 0002:0002af7c       ??_C@_03NCPCKDJB@SEQ?$AA@  00092f7c     libeay32:asn1_gen.obj
 0002:0002af80       ??_C@_07DBOJJFHC@NUMERIC?$AA@ 00092f80     libeay32:asn1_gen.obj
 0002:0002af88       ??_C@_06GBOJAPHH@GENSTR?$AA@ 00092f88     libeay32:asn1_gen.obj
 0002:0002af90       ??_C@_0O@OIKLOOAP@GeneralString?$AA@ 00092f90     libeay32:asn1_gen.obj
 0002:0002afa0       ??_C@_0O@GENPGMAM@TELETEXSTRING?$AA@ 00092fa0     libeay32:asn1_gen.obj
 0002:0002afb0       ??_C@_03HMGPCGIG@T61?$AA@  00092fb0     libeay32:asn1_gen.obj
 0002:0002afb4       ??_C@_09OMDMMLJJ@PRINTABLE?$AA@ 00092fb4     libeay32:asn1_gen.obj
 0002:0002afc0       ??_C@_07MCGNPFEO@VISIBLE?$AA@ 00092fc0     libeay32:asn1_gen.obj
 0002:0002afc8       ??_C@_03CNFPPDJC@BMP?$AA@  00092fc8     libeay32:asn1_gen.obj
 0002:0002afcc       ??_C@_0L@PJIJIHJD@UTF8String?$AA@ 00092fcc     libeay32:asn1_gen.obj
 0002:0002afd8       ??_C@_04OOMJJNCF@UTF8?$AA@ 00092fd8     libeay32:asn1_gen.obj
 0002:0002afe0       ??_C@_03OLMOBCBF@IA5?$AA@  00092fe0     libeay32:asn1_gen.obj
 0002:0002afe4       ??_C@_04CBEPCLMK@UNIV?$AA@ 00092fe4     libeay32:asn1_gen.obj
 0002:0002afec       ??_C@_09MBLGEDKL@BITSTRING?$AA@ 00092fec     libeay32:asn1_gen.obj
 0002:0002aff8       ??_C@_06GOEDGPII@BITSTR?$AA@ 00092ff8     libeay32:asn1_gen.obj
 0002:0002b000       ??_C@_0M@JIDALIGG@OCTETSTRING?$AA@ 00093000     libeay32:asn1_gen.obj
 0002:0002b00c       ??_C@_03LBMHMDEB@OCT?$AA@  0009300c     libeay32:asn1_gen.obj
 0002:0002b010       ??_C@_07EECHABMP@GENTIME?$AA@ 00093010     libeay32:asn1_gen.obj
 0002:0002b018       ??_C@_03JCIJEFNJ@UTC?$AA@  00093018     libeay32:asn1_gen.obj
 0002:0002b01c       ??_C@_03PGJCFEMG@OID?$AA@  0009301c     libeay32:asn1_gen.obj
 0002:0002b020       ??_C@_04PNKFCNMG@ENUM?$AA@ 00093020     libeay32:asn1_gen.obj
 0002:0002b028       ??_C@_03JMHEAPMO@INT?$AA@  00093028     libeay32:asn1_gen.obj
 0002:0002b02c       ??_C@_04PPJDIBFE@BOOL?$AA@ 0009302c     libeay32:asn1_gen.obj
 0002:0002b034       ??_C@_05NALEHOPE@Char?$DN?$AA@ 00093034     libeay32:asn1_gen.obj
 0002:0002b040       ??_C@_0EP@NAHIMGLP@d?3?2wm653wehh?2platform?2mvv210?2src@ 00093040     libeay32:asn1_gen.obj
 0002:0002b090       ??_C@_07HMNLDFAL@BITLIST?$AA@ 00093090     libeay32:asn1_gen.obj
 0002:0002b098       ??_C@_03IECIMIEG@HEX?$AA@  00093098     libeay32:asn1_gen.obj
 0002:0002b09c       ??_C@_05CCNLIHFO@ASCII?$AA@ 0009309c     libeay32:asn1_gen.obj
 0002:0002b0a4       ??_C@_04JBGFELJA@tag?$DN?$AA@ 000930a4     libeay32:asn1_gen.obj
 0002:0002b0ac       ??_C@_07IOGEOOAA@string?$DN?$AA@ 000930ac     libeay32:asn1_gen.obj
 0002:0002b0b4       ??_C@_05LKMDHMJN@WIN32?$AA@ 000930b4     libeay32:conf_def.obj
 0002:0002b0bc       ??_C@_0BA@EEIGDPJJ@OpenSSL?5default?$AA@ 000930bc     libeay32:conf_def.obj
 0002:0002b0cc       CONF_def_version           000930cc     libeay32:conf_def.obj
 0002:0002b0f8       ??_C@_0EP@FLILJMGH@d?3?2wm653wehh?2platform?2mvv210?2src@ 000930f8     libeay32:conf_def.obj
 0002:0002b148       ??_C@_07PNLMPOMH@?$FL?$FL?$CFs?$FN?$FN?6?$AA@ 00093148     libeay32:conf_def.obj
 0002:0002b150       ??_C@_0M@CLCLGKAH@?$FL?$CFs?$FN?5?$CFs?$DN?$CFs?6?$AA@ 00093150     libeay32:conf_def.obj
 0002:0002b15c       ??_C@_05KFEICJBI@line?5?$AA@ 0009315c     libeay32:conf_def.obj
 0002:0002b164       ??_C@_03OEJENCPE@ENV?$AA@  00093164     libeay32:conf_api.obj
 0002:0002b168       ??_C@_0L@BFMFELMC@vv?5?$DN?$DN?5NULL?$AA@ 00093168     libeay32:conf_api.obj
 0002:0002b178       ??_C@_0EP@PLCFAFHA@d?3?2wm653wehh?2platform?2mvv210?2src@ 00093178     libeay32:conf_api.obj
 0002:0002b6f4       ??_C@_0BA@JLGHGCLL@OCSP_SERVICELOC?$AA@ 000936f4     libeay32:ocsp_asn.obj
 0002:0002b704       ??_C@_07PAIKCKMF@locator?$AA@ 00093704     libeay32:ocsp_asn.obj
 0002:0002b70c       ??_C@_0L@JOKCDHBA@OCSP_CRLID?$AA@ 0009370c     libeay32:ocsp_asn.obj
 0002:0002b718       ??_C@_07BDEAJPPO@crlTime?$AA@ 00093718     libeay32:ocsp_asn.obj
 0002:0002b720       ??_C@_06DLEHNACA@crlNum?$AA@ 00093720     libeay32:ocsp_asn.obj
 0002:0002b728       ??_C@_06KAALCHHK@crlUrl?$AA@ 00093728     libeay32:ocsp_asn.obj
 0002:0002b730       ??_C@_0P@CPCDLAO@OCSP_BASICRESP?$AA@ 00093730     libeay32:ocsp_asn.obj
 0002:0002b740       ??_C@_0BA@OOPOFNLG@tbsResponseData?$AA@ 00093740     libeay32:ocsp_asn.obj
 0002:0002b750       ??_C@_0O@GNAMNHBK@OCSP_RESPDATA?$AA@ 00093750     libeay32:ocsp_asn.obj
 0002:0002b760       ??_C@_0BD@LEANHDON@responseExtensions?$AA@ 00093760     libeay32:ocsp_asn.obj
 0002:0002b774       ??_C@_09NKKOBILA@responses?$AA@ 00093774     libeay32:ocsp_asn.obj
 0002:0002b780       ??_C@_0L@KADAOIGF@producedAt?$AA@ 00093780     libeay32:ocsp_asn.obj
 0002:0002b78c       ??_C@_0M@CPBMKBOK@responderId?$AA@ 0009378c     libeay32:ocsp_asn.obj
 0002:0002b798       ??_C@_0BA@CEMENBMB@OCSP_SINGLERESP?$AA@ 00093798     libeay32:ocsp_asn.obj
 0002:0002b7a8       ??_C@_0BB@BHCHCCEI@singleExtensions?$AA@ 000937a8     libeay32:ocsp_asn.obj
 0002:0002b7bc       ??_C@_0L@BEDJFPDO@thisUpdate?$AA@ 000937bc     libeay32:ocsp_asn.obj
 0002:0002b7c8       ??_C@_0L@IGGFAGC@certStatus?$AA@ 000937c8     libeay32:ocsp_asn.obj
 0002:0002b7d4       ??_C@_06JJGBHEJI@certId?$AA@ 000937d4     libeay32:ocsp_asn.obj
 0002:0002b7dc       ??_C@_0BA@JBJHLNOJ@OCSP_CERTSTATUS?$AA@ 000937dc     libeay32:ocsp_asn.obj
 0002:0002b7ec       ??_C@_0O@ICNBHFHN@value?4unknown?$AA@ 000937ec     libeay32:ocsp_asn.obj
 0002:0002b7fc       ??_C@_0O@GCBEBIKI@value?4revoked?$AA@ 000937fc     libeay32:ocsp_asn.obj
 0002:0002b80c       ??_C@_0L@MEIDNBL@value?4good?$AA@ 0009380c     libeay32:ocsp_asn.obj
 0002:0002b818       ??_C@_0BB@CFNKINIP@OCSP_REVOKEDINFO?$AA@ 00093818     libeay32:ocsp_asn.obj
 0002:0002b82c       ??_C@_0BB@JHENKMOK@revocationReason?$AA@ 0009382c     libeay32:ocsp_asn.obj
 0002:0002b840       ??_C@_0P@MHJPNEEK@revocationTime?$AA@ 00093840     libeay32:ocsp_asn.obj
 0002:0002b850       ??_C@_0M@JBDPBGBO@OCSP_RESPID?$AA@ 00093850     libeay32:ocsp_asn.obj
 0002:0002b85c       ??_C@_0M@OFGLOCKB@value?4byKey?$AA@ 0009385c     libeay32:ocsp_asn.obj
 0002:0002b868       ??_C@_0N@OFBDHEPF@value?4byName?$AA@ 00093868     libeay32:ocsp_asn.obj
 0002:0002b878       ??_C@_0O@CDJMCFNM@OCSP_RESPONSE?$AA@ 00093878     libeay32:ocsp_asn.obj
 0002:0002b888       ??_C@_0O@MMHCFEHM@responseBytes?$AA@ 00093888     libeay32:ocsp_asn.obj
 0002:0002b898       ??_C@_0P@GEHCLFGI@responseStatus?$AA@ 00093898     libeay32:ocsp_asn.obj
 0002:0002b8a8       ??_C@_0P@ONFJGMLI@OCSP_RESPBYTES?$AA@ 000938a8     libeay32:ocsp_asn.obj
 0002:0002b8b8       ??_C@_08HKMEAON@response?$AA@ 000938b8     libeay32:ocsp_asn.obj
 0002:0002b8c4       ??_C@_0N@FPIGADMM@responseType?$AA@ 000938c4     libeay32:ocsp_asn.obj
 0002:0002b8d4       ??_C@_0N@PCNOLOBD@OCSP_REQUEST?$AA@ 000938d4     libeay32:ocsp_asn.obj
 0002:0002b8e4       ??_C@_0BC@GKDKILGO@optionalSignature?$AA@ 000938e4     libeay32:ocsp_asn.obj
 0002:0002b8f8       ??_C@_0L@OIGCAPNH@tbsRequest?$AA@ 000938f8     libeay32:ocsp_asn.obj
 0002:0002b904       ??_C@_0N@DDBEOJJA@OCSP_REQINFO?$AA@ 00093904     libeay32:ocsp_asn.obj
 0002:0002b914       ??_C@_0BC@CPAMEDLH@requestExtensions?$AA@ 00093914     libeay32:ocsp_asn.obj
 0002:0002b928       ??_C@_0M@NNJGDIDJ@requestList?$AA@ 00093928     libeay32:ocsp_asn.obj
 0002:0002b934       ??_C@_0O@NHDBCFOA@requestorName?$AA@ 00093934     libeay32:ocsp_asn.obj
 0002:0002b944       ??_C@_0M@IGPHKOAK@OCSP_ONEREQ?$AA@ 00093944     libeay32:ocsp_asn.obj
 0002:0002b950       ??_C@_0BI@PPJDGJOP@singleRequestExtensions?$AA@ 00093950     libeay32:ocsp_asn.obj
 0002:0002b968       ??_C@_07GCNFCODJ@reqCert?$AA@ 00093968     libeay32:ocsp_asn.obj
 0002:0002b970       ??_C@_0M@OCJEDPID@OCSP_CERTID?$AA@ 00093970     libeay32:ocsp_asn.obj
 0002:0002b97c       ??_C@_0O@KPBFDKHB@issuerKeyHash?$AA@ 0009397c     libeay32:ocsp_asn.obj
 0002:0002b98c       ??_C@_0P@EKEFMOEP@issuerNameHash?$AA@ 0009398c     libeay32:ocsp_asn.obj
 0002:0002b99c       ??_C@_0P@OIPGPNII@OCSP_SIGNATURE?$AA@ 0009399c     libeay32:ocsp_asn.obj
 0002:0002b9ac       ??_C@_05HFDFJDL@certs?$AA@ 000939ac     libeay32:ocsp_asn.obj
 0002:0002b9b8       ??_C@_0FA@NCEGPJFE@d?3?2wm653wehh?2platform?2mvv210?2src@ 000939b8     libeay32:p12_utl.obj
 0002:0002bad0       ??_C@_0CK@NJACHFBA@ctx?9?$DOlength?5?$DM?$DN?5?$CIint?$CJsizeof?$CIctx?9?$DO@ 00093ad0     libeay32:encode.obj
 0002:0002bb00       ??_C@_0EM@EJBFCLJI@d?3?2wm653wehh?2platform?2mvv210?2src@ 00093b00     libeay32:encode.obj
 0002:0002bb4c       ??_C@_0BP@KGJPJK@n?5?$DM?5?$CIint?$CJsizeof?$CIctx?9?$DOenc_data?$CJ?$AA@ 00093b4c     libeay32:encode.obj
 0002:0002bb6c       ??_C@_04GABBLIPF@asn1?$AA@ 00093b6c     libeay32:bio_asn1.obj
 0002:0002bb78       ??_C@_0EP@CPKJKHDC@d?3?2wm653wehh?2platform?2mvv210?2src@ 00093b78     libeay32:bio_asn1.obj
 0002:0002bbc8       ??_C@_0BM@FIMHHPDL@ctx?9?$DObuflen?5?$DM?$DN?5ctx?9?$DObufsize?$AA@ 00093bc8     libeay32:bio_asn1.obj
 0002:0002bbe4       ??_C@_0BA@CNEIDKOH@base64?5encoding?$AA@ 00093be4     libeay32:bio_b64.obj
 0002:0002bbf8       ??_C@_0EN@CHDAAPPK@d?3?2wm653wehh?2platform?2mvv210?2src@ 00093bf8     libeay32:bio_b64.obj
 0002:0002bc48       ??_C@_0CH@JADBFJCL@ctx?9?$DObuf_off?$CLi?5?$DM?5?$CIint?$CJsizeof?$CIctx@ 00093c48     libeay32:bio_b64.obj
 0002:0002bc70       ??_C@_0BN@FPMDFEFM@ctx?9?$DObuf_len?5?$DO?$DN?5ctx?9?$DObuf_off?$AA@ 00093c70     libeay32:bio_b64.obj
 0002:0002bc90       ??_C@_0BC@BEKEPBME@ctx?9?$DOtmp_len?5?$DM?$DN?53?$AA@ 00093c90     libeay32:bio_b64.obj
 0002:0002bca4       ??_C@_0CG@NALBBCEM@ctx?9?$DObuf_off?5?$DM?$DN?5?$CIint?$CJsizeof?$CIctx?9@ 00093ca4     libeay32:bio_b64.obj
 0002:0002bccc       ??_C@_06NOLCFJLD@i?5?$DM?$DN?5n?$AA@ 00093ccc     libeay32:bio_b64.obj
 0002:0002bcd4       ??_C@_0CG@LFOFKIIN@ctx?9?$DObuf_len?5?$DM?$DN?5?$CIint?$CJsizeof?$CIctx?9@ 00093cd4     libeay32:bio_b64.obj
 0002:0002bcfc       ??_C@_0CF@ELLFOHKP@ctx?9?$DObuf_off?5?$DM?5?$CIint?$CJsizeof?$CIctx?9?$DO@ 00093cfc     libeay32:bio_b64.obj
 0002:0002bd24       ??_C@_06HOHPNJLC@buffer?$AA@ 00093d24     libeay32:bf_buff.obj
 0002:0002bd30       ??_C@_0EN@HLACMGKH@d?3?2wm653wehh?2platform?2mvv210?2src@ 00093d30     libeay32:bf_buff.obj
 0002:0002bd80       ??_C@_0CG@ELPNGFCJ@OpenSSL?5?8win32?8?5shared?5library?5m@ 00093d80     libeay32:dso_win32.obj
 0002:0002bda8       ??_C@_01PKGAHCOL@?$CJ?$AA@ 00093da8     libeay32:dso_win32.obj
 0002:0002bdac       ??_C@_09CCCHLKJP@filename?$CI?$AA@ 00093dac     libeay32:dso_win32.obj
 0002:0002bdb8       ??_C@_0EP@KLFAEIED@d?3?2wm653wehh?2platform?2mvv210?2src@ 00093db8     libeay32:dso_win32.obj
 0002:0002be08       ??_C@_08MFAHALLH@symname?$CI?$AA@ 00093e08     libeay32:dso_win32.obj
 0002:0002be14       ??_C@_06DAJAKOAL@?$CFs?4dll?$AA@ 00093e14     libeay32:dso_win32.obj
 0002:0002be1c       ??_C@_0BI@GJJDGJIM@CloseToolhelp32Snapshot?$AA@ 00093e1c     libeay32:dso_win32.obj
 0002:0002be34       ??_C@_0O@CNMFJJGO@Module32First?$AA@ 00093e34     libeay32:dso_win32.obj
 0002:0002be44       ??_C@_0N@KIGOLBLC@Module32Next?$AA@ 00093e44     libeay32:dso_win32.obj
 0002:0002be54       ??_C@_0BJ@JEFKDHMD@CreateToolhelp32Snapshot?$AA@ 00093e54     libeay32:dso_win32.obj
 0002:0002be70       ??_C@_1BK@NKALKHPI@?$AAT?$AAO?$AAO?$AAL?$AAH?$AAE?$AAL?$AAP?$AA?4?$AAD?$AAL?$AAL?$AA?$AA@ 00093e70     libeay32:dso_win32.obj
 0002:0002c178       ??_C@_0BB@BIPBIGGF@PKCS12_AUTHSAFES?$AA@ 00094178     libeay32:p12_asn.obj
 0002:0002c18c       ??_C@_0BA@MCGBLIFE@PKCS12_SAFEBAGS?$AA@ 0009418c     libeay32:p12_asn.obj
 0002:0002c19c       ??_C@_06CEIPPJF@attrib?$AA@ 0009419c     libeay32:p12_asn.obj
 0002:0002c1a4       ??_C@_0P@EECFPDPC@PKCS12_SAFEBAG?$AA@ 000941a4     libeay32:p12_asn.obj
 0002:0002c1b4       ??_C@_09EBGANBLK@value?4bag?$AA@ 000941b4     libeay32:p12_asn.obj
 0002:0002c1c0       ??_C@_0M@NFMGHALF@value?4safes?$AA@ 000941c0     libeay32:p12_asn.obj
 0002:0002c1cc       ??_C@_0P@FIADCDOI@value?4shkeybag?$AA@ 000941cc     libeay32:p12_asn.obj
 0002:0002c1dc       ??_C@_0N@DOAHKDFI@value?4keybag?$AA@ 000941dc     libeay32:p12_asn.obj
 0002:0002c1ec       ??_C@_0M@BNPBMADO@PKCS12_BAGS?$AA@ 000941ec     libeay32:p12_asn.obj
 0002:0002c1f8       ??_C@_0P@OEFHMPFE@value?4sdsicert?$AA@ 000941f8     libeay32:p12_asn.obj
 0002:0002c208       ??_C@_0O@KKFHCJNP@value?4x509crl?$AA@ 00094208     libeay32:p12_asn.obj
 0002:0002c218       ??_C@_0P@IGODMFMC@value?4x509cert?$AA@ 00094218     libeay32:p12_asn.obj
 0002:0002c228       ??_C@_0M@PABGOMNF@value?4other?$AA@ 00094228     libeay32:p12_asn.obj
 0002:0002c234       ??_C@_0BA@LPMCLHLH@PKCS12_MAC_DATA?$AA@ 00094234     libeay32:p12_asn.obj
 0002:0002c244       ??_C@_05DMLMEGOG@dinfo?$AA@ 00094244     libeay32:p12_asn.obj
 0002:0002c24c       ??_C@_06CKOLGKJK@PKCS12?$AA@ 0009424c     libeay32:p12_asn.obj
 0002:0002c254       ??_C@_09HFIAEJAG@authsafes?$AA@ 00094254     libeay32:p12_asn.obj
 0002:0002c260       ??_C@_0BP@JCDKFDNH@OpenSSL?5default?5user?5interface?$AA@ 00094260     libeay32:ui_openssl.obj
 0002:0002c280       ??_C@_0EP@FLBPENKO@d?3?2wm653wehh?2platform?2mvv210?2src@ 00094280     libeay32:ui_openssl.obj
 0002:0002c2d0       ??_C@_03EPNNLCDK@con?$AA@  000942d0     libeay32:ui_openssl.obj
 0002:0002c2d4       ??_C@_0BA@GANIJHKH@Verify?5failure?6?$AA@ 000942d4     libeay32:ui_openssl.obj
 0002:0002c2e4       ??_C@_0P@IOLEFIHN@Verifying?5?9?5?$CFs?$AA@ 000942e4     libeay32:ui_openssl.obj
 0002:0002c2f4       ??_C@_08EDHMEBNP@December?$AA@ 000942f4     wcecompatex:time.obj
 0002:0002c300       ??_C@_08HCHEGEOA@November?$AA@ 00094300     wcecompatex:time.obj
 0002:0002c30c       ??_C@_07JJNFCEND@October?$AA@ 0009430c     wcecompatex:time.obj
 0002:0002c314       ??_C@_09BHHEALKD@September?$AA@ 00094314     wcecompatex:time.obj
 0002:0002c320       ??_C@_06LBBHFDDG@August?$AA@ 00094320     wcecompatex:time.obj
 0002:0002c328       ??_C@_04MIEPOIFP@July?$AA@ 00094328     wcecompatex:time.obj
 0002:0002c330       ??_C@_04CNLMGBGM@June?$AA@ 00094330     wcecompatex:time.obj
 0002:0002c338       ??_C@_05DMJDNLEJ@April?$AA@ 00094338     wcecompatex:time.obj
 0002:0002c340       ??_C@_05HPCKOFNC@March?$AA@ 00094340     wcecompatex:time.obj
 0002:0002c348       ??_C@_08GNJGEPFN@February?$AA@ 00094348     wcecompatex:time.obj
 0002:0002c354       ??_C@_07CGJPFGJA@January?$AA@ 00094354     wcecompatex:time.obj
 0002:0002c35c       ??_C@_08INBOOONO@Saturday?$AA@ 0009435c     wcecompatex:time.obj
 0002:0002c368       ??_C@_06JECMNKMI@Friday?$AA@ 00094368     wcecompatex:time.obj
 0002:0002c370       ??_C@_08HACCIKIA@Thursday?$AA@ 00094370     wcecompatex:time.obj
 0002:0002c37c       ??_C@_09DLIGFAKA@Wednesday?$AA@ 0009437c     wcecompatex:time.obj
 0002:0002c388       ??_C@_07BAAGCFCM@Tuesday?$AA@ 00094388     wcecompatex:time.obj
 0002:0002c390       ??_C@_06JLEDEDGH@Monday?$AA@ 00094390     wcecompatex:time.obj
 0002:0002c398       ??_C@_06OOPIFAJ@Sunday?$AA@ 00094398     wcecompatex:time.obj
 0002:0002c3a0       ??_C@_03FEFJNEK@Sat?$AA@   000943a0     wcecompatex:time.obj
 0002:0002c3a4       ??_C@_03IDIOELNC@Fri?$AA@  000943a4     wcecompatex:time.obj
 0002:0002c3a8       ??_C@_03IOFIKPDN@Thu?$AA@  000943a8     wcecompatex:time.obj
 0002:0002c3ac       ??_C@_03MHOMLAJA@Wed?$AA@  000943ac     wcecompatex:time.obj
 0002:0002c3b0       ??_C@_03NAGEINEP@Tue?$AA@  000943b0     wcecompatex:time.obj
 0002:0002c3b4       ??_C@_03PDAGKDH@Mon?$AA@   000943b4     wcecompatex:time.obj
 0002:0002c3b8       ??_C@_03KOEHGMDN@Sun?$AA@  000943b8     wcecompatex:time.obj
 0002:0002c3c4       ??_C@_0BG@KLEAJEFJ@Illegal?5byte?5sequence?$AA@ 000943c4     wcecompatex:string_extras.obj
 0002:0002c3dc       ??_C@_0BE@ICMCHPHH@Directory?5not?5empty?$AA@ 000943dc     wcecompatex:string_extras.obj
 0002:0002c3f0       ??_C@_0BJ@IHEHINLI@Function?5not?5implemented?$AA@ 000943f0     wcecompatex:string_extras.obj
 0002:0002c40c       ??_C@_0BD@CLHBCGPB@No?5locks?5available?$AA@ 0009440c     wcecompatex:string_extras.obj
 0002:0002c420       ??_C@_0BC@BEDIHIDK@Filename?5too?5long?$AA@ 00094420     wcecompatex:string_extras.obj
 0002:0002c434       ??_C@_0BK@JAEBMJJM@Resource?5deadlock?5avoided?$AA@ 00094434     wcecompatex:string_extras.obj
 0002:0002c450       ??_C@_0BB@FCBJFCAJ@Result?5too?5large?$AA@ 00094450     wcecompatex:string_extras.obj
 0002:0002c464       ??_C@_0N@MMJPGLJK@Domain?5error?$AA@ 00094464     wcecompatex:string_extras.obj
 0002:0002c474       ??_C@_0M@LHEPIIOM@Broken?5pipe?$AA@ 00094474     wcecompatex:string_extras.obj
 0002:0002c480       ??_C@_0P@PKCJJLLM@Too?5many?5links?$AA@ 00094480     wcecompatex:string_extras.obj
 0002:0002c490       ??_C@_0BG@DDBFNKBH@Read?9only?5file?5system?$AA@ 00094490     wcecompatex:string_extras.obj
 0002:0002c4a8       ??_C@_0N@FEHLOILP@Invalid?5seek?$AA@ 000944a8     wcecompatex:string_extras.obj
 0002:0002c4b8       ??_C@_0BI@FEALHKLD@No?5space?5left?5on?5device?$AA@ 000944b8     wcecompatex:string_extras.obj
 0002:0002c4d0       ??_C@_0P@LFMMIPAE@File?5too?5large?$AA@ 000944d0     wcecompatex:string_extras.obj
 0002:0002c4e0       ??_C@_0CE@ONOKNLPF@Inappropriate?5I?1O?5control?5operat@ 000944e0     wcecompatex:string_extras.obj
 0002:0002c504       ??_C@_0BE@INBJMKGG@Too?5many?5open?5files?$AA@ 00094504     wcecompatex:string_extras.obj
 0002:0002c518       ??_C@_0BO@IIFBODJE@Too?5many?5open?5files?5in?5system?$AA@ 00094518     wcecompatex:string_extras.obj
 0002:0002c538       ??_C@_0BB@HMGGCEBG@Invalid?5argument?$AA@ 00094538     wcecompatex:string_extras.obj
 0002:0002c54c       ??_C@_0P@NDHGCGKE@Is?5a?5directory?$AA@ 0009454c     wcecompatex:string_extras.obj
 0002:0002c55c       ??_C@_0BA@CJBACOOL@Not?5a?5directory?$AA@ 0009455c     wcecompatex:string_extras.obj
 0002:0002c56c       ??_C@_0P@NLEIANHE@No?5such?5device?$AA@ 0009456c     wcecompatex:string_extras.obj
 0002:0002c57c       ??_C@_0O@OAMDNOCP@Improper?5link?$AA@ 0009457c     wcecompatex:string_extras.obj
 0002:0002c58c       ??_C@_0M@NAAJNNGH@File?5exists?$AA@ 0009458c     wcecompatex:string_extras.obj
 0002:0002c598       ??_C@_0BI@PDLELJEJ@Device?5or?5resource?5busy?$AA@ 00094598     wcecompatex:string_extras.obj
 0002:0002c5b0       ??_C@_0O@NIPGCINC@Unknown?5error?$AA@ 000945b0     wcecompatex:string_extras.obj
 0002:0002c5c0       ??_C@_0M@LOEHLCJD@Bad?5address?$AA@ 000945c0     wcecompatex:string_extras.obj
 0002:0002c5cc       ??_C@_0BC@HFNFNKAI@Permission?5denied?$AA@ 000945cc     wcecompatex:string_extras.obj
 0002:0002c5e0       ??_C@_0BC@BAKIAKOF@Not?5enough?5memory?$AA@ 000945e0     wcecompatex:string_extras.obj
 0002:0002c5f4       ??_C@_0CB@EPFKGNAK@Resource?5temporarily?5unavailable@ 000945f4     wcecompatex:string_extras.obj
 0002:0002c618       ??_C@_0BD@LOHELEP@No?5child?5processes?$AA@ 00094618     wcecompatex:string_extras.obj
 0002:0002c62c       ??_C@_0BE@NFGDDCEF@Bad?5file?5descriptor?$AA@ 0009462c     wcecompatex:string_extras.obj
 0002:0002c640       ??_C@_0BC@HKPNECK@Exec?5format?5error?$AA@ 00094640     wcecompatex:string_extras.obj
 0002:0002c654       ??_C@_0BC@MFFGCDFL@Arg?5list?5too?5long?$AA@ 00094654     wcecompatex:string_extras.obj
 0002:0002c668       ??_C@_0BK@DPKMCKJ@No?5such?5device?5or?5address?$AA@ 00094668     wcecompatex:string_extras.obj
 0002:0002c684       ??_C@_09FIANMNHE@I?1O?5error?$AA@ 00094684     wcecompatex:string_extras.obj
 0002:0002c690       ??_C@_0BI@EAGLFFDI@Interrupted?5system?5call?$AA@ 00094690     wcecompatex:string_extras.obj
 0002:0002c6a8       ??_C@_0BA@FKIAIBGA@No?5such?5process?$AA@ 000946a8     wcecompatex:string_extras.obj
 0002:0002c6b8       ??_C@_0BK@FMDHKPNF@No?5such?5file?5or?5directory?$AA@ 000946b8     wcecompatex:string_extras.obj
 0002:0002c6d4       ??_C@_0BI@BJFCGOHL@Operation?5not?5permitted?$AA@ 000946d4     wcecompatex:string_extras.obj
 0002:0002c6ec       ??_C@_08INEPGKHH@No?5error?$AA@ 000946ec     wcecompatex:string_extras.obj
 0002:0002c70c       __IMPORT_DESCRIPTOR_COREDLL 0009470c     coredll:COREDLL.dll
 0002:0002c720       __NULL_IMPORT_DESCRIPTOR   00094720     coredll:COREDLL.dll
 0003:00000000       __imp__getstdfilex         00095000     coredll:COREDLL.dll
 0003:00000004       __imp_memcmp               00095004     coredll:COREDLL.dll
 0003:00000008       __imp___ltd                00095008     coredll:COREDLL.dll
 0003:0000000c       __imp___negd               0009500c     coredll:COREDLL.dll
 0003:00000010       __imp___muld               00095010     coredll:COREDLL.dll
 0003:00000014       __imp___dtoi               00095014     coredll:COREDLL.dll
 0003:00000018       __imp___itod               00095018     coredll:COREDLL.dll
 0003:0000001c       __imp___subd               0009501c     coredll:COREDLL.dll
 0003:00000020       __imp___ged                00095020     coredll:COREDLL.dll
 0003:00000024       __imp_memcpy               00095024     coredll:COREDLL.dll
 0003:00000028       __imp_strlen               00095028     coredll:COREDLL.dll
 0003:0000002c       __imp___rt_udiv64by64      0009502c     coredll:COREDLL.dll
 0003:00000030       __imp___rt_urem64by64      00095030     coredll:COREDLL.dll
 0003:00000034       __imp__isctype             00095034     coredll:COREDLL.dll
 0003:00000038       __imp_memset               00095038     coredll:COREDLL.dll
 0003:0000003c       __imp_strncpy              0009503c     coredll:COREDLL.dll
 0003:00000040       __imp_strchr               00095040     coredll:COREDLL.dll
 0003:00000044       __imp_free                 00095044     coredll:COREDLL.dll
 0003:00000048       __imp_realloc              00095048     coredll:COREDLL.dll
 0003:0000004c       __imp_malloc               0009504c     coredll:COREDLL.dll
 0003:00000050       __imp_strcpy               00095050     coredll:COREDLL.dll
 0003:00000054       __imp_fclose               00095054     coredll:COREDLL.dll
 0003:00000058       __imp_GetLastError         00095058     coredll:COREDLL.dll
 0003:0000005c       __imp_ferror               0009505c     coredll:COREDLL.dll
 0003:00000060       __imp_fread                00095060     coredll:COREDLL.dll
 0003:00000064       __imp_fwrite               00095064     coredll:COREDLL.dll
 0003:00000068       __imp__setmode             00095068     coredll:COREDLL.dll
 0003:0000006c       __imp__fileno              0009506c     coredll:COREDLL.dll
 0003:00000070       __imp_fopen                00095070     coredll:COREDLL.dll
 0003:00000074       __imp_fseek                00095074     coredll:COREDLL.dll
 0003:00000078       __imp_ftell                00095078     coredll:COREDLL.dll
 0003:0000007c       __imp_feof                 0009507c     coredll:COREDLL.dll
 0003:00000080       __imp_fflush               00095080     coredll:COREDLL.dll
 0003:00000084       __imp_strcat               00095084     coredll:COREDLL.dll
 0003:00000088       __imp_fgets                00095088     coredll:COREDLL.dll
 0003:0000008c       __imp__wfopen              0009508c     coredll:COREDLL.dll
 0003:00000090       __imp_MultiByteToWideChar  00095090     coredll:COREDLL.dll
 0003:00000094       __imp_MessageBoxW          00095094     coredll:COREDLL.dll
 0003:00000098       __imp__vsnwprintf          00095098     coredll:COREDLL.dll
 0003:0000009c       __imp___rt_udiv            0009509c     coredll:COREDLL.dll
 0003:000000a0       __imp_strcmp               000950a0     coredll:COREDLL.dll
 0003:000000a4       __imp_qsort                000950a4     coredll:COREDLL.dll
 0003:000000a8       __imp___rt_sdiv            000950a8     coredll:COREDLL.dll
 0003:000000ac       __imp_memchr               000950ac     coredll:COREDLL.dll
 0003:000000b0       __imp___addd               000950b0     coredll:COREDLL.dll
 0003:000000b4       __imp__strnicmp            000950b4     coredll:COREDLL.dll
 0003:000000b8       __imp_fprintf              000950b8     coredll:COREDLL.dll
 0003:000000bc       __imp_GetTickCount         000950bc     coredll:COREDLL.dll
 0003:000000c0       __imp_QueryPerformanceCounter 000950c0     coredll:COREDLL.dll
 0003:000000c4       __imp_GlobalMemoryStatus   000950c4     coredll:COREDLL.dll
 0003:000000c8       __imp_CryptReleaseContext  000950c8     coredll:COREDLL.dll
 0003:000000cc       __imp_CryptGenRandom       000950cc     coredll:COREDLL.dll
 0003:000000d0       __imp_CryptAcquireContextW 000950d0     coredll:COREDLL.dll
 0003:000000d4       __imp_GetVersionExW        000950d4     coredll:COREDLL.dll
 0003:000000d8       __imp_atoi                 000950d8     coredll:COREDLL.dll
 0003:000000dc       __imp_tolower              000950dc     coredll:COREDLL.dll
 0003:000000e0       __imp_strncmp              000950e0     coredll:COREDLL.dll
 0003:000000e4       __imp_sscanf               000950e4     coredll:COREDLL.dll
 0003:000000e8       __imp_strrchr              000950e8     coredll:COREDLL.dll
 0003:000000ec       __imp__stricmp             000950ec     coredll:COREDLL.dll
 0003:000000f0       __imp_memmove              000950f0     coredll:COREDLL.dll
 0003:000000f4       __imp_strtoul              000950f4     coredll:COREDLL.dll
 0003:000000f8       __imp_LoadLibraryW         000950f8     coredll:COREDLL.dll
 0003:000000fc       __imp_SetLastError         000950fc     coredll:COREDLL.dll
 0003:00000100       __imp_FreeLibrary          00095100     coredll:COREDLL.dll
 0003:00000104       __imp_GetProcAddressA      00095104     coredll:COREDLL.dll
 0003:00000108       __imp_sprintf              00095108     coredll:COREDLL.dll
 0003:0000010c       __imp_strstr               0009510c     coredll:COREDLL.dll
 0003:00000110       __imp_WideCharToMultiByte  00095110     coredll:COREDLL.dll
 0003:00000114       __imp_fputs                00095114     coredll:COREDLL.dll
 0003:00000118       __imp_SystemTimeToFileTime 00095118     coredll:COREDLL.dll
 0003:0000011c       __imp_GetSystemTime        0009511c     coredll:COREDLL.dll
 0003:00000120       __imp_GetTimeZoneInformation 00095120     coredll:COREDLL.dll
 0003:00000124       __imp_FileTimeToSystemTime 00095124     coredll:COREDLL.dll
 0003:00000128       __imp_FileTimeToLocalFileTime 00095128     coredll:COREDLL.dll
 0003:0000012c       __imp_LocalFree            0009512c     coredll:COREDLL.dll
 0003:00000130       __imp__XcptFilter          00095130     coredll:COREDLL.dll
 0003:00000134       __imp___C_specific_handler 00095134     coredll:COREDLL.dll
 0003:00000138       __imp_FindFirstFileW       00095138     coredll:COREDLL.dll
 0003:0000013c       __imp_FindClose            0009513c     coredll:COREDLL.dll
 0003:00000140       __imp_FindNextFileW        00095140     coredll:COREDLL.dll
 0003:00000144       __imp_GetModuleFileNameW   00095144     coredll:COREDLL.dll
 0003:00000148       \177COREDLL_NULL_THUNK_DATA 00095148     coredll:COREDLL.dll
 0003:0000014c       __xc_a                     0009514c     corelibc:crt0init.obj
 0003:00000150       __xc_z                     00095150     corelibc:crt0init.obj
 0003:00000154       __xi_a                     00095154     corelibc:crt0init.obj
 0003:00000158       __xi_z                     00095158     corelibc:crt0init.obj
 0003:0000015c       __xp_a                     0009515c     corelibc:crt0init.obj
 0003:00000160       __xp_z                     00095160     corelibc:crt0init.obj
 0003:00000164       __xt_a                     00095164     corelibc:crt0init.obj
 0003:00000168       __xt_z                     00095168     corelibc:crt0init.obj
 0003:0000057c       rand_ssleay_meth           0009557c     libeay32:md_rand.obj
 0003:00004388       default_pctx               00099388     libeay32:tasn_prn.obj
 0003:00004ca8       ?messages@@3PAPADA         00099ca8     wcecompatex:string_extras.obj
 0003:00006448       OPENSSL_NONPIC_relocated   0009b448     libeay32:cryptlib.obj
 0003:00006480       cleanse_ctr                0009b480     libeay32:mem_clr.obj
 0003:00006af0       obj_cleanup_defer          0009baf0     libeay32:obj_dat.obj
 0003:00006b18       app_pkey_methods           0009bb18     libeay32:pmeth_lib.obj
 0003:00006d54       errno                      0009bd54     wcecompatex:errno.obj
 0003:00006d58       _environ                   0009bd58     wcecompatex:env.obj
 0003:00006d5c       _wenviron                  0009bd5c     wcecompatex:env.obj
 0003:00006d60       ?num_env_vars@@3HA         0009bd60     wcecompatex:env.obj
 0003:00006d64       ?_timezone@@3HA            0009bd64     wcecompatex:timeb.obj
 0003:00006d68       ?altzone@@3HA              0009bd68     wcecompatex:timeb.obj
 0003:00006d6c       ?timezone@@3HA             0009bd6c     wcecompatex:timeb.obj
 0003:00006d70       sigx_app                   0009bd70     <common>
 0003:00006d74       sig_app                    0009bd74     <common>
 0003:00006d78       __onexitend                0009bd78     <common>
 0003:00006d7c       __onexitbegin              0009bd7c     <common>
 0003:00006d80       _exitflag                  0009bd80     <common>

 entry point at        0001:0005582c

 Static symbols

 0001:00000000       dsa_cb                     00011000 f   dsatest.obj
 0001:00000450       roundv                     00011450 f   libeay32:b_print.obj
 0001:000004e0       doapr_outch                000114e0 f   libeay32:b_print.obj
 0001:000005d4       fmtstr                     000115d4 f   libeay32:b_print.obj
 0001:00000704       fmtint                     00011704 f   libeay32:b_print.obj
 0001:00000a44       fmtfp                      00011a44 f   libeay32:b_print.obj
 0001:00000f34       _dopr                      00011f34 f   libeay32:b_print.obj
 0001:00002094       app_info_free              00013094 f   libeay32:mem_dbg.obj
 0001:000022f8       mem_LHASH_COMP             000132f8 f   libeay32:mem_dbg.obj
 0001:00002308       mem_LHASH_HASH             00013308 f   libeay32:mem_dbg.obj
 0001:0000233c       app_info_LHASH_COMP        0001333c f   libeay32:mem_dbg.obj
 0001:0000234c       app_info_LHASH_HASH        0001334c f   libeay32:mem_dbg.obj
 0001:00002384       pop_info                   00013384 f   libeay32:mem_dbg.obj
 0001:00002824       print_leak_doall_arg       00013824 f   libeay32:mem_dbg.obj
 0001:00002a64       print_leak_LHASH_DOALL_ARG 00013a64 f   libeay32:mem_dbg.obj
 0001:00002b90       err_fns_check              00013b90 f   libeay32:err.obj
 0001:00002bf8       err_string_data_LHASH_HASH 00013bf8 f   libeay32:err.obj
 0001:00002c44       err_string_data_LHASH_COMP 00013c44 f   libeay32:err.obj
 0001:00002c54       int_err_get                00013c54 f   libeay32:err.obj
 0001:00002d00       int_err_del                00013d00 f   libeay32:err.obj
 0001:00002d5c       int_err_get_item           00013d5c f   libeay32:err.obj
 0001:00002de0       int_err_set_item           00013de0 f   libeay32:err.obj
 0001:00002e60       int_err_del_item           00013e60 f   libeay32:err.obj
 0001:00002ee4       err_state_LHASH_HASH       00013ee4 f   libeay32:err.obj
 0001:00002efc       err_state_LHASH_COMP       00013efc f   libeay32:err.obj
 0001:00002f0c       int_thread_get             00013f0c f   libeay32:err.obj
 0001:00002fc4       int_thread_release         00013fc4 f   libeay32:err.obj
 0001:00003020       int_thread_get_item        00014020 f   libeay32:err.obj
 0001:000030c4       int_thread_set_item        000140c4 f   libeay32:err.obj
 0001:00003168       int_err_get_next_lib       00014168 f   libeay32:err.obj
 0001:000031c0       ERR_STATE_free             000141c0 f   libeay32:err.obj
 0001:00003218       err_load_strings           00014218 f   libeay32:err.obj
 0001:00003780       int_thread_del_item        00014780 f   libeay32:err.obj
 0001:00003b6c       get_error_values           00014b6c f   libeay32:err.obj
 0001:00003e8c       impl_check                 00014e8c f   libeay32:ex_data.obj
 0001:00003ee0       ex_class_item_LHASH_HASH   00014ee0 f   libeay32:ex_data.obj
 0001:00003ee8       ex_class_item_LHASH_COMP   00014ee8 f   libeay32:ex_data.obj
 0001:00003ef8       ex_data_check              00014ef8 f   libeay32:ex_data.obj
 0001:00003f74       def_cleanup_util_cb        00014f74 f   libeay32:ex_data.obj
 0001:00003f84       def_cleanup_cb             00014f84 f   libeay32:ex_data.obj
 0001:00003fac       def_get_class              00014fac f   libeay32:ex_data.obj
 0001:000040a8       def_add_index              000150a8 f   libeay32:ex_data.obj
 0001:000041dc       int_new_class              000151dc f   libeay32:ex_data.obj
 0001:00004234       int_cleanup                00015234 f   libeay32:ex_data.obj
 0001:00004288       int_get_new_index          00015288 f   libeay32:ex_data.obj
 0001:000044bc       int_new_ex_data            000154bc f   libeay32:ex_data.obj
 0001:00004638       int_dup_ex_data            00015638 f   libeay32:ex_data.obj
 0001:000047e0       int_free_ex_data           000157e0 f   libeay32:ex_data.obj
 0001:00004db0       print_bio                  00015db0 f   libeay32:err_prn.obj
 0001:00004dec       sig_cb                     00015dec f   libeay32:dsa_asn1.obj
 0001:00004e80       dsa_cb                     00015e80 f   libeay32:dsa_asn1.obj
 0001:00005060       dsa_builtin_keygen         00016060 f   libeay32:dsa_key.obj
 0001:0000538c       bn_expand_internal         0001638c f   libeay32:bn_lib.obj
 0001:00006544       default_malloc_ex          00017544 f   libeay32:mem.obj
 0001:00006564       default_realloc_ex         00017564 f   libeay32:mem.obj
 0001:00006584       default_malloc_locked_ex   00017584 f   libeay32:mem.obj
 0001:00006998       file_new                   00017998 f   libeay32:bss_file.obj
 0001:000069b4       file_free                  000179b4 f   libeay32:bss_file.obj
 0001:00006a10       file_read                  00017a10 f   libeay32:bss_file.obj
 0001:00006ab0       file_write                 00017ab0 f   libeay32:bss_file.obj
 0001:00006afc       file_ctrl                  00017afc f   libeay32:bss_file.obj
 0001:00006d90       file_gets                  00017d90 f   libeay32:bss_file.obj
 0001:00006de4       file_puts                  00017de4 f   libeay32:bss_file.obj
 0001:00007764       expand                     00018764 f   libeay32:lhash.obj
 0001:0000789c       contract                   0001889c f   libeay32:lhash.obj
 0001:00007994       getrn                      00018994 f   libeay32:lhash.obj
 0001:00008270       internal_find              00019270 f   libeay32:stack.obj
 0001:000083bc       dsa_do_sign                000193bc f   libeay32:dsa_ossl.obj
 0001:0000860c       dsa_sign_setup             0001960c f   libeay32:dsa_ossl.obj
 0001:000088a8       dsa_do_verify              000198a8 f   libeay32:dsa_ossl.obj
 0001:00008bc0       dsa_init                   00019bc0 f   libeay32:dsa_ossl.obj
 0001:00008bd8       dsa_finish                 00019bd8 f   libeay32:dsa_ossl.obj
 0001:00008e58       asn1_get_length            00019e58 f   libeay32:asn1_lib.obj
 0001:00009a20       bn_new                     0001aa20 f   libeay32:x_bignum.obj
 0001:00009a48       bn_free                    0001aa48 f   libeay32:x_bignum.obj
 0001:00009a84       bn_i2c                     0001aa84 f   libeay32:x_bignum.obj
 0001:00009af4       bn_c2i                     0001aaf4 f   libeay32:x_bignum.obj
 0001:00009b6c       long_new                   0001ab6c f   libeay32:x_long.obj
 0001:00009b80       long_free                  0001ab80 f   libeay32:x_long.obj
 0001:00009b8c       long_i2c                   0001ab8c f   libeay32:x_long.obj
 0001:00009c44       long_c2i                   0001ac44 f   libeay32:x_long.obj
 0001:00009d38       long_print                 0001ad38 f   libeay32:x_long.obj
 0001:0000a0c4       asn1_check_tlen            0001b0c4 f   libeay32:tasn_dec.obj
 0001:0000a2c4       asn1_template_ex_d2i       0001b2c4 f   libeay32:tasn_dec.obj
 0001:0000a4e0       asn1_find_end              0001b4e0 f   libeay32:tasn_dec.obj
 0001:0000a634       asn1_collect               0001b634 f   libeay32:tasn_dec.obj
 0001:0000a890       asn1_d2i_ex_primitive      0001b890 f   libeay32:tasn_dec.obj
 0001:0000b658       asn1_template_noexp_d2i    0001c658 f   libeay32:tasn_dec.obj
 0001:0000ba74       asn1_template_ex_i2d       0001ca74 f   libeay32:tasn_enc.obj
 0001:0000bd94       der_cmp                    0001cd94 f   libeay32:tasn_enc.obj
 0001:0000bfb4       asn1_i2d_ex_primitive      0001cfb4 f   libeay32:tasn_enc.obj
 0001:0000c48c       asn1_set_seq_out           0001d48c f   libeay32:tasn_enc.obj
 0001:0000c6d4       asn1_item_flags_i2d        0001d6d4 f   libeay32:tasn_enc.obj
 0001:0000c8fc       BN_POOL_get                0001d8fc f   libeay32:bn_ctx.obj
 0001:0000d058       MOD_EXP_CTIME_COPY_FROM_PREBUF 0001e058 f   libeay32:bn_exp.obj
 0001:0000dfd8       bnrand                     0001efd8 f   libeay32:bn_rand.obj
 0001:0000e240       bn_rand_range              0001f240 f   libeay32:bn_rand.obj
 0001:0000e79c       pkey_set_type              0001f79c f   libeay32:p_lib.obj
 0001:0000ea04       BN_from_montgomery_word    0001fa04 f   libeay32:bn_mont.obj
 0001:0000ffe8       witness                    00020fe8 f   libeay32:bn_prime.obj
 0001:000100f4       probable_prime_dh          000210f4 f   libeay32:bn_prime.obj
 0001:00010218       probable_prime_dh_safe     00021218 f   libeay32:bn_prime.obj
 0001:000111c4       init                       000221c4 f   libeay32:m_sha1.obj
 0001:000111d8       update                     000221d8 f   libeay32:m_sha1.obj
 0001:000111ec       final                      000221ec f   libeay32:m_sha1.obj
 0001:00011214       init224                    00022214 f   libeay32:m_sha1.obj
 0001:00011228       init256                    00022228 f   libeay32:m_sha1.obj
 0001:0001123c       update256                  0002223c f   libeay32:m_sha1.obj
 0001:00011250       final256                   00022250 f   libeay32:m_sha1.obj
 0001:00011278       init384                    00022278 f   libeay32:m_sha1.obj
 0001:0001128c       init512                    0002228c f   libeay32:m_sha1.obj
 0001:000112a0       update512                  000222a0 f   libeay32:m_sha1.obj
 0001:000112b4       final512                   000222b4 f   libeay32:m_sha1.obj
 0001:000112dc       ssleay_rand_cleanup        000222dc f   libeay32:md_rand.obj
 0001:00011344       ssleay_rand_add            00022344 f   libeay32:md_rand.obj
 0001:000116dc       ssleay_rand_seed           000226dc f   libeay32:md_rand.obj
 0001:0001171c       ssleay_rand_bytes          0002271c f   libeay32:md_rand.obj
 0001:00011b58       ssleay_rand_nopseudo_bytes 00022b58 f   libeay32:md_rand.obj
 0001:00011b6c       ssleay_rand_pseudo_bytes   00022b6c f   libeay32:md_rand.obj
 0001:00011b80       ssleay_rand_status         00022b80 f   libeay32:md_rand.obj
 0001:00012370       sn_cmp_BSEARCH_CMP_FN      00023370 f   libeay32:obj_dat.obj
 0001:0001239c       ln_cmp_BSEARCH_CMP_FN      0002339c f   libeay32:obj_dat.obj
 0001:00012678       obj_cmp_BSEARCH_CMP_FN     00023678 f   libeay32:obj_dat.obj
 0001:00013160       euclid                     00024160 f   libeay32:bn_gcd.obj
 0001:0001328c       BN_mod_inverse_no_branch   0002428c f   libeay32:bn_gcd.obj
 0001:000145f0       int_cb_LHASH_DOALL_ARG     000255f0 f   libeay32:eng_table.obj
 0001:00014778       asn1_item_ex_combine_new   00025778 f   libeay32:tasn_new.obj
 0001:00014a58       asn1_item_clear            00025a58 f   libeay32:tasn_new.obj
 0001:00014da8       asn1_item_combine_free     00025da8 f   libeay32:tasn_fre.obj
 0001:00015150       generate_key               00026150 f   libeay32:dh_key.obj
 0001:00015368       compute_key                00026368 f   libeay32:dh_key.obj
 0001:00015520       dh_bn_mod_exp              00026520 f   libeay32:dh_key.obj
 0001:000155a8       dh_init                    000265a8 f   libeay32:dh_key.obj
 0001:000155c0       dh_finish                  000265c0 f   libeay32:dh_key.obj
 0001:00018550       ameth_cmp_BSEARCH_CMP_FN   00029550 f   libeay32:ameth_lib.obj
 0001:00018ab4       pmeth_cmp_BSEARCH_CMP_FN   00029ab4 f   libeay32:pmeth_lib.obj
 0001:00019ad8       sha1_block_data_order      0002aad8 f   libeay32:sha1dgst.obj
 0001:0001a1ac       sha256_block_data_order    0002b1ac f   libeay32:sha256.obj
 0001:0001a93c       sha512_block_data_order    0002b93c f   libeay32:sha512.obj
 0001:0001b490       readtimer                  0002c490 f   libeay32:rand_win.obj
 0001:0001bddc       look_str_cb                0002cddc f   libeay32:tb_asnmth.obj
 0001:0001c144       RSA_eay_public_encrypt     0002d144 f   libeay32:rsa_eay.obj
 0001:0001c494       rsa_get_blinding           0002d494 f   libeay32:rsa_eay.obj
 0001:0001c604       rsa_blinding_convert       0002d604 f   libeay32:rsa_eay.obj
 0001:0001c68c       RSA_eay_private_encrypt    0002d68c f   libeay32:rsa_eay.obj
 0001:0001caf8       RSA_eay_private_decrypt    0002daf8 f   libeay32:rsa_eay.obj
 0001:0001cf68       RSA_eay_public_decrypt     0002df68 f   libeay32:rsa_eay.obj
 0001:0001d2e0       RSA_eay_mod_exp            0002e2e0 f   libeay32:rsa_eay.obj
 0001:0001d8fc       RSA_eay_init               0002e8fc f   libeay32:rsa_eay.obj
 0001:0001d914       RSA_eay_finish             0002e914 f   libeay32:rsa_eay.obj
 0001:0001f880       ec_group_new_from_data     00030880 f   libeay32:ec_curve.obj
 0001:0001fd5c       cmac_size                  00030d5c f   libeay32:cm_ameth.obj
 0001:0001fd64       cmac_key_free              00030d64 f   libeay32:cm_ameth.obj
 0001:0001fd80       hmac_size                  00030d80 f   libeay32:hm_ameth.obj
 0001:0001fd88       hmac_key_free              00030d88 f   libeay32:hm_ameth.obj
 0001:0001fdbc       hmac_pkey_ctrl             00030dbc f   libeay32:hm_ameth.obj
 0001:0001fdd4       old_hmac_decode            00030dd4 f   libeay32:hm_ameth.obj
 0001:0001fe34       old_hmac_encode            00030e34 f   libeay32:hm_ameth.obj
 0001:0001fea4       eckey_param2type           00030ea4 f   libeay32:ec_ameth.obj
 0001:0001ff8c       eckey_pub_encode           00030f8c f   libeay32:ec_ameth.obj
 0001:00020090       eckey_type2param           00031090 f   libeay32:ec_ameth.obj
 0001:0002019c       eckey_pub_decode           0003119c f   libeay32:ec_ameth.obj
 0001:00020298       eckey_pub_cmp              00031298 f   libeay32:ec_ameth.obj
 0001:00020300       eckey_priv_decode          00031300 f   libeay32:ec_ameth.obj
 0001:00020528       eckey_priv_encode          00031528 f   libeay32:ec_ameth.obj
 0001:000206c0       int_ec_size                000316c0 f   libeay32:ec_ameth.obj
 0001:000206d4       ec_bits                    000316d4 f   libeay32:ec_ameth.obj
 0001:00020730       ec_missing_parameters      00031730 f   libeay32:ec_ameth.obj
 0001:00020754       ec_copy_parameters         00031754 f   libeay32:ec_ameth.obj
 0001:000207a4       ec_cmp_parameters          000317a4 f   libeay32:ec_ameth.obj
 0001:000207e8       int_ec_free                000317e8 f   libeay32:ec_ameth.obj
 0001:000207fc       do_EC_KEY_print            000317fc f   libeay32:ec_ameth.obj
 0001:00020a90       eckey_param_decode         00031a90 f   libeay32:ec_ameth.obj
 0001:00020af4       eckey_param_encode         00031af4 f   libeay32:ec_ameth.obj
 0001:00020b08       eckey_param_print          00031b08 f   libeay32:ec_ameth.obj
 0001:00020b20       eckey_pub_print            00031b20 f   libeay32:ec_ameth.obj
 0001:00020b38       eckey_priv_print           00031b38 f   libeay32:ec_ameth.obj
 0001:00020b50       old_ec_priv_decode         00031b50 f   libeay32:ec_ameth.obj
 0001:00020bb8       old_ec_priv_encode         00031bb8 f   libeay32:ec_ameth.obj
 0001:00020bcc       ec_pkey_ctrl               00031bcc f   libeay32:ec_ameth.obj
 0001:00020d20       dsa_pub_decode             00031d20 f   libeay32:dsa_ameth.obj
 0001:00020ecc       dsa_pub_encode             00031ecc f   libeay32:dsa_ameth.obj
 0001:00021008       dsa_priv_decode            00032008 f   libeay32:dsa_ameth.obj
 0001:000212f4       dsa_priv_encode            000322f4 f   libeay32:dsa_ameth.obj
 0001:0002144c       int_dsa_size               0003244c f   libeay32:dsa_ameth.obj
 0001:00021460       dsa_bits                   00032460 f   libeay32:dsa_ameth.obj
 0001:00021478       dsa_missing_parameters     00032478 f   libeay32:dsa_ameth.obj
 0001:000214a8       dsa_copy_parameters        000324a8 f   libeay32:dsa_ameth.obj
 0001:0002155c       dsa_cmp_parameters         0003255c f   libeay32:dsa_ameth.obj
 0001:000215d0       dsa_pub_cmp                000325d0 f   libeay32:dsa_ameth.obj
 0001:00021600       int_dsa_free               00032600 f   libeay32:dsa_ameth.obj
 0001:00021614       do_dsa_print               00032614 f   libeay32:dsa_ameth.obj
 0001:0002189c       dsa_param_decode           0003289c f   libeay32:dsa_ameth.obj
 0001:00021900       dsa_param_encode           00032900 f   libeay32:dsa_ameth.obj
 0001:00021914       dsa_param_print            00032914 f   libeay32:dsa_ameth.obj
 0001:0002192c       dsa_pub_print              0003292c f   libeay32:dsa_ameth.obj
 0001:00021944       dsa_priv_print             00032944 f   libeay32:dsa_ameth.obj
 0001:0002195c       old_dsa_priv_decode        0003295c f   libeay32:dsa_ameth.obj
 0001:000219c4       old_dsa_priv_encode        000329c4 f   libeay32:dsa_ameth.obj
 0001:000219d8       dsa_sig_print              000329d8 f   libeay32:dsa_ameth.obj
 0001:00021b68       dsa_pkey_ctrl              00032b68 f   libeay32:dsa_ameth.obj
 0001:00021cbc       int_dh_free                00032cbc f   libeay32:dh_ameth.obj
 0001:00021cd0       dh_pub_decode              00032cd0 f   libeay32:dh_ameth.obj
 0001:00021e40       dh_pub_encode              00032e40 f   libeay32:dh_ameth.obj
 0001:00021f54       dh_priv_decode             00032f54 f   libeay32:dh_ameth.obj
 0001:00022088       dh_priv_encode             00033088 f   libeay32:dh_ameth.obj
 0001:000221d4       dh_param_decode            000331d4 f   libeay32:dh_ameth.obj
 0001:00022238       dh_param_encode            00033238 f   libeay32:dh_ameth.obj
 0001:0002224c       do_dh_print                0003324c f   libeay32:dh_ameth.obj
 0001:000224d8       int_dh_size                000334d8 f   libeay32:dh_ameth.obj
 0001:000224ec       dh_bits                    000334ec f   libeay32:dh_ameth.obj
 0001:00022504       dh_cmp_parameters          00033504 f   libeay32:dh_ameth.obj
 0001:0002255c       dh_copy_parameters         0003355c f   libeay32:dh_ameth.obj
 0001:000225e0       dh_missing_parameters      000335e0 f   libeay32:dh_ameth.obj
 0001:00022600       dh_pub_cmp                 00033600 f   libeay32:dh_ameth.obj
 0001:0002264c       dh_param_print             0003364c f   libeay32:dh_ameth.obj
 0001:00022670       dh_public_print            00033670 f   libeay32:dh_ameth.obj
 0001:00022694       dh_private_print           00033694 f   libeay32:dh_ameth.obj
 0001:000226b8       rsa_pub_encode             000336b8 f   libeay32:rsa_ameth.obj
 0001:00022730       rsa_pub_decode             00033730 f   libeay32:rsa_ameth.obj
 0001:000227c0       rsa_pub_cmp                000337c0 f   libeay32:rsa_ameth.obj
 0001:00022818       old_rsa_priv_decode        00033818 f   libeay32:rsa_ameth.obj
 0001:0002287c       old_rsa_priv_encode        0003387c f   libeay32:rsa_ameth.obj
 0001:00022890       rsa_priv_encode            00033890 f   libeay32:rsa_ameth.obj
 0001:00022950       rsa_priv_decode            00033950 f   libeay32:rsa_ameth.obj
 0001:0002299c       int_rsa_size               0003399c f   libeay32:rsa_ameth.obj
 0001:000229b0       rsa_bits                   000339b0 f   libeay32:rsa_ameth.obj
 0001:000229c8       int_rsa_free               000339c8 f   libeay32:rsa_ameth.obj
 0001:000229dc       do_rsa_print               000339dc f   libeay32:rsa_ameth.obj
 0001:00022d78       rsa_pub_print              00033d78 f   libeay32:rsa_ameth.obj
 0001:00022d90       rsa_priv_print             00033d90 f   libeay32:rsa_ameth.obj
 0001:00022da8       rsa_pss_decode             00033da8 f   libeay32:rsa_ameth.obj
 0001:00022e70       rsa_pss_param_print        00033e70 f   libeay32:rsa_ameth.obj
 0001:000230c4       rsa_sig_print              000340c4 f   libeay32:rsa_ameth.obj
 0001:0002318c       rsa_pkey_ctrl              0003418c f   libeay32:rsa_ameth.obj
 0001:0002327c       rsa_item_verify            0003427c f   libeay32:rsa_ameth.obj
 0001:0002354c       rsa_item_sign              0003454c f   libeay32:rsa_ameth.obj
 0001:00023814       pkey_cmac_init             00034814 f   libeay32:cm_pmeth.obj
 0001:00023844       pkey_cmac_copy             00034844 f   libeay32:cm_pmeth.obj
 0001:00023888       pkey_cmac_cleanup          00034888 f   libeay32:cm_pmeth.obj
 0001:0002389c       pkey_cmac_keygen           0003489c f   libeay32:cm_pmeth.obj
 0001:000238fc       int_update                 000348fc f   libeay32:cm_pmeth.obj
 0001:00023924       cmac_signctx_init          00034924 f   libeay32:cm_pmeth.obj
 0001:00023950       cmac_signctx               00034950 f   libeay32:cm_pmeth.obj
 0001:00023964       pkey_cmac_ctrl             00034964 f   libeay32:cm_pmeth.obj
 0001:00023a38       pkey_cmac_ctrl_str         00034a38 f   libeay32:cm_pmeth.obj
 0001:00023b48       pkey_hmac_init             00034b48 f   libeay32:hm_pmeth.obj
 0001:00023bac       pkey_hmac_copy             00034bac f   libeay32:hm_pmeth.obj
 0001:00023c34       pkey_hmac_cleanup          00034c34 f   libeay32:hm_pmeth.obj
 0001:00023c80       pkey_hmac_keygen           00034c80 f   libeay32:hm_pmeth.obj
 0001:00023cd4       int_update                 00034cd4 f   libeay32:hm_pmeth.obj
 0001:00023d00       hmac_signctx_init          00034d00 f   libeay32:hm_pmeth.obj
 0001:00023d40       hmac_signctx               00034d40 f   libeay32:hm_pmeth.obj
 0001:00023db0       pkey_hmac_ctrl             00034db0 f   libeay32:hm_pmeth.obj
 0001:00023e48       pkey_hmac_ctrl_str         00034e48 f   libeay32:hm_pmeth.obj
 0001:00023f08       pkey_ec_init               00034f08 f   libeay32:ec_pmeth.obj
 0001:00023f4c       pkey_ec_copy               00034f4c f   libeay32:ec_pmeth.obj
 0001:00023fac       pkey_ec_cleanup            00034fac f   libeay32:ec_pmeth.obj
 0001:00023fdc       pkey_ec_sign               00034fdc f   libeay32:ec_pmeth.obj
 0001:000240a0       pkey_ec_verify             000350a0 f   libeay32:ec_pmeth.obj
 0001:00024100       pkey_ec_derive             00035100 f   libeay32:ec_pmeth.obj
 0001:000241c8       pkey_ec_ctrl               000351c8 f   libeay32:ec_pmeth.obj
 0001:00024314       pkey_ec_ctrl_str           00035314 f   libeay32:ec_pmeth.obj
 0001:000243c0       pkey_ec_paramgen           000353c0 f   libeay32:ec_pmeth.obj
 0001:00024454       pkey_ec_keygen             00035454 f   libeay32:ec_pmeth.obj
 0001:000244e8       pkey_dsa_init              000354e8 f   libeay32:dsa_pmeth.obj
 0001:00024550       pkey_dsa_copy              00035550 f   libeay32:dsa_pmeth.obj
 0001:000245a4       pkey_dsa_cleanup           000355a4 f   libeay32:dsa_pmeth.obj
 0001:000245c0       pkey_dsa_sign              000355c0 f   libeay32:dsa_pmeth.obj
 0001:00024634       pkey_dsa_verify            00035634 f   libeay32:dsa_pmeth.obj
 0001:00024694       pkey_dsa_ctrl              00035694 f   libeay32:dsa_pmeth.obj
 0001:0002488c       pkey_dsa_ctrl_str          0003588c f   libeay32:dsa_pmeth.obj
 0001:00024994       pkey_dsa_paramgen          00035994 f   libeay32:dsa_pmeth.obj
 0001:00024a3c       pkey_dsa_keygen            00035a3c f   libeay32:dsa_pmeth.obj
 0001:00024ad0       pkey_dh_init               00035ad0 f   libeay32:dh_pmeth.obj
 0001:00024b30       pkey_dh_copy               00035b30 f   libeay32:dh_pmeth.obj
 0001:00024b7c       pkey_dh_cleanup            00035b7c f   libeay32:dh_pmeth.obj
 0001:00024b98       pkey_dh_ctrl               00035b98 f   libeay32:dh_pmeth.obj
 0001:00024bec       pkey_dh_ctrl_str           00035bec f   libeay32:dh_pmeth.obj
 0001:00024ca8       pkey_dh_paramgen           00035ca8 f   libeay32:dh_pmeth.obj
 0001:00024d34       pkey_dh_keygen             00035d34 f   libeay32:dh_pmeth.obj
 0001:00024dc4       pkey_dh_derive             00035dc4 f   libeay32:dh_pmeth.obj
 0001:00024e40       pkey_rsa_init              00035e40 f   libeay32:rsa_pmeth.obj
 0001:00024eb8       pkey_rsa_copy              00035eb8 f   libeay32:rsa_pmeth.obj
 0001:00024f28       setup_tbuf                 00035f28 f   libeay32:rsa_pmeth.obj
 0001:00024f74       pkey_rsa_cleanup           00035f74 f   libeay32:rsa_pmeth.obj
 0001:00024fb4       pkey_rsa_sign              00035fb4 f   libeay32:rsa_pmeth.obj
 0001:0002519c       pkey_rsa_verifyrecover     0003619c f   libeay32:rsa_pmeth.obj
 0001:00025350       pkey_rsa_verify            00036350 f   libeay32:rsa_pmeth.obj
 0001:000254c8       pkey_rsa_encrypt           000364c8 f   libeay32:rsa_pmeth.obj
 0001:00025514       pkey_rsa_decrypt           00036514 f   libeay32:rsa_pmeth.obj
 0001:00025560       check_padding_md           00036560 f   libeay32:rsa_pmeth.obj
 0001:000255f0       pkey_rsa_ctrl              000365f0 f   libeay32:rsa_pmeth.obj
 0001:00025930       pkey_rsa_ctrl_str          00036930 f   libeay32:rsa_pmeth.obj
 0001:00025ba8       pkey_rsa_keygen            00036ba8 f   libeay32:rsa_pmeth.obj
 0001:00025e40       rsa_get_public_exp         00036e40 f   libeay32:rsa_crpt.obj
 0001:0002701c       ec_pre_comp_dup            0003801c f   libeay32:ec_mult.obj
 0001:00027058       ec_pre_comp_free           00038058 f   libeay32:ec_mult.obj
 0001:000270d4       ec_pre_comp_clear_free     000380d4 f   libeay32:ec_mult.obj
 0001:00027168       compute_wNAF               00038168 f   libeay32:ec_mult.obj
 0001:00028de8       X9_62_CHARACTERISTIC_TWO_adb 00039de8 f   libeay32:ec_asn1.obj
 0001:00028e00       X9_62_FIELDID_adb          00039e00 f   libeay32:ec_asn1.obj
 0001:00028e3c       ec_asn1_group2fieldid      00039e3c f   libeay32:ec_asn1.obj
 0001:000291b0       ec_asn1_group2curve        0003a1b0 f   libeay32:ec_asn1.obj
 0001:00029598       ec_asn1_group2parameters   0003a598 f   libeay32:ec_asn1.obj
 0001:0002992c       ec_asn1_group2pkparameters 0003a92c f   libeay32:ec_asn1.obj
 0001:00029a2c       ec_asn1_parameters2group   0003aa2c f   libeay32:ec_asn1.obj
 0001:0002a228       ec_asn1_pkparameters2group 0003b228 f   libeay32:ec_asn1.obj
 0001:0002ae6c       pubkey_cb                  0003be6c f   libeay32:x_pubkey.obj
 0001:0002b2a8       pkey_cb                    0003c2a8 f   libeay32:p8_pkey.obj
 0001:0002b440       ecdsa_data_new             0003c440 f   libeay32:ecs_lib.obj
 0001:0002b534       ecdsa_data_dup             0003c534 f   libeay32:ecs_lib.obj
 0001:0002b554       ecdsa_data_free            0003c554 f   libeay32:ecs_lib.obj
 0001:0002b6cc       print_bin                  0003c6cc f   libeay32:eck_prn.obj
 0001:0002c2d4       sig_cmp_BSEARCH_CMP_FN     0003d2d4 f   libeay32:obj_xref.obj
 0001:0002c2e4       sigx_cmp_BSEARCH_CMP_FN    0003d2e4 f   libeay32:obj_xref.obj
 0001:0002c454       cms_get0_signed            0003d454 f   libeay32:cms_sd.obj
 0001:0002c4a8       cms_sd_set_version         0003d4a8 f   libeay32:cms_sd.obj
 0001:0002c964       cms_SignerInfo_content_sign 0003d964 f   libeay32:cms_sd.obj
 0001:0002d0b8       dh_cb                      0003e0b8 f   libeay32:dh_asn1.obj
 0001:0002d144       rsa_cb                     0003e144 f   libeay32:rsa_asn1.obj
 0001:0002d418       cms_RecipientInfo_ktri_encrypt 0003e418 f   libeay32:cms_env.obj
 0001:0002d5a4       cms_RecipientInfo_kekri_encrypt 0003e5a4 f   libeay32:cms_env.obj
 0001:0002d85c       do_sigver_init             0003e85c f   libeay32:m_sigver.obj
 0001:0002e35c       strip_spaces               0003f35c f   libeay32:v3_utl.obj
 0001:0002e6d4       ipv4_from_asc              0003f6d4 f   libeay32:v3_utl.obj
 0001:0002ea74       ipv6_cb                    0003fa74 f   libeay32:v3_utl.obj
 0001:0002eb84       ipv6_from_asc              0003fb84 f   libeay32:v3_utl.obj
 0001:0002f598       trans_cb                   00040598 f   libeay32:pmeth_gn.obj
 0001:0002f5e8       dh_builtin_genparams       000405e8 f   libeay32:dh_gen.obj
 0001:00030290       rsa_builtin_keygen         00041290 f   libeay32:rsa_gen.obj
 0001:00030878       obj_name_LHASH_HASH        00041878 f   libeay32:o_names.obj
 0001:000308d8       obj_name_LHASH_COMP        000418d8 f   libeay32:o_names.obj
 0001:00030a60       pbe2_cmp_BSEARCH_CMP_FN    00041a60 f   libeay32:evp_pbe.obj
 0001:00033898       ecdsa_sign_setup           00044898 f   libeay32:ecs_ossl.obj
 0001:00033c80       ecdsa_do_sign              00044c80 f   libeay32:ecs_ossl.obj
 0001:00034068       ecdsa_do_verify            00045068 f   libeay32:ecs_ossl.obj
 0001:00034574       PKCS7_adb                  00045574 f   libeay32:pk7_asn1.obj
 0001:00034580       pk7_cb                     00045580 f   libeay32:pk7_asn1.obj
 0001:0003461c       si_cb                      0004561c f   libeay32:pk7_asn1.obj
 0001:00034660       ri_cb                      00045660 f   libeay32:pk7_asn1.obj
 0001:000346d4       x509_cb                    000456d4 f   libeay32:x_x509.obj
 0001:00034800       crl_set_issuers            00045800 f   libeay32:x_crl.obj
 0001:0003498c       setup_idp                  0004598c f   libeay32:x_crl.obj
 0001:00034a90       X509_REVOKED_cmp           00045a90 f   libeay32:x_crl.obj
 0001:00034ab0       def_crl_verify             00045ab0 f   libeay32:x_crl.obj
 0001:00034ae4       def_crl_lookup             00045ae4 f   libeay32:x_crl.obj
 0001:00034c70       crl_inf_cb                 00045c70 f   libeay32:x_crl.obj
 0001:00034cac       crl_cb                     00045cac f   libeay32:x_crl.obj
 0001:000350c0       x509_name_ex_new           000460c0 f   libeay32:x_name.obj
 0001:00035174       x509_name_ex_free          00046174 f   libeay32:x_name.obj
 0001:000351cc       local_sk_X509_NAME_ENTRY_free 000461cc f   libeay32:x_name.obj
 0001:000351dc       local_sk_X509_NAME_ENTRY_pop_free 000461dc f   libeay32:x_name.obj
 0001:000351f4       x509_name_encode           000461f4 f   libeay32:x_name.obj
 0001:0003535c       x509_name_ex_print         0004635c f   libeay32:x_name.obj
 0001:00035388       asn1_string_canon          00046388 f   libeay32:x_name.obj
 0001:000354f4       i2d_name_canon             000464f4 f   libeay32:x_name.obj
 0001:00035580       x509_name_canon            00046580 f   libeay32:x_name.obj
 0001:00035704       x509_name_ex_d2i           00046704 f   libeay32:x_name.obj
 0001:000358c0       x509_name_ex_i2d           000468c0 f   libeay32:x_name.obj
 0001:0003596c       cms_si_cb                  0004696c f   libeay32:cms_asn1.obj
 0001:00035a80       cms_ri_cb                  00046a80 f   libeay32:cms_asn1.obj
 0001:00035b50       CMS_ContentInfo_adb        00046b50 f   libeay32:cms_asn1.obj
 0001:00035b5c       cms_cb                     00046b5c f   libeay32:cms_asn1.obj
 0001:00035ca4       nid_cmp_BSEARCH_CMP_FN     00046ca4 f   libeay32:v3_purp.obj
 0001:00035d10       setup_crldp                00046d10 f   libeay32:v3_purp.obj
 0001:00035e44       x509v3_cache_extensions    00046e44 f   libeay32:v3_purp.obj
 0001:00036328       check_ca                   00047328 f   libeay32:v3_purp.obj
 0001:00036390       check_purpose_ssl_client   00047390 f   libeay32:v3_purp.obj
 0001:00036420       check_purpose_ssl_server   00047420 f   libeay32:v3_purp.obj
 0001:000364b0       check_purpose_ns_ssl_server 000474b0 f   libeay32:v3_purp.obj
 0001:000364f0       purpose_smime              000474f0 f   libeay32:v3_purp.obj
 0001:0003657c       check_purpose_smime_sign   0004757c f   libeay32:v3_purp.obj
 0001:000365c4       check_purpose_smime_encrypt 000475c4 f   libeay32:v3_purp.obj
 0001:0003660c       check_purpose_crl_sign     0004760c f   libeay32:v3_purp.obj
 0001:00036660       ocsp_helper                00047660 f   libeay32:v3_purp.obj
 0001:00036688       check_purpose_timestamp_sign 00047688 f   libeay32:v3_purp.obj
 0001:00036724       no_check                   00047724 f   libeay32:v3_purp.obj
 0001:000374d0       send_bio_chars             000484d0 f   libeay32:a_strex.obj
 0001:00037500       do_esc_char                00048500 f   libeay32:a_strex.obj
 0001:000376ec       do_buf                     000486ec f   libeay32:a_strex.obj
 0001:00037898       do_hex_dump                00048898 f   libeay32:a_strex.obj
 0001:00037924       do_dump                    00048924 f   libeay32:a_strex.obj
 0001:00037a10       do_print_ex                00048a10 f   libeay32:a_strex.obj
 0001:00037be0       do_indent                  00048be0 f   libeay32:a_strex.obj
 0001:00037c40       do_name_ex                 00048c40 f   libeay32:a_strex.obj
 0001:00038a44       kek_unwrap_key             00049a44 f   libeay32:cms_pwri.obj
 0001:00038bc8       kek_wrap_key               00049bc8 f   libeay32:cms_pwri.obj
 0001:000397dc       i2v_AUTHORITY_INFO_ACCESS  0004a7dc f   libeay32:v3_info.obj
 0001:00039918       v2i_AUTHORITY_INFO_ACCESS  0004a918 f   libeay32:v3_info.obj
 0001:00039d90       ext_cmp_BSEARCH_CMP_FN     0004ad90 f   libeay32:v3_lib.obj
 0001:0003a024       ecdh_data_new              0004b024 f   libeay32:ech_lib.obj
 0001:0003a118       ecdh_data_dup              0004b118 f   libeay32:ech_lib.obj
 0001:0003a138       ecdh_data_free             0004b138 f   libeay32:ech_lib.obj
 0001:0003d2e0       nist_cp_bn_0               0004e2e0 f   libeay32:bn_nist.obj
 0001:0003e5c0       gf2m_Mdouble               0004f5c0 f   libeay32:ec2_mult.obj
 0001:0003e71c       gf2m_Madd                  0004f71c f   libeay32:ec2_mult.obj
 0001:0003e894       gf2m_Mxy                   0004f894 f   libeay32:ec2_mult.obj
 0001:0003ec40       ec_GF2m_montgomery_point_multiply 0004fc40 f   libeay32:ec2_mult.obj
 0001:0003f1dc       bn_GF2m_mul_1x1            000501dc f   libeay32:bn_gf2m.obj
 0001:00041c2c       PKCS7_get_octet_string     00052c2c f   libeay32:pk7_doit.obj
 0001:00041c8c       PKCS7_bio_add_digest       00052c8c f   libeay32:pk7_doit.obj
 0001:00041d80       pkcs7_encode_rinfo         00052d80 f   libeay32:pk7_doit.obj
 0001:00042340       PKCS7_find_digest          00053340 f   libeay32:pk7_doit.obj
 0001:000425c4       get_attribute              000535c4 f   libeay32:pk7_doit.obj
 0001:0004266c       add_attribute              0005366c f   libeay32:pk7_doit.obj
 0001:00042788       do_pkcs7_signed_attrib     00053788 f   libeay32:pk7_doit.obj
 0001:00042cf4       v2i_NAME_CONSTRAINTS       00053cf4 f   libeay32:v3_ncons.obj
 0001:00042ea8       do_i2r_name_constraints    00053ea8 f   libeay32:v3_ncons.obj
 0001:00043058       i2r_NAME_CONSTRAINTS       00054058 f   libeay32:v3_ncons.obj
 0001:000430f8       gnames_from_sectname       000540f8 f   libeay32:v3_crld.obj
 0001:000431ac       set_reasons                000541ac f   libeay32:v3_crld.obj
 0001:000432b4       print_reasons              000542b4 f   libeay32:v3_crld.obj
 0001:0004338c       dpn_cb                     0005438c f   libeay32:v3_crld.obj
 0001:00043448       print_gens                 00054448 f   libeay32:v3_crld.obj
 0001:000434d0       print_distpoint            000544d0 f   libeay32:v3_crld.obj
 0001:00043578       i2r_idp                    00054578 f   libeay32:v3_crld.obj
 0001:000436a8       i2r_crldp                  000546a8 f   libeay32:v3_crld.obj
 0001:0004383c       set_dist_point_name        0005483c f   libeay32:v3_crld.obj
 0001:00043a28       crldp_from_section         00054a28 f   libeay32:v3_crld.obj
 0001:00043b14       v2i_crld                   00054b14 f   libeay32:v3_crld.obj
 0001:00043cd4       v2i_idp                    00054cd4 f   libeay32:v3_crld.obj
 0001:0004420c       init                       0005520c f   libeay32:m_md5.obj
 0001:00044220       update                     00055220 f   libeay32:m_md5.obj
 0001:00044234       final                      00055234 f   libeay32:m_md5.obj
 0001:00044490       i2v_BASIC_CONSTRAINTS      00055490 f   libeay32:v3_bcons.obj
 0001:000444d4       v2i_BASIC_CONSTRAINTS      000554d4 f   libeay32:v3_bcons.obj
 0001:00044c68       julian_to_date             00055c68 f   libeay32:o_time.obj
 0001:000454ac       trust_compat               000564ac f   libeay32:x509_trs.obj
 0001:000454e0       obj_trust                  000564e0 f   libeay32:x509_trs.obj
 0001:000455b0       trust_1oidany              000565b0 f   libeay32:x509_trs.obj
 0001:0004561c       trust_1oid                 0005661c f   libeay32:x509_trs.obj
 0001:00045654       md_new                     00056654 f   libeay32:bio_md.obj
 0001:00045688       md_free                    00056688 f   libeay32:bio_md.obj
 0001:000456c0       md_read                    000566c0 f   libeay32:bio_md.obj
 0001:00045750       md_write                   00056750 f   libeay32:bio_md.obj
 0001:00045800       md_ctrl                    00056800 f   libeay32:bio_md.obj
 0001:0004594c       md_callback_ctrl           0005694c f   libeay32:bio_md.obj
 0001:00045974       md_gets                    00056974 f   libeay32:bio_md.obj
 0001:00045a50       mem_new                    00056a50 f   libeay32:bss_mem.obj
 0001:00045a8c       mem_free                   00056a8c f   libeay32:bss_mem.obj
 0001:00045ae8       mem_read                   00056ae8 f   libeay32:bss_mem.obj
 0001:00045b9c       mem_write                  00056b9c f   libeay32:bss_mem.obj
 0001:00045c54       mem_ctrl                   00056c54 f   libeay32:bss_mem.obj
 0001:00045d94       mem_gets                   00056d94 f   libeay32:bss_mem.obj
 0001:00045e20       mem_puts                   00056e20 f   libeay32:bss_mem.obj
 0001:00045e58       null_new                   00056e58 f   libeay32:bss_null.obj
 0001:00045e74       null_free                  00056e74 f   libeay32:bss_null.obj
 0001:00045e84       null_read                  00056e84 f   libeay32:bss_null.obj
 0001:00045e8c       null_write                 00056e8c f   libeay32:bss_null.obj
 0001:00045e94       null_ctrl                  00056e94 f   libeay32:bss_null.obj
 0001:00045ed4       null_gets                  00056ed4 f   libeay32:bss_null.obj
 0001:00045edc       null_puts                  00056edc f   libeay32:bss_null.obj
 0001:00046574       traverse_string            00057574 f   libeay32:a_mbstr.obj
 0001:00046674       in_utf8                    00057674 f   libeay32:a_mbstr.obj
 0001:00046688       out_utf8                   00057688 f   libeay32:a_mbstr.obj
 0001:000466bc       cpy_asc                    000576bc f   libeay32:a_mbstr.obj
 0001:000466dc       cpy_bmp                    000576dc f   libeay32:a_mbstr.obj
 0001:0004670c       cpy_univ                   0005770c f   libeay32:a_mbstr.obj
 0001:0004674c       cpy_utf8                   0005774c f   libeay32:a_mbstr.obj
 0001:00046780       type_str                   00057780 f   libeay32:a_mbstr.obj
 0001:00046d70       enc_new                    00057d70 f   libeay32:bio_enc.obj
 0001:00046ddc       enc_free                   00057ddc f   libeay32:bio_enc.obj
 0001:00046e30       enc_read                   00057e30 f   libeay32:bio_enc.obj
 0001:00046fd0       enc_write                  00057fd0 f   libeay32:bio_enc.obj
 0001:00047118       enc_ctrl                   00058118 f   libeay32:bio_enc.obj
 0001:00047314       enc_callback_ctrl          00058314 f   libeay32:bio_enc.obj
 0001:00048208       table_cmp_BSEARCH_CMP_FN   00059208 f   libeay32:a_strnid.obj
 0001:000486cc       copy_issuer                000596cc f   libeay32:v3_alt.obj
 0001:000487fc       copy_email                 000597fc f   libeay32:v3_alt.obj
 0001:00048990       do_othername               00059990 f   libeay32:v3_alt.obj
 0001:00048a6c       do_dirname                 00059a6c f   libeay32:v3_alt.obj
 0001:00048fc8       v2i_issuer_alt             00059fc8 f   libeay32:v3_alt.obj
 0001:000490ec       v2i_subject_alt            0005a0ec f   libeay32:v3_alt.obj
 0001:00049670       s2i_asn1_int               0005a670 f   libeay32:v3_int.obj
 0001:000496b4       i2v_POLICY_MAPPINGS        0005a6b4 f   libeay32:v3_pmaps.obj
 0001:00049740       v2i_POLICY_MAPPINGS        0005a740 f   libeay32:v3_pmaps.obj
 0001:00049920       i2r_pci                    0005a920 f   libeay32:v3_pci.obj
 0001:00049a00       process_pci_value          0005aa00 f   libeay32:v3_pci.obj
 0001:0004a130       r2i_pci                    0005b130 f   libeay32:v3_pci.obj
 0001:0004a478       i2r_ocsp_crlid             0005b478 f   libeay32:v3_ocsp.obj
 0001:0004a5b0       i2r_ocsp_acutoff           0005b5b0 f   libeay32:v3_ocsp.obj
 0001:0004a610       i2r_object                 0005b610 f   libeay32:v3_ocsp.obj
 0001:0004a670       ocsp_nonce_new             0005b670 f   libeay32:v3_ocsp.obj
 0001:0004a680       i2d_ocsp_nonce             0005b680 f   libeay32:v3_ocsp.obj
 0001:0004a6bc       d2i_ocsp_nonce             0005b6bc f   libeay32:v3_ocsp.obj
 0001:0004a770       ocsp_nonce_free            0005b770 f   libeay32:v3_ocsp.obj
 0001:0004a780       i2r_ocsp_nonce             0005b780 f   libeay32:v3_ocsp.obj
 0001:0004a7e4       i2r_ocsp_nocheck           0005b7e4 f   libeay32:v3_ocsp.obj
 0001:0004a7ec       s2i_ocsp_nocheck           0005b7ec f   libeay32:v3_ocsp.obj
 0001:0004a7fc       i2r_ocsp_serviceloc        0005b7fc f   libeay32:v3_ocsp.obj
 0001:0004a90c       i2v_POLICY_CONSTRAINTS     0005b90c f   libeay32:v3_pcons.obj
 0001:0004a950       v2i_POLICY_CONSTRAINTS     0005b950 f   libeay32:v3_pcons.obj
 0001:0004aacc       i2v_EXTENDED_KEY_USAGE     0005bacc f   libeay32:v3_extku.obj
 0001:0004ab44       v2i_EXTENDED_KEY_USAGE     0005bb44 f   libeay32:v3_extku.obj
 0001:0004ac78       sxnet_i2r                  0005bc78 f   libeay32:v3_sxnet.obj
 0001:0004afcc       sxnet_v2i                  0005bfcc f   libeay32:v3_sxnet.obj
 0001:0004b0a8       i2v_AUTHORITY_KEYID        0005c0a8 f   libeay32:v3_akey.obj
 0001:0004b160       v2i_AUTHORITY_KEYID        0005c160 f   libeay32:v3_akey.obj
 0001:0004b470       POLICYQUALINFO_adb         0005c470 f   libeay32:v3_cpols.obj
 0001:0004b4b8       nref_nos                   0005c4b8 f   libeay32:v3_cpols.obj
 0001:0004b594       notice_section             0005c594 f   libeay32:v3_cpols.obj
 0001:0004b878       print_qualifiers           0005c878 f   libeay32:v3_cpols.obj
 0001:0004ba68       policy_section             0005ca68 f   libeay32:v3_cpols.obj
 0001:0004bdd4       i2r_certpol                0005cdd4 f   libeay32:v3_cpols.obj
 0001:0004be78       r2i_certpol                0005ce78 f   libeay32:v3_cpols.obj
 0001:0004c14c       i2r_PKEY_USAGE_PERIOD      0005d14c f   libeay32:v3_pku.obj
 0001:0004c480       s2i_skey_id                0005d480 f   libeay32:v3_skey.obj
 0001:0004c604       i2s_ASN1_IA5STRING         0005d604 f   libeay32:v3_ia5.obj
 0001:0004c68c       s2i_ASN1_IA5STRING         0005d68c f   libeay32:v3_ia5.obj
 0001:0004c7c0       nconf_get_string           0005d7c0 f   libeay32:v3_conf.obj
 0001:0004c7d0       nconf_get_section          0005d7d0 f   libeay32:v3_conf.obj
 0001:0004c7e0       conf_lhash_get_string      0005d7e0 f   libeay32:v3_conf.obj
 0001:0004c7f0       conf_lhash_get_section     0005d7f0 f   libeay32:v3_conf.obj
 0001:0004c800       rinf_cb                    0005d800 f   libeay32:x_req.obj
 0001:0004c84c       ecdh_compute_key           0005d84c f   libeay32:ech_ossl.obj
 0001:0004ecdc       parse_tagging              0005fcdc f   libeay32:asn1_gen.obj
 0001:0004ee1c       append_exp                 0005fe1c f   libeay32:asn1_gen.obj
 0001:0004eef8       bitstr_cb                  0005fef8 f   libeay32:asn1_gen.obj
 0001:0004efc4       asn1_cb                    0005ffc4 f   libeay32:asn1_gen.obj
 0001:0004f40c       asn1_str2type              0006040c f   libeay32:asn1_gen.obj
 0001:0004fc28       asn1_multi                 00060c28 f   libeay32:asn1_gen.obj
 0001:0004fd88       def_create                 00060d88 f   libeay32:conf_def.obj
 0001:0004fddc       def_init_default           00060ddc f   libeay32:conf_def.obj
 0001:0004fe04       def_init_WIN32             00060e04 f   libeay32:conf_def.obj
 0001:0004fe2c       def_destroy_data           00060e2c f   libeay32:conf_def.obj
 0001:0004fe50       str_copy                   00060e50 f   libeay32:conf_def.obj
 0001:000501fc       dump_value_LHASH_DOALL_ARG 000611fc f   libeay32:conf_def.obj
 0001:00050250       def_dump                   00061250 f   libeay32:conf_def.obj
 0001:00050274       def_is_number              00061274 f   libeay32:conf_def.obj
 0001:0005028c       def_to_int                 0006128c f   libeay32:conf_def.obj
 0001:00050294       def_destroy                00061294 f   libeay32:conf_def.obj
 0001:000502c8       clear_comments             000612c8 f   libeay32:conf_def.obj
 0001:00050414       def_load_bio               00061414 f   libeay32:conf_def.obj
 0001:00050c4c       def_load                   00061c4c f   libeay32:conf_def.obj
 0001:00050e94       conf_value_LHASH_HASH      00061e94 f   libeay32:conf_api.obj
 0001:00050ebc       conf_value_LHASH_COMP      00061ebc f   libeay32:conf_api.obj
 0001:00051060       value_free_hash_LHASH_DOALL_ARG 00062060 f   libeay32:conf_api.obj
 0001:00051084       value_free_stack_LHASH_DOALL 00062084 f   libeay32:conf_api.obj
 0001:000519bc       asn1_bio_free              000629bc f   libeay32:bio_asn1.obj
 0001:00051a0c       asn1_bio_flush_ex          00062a0c f   libeay32:bio_asn1.obj
 0001:00051ab0       asn1_bio_read              00062ab0 f   libeay32:bio_asn1.obj
 0001:00051ad8       asn1_bio_gets              00062ad8 f   libeay32:bio_asn1.obj
 0001:00051b00       asn1_bio_callback_ctrl     00062b00 f   libeay32:bio_asn1.obj
 0001:00051b28       asn1_bio_ctrl              00062b28 f   libeay32:bio_asn1.obj
 0001:00051cd0       asn1_bio_new               00062cd0 f   libeay32:bio_asn1.obj
 0001:00051d6c       asn1_bio_write             00062d6c f   libeay32:bio_asn1.obj
 0001:00051fa0       asn1_bio_puts              00062fa0 f   libeay32:bio_asn1.obj
 0001:00051fcc       b64_new                    00062fcc f   libeay32:bio_b64.obj
 0001:0005203c       b64_free                   0006303c f   libeay32:bio_b64.obj
 0001:00052074       b64_read                   00063074 f   libeay32:bio_b64.obj
 0001:00052518       b64_write                  00063518 f   libeay32:bio_b64.obj
 0001:00052958       b64_ctrl                   00063958 f   libeay32:bio_b64.obj
 0001:00052b70       b64_callback_ctrl          00063b70 f   libeay32:bio_b64.obj
 0001:00052b98       b64_puts                   00063b98 f   libeay32:bio_b64.obj
 0001:00052bc4       buffer_new                 00063bc4 f   libeay32:bf_buff.obj
 0001:00052c78       buffer_free                00063c78 f   libeay32:bf_buff.obj
 0001:00052cd4       buffer_read                00063cd4 f   libeay32:bf_buff.obj
 0001:00052e14       buffer_write               00063e14 f   libeay32:bf_buff.obj
 0001:00052fd4       buffer_ctrl                00063fd4 f   libeay32:bf_buff.obj
 0001:000533ac       buffer_callback_ctrl       000643ac f   libeay32:bf_buff.obj
 0001:000533d4       buffer_gets                000643d4 f   libeay32:bf_buff.obj
 0001:000534dc       buffer_puts                000644dc f   libeay32:bf_buff.obj
 0001:00053508       LoadLibraryA               00064508 f   libeay32:dso_win32.obj
 0001:000535a8       win32_load                 000645a8 f   libeay32:dso_win32.obj
 0001:000536e4       win32_unload               000646e4 f   libeay32:dso_win32.obj
 0001:000537b8       win32_bind_var             000647b8 f   libeay32:dso_win32.obj
 0001:000538cc       win32_bind_func            000648cc f   libeay32:dso_win32.obj
 0001:000539e0       win32_splitter             000649e0 f   libeay32:dso_win32.obj
 0001:00053c14       win32_name_converter       00064c14 f   libeay32:dso_win32.obj
 0001:00053cfc       win32_pathbyaddr           00064cfc f   libeay32:dso_win32.obj
 0001:00053f24       win32_globallookup         00064f24 f   libeay32:dso_win32.obj
 0001:000540bc       win32_joiner               000650bc f   libeay32:dso_win32.obj
 0001:000543f4       win32_merger               000653f4 f   libeay32:dso_win32.obj
 0001:0005463c       PKCS12_BAGS_adb            0006563c f   libeay32:p12_asn.obj
 0001:00054654       PKCS12_SAFEBAG_adb         00065654 f   libeay32:p12_asn.obj
 0001:00054710       write_string               00065710 f   libeay32:ui_openssl.obj
 0001:00054758       open_console               00065758 f   libeay32:ui_openssl.obj
 0001:000547e4       close_console              000657e4 f   libeay32:ui_openssl.obj
 0001:00054848       read_string                00065848 f   libeay32:ui_openssl.obj
 0001:00054958       cmp64                      00065958 f   wcecompatex:time.obj
 0001:000549a4       topBit                     000659a4 f   wcecompatex:time.obj
 0001:00054b30       div64                      00065b30 f   wcecompatex:time.obj
 0001:000556f0       doexit                     000666f0 f   corelibc:crt0dat.obj
 0001:000558c4       ?getCmdLineArg@@YA?AW4ArgType@@PAPA_WPA_WHPAURedirArg@@PA_N@Z 000668c4 f   wcecompatex:args.obj
 0001:00055bf0       ?qsort_stricmp@@YAHPBX0@Z  00066bf0 f   wcecompatex:args.obj
