 ecdhtest

 Timestamp is 511c9ae9 (Thu Feb 14 17:06:01 2013)

 Preferred load address is 00010000

 Start         Length     Name                   Class
 0001:00000000 00055c54H .text                   CODE
 0002:00000000 0002395dH .rdata                  DATA
 0002:00023960 00000014H .xdata                  DATA
 0002:00023974 00000014H .idata$2                DATA
 0002:00023988 00000014H .idata$3                DATA
 0002:0002399c 0000014cH .idata$4                DATA
 0002:00023ae8 0000000cH .idata$6                DATA
 0002:00023af4 00000000H .edata                  DATA
 0003:00000000 0000014cH .idata$5                DATA
 0003:0000014c 00000004H .CRT$XCA                DATA
 0003:00000150 00000004H .CRT$XCZ                DATA
 0003:00000154 00000004H .CRT$XIA                DATA
 0003:00000158 00000004H .CRT$XIZ                DATA
 0003:0000015c 00000004H .CRT$XPA                DATA
 0003:00000160 00000004H .CRT$XPZ                DATA
 0003:00000164 00000004H .CRT$XTA                DATA
 0003:00000168 00000004H .CRT$XTZ                DATA
 0003:00000170 00001020H .data                   DATA
 0003:000011a0 00002029H .bss                    DATA
 0004:00000000 00003600H .pdata                  DATA

  Address         Publics by Value              Rva+Base     Lib:Object

 0000:00000000       ___safe_se_handler_count   00000000     <absolute>
 0000:00000000       ___safe_se_handler_table   00000000     <absolute>
 0001:000005b4       main                       000115b4 f   ecdhtest.obj
 0001:000008cc       SHA1                       000118cc f   libeay32:sha1_one.obj
 0001:00000934       EC_KEY_new                 00011934 f   libeay32:ec_key.obj
 0001:000009b8       EC_KEY_free                000119b8 f   libeay32:ec_key.obj
 0001:00000a48       EC_KEY_generate_key        00011a48 f   libeay32:ec_key.obj
 0001:00000ba4       EC_KEY_get0_group          00011ba4 f   libeay32:ec_key.obj
 0001:00000bac       EC_KEY_set_group           00011bac f   libeay32:ec_key.obj
 0001:00000bec       EC_KEY_get0_private_key    00011bec f   libeay32:ec_key.obj
 0001:00000bf4       EC_KEY_get0_public_key     00011bf4 f   libeay32:ec_key.obj
 0001:00000bfc       EC_KEY_set_public_key      00011bfc f   libeay32:ec_key.obj
 0001:00000c40       EC_KEY_get_enc_flags       00011c40 f   libeay32:ec_key.obj
 0001:00000c48       EC_KEY_set_enc_flags       00011c48 f   libeay32:ec_key.obj
 0001:00000c50       EC_KEY_get_conv_form       00011c50 f   libeay32:ec_key.obj
 0001:00000c58       EC_KEY_get_key_method_data 00011c58 f   libeay32:ec_key.obj
 0001:00000cc4       EC_KEY_insert_key_method_data 00011cc4 f   libeay32:ec_key.obj
 0001:00000d54       EC_KEY_new_by_curve_name   00011d54 f   libeay32:ec_key.obj
 0001:00000d94       BN_value_one               00011d94 f   libeay32:bn_lib.obj
 0001:00000da0       BN_num_bits_word           00011da0 f   libeay32:bn_lib.obj
 0001:00000de4       BN_num_bits                00011de4 f   libeay32:bn_lib.obj
 0001:00000e18       BN_clear_free              00011e18 f   libeay32:bn_lib.obj
 0001:00000e70       BN_free                    00011e70 f   libeay32:bn_lib.obj
 0001:00000ec8       BN_init                    00011ec8 f   libeay32:bn_lib.obj
 0001:00000ee0       BN_new                     00011ee0 f   libeay32:bn_lib.obj
 0001:000010a4       bn_expand2                 000120a4 f   libeay32:bn_lib.obj
 0001:000010f0       BN_copy                    000120f0 f   libeay32:bn_lib.obj
 0001:000011b8       BN_set_word                000121b8 f   libeay32:bn_lib.obj
 0001:00001210       BN_bin2bn                  00012210 f   libeay32:bn_lib.obj
 0001:0000130c       BN_bn2bin                  0001230c f   libeay32:bn_lib.obj
 0001:00001368       BN_ucmp                    00012368 f   libeay32:bn_lib.obj
 0001:000013d4       BN_cmp                     000123d4 f   libeay32:bn_lib.obj
 0001:0000149c       BN_set_bit                 0001249c f   libeay32:bn_lib.obj
 0001:00001538       BN_is_bit_set              00012538 f   libeay32:bn_lib.obj
 0001:00001578       BN_mask_bits               00012578 f   libeay32:bn_lib.obj
 0001:00001610       BN_set_negative            00012610 f   libeay32:bn_lib.obj
 0001:00001630       BN_dup                     00012630 f   libeay32:bn_lib.obj
 0001:000016d4       CRYPTO_set_mem_functions   000126d4 f   libeay32:mem.obj
 0001:00001764       CRYPTO_set_mem_debug_functions 00012764 f   libeay32:mem.obj
 0001:000017b4       CRYPTO_free_locked         000127b4 f   libeay32:mem.obj
 0001:00001810       CRYPTO_malloc              00012810 f   libeay32:mem.obj
 0001:000018f0       CRYPTO_realloc             000128f0 f   libeay32:mem.obj
 0001:000019d8       CRYPTO_realloc_clean       000129d8 f   libeay32:mem.obj
 0001:00001afc       CRYPTO_free                00012afc f   libeay32:mem.obj
 0001:00001b58       ERR_print_errors_cb        00012b58 f   libeay32:err_prn.obj
 0001:00001c9c       ERR_print_errors_fp        00012c9c f   libeay32:err_prn.obj
 0001:00001cb8       BN_bn2dec                  00012cb8 f   libeay32:bn_print.obj
 0001:00001ea4       BN_hex2bn                  00012ea4 f   libeay32:bn_print.obj
 0001:00002034       BN_dec2bn                  00013034 f   libeay32:bn_print.obj
 0001:000021c8       BN_asc2bn                  000131c8 f   libeay32:bn_print.obj
 0001:00002248       BN_print                   00013248 f   libeay32:bn_print.obj
 0001:0000231c       ECDH_compute_key           0001331c f   libeay32:ech_key.obj
 0001:00003414       BIO_vprintf                00014414 f   libeay32:b_print.obj
 0001:000034dc       BIO_vsnprintf              000144dc f   libeay32:b_print.obj
 0001:00003540       BIO_printf                 00014540 f   libeay32:b_print.obj
 0001:00003560       BIO_snprintf               00014560 f   libeay32:b_print.obj
 0001:00003580       EC_GROUP_new               00014580 f   libeay32:ec_lib.obj
 0001:00003680       EC_GROUP_method_of         00014680 f   libeay32:ec_lib.obj
 0001:00003688       EC_METHOD_get_field_type   00014688 f   libeay32:ec_lib.obj
 0001:00003690       EC_GROUP_get0_generator    00014690 f   libeay32:ec_lib.obj
 0001:00003698       EC_GROUP_get_order         00014698 f   libeay32:ec_lib.obj
 0001:000036cc       EC_GROUP_get_cofactor      000146cc f   libeay32:ec_lib.obj
 0001:00003704       EC_GROUP_set_curve_name    00014704 f   libeay32:ec_lib.obj
 0001:0000370c       EC_GROUP_get_curve_name    0001470c f   libeay32:ec_lib.obj
 0001:00003714       EC_GROUP_set_asn1_flag     00014714 f   libeay32:ec_lib.obj
 0001:0000371c       EC_GROUP_get_asn1_flag     0001471c f   libeay32:ec_lib.obj
 0001:00003724       EC_GROUP_set_point_conversion_form 00014724 f   libeay32:ec_lib.obj
 0001:0000372c       EC_GROUP_get_point_conversion_form 0001472c f   libeay32:ec_lib.obj
 0001:00003734       EC_GROUP_set_seed          00014734 f   libeay32:ec_lib.obj
 0001:000037c0       EC_GROUP_get0_seed         000147c0 f   libeay32:ec_lib.obj
 0001:000037c8       EC_GROUP_get_seed_len      000147c8 f   libeay32:ec_lib.obj
 0001:000037d0       EC_GROUP_set_curve_GFp     000147d0 f   libeay32:ec_lib.obj
 0001:00003838       EC_GROUP_get_curve_GFp     00014838 f   libeay32:ec_lib.obj
 0001:000038a0       EC_GROUP_set_curve_GF2m    000148a0 f   libeay32:ec_lib.obj
 0001:00003908       EC_GROUP_get_curve_GF2m    00014908 f   libeay32:ec_lib.obj
 0001:0000396c       EC_GROUP_get_degree        0001496c f   libeay32:ec_lib.obj
 0001:000039c4       EC_EX_DATA_set_data        000149c4 f   libeay32:ec_lib.obj
 0001:00003aa0       EC_EX_DATA_get_data        00014aa0 f   libeay32:ec_lib.obj
 0001:00003af4       EC_EX_DATA_free_data       00014af4 f   libeay32:ec_lib.obj
 0001:00003b7c       EC_EX_DATA_free_all_data   00014b7c f   libeay32:ec_lib.obj
 0001:00003bcc       EC_EX_DATA_clear_free_all_data 00014bcc f   libeay32:ec_lib.obj
 0001:00003c1c       EC_POINT_new               00014c1c f   libeay32:ec_lib.obj
 0001:00003cfc       EC_POINT_free              00014cfc f   libeay32:ec_lib.obj
 0001:00003d30       EC_POINT_clear_free        00014d30 f   libeay32:ec_lib.obj
 0001:00003d8c       EC_POINT_copy              00014d8c f   libeay32:ec_lib.obj
 0001:00003e20       EC_POINT_dup               00014e20 f   libeay32:ec_lib.obj
 0001:00003e68       EC_POINT_set_to_infinity   00014e68 f   libeay32:ec_lib.obj
 0001:00003ef4       EC_POINT_set_Jprojective_coordinates_GFp 00014ef4 f   libeay32:ec_lib.obj
 0001:00003fa8       EC_POINT_set_affine_coordinates_GFp 00014fa8 f   libeay32:ec_lib.obj
 0001:00004048       EC_POINT_set_affine_coordinates_GF2m 00015048 f   libeay32:ec_lib.obj
 0001:000040ec       EC_POINT_get_affine_coordinates_GFp 000150ec f   libeay32:ec_lib.obj
 0001:00004190       EC_POINT_get_affine_coordinates_GF2m 00015190 f   libeay32:ec_lib.obj
 0001:00004230       EC_POINT_add               00015230 f   libeay32:ec_lib.obj
 0001:000042ec       EC_POINT_dbl               000152ec f   libeay32:ec_lib.obj
 0001:0000438c       EC_POINT_invert            0001538c f   libeay32:ec_lib.obj
 0001:00004418       EC_POINT_is_at_infinity    00015418 f   libeay32:ec_lib.obj
 0001:000044a0       EC_POINT_is_on_curve       000154a0 f   libeay32:ec_lib.obj
 0001:00004528       EC_POINT_cmp               00015528 f   libeay32:ec_lib.obj
 0001:000045c8       EC_POINT_make_affine       000155c8 f   libeay32:ec_lib.obj
 0001:00004650       EC_POINTs_make_affine      00015650 f   libeay32:ec_lib.obj
 0001:00004718       EC_POINTs_mul              00015718 f   libeay32:ec_lib.obj
 0001:00004794       EC_POINT_mul               00015794 f   libeay32:ec_lib.obj
 0001:000047e8       EC_GROUP_have_precompute_mult 000157e8 f   libeay32:ec_lib.obj
 0001:00004830       EC_GROUP_free              00015830 f   libeay32:ec_lib.obj
 0001:0000489c       EC_GROUP_clear_free        0001589c f   libeay32:ec_lib.obj
 0001:00004940       EC_GROUP_copy              00015940 f   libeay32:ec_lib.obj
 0001:00004b54       EC_GROUP_dup               00015b54 f   libeay32:ec_lib.obj
 0001:00004b9c       EC_GROUP_set_generator     00015b9c f   libeay32:ec_lib.obj
 0001:00004c7c       EC_GROUP_cmp               00015c7c f   libeay32:ec_lib.obj
 0001:00004ee8       BIO_set                    00015ee8 f   libeay32:bio_lib.obj
 0001:00004f88       BIO_free                   00015f88 f   libeay32:bio_lib.obj
 0001:0000504c       BIO_clear_flags            0001604c f   libeay32:bio_lib.obj
 0001:0000505c       BIO_test_flags             0001605c f   libeay32:bio_lib.obj
 0001:00005068       BIO_set_flags              00016068 f   libeay32:bio_lib.obj
 0001:00005078       BIO_read                   00016078 f   libeay32:bio_lib.obj
 0001:000051a8       BIO_write                  000161a8 f   libeay32:bio_lib.obj
 0001:000052dc       BIO_puts                   000162dc f   libeay32:bio_lib.obj
 0001:00005404       BIO_gets                   00016404 f   libeay32:bio_lib.obj
 0001:0000552c       BIO_indent                 0001652c f   libeay32:bio_lib.obj
 0001:00005588       BIO_ctrl                   00016588 f   libeay32:bio_lib.obj
 0001:00005684       BIO_callback_ctrl          00016684 f   libeay32:bio_lib.obj
 0001:00005788       BIO_push                   00016788 f   libeay32:bio_lib.obj
 0001:000057dc       BIO_find_type              000167dc f   libeay32:bio_lib.obj
 0001:00005824       BIO_next                   00016824 f   libeay32:bio_lib.obj
 0001:00005834       BIO_free_all               00016834 f   libeay32:bio_lib.obj
 0001:00005868       BIO_copy_next_retry        00016868 f   libeay32:bio_lib.obj
 0001:0000588c       BIO_new                    0001688c f   libeay32:bio_lib.obj
 0001:00005904       BIO_int_ctrl               00016904 f   libeay32:bio_lib.obj
 0001:00005964       CRYPTO_mem_ctrl            00016964 f   libeay32:mem_dbg.obj
 0001:00005ad8       CRYPTO_is_mem_check_on     00016ad8 f   libeay32:mem_dbg.obj
 0001:00005b6c       CRYPTO_dbg_set_options     00016b6c f   libeay32:mem_dbg.obj
 0001:00005b7c       CRYPTO_dbg_get_options     00016b7c f   libeay32:mem_dbg.obj
 0001:00005cb8       CRYPTO_push_info_          00016cb8 f   libeay32:mem_dbg.obj
 0001:00005d88       CRYPTO_pop_info            00016d88 f   libeay32:mem_dbg.obj
 0001:00005dc8       CRYPTO_dbg_malloc          00016dc8 f   libeay32:mem_dbg.obj
 0001:00005f60       CRYPTO_dbg_free            00016f60 f   libeay32:mem_dbg.obj
 0001:00006010       CRYPTO_dbg_realloc         00017010 f   libeay32:mem_dbg.obj
 0001:00006308       CRYPTO_mem_leaks           00017308 f   libeay32:mem_dbg.obj
 0001:00006424       CRYPTO_mem_leaks_fp        00017424 f   libeay32:mem_dbg.obj
 0001:00006b18       ERR_lib_error_string       00017b18 f   libeay32:err.obj
 0001:00006b68       ERR_func_error_string      00017b68 f   libeay32:err.obj
 0001:00006bc4       ERR_reason_error_string    00017bc4 f   libeay32:err.obj
 0001:00006c48       ERR_remove_thread_state    00017c48 f   libeay32:err.obj
 0001:00006c9c       ERR_get_state              00017c9c f   libeay32:err.obj
 0001:00006d9c       ERR_set_error_data         00017d9c f   libeay32:err.obj
 0001:00006df0       ERR_add_error_vdata        00017df0 f   libeay32:err.obj
 0001:00006ec4       ERR_set_mark               00017ec4 f   libeay32:err.obj
 0001:00006f04       ERR_pop_to_mark            00017f04 f   libeay32:err.obj
 0001:000070d4       ERR_put_error              000180d4 f   libeay32:err.obj
 0001:000071c8       ERR_clear_error            000181c8 f   libeay32:err.obj
 0001:00007390       ERR_error_string_n         00018390 f   libeay32:err.obj
 0001:000074d0       ERR_add_error_data         000184d0 f   libeay32:err.obj
 0001:000074f0       ERR_get_error_line_data    000184f0 f   libeay32:err.obj
 0001:00007528       ERR_peek_last_error        00018528 f   libeay32:err.obj
 0001:0000799c       CRYPTO_cleanup_all_ex_data 0001899c f   libeay32:ex_data.obj
 0001:000079d0       CRYPTO_new_ex_data         000189d0 f   libeay32:ex_data.obj
 0001:00007a1c       CRYPTO_free_ex_data        00018a1c f   libeay32:ex_data.obj
 0001:00007a68       CRYPTO_set_ex_data         00018a68 f   libeay32:ex_data.obj
 0001:00007b3c       CRYPTO_get_ex_data         00018b3c f   libeay32:ex_data.obj
 0001:00008108       BN_CTX_new                 00019108 f   libeay32:bn_ctx.obj
 0001:00008190       BN_CTX_free                00019190 f   libeay32:bn_ctx.obj
 0001:0000820c       BN_CTX_start               0001920c f   libeay32:bn_ctx.obj
 0001:000082fc       BN_CTX_end                 000192fc f   libeay32:bn_ctx.obj
 0001:0000838c       BN_CTX_get                 0001938c f   libeay32:bn_ctx.obj
 0001:00008418       BIO_s_file                 00019418 f   libeay32:bss_file.obj
 0001:0000889c       BIO_new_file               0001989c f   libeay32:bss_file.obj
 0001:00008aec       RAND_get_rand_method       00019aec f   libeay32:rand_lib.obj
 0001:00008b54       RAND_seed                  00019b54 f   libeay32:rand_lib.obj
 0001:00008b88       RAND_add                   00019b88 f   libeay32:rand_lib.obj
 0001:00008bcc       RAND_bytes                 00019bcc f   libeay32:rand_lib.obj
 0001:00008c14       RAND_pseudo_bytes          00019c14 f   libeay32:rand_lib.obj
 0001:00008c5c       RAND_status                00019c5c f   libeay32:rand_lib.obj
 0001:00008c94       OPENSSL_cleanse            00019c94 f   libeay32:mem_clr.obj
 0001:00008cf0       SHA1_Init                  00019cf0 f   libeay32:sha1dgst.obj
 0001:000090a8       SHA1_Update                0001a0a8 f   libeay32:sha1dgst.obj
 0001:000091b0       SHA1_Final                 0001a1b0 f   libeay32:sha1dgst.obj
 0001:00009320       CRYPTO_destroy_dynlockid   0001a320 f   libeay32:cryptlib.obj
 0001:00009424       CRYPTO_get_dynlock_value   0001a424 f   libeay32:cryptlib.obj
 0001:000094c0       CRYPTO_THREADID_current    0001a4c0 f   libeay32:cryptlib.obj
 0001:0000953c       CRYPTO_THREADID_cmp        0001a53c f   libeay32:cryptlib.obj
 0001:00009550       CRYPTO_THREADID_cpy        0001a550 f   libeay32:cryptlib.obj
 0001:00009564       CRYPTO_THREADID_hash       0001a564 f   libeay32:cryptlib.obj
 0001:0000956c       OPENSSL_showfatal          0001a56c f   libeay32:cryptlib.obj
 0001:000096f4       OpenSSLDie                 0001a6f4 f   libeay32:cryptlib.obj
 0001:00009728       CRYPTO_memcmp              0001a728 f   libeay32:cryptlib.obj
 0001:00009764       CRYPTO_lock                0001a764 f   libeay32:cryptlib.obj
 0001:00009830       CRYPTO_add_lock            0001a830 f   libeay32:cryptlib.obj
 0001:00009ac4       BN_rand                    0001aac4 f   libeay32:bn_rand.obj
 0001:00009af4       BN_pseudo_rand             0001aaf4 f   libeay32:bn_rand.obj
 0001:00009d0c       BN_rand_range              0001ad0c f   libeay32:bn_rand.obj
 0001:00009d28       BN_pseudo_rand_range       0001ad28 f   libeay32:bn_rand.obj
 0001:0000a174       EC_GROUP_new_by_curve_name 0001b174 f   libeay32:ec_curve.obj
 0001:0000a220       OPENSSL_init               0001b220 f   libeay32:o_init.obj
 0001:0000a23c       BN_mod_word                0001b23c f   libeay32:bn_word.obj
 0001:0000a2a0       BN_div_word                0001b2a0 f   libeay32:bn_word.obj
 0001:0000a368       BN_add_word                0001b368 f   libeay32:bn_word.obj
 0001:0000a474       BN_sub_word                0001b474 f   libeay32:bn_word.obj
 0001:0000a578       BN_mul_word                0001b578 f   libeay32:bn_word.obj
 0001:0000a75c       ecdh_check                 0001b75c f   libeay32:ech_lib.obj
 0001:0000abe8       ec_wNAF_mul                0001bbe8 f   libeay32:ec_mult.obj
 0001:0000b790       ec_wNAF_precompute_mult    0001c790 f   libeay32:ec_mult.obj
 0001:0000bc9c       ec_wNAF_have_precompute_mult 0001cc9c f   libeay32:ec_mult.obj
 0001:0000bcd8       lh_free                    0001ccd8 f   libeay32:lhash.obj
 0001:0000bd40       lh_doall                   0001cd40 f   libeay32:lhash.obj
 0001:0000bd94       lh_doall_arg               0001cd94 f   libeay32:lhash.obj
 0001:0000c0f8       lh_strhash                 0001d0f8 f   libeay32:lhash.obj
 0001:0000c164       lh_num_items               0001d164 f   libeay32:lhash.obj
 0001:0000c174       lh_new                     0001d174 f   libeay32:lhash.obj
 0001:0000c270       lh_insert                  0001d270 f   libeay32:lhash.obj
 0001:0000c354       lh_delete                  0001d354 f   libeay32:lhash.obj
 0001:0000c400       lh_retrieve                0001d400 f   libeay32:lhash.obj
 0001:0000c450       BUF_strlcpy                0001d450 f   libeay32:buf_str.obj
 0001:0000c4a0       BUF_strlcat                0001d4a0 f   libeay32:buf_str.obj
 0001:0000c4dc       BUF_strndup                0001d4dc f   libeay32:buf_str.obj
 0001:0000c550       BUF_strdup                 0001d550 f   libeay32:buf_str.obj
 0001:0000c580       sk_set_cmp_func            0001d580 f   libeay32:stack.obj
 0001:0000c59c       sk_new                     0001d59c f   libeay32:stack.obj
 0001:0000c624       sk_insert                  0001d624 f   libeay32:stack.obj
 0001:0000c6fc       sk_delete                  0001d6fc f   libeay32:stack.obj
 0001:0000c768       sk_push                    0001d768 f   libeay32:stack.obj
 0001:0000c77c       sk_pop                     0001d77c f   libeay32:stack.obj
 0001:0000c7b0       sk_free                    0001d7b0 f   libeay32:stack.obj
 0001:0000c7dc       sk_num                     0001d7dc f   libeay32:stack.obj
 0001:0000c7ec       sk_value                   0001d7ec f   libeay32:stack.obj
 0001:0000c818       sk_set                     0001d818 f   libeay32:stack.obj
 0001:0000c84c       sk_sort                    0001d84c f   libeay32:stack.obj
 0001:0000c888       sk_is_sorted               0001d888 f   libeay32:stack.obj
 0001:0000c898       sk_new_null                0001d898 f   libeay32:stack.obj
 0001:0000c8ac       sk_delete_ptr              0001d8ac f   libeay32:stack.obj
 0001:0000c9c0       sk_find                    0001d9c0 f   libeay32:stack.obj
 0001:0000c9d4       sk_pop_free                0001d9d4 f   libeay32:stack.obj
 0001:0000ca3c       engine_unlocked_init       0001da3c f   libeay32:eng_init.obj
 0001:0000ca94       engine_unlocked_finish     0001da94 f   libeay32:eng_init.obj
 0001:0000cb58       ENGINE_init                0001db58 f   libeay32:eng_init.obj
 0001:0000cbd4       ENGINE_finish              0001dbd4 f   libeay32:eng_init.obj
 0001:0000cc78       RAND_SSLeay                0001dc78 f   libeay32:md_rand.obj
 0001:0000d680       ENGINE_get_default_RAND    0001e680 f   libeay32:tb_rand.obj
 0001:0000d69c       ENGINE_get_RAND            0001e69c f   libeay32:tb_rand.obj
 0001:0000d6a4       BN_uadd                    0001e6a4 f   libeay32:bn_add.obj
 0001:0000d7a0       BN_usub                    0001e7a0 f   libeay32:bn_add.obj
 0001:0000d948       BN_sub                     0001e948 f   libeay32:bn_add.obj
 0001:0000da40       BN_add                     0001ea40 f   libeay32:bn_add.obj
 0001:0000daf4       EC_GROUP_new_curve_GFp     0001eaf4 f   libeay32:ec_cvt.obj
 0001:0000dbc0       EC_GROUP_new_curve_GF2m    0001ebc0 f   libeay32:ec_cvt.obj
 0001:0000dc24       bn_mul_add_words           0001ec24 f   libeay32:bn_asm.obj
 0001:0000dc7c       bn_mul_words               0001ec7c f   libeay32:bn_asm.obj
 0001:0000dcc8       bn_sqr_words               0001ecc8 f   libeay32:bn_asm.obj
 0001:0000dcf4       bn_div_words               0001ecf4 f   libeay32:bn_asm.obj
 0001:0000dd24       bn_add_words               0001ed24 f   libeay32:bn_asm.obj
 0001:0000dd78       bn_sub_words               0001ed78 f   libeay32:bn_asm.obj
 0001:0000ddd8       BN_lshift1                 0001edd8 f   libeay32:bn_shift.obj
 0001:0000deac       BN_rshift1                 0001eeac f   libeay32:bn_shift.obj
 0001:0000df88       BN_lshift                  0001ef88 f   libeay32:bn_shift.obj
 0001:0000e0b4       BN_rshift                  0001f0b4 f   libeay32:bn_shift.obj
 0001:0000e1cc       ECDH_OpenSSL               0001f1cc f   libeay32:ech_ossl.obj
 0001:0000e524       ENGINE_get_default_ECDH    0001f524 f   libeay32:tb_ecdh.obj
 0001:0000e540       ENGINE_get_ECDH            0001f540 f   libeay32:tb_ecdh.obj
 0001:0000e5a4       OBJ_nid2obj                0001f5a4 f   libeay32:obj_dat.obj
 0001:0000e684       OBJ_nid2sn                 0001f684 f   libeay32:obj_dat.obj
 0001:0000e768       OBJ_nid2ln                 0001f768 f   libeay32:obj_dat.obj
 0001:0000e890       OBJ_bsearch_ex_            0001f890 f   libeay32:obj_dat.obj
 0001:0000e974       OBJ_bsearch_               0001f974 f   libeay32:obj_dat.obj
 0001:0000e99c       OBJ_obj2nid                0001f99c f   libeay32:obj_dat.obj
 0001:0000ea64       OBJ_obj2txt                0001fa64 f   libeay32:obj_dat.obj
 0001:0000ed64       OBJ_ln2nid                 0001fd64 f   libeay32:obj_dat.obj
 0001:0000ee14       OBJ_sn2nid                 0001fe14 f   libeay32:obj_dat.obj
 0001:0000eec4       OBJ_txt2obj                0001fec4 f   libeay32:obj_dat.obj
 0001:0000efb8       engine_free_util           0001ffb8 f   libeay32:eng_lib.obj
 0001:0000f078       ENGINE_free                00020078 f   libeay32:eng_lib.obj
 0001:0000f08c       EVP_MD_CTX_init            0002008c f   libeay32:digest.obj
 0001:0000f0a4       EVP_MD_CTX_create          000200a4 f   libeay32:digest.obj
 0001:0000f0dc       EVP_DigestInit_ex          000200dc f   libeay32:digest.obj
 0001:0000f2f4       EVP_DigestUpdate           000202f4 f   libeay32:digest.obj
 0001:0000f30c       EVP_DigestFinal_ex         0002030c f   libeay32:digest.obj
 0001:0000f3b8       EVP_MD_CTX_cleanup         000203b8 f   libeay32:digest.obj
 0001:0000f484       EVP_MD_CTX_copy_ex         00020484 f   libeay32:digest.obj
 0001:0000f634       EVP_Digest                 00020634 f   libeay32:digest.obj
 0001:0000f6d8       EVP_MD_CTX_destroy         000206d8 f   libeay32:digest.obj
 0001:0000f6f4       EVP_MD_CTX_copy            000206f4 f   libeay32:digest.obj
 0001:0000f764       EVP_sha1                   00020764 f   libeay32:m_sha1.obj
 0001:0000f89c       RAND_poll                  0002089c f   libeay32:rand_win.obj
 0001:0000f974       engine_table_select        00020974 f   libeay32:eng_table.obj
 0001:0000fb00       engine_table_doall         00020b00 f   libeay32:eng_table.obj
 0001:0000fb34       ec_GFp_mont_group_init     00020b34 f   libeay32:ecp_mont.obj
 0001:0000fb54       ec_GFp_mont_group_finish   00020b54 f   libeay32:ecp_mont.obj
 0001:0000fba0       ec_GFp_mont_group_clear_finish 00020ba0 f   libeay32:ecp_mont.obj
 0001:0000fbec       ec_GFp_mont_group_copy     00020bec f   libeay32:ecp_mont.obj
 0001:0000fcbc       ec_GFp_mont_group_set_curve 00020cbc f   libeay32:ecp_mont.obj
 0001:0000fe1c       ec_GFp_mont_field_mul      00020e1c f   libeay32:ecp_mont.obj
 0001:0000fe8c       ec_GFp_mont_field_sqr      00020e8c f   libeay32:ecp_mont.obj
 0001:0000fef8       ec_GFp_mont_field_encode   00020ef8 f   libeay32:ecp_mont.obj
 0001:0000ff68       ec_GFp_mont_field_decode   00020f68 f   libeay32:ecp_mont.obj
 0001:0000ffc8       ec_GFp_mont_field_set_to_one 00020fc8 f   libeay32:ecp_mont.obj
 0001:0001002c       EC_GFp_mont_method         0002102c f   libeay32:ecp_mont.obj
 0001:00010038       ec_GFp_nist_group_copy     00021038 f   libeay32:ecp_nist.obj
 0001:00010054       ec_GFp_nist_group_set_curve 00021054 f   libeay32:ecp_nist.obj
 0001:000101a0       ec_GFp_nist_field_mul      000211a0 f   libeay32:ecp_nist.obj
 0001:0001027c       ec_GFp_nist_field_sqr      0002127c f   libeay32:ecp_nist.obj
 0001:00010348       EC_GFp_nist_method         00021348 f   libeay32:ecp_nist.obj
 0001:00010354       ec_GF2m_simple_group_init  00021354 f   libeay32:ec2_smpl.obj
 0001:00010380       ec_GF2m_simple_group_finish 00021380 f   libeay32:ec2_smpl.obj
 0001:000103a8       ec_GF2m_simple_group_clear_finish 000213a8 f   libeay32:ec2_smpl.obj
 0001:000103f0       ec_GF2m_simple_group_copy  000213f0 f   libeay32:ec2_smpl.obj
 0001:0001053c       ec_GF2m_simple_group_set_curve 0002153c f   libeay32:ec2_smpl.obj
 0001:000106ac       ec_GF2m_simple_group_get_curve 000216ac f   libeay32:ec2_smpl.obj
 0001:00010728       ec_GF2m_simple_group_get_degree 00021728 f   libeay32:ec2_smpl.obj
 0001:00010740       ec_GF2m_simple_group_check_discriminant 00021740 f   libeay32:ec2_smpl.obj
 0001:000107f4       ec_GF2m_simple_point_init  000217f4 f   libeay32:ec2_smpl.obj
 0001:00010820       ec_GF2m_simple_point_finish 00021820 f   libeay32:ec2_smpl.obj
 0001:00010848       ec_GF2m_simple_point_clear_finish 00021848 f   libeay32:ec2_smpl.obj
 0001:00010878       ec_GF2m_simple_point_copy  00021878 f   libeay32:ec2_smpl.obj
 0001:000108e0       ec_GF2m_simple_point_set_to_infinity 000218e0 f   libeay32:ec2_smpl.obj
 0001:00010908       ec_GF2m_simple_point_set_affine_coordinates 00021908 f   libeay32:ec2_smpl.obj
 0001:000109d4       ec_GF2m_simple_point_get_affine_coordinates 000219d4 f   libeay32:ec2_smpl.obj
 0001:00010ac4       ec_GF2m_simple_add         00021ac4 f   libeay32:ec2_smpl.obj
 0001:00010ec8       ec_GF2m_simple_dbl         00021ec8 f   libeay32:ec2_smpl.obj
 0001:00010eec       ec_GF2m_simple_invert      00021eec f   libeay32:ec2_smpl.obj
 0001:00010f58       ec_GF2m_simple_is_at_infinity 00021f58 f   libeay32:ec2_smpl.obj
 0001:00010f6c       ec_GF2m_simple_is_on_curve 00021f6c f   libeay32:ec2_smpl.obj
 0001:000110fc       ec_GF2m_simple_cmp         000220fc f   libeay32:ec2_smpl.obj
 0001:00011288       ec_GF2m_simple_make_affine 00022288 f   libeay32:ec2_smpl.obj
 0001:0001138c       ec_GF2m_simple_points_make_affine 0002238c f   libeay32:ec2_smpl.obj
 0001:000113f4       ec_GF2m_simple_field_mul   000223f4 f   libeay32:ec2_smpl.obj
 0001:00011430       ec_GF2m_simple_field_sqr   00022430 f   libeay32:ec2_smpl.obj
 0001:00011454       ec_GF2m_simple_field_div   00022454 f   libeay32:ec2_smpl.obj
 0001:00011490       EC_GF2m_simple_method      00022490 f   libeay32:ec2_smpl.obj
 0001:0001149c       bn_sqr_normal              0002249c f   libeay32:bn_sqr.obj
 0001:00011588       BN_sqr                     00022588 f   libeay32:bn_sqr.obj
 0001:000116c0       a2d_ASN1_OBJECT            000226c0 f   libeay32:a_object.obj
 0001:00011a98       i2t_ASN1_OBJECT            00022a98 f   libeay32:a_object.obj
 0001:00011aac       i2a_ASN1_OBJECT            00022aac f   libeay32:a_object.obj
 0001:00011b88       ASN1_OBJECT_new            00022b88 f   libeay32:a_object.obj
 0001:00011c04       ASN1_OBJECT_free           00022c04 f   libeay32:a_object.obj
 0001:00011c84       c2i_ASN1_OBJECT            00022c84 f   libeay32:a_object.obj
 0001:00011e18       d2i_ASN1_OBJECT            00022e18 f   libeay32:a_object.obj
 0001:00011eb8       OBJ_dup                    00022eb8 f   libeay32:obj_lib.obj
 0001:00012058       OBJ_cmp                    00023058 f   libeay32:obj_lib.obj
 0001:00012140       ASN1_put_eoc               00023140 f   libeay32:asn1_lib.obj
 0001:00012160       ASN1_object_size           00023160 f   libeay32:asn1_lib.obj
 0001:000121b0       ASN1_STRING_set            000231b0 f   libeay32:asn1_lib.obj
 0001:000122a0       ASN1_STRING_set0           000232a0 f   libeay32:asn1_lib.obj
 0001:000122d0       ASN1_STRING_type_new       000232d0 f   libeay32:asn1_lib.obj
 0001:0001233c       ASN1_STRING_free           0002333c f   libeay32:asn1_lib.obj
 0001:00012370       ASN1_STRING_cmp            00023370 f   libeay32:asn1_lib.obj
 0001:000123b0       ASN1_get_object            000233b0 f   libeay32:asn1_lib.obj
 0001:00012508       ASN1_put_object            00023508 f   libeay32:asn1_lib.obj
 0001:0001261c       ASN1_STRING_copy           0002361c f   libeay32:asn1_lib.obj
 0001:00012668       ASN1_STRING_new            00023668 f   libeay32:asn1_lib.obj
 0001:0001267c       ASN1_STRING_dup            0002367c f   libeay32:asn1_lib.obj
 0001:000126c4       ENGINE_get_pkey_asn1_meth_engine 000236c4 f   libeay32:tb_asnmth.obj
 0001:000126e0       engine_pkey_asn1_meths_free 000236e0 f   libeay32:tb_asnmth.obj
 0001:0001281c       ENGINE_pkey_asn1_find_str  0002381c f   libeay32:tb_asnmth.obj
 0001:000128bc       ENGINE_get_pkey_asn1_meth  000238bc f   libeay32:tb_asnmth.obj
 0001:00012920       ENGINE_get_pkey_meth_engine 00023920 f   libeay32:tb_pkmeth.obj
 0001:0001293c       engine_pkey_meths_free     0002393c f   libeay32:tb_pkmeth.obj
 0001:000129bc       ENGINE_get_pkey_meth       000239bc f   libeay32:tb_pkmeth.obj
 0001:00012a38       EVP_PKEY_meth_find         00023a38 f   libeay32:pmeth_lib.obj
 0001:00012ad0       EVP_PKEY_meth_free         00023ad0 f   libeay32:pmeth_lib.obj
 0001:00012aec       EVP_PKEY_CTX_free          00023aec f   libeay32:pmeth_lib.obj
 0001:00012b54       EVP_PKEY_CTX_ctrl          00023b54 f   libeay32:pmeth_lib.obj
 0001:00012c78       EVP_PKEY_CTX_get0_pkey     00023c78 f   libeay32:pmeth_lib.obj
 0001:00012c80       EVP_PKEY_CTX_new           00023c80 f   libeay32:pmeth_lib.obj
 0001:00012dfc       EVP_PKEY_CTX_dup           00023dfc f   libeay32:pmeth_lib.obj
 0001:00012f38       ENGINE_get_digest_engine   00023f38 f   libeay32:tb_digest.obj
 0001:00012f54       ENGINE_get_digest          00023f54 f   libeay32:tb_digest.obj
 0001:00012fb8       EVP_CIPHER_CTX_block_size  00023fb8 f   libeay32:evp_lib.obj
 0001:00012fc4       EVP_Cipher                 00023fc4 f   libeay32:evp_lib.obj
 0001:00012fe0       EVP_CIPHER_CTX_cipher      00023fe0 f   libeay32:evp_lib.obj
 0001:00012fe8       EVP_CIPHER_CTX_flags       00023fe8 f   libeay32:evp_lib.obj
 0001:00012ff4       EVP_CIPHER_iv_length       00023ff4 f   libeay32:evp_lib.obj
 0001:00012ffc       EVP_CIPHER_CTX_iv_length   00023ffc f   libeay32:evp_lib.obj
 0001:00013008       EVP_CIPHER_key_length      00024008 f   libeay32:evp_lib.obj
 0001:00013010       EVP_CIPHER_CTX_key_length  00024010 f   libeay32:evp_lib.obj
 0001:00013018       EVP_MD_block_size          00024018 f   libeay32:evp_lib.obj
 0001:00013020       EVP_MD_type                00024020 f   libeay32:evp_lib.obj
 0001:00013028       EVP_MD_pkey_type           00024028 f   libeay32:evp_lib.obj
 0001:00013030       EVP_MD_size                00024030 f   libeay32:evp_lib.obj
 0001:0001307c       EVP_MD_CTX_md              0002407c f   libeay32:evp_lib.obj
 0001:0001308c       EVP_MD_CTX_set_flags       0002408c f   libeay32:evp_lib.obj
 0001:0001309c       EVP_MD_CTX_clear_flags     0002409c f   libeay32:evp_lib.obj
 0001:000130ac       EVP_MD_CTX_test_flags      000240ac f   libeay32:evp_lib.obj
 0001:000130b8       EVP_CIPHER_get_asn1_iv     000240b8 f   libeay32:evp_lib.obj
 0001:00013130       EVP_CIPHER_set_asn1_iv     00024130 f   libeay32:evp_lib.obj
 0001:00013180       EVP_CIPHER_type            00024180 f   libeay32:evp_lib.obj
 0001:000132b0       EVP_CIPHER_param_to_asn1   000242b0 f   libeay32:evp_lib.obj
 0001:000132f8       EVP_CIPHER_asn1_to_param   000242f8 f   libeay32:evp_lib.obj
 0001:00013340       RSA_sign                   00024340 f   libeay32:rsa_sign.obj
 0001:00013584       int_rsa_verify             00024584 f   libeay32:rsa_sign.obj
 0001:00013970       RSA_verify                 00024970 f   libeay32:rsa_sign.obj
 0001:000139e8       SHA224_Init                000249e8 f   libeay32:sha256.obj
 0001:00013a68       SHA256_Init                00024a68 f   libeay32:sha256.obj
 0001:00013e08       SHA256_Update              00024e08 f   libeay32:sha256.obj
 0001:00013f10       SHA256_Final               00024f10 f   libeay32:sha256.obj
 0001:00014098       SHA384_Init                00025098 f   libeay32:sha512.obj
 0001:00014188       SHA512_Init                00025188 f   libeay32:sha512.obj
 0001:00014a50       SHA512_Final               00025a50 f   libeay32:sha512.obj
 0001:00014c7c       SHA512_Update              00025c7c f   libeay32:sha512.obj
 0001:00014dcc       ec_GFp_simple_group_init   00025dcc f   libeay32:ecp_smpl.obj
 0001:00014e00       ec_GFp_simple_group_finish 00025e00 f   libeay32:ecp_smpl.obj
 0001:00014e28       ec_GFp_simple_group_clear_finish 00025e28 f   libeay32:ecp_smpl.obj
 0001:00014e50       ec_GFp_simple_group_copy   00025e50 f   libeay32:ecp_smpl.obj
 0001:00014eb8       ec_GFp_simple_group_set_curve 00025eb8 f   libeay32:ecp_smpl.obj
 0001:00015084       ec_GFp_simple_group_get_curve 00026084 f   libeay32:ecp_smpl.obj
 0001:000151b4       ec_GFp_simple_group_get_degree 000261b4 f   libeay32:ecp_smpl.obj
 0001:000151c8       ec_GFp_simple_group_check_discriminant 000261c8 f   libeay32:ecp_smpl.obj
 0001:000153ec       ec_GFp_simple_point_init   000263ec f   libeay32:ecp_smpl.obj
 0001:00015420       ec_GFp_simple_point_finish 00026420 f   libeay32:ecp_smpl.obj
 0001:00015448       ec_GFp_simple_point_clear_finish 00026448 f   libeay32:ecp_smpl.obj
 0001:00015478       ec_GFp_simple_point_copy   00026478 f   libeay32:ecp_smpl.obj
 0001:000154e0       ec_GFp_simple_point_set_to_infinity 000264e0 f   libeay32:ecp_smpl.obj
 0001:00015508       ec_GFp_simple_set_Jprojective_coordinates_GFp 00026508 f   libeay32:ecp_smpl.obj
 0001:000156b8       ec_GFp_simple_get_Jprojective_coordinates_GFp 000266b8 f   libeay32:ecp_smpl.obj
 0001:00015808       ec_GFp_simple_point_set_affine_coordinates 00026808 f   libeay32:ecp_smpl.obj
 0001:00015888       ec_GFp_simple_point_get_affine_coordinates 00026888 f   libeay32:ecp_smpl.obj
 0001:00015bc4       ec_GFp_simple_add          00026bc4 f   libeay32:ecp_smpl.obj
 0001:000161d4       ec_GFp_simple_dbl          000271d4 f   libeay32:ecp_smpl.obj
 0001:000166ac       ec_GFp_simple_invert       000276ac f   libeay32:ecp_smpl.obj
 0001:000166f4       ec_GFp_simple_is_at_infinity 000276f4 f   libeay32:ecp_smpl.obj
 0001:00016708       ec_GFp_simple_is_on_curve  00027708 f   libeay32:ecp_smpl.obj
 0001:00016a48       ec_GFp_simple_cmp          00027a48 f   libeay32:ecp_smpl.obj
 0001:00016d2c       ec_GFp_simple_make_affine  00027d2c f   libeay32:ecp_smpl.obj
 0001:00016e48       ec_GFp_simple_points_make_affine 00027e48 f   libeay32:ecp_smpl.obj
 0001:00017348       ec_GFp_simple_field_mul    00028348 f   libeay32:ecp_smpl.obj
 0001:00017384       ec_GFp_simple_field_sqr    00028384 f   libeay32:ecp_smpl.obj
 0001:00017650       BN_from_montgomery         00028650 f   libeay32:bn_mont.obj
 0001:000176bc       BN_MONT_CTX_init           000286bc f   libeay32:bn_mont.obj
 0001:000176f4       BN_MONT_CTX_free           000286f4 f   libeay32:bn_mont.obj
 0001:00017730       BN_MONT_CTX_set            00028730 f   libeay32:bn_mont.obj
 0001:000178f8       BN_MONT_CTX_copy           000288f8 f   libeay32:bn_mont.obj
 0001:00017974       BN_mod_mul_montgomery      00028974 f   libeay32:bn_mont.obj
 0001:00017a00       BN_MONT_CTX_new            00028a00 f   libeay32:bn_mont.obj
 0001:00017a44       BN_MONT_CTX_set_locked     00028a44 f   libeay32:bn_mont.obj
 0001:00017b1c       BN_get0_nist_prime_192     00028b1c f   libeay32:bn_nist.obj
 0001:00017b28       BN_get0_nist_prime_224     00028b28 f   libeay32:bn_nist.obj
 0001:00017b34       BN_get0_nist_prime_256     00028b34 f   libeay32:bn_nist.obj
 0001:00017b40       BN_get0_nist_prime_384     00028b40 f   libeay32:bn_nist.obj
 0001:00017b4c       BN_get0_nist_prime_521     00028b4c f   libeay32:bn_nist.obj
 0001:00017ba8       BN_nist_mod_192            00028ba8 f   libeay32:bn_nist.obj
 0001:00017e70       BN_nist_mod_224            00028e70 f   libeay32:bn_nist.obj
 0001:000181d4       BN_nist_mod_256            000291d4 f   libeay32:bn_nist.obj
 0001:00018690       BN_nist_mod_384            00029690 f   libeay32:bn_nist.obj
 0001:00018c54       BN_nist_mod_521            00029c54 f   libeay32:bn_nist.obj
 0001:00018e38       bn_mul_normal              00029e38 f   libeay32:bn_mul.obj
 0001:00018f48       BN_mul                     00029f48 f   libeay32:bn_mul.obj
 0001:000199e8       ec_GF2m_simple_mul         0002a9e8 f   libeay32:ec2_mult.obj
 0001:00019c64       ec_GF2m_precompute_mult    0002ac64 f   libeay32:ec2_mult.obj
 0001:00019c74       ec_GF2m_have_precompute_mult 0002ac74 f   libeay32:ec2_mult.obj
 0001:00019e1c       BN_GF2m_add                0002ae1c f   libeay32:bn_gf2m.obj
 0001:00019f10       BN_GF2m_mod_arr            0002af10 f   libeay32:bn_gf2m.obj
 0001:0001a188       BN_GF2m_mod_sqr_arr        0002b188 f   libeay32:bn_gf2m.obj
 0001:0001a310       BN_GF2m_poly2arr           0002b310 f   libeay32:bn_gf2m.obj
 0001:0001a3b4       BN_GF2m_mod                0002b3b4 f   libeay32:bn_gf2m.obj
 0001:0001a430       BN_GF2m_mod_mul_arr        0002b430 f   libeay32:bn_gf2m.obj
 0001:0001a680       BN_GF2m_mod_mul            0002b680 f   libeay32:bn_gf2m.obj
 0001:0001a744       BN_GF2m_mod_inv            0002b744 f   libeay32:bn_gf2m.obj
 0001:0001ab84       BN_GF2m_mod_div            0002bb84 f   libeay32:bn_gf2m.obj
 0001:0001ac10       BN_GF2m_mod_exp_arr        0002bc10 f   libeay32:bn_gf2m.obj
 0001:0001ad48       BN_GF2m_mod_sqrt_arr       0002bd48 f   libeay32:bn_gf2m.obj
 0001:0001ade4       BN_GF2m_mod_solve_quad_arr 0002bde4 f   libeay32:bn_gf2m.obj
 0001:0001b15c       EVP_PKEY_asn1_get_count    0002c15c f   libeay32:ameth_lib.obj
 0001:0001b18c       EVP_PKEY_asn1_get0         0002c18c f   libeay32:ameth_lib.obj
 0001:0001b1d4       EVP_PKEY_asn1_find         0002c1d4 f   libeay32:ameth_lib.obj
 0001:0001b2bc       EVP_PKEY_asn1_find_str     0002c2bc f   libeay32:ameth_lib.obj
 0001:0001b3a4       EVP_PKEY_asn1_free         0002c3a4 f   libeay32:ameth_lib.obj
 0001:0001d848       EVP_PKEY_bits              0002e848 f   libeay32:p_lib.obj
 0001:0001d888       EVP_PKEY_size              0002e888 f   libeay32:p_lib.obj
 0001:0001d8c8       EVP_PKEY_missing_parameters 0002e8c8 f   libeay32:p_lib.obj
 0001:0001d900       EVP_PKEY_new               0002e900 f   libeay32:p_lib.obj
 0001:0001d97c       EVP_PKEY_type              0002e97c f   libeay32:p_lib.obj
 0001:0001d9b8       EVP_PKEY_id                0002e9b8 f   libeay32:p_lib.obj
 0001:0001d9c0       EVP_PKEY_get_default_digest_nid 0002e9c0 f   libeay32:p_lib.obj
 0001:0001da04       EVP_PKEY_copy_parameters   0002ea04 f   libeay32:p_lib.obj
 0001:0001dbf0       EVP_PKEY_set_type          0002ebf0 f   libeay32:p_lib.obj
 0001:0001dc08       EVP_PKEY_assign            0002ec08 f   libeay32:p_lib.obj
 0001:0001dc40       EVP_PKEY_free              0002ec40 f   libeay32:p_lib.obj
 0001:0001dcec       EVP_get_cipherbyname       0002ecec f   libeay32:names.obj
 0001:0001dd00       EVP_get_digestbyname       0002ed00 f   libeay32:names.obj
 0001:0001dd14       ASN1_TYPE_set_octetstring  0002ed14 f   libeay32:evp_asn1.obj
 0001:0001dd74       ASN1_TYPE_get_octetstring  0002ed74 f   libeay32:evp_asn1.obj
 0001:0001dde8       RSA_size                   0002ede8 f   libeay32:rsa_crpt.obj
 0001:0001de0c       RSA_public_encrypt         0002ee0c f   libeay32:rsa_crpt.obj
 0001:0001de38       RSA_private_encrypt        0002ee38 f   libeay32:rsa_crpt.obj
 0001:0001de64       RSA_private_decrypt        0002ee64 f   libeay32:rsa_crpt.obj
 0001:0001de90       RSA_public_decrypt         0002ee90 f   libeay32:rsa_crpt.obj
 0001:0001dfa0       RSA_setup_blinding         0002efa0 f   libeay32:rsa_crpt.obj
 0001:0001e174       X509_SIG_it                0002f174 f   libeay32:x_sig.obj
 0001:0001e180       d2i_X509_SIG               0002f180 f   libeay32:x_sig.obj
 0001:0001e198       i2d_X509_SIG               0002f198 f   libeay32:x_sig.obj
 0001:0001e1b0       X509_SIG_free              0002f1b0 f   libeay32:x_sig.obj
 0001:0001e1c8       ASN1_TYPE_get              0002f1c8 f   libeay32:a_type.obj
 0001:0001e1ec       ASN1_TYPE_set              0002f1ec f   libeay32:a_type.obj
 0001:0001e258       ASN1_TYPE_set1             0002f258 f   libeay32:a_type.obj
 0001:0001e2cc       BN_nnmod                   0002f2cc f   libeay32:bn_mod.obj
 0001:0001e34c       BN_mod_add                 0002f34c f   libeay32:bn_mod.obj
 0001:0001e388       BN_mod_add_quick           0002f388 f   libeay32:bn_mod.obj
 0001:0001e3e0       BN_mod_sub_quick           0002f3e0 f   libeay32:bn_mod.obj
 0001:0001e430       BN_mod_mul                 0002f430 f   libeay32:bn_mod.obj
 0001:0001e4c0       BN_mod_sqr                 0002f4c0 f   libeay32:bn_mod.obj
 0001:0001e504       BN_mod_lshift1_quick       0002f504 f   libeay32:bn_mod.obj
 0001:0001e55c       BN_mod_lshift_quick        0002f55c f   libeay32:bn_mod.obj
 0001:0001eaac       BN_gcd                     0002faac f   libeay32:bn_gcd.obj
 0001:0001eb80       BN_mod_inverse             0002fb80 f   libeay32:bn_gcd.obj
 0001:0001f1f4       BN_div                     000301f4 f   libeay32:bn_div.obj
 0001:00023260       CMAC_CTX_new               00034260 f   libeay32:cmac.obj
 0001:000232a0       CMAC_CTX_cleanup           000342a0 f   libeay32:cmac.obj
 0001:000232ec       CMAC_CTX_free              000342ec f   libeay32:cmac.obj
 0001:00023308       CMAC_CTX_copy              00034308 f   libeay32:cmac.obj
 0001:00023398       CMAC_Init                  00034398 f   libeay32:cmac.obj
 0001:00023614       CMAC_Update                00034614 f   libeay32:cmac.obj
 0001:000236f8       CMAC_Final                 000346f8 f   libeay32:cmac.obj
 0001:000237f8       X509V3_add_value           000347f8 f   libeay32:v3_utl.obj
 0001:000238f0       X509V3_add_value_uchar     000348f0 f   libeay32:v3_utl.obj
 0001:00023900       X509V3_conf_free           00034900 f   libeay32:v3_utl.obj
 0001:0002394c       X509V3_add_value_bool      0003494c f   libeay32:v3_utl.obj
 0001:00023970       i2s_ASN1_ENUMERATED        00034970 f   libeay32:v3_utl.obj
 0001:000239e0       i2s_ASN1_INTEGER           000349e0 f   libeay32:v3_utl.obj
 0001:00023a50       s2i_ASN1_INTEGER           00034a50 f   libeay32:v3_utl.obj
 0001:00023ba0       X509V3_add_value_int       00034ba0 f   libeay32:v3_utl.obj
 0001:00023bf4       X509V3_get_value_bool      00034bf4 f   libeay32:v3_utl.obj
 0001:00023db0       X509V3_get_value_int       00034db0 f   libeay32:v3_utl.obj
 0001:00023ec4       hex_to_string              00034ec4 f   libeay32:v3_utl.obj
 0001:00023f84       string_to_hex              00034f84 f   libeay32:v3_utl.obj
 0001:0002414c       name_cmp                   0003514c f   libeay32:v3_utl.obj
 0001:00024230       X509V3_NAME_from_section   00035230 f   libeay32:v3_utl.obj
 0001:00024318       X509V3_parse_list          00035318 f   libeay32:v3_utl.obj
 0001:00024788       a2i_ipadd                  00035788 f   libeay32:v3_utl.obj
 0001:000247ec       a2i_IPADDRESS              000357ec f   libeay32:v3_utl.obj
 0001:00024848       a2i_IPADDRESS_NC           00035848 f   libeay32:v3_utl.obj
 0001:00024914       HMAC_Init_ex               00035914 f   libeay32:hmac.obj
 0001:00024b0c       HMAC_Update                00035b0c f   libeay32:hmac.obj
 0001:00024b20       HMAC_Final                 00035b20 f   libeay32:hmac.obj
 0001:00024ba8       HMAC_CTX_init              00035ba8 f   libeay32:hmac.obj
 0001:00024bd0       HMAC_CTX_copy              00035bd0 f   libeay32:hmac.obj
 0001:00024c50       HMAC_CTX_cleanup           00035c50 f   libeay32:hmac.obj
 0001:00024c88       HMAC_CTX_set_flags         00035c88 f   libeay32:hmac.obj
 0001:00024cbc       HMAC_Init                  00035cbc f   libeay32:hmac.obj
 0001:00024d20       HMAC                       00035d20 f   libeay32:hmac.obj
 0001:00024dcc       ASN1_OCTET_STRING_dup      00035dcc f   libeay32:a_octet.obj
 0001:00024ddc       ASN1_OCTET_STRING_set      00035ddc f   libeay32:a_octet.obj
 0001:00024dec       ECDSA_do_sign_ex           00035dec f   libeay32:ecs_sign.obj
 0001:00024e4c       ECDSA_sign_ex              00035e4c f   libeay32:ecs_sign.obj
 0001:00024ed4       ECDSA_sign_setup           00035ed4 f   libeay32:ecs_sign.obj
 0001:00024f24       ECDSA_sign                 00035f24 f   libeay32:ecs_sign.obj
 0001:000250b0       ecdsa_check                000360b0 f   libeay32:ecs_lib.obj
 0001:0002512c       ECDSA_size                 0003612c f   libeay32:ecs_lib.obj
 0001:000251e4       ECDSA_do_verify            000361e4 f   libeay32:ecs_vrf.obj
 0001:00025238       ECDSA_verify               00036238 f   libeay32:ecs_vrf.obj
 0001:0002532c       d2i_DSA_SIG                0003632c f   libeay32:dsa_asn1.obj
 0001:000253a0       d2i_DSAPrivateKey          000363a0 f   libeay32:dsa_asn1.obj
 0001:000253b8       i2d_DSAPrivateKey          000363b8 f   libeay32:dsa_asn1.obj
 0001:000253d0       d2i_DSAparams              000363d0 f   libeay32:dsa_asn1.obj
 0001:000253e8       i2d_DSAparams              000363e8 f   libeay32:dsa_asn1.obj
 0001:00025400       dsa_pub_internal_it        00036400 f   libeay32:dsa_asn1.obj
 0001:0002540c       i2d_DSAPublicKey           0003640c f   libeay32:dsa_asn1.obj
 0001:00025424       DSA_sign                   00036424 f   libeay32:dsa_asn1.obj
 0001:000254a4       DSA_verify                 000364a4 f   libeay32:dsa_asn1.obj
 0001:00025524       DSA_new_method             00036524 f   libeay32:dsa_lib.obj
 0001:000256d4       DSA_free                   000366d4 f   libeay32:dsa_lib.obj
 0001:000257c8       DSA_size                   000367c8 f   libeay32:dsa_lib.obj
 0001:0002582c       DSA_new                    0003682c f   libeay32:dsa_lib.obj
 0001:00025840       dsa_builtin_paramgen       00036840 f   libeay32:dsa_gen.obj
 0001:00025fd4       evp_pkey_set_cb_translate  00036fd4 f   libeay32:pmeth_gn.obj
 0001:00026128       DSA_generate_key           00037128 f   libeay32:dsa_key.obj
 0001:00026158       DH_new_method              00037158 f   libeay32:dh_lib.obj
 0001:00026310       DH_free                    00037310 f   libeay32:dh_lib.obj
 0001:00026414       DH_size                    00037414 f   libeay32:dh_lib.obj
 0001:00026438       DH_new                     00037438 f   libeay32:dh_lib.obj
 0001:00026630       DH_generate_parameters_ex  00037630 f   libeay32:dh_gen.obj
 0001:00026660       DH_generate_key            00037660 f   libeay32:dh_key.obj
 0001:0002667c       DH_compute_key             0003767c f   libeay32:dh_key.obj
 0001:00026698       DH_OpenSSL                 00037698 f   libeay32:dh_key.obj
 0001:00026b34       RSA_verify_PKCS1_PSS_mgf1  00037b34 f   libeay32:rsa_pss.obj
 0001:00027064       RSA_padding_add_PKCS1_PSS_mgf1 00038064 f   libeay32:rsa_pss.obj
 0001:000274b8       RSA_padding_add_X931       000384b8 f   libeay32:rsa_x931.obj
 0001:00027564       RSA_padding_check_X931     00038564 f   libeay32:rsa_x931.obj
 0001:0002768c       RSA_X931_hash_id           0003868c f   libeay32:rsa_x931.obj
 0001:000276dc       RSA_sign_ASN1_OCTET_STRING 000386dc f   libeay32:rsa_saos.obj
 0001:000277ec       X509_ALGOR_it              000387ec f   libeay32:x_algor.obj
 0001:000277f8       d2i_X509_ALGOR             000387f8 f   libeay32:x_algor.obj
 0001:00027810       X509_ALGOR_new             00038810 f   libeay32:x_algor.obj
 0001:00027828       X509_ALGOR_free            00038828 f   libeay32:x_algor.obj
 0001:00027840       X509_ALGOR_set0            00038840 f   libeay32:x_algor.obj
 0001:000278e8       X509_ALGOR_get0            000388e8 f   libeay32:x_algor.obj
 0001:0002793c       X509_ALGOR_set_md          0003893c f   libeay32:x_algor.obj
 0001:0002797c       CMS_RecipientInfo_ktri_get0_algs 0003897c f   libeay32:cms_env.obj
 0001:00027cd8       cms_EnvelopedData_init_bio 00038cd8 f   libeay32:cms_env.obj
 0001:00027e3c       RSA_new_method             00038e3c f   libeay32:rsa_lib.obj
 0001:00028020       RSA_free                   00039020 f   libeay32:rsa_lib.obj
 0001:00028154       RSA_new                    00039154 f   libeay32:rsa_lib.obj
 0001:00028720       RSA_generate_key_ex        00039720 f   libeay32:rsa_gen.obj
 0001:00028750       X509_ATTRIBUTE_SET_it      00039750 f   libeay32:x_attrib.obj
 0001:0002875c       X509_ATTRIBUTE_it          0003975c f   libeay32:x_attrib.obj
 0001:00028768       X509_ATTRIBUTE_new         00039768 f   libeay32:x_attrib.obj
 0001:00028780       X509_ATTRIBUTE_free        00039780 f   libeay32:x_attrib.obj
 0001:00028798       X509_ATTRIBUTE_dup         00039798 f   libeay32:x_attrib.obj
 0001:000287b4       X509_ATTRIBUTE_create      000397b4 f   libeay32:x_attrib.obj
 0001:00028930       OBJ_NAME_init              00039930 f   libeay32:o_names.obj
 0001:00028998       OBJ_NAME_get               00039998 f   libeay32:o_names.obj
 0001:00028a7c       OBJ_find_sigid_algs        00039a7c f   libeay32:obj_xref.obj
 0001:00028b1c       OBJ_find_sigid_by_algs     00039b1c f   libeay32:obj_xref.obj
 0001:00028be8       EVP_PBE_find               00039be8 f   libeay32:evp_pbe.obj
 0001:00028cac       EVP_PBE_CipherInit         00039cac f   libeay32:evp_pbe.obj
 0001:00028e64       ASN1_INTEGER_it            00039e64 f   libeay32:tasn_typ.obj
 0001:00028e70       d2i_ASN1_INTEGER           00039e70 f   libeay32:tasn_typ.obj
 0001:00028e88       i2d_ASN1_INTEGER           00039e88 f   libeay32:tasn_typ.obj
 0001:00028ea0       ASN1_INTEGER_new           00039ea0 f   libeay32:tasn_typ.obj
 0001:00028eb8       ASN1_INTEGER_free          00039eb8 f   libeay32:tasn_typ.obj
 0001:00028ed0       ASN1_ENUMERATED_it         00039ed0 f   libeay32:tasn_typ.obj
 0001:00028edc       ASN1_ENUMERATED_free       00039edc f   libeay32:tasn_typ.obj
 0001:00028ef4       ASN1_BIT_STRING_it         00039ef4 f   libeay32:tasn_typ.obj
 0001:00028f00       ASN1_BIT_STRING_new        00039f00 f   libeay32:tasn_typ.obj
 0001:00028f18       ASN1_BIT_STRING_free       00039f18 f   libeay32:tasn_typ.obj
 0001:00028f30       ASN1_OCTET_STRING_it       00039f30 f   libeay32:tasn_typ.obj
 0001:00028f3c       i2d_ASN1_OCTET_STRING      00039f3c f   libeay32:tasn_typ.obj
 0001:00028f54       ASN1_OCTET_STRING_new      00039f54 f   libeay32:tasn_typ.obj
 0001:00028f6c       ASN1_OCTET_STRING_free     00039f6c f   libeay32:tasn_typ.obj
 0001:00028f84       ASN1_NULL_it               00039f84 f   libeay32:tasn_typ.obj
 0001:00028f90       ASN1_NULL_new              00039f90 f   libeay32:tasn_typ.obj
 0001:00028fa8       ASN1_OBJECT_it             00039fa8 f   libeay32:tasn_typ.obj
 0001:00028fb4       ASN1_UTF8STRING_it         00039fb4 f   libeay32:tasn_typ.obj
 0001:00028fc0       ASN1_IA5STRING_it          00039fc0 f   libeay32:tasn_typ.obj
 0001:00028fcc       ASN1_GENERALIZEDTIME_it    00039fcc f   libeay32:tasn_typ.obj
 0001:00028fd8       ASN1_ANY_it                00039fd8 f   libeay32:tasn_typ.obj
 0001:00028fe4       ASN1_SEQUENCE_it           00039fe4 f   libeay32:tasn_typ.obj
 0001:00028ff0       d2i_ASN1_TYPE              00039ff0 f   libeay32:tasn_typ.obj
 0001:00029008       i2d_ASN1_TYPE              0003a008 f   libeay32:tasn_typ.obj
 0001:00029020       ASN1_TYPE_new              0003a020 f   libeay32:tasn_typ.obj
 0001:00029038       ASN1_TYPE_free             0003a038 f   libeay32:tasn_typ.obj
 0001:00029050       ASN1_PRINTABLE_it          0003a050 f   libeay32:tasn_typ.obj
 0001:0002905c       DISPLAYTEXT_it             0003a05c f   libeay32:tasn_typ.obj
 0001:00029068       DIRECTORYSTRING_it         0003a068 f   libeay32:tasn_typ.obj
 0001:00029074       ASN1_BOOLEAN_it            0003a074 f   libeay32:tasn_typ.obj
 0001:00029080       ASN1_FBOOLEAN_it           0003a080 f   libeay32:tasn_typ.obj
 0001:0002908c       ASN1_OCTET_STRING_NDEF_it  0003a08c f   libeay32:tasn_typ.obj
 0001:00029098       d2i_ASN1_SEQUENCE_ANY      0003a098 f   libeay32:tasn_typ.obj
 0001:000290b0       i2d_ASN1_SEQUENCE_ANY      0003a0b0 f   libeay32:tasn_typ.obj
 0001:000290c8       i2d_ASN1_SET_ANY           0003a0c8 f   libeay32:tasn_typ.obj
 0001:000290e0       ASN1_INTEGER_cmp           0003a0e0 f   libeay32:a_int.obj
 0001:00029128       i2c_ASN1_INTEGER           0003a128 f   libeay32:a_int.obj
 0001:0002927c       c2i_ASN1_INTEGER           0003a27c f   libeay32:a_int.obj
 0001:00029440       d2i_ASN1_UINTEGER          0003a440 f   libeay32:a_int.obj
 0001:000295b0       ASN1_INTEGER_set           0003a5b0 f   libeay32:a_int.obj
 0001:000296b8       ASN1_INTEGER_get           0003a6b8 f   libeay32:a_int.obj
 0001:0002974c       BN_to_ASN1_INTEGER         0003a74c f   libeay32:a_int.obj
 0001:00029874       ASN1_INTEGER_to_BN         0003a874 f   libeay32:a_int.obj
 0001:000298ec       BN_BLINDING_free           0003a8ec f   libeay32:bn_blind.obj
 0001:00029948       BN_BLINDING_invert_ex      0003a948 f   libeay32:bn_blind.obj
 0001:000299cc       BN_BLINDING_thread_id      0003a9cc f   libeay32:bn_blind.obj
 0001:000299d4       BN_BLINDING_new            0003a9d4 f   libeay32:bn_blind.obj
 0001:00029ac8       BN_BLINDING_create_param   0003aac8 f   libeay32:bn_blind.obj
 0001:00029ca4       BN_BLINDING_update         0003aca4 f   libeay32:bn_blind.obj
 0001:00029db8       BN_BLINDING_convert_ex     0003adb8 f   libeay32:bn_blind.obj
 0001:00029e88       ASN1_tag2bit               0003ae88 f   libeay32:tasn_dec.obj
 0001:00029ea0       asn1_ex_c2i                0003aea0 f   libeay32:tasn_dec.obj
 0001:0002ad78       ASN1_item_ex_d2i           0003bd78 f   libeay32:tasn_dec.obj
 0001:0002bb4c       ASN1_item_d2i              0003cb4c f   libeay32:tasn_dec.obj
 0001:0002befc       asn1_ex_i2c                0003cefc f   libeay32:tasn_enc.obj
 0001:0002c1e8       ASN1_item_ex_i2d           0003d1e8 f   libeay32:tasn_enc.obj
 0001:0002c8c0       ASN1_item_i2d              0003d8c0 f   libeay32:tasn_enc.obj
 0001:0002c8d4       ASN1_primitive_new         0003d8d4 f   libeay32:tasn_new.obj
 0001:0002ce10       ASN1_item_ex_new           0003de10 f   libeay32:tasn_new.obj
 0001:0002ce24       ASN1_template_new          0003de24 f   libeay32:tasn_new.obj
 0001:0002cefc       ASN1_item_new              0003defc f   libeay32:tasn_new.obj
 0001:0002cf34       ASN1_primitive_free        0003df34 f   libeay32:tasn_fre.obj
 0001:0002d2a8       ASN1_template_free         0003e2a8 f   libeay32:tasn_fre.obj
 0001:0002d35c       ASN1_item_free             0003e35c f   libeay32:tasn_fre.obj
 0001:0002d37c       ASN1_item_ex_free          0003e37c f   libeay32:tasn_fre.obj
 0001:0002d390       EC_GROUP_get_basis_type    0003e390 f   libeay32:ec_asn1.obj
 0001:0002d408       EC_GROUP_get_trinomial_basis 0003e408 f   libeay32:ec_asn1.obj
 0001:0002d49c       EC_GROUP_get_pentanomial_basis 0003e49c f   libeay32:ec_asn1.obj
 0001:0002d568       X9_62_PENTANOMIAL_it       0003e568 f   libeay32:ec_asn1.obj
 0001:0002d580       X9_62_CHARACTERISTIC_TWO_it 0003e580 f   libeay32:ec_asn1.obj
 0001:0002d598       X9_62_FIELDID_it           0003e598 f   libeay32:ec_asn1.obj
 0001:0002d5a4       X9_62_CURVE_it             0003e5a4 f   libeay32:ec_asn1.obj
 0001:0002d5b0       ECPARAMETERS_it            0003e5b0 f   libeay32:ec_asn1.obj
 0001:0002d5bc       ECPKPARAMETERS_it          0003e5bc f   libeay32:ec_asn1.obj
 0001:0002eabc       d2i_ECPKParameters         0003fabc f   libeay32:ec_asn1.obj
 0001:0002eb88       i2d_ECPKParameters         0003fb88 f   libeay32:ec_asn1.obj
 0001:0002ec2c       d2i_ECPrivateKey           0003fc2c f   libeay32:ec_asn1.obj
 0001:0002eee8       i2d_ECPrivateKey           0003fee8 f   libeay32:ec_asn1.obj
 0001:0002f26c       i2d_ECParameters           0004026c f   libeay32:ec_asn1.obj
 0001:0002f2bc       d2i_ECParameters           000402bc f   libeay32:ec_asn1.obj
 0001:0002f3a0       o2i_ECPublicKey            000403a0 f   libeay32:ec_asn1.obj
 0001:0002f4b4       i2o_ECPublicKey            000404b4 f   libeay32:ec_asn1.obj
 0001:0002f618       X509_PUBKEY_it             00040618 f   libeay32:x_pubkey.obj
 0001:0002f624       X509_PUBKEY_get            00040624 f   libeay32:x_pubkey.obj
 0001:0002f7d4       X509_PUBKEY_set0_param     000407d4 f   libeay32:x_pubkey.obj
 0001:0002f854       X509_PUBKEY_get0_param     00040854 f   libeay32:x_pubkey.obj
 0001:0002f8e0       PKCS8_PRIV_KEY_INFO_it     000408e0 f   libeay32:p8_pkey.obj
 0001:0002f8ec       PKCS8_pkey_set0            000408ec f   libeay32:p8_pkey.obj
 0001:0002f99c       PKCS8_pkey_get0            0004099c f   libeay32:p8_pkey.obj
 0001:0002fb84       ECPKParameters_print       00040b84 f   libeay32:eck_prn.obj
 0001:0003016c       ASN1_bn_print              0004116c f   libeay32:t_pkey.obj
 0001:00030360       EC_POINT_point2bn          00041360 f   libeay32:ec_print.obj
 0001:0003040c       PKCS7_ctrl                 0004140c f   libeay32:pk7_lib.obj
 0001:00030530       PKCS7_SIGNER_INFO_get0_algs 00041530 f   libeay32:pk7_lib.obj
 0001:00030560       PKCS7_RECIP_INFO_get0_alg  00041560 f   libeay32:pk7_lib.obj
 0001:00030570       PKCS7_stream               00041570 f   libeay32:pk7_lib.obj
 0001:0003081c       CMS_SignerInfo_get0_algs   0004181c f   libeay32:cms_sd.obj
 0001:0003085c       CMS_SignerInfo_sign        0004185c f   libeay32:cms_sd.obj
 0001:00030aa8       cms_SignedData_init_bio    00041aa8 f   libeay32:cms_sd.obj
 0001:00030d0c       cms_SignedData_final       00041d0c f   libeay32:cms_sd.obj
 0001:00030d9c       BN_mod_exp_recp            00041d9c f   libeay32:bn_exp.obj
 0001:000311a8       BN_mod_exp_mont_consttime  000421a8 f   libeay32:bn_exp.obj
 0001:0003174c       BN_mod_exp_mont_word       0004274c f   libeay32:bn_exp.obj
 0001:00031b6c       BN_mod_exp_mont            00042b6c f   libeay32:bn_exp.obj
 0001:00031fcc       BN_mod_exp                 00042fcc f   libeay32:bn_exp.obj
 0001:0003208c       X509_signature_dump        0004308c f   libeay32:t_x509.obj
 0001:00032178       ASN1_STRING_print          00043178 f   libeay32:t_x509.obj
 0001:0003224c       ASN1_GENERALIZEDTIME_print 0004324c f   libeay32:t_x509.obj
 0001:00032468       X509_NAME_print            00043468 f   libeay32:t_x509.obj
 0001:00032598       DSA_do_sign                00043598 f   libeay32:dsa_sign.obj
 0001:000325b4       DSA_sign_setup             000435b4 f   libeay32:dsa_sign.obj
 0001:000325d0       DSA_SIG_new                000435d0 f   libeay32:dsa_sign.obj
 0001:00032608       DSA_SIG_free               00043608 f   libeay32:dsa_sign.obj
 0001:000326a0       d2i_DHparams               000436a0 f   libeay32:dh_asn1.obj
 0001:000326b8       i2d_DHparams               000436b8 f   libeay32:dh_asn1.obj
 0001:0003272c       RSA_PSS_PARAMS_it          0004372c f   libeay32:rsa_asn1.obj
 0001:00032738       d2i_RSA_PSS_PARAMS         00043738 f   libeay32:rsa_asn1.obj
 0001:00032750       RSA_PSS_PARAMS_new         00043750 f   libeay32:rsa_asn1.obj
 0001:00032768       RSA_PSS_PARAMS_free        00043768 f   libeay32:rsa_asn1.obj
 0001:00032780       d2i_RSAPrivateKey          00043780 f   libeay32:rsa_asn1.obj
 0001:00032798       i2d_RSAPrivateKey          00043798 f   libeay32:rsa_asn1.obj
 0001:000327b0       d2i_RSAPublicKey           000437b0 f   libeay32:rsa_asn1.obj
 0001:000327c8       i2d_RSAPublicKey           000437c8 f   libeay32:rsa_asn1.obj
 0001:000327e0       i2a_ASN1_INTEGER           000437e0 f   libeay32:f_int.obj
 0001:00032aa4       EVP_DigestSignInit         00043aa4 f   libeay32:m_sigver.obj
 0001:00032acc       EVP_DigestVerifyInit       00043acc f   libeay32:m_sigver.obj
 0001:00032af4       EVP_DigestSignFinal        00043af4 f   libeay32:m_sigver.obj
 0001:00032c34       EVP_DigestVerifyFinal      00043c34 f   libeay32:m_sigver.obj
 0001:00032d08       ASN1_item_pack             00043d08 f   libeay32:asn_pack.obj
 0001:00032df8       EVP_CIPHER_CTX_init        00043df8 f   libeay32:evp_enc.obj
 0001:00032e10       EVP_EncryptUpdate          00043e10 f   libeay32:evp_enc.obj
 0001:00033000       EVP_EncryptFinal_ex        00044000 f   libeay32:evp_enc.obj
 0001:0003312c       EVP_DecryptUpdate          0004412c f   libeay32:evp_enc.obj
 0001:000332a8       EVP_DecryptFinal_ex        000442a8 f   libeay32:evp_enc.obj
 0001:00033480       EVP_CIPHER_CTX_cleanup     00044480 f   libeay32:evp_enc.obj
 0001:0003350c       EVP_CIPHER_CTX_set_padding 0004450c f   libeay32:evp_enc.obj
 0001:00033528       EVP_CIPHER_CTX_ctrl        00044528 f   libeay32:evp_enc.obj
 0001:000335d8       EVP_CIPHER_CTX_rand_key    000445d8 f   libeay32:evp_enc.obj
 0001:0003362c       EVP_CIPHER_CTX_copy        0004462c f   libeay32:evp_enc.obj
 0001:0003377c       EVP_CipherInit_ex          0004477c f   libeay32:evp_enc.obj
 0001:00033adc       EVP_CipherUpdate           00044adc f   libeay32:evp_enc.obj
 0001:00033b20       EVP_CipherFinal_ex         00044b20 f   libeay32:evp_enc.obj
 0001:00033b48       EVP_EncryptInit_ex         00044b48 f   libeay32:evp_enc.obj
 0001:00033b70       EVP_DecryptInit_ex         00044b70 f   libeay32:evp_enc.obj
 0001:00033b98       EVP_CIPHER_CTX_set_key_length 00044b98 f   libeay32:evp_enc.obj
 0001:00033c20       ASN1_ENUMERATED_get        00044c20 f   libeay32:a_enum.obj
 0001:00033cb4       ASN1_ENUMERATED_to_BN      00044cb4 f   libeay32:a_enum.obj
 0001:00033d28       X509_NAME_entry_count      00044d28 f   libeay32:x509name.obj
 0001:00033d4c       X509_NAME_get_index_by_OBJ 00044d4c f   libeay32:x509name.obj
 0001:00033db8       X509_NAME_get_entry        00044db8 f   libeay32:x509name.obj
 0001:00033e00       X509_NAME_delete_entry     00044e00 f   libeay32:x509name.obj
 0001:00033ed4       X509_NAME_add_entry        00044ed4 f   libeay32:x509name.obj
 0001:00034040       X509_NAME_ENTRY_set_object 00045040 f   libeay32:x509name.obj
 0001:000340b4       X509_NAME_ENTRY_set_data   000450b4 f   libeay32:x509name.obj
 0001:00034194       X509_NAME_ENTRY_get_object 00045194 f   libeay32:x509name.obj
 0001:000341a4       X509_NAME_ENTRY_get_data   000451a4 f   libeay32:x509name.obj
 0001:000341b4       X509_NAME_get_index_by_NID 000451b4 f   libeay32:x509name.obj
 0001:000341f0       X509_NAME_ENTRY_create_by_OBJ 000451f0 f   libeay32:x509name.obj
 0001:0003429c       X509_NAME_ENTRY_create_by_txt 0004529c f   libeay32:x509name.obj
 0001:00034340       X509_NAME_add_entry_by_txt 00045340 f   libeay32:x509name.obj
 0001:00034398       ACCESS_DESCRIPTION_it      00045398 f   libeay32:v3_info.obj
 0001:000343a4       ACCESS_DESCRIPTION_free    000453a4 f   libeay32:v3_info.obj
 0001:000343bc       AUTHORITY_INFO_ACCESS_it   000453bc f   libeay32:v3_info.obj
 0001:00034710       X509_CRL_get_ext_d2i       00045710 f   libeay32:x509_ext.obj
 0001:00034728       X509_get_ext_count         00045728 f   libeay32:x509_ext.obj
 0001:00034740       X509_get_ext_by_NID        00045740 f   libeay32:x509_ext.obj
 0001:00034758       X509_get_ext               00045758 f   libeay32:x509_ext.obj
 0001:00034770       X509_get_ext_d2i           00045770 f   libeay32:x509_ext.obj
 0001:00034788       X509_REVOKED_get_ext_d2i   00045788 f   libeay32:x509_ext.obj
 0001:0003479c       CONF_parse_list            0004579c f   libeay32:conf_mod.obj
 0001:000348c8       OTHERNAME_it               000458c8 f   libeay32:v3_genn.obj
 0001:000348d4       OTHERNAME_new              000458d4 f   libeay32:v3_genn.obj
 0001:000348ec       EDIPARTYNAME_it            000458ec f   libeay32:v3_genn.obj
 0001:000348f8       GENERAL_NAME_it            000458f8 f   libeay32:v3_genn.obj
 0001:00034904       GENERAL_NAME_new           00045904 f   libeay32:v3_genn.obj
 0001:0003491c       GENERAL_NAME_free          0004591c f   libeay32:v3_genn.obj
 0001:00034934       GENERAL_NAMES_it           00045934 f   libeay32:v3_genn.obj
 0001:00034940       GENERAL_NAMES_new          00045940 f   libeay32:v3_genn.obj
 0001:00034958       GENERAL_NAMES_free         00045958 f   libeay32:v3_genn.obj
 0001:00034970       X509_get_issuer_name       00045970 f   libeay32:x509_cmp.obj
 0001:0003497c       X509_get_subject_name      0004597c f   libeay32:x509_cmp.obj
 0001:00034988       X509_get_serialNumber      00045988 f   libeay32:x509_cmp.obj
 0001:00034994       X509_NAME_cmp              00045994 f   libeay32:x509_cmp.obj
 0001:00034a24       X509_get_pubkey            00045a24 f   libeay32:x509_cmp.obj
 0001:00034a58       X509_EXTENSION_it          00045a58 f   libeay32:x_exten.obj
 0001:00034a7c       X509V3_EXT_get_nid         00045a7c f   libeay32:v3_lib.obj
 0001:00034b0c       X509V3_EXT_d2i             00045b0c f   libeay32:v3_lib.obj
 0001:00034b9c       X509V3_get_d2i             00045b9c f   libeay32:v3_lib.obj
 0001:00034c98       d2i_ECDSA_SIG              00045c98 f   libeay32:ecs_asn1.obj
 0001:00034cb0       i2d_ECDSA_SIG              00045cb0 f   libeay32:ecs_asn1.obj
 0001:00034cc8       ECDSA_SIG_new              00045cc8 f   libeay32:ecs_asn1.obj
 0001:00034ce0       ECDSA_SIG_free             00045ce0 f   libeay32:ecs_asn1.obj
 0001:00034cf8       ECDSA_OpenSSL              00045cf8 f   libeay32:ecs_ossl.obj
 0001:000359bc       ENGINE_get_default_ECDSA   000469bc f   libeay32:tb_ecdsa.obj
 0001:000359d8       ENGINE_get_ECDSA           000469d8 f   libeay32:tb_ecdsa.obj
 0001:000359e0       BIGNUM_it                  000469e0 f   libeay32:x_bignum.obj
 0001:000359ec       CBIGNUM_it                 000469ec f   libeay32:x_bignum.obj
 0001:00035b2c       LONG_it                    00046b2c f   libeay32:x_long.obj
 0001:00035b38       ZLONG_it                   00046b38 f   libeay32:x_long.obj
 0001:00035d2c       ASN1_item_dup              00046d2c f   libeay32:a_dup.obj
 0001:00035dc0       DSA_do_verify              00046dc0 f   libeay32:dsa_vrf.obj
 0001:00035ddc       DSA_OpenSSL                00046ddc f   libeay32:dsa_ossl.obj
 0001:00036624       ENGINE_get_default_DSA     00047624 f   libeay32:tb_dsa.obj
 0001:00036640       ENGINE_get_DSA             00047640 f   libeay32:tb_dsa.obj
 0001:00036648       BN_GENCB_call              00047648 f   libeay32:bn_prime.obj
 0001:00036aac       BN_is_prime_fasttest_ex    00047aac f   libeay32:bn_prime.obj
 0001:00036ea0       BN_generate_prime_ex       00047ea0 f   libeay32:bn_prime.obj
 0001:00037208       ENGINE_get_default_DH      00048208 f   libeay32:tb_dh.obj
 0001:00037224       ENGINE_get_DH              00048224 f   libeay32:tb_dh.obj
 0001:0003722c       DH_check_pub_key           0004822c f   libeay32:dh_check.obj
 0001:000372c8       PKCS1_MGF1                 000482c8 f   libeay32:rsa_oaep.obj
 0001:000373f0       RSA_padding_add_PKCS1_OAEP 000483f0 f   libeay32:rsa_oaep.obj
 0001:000375e8       RSA_padding_check_PKCS1_OAEP 000485e8 f   libeay32:rsa_oaep.obj
 0001:00037858       CMS_IssuerAndSerialNumber_it 00048858 f   libeay32:cms_asn1.obj
 0001:00037864       CMS_OtherCertificateFormat_it 00048864 f   libeay32:cms_asn1.obj
 0001:00037870       CMS_CertificateChoices_it  00048870 f   libeay32:cms_asn1.obj
 0001:0003787c       CMS_SignerIdentifier_it    0004887c f   libeay32:cms_asn1.obj
 0001:00037888       CMS_EncapsulatedContentInfo_it 00048888 f   libeay32:cms_asn1.obj
 0001:000378d0       CMS_SignerInfo_it          000488d0 f   libeay32:cms_asn1.obj
 0001:000378dc       CMS_OtherRevocationInfoFormat_it 000488dc f   libeay32:cms_asn1.obj
 0001:000378e8       CMS_RevocationInfoChoice_it 000488e8 f   libeay32:cms_asn1.obj
 0001:000378f4       CMS_SignedData_it          000488f4 f   libeay32:cms_asn1.obj
 0001:00037900       CMS_OriginatorInfo_it      00048900 f   libeay32:cms_asn1.obj
 0001:0003790c       CMS_EncryptedContentInfo_it 0004890c f   libeay32:cms_asn1.obj
 0001:00037918       CMS_KeyTransRecipientInfo_it 00048918 f   libeay32:cms_asn1.obj
 0001:00037924       CMS_OtherKeyAttribute_it   00048924 f   libeay32:cms_asn1.obj
 0001:00037930       CMS_RecipientKeyIdentifier_it 00048930 f   libeay32:cms_asn1.obj
 0001:0003793c       CMS_KeyAgreeRecipientIdentifier_it 0004893c f   libeay32:cms_asn1.obj
 0001:00037948       CMS_RecipientEncryptedKey_it 00048948 f   libeay32:cms_asn1.obj
 0001:00037954       CMS_OriginatorPublicKey_it 00048954 f   libeay32:cms_asn1.obj
 0001:00037960       CMS_OriginatorIdentifierOrKey_it 00048960 f   libeay32:cms_asn1.obj
 0001:0003796c       CMS_KeyAgreeRecipientInfo_it 0004896c f   libeay32:cms_asn1.obj
 0001:00037978       CMS_KEKIdentifier_it       00048978 f   libeay32:cms_asn1.obj
 0001:00037984       CMS_KEKRecipientInfo_it    00048984 f   libeay32:cms_asn1.obj
 0001:00037990       CMS_PasswordRecipientInfo_it 00048990 f   libeay32:cms_asn1.obj
 0001:0003799c       CMS_OtherRecipientInfo_it  0004899c f   libeay32:cms_asn1.obj
 0001:00037a30       CMS_RecipientInfo_it       00048a30 f   libeay32:cms_asn1.obj
 0001:00037a3c       CMS_EnvelopedData_it       00048a3c f   libeay32:cms_asn1.obj
 0001:00037a48       CMS_DigestedData_it        00048a48 f   libeay32:cms_asn1.obj
 0001:00037a54       CMS_EncryptedData_it       00048a54 f   libeay32:cms_asn1.obj
 0001:00037a60       CMS_AuthenticatedData_it   00048a60 f   libeay32:cms_asn1.obj
 0001:00037a6c       CMS_CompressedData_it      00048a6c f   libeay32:cms_asn1.obj
 0001:00037b10       CMS_Attributes_Sign_it     00048b10 f   libeay32:cms_asn1.obj
 0001:00037b1c       CMS_ReceiptsFrom_it        00048b1c f   libeay32:cms_asn1.obj
 0001:00037b28       CMS_get0_content           00048b28 f   libeay32:cms_lib.obj
 0001:00037c18       cms_DigestAlgorithm_init_bio 00048c18 f   libeay32:cms_lib.obj
 0001:00037ce0       cms_DigestAlgorithm_find_ctx 00048ce0 f   libeay32:cms_lib.obj
 0001:00037db0       cms_content_bio            00048db0 f   libeay32:cms_lib.obj
 0001:00037e0c       CMS_dataInit               00048e0c f   libeay32:cms_lib.obj
 0001:00037f10       CMS_dataFinal              00048f10 f   libeay32:cms_lib.obj
 0001:00038078       cms_EncryptedContent_init_bio 00049078 f   libeay32:cms_enc.obj
 0001:00038438       cms_EncryptedData_init_bio 00049438 f   libeay32:cms_enc.obj
 0001:00038468       X509_PURPOSE_get0          00049468 f   libeay32:v3_purp.obj
 0001:000384b4       X509_PURPOSE_get_by_id     000494b4 f   libeay32:v3_purp.obj
 0001:0003851c       X509_supported_extension   0004951c f   libeay32:v3_purp.obj
 0001:00038f94       X509_check_purpose         00049f94 f   libeay32:v3_purp.obj
 0001:0003902c       EVP_PKEY_sign_init         0004a02c f   libeay32:pmeth_fn.obj
 0001:000390bc       EVP_PKEY_sign              0004a0bc f   libeay32:pmeth_fn.obj
 0001:000391d0       EVP_PKEY_verify_init       0004a1d0 f   libeay32:pmeth_fn.obj
 0001:00039260       EVP_PKEY_verify            0004a260 f   libeay32:pmeth_fn.obj
 0001:00039304       EVP_PKEY_encrypt_init      0004a304 f   libeay32:pmeth_fn.obj
 0001:00039394       EVP_PKEY_encrypt           0004a394 f   libeay32:pmeth_fn.obj
 0001:000394a8       AES_wrap_key               0004a4a8 f   libeay32:aes_wrap.obj
 0001:000395c4       AES_set_encrypt_key        0004a5c4 f   libeay32:aes_misc.obj
 0001:00039854       cms_RecipientInfo_pwri_crypt 0004a854 f   libeay32:cms_pwri.obj
 0001:00039bc4       RSA_PKCS1_SSLeay           0004abc4 f   libeay32:rsa_eay.obj
 0001:0003b3e4       ENGINE_get_default_RSA     0004c3e4 f   libeay32:tb_rsa.obj
 0001:0003b400       ENGINE_get_RSA             0004c400 f   libeay32:tb_rsa.obj
 0001:0003b408       PKCS5_PBKDF2_HMAC          0004c408 f   libeay32:p5_crpt2.obj
 0001:0003b5d0       PKCS5_v2_PBKDF2_keyivgen   0004c5d0 f   libeay32:p5_crpt2.obj
 0001:0003b870       PKCS5_v2_PBE_keyivgen      0004c870 f   libeay32:p5_crpt2.obj
 0001:0003ba2c       PKCS12_PBE_keyivgen        0004ca2c f   libeay32:p12_crpt.obj
 0001:0003bc20       PKCS5_PBE_keyivgen         0004cc20 f   libeay32:p5_crpt.obj
 0001:0003bed8       BUF_MEM_new                0004ced8 f   libeay32:buffer.obj
 0001:0003bf3c       BUF_MEM_free               0004cf3c f   libeay32:buffer.obj
 0001:0003bf7c       BUF_MEM_grow               0004cf7c f   libeay32:buffer.obj
 0001:0003c084       BUF_MEM_grow_clean         0004d084 f   libeay32:buffer.obj
 0001:0003c1a0       ASN1_BIT_STRING_set        0004d1a0 f   libeay32:a_bitstr.obj
 0001:0003c1b0       i2c_ASN1_BIT_STRING        0004d1b0 f   libeay32:a_bitstr.obj
 0001:0003c2b4       c2i_ASN1_BIT_STRING        0004d2b4 f   libeay32:a_bitstr.obj
 0001:0003c3f8       ASN1_BIT_STRING_set_bit    0004d3f8 f   libeay32:a_bitstr.obj
 0001:0003c548       ASN1_BIT_STRING_get_bit    0004d548 f   libeay32:a_bitstr.obj
 0001:0003c5a4       asn1_get_choice_selector   0004d5a4 f   libeay32:tasn_utl.obj
 0001:0003c5b4       asn1_set_choice_selector   0004d5b4 f   libeay32:tasn_utl.obj
 0001:0003c5d0       asn1_do_lock               0004d5d0 f   libeay32:tasn_utl.obj
 0001:0003c654       asn1_enc_init              0004d654 f   libeay32:tasn_utl.obj
 0001:0003c6ac       asn1_enc_free              0004d6ac f   libeay32:tasn_utl.obj
 0001:0003c720       asn1_enc_save              0004d720 f   libeay32:tasn_utl.obj
 0001:0003c7cc       asn1_enc_restore           0004d7cc f   libeay32:tasn_utl.obj
 0001:0003c874       asn1_get_field_ptr         0004d874 f   libeay32:tasn_utl.obj
 0001:0003c88c       asn1_do_adb                0004d88c f   libeay32:tasn_utl.obj
 0001:0003c984       EC_POINT_set_compressed_coordinates_GFp 0004d984 f   libeay32:ec_oct.obj
 0001:0003ca7c       EC_POINT_set_compressed_coordinates_GF2m 0004da7c f   libeay32:ec_oct.obj
 0001:0003cb74       EC_POINT_point2oct         0004db74 f   libeay32:ec_oct.obj
 0001:0003cc84       EC_POINT_oct2point         0004dc84 f   libeay32:ec_oct.obj
 0001:0003ce0c       PKCS7_it                   0004de0c f   libeay32:pk7_asn1.obj
 0001:0003ce18       PKCS7_SIGNED_it            0004de18 f   libeay32:pk7_asn1.obj
 0001:0003ce44       PKCS7_SIGNER_INFO_it       0004de44 f   libeay32:pk7_asn1.obj
 0001:0003ce50       PKCS7_ISSUER_AND_SERIAL_it 0004de50 f   libeay32:pk7_asn1.obj
 0001:0003ce5c       PKCS7_ENVELOPE_it          0004de5c f   libeay32:pk7_asn1.obj
 0001:0003ce88       PKCS7_RECIP_INFO_it        0004de88 f   libeay32:pk7_asn1.obj
 0001:0003ce94       PKCS7_ENC_CONTENT_it       0004de94 f   libeay32:pk7_asn1.obj
 0001:0003cea0       PKCS7_SIGN_ENVELOPE_it     0004dea0 f   libeay32:pk7_asn1.obj
 0001:0003ceac       PKCS7_ENCRYPT_it           0004deac f   libeay32:pk7_asn1.obj
 0001:0003ceb8       PKCS7_DIGEST_it            0004deb8 f   libeay32:pk7_asn1.obj
 0001:0003cec4       PKCS7_ATTR_SIGN_it         0004dec4 f   libeay32:pk7_asn1.obj
 0001:0003ced0       X509_CINF_it               0004ded0 f   libeay32:x_x509.obj
 0001:0003cfcc       X509_it                    0004dfcc f   libeay32:x_x509.obj
 0001:0003cfd8       X509_free                  0004dfd8 f   libeay32:x_x509.obj
 0001:0003cff0       X509_REVOKED_it            0004dff0 f   libeay32:x_crl.obj
 0001:0003cffc       X509_CRL_INFO_it           0004dffc f   libeay32:x_crl.obj
 0001:0003d28c       X509_CRL_it                0004e28c f   libeay32:x_crl.obj
 0001:0003d70c       X509_NAME_ENTRY_it         0004e70c f   libeay32:x_name.obj
 0001:0003d718       X509_NAME_ENTRY_new        0004e718 f   libeay32:x_name.obj
 0001:0003d730       X509_NAME_ENTRY_free       0004e730 f   libeay32:x_name.obj
 0001:0003d748       X509_NAME_ENTRY_dup        0004e748 f   libeay32:x_name.obj
 0001:0003d764       X509_NAME_ENTRIES_it       0004e764 f   libeay32:x_name.obj
 0001:0003d770       X509_NAME_it               0004e770 f   libeay32:x_name.obj
 0001:0003d77c       i2d_X509_NAME              0004e77c f   libeay32:x_name.obj
 0001:0003d794       X509_NAME_new              0004e794 f   libeay32:x_name.obj
 0001:0003d7ac       X509_NAME_free             0004e7ac f   libeay32:x_name.obj
 0001:0003d7c4       X509_NAME_dup              0004e7c4 f   libeay32:x_name.obj
 0001:0003e050       ASN1_TIME_it               0004f050 f   libeay32:a_time.obj
 0001:0003e05c       ASN1_TIME_free             0004f05c f   libeay32:a_time.obj
 0001:0003e074       ASN1_TIME_adj              0004f074 f   libeay32:a_time.obj
 0001:0003e144       ASN1_TIME_check            0004f144 f   libeay32:a_time.obj
 0001:0003e180       CMS_signed_get_attr_count  0004f180 f   libeay32:cms_att.obj
 0001:0003e194       CMS_signed_get_attr_by_NID 0004f194 f   libeay32:cms_att.obj
 0001:0003e1a8       CMS_signed_add1_attr_by_NID 0004f1a8 f   libeay32:cms_att.obj
 0001:0003e1d8       X509_time_adj_ex           0004f1d8 f   libeay32:x509_vfy.obj
 0001:0003e274       X509_gmtime_adj            0004f274 f   libeay32:x509_vfy.obj
 0001:0003e290       EVP_SignFinal              0004f290 f   libeay32:p_sign.obj
 0001:0003e45c       BN_RECP_CTX_init           0004f45c f   libeay32:bn_recp.obj
 0001:0003e484       BN_RECP_CTX_free           0004f484 f   libeay32:bn_recp.obj
 0001:0003e4b8       BN_RECP_CTX_set            0004f4b8 f   libeay32:bn_recp.obj
 0001:0003e504       BN_reciprocal              0004f504 f   libeay32:bn_recp.obj
 0001:0003e584       BN_div_recp                0004f584 f   libeay32:bn_recp.obj
 0001:0003e7e0       BN_mod_mul_reciprocal      0004f7e0 f   libeay32:bn_recp.obj
 0001:0003e88c       X509_NAME_oneline          0004f88c f   libeay32:x509_obj.obj
 0001:0003f744       X509_NAME_print_ex         00050744 f   libeay32:a_strex.obj
 0001:0003f788       ASN1_STRING_to_UTF8        00050788 f   libeay32:a_strex.obj
 0001:0003f818       ENGINE_get_cipher_engine   00050818 f   libeay32:tb_cipher.obj
 0001:0003f834       ENGINE_get_cipher          00050834 f   libeay32:tb_cipher.obj
 0001:0003f898       ASN1_PRINTABLE_type        00050898 f   libeay32:a_print.obj
 0001:0003f9ac       ASN1_STRING_TABLE_get      000509ac f   libeay32:a_strnid.obj
 0001:0003fa28       ASN1_STRING_set_by_NID     00050a28 f   libeay32:a_strnid.obj
 0001:0003fae8       i2v_GENERAL_NAME           00050ae8 f   libeay32:v3_alt.obj
 0001:0003fcb8       GENERAL_NAME_print         00050cb8 f   libeay32:v3_alt.obj
 0001:000402bc       i2v_GENERAL_NAMES          000512bc f   libeay32:v3_alt.obj
 0001:00040330       a2i_GENERAL_NAME           00051330 f   libeay32:v3_alt.obj
 0001:000405b8       v2i_GENERAL_NAME_ex        000515b8 f   libeay32:v3_alt.obj
 0001:0004072c       v2i_GENERAL_NAME           0005172c f   libeay32:v3_alt.obj
 0001:000409e8       v2i_GENERAL_NAMES          000519e8 f   libeay32:v3_alt.obj
 0001:00040ab8       X509v3_get_ext_count       00051ab8 f   libeay32:x509_v3.obj
 0001:00040ad8       X509v3_get_ext_by_OBJ      00051ad8 f   libeay32:x509_v3.obj
 0001:00040b3c       X509v3_get_ext             00051b3c f   libeay32:x509_v3.obj
 0001:00040b84       X509_EXTENSION_get_object  00051b84 f   libeay32:x509_v3.obj
 0001:00040b94       X509_EXTENSION_get_critical 00051b94 f   libeay32:x509_v3.obj
 0001:00040bb4       X509v3_get_ext_by_NID      00051bb4 f   libeay32:x509_v3.obj
 0001:00040bf0       DSO_convert_filename       00051bf0 f   libeay32:dso_lib.obj
 0001:00040d30       CONF_set_nconf             00051d30 f   libeay32:conf_lib.obj
 0001:00040d74       NCONF_get_section          00051d74 f   libeay32:conf_lib.obj
 0001:00040df0       NCONF_get_string           00051df0 f   libeay32:conf_lib.obj
 0001:00040e88       CONF_get_section           00051e88 f   libeay32:conf_lib.obj
 0001:00040ec4       CONF_get_string            00051ec4 f   libeay32:conf_lib.obj
 0001:00040f08       CONF_free                  00051f08 f   libeay32:conf_lib.obj
 0001:00041258       DIST_POINT_NAME_it         00052258 f   libeay32:v3_crld.obj
 0001:00041264       DIST_POINT_it              00052264 f   libeay32:v3_crld.obj
 0001:00041270       DIST_POINT_free            00052270 f   libeay32:v3_crld.obj
 0001:00041288       CRL_DIST_POINTS_it         00052288 f   libeay32:v3_crld.obj
 0001:00041294       CRL_DIST_POINTS_free       00052294 f   libeay32:v3_crld.obj
 0001:000412ac       ISSUING_DIST_POINT_it      000522ac f   libeay32:v3_crld.obj
 0001:000412b8       ISSUING_DIST_POINT_free    000522b8 f   libeay32:v3_crld.obj
 0001:00041600       DIST_POINT_set_dpname      00052600 f   libeay32:v3_crld.obj
 0001:00041d3c       POLICY_MAPPING_it          00052d3c f   libeay32:v3_pmaps.obj
 0001:00041d48       POLICY_MAPPINGS_it         00052d48 f   libeay32:v3_pmaps.obj
 0001:00041d54       POLICY_MAPPING_free        00052d54 f   libeay32:v3_pmaps.obj
 0001:00041fd8       GENERAL_SUBTREE_it         00052fd8 f   libeay32:v3_ncons.obj
 0001:00041fe4       NAME_CONSTRAINTS_it        00052fe4 f   libeay32:v3_ncons.obj
 0001:00041ff0       NAME_CONSTRAINTS_free      00052ff0 f   libeay32:v3_ncons.obj
 0001:000433a8       POLICY_CONSTRAINTS_it      000543a8 f   libeay32:v3_pcons.obj
 0001:00043568       EXTENDED_KEY_USAGE_it      00054568 f   libeay32:v3_extku.obj
 0001:00043708       SXNETID_it                 00054708 f   libeay32:v3_sxnet.obj
 0001:00043714       SXNET_it                   00054714 f   libeay32:v3_sxnet.obj
 0001:000437f0       SXNET_get_id_INTEGER       000547f0 f   libeay32:v3_sxnet.obj
 0001:00043860       SXNET_add_id_INTEGER       00054860 f   libeay32:v3_sxnet.obj
 0001:00043a08       SXNET_add_id_asc           00054a08 f   libeay32:v3_sxnet.obj
 0001:00043af4       i2s_ASN1_ENUMERATED_TABLE  00054af4 f   libeay32:v3_enum.obj
 0001:00043ee8       CERTIFICATEPOLICIES_it     00054ee8 f   libeay32:v3_cpols.obj
 0001:00043ef4       POLICYINFO_it              00054ef4 f   libeay32:v3_cpols.obj
 0001:00043f00       POLICYINFO_free            00054f00 f   libeay32:v3_cpols.obj
 0001:00043f24       POLICYQUALINFO_it          00054f24 f   libeay32:v3_cpols.obj
 0001:00043f30       POLICYQUALINFO_free        00054f30 f   libeay32:v3_cpols.obj
 0001:00043f48       USERNOTICE_it              00054f48 f   libeay32:v3_cpols.obj
 0001:00043f54       NOTICEREF_it               00054f54 f   libeay32:v3_cpols.obj
 0001:00044be8       BASIC_CONSTRAINTS_it       00055be8 f   libeay32:v3_bcons.obj
 0001:00044bf4       BASIC_CONSTRAINTS_free     00055bf4 f   libeay32:v3_bcons.obj
 0001:00044d98       PKEY_USAGE_PERIOD_it       00055d98 f   libeay32:v3_pku.obj
 0001:00044e54       i2v_ASN1_BIT_STRING        00055e54 f   libeay32:v3_bitst.obj
 0001:00044eb8       v2i_ASN1_BIT_STRING        00055eb8 f   libeay32:v3_bitst.obj
 0001:00045038       i2s_ASN1_OCTET_STRING      00056038 f   libeay32:v3_skey.obj
 0001:00045054       s2i_ASN1_OCTET_STRING      00056054 f   libeay32:v3_skey.obj
 0001:00045380       X509V3_get_section         00056380 f   libeay32:v3_conf.obj
 0001:000453f0       X509V3_section_free        000563f0 f   libeay32:v3_conf.obj
 0001:0004548c       X509_REQ_INFO_it           0005648c f   libeay32:x_req.obj
 0001:00045498       X509_digest                00056498 f   libeay32:x_all.obj
 0001:000454d4       X509_CRL_digest            000564d4 f   libeay32:x_all.obj
 0001:00045510       X509at_get_attr_count      00056510 f   libeay32:x509_att.obj
 0001:00045520       X509at_get_attr_by_OBJ     00056520 f   libeay32:x509_att.obj
 0001:00045584       X509at_add1_attr           00056584 f   libeay32:x509_att.obj
 0001:00045658       X509_ATTRIBUTE_set1_object 00056658 f   libeay32:x509_att.obj
 0001:0004569c       X509_ATTRIBUTE_set1_data   0005669c f   libeay32:x509_att.obj
 0001:00045810       X509at_get_attr_by_NID     00056810 f   libeay32:x509_att.obj
 0001:0004584c       X509_ATTRIBUTE_create_by_OBJ 0005684c f   libeay32:x509_att.obj
 0001:00045920       X509_ATTRIBUTE_create_by_NID 00056920 f   libeay32:x509_att.obj
 0001:000459a4       X509at_add1_attr_by_NID    000569a4 f   libeay32:x509_att.obj
 0001:000459f4       BN_mod_exp2_mont           000569f4 f   libeay32:bn_exp2.obj
 0001:000460a8       CMS_stream                 000570a8 f   libeay32:cms_io.obj
 0001:00046144       BIO_f_md                   00057144 f   libeay32:bio_md.obj
 0001:000464b0       BIO_s_mem                  000574b0 f   libeay32:bss_mem.obj
 0001:000464bc       BIO_new_mem_buf            000574bc f   libeay32:bss_mem.obj
 0001:00046948       BIO_s_null                 00057948 f   libeay32:bss_null.obj
 0001:000469fc       cms_DigestedData_init_bio  000579fc f   libeay32:cms_dd.obj
 0001:00046a14       cms_DigestedData_do_final  00057a14 f   libeay32:cms_dd.obj
 0001:00046b14       BIO_f_cipher               00057b14 f   libeay32:bio_enc.obj
 0001:000470ec       PROXY_POLICY_it            000580ec f   libeay32:v3_pcia.obj
 0001:000470f8       PROXY_CERT_INFO_EXTENSION_it 000580f8 f   libeay32:v3_pcia.obj
 0001:00047104       PROXY_CERT_INFO_EXTENSION_new 00058104 f   libeay32:v3_pcia.obj
 0001:0004711c       PROXY_CERT_INFO_EXTENSION_free 0005811c f   libeay32:v3_pcia.obj
 0001:00047134       private_AES_set_encrypt_key 00058134 f   libeay32:aes_core.obj
 0001:00047718       AES_encrypt                00058718 f   libeay32:aes_core.obj
 0001:00047e9c       d2i_PBE2PARAM              00058e9c f   libeay32:p5_pbev2.obj
 0001:00047eb4       PBE2PARAM_free             00058eb4 f   libeay32:p5_pbev2.obj
 0001:00047ecc       d2i_PBKDF2PARAM            00058ecc f   libeay32:p5_pbev2.obj
 0001:00047ee4       PBKDF2PARAM_free           00058ee4 f   libeay32:p5_pbev2.obj
 0001:00047efc       RSA_padding_add_PKCS1_type_1 00058efc f   libeay32:rsa_pk1.obj
 0001:00047f90       RSA_padding_check_PKCS1_type_1 00058f90 f   libeay32:rsa_pk1.obj
 0001:000480d8       RSA_padding_add_PKCS1_type_2 000590d8 f   libeay32:rsa_pk1.obj
 0001:000481b0       RSA_padding_check_PKCS1_type_2 000591b0 f   libeay32:rsa_pk1.obj
 0001:000482c4       RSA_padding_add_SSLv23     000592c4 f   libeay32:rsa_ssl.obj
 0001:000483ac       RSA_padding_check_SSLv23   000593ac f   libeay32:rsa_ssl.obj
 0001:0004851c       RSA_padding_add_none       0005951c f   libeay32:rsa_none.obj
 0001:0004859c       RSA_padding_check_none     0005959c f   libeay32:rsa_none.obj
 0001:00048618       d2i_PBEPARAM               00059618 f   libeay32:p5_pbe.obj
 0001:00048630       PBEPARAM_free              00059630 f   libeay32:p5_pbe.obj
 0001:00048648       PKCS12_key_gen_uni         00059648 f   libeay32:p12_key.obj
 0001:00048b48       PKCS12_key_gen_asc         00059b48 f   libeay32:p12_key.obj
 0001:00048c20       ec_GF2m_simple_set_compressed_coordinates 00059c20 f   libeay32:ec2_oct.obj
 0001:00048eb4       ec_GF2m_simple_point2oct   00059eb4 f   libeay32:ec2_oct.obj
 0001:00049258       ec_GF2m_simple_oct2point   0005a258 f   libeay32:ec2_oct.obj
 0001:00049604       ec_GFp_simple_set_compressed_coordinates 0005a604 f   libeay32:ecp_oct.obj
 0001:00049a50       ec_GFp_simple_point2oct    0005aa50 f   libeay32:ecp_oct.obj
 0001:00049dc0       ec_GFp_simple_oct2point    0005adc0 f   libeay32:ecp_oct.obj
 0001:0004a3e4       PKCS7_dataInit             0005b3e4 f   libeay32:pk7_doit.obj
 0001:0004a908       PKCS7_SIGNER_INFO_sign     0005b908 f   libeay32:pk7_doit.obj
 0001:0004ac78       PKCS7_add_signed_attribute 0005bc78 f   libeay32:pk7_doit.obj
 0001:0004ad90       PKCS7_dataFinal            0005bd90 f   libeay32:pk7_doit.obj
 0001:0004b1bc       X509_VAL_it                0005c1bc f   libeay32:x_val.obj
 0001:0004b1c8       policy_cache_free          0005c1c8 f   libeay32:pcy_cache.obj
 0001:0004b20c       AUTHORITY_KEYID_it         0005c20c f   libeay32:v3_akeya.obj
 0001:0004b218       AUTHORITY_KEYID_new        0005c218 f   libeay32:v3_akeya.obj
 0001:0004b230       AUTHORITY_KEYID_free       0005c230 f   libeay32:v3_akeya.obj
 0001:0004b248       X509_CERT_AUX_free         0005c248 f   libeay32:x_x509a.obj
 0001:0004b260       ASN1_item_verify           0005c260 f   libeay32:a_verify.obj
 0001:0004b500       ASN1_GENERALIZEDTIME_check 0005c500 f   libeay32:a_gentm.obj
 0001:0004b6dc       ASN1_GENERALIZEDTIME_adj   0005c6dc f   libeay32:a_gentm.obj
 0001:0004b820       ASN1_UTCTIME_check         0005c820 f   libeay32:a_utctm.obj
 0001:0004b9ac       ASN1_UTCTIME_adj           0005c9ac f   libeay32:a_utctm.obj
 0001:0004bb1c       OPENSSL_gmtime             0005cb1c f   libeay32:o_time.obj
 0001:0004bc94       OPENSSL_gmtime_adj         0005cc94 f   libeay32:o_time.obj
 0001:0004c048       ASN1_tag2str               0005d048 f   libeay32:asn1_par.obj
 0001:0004c088       UTF8_getc                  0005d088 f   libeay32:a_utf8.obj
 0001:0004c38c       UTF8_putc                  0005d38c f   libeay32:a_utf8.obj
 0001:0004c878       ASN1_mbstring_ncopy        0005d878 f   libeay32:a_mbstr.obj
 0001:0004cd68       ASN1_mbstring_copy         0005dd68 f   libeay32:a_mbstr.obj
 0001:0004da04       ASN1_generate_v3           0005ea04 f   libeay32:asn1_gen.obj
 0001:0004de34       NCONF_default              0005ee34 f   libeay32:conf_def.obj
 0001:0004edb4       _CONF_get_section          0005fdb4 f   libeay32:conf_api.obj
 0001:0004edfc       _CONF_get_section_values   0005fdfc f   libeay32:conf_api.obj
 0001:0004ee1c       _CONF_add_string           0005fe1c f   libeay32:conf_api.obj
 0001:0004ee94       _CONF_get_string           0005fe94 f   libeay32:conf_api.obj
 0001:0004eff8       _CONF_new_data             0005fff8 f   libeay32:conf_api.obj
 0001:0004f048       _CONF_new_section          00060048 f   libeay32:conf_api.obj
 0001:0004f1b8       _CONF_free_data            000601b8 f   libeay32:conf_api.obj
 0001:0004f20c       MD5_Init                   0006020c f   libeay32:md5_dgst.obj
 0001:0004f25c       md5_block_data_order       0006025c f   libeay32:md5_dgst.obj
 0001:0004fe58       MD5_Update                 00060e58 f   libeay32:md5_dgst.obj
 0001:0004ff60       MD5_Final                  00060f60 f   libeay32:md5_dgst.obj
 0001:000500b0       OCSP_SIGNATURE_it          000610b0 f   libeay32:ocsp_asn.obj
 0001:000500bc       OCSP_CERTID_it             000610bc f   libeay32:ocsp_asn.obj
 0001:000500c8       OCSP_ONEREQ_it             000610c8 f   libeay32:ocsp_asn.obj
 0001:000500d4       OCSP_REQINFO_it            000610d4 f   libeay32:ocsp_asn.obj
 0001:000500e0       OCSP_RESPBYTES_it          000610e0 f   libeay32:ocsp_asn.obj
 0001:000500ec       OCSP_RESPID_it             000610ec f   libeay32:ocsp_asn.obj
 0001:000500f8       OCSP_REVOKEDINFO_it        000610f8 f   libeay32:ocsp_asn.obj
 0001:00050104       OCSP_CERTSTATUS_it         00061104 f   libeay32:ocsp_asn.obj
 0001:00050110       OCSP_SINGLERESP_it         00061110 f   libeay32:ocsp_asn.obj
 0001:0005011c       OCSP_RESPDATA_it           0006111c f   libeay32:ocsp_asn.obj
 0001:00050128       OCSP_CRLID_it              00061128 f   libeay32:ocsp_asn.obj
 0001:00050134       OCSP_SERVICELOC_it         00061134 f   libeay32:ocsp_asn.obj
 0001:00050140       i2a_ASN1_STRING            00061140 f   libeay32:f_string.obj
 0001:0005025c       NETSCAPE_SPKAC_it          0006125c f   libeay32:x_spki.obj
 0001:00050268       ASN1_item_digest           00061268 f   libeay32:a_digest.obj
 0001:000502e8       OPENSSL_asc2uni            000612e8 f   libeay32:p12_utl.obj
 0001:00050388       BN_kronecker               00061388 f   libeay32:bn_kron.obj
 0001:0005063c       BN_mod_sqrt                0006163c f   libeay32:bn_sqrt.obj
 0001:00050e4c       PKCS7_add0_attrib_signing_time 00061e4c f   libeay32:pk7_attr.obj
 0001:00050ebc       PKCS7_add1_attrib_digest   00061ebc f   libeay32:pk7_attr.obj
 0001:00050f28       policy_data_free           00061f28 f   libeay32:pcy_data.obj
 0001:00052098       EVP_EncodeInit             00063098 f   libeay32:encode.obj
 0001:000520b0       EVP_EncodeBlock            000630b0 f   libeay32:encode.obj
 0001:00052190       EVP_DecodeInit             00063190 f   libeay32:encode.obj
 0001:000521ac       EVP_DecodeBlock            000631ac f   libeay32:encode.obj
 0001:000522d0       EVP_EncodeUpdate           000632d0 f   libeay32:encode.obj
 0001:000523fc       EVP_EncodeFinal            000633fc f   libeay32:encode.obj
 0001:00052450       EVP_DecodeUpdate           00063450 f   libeay32:encode.obj
 0001:00054200       PKCS12_MAC_DATA_it         00065200 f   libeay32:p12_asn.obj
 0001:00054218       PKCS12_BAGS_it             00065218 f   libeay32:p12_asn.obj
 0001:00054230       PKCS12_SAFEBAG_it          00065230 f   libeay32:p12_asn.obj
 0001:0005423c       UI_get_string_type         0006523c f   libeay32:ui_lib.obj
 0001:0005424c       UI_get_input_flags         0006524c f   libeay32:ui_lib.obj
 0001:0005425c       UI_get0_output_string      0006525c f   libeay32:ui_lib.obj
 0001:0005426c       UI_get0_action_string      0006526c f   libeay32:ui_lib.obj
 0001:00054298       UI_get0_result_string      00065298 f   libeay32:ui_lib.obj
 0001:000542bc       UI_get0_test_string        000652bc f   libeay32:ui_lib.obj
 0001:00054870       w32_filetime_to_time_t     00065870 f   wcecompatex:time.obj
 0001:00054910       time                       00065910 f   wcecompatex:time.obj
 0001:00054974       dayOfYear                  00065974 f   wcecompatex:time.obj
 0001:00054a48       localtime                  00065a48 f   wcecompatex:time.obj
 0001:00054b70       gmtime                     00065b70 f   wcecompatex:time.obj
 0001:00054c30       raise                      00065c30 f   wcecompatex:signal.obj
 0001:00054c38       getenv                     00065c38 f   wcecompatex:env.obj
 0001:00054cbc       ?unicode2ascii@@YAXPB_WPAD@Z 00065cbc f   wcecompatex:ts_string.obj
 0001:00054d10       ?ascii2unicode@@YAXPBDPA_WH@Z 00065d10 f   wcecompatex:ts_string.obj
 0001:00054db0       ?unicode2ascii@@YAXPB_WPADH@Z 00065db0 f   wcecompatex:ts_string.obj
 0001:00054e40       fprintf                    00065e40 f   coredll:COREDLL.dll
 0001:00054e50       _getstdfilex               00065e50 f   coredll:COREDLL.dll
 0001:00054e60       sprintf                    00065e60 f   coredll:COREDLL.dll
 0001:00054e70       memcmp                     00065e70 f   coredll:COREDLL.dll
 0001:00054e80       malloc                     00065e80 f   coredll:COREDLL.dll
 0001:00054e90       realloc                    00065e90 f   coredll:COREDLL.dll
 0001:00054ea0       free                       00065ea0 f   coredll:COREDLL.dll
 0001:00054eb0       memset                     00065eb0 f   coredll:COREDLL.dll
 0001:00054ec0       strcpy                     00065ec0 f   coredll:COREDLL.dll
 0001:00054ed0       strlen                     00065ed0 f   coredll:COREDLL.dll
 0001:00054ee0       memcpy                     00065ee0 f   coredll:COREDLL.dll
 0001:00054ef0       _isctype                   00065ef0 f   coredll:COREDLL.dll
 0001:00054f00       strncpy                    00065f00 f   coredll:COREDLL.dll
 0001:00054f10       strchr                     00065f10 f   coredll:COREDLL.dll
 0001:00054f20       fclose                     00065f20 f   coredll:COREDLL.dll
 0001:00054f30       GetLastError               00065f30 f   coredll:COREDLL.dll
 0001:00054f40       ferror                     00065f40 f   coredll:COREDLL.dll
 0001:00054f50       fread                      00065f50 f   coredll:COREDLL.dll
 0001:00054f60       fwrite                     00065f60 f   coredll:COREDLL.dll
 0001:00054f70       _setmode                   00065f70 f   coredll:COREDLL.dll
 0001:00054f80       _fileno                    00065f80 f   coredll:COREDLL.dll
 0001:00054f90       fopen                      00065f90 f   coredll:COREDLL.dll
 0001:00054fa0       fseek                      00065fa0 f   coredll:COREDLL.dll
 0001:00054fb0       ftell                      00065fb0 f   coredll:COREDLL.dll
 0001:00054fc0       feof                       00065fc0 f   coredll:COREDLL.dll
 0001:00054fd0       fflush                     00065fd0 f   coredll:COREDLL.dll
 0001:00054fe0       strcat                     00065fe0 f   coredll:COREDLL.dll
 0001:00054ff0       fgets                      00065ff0 f   coredll:COREDLL.dll
 0001:00055000       _wfopen                    00066000 f   coredll:COREDLL.dll
 0001:00055010       MultiByteToWideChar        00066010 f   coredll:COREDLL.dll
 0001:00055020       memchr                     00066020 f   coredll:COREDLL.dll
 0001:00055030       MessageBoxW                00066030 f   coredll:COREDLL.dll
 0001:00055040       _vsnwprintf                00066040 f   coredll:COREDLL.dll
 0001:00055050       strcmp                     00066050 f   coredll:COREDLL.dll
 0001:00055060       qsort                      00066060 f   coredll:COREDLL.dll
 0001:00055070       GetTickCount               00066070 f   coredll:COREDLL.dll
 0001:00055080       QueryPerformanceCounter    00066080 f   coredll:COREDLL.dll
 0001:00055090       GlobalMemoryStatus         00066090 f   coredll:COREDLL.dll
 0001:000550a0       CryptReleaseContext        000660a0 f   coredll:COREDLL.dll
 0001:000550b0       CryptGenRandom             000660b0 f   coredll:COREDLL.dll
 0001:000550c0       CryptAcquireContextW       000660c0 f   coredll:COREDLL.dll
 0001:000550d0       GetVersionExW              000660d0 f   coredll:COREDLL.dll
 0001:000550e0       _strnicmp                  000660e0 f   coredll:COREDLL.dll
 0001:000550f0       atoi                       000660f0 f   coredll:COREDLL.dll
 0001:00055100       tolower                    00066100 f   coredll:COREDLL.dll
 0001:00055110       strncmp                    00066110 f   coredll:COREDLL.dll
 0001:00055120       sscanf                     00066120 f   coredll:COREDLL.dll
 0001:00055130       strrchr                    00066130 f   coredll:COREDLL.dll
 0001:00055140       strtoul                    00066140 f   coredll:COREDLL.dll
 0001:00055150       _stricmp                   00066150 f   coredll:COREDLL.dll
 0001:00055160       memmove                    00066160 f   coredll:COREDLL.dll
 0001:00055170       LoadLibraryW               00066170 f   coredll:COREDLL.dll
 0001:00055180       SetLastError               00066180 f   coredll:COREDLL.dll
 0001:00055190       FreeLibrary                00066190 f   coredll:COREDLL.dll
 0001:000551a0       GetProcAddressA            000661a0 f   coredll:COREDLL.dll
 0001:000551b0       strstr                     000661b0 f   coredll:COREDLL.dll
 0001:000551c0       WideCharToMultiByte        000661c0 f   coredll:COREDLL.dll
 0001:000551d0       fputs                      000661d0 f   coredll:COREDLL.dll
 0001:000551e0       SystemTimeToFileTime       000661e0 f   coredll:COREDLL.dll
 0001:000551f0       GetSystemTime              000661f0 f   coredll:COREDLL.dll
 0001:00055200       GetTimeZoneInformation     00066200 f   coredll:COREDLL.dll
 0001:00055210       FileTimeToSystemTime       00066210 f   coredll:COREDLL.dll
 0001:00055220       FileTimeToLocalFileTime    00066220 f   coredll:COREDLL.dll
 0001:00055230       _cinit                     00066230 f   corelibc:crt0dat.obj
 0001:000553a0       exit                       000663a0 f   corelibc:crt0dat.obj
 0001:000553b8       _exit                      000663b8 f   corelibc:crt0dat.obj
 0001:000553d8       WinMainCRTStartup          000663d8 f   corelibc:pegwmain.obj
 0001:0005544c       WinMain                    0006644c f   wcecompatex:winmain.obj
 0001:000557a8       ?processCmdLine@@YAHPA_WPAPAPAD@Z 000667a8 f   wcecompatex:args.obj
 0001:00055be4       LocalFree                  00066be4 f   coredll:COREDLL.dll
 0001:00055bf4       _XcptFilter                00066bf4 f   coredll:COREDLL.dll
 0001:00055c04       __C_specific_handler       00066c04 f   coredll:COREDLL.dll
 0001:00055c14       FindFirstFileW             00066c14 f   coredll:COREDLL.dll
 0001:00055c24       FindClose                  00066c24 f   coredll:COREDLL.dll
 0001:00055c34       FindNextFileW              00066c34 f   coredll:COREDLL.dll
 0001:00055c44       GetModuleFileNameW         00066c44 f   coredll:COREDLL.dll
 0002:00000048       ??_C@_0BI@KHDFICAN@Error?5in?5ECDH?5routines?6?$AA@ 00067048     ecdhtest.obj
 0002:00000060       ??_C@_0BC@GBNCMMOF@generated?5key?5b?3?5?$AA@ 00067060     ecdhtest.obj
 0002:00000074       ??_C@_04JFFKLGJF@?$CF02X?$AA@ 00067074     ecdhtest.obj
 0002:0000007c       ??_C@_09BDOGPPHA@?5failed?6?6?$AA@ 0006707c     ecdhtest.obj
 0002:00000088       ??_C@_07HDLHJEJO@key?5a?3?6?$AA@ 00067088     ecdhtest.obj
 0002:00000090       ??_C@_08HHAHHKCJ@?6key?5b?3?6?$AA@ 00067090     ecdhtest.obj
 0002:0000009c       ??_C@_0O@OAJNPEBJ@private?5key?3?5?$AA@ 0006709c     ecdhtest.obj
 0002:000000ac       ??_C@_0BD@NOILJCIF@public?5key?5?$CIx?0y?$CJ?3?5?$AA@ 000670ac     ecdhtest.obj
 0002:000000c0       ??_C@_01IHBHIGKO@?0?$AA@   000670c0     ecdhtest.obj
 0002:000000c4       ??_C@_01EEMJAFIK@?6?$AA@   000670c4     ecdhtest.obj
 0002:000000c8       ??_C@_0BC@HDGHGDAL@generated?5key?5a?3?5?$AA@ 000670c8     ecdhtest.obj
 0002:000000dc       ??_C@_04CFDEAMPI@?5ok?6?$AA@ 000670dc     ecdhtest.obj
 0002:000000e8       ??_C@_0EP@EEFHLNI@d?3?2wm653wehh?2platform?2mvv210?2src@ 000670e8     ecdhtest.obj
 0002:00000138       ??_C@_01LFCBOECM@?4?$AA@   00067138     ecdhtest.obj
 0002:0000013c       ??_C@_02DDPEGJCB@?5?4?$AA@ 0006713c     ecdhtest.obj
 0002:00000140       ??_C@_0BN@LFFJMHOC@Testing?5key?5generation?5with?5?$AA@ 00067140     ecdhtest.obj
 0002:00000160       ??_C@_0BI@EDEIAEJK@NIST?5Binary?9Curve?5B?9571?$AA@ 00067160     ecdhtest.obj
 0002:00000178       ??_C@_0BI@GEEHFFFC@NIST?5Binary?9Curve?5K?9571?$AA@ 00067178     ecdhtest.obj
 0002:00000190       ??_C@_0BI@DGGCPPHC@NIST?5Binary?9Curve?5B?9409?$AA@ 00067190     ecdhtest.obj
 0002:000001a8       ??_C@_0BI@BBGNKOLK@NIST?5Binary?9Curve?5K?9409?$AA@ 000671a8     ecdhtest.obj
 0002:000001c0       ??_C@_0BI@OHPFBJJM@NIST?5Binary?9Curve?5B?9283?$AA@ 000671c0     ecdhtest.obj
 0002:000001d8       ??_C@_0BI@MAPKEIFE@NIST?5Binary?9Curve?5K?9283?$AA@ 000671d8     ecdhtest.obj
 0002:000001f0       ??_C@_0BI@OLKAPGHN@NIST?5Binary?9Curve?5B?9233?$AA@ 000671f0     ecdhtest.obj
 0002:00000208       ??_C@_0BI@MMKPKHLF@NIST?5Binary?9Curve?5K?9233?$AA@ 00067208     ecdhtest.obj
 0002:00000220       ??_C@_0BI@PPNOJLHI@NIST?5Binary?9Curve?5B?9163?$AA@ 00067220     ecdhtest.obj
 0002:00000238       ??_C@_0BI@NINBMKLA@NIST?5Binary?9Curve?5K?9163?$AA@ 00067238     ecdhtest.obj
 0002:00000250       ??_C@_0BH@HKMOLHA@NIST?5Prime?9Curve?5P?9521?$AA@ 00067250     ecdhtest.obj
 0002:00000268       ??_C@_0BH@FCCHMFDP@NIST?5Prime?9Curve?5P?9384?$AA@ 00067268     ecdhtest.obj
 0002:00000280       ??_C@_0BH@NAHFFDIL@NIST?5Prime?9Curve?5P?9256?$AA@ 00067280     ecdhtest.obj
 0002:00000298       ??_C@_0BH@OHAMCHIM@NIST?5Prime?9Curve?5P?9224?$AA@ 00067298     ecdhtest.obj
 0002:000002b0       ??_C@_0BH@KPLGMAAF@NIST?5Prime?9Curve?5P?9192?$AA@ 000672b0     ecdhtest.obj
 0002:000002c8       ??_C@_0EL@FFHGPJNM@d?3?2wm653wehh?2platform?2mvv210?2src@ 000672c8     libeay32:ec_key.obj
 0002:00000330       BN_version                 00067330     libeay32:bn_lib.obj
 0002:00000460       ??_C@_0EL@EKPDCIGL@d?3?2wm653wehh?2platform?2mvv210?2src@ 00067460     libeay32:bn_lib.obj
 0002:000004ac       ??_C@_0BB@KDJGCOOH@?$CFlu?3?$CFs?3?$CFs?3?$CFd?3?$CFs?6?$AA@ 000674ac     libeay32:err_prn.obj
 0002:000004bd       ??_C@_00CNPNBAHC@?$AA@     000674bd     libeay32:err_prn.obj
 0002:000004c0       ??_C@_02DKCKIIND@?$CFs?$AA@ 000674c0     libeay32:err_prn.obj
 0002:000004d8       ??_C@_0EN@HOIICIBH@d?3?2wm653wehh?2platform?2mvv210?2src@ 000674d8     libeay32:bn_print.obj
 0002:00000528       ??_C@_04LJCFADJL@?$CF09u?$AA@ 00067528     libeay32:bn_print.obj
 0002:00000530       ??_C@_02GMHACPFF@?$CFu?$AA@ 00067530     libeay32:bn_print.obj
 0002:00000534       ??_C@_01GBGANLPD@0?$AA@    00067534     libeay32:bn_print.obj
 0002:00000538       ??_C@_01JOAMLHOP@?9?$AA@   00067538     libeay32:bn_print.obj
 0002:00000540       ??_C@_0EN@GMEKCP@d?3?2wm653wehh?2platform?2mvv210?2src@ 00067540     libeay32:b_print.obj
 0002:00000590       ??_C@_06CBHGEMFM@?$DMNULL?$DO?$AA@ 00067590     libeay32:b_print.obj
 0002:00000598       ??_C@_0BB@JCEFLFJE@0123456789abcdef?$AA@ 00067598     libeay32:b_print.obj
 0002:000005ac       ??_C@_0BB@JGGOGLEG@0123456789ABCDEF?$AA@ 000675ac     libeay32:b_print.obj
 0002:000005c0       ??_C@_02MDDDDAID@0x?$AA@   000675c0     libeay32:b_print.obj
 0002:000005c4       ??_C@_07DKNGGOEP@doapr?$CI?$CJ?$AA@ 000675c4     libeay32:b_print.obj
 0002:000005f8       ??_C@_0EL@KJLPEPL@d?3?2wm653wehh?2platform?2mvv210?2src@ 000675f8     libeay32:ec_lib.obj
 0002:00000648       ??_C@_0EN@MBCJMNEM@d?3?2wm653wehh?2platform?2mvv210?2src@ 00067648     libeay32:bio_lib.obj
 0002:00000698       ??_C@_01CLKCMJKC@?5?$AA@   00067698     libeay32:bio_lib.obj
 0002:000006a0       ??_C@_0EJ@DIAKMCGH@d?3?2wm653wehh?2platform?2mvv210?2src@ 000676a0     libeay32:mem_dbg.obj
 0002:000006ec       ??_C@_02MBJIFMOJ@?$CC?6?$AA@ 000676ec     libeay32:mem_dbg.obj
 0002:000006f0       ??_C@_0CG@LFPKBHEM@?5thread?$DN?$CFlu?0?5file?$DN?$CFs?0?5line?$DN?$CFd?0?5i@ 000676f0     libeay32:mem_dbg.obj
 0002:00000718       ??_C@_0BK@MHANPPFK@number?$DN?$CFd?0?5address?$DN?$CF08lX?6?$AA@ 00067718     libeay32:mem_dbg.obj
 0002:00000734       ??_C@_0N@BAIEKLOK@thread?$DN?$CFlu?0?5?$AA@ 00067734     libeay32:mem_dbg.obj
 0002:00000744       ??_C@_0BI@OFHOPHMO@?$CF5lu?5file?$DN?$CFs?0?5line?$DN?$CFd?0?5?$AA@ 00067744     libeay32:mem_dbg.obj
 0002:0000075c       ??_C@_0BC@MALIEGMD@?$FL?$CF02d?3?$CF02d?3?$CF02d?$FN?5?$AA@ 0006775c     libeay32:mem_dbg.obj
 0002:00000770       ??_C@_0BP@JOECODN@?$CFld?5bytes?5leaked?5in?5?$CFd?5chunks?6?$AA@ 00067770     libeay32:mem_dbg.obj
 0002:000007bc       ??_C@_0DE@JBNNAKOP@called?5a?5function?5that?5was?5disab@ 000677bc     libeay32:err.obj
 0002:000007f0       ??_C@_0P@LPIEGNHB@internal?5error?$AA@ 000677f0     libeay32:err.obj
 0002:00000800       ??_C@_0BI@MMHLKOF@passed?5a?5null?5parameter?$AA@ 00067800     libeay32:err.obj
 0002:00000818       ??_C@_0CG@JFIACAPA@called?5a?5function?5you?5should?5not@ 00067818     libeay32:err.obj
 0002:00000840       ??_C@_0P@BOLAOBGL@malloc?5failure?$AA@ 00067840     libeay32:err.obj
 0002:00000850       ??_C@_05FAMCFOJB@fatal?$AA@ 00067850     libeay32:err.obj
 0002:00000858       ??_C@_0BB@LLCBNOLO@missing?5asn1?5eos?$AA@ 00067858     libeay32:err.obj
 0002:0000086c       ??_C@_0BF@JKEELALH@asn1?5length?5mismatch?$AA@ 0006786c     libeay32:err.obj
 0002:00000884       ??_C@_0BL@PKJJDDDF@expecting?5an?5asn1?5sequence?$AA@ 00067884     libeay32:err.obj
 0002:000008a0       ??_C@_0BJ@KHBMOGBI@bad?5get?5asn1?5object?5call?$AA@ 000678a0     libeay32:err.obj
 0002:000008bc       ??_C@_0BH@LJENPHMF@bad?5asn1?5object?5header?$AA@ 000678bc     libeay32:err.obj
 0002:000008d4       ??_C@_0BC@JPACPGKL@nested?5asn1?5error?$AA@ 000678d4     libeay32:err.obj
 0002:000008e8       ??_C@_06JPOPAJEJ@TS?5lib?$AA@ 000678e8     libeay32:err.obj
 0002:000008f0       ??_C@_08BIAIHGB@OCSP?5lib?$AA@ 000678f0     libeay32:err.obj
 0002:000008fc       ??_C@_0L@NEGIHAGL@ENGINE?5lib?$AA@ 000678fc     libeay32:err.obj
 0002:00000908       ??_C@_07HLMFDJCH@DSO?5lib?$AA@ 00067908     libeay32:err.obj
 0002:00000910       ??_C@_08IAGEJILJ@RAND?5lib?$AA@ 00067910     libeay32:err.obj
 0002:0000091c       ??_C@_0L@FBHADCPC@PKCS12?5lib?$AA@ 0006791c     libeay32:err.obj
 0002:00000928       ??_C@_0L@OHLIEDB@X509V3?5lib?$AA@ 00067928     libeay32:err.obj
 0002:00000934       ??_C@_09PFAKBDBP@PKCS7?5lib?$AA@ 00067934     libeay32:err.obj
 0002:00000940       ??_C@_07HOAEPDCA@BIO?5lib?$AA@ 00067940     libeay32:err.obj
 0002:00000948       ??_C@_07ILCPHDLL@SSL?5lib?$AA@ 00067948     libeay32:err.obj
 0002:00000950       ??_C@_06FNJAJMKI@EC?5lib?$AA@ 00067950     libeay32:err.obj
 0002:00000958       ??_C@_0L@GEIMIIEL@CRYPTO?5lib?$AA@ 00067958     libeay32:err.obj
 0002:00000964       ??_C@_08GDJNHNLC@CONF?5lib?$AA@ 00067964     libeay32:err.obj
 0002:00000970       ??_C@_08HAFIEMCJ@ASN1?5lib?$AA@ 00067970     libeay32:err.obj
 0002:0000097c       ??_C@_08DGLLDICE@X509?5lib?$AA@ 0006797c     libeay32:err.obj
 0002:00000988       ??_C@_07EBMPFIFH@DSA?5lib?$AA@ 00067988     libeay32:err.obj
 0002:00000990       ??_C@_07MKPCAOAJ@PEM?5lib?$AA@ 00067990     libeay32:err.obj
 0002:00000998       ??_C@_07LHMLCDLI@OBJ?5lib?$AA@ 00067998     libeay32:err.obj
 0002:000009a0       ??_C@_07PJHFFEFC@BUF?5lib?$AA@ 000679a0     libeay32:err.obj
 0002:000009a8       ??_C@_07BHNHKGFA@EVP?5lib?$AA@ 000679a8     libeay32:err.obj
 0002:000009b0       ??_C@_06JBCAGHNP@DH?5lib?$AA@ 000679b0     libeay32:err.obj
 0002:000009b8       ??_C@_07PLBLGAPL@RSA?5lib?$AA@ 000679b8     libeay32:err.obj
 0002:000009c0       ??_C@_06CEKJLBPI@BN?5lib?$AA@ 000679c0     libeay32:err.obj
 0002:000009c8       ??_C@_0L@NFMIFFDK@system?5lib?$AA@ 000679c8     libeay32:err.obj
 0002:000009d4       ??_C@_05FHPOAJDB@fread?$AA@ 000679d4     libeay32:err.obj
 0002:000009dc       ??_C@_07OPAOJOOA@opendir?$AA@ 000679dc     libeay32:err.obj
 0002:000009e4       ??_C@_0L@LNCNEFCG@WSAstartup?$AA@ 000679e4     libeay32:err.obj
 0002:000009f0       ??_C@_06MPKMECK@accept?$AA@ 000679f0     libeay32:err.obj
 0002:000009f8       ??_C@_06OODDLKLE@listen?$AA@ 000679f8     libeay32:err.obj
 0002:00000a00       ??_C@_04NPNJNMMP@bind?$AA@ 00067a00     libeay32:err.obj
 0002:00000a08       ??_C@_0M@PBPOCKDG@ioctlsocket?$AA@ 00067a08     libeay32:err.obj
 0002:00000a14       ??_C@_06HBELJPBO@socket?$AA@ 00067a14     libeay32:err.obj
 0002:00000a1c       ??_C@_0O@NKLJGHIL@getservbyname?$AA@ 00067a1c     libeay32:err.obj
 0002:00000a2c       ??_C@_07KAIBNCHO@connect?$AA@ 00067a2c     libeay32:err.obj
 0002:00000a34       ??_C@_05FFKPLNPJ@fopen?$AA@ 00067a34     libeay32:err.obj
 0002:00000a3c       ??_C@_0O@PBJMEGGG@HMAC?5routines?$AA@ 00067a3c     libeay32:err.obj
 0002:00000a4c       ??_C@_0N@MKJBFBO@CMS?5routines?$AA@ 00067a4c     libeay32:err.obj
 0002:00000a5c       ??_C@_0O@MDPFBMCI@FIPS?5routines?$AA@ 00067a5c     libeay32:err.obj
 0002:00000a6c       ??_C@_0O@LJIADBLP@OCSP?5routines?$AA@ 00067a6c     libeay32:err.obj
 0002:00000a7c       ??_C@_0BA@MMHCJFKD@engine?5routines?$AA@ 00067a7c     libeay32:err.obj
 0002:00000a8c       ??_C@_0BE@IMHDPIMO@time?5stamp?5routines?$AA@ 00067a8c     libeay32:err.obj
 0002:00000aa0       ??_C@_0BF@BDHLAIEM@DSO?5support?5routines?$AA@ 00067aa0     libeay32:err.obj
 0002:00000ab8       ??_C@_0BI@GMPKPCPG@random?5number?5generator?$AA@ 00067ab8     libeay32:err.obj
 0002:00000ad0       ??_C@_0BA@KPFPMFD@PKCS12?5routines?$AA@ 00067ad0     libeay32:err.obj
 0002:00000ae0       ??_C@_0BB@LKDEPKLM@X509?5V3?5routines?$AA@ 00067ae0     libeay32:err.obj
 0002:00000af4       ??_C@_0P@FBDCKDAN@PKCS7?5routines?$AA@ 00067af4     libeay32:err.obj
 0002:00000b04       ??_C@_0N@HGNFKBOI@BIO?5routines?$AA@ 00067b04     libeay32:err.obj
 0002:00000b14       ??_C@_0N@GAIJLNCL@SSL?5routines?$AA@ 00067b14     libeay32:err.obj
 0002:00000b24       ??_C@_0BI@NNCFPCDI@elliptic?5curve?5routines?$AA@ 00067b24     libeay32:err.obj
 0002:00000b3c       ??_C@_0BK@GOIAPJCF@common?5libcrypto?5routines?$AA@ 00067b3c     libeay32:err.obj
 0002:00000b58       ??_C@_0BM@FNIFPKKP@configuration?5file?5routines?$AA@ 00067b58     libeay32:err.obj
 0002:00000b74       ??_C@_0BH@OKMDKJBH@asn1?5encoding?5routines?$AA@ 00067b74     libeay32:err.obj
 0002:00000b8c       ??_C@_0BK@MLDIFNOG@x509?5certificate?5routines?$AA@ 00067b8c     libeay32:err.obj
 0002:00000ba8       ??_C@_0N@EPLKEPHE@dsa?5routines?$AA@ 00067ba8     libeay32:err.obj
 0002:00000bb8       ??_C@_0N@PPOIEGDJ@PEM?5routines?$AA@ 00067bb8     libeay32:err.obj
 0002:00000bc8       ??_C@_0BL@GAJLDLEG@object?5identifier?5routines?$AA@ 00067bc8     libeay32:err.obj
 0002:00000be4       ??_C@_0BH@GHBGFOKA@memory?5buffer?5routines?$AA@ 00067be4     libeay32:err.obj
 0002:00000bfc       ??_C@_0BK@KCBHLAIJ@digital?5envelope?5routines?$AA@ 00067bfc     libeay32:err.obj
 0002:00000c18       ??_C@_0BI@BELEOFAM@Diffie?9Hellman?5routines?$AA@ 00067c18     libeay32:err.obj
 0002:00000c30       ??_C@_0N@FLFIDGHD@rsa?5routines?$AA@ 00067c30     libeay32:err.obj
 0002:00000c40       ??_C@_0BA@BALAMMCD@bignum?5routines?$AA@ 00067c40     libeay32:err.obj
 0002:00000c50       ??_C@_0P@KJHLNCML@system?5library?$AA@ 00067c50     libeay32:err.obj
 0002:00000c60       ??_C@_0BA@JLJAKIKL@unknown?5library?$AA@ 00067c60     libeay32:err.obj
 0002:00000c70       ??_C@_0EJ@LLHEHHLL@d?3?2wm653wehh?2platform?2mvv210?2src@ 00067c70     libeay32:err.obj
 0002:00000cbc       ??_C@_0BE@CGMKPIME@int_err_get?5?$CIerr?4c?$CJ?$AA@ 00067cbc     libeay32:err.obj
 0002:00000cd0       ??_C@_0BH@KBGLDIDO@int_thread_get?5?$CIerr?4c?$CJ?$AA@ 00067cd0     libeay32:err.obj
 0002:00000ce8       ??_C@_02JDNIPIGD@NA?$AA@   00067ce8     libeay32:err.obj
 0002:00000cec       ??_C@_0BF@IKLBHEFA@error?3?$CF08lX?3?$CFs?3?$CFs?3?$CFs?$AA@ 00067cec     libeay32:err.obj
 0002:00000d04       ??_C@_0M@MNMDFDLE@reason?$CI?$CFlu?$CJ?$AA@ 00067d04     libeay32:err.obj
 0002:00000d10       ??_C@_09IANFNLBB@func?$CI?$CFlu?$CJ?$AA@ 00067d10     libeay32:err.obj
 0002:00000d1c       ??_C@_08PFHOCFHJ@lib?$CI?$CFlu?$CJ?$AA@ 00067d1c     libeay32:err.obj
 0002:00000d28       ??_C@_0EJ@IBNICOFA@d?3?2wm653wehh?2platform?2mvv210?2src@ 00067d28     libeay32:ex_data.obj
 0002:00000d78       ??_C@_0EL@BMHBHOHG@d?3?2wm653wehh?2platform?2mvv210?2src@ 00067d78     libeay32:bn_ctx.obj
 0002:00000dc4       ??_C@_0N@JAGKAFD@FILE?5pointer?$AA@ 00067dc4     libeay32:bss_file.obj
 0002:00000dd8       ??_C@_0EO@GEBEJMNG@d?3?2wm653wehh?2platform?2mvv210?2src@ 00067dd8     libeay32:bss_file.obj
 0002:00000e28       ??_C@_02HJPKOJGD@?8?$CJ?$AA@ 00067e28     libeay32:bss_file.obj
 0002:00000e2c       ??_C@_03IMMLKIF@?8?0?8?$AA@ 00067e2c     libeay32:bss_file.obj
 0002:00000e30       ??_C@_07JMDFGFFH@fopen?$CI?8?$AA@ 00067e30     libeay32:bss_file.obj
 0002:00000e38       ??_C@_01PFHFFBPC@t?$AA@    00067e38     libeay32:bss_file.obj
 0002:00000e3c       ??_C@_01OJONOECF@b?$AA@    00067e3c     libeay32:bss_file.obj
 0002:00000e40       ??_C@_01KDCPPGHE@r?$AA@    00067e40     libeay32:bss_file.obj
 0002:00000e44       ??_C@_01NOFIACDB@w?$AA@    00067e44     libeay32:bss_file.obj
 0002:00000e48       ??_C@_02CBLLGHLK@r?$CL?$AA@ 00067e48     libeay32:bss_file.obj
 0002:00000e4c       ??_C@_01MCMALHOG@a?$AA@    00067e4c     libeay32:bss_file.obj
 0002:00000e50       ??_C@_02DPNLHKJD@a?$CL?$AA@ 00067e50     libeay32:bss_file.obj
 0002:00000e54       SHA1_version               00067e54     libeay32:sha1dgst.obj
 0002:00000f2c       ??_C@_05NEEKIFMD@fips2?$AA@ 00067f2c     libeay32:cryptlib.obj
 0002:00000f34       ??_C@_04DJGCHAOD@fips?$AA@ 00067f34     libeay32:cryptlib.obj
 0002:00000f3c       ??_C@_04OLDKMDKP@comp?$AA@ 00067f3c     libeay32:cryptlib.obj
 0002:00000f44       ??_C@_05ODGDKDLF@store?$AA@ 00067f44     libeay32:cryptlib.obj
 0002:00000f4c       ??_C@_0M@FNJFEIGB@ec_pre_comp?$AA@ 00067f4c     libeay32:cryptlib.obj
 0002:00000f58       ??_C@_02LAJDHPIK@bn?$AA@   00067f58     libeay32:cryptlib.obj
 0002:00000f5c       ??_C@_04KDGGCKGB@ecdh?$AA@ 00067f5c     libeay32:cryptlib.obj
 0002:00000f64       ??_C@_02HCBHEC@ec?$AA@     00067f64     libeay32:cryptlib.obj
 0002:00000f68       ??_C@_05FGIDCBJD@ecdsa?$AA@ 00067f68     libeay32:cryptlib.obj
 0002:00000f70       ??_C@_02OGLLFMLI@ui?$AA@   00067f70     libeay32:cryptlib.obj
 0002:00000f74       ??_C@_06LOBMEHPF@engine?$AA@ 00067f74     libeay32:cryptlib.obj
 0002:00000f7c       ??_C@_07HGGNMPAJ@dynlock?$AA@ 00067f7c     libeay32:cryptlib.obj
 0002:00000f84       ??_C@_03NOCNOBNG@dso?$AA@  00067f84     libeay32:cryptlib.obj
 0002:00000f88       ??_C@_0O@PMFKBDME@debug_malloc2?$AA@ 00067f88     libeay32:cryptlib.obj
 0002:00000f98       ??_C@_02OCEEKELO@dh?$AA@   00067f98     libeay32:cryptlib.obj
 0002:00000f9c       ??_C@_0N@BGAJKBNF@RSA_blinding?$AA@ 00067f9c     libeay32:cryptlib.obj
 0002:00000fac       ??_C@_07OMHHFDME@readdir?$AA@ 00067fac     libeay32:cryptlib.obj
 0002:00000fb4       ??_C@_0O@BFBCKHPD@gethostbyname?$AA@ 00067fb4     libeay32:cryptlib.obj
 0002:00000fc4       ??_C@_03OHAMFFNA@BIO?$AA@  00067fc4     libeay32:cryptlib.obj
 0002:00000fc8       ??_C@_0N@CLEMOJNL@debug_malloc?$AA@ 00067fc8     libeay32:cryptlib.obj
 0002:00000fd8       ??_C@_05NFNCBLNG@rand2?$AA@ 00067fd8     libeay32:cryptlib.obj
 0002:00000fe0       ??_C@_04HKINGDKC@rand?$AA@ 00067fe0     libeay32:cryptlib.obj
 0002:00000fe8       ??_C@_0L@NKBFNPDB@ssl_method?$AA@ 00067fe8     libeay32:cryptlib.obj
 0002:00000ff4       ??_C@_03DIMONNDD@ssl?$AA@  00067ff4     libeay32:cryptlib.obj
 0002:00000ff8       ??_C@_0O@LOCLBOHA@ssl_sess_cert?$AA@ 00067ff8     libeay32:cryptlib.obj
 0002:00001008       ??_C@_0M@OAEAFGMD@ssl_session?$AA@ 00068008     libeay32:cryptlib.obj
 0002:00001014       ??_C@_08INIFBEOB@ssl_cert?$AA@ 00068014     libeay32:cryptlib.obj
 0002:00001020       ??_C@_07DNHKIAPH@ssl_ctx?$AA@ 00068020     libeay32:cryptlib.obj
 0002:00001028       ??_C@_0L@JCDDFIOK@x509_store?$AA@ 00068028     libeay32:cryptlib.obj
 0002:00001034       ??_C@_08NBJJIGBN@evp_pkey?$AA@ 00068034     libeay32:cryptlib.obj
 0002:00001040       ??_C@_03DFNMMEBL@rsa?$AA@  00068040     libeay32:cryptlib.obj
 0002:00001044       ??_C@_03EAKOMMFI@dsa?$AA@  00068044     libeay32:cryptlib.obj
 0002:00001048       ??_C@_08BHPLFFMD@x509_req?$AA@ 00068048     libeay32:cryptlib.obj
 0002:00001054       ??_C@_08BJFLLMNA@x509_crl?$AA@ 00068054     libeay32:cryptlib.obj
 0002:00001060       ??_C@_09HNLHIFBP@x509_pkey?$AA@ 00068060     libeay32:cryptlib.obj
 0002:0000106c       ??_C@_09DJEHILFA@x509_info?$AA@ 0006806c     libeay32:cryptlib.obj
 0002:00001078       ??_C@_04BNGFMDFF@x509?$AA@ 00068078     libeay32:cryptlib.obj
 0002:00001080       ??_C@_07OALPHBKG@ex_data?$AA@ 00068080     libeay32:cryptlib.obj
 0002:00001088       ??_C@_03JIDPIAJI@err?$AA@  00068088     libeay32:cryptlib.obj
 0002:0000108c       ??_C@_09OGFJIAEE@?$DM?$DMERROR?$DO?$DO?$AA@ 0006808c     libeay32:cryptlib.obj
 0002:00001098       ??_C@_0EK@JACEKOIE@d?3?2wm653wehh?2platform?2mvv210?2src@ 00068098     libeay32:cryptlib.obj
 0002:000010e4       ??_C@_1BO@DCCMIJEM@?$AAO?$AAp?$AAe?$AAn?$AAS?$AAS?$AAL?$AA?3?$AA?5?$AAF?$AAA?$AAT?$AAA?$AAL?$AA?$AA@ 000680e4     libeay32:cryptlib.obj
 0002:00001104       ??_C@_1BE@NLCFDLCA@?$AAn?$AAo?$AA?5?$AAs?$AAt?$AAa?$AAc?$AAk?$AA?$DP?$AA?$AA@ 00068104     libeay32:cryptlib.obj
 0002:00001118       ??_C@_0DG@JJAMFCAP@?$CFs?$CI?$CFd?$CJ?3?5OpenSSL?5internal?5error?0?5@ 00068118     libeay32:cryptlib.obj
 0002:00001150       ??_C@_0BA@LPBALOME@pointer?5?$CB?$DN?5NULL?$AA@ 00068150     libeay32:cryptlib.obj
 0002:00001160       ??_C@_0EM@GFDFNKJ@d?3?2wm653wehh?2platform?2mvv210?2src@ 00068160     libeay32:bn_rand.obj
 0002:00004628       ??_C@_0HB@IIAMGFOE@?6?7IPSec?1IKE?1Oakley?5curve?5?$CD4?5over@ 0006b628     libeay32:ec_curve.obj
 0002:000046a0       ??_C@_0HB@LGGCBEEP@?6?7IPSec?1IKE?1Oakley?5curve?5?$CD3?5over@ 0006b6a0     libeay32:ec_curve.obj
 0002:00004714       ??_C@_0CG@MLNHEHNL@WTLS?5curvs?5over?5a?5224?5bit?5prime?5@ 0006b714     libeay32:ec_curve.obj
 0002:0000473c       ??_C@_0CG@JBBHINGJ@WTLS?5curve?5over?5a?5160?5bit?5prime?5@ 0006b73c     libeay32:ec_curve.obj
 0002:00004764       ??_C@_0CG@NOPNGNKB@WTLS?5curve?5over?5a?5112?5bit?5prime?5@ 0006b764     libeay32:ec_curve.obj
 0002:0000478c       ??_C@_0CH@PAECJHG@WTLS?5curve?5over?5a?5113?5bit?5binary@ 0006b78c     libeay32:ec_curve.obj
 0002:000047b4       ??_C@_0CI@PHOKEIPD@X9?462?5curve?5over?5a?5431?5bit?5binar@ 0006b7b4     libeay32:ec_curve.obj
 0002:000047dc       ??_C@_0CI@GLMEIDGJ@X9?462?5curve?5over?5a?5368?5bit?5binar@ 0006b7dc     libeay32:ec_curve.obj
 0002:00004804       ??_C@_0CI@BDIPEOPL@X9?462?5curve?5over?5a?5359?5bit?5binar@ 0006b804     libeay32:ec_curve.obj
 0002:0000482c       ??_C@_0CI@PCOAONL@X9?462?5curve?5over?5a?5304?5bit?5binar@ 0006b82c     libeay32:ec_curve.obj
 0002:00004854       ??_C@_0CI@OMGMCAMF@X9?462?5curve?5over?5a?5272?5bit?5binar@ 0006b854     libeay32:ec_curve.obj
 0002:0000487c       ??_C@_0CI@IHGFALA@X9?462?5curve?5over?5a?5239?5bit?5binar@ 0006b87c     libeay32:ec_curve.obj
 0002:000048a4       ??_C@_0CI@HADNJNCC@X9?462?5curve?5over?5a?5208?5bit?5binar@ 0006b8a4     libeay32:ec_curve.obj
 0002:000048cc       ??_C@_0CI@CNNMGPOI@X9?462?5curve?5over?5a?5191?5bit?5binar@ 0006b8cc     libeay32:ec_curve.obj
 0002:000048f4       ??_C@_0CI@HOBKKPME@X9?462?5curve?5over?5a?5176?5bit?5binar@ 0006b8f4     libeay32:ec_curve.obj
 0002:0000491c       ??_C@_0CI@CFPHBJDI@X9?462?5curve?5over?5a?5163?5bit?5binar@ 0006b91c     libeay32:ec_curve.obj
 0002:00004944       ??_C@_0CM@EACJKLC@NIST?1SECG?5curve?5over?5a?5571?5bit?5b@ 0006b944     libeay32:ec_curve.obj
 0002:00004970       ??_C@_0CM@HDDNKCDK@NIST?1SECG?5curve?5over?5a?5409?5bit?5b@ 0006b970     libeay32:ec_curve.obj
 0002:0000499c       ??_C@_0CM@GFMOGKDK@NIST?1SECG?5curve?5over?5a?5283?5bit?5b@ 0006b99c     libeay32:ec_curve.obj
 0002:000049c8       ??_C@_0CH@CLCLBOGN@SECG?5curve?5over?5a?5239?5bit?5binary@ 0006b9c8     libeay32:ec_curve.obj
 0002:000049f0       ??_C@_0DB@PNCPLOPN@NIST?1SECG?1WTLS?5curve?5over?5a?5233?5@ 0006b9f0     libeay32:ec_curve.obj
 0002:00004a24       ??_C@_0CH@HKDFCHME@SECG?5curve?5over?5a?5193?5bit?5binary@ 0006ba24     libeay32:ec_curve.obj
 0002:00004a4c       ??_C@_0CM@HCIKDLO@NIST?1SECG?5curve?5over?5a?5163?5bit?5b@ 0006ba4c     libeay32:ec_curve.obj
 0002:00004a78       ??_C@_0CH@GKKFHOF@SECG?5curve?5over?5a?5163?5bit?5binary@ 0006ba78     libeay32:ec_curve.obj
 0002:00004aa0       ??_C@_0DB@KNLLOMAB@NIST?1SECG?1WTLS?5curve?5over?5a?5163?5@ 0006baa0     libeay32:ec_curve.obj
 0002:00004ad4       ??_C@_0CH@FJJEIBAL@SECG?5curve?5over?5a?5131?5bit?5binary@ 0006bad4     libeay32:ec_curve.obj
 0002:00004afc       ??_C@_0CM@EPOILLGK@SECG?1WTLS?5curve?5over?5a?5131?5bit?5b@ 0006bafc     libeay32:ec_curve.obj
 0002:00004b28       ??_C@_0CH@OHOOPBHG@SECG?5curve?5over?5a?5113?5bit?5binary@ 0006bb28     libeay32:ec_curve.obj
 0002:00004b50       ??_C@_0CM@IACJENLF@X9?462?1SECG?5curve?5over?5a?5256?5bit?5@ 0006bb50     libeay32:ec_curve.obj
 0002:00004b7c       ??_C@_0CH@COBCAEEE@X9?462?5curve?5over?5a?5239?5bit?5prime@ 0006bb7c     libeay32:ec_curve.obj
 0002:00004ba4       ??_C@_0CH@BHJCBJE@X9?462?5curve?5over?5a?5192?5bit?5prime@ 0006bba4     libeay32:ec_curve.obj
 0002:00004bcc       ??_C@_0DB@HJIMEGJL@NIST?1X9?462?1SECG?5curve?5over?5a?5192@ 0006bbcc     libeay32:ec_curve.obj
 0002:00004c00       ??_C@_0CL@NCEJLDDF@NIST?1SECG?5curve?5over?5a?5521?5bit?5p@ 0006bc00     libeay32:ec_curve.obj
 0002:00004c2c       ??_C@_0CL@MPIFFEHD@NIST?1SECG?5curve?5over?5a?5384?5bit?5p@ 0006bc2c     libeay32:ec_curve.obj
 0002:00004c58       ??_C@_0CG@MBJIMJMI@SECG?5curve?5over?5a?5256?5bit?5prime?5@ 0006bc58     libeay32:ec_curve.obj
 0002:00004c80       ??_C@_0CL@NHPHHEEB@NIST?1SECG?5curve?5over?5a?5224?5bit?5p@ 0006bc80     libeay32:ec_curve.obj
 0002:00004cac       ??_C@_0CG@IOHCCJAA@SECG?5curve?5over?5a?5224?5bit?5prime?5@ 0006bcac     libeay32:ec_curve.obj
 0002:00004cd4       ??_C@_0CG@IFFAEDGD@SECG?5curve?5over?5a?5192?5bit?5prime?5@ 0006bcd4     libeay32:ec_curve.obj
 0002:00004cfc       ??_C@_0CL@NDOOJKPB@SECG?1WTLS?5curve?5over?5a?5160?5bit?5p@ 0006bcfc     libeay32:ec_curve.obj
 0002:00004d28       ??_C@_0CG@MDBLLOCO@SECG?5curve?5over?5a?5160?5bit?5prime?5@ 0006bd28     libeay32:ec_curve.obj
 0002:00004d50       ??_C@_0CG@DNCCBNMA@SECG?5curve?5over?5a?5128?5bit?5prime?5@ 0006bd50     libeay32:ec_curve.obj
 0002:00004d78       ??_C@_0CG@IMPBFOOG@SECG?5curve?5over?5a?5112?5bit?5prime?5@ 0006bd78     libeay32:ec_curve.obj
 0002:00004da0       ??_C@_0CL@JMAEHKDJ@SECG?1WTLS?5curve?5over?5a?5112?5bit?5p@ 0006bda0     libeay32:ec_curve.obj
 0002:00004dd0       ??_C@_0EN@GGBLGKDN@d?3?2wm653wehh?2platform?2mvv210?2src@ 0006bdd0     libeay32:ec_curve.obj
 0002:00004e20       ECDH_version               0006be20     libeay32:ech_lib.obj
 0002:00004e48       ??_C@_0EO@JGKBLENE@d?3?2wm653wehh?2platform?2mvv210?2src@ 0006be48     libeay32:ech_lib.obj
 0002:00004e98       ??_C@_0EM@NFBEAOGE@d?3?2wm653wehh?2platform?2mvv210?2src@ 0006be98     libeay32:ec_mult.obj
 0002:00004ee4       lh_version                 0006bee4     libeay32:lhash.obj
 0002:00004f10       ??_C@_0EN@ECMNBMLE@d?3?2wm653wehh?2platform?2mvv210?2src@ 0006bf10     libeay32:lhash.obj
 0002:00004f60       ??_C@_0FA@OIJOADBF@d?3?2wm653wehh?2platform?2mvv210?2src@ 0006bf60     libeay32:buf_str.obj
 0002:00004fb0       STACK_version              0006bfb0     libeay32:stack.obj
 0002:00004fe0       ??_C@_0EN@GOCHBJJG@d?3?2wm653wehh?2platform?2mvv210?2src@ 0006bfe0     libeay32:stack.obj
 0002:00005030       ??_C@_0FB@FHJDMCII@d?3?2wm653wehh?2platform?2mvv210?2src@ 0006c030     libeay32:eng_init.obj
 0002:00005084       RAND_version               0006c084     libeay32:md_rand.obj
 0002:000050b0       ??_C@_0EO@OKPIHEJM@d?3?2wm653wehh?2platform?2mvv210?2src@ 0006c0b0     libeay32:md_rand.obj
 0002:00005100       ??_C@_0EK@MHBHPLPP@You?5need?5to?5read?5the?5OpenSSL?5FAQ@ 0006c100     libeay32:md_rand.obj
 0002:0000514c       ??_C@_0BF@KNMHCCP@?4?4?4?4?4?4?4?4?4?4?4?4?4?4?4?4?4?4?4?4?$AA@ 0006c14c     libeay32:md_rand.obj
 0002:00005168       ??_C@_0EL@CLJGKANI@d?3?2wm653wehh?2platform?2mvv210?2src@ 0006c168     libeay32:bn_add.obj
 0002:000051b4       ??_C@_0BE@LILBBPKE@OpenSSL?5ECDH?5method?$AA@ 0006c1b4     libeay32:ech_ossl.obj
 0002:000051c8       ??_C@_0EP@EIICIEGK@d?3?2wm653wehh?2platform?2mvv210?2src@ 0006c1c8     libeay32:ech_ossl.obj
 0002:0000e9b8       ??_C@_09FHIEKOPH@rsaesOaep?$AA@ 000759b8     libeay32:obj_dat.obj
 0002:0000e9c4       ??_C@_0L@NCPDMLAN@RSAES?9OAEP?$AA@ 000759c4     libeay32:obj_dat.obj
 0002:0000e9d0       ??_C@_0BG@MBIALEGA@aes?9256?9cbc?9hmac?9sha1?$AA@ 000759d0     libeay32:obj_dat.obj
 0002:0000e9e8       ??_C@_0BG@NJKHMG@AES?9256?9CBC?9HMAC?9SHA1?$AA@ 000759e8     libeay32:obj_dat.obj
 0002:0000ea00       ??_C@_0BG@GKCPENNE@aes?9192?9cbc?9hmac?9sha1?$AA@ 00075a00     libeay32:obj_dat.obj
 0002:0000ea18       ??_C@_0BG@KLHGFOHC@AES?9192?9CBC?9HMAC?9SHA1?$AA@ 00075a18     libeay32:obj_dat.obj
 0002:0000ea30       ??_C@_0BG@CLBGODOC@aes?9128?9cbc?9hmac?9sha1?$AA@ 00075a30     libeay32:obj_dat.obj
 0002:0000ea48       ??_C@_0BG@OKEPPAEE@AES?9128?9CBC?9HMAC?9SHA1?$AA@ 00075a48     libeay32:obj_dat.obj
 0002:0000ea60       ??_C@_0N@EFPJLHOG@rc4?9hmac?9md5?$AA@ 00075a60     libeay32:obj_dat.obj
 0002:0000ea70       ??_C@_0N@MFFPBCGK@RC4?9HMAC?9MD5?$AA@ 00075a70     libeay32:obj_dat.obj
 0002:0000ea80       ??_C@_0M@FHDOMLNI@aes?9256?9xts?$AA@ 00075a80     libeay32:obj_dat.obj
 0002:0000ea8c       ??_C@_0M@ILDFFBFL@AES?9256?9XTS?$AA@ 00075a8c     libeay32:obj_dat.obj
 0002:0000ea98       ??_C@_0M@CGBMJDMF@aes?9128?9xts?$AA@ 00075a98     libeay32:obj_dat.obj
 0002:0000eaa4       ??_C@_0M@PKBHAJEG@AES?9128?9XTS?$AA@ 00075aa4     libeay32:obj_dat.obj
 0002:0000eab0       ??_C@_09FGGKIFKD@rsassaPss?$AA@ 00075ab0     libeay32:obj_dat.obj
 0002:0000eabc       ??_C@_0L@CPMAKEFG@RSASSA?9PSS?$AA@ 00075abc     libeay32:obj_dat.obj
 0002:0000eac8       ??_C@_04HEIJMEIE@mgf1?$AA@ 00075ac8     libeay32:obj_dat.obj
 0002:0000ead0       ??_C@_04CNDHACFO@MGF1?$AA@ 00075ad0     libeay32:obj_dat.obj
 0002:0000ead8       ??_C@_0BH@FHBOBBKO@Any?5Extended?5Key?5Usage?$AA@ 00075ad8     libeay32:obj_dat.obj
 0002:0000eaf0       ??_C@_0BE@FKFLDMON@anyExtendedKeyUsage?$AA@ 00075af0     libeay32:obj_dat.obj
 0002:0000eb04       ??_C@_0BE@PHKLGFJC@id?9camellia256?9wrap?$AA@ 00075b04     libeay32:obj_dat.obj
 0002:0000eb18       ??_C@_0BE@GNMGGIAL@id?9camellia192?9wrap?$AA@ 00075b18     libeay32:obj_dat.obj
 0002:0000eb2c       ??_C@_0BE@JENMCLBD@id?9camellia128?9wrap?$AA@ 00075b2c     libeay32:obj_dat.obj
 0002:0000eb40       ??_C@_0M@MJDNCKAH@aes?9256?9ctr?$AA@ 00075b40     libeay32:obj_dat.obj
 0002:0000eb4c       ??_C@_0M@BFDGLAIE@AES?9256?9CTR?$AA@ 00075b4c     libeay32:obj_dat.obj
 0002:0000eb58       ??_C@_0M@BLIDAFIG@aes?9192?9ctr?$AA@ 00075b58     libeay32:obj_dat.obj
 0002:0000eb64       ??_C@_0M@MHIIJPAF@AES?9192?9CTR?$AA@ 00075b64     libeay32:obj_dat.obj
 0002:0000eb70       ??_C@_0M@LIBPHCBK@aes?9128?9ctr?$AA@ 00075b70     libeay32:obj_dat.obj
 0002:0000eb7c       ??_C@_0M@GEBEOIJJ@AES?9128?9CTR?$AA@ 00075b7c     libeay32:obj_dat.obj
 0002:0000eb88       ??_C@_0BD@OHLFOIJM@id?9aes256?9wrap?9pad?$AA@ 00075b88     libeay32:obj_dat.obj
 0002:0000eb9c       ??_C@_0M@BNAOJBGM@aes?9256?9ccm?$AA@ 00075b9c     libeay32:obj_dat.obj
 0002:0000eba8       ??_C@_0O@EDMKMBKB@id?9aes256?9CCM?$AA@ 00075ba8     libeay32:obj_dat.obj
 0002:0000ebb8       ??_C@_0M@JCGMAGDL@aes?9256?9gcm?$AA@ 00075bb8     libeay32:obj_dat.obj
 0002:0000ebc4       ??_C@_0O@MMKIFGPG@id?9aes256?9GCM?$AA@ 00075bc4     libeay32:obj_dat.obj
 0002:0000ebd4       ??_C@_0BD@OPKMLKFB@id?9aes192?9wrap?9pad?$AA@ 00075bd4     libeay32:obj_dat.obj
 0002:0000ebe8       ??_C@_0M@MPLALOON@aes?9192?9ccm?$AA@ 00075be8     libeay32:obj_dat.obj
 0002:0000ebf4       ??_C@_0O@JBHEOOCA@id?9aes192?9CCM?$AA@ 00075bf4     libeay32:obj_dat.obj
 0002:0000ec04       ??_C@_0M@EANCCJLK@aes?9192?9gcm?$AA@ 00075c04     libeay32:obj_dat.obj
 0002:0000ec10       ??_C@_0O@BOBGHJHH@id?9aes192?9GCM?$AA@ 00075c10     libeay32:obj_dat.obj
 0002:0000ec20       ??_C@_0BD@HMJBEGNL@id?9aes128?9wrap?9pad?$AA@ 00075c20     libeay32:obj_dat.obj
 0002:0000ec34       ??_C@_0M@GMCMMJHB@aes?9128?9ccm?$AA@ 00075c34     libeay32:obj_dat.obj
 0002:0000ec40       ??_C@_0O@DCOIJJLM@id?9aes128?9CCM?$AA@ 00075c40     libeay32:obj_dat.obj
 0002:0000ec50       ??_C@_0M@ODEOFOCG@aes?9128?9gcm?$AA@ 00075c50     libeay32:obj_dat.obj
 0002:0000ec5c       ??_C@_0O@LNIKAOOL@id?9aes128?9GCM?$AA@ 00075c5c     libeay32:obj_dat.obj
 0002:0000ec6c       ??_C@_04CJMGLDNC@cmac?$AA@ 00075c6c     libeay32:obj_dat.obj
 0002:0000ec74       ??_C@_04OFPMFBKK@CMAC?$AA@ 00075c74     libeay32:obj_dat.obj
 0002:0000ec7c       ??_C@_0BA@NJOHMDIG@id?9alg?9PWRI?9KEK?$AA@ 00075c7c     libeay32:obj_dat.obj
 0002:0000ec8c       ??_C@_07ILKEFPGB@dmdName?$AA@ 00075c8c     libeay32:obj_dat.obj
 0002:0000ec94       ??_C@_0BE@MNOFELKF@deltaRevocationList?$AA@ 00075c94     libeay32:obj_dat.obj
 0002:0000eca8       ??_C@_0BE@KGOGIPEN@supportedAlgorithms?$AA@ 00075ca8     libeay32:obj_dat.obj
 0002:0000ecbc       ??_C@_0BA@EKKIBBF@houseIdentifier?$AA@ 00075cbc     libeay32:obj_dat.obj
 0002:0000eccc       ??_C@_0N@FIGDLDDJ@uniqueMember?$AA@ 00075ccc     libeay32:obj_dat.obj
 0002:0000ecdc       ??_C@_0BC@IIJOGNNH@distinguishedName?$AA@ 00075cdc     libeay32:obj_dat.obj
 0002:0000ecf0       ??_C@_0BE@FKAMNJMM@protocolInformation?$AA@ 00075cf0     libeay32:obj_dat.obj
 0002:0000ed04       ??_C@_0BE@NNAGLFEM@enhancedSearchGuide?$AA@ 00075d04     libeay32:obj_dat.obj
 0002:0000ed18       ??_C@_0BF@GAAPBDAE@crossCertificatePair?$AA@ 00075d18     libeay32:obj_dat.obj
 0002:0000ed30       ??_C@_0BK@IMFDMOND@certificateRevocationList?$AA@ 00075d30     libeay32:obj_dat.obj
 0002:0000ed4c       ??_C@_0BI@EODAEBFG@authorityRevocationList?$AA@ 00075d4c     libeay32:obj_dat.obj
 0002:0000ed64       ??_C@_0O@JJCNKCKK@cACertificate?$AA@ 00075d64     libeay32:obj_dat.obj
 0002:0000ed74       ??_C@_0BA@FEECIELF@userCertificate?$AA@ 00075d74     libeay32:obj_dat.obj
 0002:0000ed84       ??_C@_0N@JHMNNHKM@userPassword?$AA@ 00075d84     libeay32:obj_dat.obj
 0002:0000ed94       ??_C@_07JJAENDGN@seeAlso?$AA@ 00075d94     libeay32:obj_dat.obj
 0002:0000ed9c       ??_C@_0N@NAEJMDPF@roleOccupant?$AA@ 00075d9c     libeay32:obj_dat.obj
 0002:0000edac       ??_C@_05HEIBENID@owner?$AA@ 00075dac     libeay32:obj_dat.obj
 0002:0000edb4       ??_C@_06HDFDANIG@member?$AA@ 00075db4     libeay32:obj_dat.obj
 0002:0000edbc       ??_C@_0BM@NHJFOGBI@supportedApplicationContext?$AA@ 00075dbc     libeay32:obj_dat.obj
 0002:0000edd8       ??_C@_0BE@KHACCONJ@presentationAddress?$AA@ 00075dd8     libeay32:obj_dat.obj
 0002:0000edec       ??_C@_0BI@MKMMOKIA@preferredDeliveryMethod?$AA@ 00075dec     libeay32:obj_dat.obj
 0002:0000ee04       ??_C@_0BF@CMAFNEOO@destinationIndicator?$AA@ 00075e04     libeay32:obj_dat.obj
 0002:0000ee1c       ??_C@_0BC@DLLOJDNE@registeredAddress?$AA@ 00075e1c     libeay32:obj_dat.obj
 0002:0000ee30       ??_C@_0BI@OAHCBLEE@internationaliSDNNumber?$AA@ 00075e30     libeay32:obj_dat.obj
 0002:0000ee48       ??_C@_0M@MOCAHDLJ@x121Address?$AA@ 00075e48     libeay32:obj_dat.obj
 0002:0000ee54       ??_C@_0BJ@NDMMBDAB@facsimileTelephoneNumber?$AA@ 00075e54     libeay32:obj_dat.obj
 0002:0000ee70       ??_C@_0BK@BBNEJJDC@teletexTerminalIdentifier?$AA@ 00075e70     libeay32:obj_dat.obj
 0002:0000ee8c       ??_C@_0M@MMDMBPMM@telexNumber?$AA@ 00075e8c     libeay32:obj_dat.obj
 0002:0000ee98       ??_C@_0BA@NCAGJGBF@telephoneNumber?$AA@ 00075e98     libeay32:obj_dat.obj
 0002:0000eea8       ??_C@_0BL@DENBGONK@physicalDeliveryOfficeName?$AA@ 00075ea8     libeay32:obj_dat.obj
 0002:0000eec4       ??_C@_0O@PCCHCGPG@postOfficeBox?$AA@ 00075ec4     libeay32:obj_dat.obj
 0002:0000eed4       ??_C@_0O@KABBPKPG@postalAddress?$AA@ 00075ed4     libeay32:obj_dat.obj
 0002:0000eee4       ??_C@_0BB@GFJJGHBI@businessCategory?$AA@ 00075ee4     libeay32:obj_dat.obj
 0002:0000eef8       ??_C@_0M@MCCFGANF@searchGuide?$AA@ 00075ef8     libeay32:obj_dat.obj
 0002:0000ef04       ??_C@_0BF@DGGAJJCO@Permanent?5Identifier?$AA@ 00075f04     libeay32:obj_dat.obj
 0002:0000ef1c       ??_C@_0BK@BMFCOPIC@id?9on?9permanentIdentifier?$AA@ 00075f1c     libeay32:obj_dat.obj
 0002:0000ef38       ??_C@_0BE@KEJIKEFG@X509v3?5Freshest?5CRL?$AA@ 00075f38     libeay32:obj_dat.obj
 0002:0000ef4c       ??_C@_0M@PKNKMHEG@freshestCRL?$AA@ 00075f4c     libeay32:obj_dat.obj
 0002:0000ef58       ??_C@_0BI@FMFOLFMC@Microsoft?5Local?5Key?5set?$AA@ 00075f58     libeay32:obj_dat.obj
 0002:0000ef70       ??_C@_0M@LCODBGNO@LocalKeySet?$AA@ 00075f70     libeay32:obj_dat.obj
 0002:0000ef7c       ??_C@_04FOBGICMD@hmac?$AA@ 00075f7c     libeay32:obj_dat.obj
 0002:0000ef84       ??_C@_04JCCMGALL@HMAC?$AA@ 00075f84     libeay32:obj_dat.obj
 0002:0000ef8c       ??_C@_0CJ@NCCJHEBD@GOST?5R?53410?92001?5Parameter?5Set?5C@ 00075f8c     libeay32:obj_dat.obj
 0002:0000efb8       ??_C@_0BO@LBPHKLOM@id?9GostR3410?92001?9ParamSet?9cc?$AA@ 00075fb8     libeay32:obj_dat.obj
 0002:0000efd8       ??_C@_0DB@BGOOPLFE@GOST?5R?534?411?994?5with?5GOST?5R?534?41@ 00075fd8     libeay32:obj_dat.obj
 0002:0000f00c       ??_C@_0CH@JJNMILDM@id?9GostR3411?994?9with?9GostR3410?92@ 0007600c     libeay32:obj_dat.obj
 0002:0000f034       ??_C@_0CP@ILDIBBAJ@GOST?5R?534?411?994?5with?5GOST?5R?534?41@ 00076034     libeay32:obj_dat.obj
 0002:0000f064       ??_C@_0CF@FCIKJGLH@id?9GostR3411?994?9with?9GostR3410?99@ 00076064     libeay32:obj_dat.obj
 0002:0000f08c       ??_C@_0BK@IGCJADLM@GOST?534?410?92001?5Cryptocom?$AA@ 0007608c     libeay32:obj_dat.obj
 0002:0000f0a8       ??_C@_0L@PKDOCLKG@gost2001cc?$AA@ 000760a8     libeay32:obj_dat.obj
 0002:0000f0b4       ??_C@_0BI@GJIILMEB@GOST?534?410?994?5Cryptocom?$AA@ 000760b4     libeay32:obj_dat.obj
 0002:0000f0cc       ??_C@_08LCDFMIFG@gost94cc?$AA@ 000760cc     libeay32:obj_dat.obj
 0002:0000f0d8       ??_C@_0CB@KNOPDNHN@GOST?528147?989?5Cryptocom?5ParamSet@ 000760d8     libeay32:obj_dat.obj
 0002:0000f0fc       ??_C@_0BD@MEAAKKFJ@id?9Gost28147?989?9cc?$AA@ 000760fc     libeay32:obj_dat.obj
 0002:0000f110       ??_C@_0BF@PGMBMCGF@id?9GostR3410?994?9bBis?$AA@ 00076110     libeay32:obj_dat.obj
 0002:0000f128       ??_C@_0BC@MKOAJFN@id?9GostR3410?994?9b?$AA@ 00076128     libeay32:obj_dat.obj
 0002:0000f13c       ??_C@_0BF@LBGBLILF@id?9GostR3410?994?9aBis?$AA@ 0007613c     libeay32:obj_dat.obj
 0002:0000f154       ??_C@_0BC@CHIDFKJO@id?9GostR3410?994?9a?$AA@ 00076154     libeay32:obj_dat.obj
 0002:0000f168       ??_C@_0CK@GDLEHLKF@id?9GostR3410?92001?9CryptoPro?9XchB@ 00076168     libeay32:obj_dat.obj
 0002:0000f194       ??_C@_0CK@PKFGBNKE@id?9GostR3410?92001?9CryptoPro?9XchA@ 00076194     libeay32:obj_dat.obj
 0002:0000f1c0       ??_C@_0CH@DLGDIIGO@id?9GostR3410?92001?9CryptoPro?9C?9Pa@ 000761c0     libeay32:obj_dat.obj
 0002:0000f1e8       ??_C@_0CH@PKONFHKO@id?9GostR3410?92001?9CryptoPro?9B?9Pa@ 000761e8     libeay32:obj_dat.obj
 0002:0000f210       ??_C@_0CH@GDAPDBKP@id?9GostR3410?92001?9CryptoPro?9A?9Pa@ 00076210     libeay32:obj_dat.obj
 0002:0000f238       ??_C@_0BP@GEEJLPDI@id?9GostR3410?92001?9TestParamSet?$AA@ 00076238     libeay32:obj_dat.obj
 0002:0000f258       ??_C@_0CI@DAANNIN@id?9GostR3410?994?9CryptoPro?9XchC?9P@ 00076258     libeay32:obj_dat.obj
 0002:0000f280       ??_C@_0CI@MCIOACEN@id?9GostR3410?994?9CryptoPro?9XchB?9P@ 00076280     libeay32:obj_dat.obj
 0002:0000f2a8       ??_C@_0CI@FLGMGEEM@id?9GostR3410?994?9CryptoPro?9XchA?9P@ 000762a8     libeay32:obj_dat.obj
 0002:0000f2d0       ??_C@_0CF@LMAJFDGB@id?9GostR3410?994?9CryptoPro?9D?9Para@ 000762d0     libeay32:obj_dat.obj
 0002:0000f2f8       ??_C@_0CF@JFDCEGOC@id?9GostR3410?994?9CryptoPro?9C?9Para@ 000762f8     libeay32:obj_dat.obj
 0002:0000f320       ??_C@_0CF@FELMJJCC@id?9GostR3410?994?9CryptoPro?9B?9Para@ 00076320     libeay32:obj_dat.obj
 0002:0000f348       ??_C@_0CF@MNFOPPCD@id?9GostR3410?994?9CryptoPro?9A?9Para@ 00076348     libeay32:obj_dat.obj
 0002:0000f370       ??_C@_0BN@NAOAJFAF@id?9GostR3410?994?9TestParamSet?$AA@ 00076370     libeay32:obj_dat.obj
 0002:0000f390       ??_C@_0CJ@IIADIAJH@id?9Gost28147?989?9CryptoPro?9RIC?91?9@ 00076390     libeay32:obj_dat.obj
 0002:0000f3bc       ??_C@_0CN@IIJDEMNM@id?9Gost28147?989?9CryptoPro?9Oscar?9@ 000763bc     libeay32:obj_dat.obj
 0002:0000f3ec       ??_C@_0CN@EJBNJDBM@id?9Gost28147?989?9CryptoPro?9Oscar?9@ 000763ec     libeay32:obj_dat.obj
 0002:0000f41c       ??_C@_0CF@IEBLBMOP@id?9Gost28147?989?9CryptoPro?9D?9Para@ 0007641c     libeay32:obj_dat.obj
 0002:0000f444       ??_C@_0CF@KNCAAJGM@id?9Gost28147?989?9CryptoPro?9C?9Para@ 00076444     libeay32:obj_dat.obj
 0002:0000f46c       ??_C@_0CF@GMKONGKM@id?9Gost28147?989?9CryptoPro?9B?9Para@ 0007646c     libeay32:obj_dat.obj
 0002:0000f494       ??_C@_0CF@PFEMLAKN@id?9Gost28147?989?9CryptoPro?9A?9Para@ 00076494     libeay32:obj_dat.obj
 0002:0000f4bc       ??_C@_0BN@GKJFBLMI@id?9Gost28147?989?9TestParamSet?$AA@ 000764bc     libeay32:obj_dat.obj
 0002:0000f4dc       ??_C@_0CC@DOHJLMBI@id?9GostR3411?994?9CryptoProParamSe@ 000764dc     libeay32:obj_dat.obj
 0002:0000f500       ??_C@_0BN@DPLCCDOE@id?9GostR3411?994?9TestParamSet?$AA@ 00076500     libeay32:obj_dat.obj
 0002:0000f520       ??_C@_0CA@BLJAEGEG@id?9Gost28147?989?9None?9KeyMeshing?$AA@ 00076520     libeay32:obj_dat.obj
 0002:0000f540       ??_C@_0CF@MMKONEIK@id?9Gost28147?989?9CryptoPro?9KeyMes@ 00076540     libeay32:obj_dat.obj
 0002:0000f568       ??_C@_0BD@LGKAOLPL@GOST?5R?534?410?994?5DH?$AA@ 00076568     libeay32:obj_dat.obj
 0002:0000f57c       ??_C@_0BC@CEMDDFNK@id?9GostR3410?994DH?$AA@ 0007657c     libeay32:obj_dat.obj
 0002:0000f590       ??_C@_0BF@OKPANPLK@GOST?5R?534?410?92001?5DH?$AA@ 00076590     libeay32:obj_dat.obj
 0002:0000f5a8       ??_C@_0BE@OBKEJCJB@id?9GostR3410?92001DH?$AA@ 000765a8     libeay32:obj_dat.obj
 0002:0000f5bc       ??_C@_0BE@FFELJBNB@GOST?5R?534?411?994?5PRF?$AA@ 000765bc     libeay32:obj_dat.obj
 0002:0000f5d0       ??_C@_0BB@LJIINAAP@prf?9gostr3411?994?$AA@ 000765d0     libeay32:obj_dat.obj
 0002:0000f5e4       ??_C@_0BC@BPAGAEJB@GOST?528147?989?5MAC?$AA@ 000765e4     libeay32:obj_dat.obj
 0002:0000f5f8       ??_C@_08JCNEGNFC@gost?9mac?$AA@ 000765f8     libeay32:obj_dat.obj
 0002:0000f604       ??_C@_0L@INGOKGPP@gost89?9cnt?$AA@ 00076604     libeay32:obj_dat.obj
 0002:0000f610       ??_C@_0O@POKHNLDL@GOST?528147?989?$AA@ 00076610     libeay32:obj_dat.obj
 0002:0000f620       ??_C@_06KLPDHLCD@gost89?$AA@ 00076620     libeay32:obj_dat.obj
 0002:0000f628       ??_C@_0BA@JOCBNIHN@GOST?5R?534?410?994?$AA@ 00076628     libeay32:obj_dat.obj
 0002:0000f638       ??_C@_06BPJPGPFJ@gost94?$AA@ 00076638     libeay32:obj_dat.obj
 0002:0000f640       ??_C@_0BC@IBNIHBI@GOST?5R?534?410?92001?$AA@ 00076640     libeay32:obj_dat.obj
 0002:0000f654       ??_C@_08KMPAMBCP@gost2001?$AA@ 00076654     libeay32:obj_dat.obj
 0002:0000f660       ??_C@_0BD@BHKLGKNG@HMAC?5GOST?534?411?994?$AA@ 00076660     libeay32:obj_dat.obj
 0002:0000f674       ??_C@_0BE@EBBOKDGI@id?9HMACGostR3411?994?$AA@ 00076674     libeay32:obj_dat.obj
 0002:0000f688       ??_C@_0BA@KDEBPBMN@GOST?5R?534?411?994?$AA@ 00076688     libeay32:obj_dat.obj
 0002:0000f698       ??_C@_09MIOJGGFD@md_gost94?$AA@ 00076698     libeay32:obj_dat.obj
 0002:0000f6a4       ??_C@_0CF@PAGBHGOC@GOST?5R?534?411?994?5with?5GOST?5R?534?41@ 000766a4     libeay32:obj_dat.obj
 0002:0000f6cc       ??_C@_0CC@LCAPGDKC@id?9GostR3411?994?9with?9GostR3410?99@ 000766cc     libeay32:obj_dat.obj
 0002:0000f6f0       ??_C@_0CH@MPKKPBGC@GOST?5R?534?411?994?5with?5GOST?5R?534?41@ 000766f0     libeay32:obj_dat.obj
 0002:0000f718       ??_C@_0CE@FCAOBIOC@id?9GostR3411?994?9with?9GostR3410?92@ 00076718     libeay32:obj_dat.obj
 0002:0000f73c       ??_C@_09JGBNPHGI@cryptocom?$AA@ 0007673c     libeay32:obj_dat.obj
 0002:0000f748       ??_C@_09PCHJFNLI@cryptopro?$AA@ 00076748     libeay32:obj_dat.obj
 0002:0000f754       ??_C@_09DEGKDAEL@whirlpool?$AA@ 00076754     libeay32:obj_dat.obj
 0002:0000f760       ??_C@_0BA@FMFCOCGA@dsa_with_SHA256?$AA@ 00076760     libeay32:obj_dat.obj
 0002:0000f770       ??_C@_0BA@GLCLJGGH@dsa_with_SHA224?$AA@ 00076770     libeay32:obj_dat.obj
 0002:0000f780       ??_C@_0P@FLKKCAHA@hmacWithSHA512?$AA@ 00076780     libeay32:obj_dat.obj
 0002:0000f790       ??_C@_0P@CHEKODKF@hmacWithSHA384?$AA@ 00076790     libeay32:obj_dat.obj
 0002:0000f7a0       ??_C@_0P@KFBIHFBB@hmacWithSHA256?$AA@ 000767a0     libeay32:obj_dat.obj
 0002:0000f7b0       ??_C@_0P@JCGBABBG@hmacWithSHA224?$AA@ 000767b0     libeay32:obj_dat.obj
 0002:0000f7c0       ??_C@_0M@KOBPMNIO@hmacWithMD5?$AA@ 000767c0     libeay32:obj_dat.obj
 0002:0000f7cc       ??_C@_0BC@DONDMJAG@ecdsa?9with?9SHA512?$AA@ 000767cc     libeay32:obj_dat.obj
 0002:0000f7e0       ??_C@_0BC@ECDDAKND@ecdsa?9with?9SHA384?$AA@ 000767e0     libeay32:obj_dat.obj
 0002:0000f7f4       ??_C@_0BC@MAGBJMGH@ecdsa?9with?9SHA256?$AA@ 000767f4     libeay32:obj_dat.obj
 0002:0000f808       ??_C@_0BC@PHBIOIGA@ecdsa?9with?9SHA224?$AA@ 00076808     libeay32:obj_dat.obj
 0002:0000f81c       ??_C@_0BF@INFCLNHO@ecdsa?9with?9Specified?$AA@ 0007681c     libeay32:obj_dat.obj
 0002:0000f834       ??_C@_0BH@GCJALNKM@ecdsa?9with?9Recommended?$AA@ 00076834     libeay32:obj_dat.obj
 0002:0000f84c       ??_C@_0P@KDMMBOEP@id?9aes256?9wrap?$AA@ 0007684c     libeay32:obj_dat.obj
 0002:0000f85c       ??_C@_0P@DJKBBDNG@id?9aes192?9wrap?$AA@ 0007685c     libeay32:obj_dat.obj
 0002:0000f86c       ??_C@_0P@MALLFAMO@id?9aes128?9wrap?$AA@ 0007686c     libeay32:obj_dat.obj
 0002:0000f87c       ??_C@_0BI@FNBGJEPL@id?9ct?9asciiTextWithCRLF?$AA@ 0007687c     libeay32:obj_dat.obj
 0002:0000f894       ??_C@_0BL@HEJKLKLL@id?9smime?9ct?9compressedData?$AA@ 00076894     libeay32:obj_dat.obj
 0002:0000f8b0       ??_C@_0O@LBCGFGCI@CA?5Repository?$AA@ 000768b0     libeay32:obj_dat.obj
 0002:0000f8c0       ??_C@_0N@CKNFLOGG@caRepository?$AA@ 000768c0     libeay32:obj_dat.obj
 0002:0000f8d0       ??_C@_0BD@MGCOMIO@id?9it?9suppLangTags?$AA@ 000768d0     libeay32:obj_dat.obj
 0002:0000f8e4       ??_C@_0BJ@CDGIGDFG@Diffie?9Hellman?5based?5MAC?$AA@ 000768e4     libeay32:obj_dat.obj
 0002:0000f900       ??_C@_0O@MEHCKGFD@id?9DHBasedMac?$AA@ 00076900     libeay32:obj_dat.obj
 0002:0000f910       ??_C@_0BD@FANJCJAP@password?5based?5MAC?$AA@ 00076910     libeay32:obj_dat.obj
 0002:0000f924       ??_C@_0BE@HCNFOMHA@id?9PasswordBasedMAC?$AA@ 00076924     libeay32:obj_dat.obj
 0002:0000f938       ??_C@_09KBOMLGBN@hmac?9sha1?$AA@ 00076938     libeay32:obj_dat.obj
 0002:0000f944       ??_C@_09DDFKKHO@HMAC?9SHA1?$AA@ 00076944     libeay32:obj_dat.obj
 0002:0000f950       ??_C@_08LPACCAD@hmac?9md5?$AA@ 00076950     libeay32:obj_dat.obj
 0002:0000f95c       ??_C@_08CABJBHIC@HMAC?9MD5?$AA@ 0007695c     libeay32:obj_dat.obj
 0002:0000f968       ??_C@_08JGLJJHP@seed?9cfb?$AA@ 00076968     libeay32:obj_dat.obj
 0002:0000f974       ??_C@_08LHAGIIFM@SEED?9CFB?$AA@ 00076974     libeay32:obj_dat.obj
 0002:0000f980       ??_C@_08EDLNCGMH@seed?9ofb?$AA@ 00076980     libeay32:obj_dat.obj
 0002:0000f98c       ??_C@_08PNNADHOE@SEED?9OFB?$AA@ 0007698c     libeay32:obj_dat.obj
 0002:0000f998       ??_C@_08BHHJAAOC@seed?9cbc?$AA@ 00076998     libeay32:obj_dat.obj
 0002:0000f9a4       ??_C@_08KJBEBBMB@SEED?9CBC?$AA@ 000769a4     libeay32:obj_dat.obj
 0002:0000f9b0       ??_C@_08CKMLAEEI@seed?9ecb?$AA@ 000769b0     libeay32:obj_dat.obj
 0002:0000f9bc       ??_C@_08JEKGBFGL@SEED?9ECB?$AA@ 000769bc     libeay32:obj_dat.obj
 0002:0000f9c8       ??_C@_04LLEAHKNI@kisa?$AA@ 000769c8     libeay32:obj_dat.obj
 0002:0000f9d0       ??_C@_04HHHKJIKA@KISA?$AA@ 000769d0     libeay32:obj_dat.obj
 0002:0000f9d8       ??_C@_0BK@EMNEMCDI@X509v3?5Certificate?5Issuer?$AA@ 000769d8     libeay32:obj_dat.obj
 0002:0000f9f4       ??_C@_0BC@NAJGKAHO@certificateIssuer?$AA@ 000769f4     libeay32:obj_dat.obj
 0002:0000fa08       ??_C@_0CC@MMIACGNM@X509v3?5Issuing?5Distrubution?5Poin@ 00076a08     libeay32:obj_dat.obj
 0002:0000fa2c       ??_C@_0BJ@OAOPOBMH@issuingDistributionPoint?$AA@ 00076a2c     libeay32:obj_dat.obj
 0002:0000fa48       ??_C@_0CE@OGGDDHCK@X509v3?5Subject?5Directory?5Attribu@ 00076a48     libeay32:obj_dat.obj
 0002:0000fa6c       ??_C@_0BL@GAJEKNCJ@subjectDirectoryAttributes?$AA@ 00076a6c     libeay32:obj_dat.obj
 0002:0000fa88       ??_C@_0BB@EGAOKAEM@camellia?9256?9ofb?$AA@ 00076a88     libeay32:obj_dat.obj
 0002:0000fa9c       ??_C@_0BB@FFEGHOPL@CAMELLIA?9256?9OFB?$AA@ 00076a9c     libeay32:obj_dat.obj
 0002:0000fab0       ??_C@_0BB@JELAIPMN@camellia?9192?9ofb?$AA@ 00076ab0     libeay32:obj_dat.obj
 0002:0000fac4       ??_C@_0BB@IHPIFBHK@CAMELLIA?9192?9OFB?$AA@ 00076ac4     libeay32:obj_dat.obj
 0002:0000fad8       ??_C@_0BB@DHCMPIFB@camellia?9128?9ofb?$AA@ 00076ad8     libeay32:obj_dat.obj
 0002:0000faec       ??_C@_0BB@CEGECGOG@CAMELLIA?9128?9OFB?$AA@ 00076aec     libeay32:obj_dat.obj
 0002:0000fb00       ??_C@_0BC@KNEDFCOB@camellia?9256?9cfb8?$AA@ 00076b00     libeay32:obj_dat.obj
 0002:0000fb14       ??_C@_0BC@PIFFDMBA@CAMELLIA?9256?9CFB8?$AA@ 00076b14     libeay32:obj_dat.obj
 0002:0000fb28       ??_C@_0BC@DHCOFPHI@camellia?9192?9cfb8?$AA@ 00076b28     libeay32:obj_dat.obj
 0002:0000fb3c       ??_C@_0BC@GCDIDBIJ@CAMELLIA?9192?9CFB8?$AA@ 00076b3c     libeay32:obj_dat.obj
 0002:0000fb50       ??_C@_0BC@MODEBMGA@camellia?9128?9cfb8?$AA@ 00076b50     libeay32:obj_dat.obj
 0002:0000fb64       ??_C@_0BC@JLCCHCJB@CAMELLIA?9128?9CFB8?$AA@ 00076b64     libeay32:obj_dat.obj
 0002:0000fb78       ??_C@_0BC@HMIBOJKI@camellia?9256?9cfb1?$AA@ 00076b78     libeay32:obj_dat.obj
 0002:0000fb8c       ??_C@_0BC@CJJHIHFJ@CAMELLIA?9256?9CFB1?$AA@ 00076b8c     libeay32:obj_dat.obj
 0002:0000fba0       ??_C@_0BC@OGOMOEDB@camellia?9192?9cfb1?$AA@ 00076ba0     libeay32:obj_dat.obj
 0002:0000fbb4       ??_C@_0BC@LDPKIKMA@CAMELLIA?9192?9CFB1?$AA@ 00076bb4     libeay32:obj_dat.obj
 0002:0000fbc8       ??_C@_0BC@BPPGKHCJ@camellia?9128?9cfb1?$AA@ 00076bc8     libeay32:obj_dat.obj
 0002:0000fbdc       ??_C@_0BC@EKOAMJNI@CAMELLIA?9128?9CFB1?$AA@ 00076bdc     libeay32:obj_dat.obj
 0002:0000fbf0       ??_C@_0BB@MNIBPPE@camellia?9256?9cfb?$AA@ 00076bf0     libeay32:obj_dat.obj
 0002:0000fc04       ??_C@_0BB@BPJAMBED@CAMELLIA?9256?9CFB?$AA@ 00076c04     libeay32:obj_dat.obj
 0002:0000fc18       ??_C@_0BB@NOGGDAHF@camellia?9192?9cfb?$AA@ 00076c18     libeay32:obj_dat.obj
 0002:0000fc2c       ??_C@_0BB@MNCOOOMC@CAMELLIA?9192?9CFB?$AA@ 00076c2c     libeay32:obj_dat.obj
 0002:0000fc40       ??_C@_0BB@HNPKEHOJ@camellia?9128?9cfb?$AA@ 00076c40     libeay32:obj_dat.obj
 0002:0000fc54       ??_C@_0BB@GOLCJJFO@CAMELLIA?9128?9CFB?$AA@ 00076c54     libeay32:obj_dat.obj
 0002:0000fc68       ??_C@_0BB@CPHIICMD@camellia?9256?9ecb?$AA@ 00076c68     libeay32:obj_dat.obj
 0002:0000fc7c       ??_C@_0BB@DMDAFMHE@CAMELLIA?9256?9ECB?$AA@ 00076c7c     libeay32:obj_dat.obj
 0002:0000fc90       ??_C@_0BB@PNMGKNEC@camellia?9192?9ecb?$AA@ 00076c90     libeay32:obj_dat.obj
 0002:0000fca4       ??_C@_0BB@OOIOHDPF@CAMELLIA?9192?9ECB?$AA@ 00076ca4     libeay32:obj_dat.obj
 0002:0000fcb8       ??_C@_0BB@FOFKNKNO@camellia?9128?9ecb?$AA@ 00076cb8     libeay32:obj_dat.obj
 0002:0000fccc       ??_C@_0BB@ENBCAEGJ@CAMELLIA?9128?9ECB?$AA@ 00076ccc     libeay32:obj_dat.obj
 0002:0000fce0       ??_C@_0BB@BCMKIGGJ@camellia?9256?9cbc?$AA@ 00076ce0     libeay32:obj_dat.obj
 0002:0000fcf4       ??_C@_0BB@BICFINO@CAMELLIA?9256?9CBC?$AA@ 00076cf4     libeay32:obj_dat.obj
 0002:0000fd08       ??_C@_0BB@MAHEKJOI@camellia?9192?9cbc?$AA@ 00076d08     libeay32:obj_dat.obj
 0002:0000fd1c       ??_C@_0BB@NDDMHHFP@CAMELLIA?9192?9CBC?$AA@ 00076d1c     libeay32:obj_dat.obj
 0002:0000fd30       ??_C@_0BB@GDOINOHE@camellia?9128?9cbc?$AA@ 00076d30     libeay32:obj_dat.obj
 0002:0000fd44       ??_C@_0BB@HAKAAAMD@CAMELLIA?9128?9CBC?$AA@ 00076d44     libeay32:obj_dat.obj
 0002:0000fd58       ??_C@_06DEKODPNG@ipsec4?$AA@ 00076d58     libeay32:obj_dat.obj
 0002:0000fd60       ??_C@_0O@FENFAHJA@Oakley?9EC2N?94?$AA@ 00076d60     libeay32:obj_dat.obj
 0002:0000fd70       ??_C@_06HLOPKJBB@ipsec3?$AA@ 00076d70     libeay32:obj_dat.obj
 0002:0000fd78       ??_C@_0O@BLJEJBFH@Oakley?9EC2N?93?$AA@ 00076d78     libeay32:obj_dat.obj
 0002:0000fd88       ??_C@_0BK@FPAAFIAO@X509v3?5Inhibit?5Any?5Policy?$AA@ 00076d88     libeay32:obj_dat.obj
 0002:0000fda4       ??_C@_0BB@CFCCDKGF@inhibitAnyPolicy?$AA@ 00076da4     libeay32:obj_dat.obj
 0002:0000fdb8       ??_C@_0BH@NJBPACCN@X509v3?5Policy?5Mappings?$AA@ 00076db8     libeay32:obj_dat.obj
 0002:0000fdd0       ??_C@_0P@MEGGINDP@policyMappings?$AA@ 00076dd0     libeay32:obj_dat.obj
 0002:0000fde0       ??_C@_0BC@CEEMIAHF@X509v3?5Any?5Policy?$AA@ 00076de0     libeay32:obj_dat.obj
 0002:0000fdf4       ??_C@_09HBBJOJHB@anyPolicy?$AA@ 00076df4     libeay32:obj_dat.obj
 0002:0000fe00       ??_C@_0BI@MNOLKEAO@wap?9wsg?9idm?9ecid?9wtls12?$AA@ 00076e00     libeay32:obj_dat.obj
 0002:0000fe18       ??_C@_0BI@OGMGPHMN@wap?9wsg?9idm?9ecid?9wtls11?$AA@ 00076e18     libeay32:obj_dat.obj
 0002:0000fe30       ??_C@_0BI@PPNNMGIM@wap?9wsg?9idm?9ecid?9wtls10?$AA@ 00076e30     libeay32:obj_dat.obj
 0002:0000fe48       ??_C@_0BH@DMKMEGHN@wap?9wsg?9idm?9ecid?9wtls9?$AA@ 00076e48     libeay32:obj_dat.obj
 0002:0000fe60       ??_C@_0BH@CFLHHHDM@wap?9wsg?9idm?9ecid?9wtls8?$AA@ 00076e60     libeay32:obj_dat.obj
 0002:0000fe78       ??_C@_0BH@KCCPGLPD@wap?9wsg?9idm?9ecid?9wtls7?$AA@ 00076e78     libeay32:obj_dat.obj
 0002:0000fe90       ??_C@_0BH@LLDEFKLC@wap?9wsg?9idm?9ecid?9wtls6?$AA@ 00076e90     libeay32:obj_dat.obj
 0002:0000fea8       ??_C@_0BH@JABJAJHB@wap?9wsg?9idm?9ecid?9wtls5?$AA@ 00076ea8     libeay32:obj_dat.obj
 0002:0000fec0       ??_C@_0BH@IJACDIDA@wap?9wsg?9idm?9ecid?9wtls4?$AA@ 00076ec0     libeay32:obj_dat.obj
 0002:0000fed8       ??_C@_0BH@MGEDKOPH@wap?9wsg?9idm?9ecid?9wtls3?$AA@ 00076ed8     libeay32:obj_dat.obj
 0002:0000fef0       ??_C@_0BH@PEHFMMHF@wap?9wsg?9idm?9ecid?9wtls1?$AA@ 00076ef0     libeay32:obj_dat.obj
 0002:0000ff08       ??_C@_09MPLFOIFJ@sect571r1?$AA@ 00076f08     libeay32:obj_dat.obj
 0002:0000ff14       ??_C@_09NMECHAKG@sect571k1?$AA@ 00076f14     libeay32:obj_dat.obj
 0002:0000ff20       ??_C@_09HDHNMPAD@sect409r1?$AA@ 00076f20     libeay32:obj_dat.obj
 0002:0000ff2c       ??_C@_09GAIKFHPM@sect409k1?$AA@ 00076f2c     libeay32:obj_dat.obj
 0002:0000ff38       ??_C@_09PKOJIHLL@sect283r1?$AA@ 00076f38     libeay32:obj_dat.obj
 0002:0000ff44       ??_C@_09OJBOBPEE@sect283k1?$AA@ 00076f44     libeay32:obj_dat.obj
 0002:0000ff50       ??_C@_09PBHDMODB@sect239k1?$AA@ 00076f50     libeay32:obj_dat.obj
 0002:0000ff5c       ??_C@_09INDJLGKK@sect233r1?$AA@ 00076f5c     libeay32:obj_dat.obj
 0002:0000ff68       ??_C@_09JOMOCOFF@sect233k1?$AA@ 00076f68     libeay32:obj_dat.obj
 0002:0000ff74       ??_C@_09GKDAIPGG@sect193r2?$AA@ 00076f74     libeay32:obj_dat.obj
 0002:0000ff80       ??_C@_09EBBNNMKF@sect193r1?$AA@ 00076f80     libeay32:obj_dat.obj
 0002:0000ff8c       ??_C@_09OIGABILH@sect163r2?$AA@ 00076f8c     libeay32:obj_dat.obj
 0002:0000ff98       ??_C@_09MDENELHE@sect163r1?$AA@ 00076f98     libeay32:obj_dat.obj
 0002:0000ffa4       ??_C@_09NALKNDIL@sect163k1?$AA@ 00076fa4     libeay32:obj_dat.obj
 0002:0000ffb0       ??_C@_09IKIJFPEM@sect131r2?$AA@ 00076fb0     libeay32:obj_dat.obj
 0002:0000ffbc       ??_C@_09KBKEAMIP@sect131r1?$AA@ 00076fbc     libeay32:obj_dat.obj
 0002:0000ffc8       ??_C@_09FKEAMEKH@sect113r2?$AA@ 00076fc8     libeay32:obj_dat.obj
 0002:0000ffd4       ??_C@_09HBGNJHGE@sect113r1?$AA@ 00076fd4     libeay32:obj_dat.obj
 0002:0000ffe0       ??_C@_09PDBKEDDK@secp521r1?$AA@ 00076fe0     libeay32:obj_dat.obj
 0002:0000ffec       ??_C@_09FICNEILE@secp384r1?$AA@ 00076fec     libeay32:obj_dat.obj
 0002:0000fff8       ??_C@_09NCBPAPNE@secp256k1?$AA@ 00076ff8     libeay32:obj_dat.obj
 0002:00010004       ??_C@_09NJMBIDLA@secp224r1?$AA@ 00077004     libeay32:obj_dat.obj
 0002:00010010       ??_C@_09MKDGBLEP@secp224k1?$AA@ 00077010     libeay32:obj_dat.obj
 0002:0001001c       ??_C@_09BOBJAHCM@secp192k1?$AA@ 0007701c     libeay32:obj_dat.obj
 0002:00010028       ??_C@_09OJKJDEK@secp160r2?$AA@ 00077028     libeay32:obj_dat.obj
 0002:00010034       ??_C@_09CFLHMAIJ@secp160r1?$AA@ 00077034     libeay32:obj_dat.obj
 0002:00010040       ??_C@_09DGEAFIHG@secp160k1?$AA@ 00077040     libeay32:obj_dat.obj
 0002:0001004c       ??_C@_09DOKOBNGF@secp128r2?$AA@ 0007704c     libeay32:obj_dat.obj
 0002:00010058       ??_C@_09BFIDEOKG@secp128r1?$AA@ 00077058     libeay32:obj_dat.obj
 0002:00010064       ??_C@_09BGLDIHNB@secp112r2?$AA@ 00077064     libeay32:obj_dat.obj
 0002:00010070       ??_C@_09DNJONEBC@secp112r1?$AA@ 00077070     libeay32:obj_dat.obj
 0002:0001007c       ??_C@_0L@OFJKDCBG@c2tnb431r1?$AA@ 0007707c     libeay32:obj_dat.obj
 0002:00010088       ??_C@_0L@BGFAFBLD@c2pnb368w1?$AA@ 00077088     libeay32:obj_dat.obj
 0002:00010094       ??_C@_0L@LFGCHHDN@c2tnb359v1?$AA@ 00077094     libeay32:obj_dat.obj
 0002:000100a0       ??_C@_0L@NDMGBLKL@c2pnb304w1?$AA@ 000770a0     libeay32:obj_dat.obj
 0002:000100ac       ??_C@_0L@IPNBELMC@c2pnb272w1?$AA@ 000770ac     libeay32:obj_dat.obj
 0002:000100b8       ??_C@_0L@LLIHEIJA@c2onb239v5?$AA@ 000770b8     libeay32:obj_dat.obj
 0002:000100c4       ??_C@_0L@KCJMHJNB@c2onb239v4?$AA@ 000770c4     libeay32:obj_dat.obj
 0002:000100d0       ??_C@_0L@MDEIDDLK@c2tnb239v3?$AA@ 000770d0     libeay32:obj_dat.obj
 0002:000100dc       ??_C@_0L@NKFDACPL@c2tnb239v2?$AA@ 000770dc     libeay32:obj_dat.obj
 0002:000100e8       ??_C@_0L@PBHOFBDI@c2tnb239v1?$AA@ 000770e8     libeay32:obj_dat.obj
 0002:000100f4       ??_C@_0L@FCEMHHLG@c2pnb208w1?$AA@ 000770f4     libeay32:obj_dat.obj
 0002:00010100       ??_C@_0L@LCBHAKHA@c2onb191v5?$AA@ 00077100     libeay32:obj_dat.obj
 0002:0001010c       ??_C@_0L@KLAMDLDB@c2onb191v4?$AA@ 0007710c     libeay32:obj_dat.obj
 0002:00010118       ??_C@_0L@MKNIHBFK@c2tnb191v3?$AA@ 00077118     libeay32:obj_dat.obj
 0002:00010124       ??_C@_0L@NDMDEABL@c2tnb191v2?$AA@ 00077124     libeay32:obj_dat.obj
 0002:00010130       ??_C@_0L@PIOOBDNI@c2tnb191v1?$AA@ 00077130     libeay32:obj_dat.obj
 0002:0001013c       ??_C@_0L@IHOFMEAM@c2pnb176v1?$AA@ 0007713c     libeay32:obj_dat.obj
 0002:00010148       ??_C@_0L@LPGNHPAM@c2pnb163v3?$AA@ 00077148     libeay32:obj_dat.obj
 0002:00010154       ??_C@_0L@KGHGEOEN@c2pnb163v2?$AA@ 00077154     libeay32:obj_dat.obj
 0002:00010160       ??_C@_0L@INFLBNIO@c2pnb163v1?$AA@ 00077160     libeay32:obj_dat.obj
 0002:0001016c       ??_C@_07GLJEBFP@ppBasis?$AA@ 0007716c     libeay32:obj_dat.obj
 0002:00010174       ??_C@_07ICPDEPKF@tpBasis?$AA@ 00077174     libeay32:obj_dat.obj
 0002:0001017c       ??_C@_07JEMDIFEL@onBasis?$AA@ 0007717c     libeay32:obj_dat.obj
 0002:00010184       ??_C@_0BM@PPOCDOAJ@id?9characteristic?9two?9basis?$AA@ 00077184     libeay32:obj_dat.obj
 0002:000101a0       ??_C@_07KJBJKKHG@wap?9wsg?$AA@ 000771a0     libeay32:obj_dat.obj
 0002:000101a8       ??_C@_03EOHJGACH@wap?$AA@  000771a8     libeay32:obj_dat.obj
 0002:000101ac       ??_C@_0N@GOPBJFID@certicom?9arc?$AA@ 000771ac     libeay32:obj_dat.obj
 0002:000101bc       ??_C@_0BI@NDBFOMIA@identified?9organization?$AA@ 000771bc     libeay32:obj_dat.obj
 0002:000101d4       ??_C@_06DJABMLNO@sha224?$AA@ 000771d4     libeay32:obj_dat.obj
 0002:000101dc       ??_C@_06DANBNIHA@SHA224?$AA@ 000771dc     libeay32:obj_dat.obj
 0002:000101e4       ??_C@_06PAMKOKLI@sha512?$AA@ 000771e4     libeay32:obj_dat.obj
 0002:000101ec       ??_C@_06PJBKPJBG@SHA512?$AA@ 000771ec     libeay32:obj_dat.obj
 0002:000101f4       ??_C@_06IMCKCJGN@sha384?$AA@ 000771f4     libeay32:obj_dat.obj
 0002:000101fc       ??_C@_06IFPKDKMD@SHA384?$AA@ 000771fc     libeay32:obj_dat.obj
 0002:00010204       ??_C@_06OHILPNJ@sha256?$AA@ 00077204     libeay32:obj_dat.obj
 0002:0001020c       ??_C@_06HKIKMHH@SHA256?$AA@ 0007720c     libeay32:obj_dat.obj
 0002:00010214       ??_C@_0BI@HODNLFBE@sha224WithRSAEncryption?$AA@ 00077214     libeay32:obj_dat.obj
 0002:0001022c       ??_C@_0L@BPFBIPIP@RSA?9SHA224?$AA@ 0007722c     libeay32:obj_dat.obj
 0002:00010238       ??_C@_0BI@CFKPHFJF@sha512WithRSAEncryption?$AA@ 00077238     libeay32:obj_dat.obj
 0002:00010250       ??_C@_0L@NGJKKOOJ@RSA?9SHA512?$AA@ 00077250     libeay32:obj_dat.obj
 0002:0001025c       ??_C@_0BI@LGPCJGLE@sha384WithRSAEncryption?$AA@ 0007725c     libeay32:obj_dat.obj
 0002:00010274       ??_C@_0L@KKHKGNDM@RSA?9SHA384?$AA@ 00077274     libeay32:obj_dat.obj
 0002:00010280       ??_C@_0BI@OLMNBFHG@sha256WithRSAEncryption?$AA@ 00077280     libeay32:obj_dat.obj
 0002:00010298       ??_C@_0L@CICIPLII@RSA?9SHA256?$AA@ 00077298     libeay32:obj_dat.obj
 0002:000102a4       ??_C@_0M@MLMKHJLC@Independent?$AA@ 000772a4     libeay32:obj_dat.obj
 0002:000102b0       ??_C@_0BD@JMNHHICP@id?9ppl?9independent?$AA@ 000772b0     libeay32:obj_dat.obj
 0002:000102c4       ??_C@_0BI@MLJLAGL@X509v3?5Name?5Constraints?$AA@ 000772c4     libeay32:obj_dat.obj
 0002:000102dc       ??_C@_0BA@NDBMPGLN@nameConstraints?$AA@ 000772dc     libeay32:obj_dat.obj
 0002:000102ec       ??_C@_0M@FFLAPACB@Inherit?5all?$AA@ 000772ec     libeay32:obj_dat.obj
 0002:000102f8       ??_C@_0BC@PCEJIIF@id?9ppl?9inheritAll?$AA@ 000772f8     libeay32:obj_dat.obj
 0002:0001030c       ??_C@_0N@BEBFEGLC@Any?5language?$AA@ 0007730c     libeay32:obj_dat.obj
 0002:0001031c       ??_C@_0BD@HNCKDFAM@id?9ppl?9anyLanguage?$AA@ 0007731c     libeay32:obj_dat.obj
 0002:00010330       ??_C@_0BO@CCHFGBDO@Proxy?5Certificate?5Information?$AA@ 00077330     libeay32:obj_dat.obj
 0002:00010350       ??_C@_0O@LOINHHBF@proxyCertInfo?$AA@ 00077350     libeay32:obj_dat.obj
 0002:00010360       ??_C@_06CAAPGDCJ@id?9ppl?$AA@ 00077360     libeay32:obj_dat.obj
 0002:00010368       ??_C@_0L@NCDHJCMF@postalCode?$AA@ 00077368     libeay32:obj_dat.obj
 0002:00010374       ??_C@_0O@GFJANBCD@streetAddress?$AA@ 00077374     libeay32:obj_dat.obj
 0002:00010384       ??_C@_06KFAFKEEH@street?$AA@ 00077384     libeay32:obj_dat.obj
 0002:0001038c       ??_C@_0O@KGNFGAAA@des?9ede3?9cfb8?$AA@ 0007738c     libeay32:obj_dat.obj
 0002:0001039c       ??_C@_0O@KNJKKNCK@DES?9EDE3?9CFB8?$AA@ 0007739c     libeay32:obj_dat.obj
 0002:000103ac       ??_C@_0O@HHBHNLEJ@des?9ede3?9cfb1?$AA@ 000773ac     libeay32:obj_dat.obj
 0002:000103bc       ??_C@_0O@HMFIBGGD@DES?9EDE3?9CFB1?$AA@ 000773bc     libeay32:obj_dat.obj
 0002:000103cc       ??_C@_08HKNDEPIP@des?9cfb8?$AA@ 000773cc     libeay32:obj_dat.obj
 0002:000103d8       ??_C@_08JHFHFADM@DES?9CFB8?$AA@ 000773d8     libeay32:obj_dat.obj
 0002:000103e4       ??_C@_08KLBBPEMG@des?9cfb1?$AA@ 000773e4     libeay32:obj_dat.obj
 0002:000103f0       ??_C@_08EGJFOLHF@DES?9CFB1?$AA@ 000773f0     libeay32:obj_dat.obj
 0002:000103fc       ??_C@_0N@GPAECIBG@aes?9256?9cfb8?$AA@ 000773fc     libeay32:obj_dat.obj
 0002:0001040c       ??_C@_0N@BLGJPBBG@AES?9256?9CFB8?$AA@ 0007740c     libeay32:obj_dat.obj
 0002:0001041c       ??_C@_0N@PFGJCFIP@aes?9192?9cfb8?$AA@ 0007741c     libeay32:obj_dat.obj
 0002:0001042c       ??_C@_0N@IBAEPMIP@AES?9192?9CFB8?$AA@ 0007742c     libeay32:obj_dat.obj
 0002:0001043c       ??_C@_0N@MHDGGJH@aes?9128?9cfb8?$AA@ 0007743c     libeay32:obj_dat.obj
 0002:0001044c       ??_C@_0N@HIBOLPJH@AES?9128?9CFB8?$AA@ 0007744c     libeay32:obj_dat.obj
 0002:0001045c       ??_C@_0N@LOMGJDFP@aes?9256?9cfb1?$AA@ 0007745c     libeay32:obj_dat.obj
 0002:0001046c       ??_C@_0N@MKKLEKFP@AES?9256?9CFB1?$AA@ 0007746c     libeay32:obj_dat.obj
 0002:0001047c       ??_C@_0N@CEKLJOMG@aes?9192?9cfb1?$AA@ 0007747c     libeay32:obj_dat.obj
 0002:0001048c       ??_C@_0N@FAMGEHMG@AES?9192?9CFB1?$AA@ 0007748c     libeay32:obj_dat.obj
 0002:0001049c       ??_C@_0N@NNLBNNNO@aes?9128?9cfb1?$AA@ 0007749c     libeay32:obj_dat.obj
 0002:000104ac       ??_C@_0N@KJNMAENO@AES?9128?9CFB1?$AA@ 000774ac     libeay32:obj_dat.obj
 0002:000104bc       ??_C@_0CD@POJHJMFG@Microsoft?5Universal?5Principal?5Na@ 000774bc     libeay32:obj_dat.obj
 0002:000104e0       ??_C@_05LKLAGLGM@msUPN?$AA@ 000774e0     libeay32:obj_dat.obj
 0002:000104e8       ??_C@_0BJ@BHLLFCI@Microsoft?5Smartcardlogin?$AA@ 000774e8     libeay32:obj_dat.obj
 0002:00010504       ??_C@_0BB@MJPMDGHF@msSmartcardLogin?$AA@ 00077504     libeay32:obj_dat.obj
 0002:00010518       ??_C@_0BM@PGMBEIHL@International?5Organizations?$AA@ 00077518     libeay32:obj_dat.obj
 0002:00010534       ??_C@_0BM@PBBEOBAP@international?9organizations?$AA@ 00077534     libeay32:obj_dat.obj
 0002:00010550       ??_C@_0BA@DDCJMADA@joint?9iso?9itu?9t?$AA@ 00077550     libeay32:obj_dat.obj
 0002:00010560       ??_C@_0BA@NPJCPIN@JOINT?9ISO?9ITU?9T?$AA@ 00077560     libeay32:obj_dat.obj
 0002:00010570       ??_C@_05EKLDHPCO@itu?9t?$AA@ 00077570     libeay32:obj_dat.obj
 0002:00010578       ??_C@_05LJGINOIA@ITU?9T?$AA@ 00077578     libeay32:obj_dat.obj
 0002:00010580       ??_C@_0BF@EIIDBKMM@rsaOAEPEncryptionSET?$AA@ 00077580     libeay32:obj_dat.obj
 0002:00010598       ??_C@_08PPLOLAOD@des?9cdmf?$AA@ 00077598     libeay32:obj_dat.obj
 0002:000105a4       ??_C@_08IHLOILPC@DES?9CDMF?$AA@ 000775a4     libeay32:obj_dat.obj
 0002:000105b0       ??_C@_0BA@JHOGHBHC@set?9brand?9Novus?$AA@ 000775b0     libeay32:obj_dat.obj
 0002:000105c0       ??_C@_0BF@EKCBHCKG@set?9brand?9MasterCard?$AA@ 000775c0     libeay32:obj_dat.obj
 0002:000105d8       ??_C@_0P@KADKEMKM@set?9brand?9Visa?$AA@ 000775d8     libeay32:obj_dat.obj
 0002:000105e8       ??_C@_0O@ODFDKJIN@set?9brand?9JCB?$AA@ 000775e8     libeay32:obj_dat.obj
 0002:000105f8       ??_C@_0BK@NGHCPIFJ@set?9brand?9AmericanExpress?$AA@ 000775f8     libeay32:obj_dat.obj
 0002:00010614       ??_C@_0BB@MJOMIBOM@set?9brand?9Diners?$AA@ 00077614     libeay32:obj_dat.obj
 0002:00010628       ??_C@_0BD@EBDAHFCK@set?9brand?9IATA?9ATA?$AA@ 00077628     libeay32:obj_dat.obj
 0002:0001063c       ??_C@_0BI@BMDLNIII@secure?5device?5signature?$AA@ 0007763c     libeay32:obj_dat.obj
 0002:00010654       ??_C@_0BC@HILPEDHB@setAttr?9SecDevSig?$AA@ 00077654     libeay32:obj_dat.obj
 0002:00010668       ??_C@_0BH@FLMFBHA@ICC?5or?5token?5signature?$AA@ 00077668     libeay32:obj_dat.obj
 0002:00010680       ??_C@_0BC@KFHJNGAA@setAttr?9TokICCsig?$AA@ 00077680     libeay32:obj_dat.obj
 0002:00010694       ??_C@_0BC@EEELFHMJ@cleartext?5track?52?$AA@ 00077694     libeay32:obj_dat.obj
 0002:000106a8       ??_C@_0BD@GDDCOMNC@setAttr?9T2cleartxt?$AA@ 000776a8     libeay32:obj_dat.obj
 0002:000106bc       ??_C@_0BC@MCHFBPJF@encrypted?5track?52?$AA@ 000776bc     libeay32:obj_dat.obj
 0002:000106d0       ??_C@_0O@GFEDKLID@setAttr?9T2Enc?$AA@ 000776d0     libeay32:obj_dat.obj
 0002:000106e0       ??_C@_0BE@BANBLNDJ@generate?5cryptogram?$AA@ 000776e0     libeay32:obj_dat.obj
 0002:000106f4       ??_C@_0BE@FJCINFHM@setAttr?9GenCryptgrm?$AA@ 000776f4     libeay32:obj_dat.obj
 0002:00010708       ??_C@_0BD@DMNGIJGO@setAttr?9IssCap?9Sig?$AA@ 00077708     libeay32:obj_dat.obj
 0002:0001071c       ??_C@_0BC@FKLLNJMF@setAttr?9IssCap?9T2?$AA@ 0007771c     libeay32:obj_dat.obj
 0002:00010730       ??_C@_0BD@CMJDLAHE@setAttr?9IssCap?9CVM?$AA@ 00077730     libeay32:obj_dat.obj
 0002:00010744       ??_C@_0BG@ICNBHDJ@setAttr?9Token?9B0Prime?$AA@ 00077744     libeay32:obj_dat.obj
 0002:0001075c       ??_C@_0BC@BMANBENP@setAttr?9Token?9EMV?$AA@ 0007775c     libeay32:obj_dat.obj
 0002:00010770       ??_C@_0O@NOCONBCM@set?9addPolicy?$AA@ 00077770     libeay32:obj_dat.obj
 0002:00010780       ??_C@_0BB@MADMNAKK@set?9rootKeyThumb?$AA@ 00077780     libeay32:obj_dat.obj
 0002:00010794       ??_C@_0BE@HBDPGKCG@issuer?5capabilities?$AA@ 00077794     libeay32:obj_dat.obj
 0002:000107a8       ??_C@_0P@OGFLCCKL@setAttr?9IssCap?$AA@ 000777a8     libeay32:obj_dat.obj
 0002:000107b8       ??_C@_0BC@IKOKMCIL@setAttr?9TokenType?$AA@ 000777b8     libeay32:obj_dat.obj
 0002:000107cc       ??_C@_0BN@HEFBDPEB@payment?5gateway?5capabilities?$AA@ 000777cc     libeay32:obj_dat.obj
 0002:000107ec       ??_C@_0BA@FAIFDKDK@setAttr?9PGWYcap?$AA@ 000777ec     libeay32:obj_dat.obj
 0002:000107fc       ??_C@_0N@DCNKAAPN@setAttr?9Cert?$AA@ 000777fc     libeay32:obj_dat.obj
 0002:0001080c       ??_C@_0BL@OLCLGJDA@setCext?9IssuerCapabilities?$AA@ 0007780c     libeay32:obj_dat.obj
 0002:00010828       ??_C@_0BC@KMFGLCBL@setCext?9TokenType?$AA@ 00077828     libeay32:obj_dat.obj
 0002:0001083c       ??_C@_0BD@FHFLAKJD@setCext?9Track2Data?$AA@ 0007783c     libeay32:obj_dat.obj
 0002:00010850       ??_C@_0BI@FIIEHNL@setCext?9TokenIdentifier?$AA@ 00077850     libeay32:obj_dat.obj
 0002:00010868       ??_C@_0BJ@CNLNHONG@setCext?9PGWYcapabilities?$AA@ 00077868     libeay32:obj_dat.obj
 0002:00010884       ??_C@_0BB@HIAOOOIO@setCext?9setQualf?$AA@ 00077884     libeay32:obj_dat.obj
 0002:00010898       ??_C@_0P@DFHCPLJG@setCext?9setExt?$AA@ 00077898     libeay32:obj_dat.obj
 0002:000108a8       ??_C@_0BC@BPADJLFJ@setCext?9tunneling?$AA@ 000778a8     libeay32:obj_dat.obj
 0002:000108bc       ??_C@_0BG@CMNKGOHO@setCext?9cCertRequired?$AA@ 000778bc     libeay32:obj_dat.obj
 0002:000108d4       ??_C@_0BC@ONMLOIHK@setCext?9merchData?$AA@ 000778d4     libeay32:obj_dat.obj
 0002:000108e8       ??_C@_0BB@LHGCHNFD@setCext?9certType?$AA@ 000778e8     libeay32:obj_dat.obj
 0002:000108fc       ??_C@_0BD@MELPLACB@setCext?9hashedRoot?$AA@ 000778fc     libeay32:obj_dat.obj
 0002:00010910       ??_C@_0BA@DLJGCPKK@set?9policy?9root?$AA@ 00077910     libeay32:obj_dat.obj
 0002:00010920       ??_C@_0BI@MFPOFNGC@additional?5verification?$AA@ 00077920     libeay32:obj_dat.obj
 0002:00010938       ??_C@_09GMOEIEJI@setext?9cv?$AA@ 00077938     libeay32:obj_dat.obj
 0002:00010944       ??_C@_0O@PNAFPHHK@setext?9track2?$AA@ 00077944     libeay32:obj_dat.obj
 0002:00010954       ??_C@_0O@PNHGIFHA@setext?9pinAny?$AA@ 00077954     libeay32:obj_dat.obj
 0002:00010964       ??_C@_0BB@IKLFBNP@setext?9pinSecure?$AA@ 00077964     libeay32:obj_dat.obj
 0002:00010978       ??_C@_0BI@IMGNFPLI@merchant?5initiated?5auth?$AA@ 00077978     libeay32:obj_dat.obj
 0002:00010990       ??_C@_0O@IFMPKKOL@setext?9miAuth?$AA@ 00077990     libeay32:obj_dat.obj
 0002:000109a0       ??_C@_0BD@IMJHIOH@generic?5cryptogram?$AA@ 000779a0     libeay32:obj_dat.obj
 0002:000109b4       ??_C@_0BA@NKJJMGPC@setext?9genCrypt?$AA@ 000779b4     libeay32:obj_dat.obj
 0002:000109c4       ??_C@_0BJ@BPGLEKIJ@setct?9BCIDistributionTBS?$AA@ 000779c4     libeay32:obj_dat.obj
 0002:000109e0       ??_C@_0BM@GINBKIMJ@setct?9CRLNotificationResTBS?$AA@ 000779e0     libeay32:obj_dat.obj
 0002:000109fc       ??_C@_0BJ@KMIJGANO@setct?9CRLNotificationTBS?$AA@ 000779fc     libeay32:obj_dat.obj
 0002:00010a18       ??_C@_0BB@KEDMFAIN@setct?9CertResTBE?$AA@ 00077a18     libeay32:obj_dat.obj
 0002:00010a2c       ??_C@_0BC@KMAHLFJK@setct?9CertReqTBEX?$AA@ 00077a2c     libeay32:obj_dat.obj
 0002:00010a40       ??_C@_0BB@NOPMADON@setct?9CertReqTBE?$AA@ 00077a40     libeay32:obj_dat.obj
 0002:00010a54       ??_C@_0BE@MIADHNEP@setct?9RegFormReqTBE?$AA@ 00077a54     libeay32:obj_dat.obj
 0002:00010a68       ??_C@_0BH@PFFPEIML@setct?9BatchAdminResTBE?$AA@ 00077a68     libeay32:obj_dat.obj
 0002:00010a80       ??_C@_0BH@IPJPBLKL@setct?9BatchAdminReqTBE?$AA@ 00077a80     libeay32:obj_dat.obj
 0002:00010a98       ??_C@_0BE@MGLMPAHD@setct?9CredRevResTBE?$AA@ 00077a98     libeay32:obj_dat.obj
 0002:00010aac       ??_C@_0BF@PGGAOKCB@setct?9CredRevReqTBEX?$AA@ 00077aac     libeay32:obj_dat.obj
 0002:00010ac4       ??_C@_0BE@LMHMKDBD@setct?9CredRevReqTBE?$AA@ 00077ac4     libeay32:obj_dat.obj
 0002:00010ad8       ??_C@_0BB@NFFENEIP@setct?9CredResTBE?$AA@ 00077ad8     libeay32:obj_dat.obj
 0002:00010aec       ??_C@_0BC@ECHILMDC@setct?9CredReqTBEX?$AA@ 00077aec     libeay32:obj_dat.obj
 0002:00010b00       ??_C@_0BB@KPJEIHOP@setct?9CredReqTBE?$AA@ 00077b00     libeay32:obj_dat.obj
 0002:00010b14       ??_C@_0BD@GIBDNMDG@setct?9CapRevResTBE?$AA@ 00077b14     libeay32:obj_dat.obj
 0002:00010b28       ??_C@_0BE@PAHIPABC@setct?9CapRevReqTBEX?$AA@ 00077b28     libeay32:obj_dat.obj
 0002:00010b3c       ??_C@_0BD@BCNDIPFG@setct?9CapRevReqTBE?$AA@ 00077b3c     libeay32:obj_dat.obj
 0002:00010b50       ??_C@_0BA@MEFGIEBL@setct?9CapResTBE?$AA@ 00077b50     libeay32:obj_dat.obj
 0002:00010b60       ??_C@_0BB@LFALOJDP@setct?9CapReqTBEX?$AA@ 00077b60     libeay32:obj_dat.obj
 0002:00010b74       ??_C@_0BA@LOJGNHHL@setct?9CapReqTBE?$AA@ 00077b74     libeay32:obj_dat.obj
 0002:00010b84       ??_C@_0BF@KKFFJIHO@setct?9AuthRevResTBEB?$AA@ 00077b84     libeay32:obj_dat.obj
 0002:00010b9c       ??_C@_0BE@MHAGABNC@setct?9AuthRevResTBE?$AA@ 00077b9c     libeay32:obj_dat.obj
 0002:00010bb0       ??_C@_0BE@LNMGFCLC@setct?9AuthRevReqTBE?$AA@ 00077bb0     libeay32:obj_dat.obj
 0002:00010bc4       ??_C@_0BI@PALCIALL@setct?9AcqCardCodeMsgTBE?$AA@ 00077bc4     libeay32:obj_dat.obj
 0002:00010bdc       ??_C@_0BD@OMCOOIME@setct?9CapTokenTBEX?$AA@ 00077bdc     libeay32:obj_dat.obj
 0002:00010bf0       ??_C@_0BC@CIKKDLAH@setct?9CapTokenTBE?$AA@ 00077bf0     libeay32:obj_dat.obj
 0002:00010c04       ??_C@_0BD@DHGMJDKO@setct?9AuthTokenTBE?$AA@ 00077c04     libeay32:obj_dat.obj
 0002:00010c18       ??_C@_0BC@OEOIIPOH@setct?9AuthResTBEX?$AA@ 00077c18     libeay32:obj_dat.obj
 0002:00010c2c       ??_C@_0BB@IDPADFEK@setct?9AuthResTBE?$AA@ 00077c2c     libeay32:obj_dat.obj
 0002:00010c40       ??_C@_0BB@PJDAGGCK@setct?9AuthReqTBE?$AA@ 00077c40     libeay32:obj_dat.obj
 0002:00010c54       ??_C@_0BE@IBOAPLDD@setct?9PIUnsignedTBE?$AA@ 00077c54     libeay32:obj_dat.obj
 0002:00010c68       ??_C@_0BG@JDDNBPAG@setct?9PIDualSignedTBE?$AA@ 00077c68     libeay32:obj_dat.obj
 0002:00010c80       ??_C@_0P@DLHKHMDJ@setct?9ErrorTBS?$AA@ 00077c80     libeay32:obj_dat.obj
 0002:00010c90       ??_C@_0BE@OIDIJLCF@setct?9CertInqReqTBS?$AA@ 00077c90     libeay32:obj_dat.obj
 0002:00010ca4       ??_C@_0BC@BIIFIBNO@setct?9CertResData?$AA@ 00077ca4     libeay32:obj_dat.obj
 0002:00010cb8       ??_C@_0BB@MCGELGDK@setct?9CertReqTBS?$AA@ 00077cb8     libeay32:obj_dat.obj
 0002:00010ccc       ??_C@_0BC@FFENCANF@setct?9CertReqData?$AA@ 00077ccc     libeay32:obj_dat.obj
 0002:00010ce0       ??_C@_0BE@KOFLJLPI@setct?9RegFormResTBS?$AA@ 00077ce0     libeay32:obj_dat.obj
 0002:00010cf4       ??_C@_0BG@DIBJJIJB@setct?9MeAqCInitResTBS?$AA@ 00077cf4     libeay32:obj_dat.obj
 0002:00010d0c       ??_C@_0BG@OMHIHPPP@setct?9CardCInitResTBS?$AA@ 00077d0c     libeay32:obj_dat.obj
 0002:00010d24       ??_C@_0BI@IHGLAGGD@setct?9BatchAdminResData?$AA@ 00077d24     libeay32:obj_dat.obj
 0002:00010d3c       ??_C@_0BI@MKKDKHGI@setct?9BatchAdminReqData?$AA@ 00077d3c     libeay32:obj_dat.obj
 0002:00010d54       ??_C@_0BC@CFHCKIIA@setct?9PCertResTBS?$AA@ 00077d54     libeay32:obj_dat.obj
 0002:00010d68       ??_C@_0BD@DDNGMNFC@setct?9PCertReqData?$AA@ 00077d68     libeay32:obj_dat.obj
 0002:00010d7c       ??_C@_0BF@ECOCNOGF@setct?9CredRevResData?$AA@ 00077d7c     libeay32:obj_dat.obj
 0002:00010d94       ??_C@_0BF@OOMLDFOD@setct?9CredRevReqTBSX?$AA@ 00077d94     libeay32:obj_dat.obj
 0002:00010dac       ??_C@_0BE@KAOEBGME@setct?9CredRevReqTBS?$AA@ 00077dac     libeay32:obj_dat.obj
 0002:00010dc0       ??_C@_0BC@PGPKIIHG@setct?9CredResData?$AA@ 00077dc0     libeay32:obj_dat.obj
 0002:00010dd4       ??_C@_0BC@FKNDGDPA@setct?9CredReqTBSX?$AA@ 00077dd4     libeay32:obj_dat.obj
 0002:00010de8       ??_C@_0BB@LDAMDCDI@setct?9CredReqTBS?$AA@ 00077de8     libeay32:obj_dat.obj
 0002:00010dfc       ??_C@_0BE@EEPKMEFG@setct?9CapRevResData?$AA@ 00077dfc     libeay32:obj_dat.obj
 0002:00010e10       ??_C@_0BE@OINDCPNA@setct?9CapRevReqTBSX?$AA@ 00077e10     libeay32:obj_dat.obj
 0002:00010e24       ??_C@_0BD@OELDKIB@setct?9CapRevReqTBS?$AA@ 00077e24     libeay32:obj_dat.obj
 0002:00010e38       ??_C@_0BB@BIJNNHL@setct?9CapResData?$AA@ 00077e38     libeay32:obj_dat.obj
 0002:00010e4c       ??_C@_0BB@KNKADGPN@setct?9CapReqTBSX?$AA@ 00077e4c     libeay32:obj_dat.obj
 0002:00010e60       ??_C@_0BA@KCAOGCKM@setct?9CapReqTBS?$AA@ 00077e60     libeay32:obj_dat.obj
 0002:00010e70       ??_C@_0BE@NLJOLEAF@setct?9AuthRevResTBS?$AA@ 00077e70     libeay32:obj_dat.obj
 0002:00010e84       ??_C@_0BF@ODDCPHOK@setct?9AuthRevResData?$AA@ 00077e84     libeay32:obj_dat.obj
 0002:00010e9c       ??_C@_0BE@KBFOOHGF@setct?9AuthRevReqTBS?$AA@ 00077e9c     libeay32:obj_dat.obj
 0002:00010eb0       ??_C@_0BF@LAOAGKEH@setct?9AcqCardCodeMsg?$AA@ 00077eb0     libeay32:obj_dat.obj
 0002:00010ec8       ??_C@_0BC@DEDCIONA@setct?9CapTokenTBS?$AA@ 00077ec8     libeay32:obj_dat.obj
 0002:00010edc       ??_C@_0BD@BFGEHNIL@setct?9CapTokenData?$AA@ 00077edc     libeay32:obj_dat.obj
 0002:00010ef0       ??_C@_0BD@CLPECGHJ@setct?9AuthTokenTBS?$AA@ 00077ef0     libeay32:obj_dat.obj
 0002:00010f04       ??_C@_0BC@PMEDFACF@setct?9AuthResTBSX?$AA@ 00077f04     libeay32:obj_dat.obj
 0002:00010f18       ??_C@_0BB@JPGIIAJN@setct?9AuthResTBS?$AA@ 00077f18     libeay32:obj_dat.obj
 0002:00010f2c       ??_C@_0BB@OFKINDPN@setct?9AuthReqTBS?$AA@ 00077f2c     libeay32:obj_dat.obj
 0002:00010f40       ??_C@_0P@NGDEPBBH@setct?9PResData?$AA@ 00077f40     libeay32:obj_dat.obj
 0002:00010f50       ??_C@_0N@GIGHFPBJ@setct?9PI?9TBS?$AA@ 00077f50     libeay32:obj_dat.obj
 0002:00010f60       ??_C@_0BD@GIEGHJGD@setct?9PInitResData?$AA@ 00077f60     libeay32:obj_dat.obj
 0002:00010f74       ??_C@_0BC@DDFFKACM@setct?9CapTokenSeq?$AA@ 00077f74     libeay32:obj_dat.obj
 0002:00010f88       ??_C@_0BI@CNLKCNFM@setct?9AuthRevResBaggage?$AA@ 00077f88     libeay32:obj_dat.obj
 0002:00010fa0       ??_C@_0BI@DEMAFNK@setct?9AuthRevReqBaggage?$AA@ 00077fa0     libeay32:obj_dat.obj
 0002:00010fb8       ??_C@_0BF@EFHLGKOJ@setct?9AuthResBaggage?$AA@ 00077fb8     libeay32:obj_dat.obj
 0002:00010fd0       ??_C@_0P@LPBKKIBL@setct?9HODInput?$AA@ 00077fd0     libeay32:obj_dat.obj
 0002:00010fe0       ??_C@_0BF@BDFGFMFJ@setct?9PIDataUnsigned?$AA@ 00077fe0     libeay32:obj_dat.obj
 0002:00010ff8       ??_C@_0N@PGCGIPOF@setct?9PIData?$AA@ 00077ff8     libeay32:obj_dat.obj
 0002:00011008       ??_C@_08MNJJNIEC@setct?9PI?$AA@ 00078008     libeay32:obj_dat.obj
 0002:00011014       ??_C@_0N@GHLAGDMC@setct?9OIData?$AA@ 00078014     libeay32:obj_dat.obj
 0002:00011024       ??_C@_0O@PFJCCKAL@setct?9PANOnly?$AA@ 00078024     libeay32:obj_dat.obj
 0002:00011034       ??_C@_0P@LAMDLEMO@setct?9PANToken?$AA@ 00078034     libeay32:obj_dat.obj
 0002:00011044       ??_C@_0O@EKAPGBNN@setct?9PANData?$AA@ 00078044     libeay32:obj_dat.obj
 0002:00011054       ??_C@_09JHODGPNO@set?9brand?$AA@ 00078054     libeay32:obj_dat.obj
 0002:00011060       ??_C@_0BH@PDPIEGPA@certificate?5extensions?$AA@ 00078060     libeay32:obj_dat.obj
 0002:00011078       ??_C@_0M@KEIBDDC@set?9certExt?$AA@ 00078078     libeay32:obj_dat.obj
 0002:00011084       ??_C@_0L@LAAAKICM@set?9policy?$AA@ 00078084     libeay32:obj_dat.obj
 0002:00011090       ??_C@_08OFDIOKIA@set?9attr?$AA@ 00078090     libeay32:obj_dat.obj
 0002:0001109c       ??_C@_0BD@LEIDLLNO@message?5extensions?$AA@ 0007809c     libeay32:obj_dat.obj
 0002:000110b0       ??_C@_0L@PKPEIEIJ@set?9msgExt?$AA@ 000780b0     libeay32:obj_dat.obj
 0002:000110bc       ??_C@_0O@HJGLMADJ@content?5types?$AA@ 000780bc     libeay32:obj_dat.obj
 0002:000110cc       ??_C@_09EJPBIJJA@set?9ctype?$AA@ 000780cc     libeay32:obj_dat.obj
 0002:000110d8       ??_C@_0BP@KEIHJPNF@Secure?5Electronic?5Transactions?$AA@ 000780d8     libeay32:obj_dat.obj
 0002:000110f8       ??_C@_06KKEMDFAF@id?9set?$AA@ 000780f8     libeay32:obj_dat.obj
 0002:00011100       ??_C@_09NNMENHIH@pseudonym?$AA@ 00078100     libeay32:obj_dat.obj
 0002:0001110c       ??_C@_0BE@DAEHFOO@generationQualifier?$AA@ 0007810c     libeay32:obj_dat.obj
 0002:00011120       ??_C@_0BJ@KCNAIDP@id?9hex?9multipart?9message?$AA@ 00078120     libeay32:obj_dat.obj
 0002:0001113c       ??_C@_0BH@ILCJEHBB@id?9hex?9partial?9message?$AA@ 0007813c     libeay32:obj_dat.obj
 0002:00011154       ??_C@_0BA@MOFCNIEE@mime?9mhs?9bodies?$AA@ 00078154     libeay32:obj_dat.obj
 0002:00011164       ??_C@_0BC@NIFMCBEJ@mime?9mhs?9headings?$AA@ 00078164     libeay32:obj_dat.obj
 0002:00011178       ??_C@_08DNBACEKK@MIME?5MHS?$AA@ 00078178     libeay32:obj_dat.obj
 0002:00011184       ??_C@_08HLONPBDI@mime?9mhs?$AA@ 00078184     libeay32:obj_dat.obj
 0002:00011190       ??_C@_0BF@EFCCADKK@x500UniqueIdentifier?$AA@ 00078190     libeay32:obj_dat.obj
 0002:000111a8       ??_C@_0BC@KCCHJGGO@documentPublisher?$AA@ 000781a8     libeay32:obj_dat.obj
 0002:000111bc       ??_C@_05KNIAAKIP@audio?$AA@ 000781bc     libeay32:obj_dat.obj
 0002:000111c4       ??_C@_0M@KIABODOB@dITRedirect?$AA@ 000781c4     libeay32:obj_dat.obj
 0002:000111d0       ??_C@_0BC@CBOFINFC@personalSignature?$AA@ 000781d0     libeay32:obj_dat.obj
 0002:000111e4       ??_C@_0BG@FLFPEGPE@subtreeMaximumQuality?$AA@ 000781e4     libeay32:obj_dat.obj
 0002:000111fc       ??_C@_0BG@HMOECBMF@subtreeMinimumQuality?$AA@ 000781fc     libeay32:obj_dat.obj
 0002:00011214       ??_C@_0BD@EHDOPADK@singleLevelQuality?$AA@ 00078214     libeay32:obj_dat.obj
 0002:00011228       ??_C@_0L@LMCCHBHL@dSAQuality?$AA@ 00078228     libeay32:obj_dat.obj
 0002:00011234       ??_C@_0N@POAALOHC@buildingName?$AA@ 00078234     libeay32:obj_dat.obj
 0002:00011244       ??_C@_0BF@OFOHKDCI@mailPreferenceOption?$AA@ 00078244     libeay32:obj_dat.obj
 0002:0001125c       ??_C@_0N@DGNBNBGJ@janetMailbox?$AA@ 0007825c     libeay32:obj_dat.obj
 0002:0001126c       ??_C@_0BF@IANLBJMF@organizationalStatus?$AA@ 0007826c     libeay32:obj_dat.obj
 0002:00011284       ??_C@_0BE@MGDAFGCM@friendlyCountryName?$AA@ 00078284     libeay32:obj_dat.obj
 0002:00011298       ??_C@_0BF@JICDDEFM@pagerTelephoneNumber?$AA@ 00078298     libeay32:obj_dat.obj
 0002:000112b0       ??_C@_0BG@DCPABLLG@mobileTelephoneNumber?$AA@ 000782b0     libeay32:obj_dat.obj
 0002:000112c8       ??_C@_0O@CCHLDBGG@personalTitle?$AA@ 000782c8     libeay32:obj_dat.obj
 0002:000112d8       ??_C@_0BC@NPJKACJF@homePostalAddress?$AA@ 000782d8     libeay32:obj_dat.obj
 0002:000112ec       ??_C@_0P@OJOOFNGB@associatedName?$AA@ 000782ec     libeay32:obj_dat.obj
 0002:000112fc       ??_C@_0BB@MEFMIBKO@associatedDomain?$AA@ 000782fc     libeay32:obj_dat.obj
 0002:00011310       ??_C@_0M@GHEAGPOE@cNAMERecord?$AA@ 00078310     libeay32:obj_dat.obj
 0002:0001131c       ??_C@_09OCFHDJJF@sOARecord?$AA@ 0007831c     libeay32:obj_dat.obj
 0002:00011328       ??_C@_08FBLONLGA@nSRecord?$AA@ 00078328     libeay32:obj_dat.obj
 0002:00011334       ??_C@_08DFFJPLPD@mXRecord?$AA@ 00078334     libeay32:obj_dat.obj
 0002:00011340       ??_C@_0BF@MIIMJDJB@pilotAttributeType27?$AA@ 00078340     libeay32:obj_dat.obj
 0002:00011358       ??_C@_07IBNMBOJB@aRecord?$AA@ 00078358     libeay32:obj_dat.obj
 0002:00011360       ??_C@_0P@ECLEJAJJ@lastModifiedBy?$AA@ 00078360     libeay32:obj_dat.obj
 0002:00011370       ??_C@_0BB@LHLABCIP@lastModifiedTime?$AA@ 00078370     libeay32:obj_dat.obj
 0002:00011384       ??_C@_0N@CEOKELFP@otherMailbox?$AA@ 00078384     libeay32:obj_dat.obj
 0002:00011394       ??_C@_09EMBFDNKC@secretary?$AA@ 00078394     libeay32:obj_dat.obj
 0002:000113a0       ??_C@_0BE@CPLAKLNE@homeTelephoneNumber?$AA@ 000783a0     libeay32:obj_dat.obj
 0002:000113b4       ??_C@_0BB@COFKDFJ@documentLocation?$AA@ 000783b4     libeay32:obj_dat.obj
 0002:000113c8       ??_C@_0P@DABDJKFB@documentAuthor?$AA@ 000783c8     libeay32:obj_dat.obj
 0002:000113d8       ??_C@_0BA@GHOLKFM@documentVersion?$AA@ 000783d8     libeay32:obj_dat.obj
 0002:000113e8       ??_C@_0O@BDIDABAC@documentTitle?$AA@ 000783e8     libeay32:obj_dat.obj
 0002:000113f8       ??_C@_0BD@MEPJGCEO@documentIdentifier?$AA@ 000783f8     libeay32:obj_dat.obj
 0002:0001140c       ??_C@_07JPLKDPHP@manager?$AA@ 0007840c     libeay32:obj_dat.obj
 0002:00011414       ??_C@_04OODOLJMA@host?$AA@ 00078414     libeay32:obj_dat.obj
 0002:0001141c       ??_C@_09CCPGMHEM@userClass?$AA@ 0007841c     libeay32:obj_dat.obj
 0002:00011428       ??_C@_05DOIFDPKA@photo?$AA@ 00078428     libeay32:obj_dat.obj
 0002:00011430       ??_C@_0L@DGKNANFO@roomNumber?$AA@ 00078430     libeay32:obj_dat.obj
 0002:0001143c       ??_C@_0P@PAMFCEKP@favouriteDrink?$AA@ 0007843c     libeay32:obj_dat.obj
 0002:0001144c       ??_C@_04NIDJFNBE@info?$AA@ 0007844c     libeay32:obj_dat.obj
 0002:00011454       ??_C@_0O@PDNFEOHL@rfc822Mailbox?$AA@ 00078454     libeay32:obj_dat.obj
 0002:00011464       ??_C@_04FFKLPPHM@mail?$AA@ 00078464     libeay32:obj_dat.obj
 0002:0001146c       ??_C@_0BF@HDIIKJDI@textEncodedORAddress?$AA@ 0007846c     libeay32:obj_dat.obj
 0002:00011484       ??_C@_06LPELCIKE@userId?$AA@ 00078484     libeay32:obj_dat.obj
 0002:0001148c       ??_C@_03MJDGODDN@UID?$AA@  0007848c     libeay32:obj_dat.obj
 0002:00011490       ??_C@_0BE@DDFOMMI@qualityLabelledData?$AA@ 00078490     libeay32:obj_dat.obj
 0002:000114a4       ??_C@_08MPJGPMC@pilotDSA?$AA@ 000784a4     libeay32:obj_dat.obj
 0002:000114b0       ??_C@_0BC@PLDKCMI@pilotOrganization?$AA@ 000784b0     libeay32:obj_dat.obj
 0002:000114c4       ??_C@_0BF@CONLNHDI@simpleSecurityObject?$AA@ 000784c4     libeay32:obj_dat.obj
 0002:000114dc       ??_C@_0BA@LKHIAMBK@friendlyCountry?$AA@ 000784dc     libeay32:obj_dat.obj
 0002:000114ec       ??_C@_0BE@OPAPHNCO@domainRelatedObject?$AA@ 000784ec     libeay32:obj_dat.obj
 0002:00011500       ??_C@_09BOCGGGMK@dNSDomain?$AA@ 00078500     libeay32:obj_dat.obj
 0002:0001150c       ??_C@_0BA@KIAIOBLD@rFC822localPart?$AA@ 0007850c     libeay32:obj_dat.obj
 0002:0001151c       ??_C@_0P@OAPEDDHP@documentSeries?$AA@ 0007851c     libeay32:obj_dat.obj
 0002:0001152c       ??_C@_04EKFCMFOP@room?$AA@ 0007852c     libeay32:obj_dat.obj
 0002:00011534       ??_C@_08JEEDKNPB@document?$AA@ 00078534     libeay32:obj_dat.obj
 0002:00011540       ??_C@_07PMDLEBNF@account?$AA@ 00078540     libeay32:obj_dat.obj
 0002:00011548       ??_C@_0M@NCGDCEIP@pilotPerson?$AA@ 00078548     libeay32:obj_dat.obj
 0002:00011554       ??_C@_0M@MCCFCPKP@pilotObject?$AA@ 00078554     libeay32:obj_dat.obj
 0002:00011560       ??_C@_0BK@LELMGJGD@caseIgnoreIA5StringSyntax?$AA@ 00078560     libeay32:obj_dat.obj
 0002:0001157c       ??_C@_0BA@KPIIGILK@iA5StringSyntax?$AA@ 0007857c     libeay32:obj_dat.obj
 0002:0001158c       ??_C@_0M@DLMEDAFC@pilotGroups?$AA@ 0007858c     libeay32:obj_dat.obj
 0002:00011598       ??_C@_0BB@MJFNAIDM@pilotObjectClass?$AA@ 00078598     libeay32:obj_dat.obj
 0002:000115ac       ??_C@_0BF@CDEFHHCF@pilotAttributeSyntax?$AA@ 000785ac     libeay32:obj_dat.obj
 0002:000115c4       ??_C@_0BD@NEGIHOAI@pilotAttributeType?$AA@ 000785c4     libeay32:obj_dat.obj
 0002:000115d8       ??_C@_05KIBFDOPF@pilot?$AA@ 000785d8     libeay32:obj_dat.obj
 0002:000115e0       ??_C@_03BIDCBJP@ucl?$AA@   000785e0     libeay32:obj_dat.obj
 0002:000115e4       ??_C@_03OHCBHMED@pss?$AA@  000785e4     libeay32:obj_dat.obj
 0002:000115e8       ??_C@_04PJOLNDGD@data?$AA@ 000785e8     libeay32:obj_dat.obj
 0002:000115f0       ??_C@_0BI@EEABHGCD@Hold?5Instruction?5Reject?$AA@ 000785f0     libeay32:obj_dat.obj
 0002:00011608       ??_C@_0BG@BDAACIJE@holdInstructionReject?$AA@ 00078608     libeay32:obj_dat.obj
 0002:00011620       ??_C@_0BN@IJKNPIFC@Hold?5Instruction?5Call?5Issuer?$AA@ 00078620     libeay32:obj_dat.obj
 0002:00011640       ??_C@_0BK@ENEKHHMB@holdInstructionCallIssuer?$AA@ 00078640     libeay32:obj_dat.obj
 0002:0001165c       ??_C@_0BG@ECBIHNGK@Hold?5Instruction?5None?$AA@ 0007865c     libeay32:obj_dat.obj
 0002:00011674       ??_C@_0BE@KPEIPHPJ@holdInstructionNone?$AA@ 00078674     libeay32:obj_dat.obj
 0002:00011688       ??_C@_0BG@LHBPDMAN@Hold?5Instruction?5Code?$AA@ 00078688     libeay32:obj_dat.obj
 0002:000116a0       ??_C@_0BE@FKEPLGJO@holdInstructionCode?$AA@ 000786a0     libeay32:obj_dat.obj
 0002:000116b4       ??_C@_0M@JMFNEPEI@aes?9256?9cfb?$AA@ 000786b4     libeay32:obj_dat.obj
 0002:000116c0       ??_C@_0M@EAFGNFML@AES?9256?9CFB?$AA@ 000786c0     libeay32:obj_dat.obj
 0002:000116cc       ??_C@_0M@NGILPAPA@aes?9256?9ofb?$AA@ 000786cc     libeay32:obj_dat.obj
 0002:000116d8       ??_C@_0M@KIAGKHD@AES?9256?9OFB?$AA@ 000786d8     libeay32:obj_dat.obj
 0002:000116e4       ??_C@_0M@ICEPNGNF@aes?9256?9cbc?$AA@ 000786e4     libeay32:obj_dat.obj
 0002:000116f0       ??_C@_0M@FOEEEMFG@AES?9256?9CBC?$AA@ 000786f0     libeay32:obj_dat.obj
 0002:000116fc       ??_C@_0M@LPPNNCHP@aes?9256?9ecb?$AA@ 000786fc     libeay32:obj_dat.obj
 0002:00011708       ??_C@_0M@GDPGEIPM@AES?9256?9ECB?$AA@ 00078708     libeay32:obj_dat.obj
 0002:00011714       ??_C@_0M@EOODGAMJ@aes?9192?9cfb?$AA@ 00078714     libeay32:obj_dat.obj
 0002:00011720       ??_C@_0M@JCOIPKEK@AES?9192?9CFB?$AA@ 00078720     libeay32:obj_dat.obj
 0002:0001172c       ??_C@_0M@EDFNPHB@aes?9192?9ofb?$AA@ 0007872c     libeay32:obj_dat.obj
 0002:00011738       ??_C@_0M@NIDOEFPC@AES?9192?9OFB?$AA@ 00078738     libeay32:obj_dat.obj
 0002:00011744       ??_C@_0M@FAPBPJFE@aes?9192?9cbc?$AA@ 00078744     libeay32:obj_dat.obj
 0002:00011750       ??_C@_0M@IMPKGDNH@AES?9192?9CBC?$AA@ 00078750     libeay32:obj_dat.obj
 0002:0001175c       ??_C@_0M@GNEDPNPO@aes?9192?9ecb?$AA@ 0007875c     libeay32:obj_dat.obj
 0002:00011768       ??_C@_0M@LBEIGHHN@AES?9192?9ECB?$AA@ 00078768     libeay32:obj_dat.obj
 0002:00011774       ??_C@_0M@ONHPBHFF@aes?9128?9cfb?$AA@ 00078774     libeay32:obj_dat.obj
 0002:00011780       ??_C@_0M@DBHEINNG@AES?9128?9CFB?$AA@ 00078780     libeay32:obj_dat.obj
 0002:0001178c       ??_C@_0M@KHKJKION@aes?9128?9ofb?$AA@ 0007878c     libeay32:obj_dat.obj
 0002:00011798       ??_C@_0M@HLKCDCGO@AES?9128?9OFB?$AA@ 00078798     libeay32:obj_dat.obj
 0002:000117a4       ??_C@_0M@PDGNIOMI@aes?9128?9cbc?$AA@ 000787a4     libeay32:obj_dat.obj
 0002:000117b0       ??_C@_0M@CPGGBEEL@AES?9128?9CBC?$AA@ 000787b0     libeay32:obj_dat.obj
 0002:000117bc       ??_C@_0M@MONPIKGC@aes?9128?9ecb?$AA@ 000787bc     libeay32:obj_dat.obj
 0002:000117c8       ??_C@_0M@BCNEBAOB@AES?9128?9ECB?$AA@ 000787c8     libeay32:obj_dat.obj
 0002:000117d4       ??_C@_0BD@HDEEGCLB@Microsoft?5CSP?5Name?$AA@ 000787d4     libeay32:obj_dat.obj
 0002:000117e8       ??_C@_07BPKAKPJK@CSPName?$AA@ 000787e8     libeay32:obj_dat.obj
 0002:000117f0       ??_C@_0BA@DGJNDOPM@ecdsa?9with?9SHA1?$AA@ 000787f0     libeay32:obj_dat.obj
 0002:00011800       ??_C@_0L@JJFEINOP@prime256v1?$AA@ 00078800     libeay32:obj_dat.obj
 0002:0001180c       ??_C@_0L@HMEBAKJL@prime239v3?$AA@ 0007880c     libeay32:obj_dat.obj
 0002:00011818       ??_C@_0L@GFFKDLNK@prime239v2?$AA@ 00078818     libeay32:obj_dat.obj
 0002:00011824       ??_C@_0L@EOHHGIBJ@prime239v1?$AA@ 00078824     libeay32:obj_dat.obj
 0002:00011830       ??_C@_0L@GHGEOHJF@prime192v3?$AA@ 00078830     libeay32:obj_dat.obj
 0002:0001183c       ??_C@_0L@HOHPNGNE@prime192v2?$AA@ 0007883c     libeay32:obj_dat.obj
 0002:00011848       ??_C@_0L@FFFCIFBH@prime192v1?$AA@ 00078848     libeay32:obj_dat.obj
 0002:00011854       ??_C@_0P@NEOBKIMO@id?9ecPublicKey?$AA@ 00078854     libeay32:obj_dat.obj
 0002:00011864       ??_C@_0BJ@HECCMKCN@characteristic?9two?9field?$AA@ 00078864     libeay32:obj_dat.obj
 0002:00011880       ??_C@_0M@LGLKIODB@prime?9field?$AA@ 00078880     libeay32:obj_dat.obj
 0002:0001188c       ??_C@_0L@HAOKGHPF@ANSI?5X9?462?$AA@ 0007888c     libeay32:obj_dat.obj
 0002:00011898       ??_C@_0L@LBMOMFCJ@ansi?9X9?962?$AA@ 00078898     libeay32:obj_dat.obj
 0002:000118a4       ??_C@_0BP@DEKFNCEH@X509v3?5No?5Revocation?5Available?$AA@ 000788a4     libeay32:obj_dat.obj
 0002:000118c4       ??_C@_0L@ECGDAGCK@noRevAvail?$AA@ 000788c4     libeay32:obj_dat.obj
 0002:000118d0       ??_C@_0BE@IECCFFCH@X509v3?5AC?5Targeting?$AA@ 000788d0     libeay32:obj_dat.obj
 0002:000118e4       ??_C@_0BC@JINDJNPM@targetInformation?$AA@ 000788e4     libeay32:obj_dat.obj
 0002:000118f8       ??_C@_0BK@DNMBLGM@X509v3?5Policy?5Constraints?$AA@ 000788f8     libeay32:obj_dat.obj
 0002:00011914       ??_C@_0BC@IJLMCBHD@policyConstraints?$AA@ 00078914     libeay32:obj_dat.obj
 0002:00011928       ??_C@_04IAMNPBLO@role?$AA@ 00078928     libeay32:obj_dat.obj
 0002:00011930       ??_C@_0BA@PEFFHNFH@id?9aca?9encAttrs?$AA@ 00078930     libeay32:obj_dat.obj
 0002:00011940       ??_C@_0BL@OMFIOBLF@Subject?5Information?5Access?$AA@ 00078940     libeay32:obj_dat.obj
 0002:0001195c       ??_C@_0BC@IEIBIKBA@subjectInfoAccess?$AA@ 0007895c     libeay32:obj_dat.obj
 0002:00011970       ??_C@_0M@BKAIKGEL@ac?9proxying?$AA@ 00078970     libeay32:obj_dat.obj
 0002:0001197c       ??_C@_0BF@JDOFKNPK@md4WithRSAEncryption?$AA@ 0007897c     libeay32:obj_dat.obj
 0002:00011994       ??_C@_07MHHBEDHA@RSA?9MD4?$AA@ 00078994     libeay32:obj_dat.obj
 0002:0001199c       ??_C@_09ECGCCLFI@clearance?$AA@ 0007899c     libeay32:obj_dat.obj
 0002:000119a8       ??_C@_0BJ@MAOJIBHF@Selected?5Attribute?5Types?$AA@ 000789a8     libeay32:obj_dat.obj
 0002:000119c4       ??_C@_0BJ@BDDNHDDA@selected?9attribute?9types?$AA@ 000789c4     libeay32:obj_dat.obj
 0002:000119e0       ??_C@_04HIBGFPH@NULL?$AA@  000789e0     libeay32:obj_dat.obj
 0002:000119e8       ??_C@_06HFDFFJHI@Domain?$AA@ 000789e8     libeay32:obj_dat.obj
 0002:000119f0       ??_C@_06LKIIGAOE@domain?$AA@ 000789f0     libeay32:obj_dat.obj
 0002:000119f8       ??_C@_0BA@DMAKFKAH@domainComponent?$AA@ 000789f8     libeay32:obj_dat.obj
 0002:00011a08       ??_C@_02KMHJBPDH@DC?$AA@   00078a08     libeay32:obj_dat.obj
 0002:00011a0c       ??_C@_08GPNKJGDG@dcObject?$AA@ 00078a0c     libeay32:obj_dat.obj
 0002:00011a18       ??_C@_08KAGHKPKK@dcobject?$AA@ 00078a18     libeay32:obj_dat.obj
 0002:00011a24       ??_C@_0M@CEEPHGPL@Enterprises?$AA@ 00078a24     libeay32:obj_dat.obj
 0002:00011a30       ??_C@_0M@DMHOKNAD@enterprises?$AA@ 00078a30     libeay32:obj_dat.obj
 0002:00011a3c       ??_C@_04JEGKNAHI@Mail?$AA@ 00078a3c     libeay32:obj_dat.obj
 0002:00011a44       ??_C@_06JDJOGLHO@SNMPv2?$AA@ 00078a44     libeay32:obj_dat.obj
 0002:00011a4c       ??_C@_06DKHMNHOO@snmpv2?$AA@ 00078a4c     libeay32:obj_dat.obj
 0002:00011a54       ??_C@_08EDKKPLCC@Security?$AA@ 00078a54     libeay32:obj_dat.obj
 0002:00011a60       ??_C@_08MBFLHJIB@security?$AA@ 00078a60     libeay32:obj_dat.obj
 0002:00011a6c       ??_C@_07CFINJGKH@Private?$AA@ 00078a6c     libeay32:obj_dat.obj
 0002:00011a74       ??_C@_07NMPLPEPB@private?$AA@ 00078a74     libeay32:obj_dat.obj
 0002:00011a7c       ??_C@_0N@FKCIGJFM@Experimental?$AA@ 00078a7c     libeay32:obj_dat.obj
 0002:00011a8c       ??_C@_0N@OJFGCCKJ@experimental?$AA@ 00078a8c     libeay32:obj_dat.obj
 0002:00011a9c       ??_C@_0L@ENAJINDB@Management?$AA@ 00078a9c     libeay32:obj_dat.obj
 0002:00011aa8       ??_C@_04PFNCJACF@mgmt?$AA@ 00078aa8     libeay32:obj_dat.obj
 0002:00011ab0       ??_C@_09EOAFACM@Directory?$AA@ 00078ab0     libeay32:obj_dat.obj
 0002:00011abc       ??_C@_09ELLNFDPM@directory?$AA@ 00078abc     libeay32:obj_dat.obj
 0002:00011ac8       ??_C@_04BAMKDBHE@iana?$AA@ 00078ac8     libeay32:obj_dat.obj
 0002:00011ad0       ??_C@_04NMPANDAM@IANA?$AA@ 00078ad0     libeay32:obj_dat.obj
 0002:00011ad8       ??_C@_03CIOFGCAJ@dod?$AA@  00078ad8     libeay32:obj_dat.obj
 0002:00011adc       ??_C@_03CFBOKPHF@DOD?$AA@  00078adc     libeay32:obj_dat.obj
 0002:00011ae0       ??_C@_03MADHIGOI@org?$AA@  00078ae0     libeay32:obj_dat.obj
 0002:00011ae4       ??_C@_03MNMMELJE@ORG?$AA@  00078ae4     libeay32:obj_dat.obj
 0002:00011ae8       ??_C@_0CA@FIOIBJEO@directory?5services?5?9?5algorithms?$AA@ 00078ae8     libeay32:obj_dat.obj
 0002:00011b08       ??_C@_0P@NMIAKCBG@X500algorithms?$AA@ 00078b08     libeay32:obj_dat.obj
 0002:00011b18       ??_C@_0N@JHANBHGC@rsaSignature?$AA@ 00078b18     libeay32:obj_dat.obj
 0002:00011b28       ??_C@_09JPNFBOJG@algorithm?$AA@ 00078b28     libeay32:obj_dat.obj
 0002:00011b34       ??_C@_0L@INBPOG@Trust?5Root?$AA@ 00078b34     libeay32:obj_dat.obj
 0002:00011b40       ??_C@_09LNEPAILM@trustRoot?$AA@ 00078b40     libeay32:obj_dat.obj
 0002:00011b4c       ??_C@_04LNEJFJGI@path?$AA@ 00078b4c     libeay32:obj_dat.obj
 0002:00011b54       ??_C@_05HDPIMK@valid?$AA@  00078b54     libeay32:obj_dat.obj
 0002:00011b5c       ??_C@_0BF@MPEDLKDP@Extended?5OCSP?5Status?$AA@ 00078b5c     libeay32:obj_dat.obj
 0002:00011b74       ??_C@_0P@EGENIBNC@extendedStatus?$AA@ 00078b74     libeay32:obj_dat.obj
 0002:00011b84       ??_C@_0BF@CEIKAD@OCSP?5Service?5Locator?$AA@ 00078b84     libeay32:obj_dat.obj
 0002:00011b9c       ??_C@_0P@LCDAPLHC@serviceLocator?$AA@ 00078b9c     libeay32:obj_dat.obj
 0002:00011bac       ??_C@_0BE@JAFPABJB@OCSP?5Archive?5Cutoff?$AA@ 00078bac     libeay32:obj_dat.obj
 0002:00011bc0       ??_C@_0O@FIEDPKGI@archiveCutoff?$AA@ 00078bc0     libeay32:obj_dat.obj
 0002:00011bd0       ??_C@_0O@HFOALJCG@OCSP?5No?5Check?$AA@ 00078bd0     libeay32:obj_dat.obj
 0002:00011be0       ??_C@_07MCKMCKHJ@noCheck?$AA@ 00078be0     libeay32:obj_dat.obj
 0002:00011be8       ??_C@_0BK@JKKLNLEI@Acceptable?5OCSP?5Responses?$AA@ 00078be8     libeay32:obj_dat.obj
 0002:00011c04       ??_C@_0BE@FBPDIHIK@acceptableResponses?$AA@ 00078c04     libeay32:obj_dat.obj
 0002:00011c18       ??_C@_0M@LCLKJALE@OCSP?5CRL?5ID?$AA@ 00078c18     libeay32:obj_dat.obj
 0002:00011c24       ??_C@_05NOENOBME@CrlID?$AA@ 00078c24     libeay32:obj_dat.obj
 0002:00011c2c       ??_C@_0L@NCNDEJFL@OCSP?5Nonce?$AA@ 00078c2c     libeay32:obj_dat.obj
 0002:00011c38       ??_C@_05OJOPLPHH@Nonce?$AA@ 00078c38     libeay32:obj_dat.obj
 0002:00011c40       ??_C@_0BE@ONEEPEOL@Basic?5OCSP?5Response?$AA@ 00078c40     libeay32:obj_dat.obj
 0002:00011c54       ??_C@_0BC@KFAFMFFF@basicOCSPResponse?$AA@ 00078c54     libeay32:obj_dat.obj
 0002:00011c68       ??_C@_07JCKMJMPC@ad?5dvcs?$AA@ 00078c68     libeay32:obj_dat.obj
 0002:00011c70       ??_C@_07JCCJJKFE@AD_DVCS?$AA@ 00078c70     libeay32:obj_dat.obj
 0002:00011c78       ??_C@_0BB@NMPPBOGK@AD?5Time?5Stamping?$AA@ 00078c78     libeay32:obj_dat.obj
 0002:00011c8c       ??_C@_0BA@PBBONLHE@ad_timestamping?$AA@ 00078c8c     libeay32:obj_dat.obj
 0002:00011c9c       ??_C@_0BD@DDALHPCH@id?9cct?9PKIResponse?$AA@ 00078c9c     libeay32:obj_dat.obj
 0002:00011cb0       ??_C@_0P@FNCPPGJO@id?9cct?9PKIData?$AA@ 00078cb0     libeay32:obj_dat.obj
 0002:00011cc0       ??_C@_0L@CDHPLMPE@id?9cct?9crs?$AA@ 00078cc0     libeay32:obj_dat.obj
 0002:00011ccc       ??_C@_0BH@DJONLBHI@id?9qcs?9pkixQCSyntax?9v1?$AA@ 00078ccc     libeay32:obj_dat.obj
 0002:00011ce4       ??_C@_0M@FBOAJIIJ@id?9aca?9role?$AA@ 00078ce4     libeay32:obj_dat.obj
 0002:00011cf0       ??_C@_0N@HOPCGOGP@id?9aca?9group?$AA@ 00078cf0     libeay32:obj_dat.obj
 0002:00011d00       ??_C@_0BI@IDHFJBKH@id?9aca?9chargingIdentity?$AA@ 00078d00     libeay32:obj_dat.obj
 0002:00011d18       ??_C@_0BG@GFJCFEAI@id?9aca?9accessIdentity?$AA@ 00078d18     libeay32:obj_dat.obj
 0002:00011d30       ??_C@_0BK@OFEDAOCA@id?9aca?9authenticationInfo?$AA@ 00078d30     libeay32:obj_dat.obj
 0002:00011d4c       ??_C@_0BK@BJMNIGCJ@id?9pda?9countryOfResidence?$AA@ 00078d4c     libeay32:obj_dat.obj
 0002:00011d68       ??_C@_0BM@KMGEGNAB@id?9pda?9countryOfCitizenship?$AA@ 00078d68     libeay32:obj_dat.obj
 0002:00011d84       ??_C@_0O@JMCFNPFD@id?9pda?9gender?$AA@ 00078d84     libeay32:obj_dat.obj
 0002:00011d94       ??_C@_0BE@NIFFDBPJ@id?9pda?9placeOfBirth?$AA@ 00078d94     libeay32:obj_dat.obj
 0002:00011da8       ??_C@_0BD@BADJMIPF@id?9pda?9dateOfBirth?$AA@ 00078da8     libeay32:obj_dat.obj
 0002:00011dbc       ??_C@_0BD@IGLADCFL@id?9on?9personalData?$AA@ 00078dbc     libeay32:obj_dat.obj
 0002:00011dd0       ??_C@_0BN@MIGHDJON@id?9cmc?9confirmCertAcceptance?$AA@ 00078dd0     libeay32:obj_dat.obj
 0002:00011df0       ??_C@_0BG@EEIJMDPB@id?9cmc?9popLinkWitness?$AA@ 00078df0     libeay32:obj_dat.obj
 0002:00011e08       ??_C@_0BF@GGLCNKGO@id?9cmc?9popLinkRandom?$AA@ 00078e08     libeay32:obj_dat.obj
 0002:00011e20       ??_C@_0BE@JKLJLIIH@id?9cmc?9queryPending?$AA@ 00078e20     libeay32:obj_dat.obj
 0002:00011e34       ??_C@_0BE@CKMFMMDP@id?9cmc?9responseInfo?$AA@ 00078e34     libeay32:obj_dat.obj
 0002:00011e48       ??_C@_0P@PCIOIKNC@id?9cmc?9regInfo?$AA@ 00078e48     libeay32:obj_dat.obj
 0002:00011e58       ??_C@_0BF@BOEAJJNI@id?9cmc?9revokeRequest?$AA@ 00078e58     libeay32:obj_dat.obj
 0002:00011e70       ??_C@_0O@OIGIOBJ@id?9cmc?9getCRL?$AA@ 00078e70     libeay32:obj_dat.obj
 0002:00011e80       ??_C@_0P@GMDPJKDO@id?9cmc?9getCert?$AA@ 00078e80     libeay32:obj_dat.obj
 0002:00011e90       ??_C@_0BF@BMODAINP@id?9cmc?9lraPOPWitness?$AA@ 00078e90     libeay32:obj_dat.obj
 0002:00011ea8       ??_C@_0BE@KBIPLENG@id?9cmc?9decryptedPOP?$AA@ 00078ea8     libeay32:obj_dat.obj
 0002:00011ebc       ??_C@_0BE@NILMJFN@id?9cmc?9encryptedPOP?$AA@ 00078ebc     libeay32:obj_dat.obj
 0002:00011ed0       ??_C@_0BF@HLOCACJF@id?9cmc?9addExtensions?$AA@ 00078ed0     libeay32:obj_dat.obj
 0002:00011ee8       ??_C@_0BG@JLHHNNCH@id?9cmc?9recipientNonce?$AA@ 00078ee8     libeay32:obj_dat.obj
 0002:00011f00       ??_C@_0BD@BCMJDDMP@id?9cmc?9senderNonce?$AA@ 00078f00     libeay32:obj_dat.obj
 0002:00011f14       ??_C@_0BF@GEJAHBF@id?9cmc?9transactionId?$AA@ 00078f14     libeay32:obj_dat.obj
 0002:00011f2c       ??_C@_0BC@LLJKCHEN@id?9cmc?9dataReturn?$AA@ 00078f2c     libeay32:obj_dat.obj
 0002:00011f40       ??_C@_0BF@IDAHNDCK@id?9cmc?9identityProof?$AA@ 00078f40     libeay32:obj_dat.obj
 0002:00011f58       ??_C@_0BG@PPIINOMK@id?9cmc?9identification?$AA@ 00078f58     libeay32:obj_dat.obj
 0002:00011f70       ??_C@_0BC@CMNEPEAI@id?9cmc?9statusInfo?$AA@ 00078f70     libeay32:obj_dat.obj
 0002:00011f84       ??_C@_0O@OBGPPBGA@id?9alg?9dh?9pop?$AA@ 00078f84     libeay32:obj_dat.obj
 0002:00011f94       ??_C@_0BI@KIODNBCM@id?9alg?9dh?9sig?9hmac?9sha1?$AA@ 00078f94     libeay32:obj_dat.obj
 0002:00011fac       ??_C@_0BD@LAAJOBHI@id?9alg?9noSignature?$AA@ 00078fac     libeay32:obj_dat.obj
 0002:00011fc0       ??_C@_0N@KIJONBNA@id?9alg?9des40?$AA@ 00078fc0     libeay32:obj_dat.obj
 0002:00011fd0       ??_C@_0BD@EEAPBNJJ@id?9regInfo?9certReq?$AA@ 00078fd0     libeay32:obj_dat.obj
 0002:00011fe4       ??_C@_0BF@FHFGHAHE@id?9regInfo?9utf8Pairs?$AA@ 00078fe4     libeay32:obj_dat.obj
 0002:00011ffc       ??_C@_0BL@GHBPLPHM@id?9regCtrl?9protocolEncrKey?$AA@ 00078ffc     libeay32:obj_dat.obj
 0002:00012018       ??_C@_0BF@GFJPNJIG@id?9regCtrl?9oldCertID?$AA@ 00079018     libeay32:obj_dat.obj
 0002:00012030       ??_C@_0BN@ONKHMAOP@id?9regCtrl?9pkiArchiveOptions?$AA@ 00079030     libeay32:obj_dat.obj
 0002:00012050       ??_C@_0BO@GJKPPLPL@id?9regCtrl?9pkiPublicationInfo?$AA@ 00079050     libeay32:obj_dat.obj
 0002:00012070       ??_C@_0BJ@FBKKLLKP@id?9regCtrl?9authenticator?$AA@ 00079070     libeay32:obj_dat.obj
 0002:0001208c       ??_C@_0BE@JDMKCIPE@id?9regCtrl?9regToken?$AA@ 0007908c     libeay32:obj_dat.obj
 0002:000120a0       ??_C@_0L@BGHMJHOP@id?9regInfo?$AA@ 000790a0     libeay32:obj_dat.obj
 0002:000120ac       ??_C@_0L@FDGKGANK@id?9regCtrl?$AA@ 000790ac     libeay32:obj_dat.obj
 0002:000120b8       ??_C@_0BF@CLCJJGFI@id?9it?9origPKIMessage?$AA@ 000790b8     libeay32:obj_dat.obj
 0002:000120d0       ??_C@_0BG@KCBHNMIK@id?9it?9confirmWaitTime?$AA@ 000790d0     libeay32:obj_dat.obj
 0002:000120e8       ??_C@_0BG@MKDHCJKF@id?9it?9implicitConfirm?$AA@ 000790e8     libeay32:obj_dat.obj
 0002:00012100       ??_C@_0BE@FOOOCPMH@id?9it?9revPassphrase?$AA@ 00079100     libeay32:obj_dat.obj
 0002:00012114       ??_C@_0BG@KPIIFBLH@id?9it?9keyPairParamRep?$AA@ 00079114     libeay32:obj_dat.obj
 0002:0001212c       ??_C@_0BG@LGJDGAPG@id?9it?9keyPairParamReq?$AA@ 0007912c     libeay32:obj_dat.obj
 0002:00012144       ??_C@_0BL@HBPHBFLO@id?9it?9subscriptionResponse?$AA@ 00079144     libeay32:obj_dat.obj
 0002:00012160       ??_C@_0BK@MKGCMKGI@id?9it?9subscriptionRequest?$AA@ 00079160     libeay32:obj_dat.obj
 0002:0001217c       ??_C@_0BG@BPLKDJPD@id?9it?9unsupportedOIDs?$AA@ 0007917c     libeay32:obj_dat.obj
 0002:00012194       ??_C@_0BB@NHKBGJFG@id?9it?9currentCRL?$AA@ 00079194     libeay32:obj_dat.obj
 0002:000121a8       ??_C@_0BG@OAKEHPLC@id?9it?9caKeyUpdateInfo?$AA@ 000791a8     libeay32:obj_dat.obj
 0002:000121c0       ??_C@_0BH@JFBOPDCH@id?9it?9preferredSymmAlg?$AA@ 000791c0     libeay32:obj_dat.obj
 0002:000121d8       ??_C@_0BG@FKIDIODL@id?9it?9encKeyPairTypes?$AA@ 000791d8     libeay32:obj_dat.obj
 0002:000121f0       ??_C@_0BH@POCENFBA@id?9it?9signKeyPairTypes?$AA@ 000791f0     libeay32:obj_dat.obj
 0002:00012208       ??_C@_0BE@GJACIPND@id?9it?9caProtEncCert?$AA@ 00079208     libeay32:obj_dat.obj
 0002:0001221c       ??_C@_04FFLIHJGD@dvcs?$AA@ 0007921c     libeay32:obj_dat.obj
 0002:00012224       ??_C@_04JJICJLBL@DVCS?$AA@ 00079224     libeay32:obj_dat.obj
 0002:0001222c       ??_C@_0L@DECDDCGF@IPSec?5User?$AA@ 0007922c     libeay32:obj_dat.obj
 0002:00012238       ??_C@_09GOHJKOFF@ipsecUser?$AA@ 00079238     libeay32:obj_dat.obj
 0002:00012244       ??_C@_0N@EKDIOGLO@IPSec?5Tunnel?$AA@ 00079244     libeay32:obj_dat.obj
 0002:00012254       ??_C@_0M@GMMHFFHI@ipsecTunnel?$AA@ 00079254     libeay32:obj_dat.obj
 0002:00012260       ??_C@_0BB@JEJDAICO@IPSec?5End?5System?$AA@ 00079260     libeay32:obj_dat.obj
 0002:00012274       ??_C@_0P@MKBFMAPP@ipsecEndSystem?$AA@ 00079274     libeay32:obj_dat.obj
 0002:00012284       ??_C@_0L@HLNNPJEH@textNotice?$AA@ 00079284     libeay32:obj_dat.obj
 0002:00012290       ??_C@_0BG@JCJJBMAI@sbgp?9routerIdentifier?$AA@ 00079290     libeay32:obj_dat.obj
 0002:000122a8       ??_C@_0BG@OJEHJDKA@sbgp?9autonomousSysNum?$AA@ 000792a8     libeay32:obj_dat.obj
 0002:000122c0       ??_C@_0BB@NNCKCHBC@sbgp?9ipAddrBlock?$AA@ 000792c0     libeay32:obj_dat.obj
 0002:000122d4       ??_C@_0L@DLGBNBJE@aaControls?$AA@ 000792d4     libeay32:obj_dat.obj
 0002:000122e0       ??_C@_0N@FPEEOJCI@ac?9targeting?$AA@ 000792e0     libeay32:obj_dat.obj
 0002:000122f0       ??_C@_0P@CIOHPJGC@ac?9auditEntity?$AA@ 000792f0     libeay32:obj_dat.obj
 0002:00012300       ??_C@_0N@FPMNLLM@qcStatements?$AA@ 00079300     libeay32:obj_dat.obj
 0002:00012310       ??_C@_0P@KFKDECPH@Biometric?5Info?$AA@ 00079310     libeay32:obj_dat.obj
 0002:00012320       ??_C@_0O@MPIIPAHM@biometricInfo?$AA@ 00079320     libeay32:obj_dat.obj
 0002:00012330       ??_C@_0P@MMOAAMFD@id?9mod?9cmp2000?$AA@ 00079330     libeay32:obj_dat.obj
 0002:00012340       ??_C@_0M@GHDGNJKI@id?9mod?9dvcs?$AA@ 00079340     libeay32:obj_dat.obj
 0002:0001234c       ??_C@_0M@EACKLPKH@id?9mod?9ocsp?$AA@ 0007934c     libeay32:obj_dat.obj
 0002:00012358       ??_C@_0BK@GAJOODEK@id?9mod?9timestamp?9protocol?$AA@ 00079358     libeay32:obj_dat.obj
 0002:00012374       ??_C@_0BG@EPPFBJNH@id?9mod?9attribute?9cert?$AA@ 00079374     libeay32:obj_dat.obj
 0002:0001238c       ??_C@_0BJ@IGODAJIK@id?9mod?9qualified?9cert?993?$AA@ 0007938c     libeay32:obj_dat.obj
 0002:000123a8       ??_C@_0BJ@GENFLKHG@id?9mod?9qualified?9cert?988?$AA@ 000793a8     libeay32:obj_dat.obj
 0002:000123c4       ??_C@_0L@MONEHBKH@id?9mod?9cmp?$AA@ 000793c4     libeay32:obj_dat.obj
 0002:000123d0       ??_C@_0BG@NAFGGBFM@id?9mod?9kea?9profile?993?$AA@ 000793d0     libeay32:obj_dat.obj
 0002:000123e8       ??_C@_0BG@DCGANCKA@id?9mod?9kea?9profile?988?$AA@ 000793e8     libeay32:obj_dat.obj
 0002:00012400       ??_C@_0L@KPDLDADF@id?9mod?9cmc?$AA@ 00079400     libeay32:obj_dat.obj
 0002:0001240c       ??_C@_0M@GHFPFJPB@id?9mod?9crmf?$AA@ 0007940c     libeay32:obj_dat.obj
 0002:00012418       ??_C@_0BF@EOKAKKIK@id?9pkix1?9implicit?993?$AA@ 00079418     libeay32:obj_dat.obj
 0002:00012430       ??_C@_0BF@JEALIPIC@id?9pkix1?9explicit?993?$AA@ 00079430     libeay32:obj_dat.obj
 0002:00012448       ??_C@_0BF@KMJGBJHG@id?9pkix1?9implicit?988?$AA@ 00079448     libeay32:obj_dat.obj
 0002:00012460       ??_C@_0BF@HGDNDMHO@id?9pkix1?9explicit?988?$AA@ 00079460     libeay32:obj_dat.obj
 0002:00012478       ??_C@_06PONIBOCI@id?9cct?$AA@ 00079478     libeay32:obj_dat.obj
 0002:00012480       ??_C@_06ELIJBHPL@id?9qcs?$AA@ 00079480     libeay32:obj_dat.obj
 0002:00012488       ??_C@_06GDGEDALH@id?9aca?$AA@ 00079488     libeay32:obj_dat.obj
 0002:00012490       ??_C@_06IOIOBGMI@id?9pda?$AA@ 00079490     libeay32:obj_dat.obj
 0002:00012498       ??_C@_05OHNJGMJE@id?9on?$AA@ 00079498     libeay32:obj_dat.obj
 0002:000124a0       ??_C@_06PBMFLHLE@id?9cmc?$AA@ 000794a0     libeay32:obj_dat.obj
 0002:000124a8       ??_C@_06DOGCNAAM@id?9alg?$AA@ 000794a8     libeay32:obj_dat.obj
 0002:000124b0       ??_C@_07OMHOPMIM@id?9pkip?$AA@ 000794b0     libeay32:obj_dat.obj
 0002:000124b8       ??_C@_05FDHJOKPN@id?9it?$AA@ 000794b8     libeay32:obj_dat.obj
 0002:000124c0       ??_C@_05EBEMBIDF@id?9qt?$AA@ 000794c0     libeay32:obj_dat.obj
 0002:000124c8       ??_C@_0M@FNAFBNKE@id?9pkix?9mod?$AA@ 000794c8     libeay32:obj_dat.obj
 0002:000124d4       ??_C@_03ODADJPDG@md4?$AA@  000794d4     libeay32:obj_dat.obj
 0002:000124d8       ??_C@_03HLHMHGOI@MD4?$AA@  000794d8     libeay32:obj_dat.obj
 0002:000124dc       ??_C@_0CB@MICJDGGH@id?9smime?9cti?9ets?9proofOfCreation@ 000794dc     libeay32:obj_dat.obj
 0002:00012500       ??_C@_0CB@DDLMHEBC@id?9smime?9cti?9ets?9proofOfApproval@ 00079500     libeay32:obj_dat.obj
 0002:00012524       ??_C@_0BP@ODCAFFCM@id?9smime?9cti?9ets?9proofOfSender?$AA@ 00079524     libeay32:obj_dat.obj
 0002:00012544       ??_C@_0CB@ICJGPMEP@id?9smime?9cti?9ets?9proofOfDelivery@ 00079544     libeay32:obj_dat.obj
 0002:00012568       ??_C@_0CA@HNGOKBGC@id?9smime?9cti?9ets?9proofOfReceipt?$AA@ 00079568     libeay32:obj_dat.obj
 0002:00012588       ??_C@_0BP@BCHFEGHC@id?9smime?9cti?9ets?9proofOfOrigin?$AA@ 00079588     libeay32:obj_dat.obj
 0002:000125a8       ??_C@_0BN@GPAAHNOH@id?9smime?9spq?9ets?9sqt?9unotice?$AA@ 000795a8     libeay32:obj_dat.obj
 0002:000125c8       ??_C@_0BJ@IMNKDGEG@id?9smime?9spq?9ets?9sqt?9uri?$AA@ 000795c8     libeay32:obj_dat.obj
 0002:000125e4       ??_C@_0BB@BMOBKAGE@id?9smime?9cd?9ldap?$AA@ 000795e4     libeay32:obj_dat.obj
 0002:000125f8       ??_C@_0BI@FIFDKKFJ@id?9smime?9alg?9CMSRC2wrap?$AA@ 000795f8     libeay32:obj_dat.obj
 0002:00012610       ??_C@_0BJ@FOFHEIDB@id?9smime?9alg?9CMS3DESwrap?$AA@ 00079610     libeay32:obj_dat.obj
 0002:0001262c       ??_C@_0BC@COOODKPD@id?9smime?9alg?9ESDH?$AA@ 0007962c     libeay32:obj_dat.obj
 0002:00012640       ??_C@_0BF@JNCPAJCA@id?9smime?9alg?9RC2wrap?$AA@ 00079640     libeay32:obj_dat.obj
 0002:00012658       ??_C@_0BG@HHELPNAK@id?9smime?9alg?93DESwrap?$AA@ 00079658     libeay32:obj_dat.obj
 0002:00012670       ??_C@_0BJ@FIJMOHBJ@id?9smime?9alg?9ESDHwithRC2?$AA@ 00079670     libeay32:obj_dat.obj
 0002:0001268c       ??_C@_0BK@JNJOCCCB@id?9smime?9alg?9ESDHwith3DES?$AA@ 0007968c     libeay32:obj_dat.obj
 0002:000126a8       ??_C@_0BF@KEMAMBKF@id?9smime?9aa?9dvcs?9dvc?$AA@ 000796a8     libeay32:obj_dat.obj
 0002:000126c0       ??_C@_0BK@HDBIPLFI@id?9smime?9aa?9signatureType?$AA@ 000796c0     libeay32:obj_dat.obj
 0002:000126dc       ??_C@_0CB@BEMKNJGO@id?9smime?9aa?9ets?9archiveTimeStamp@ 000796dc     libeay32:obj_dat.obj
 0002:00012700       ??_C@_0CB@CJNBPJE@id?9smime?9aa?9ets?9certCRLTimestamp@ 00079700     libeay32:obj_dat.obj
 0002:00012724       ??_C@_0BN@HGLOGOFI@id?9smime?9aa?9ets?9escTimeStamp?$AA@ 00079724     libeay32:obj_dat.obj
 0002:00012744       ??_C@_0CB@GOCEFPFO@id?9smime?9aa?9ets?9revocationValues@ 00079744     libeay32:obj_dat.obj
 0002:00012768       ??_C@_0BL@IFKOLDIG@id?9smime?9aa?9ets?9certValues?$AA@ 00079768     libeay32:obj_dat.obj
 0002:00012784       ??_C@_0BP@BCHJHNFO@id?9smime?9aa?9ets?9RevocationRefs?$AA@ 00079784     libeay32:obj_dat.obj
 0002:000127a4       ??_C@_0CA@NKIOCHLG@id?9smime?9aa?9ets?9CertificateRefs?$AA@ 000797a4     libeay32:obj_dat.obj
 0002:000127c4       ??_C@_0CB@GHKINGOH@id?9smime?9aa?9ets?9contentTimestamp@ 000797c4     libeay32:obj_dat.obj
 0002:000127e8       ??_C@_0BN@JFIFOPBH@id?9smime?9aa?9ets?9otherSigCert?$AA@ 000797e8     libeay32:obj_dat.obj
 0002:00012808       ??_C@_0BL@KDJDAGDC@id?9smime?9aa?9ets?9signerAttr?$AA@ 00079808     libeay32:obj_dat.obj
 0002:00012824       ??_C@_0BP@EODAELPO@id?9smime?9aa?9ets?9signerLocation?$AA@ 00079824     libeay32:obj_dat.obj
 0002:00012844       ??_C@_0BP@OLIFPEIM@id?9smime?9aa?9ets?9commitmentType?$AA@ 00079844     libeay32:obj_dat.obj
 0002:00012864       ??_C@_0BM@GKFMJCFL@id?9smime?9aa?9ets?9sigPolicyId?$AA@ 00079864     libeay32:obj_dat.obj
 0002:00012880       ??_C@_0BL@DHJOIJNE@id?9smime?9aa?9timeStampToken?$AA@ 00079880     libeay32:obj_dat.obj
 0002:0001289c       ??_C@_0BO@CEEOANBD@id?9smime?9aa?9smimeEncryptCerts?$AA@ 0007989c     libeay32:obj_dat.obj
 0002:000128bc       ??_C@_0BP@LHGJLGIB@id?9smime?9aa?9signingCertificate?$AA@ 000798bc     libeay32:obj_dat.obj
 0002:000128dc       ??_C@_0BK@LAPEFMP@id?9smime?9aa?9encrypKeyPref?$AA@ 000798dc     libeay32:obj_dat.obj
 0002:000128f8       ??_C@_0BN@LEFAEFL@id?9smime?9aa?9contentReference?$AA@ 000798f8     libeay32:obj_dat.obj
 0002:00012918       ??_C@_0BN@NFAAOKEA@id?9smime?9aa?9equivalentLabels?$AA@ 00079918     libeay32:obj_dat.obj
 0002:00012938       ??_C@_0BF@CFNHFPDB@id?9smime?9aa?9macValue?$AA@ 00079938     libeay32:obj_dat.obj
 0002:00012950       ??_C@_0BO@KMJGIAMK@id?9smime?9aa?9contentIdentifier?$AA@ 00079950     libeay32:obj_dat.obj
 0002:00012970       ??_C@_0BN@GCCNOJCG@id?9smime?9aa?9encapContentType?$AA@ 00079970     libeay32:obj_dat.obj
 0002:00012990       ??_C@_0BJ@LJLDKMDH@id?9smime?9aa?9msgSigDigest?$AA@ 00079990     libeay32:obj_dat.obj
 0002:000129ac       ??_C@_0BI@EMGPJFHB@id?9smime?9aa?9contentHint?$AA@ 000799ac     libeay32:obj_dat.obj
 0002:000129c4       ??_C@_0BM@OEKGBMLE@id?9smime?9aa?9mlExpandHistory?$AA@ 000799c4     libeay32:obj_dat.obj
 0002:000129e0       ??_C@_0BK@DNJNJILO@id?9smime?9aa?9securityLabel?$AA@ 000799e0     libeay32:obj_dat.obj
 0002:000129fc       ??_C@_0BL@LMGNMPFD@id?9smime?9aa?9receiptRequest?$AA@ 000799fc     libeay32:obj_dat.obj
 0002:00012a18       ??_C@_0BN@POKJLKJJ@id?9smime?9ct?9DVCSResponseData?$AA@ 00079a18     libeay32:obj_dat.obj
 0002:00012a38       ??_C@_0BM@MFKPCEGN@id?9smime?9ct?9DVCSRequestData?$AA@ 00079a38     libeay32:obj_dat.obj
 0002:00012a54       ??_C@_0BI@BGKPNMK@id?9smime?9ct?9contentInfo?$AA@ 00079a54     libeay32:obj_dat.obj
 0002:00012a6c       ??_C@_0BE@FKPPBHI@id?9smime?9ct?9TDTInfo?$AA@ 00079a6c     libeay32:obj_dat.obj
 0002:00012a80       ??_C@_0BE@KHNGFDDI@id?9smime?9ct?9TSTInfo?$AA@ 00079a80     libeay32:obj_dat.obj
 0002:00012a94       ??_C@_0BI@DBILCLFJ@id?9smime?9ct?9publishCert?$AA@ 00079a94     libeay32:obj_dat.obj
 0002:00012aac       ??_C@_0BF@KGEHGOF@id?9smime?9ct?9authData?$AA@ 00079aac     libeay32:obj_dat.obj
 0002:00012ac4       ??_C@_0BE@GCHIHBHA@id?9smime?9ct?9receipt?$AA@ 00079ac4     libeay32:obj_dat.obj
 0002:00012ad8       ??_C@_0BP@CCCOHHAI@id?9smime?9mod?9ets?9eSigPolicy?997?$AA@ 00079ad8     libeay32:obj_dat.obj
 0002:00012af8       ??_C@_0BP@KEHEABPA@id?9smime?9mod?9ets?9eSigPolicy?988?$AA@ 00079af8     libeay32:obj_dat.obj
 0002:00012b18       ??_C@_0BP@POGMGJII@id?9smime?9mod?9ets?9eSignature?997?$AA@ 00079b18     libeay32:obj_dat.obj
 0002:00012b38       ??_C@_0BP@HIDGBPHA@id?9smime?9mod?9ets?9eSignature?988?$AA@ 00079b38     libeay32:obj_dat.obj
 0002:00012b58       ??_C@_0BE@PEENABNJ@id?9smime?9mod?9msg?9v3?$AA@ 00079b58     libeay32:obj_dat.obj
 0002:00012b6c       ??_C@_0BB@LBBEMNBN@id?9smime?9mod?9oid?$AA@ 00079b6c     libeay32:obj_dat.obj
 0002:00012b80       ??_C@_0BB@MKJLIPEJ@id?9smime?9mod?9ess?$AA@ 00079b80     libeay32:obj_dat.obj
 0002:00012b94       ??_C@_0BB@PJEIFOOP@id?9smime?9mod?9cms?$AA@ 00079b94     libeay32:obj_dat.obj
 0002:00012ba8       ??_C@_0N@CFBKAPGC@id?9smime?9cti?$AA@ 00079ba8     libeay32:obj_dat.obj
 0002:00012bb8       ??_C@_0N@PABBGIHI@id?9smime?9spq?$AA@ 00079bb8     libeay32:obj_dat.obj
 0002:00012bc8       ??_C@_0M@LHBAJBP@id?9smime?9cd?$AA@ 00079bc8     libeay32:obj_dat.obj
 0002:00012bd4       ??_C@_0N@DKFBIKP@id?9smime?9alg?$AA@ 00079bd4     libeay32:obj_dat.obj
 0002:00012be4       ??_C@_0M@HFICCJDE@id?9smime?9aa?$AA@ 00079be4     libeay32:obj_dat.obj
 0002:00012bf0       ??_C@_0M@EBLDBLEO@id?9smime?9ct?$AA@ 00079bf0     libeay32:obj_dat.obj
 0002:00012bfc       ??_C@_0N@GABIEKIN@id?9smime?9mod?$AA@ 00079bfc     libeay32:obj_dat.obj
 0002:00012c0c       ??_C@_06DFGHEKNE@S?1MIME?$AA@ 00079c0c     libeay32:obj_dat.obj
 0002:00012c14       ??_C@_05HHBEAKJJ@SMIME?$AA@ 00079c14     libeay32:obj_dat.obj
 0002:00012c1c       ??_C@_05HGOIFJJD@pkcs5?$AA@ 00079c1c     libeay32:obj_dat.obj
 0002:00012c24       ??_C@_05BCIEJMJH@pkcs1?$AA@ 00079c24     libeay32:obj_dat.obj
 0002:00012c2c       ??_C@_0L@DJCLIPOH@X9?457?5CM?5?$DP?$AA@ 00079c2c     libeay32:obj_dat.obj
 0002:00012c38       ??_C@_04CGFPFLFA@X9cm?$AA@ 00079c38     libeay32:obj_dat.obj
 0002:00012c40       ??_C@_05PAJLFBHD@X9?457?$AA@ 00079c40     libeay32:obj_dat.obj
 0002:00012c48       ??_C@_05OCCOPOJN@X9?957?$AA@ 00079c48     libeay32:obj_dat.obj
 0002:00012c50       ??_C@_0BD@NMCDOJHL@ISO?5US?5Member?5Body?$AA@ 00079c50     libeay32:obj_dat.obj
 0002:00012c64       ??_C@_06EKAADAMF@ISO?9US?$AA@ 00079c64     libeay32:obj_dat.obj
 0002:00012c6c       ??_C@_0BA@BGDAEHGF@ISO?5Member?5Body?$AA@ 00079c6c     libeay32:obj_dat.obj
 0002:00012c7c       ??_C@_0M@CMICFDOA@member?9body?$AA@ 00079c7c     libeay32:obj_dat.obj
 0002:00012c88       ??_C@_03CMEHDJAL@iso?$AA@  00079c88     libeay32:obj_dat.obj
 0002:00012c8c       ??_C@_03CBLMPEHH@ISO?$AA@  00079c8c     libeay32:obj_dat.obj
 0002:00012c90       ??_C@_0N@CPJNIPDD@OCSP?5Signing?$AA@ 00079c90     libeay32:obj_dat.obj
 0002:00012ca0       ??_C@_0M@HBKJLKNM@OCSPSigning?$AA@ 00079ca0     libeay32:obj_dat.obj
 0002:00012cac       ??_C@_0L@CABCENFK@CA?5Issuers?$AA@ 00079cac     libeay32:obj_dat.obj
 0002:00012cb8       ??_C@_09GFPECPIH@caIssuers?$AA@ 00079cb8     libeay32:obj_dat.obj
 0002:00012cc4       ??_C@_04LOJOPNBE@OCSP?$AA@ 00079cc4     libeay32:obj_dat.obj
 0002:00012ccc       ??_C@_0BN@EILCOJAN@Authority?5Information?5Access?$AA@ 00079ccc     libeay32:obj_dat.obj
 0002:00012cec       ??_C@_0BE@PLCGCINM@authorityInfoAccess?$AA@ 00079cec     libeay32:obj_dat.obj
 0002:00012d00       ??_C@_05BHKIKJBE@id?9ad?$AA@ 00079d00     libeay32:obj_dat.obj
 0002:00012d08       ??_C@_05BDFHFBBC@id?9pe?$AA@ 00079d08     libeay32:obj_dat.obj
 0002:00012d10       ??_C@_0M@DNNLEIMI@dnQualifier?$AA@ 00079d10     libeay32:obj_dat.obj
 0002:00012d1c       ??_C@_04MEMAJGDJ@name?$AA@ 00079d1c     libeay32:obj_dat.obj
 0002:00012d24       ??_C@_0BC@GLHEKHCC@Extension?5Request?$AA@ 00079d24     libeay32:obj_dat.obj
 0002:00012d38       ??_C@_06EJACAMDF@extReq?$AA@ 00079d38     libeay32:obj_dat.obj
 0002:00012d40       ??_C@_0BM@MEJAMAEO@Microsoft?5Extension?5Request?$AA@ 00079d40     libeay32:obj_dat.obj
 0002:00012d5c       ??_C@_08HCCJAOPJ@msExtReq?$AA@ 00079d5c     libeay32:obj_dat.obj
 0002:00012d68       ??_C@_0BG@JLHBEJLP@pbeWithSHA1AndDES?9CBC?$AA@ 00079d68     libeay32:obj_dat.obj
 0002:00012d80       ??_C@_0N@GOPIPBOD@PBE?9SHA1?9DES?$AA@ 00079d80     libeay32:obj_dat.obj
 0002:00012d90       ??_C@_0BF@CKDLCJKD@pbeWithMD5AndRC2?9CBC?$AA@ 00079d90     libeay32:obj_dat.obj
 0002:00012da8       ??_C@_0P@IDPFKEHM@PBE?9MD5?9RC2?964?$AA@ 00079da8     libeay32:obj_dat.obj
 0002:00012db8       ??_C@_0BF@FOKDMACM@pbeWithMD2AndRC2?9CBC?$AA@ 00079db8     libeay32:obj_dat.obj
 0002:00012dd0       ??_C@_0P@OHJEMJLF@PBE?9MD2?9RC2?964?$AA@ 00079dd0     libeay32:obj_dat.obj
 0002:00012de0       ??_C@_0BE@CEEFMCAI@S?1MIME?5Capabilities?$AA@ 00079de0     libeay32:obj_dat.obj
 0002:00012df4       ??_C@_0L@LCBJGKJG@SMIME?9CAPS?$AA@ 00079df4     libeay32:obj_dat.obj
 0002:00012e00       ??_C@_0L@CLELMECA@rc2?964?9cbc?$AA@ 00079e00     libeay32:obj_dat.obj
 0002:00012e0c       ??_C@_0L@OPHBIFFL@RC2?964?9CBC?$AA@ 00079e0c     libeay32:obj_dat.obj
 0002:00012e18       ??_C@_0BN@KPMBKEE@Policy?5Qualifier?5User?5Notice?$AA@ 00079e18     libeay32:obj_dat.obj
 0002:00012e38       ??_C@_0O@CJFHFAHE@id?9qt?9unotice?$AA@ 00079e38     libeay32:obj_dat.obj
 0002:00012e48       ??_C@_0BF@HPKIKKPI@Policy?5Qualifier?5CPS?$AA@ 00079e48     libeay32:obj_dat.obj
 0002:00012e60       ??_C@_09MIPGHKGJ@id?9qt?9cps?$AA@ 00079e60     libeay32:obj_dat.obj
 0002:00012e6c       ??_C@_0N@KANOAIP@hmacWithSHA1?$AA@ 00079e6c     libeay32:obj_dat.obj
 0002:00012e7c       ??_C@_06DEJMPFNK@PBMAC1?$AA@ 00079e7c     libeay32:obj_dat.obj
 0002:00012e84       ??_C@_05EPMADBBF@PBES2?$AA@ 00079e84     libeay32:obj_dat.obj
 0002:00012e8c       ??_C@_07KAOEJCFK@x509Crl?$AA@ 00079e8c     libeay32:obj_dat.obj
 0002:00012e94       ??_C@_0BA@BFAOBDKH@sdsiCertificate?$AA@ 00079e94     libeay32:obj_dat.obj
 0002:00012ea4       ??_C@_0BA@EMOFOCJL@x509Certificate?$AA@ 00079ea4     libeay32:obj_dat.obj
 0002:00012eb4       ??_C@_0L@BCMHPPAO@localKeyID?$AA@ 00079eb4     libeay32:obj_dat.obj
 0002:00012ec0       ??_C@_0N@BGFMPLCM@friendlyName?$AA@ 00079ec0     libeay32:obj_dat.obj
 0002:00012ed0       ??_C@_0BA@KAKLKBBC@safeContentsBag?$AA@ 00079ed0     libeay32:obj_dat.obj
 0002:00012ee0       ??_C@_09DELDBPIE@secretBag?$AA@ 00079ee0     libeay32:obj_dat.obj
 0002:00012eec       ??_C@_06JAFBIMLO@crlBag?$AA@ 00079eec     libeay32:obj_dat.obj
 0002:00012ef4       ??_C@_07FDLMCII@certBag?$AA@ 00079ef4     libeay32:obj_dat.obj
 0002:00012efc       ??_C@_0BE@ELJKIANF@pkcs8ShroudedKeyBag?$AA@ 00079efc     libeay32:obj_dat.obj
 0002:00012f10       ??_C@_06BFGNOIAI@keyBag?$AA@ 00079f10     libeay32:obj_dat.obj
 0002:00012f18       ??_C@_0BL@CKNKIMON@pbeWithSHA1And40BitRC2?9CBC?$AA@ 00079f18     libeay32:obj_dat.obj
 0002:00012f34       ??_C@_0BA@MNBMNMAN@PBE?9SHA1?9RC2?940?$AA@ 00079f34     libeay32:obj_dat.obj
 0002:00012f44       ??_C@_0BM@DOLDINME@pbeWithSHA1And128BitRC2?9CBC?$AA@ 00079f44     libeay32:obj_dat.obj
 0002:00012f60       ??_C@_0BB@FNLJPIMG@PBE?9SHA1?9RC2?9128?$AA@ 00079f60     libeay32:obj_dat.obj
 0002:00012f74       ??_C@_0CB@NCMPKEGH@pbeWithSHA1And2?9KeyTripleDES?9CBC@ 00079f74     libeay32:obj_dat.obj
 0002:00012f98       ??_C@_0O@HOHOOIGM@PBE?9SHA1?92DES?$AA@ 00079f98     libeay32:obj_dat.obj
 0002:00012fa8       ??_C@_0CB@FCNCEDP@pbeWithSHA1And3?9KeyTripleDES?9CBC@ 00079fa8     libeay32:obj_dat.obj
 0002:00012fcc       ??_C@_0O@EDBOMBNM@PBE?9SHA1?93DES?$AA@ 00079fcc     libeay32:obj_dat.obj
 0002:00012fdc       ??_C@_0BH@OCAEJMIL@pbeWithSHA1And40BitRC4?$AA@ 00079fdc     libeay32:obj_dat.obj
 0002:00012ff4       ??_C@_0BA@ECFMCJKN@PBE?9SHA1?9RC4?940?$AA@ 00079ff4     libeay32:obj_dat.obj
 0002:00013004       ??_C@_0BI@LBIFCLPB@pbeWithSHA1And128BitRC4?$AA@ 0007a004     libeay32:obj_dat.obj
 0002:0001301c       ??_C@_0BB@ILOABLNL@PBE?9SHA1?9RC4?9128?$AA@ 0007a01c     libeay32:obj_dat.obj
 0002:00013030       ??_C@_0BD@PNDCMCDK@Strong?5Extranet?5ID?$AA@ 0007a030     libeay32:obj_dat.obj
 0002:00013044       ??_C@_07DKMNOLMH@SXNetID?$AA@ 0007a044     libeay32:obj_dat.obj
 0002:0001304c       ??_C@_0BA@JDBEMONE@Invalidity?5Date?$AA@ 0007a04c     libeay32:obj_dat.obj
 0002:0001305c       ??_C@_0P@BKEGCOMO@invalidityDate?$AA@ 0007a05c     libeay32:obj_dat.obj
 0002:0001306c       ??_C@_0BH@GODIEFKG@X509v3?5CRL?5Reason?5Code?$AA@ 0007a06c     libeay32:obj_dat.obj
 0002:00013084       ??_C@_09MCDAGILE@CRLReason?$AA@ 0007a084     libeay32:obj_dat.obj
 0002:00013090       ??_C@_0BL@HLNLPBHP@X509v3?5Delta?5CRL?5Indicator?$AA@ 0007a090     libeay32:obj_dat.obj
 0002:000130ac       ??_C@_08ECNAKPJJ@deltaCRL?$AA@ 0007a0ac     libeay32:obj_dat.obj
 0002:000130b8       ??_C@_0BN@MDNLHLBL@Netscape?5Server?5Gated?5Crypto?$AA@ 0007a0b8     libeay32:obj_dat.obj
 0002:000130d8       ??_C@_05LFIIINKG@nsSGC?$AA@ 0007a0d8     libeay32:obj_dat.obj
 0002:000130e0       ??_C@_0CA@IJODBCMB@Microsoft?5Encrypted?5File?5System?$AA@ 0007a0e0     libeay32:obj_dat.obj
 0002:00013100       ??_C@_05NGOIPCN@msEFS?$AA@ 0007a100     libeay32:obj_dat.obj
 0002:00013108       ??_C@_0BO@FBDDCLK@Microsoft?5Server?5Gated?5Crypto?$AA@ 0007a108     libeay32:obj_dat.obj
 0002:00013128       ??_C@_05DDBMPPAI@msSGC?$AA@ 0007a128     libeay32:obj_dat.obj
 0002:00013130       ??_C@_0BN@GNMCHNOI@Microsoft?5Trust?5List?5Signing?$AA@ 0007a130     libeay32:obj_dat.obj
 0002:00013150       ??_C@_09HGCLLDPK@msCTLSign?$AA@ 0007a150     libeay32:obj_dat.obj
 0002:0001315c       ??_C@_0CC@GKFNEBFA@Microsoft?5Commercial?5Code?5Signin@ 0007a15c     libeay32:obj_dat.obj
 0002:00013180       ??_C@_09PDGAMFAO@msCodeCom?$AA@ 0007a180     libeay32:obj_dat.obj
 0002:0001318c       ??_C@_0CC@NDDHKAMP@Microsoft?5Individual?5Code?5Signin@ 0007a18c     libeay32:obj_dat.obj
 0002:000131b0       ??_C@_09EMNNPEBE@msCodeInd?$AA@ 0007a1b0     libeay32:obj_dat.obj
 0002:000131bc       ??_C@_0O@GMMBLMEE@Time?5Stamping?$AA@ 0007a1bc     libeay32:obj_dat.obj
 0002:000131cc       ??_C@_0N@LONEBHPN@timeStamping?$AA@ 0007a1cc     libeay32:obj_dat.obj
 0002:000131dc       ??_C@_0BC@BLBGFKKG@E?9mail?5Protection?$AA@ 0007a1dc     libeay32:obj_dat.obj
 0002:000131f0       ??_C@_0BA@NPCFDPCO@emailProtection?$AA@ 0007a1f0     libeay32:obj_dat.obj
 0002:00013200       ??_C@_0N@CHJHLHFC@Code?5Signing?$AA@ 0007a200     libeay32:obj_dat.obj
 0002:00013210       ??_C@_0M@OJNCNGJ@codeSigning?$AA@ 0007a210     libeay32:obj_dat.obj
 0002:0001321c       ??_C@_0BO@FEMCBEOF@TLS?5Web?5Client?5Authentication?$AA@ 0007a21c     libeay32:obj_dat.obj
 0002:0001323c       ??_C@_0L@HCMKLLOP@clientAuth?$AA@ 0007a23c     libeay32:obj_dat.obj
 0002:00013248       ??_C@_0BO@HPFOJNNE@TLS?5Web?5Server?5Authentication?$AA@ 0007a248     libeay32:obj_dat.obj
 0002:00013268       ??_C@_0L@CINGAJGN@serverAuth?$AA@ 0007a268     libeay32:obj_dat.obj
 0002:00013274       ??_C@_05DEJBPLJH@id?9kp?$AA@ 0007a274     libeay32:obj_dat.obj
 0002:0001327c       ??_C@_04EAPCHJAG@PKIX?$AA@ 0007a27c     libeay32:obj_dat.obj
 0002:00013284       ??_C@_0BK@KFMGFBEG@X509v3?5Extended?5Key?5Usage?$AA@ 0007a284     libeay32:obj_dat.obj
 0002:000132a0       ??_C@_0BB@DGDLKPHD@extendedKeyUsage?$AA@ 0007a2a0     libeay32:obj_dat.obj
 0002:000132b4       ??_C@_0BB@KGNEOBKL@zlib?5compression?$AA@ 0007a2b4     libeay32:obj_dat.obj
 0002:000132c8       ??_C@_04CHLIKDMF@ZLIB?$AA@ 0007a2c8     libeay32:obj_dat.obj
 0002:000132d0       ??_C@_0BH@CAEIMNHD@run?5length?5compression?$AA@ 0007a2d0     libeay32:obj_dat.obj
 0002:000132e8       ??_C@_03ELDBCICO@RLE?$AA@  0007a2e8     libeay32:obj_dat.obj
 0002:000132ec       ??_C@_07NLMEMEEK@rc5?9ofb?$AA@ 0007a2ec     libeay32:obj_dat.obj
 0002:000132f4       ??_C@_07OAPEFCPM@RC5?9OFB?$AA@ 0007a2f4     libeay32:obj_dat.obj
 0002:000132fc       ??_C@_07JBBCHLPC@rc5?9cfb?$AA@ 0007a2fc     libeay32:obj_dat.obj
 0002:00013304       ??_C@_07KKCCONEE@RC5?9CFB?$AA@ 0007a304     libeay32:obj_dat.obj
 0002:0001330c       ??_C@_07LCLCOGMF@rc5?9ecb?$AA@ 0007a30c     libeay32:obj_dat.obj
 0002:00013314       ??_C@_07IJICHAHD@RC5?9ECB?$AA@ 0007a314     libeay32:obj_dat.obj
 0002:0001331c       ??_C@_07IPAAOCGP@rc5?9cbc?$AA@ 0007a31c     libeay32:obj_dat.obj
 0002:00013324       ??_C@_07LEDAHENJ@RC5?9CBC?$AA@ 0007a324     libeay32:obj_dat.obj
 0002:0001332c       ??_C@_0BB@DCJDAKFH@ripemd160WithRSA?$AA@ 0007a32c     libeay32:obj_dat.obj
 0002:00013340       ??_C@_0O@JPOIHGOH@RSA?9RIPEMD160?$AA@ 0007a340     libeay32:obj_dat.obj
 0002:00013350       ??_C@_09EDIPKBN@ripemd160?$AA@ 0007a350     libeay32:obj_dat.obj
 0002:0001335c       ??_C@_09DJDCAKJG@RIPEMD160?$AA@ 0007a35c     libeay32:obj_dat.obj
 0002:00013368       ??_C@_0O@GMANLAEO@dsaEncryption?$AA@ 0007a368     libeay32:obj_dat.obj
 0002:00013378       ??_C@_03ENFFABCE@DSA?$AA@  0007a378     libeay32:obj_dat.obj
 0002:0001337c       ??_C@_0M@KECGAPAA@sha1WithRSA?$AA@ 0007a37c     libeay32:obj_dat.obj
 0002:00013388       ??_C@_0L@EMMEGDKK@RSA?9SHA1?92?$AA@ 0007a388     libeay32:obj_dat.obj
 0002:00013394       ??_C@_08GOLKFMKI@md5?9sha1?$AA@ 0007a394     libeay32:obj_dat.obj
 0002:000133a0       ??_C@_08EMIDHKIH@MD5?9SHA1?$AA@ 0007a3a0     libeay32:obj_dat.obj
 0002:000133ac       ??_C@_0M@EFJKPOPH@dsaWithSHA1?$AA@ 0007a3ac     libeay32:obj_dat.obj
 0002:000133b8       ??_C@_08IOHJAANG@DSA?9SHA1?$AA@ 0007a3b8     libeay32:obj_dat.obj
 0002:000133c4       ??_C@_0BG@JCFINJGL@pbeWithMD5AndCast5CBC?$AA@ 0007a3c4     libeay32:obj_dat.obj
 0002:000133dc       ??_C@_09ECHHPLBP@cast5?9ofb?$AA@ 0007a3dc     libeay32:obj_dat.obj
 0002:000133e8       ??_C@_09LEOLOMNK@CAST5?9OFB?$AA@ 0007a3e8     libeay32:obj_dat.obj
 0002:000133f4       ??_C@_09IKBEEKH@cast5?9cfb?$AA@ 0007a3f4     libeay32:obj_dat.obj
 0002:00013400       ??_C@_09PODNFDGC@CAST5?9CFB?$AA@ 0007a400     libeay32:obj_dat.obj
 0002:0001340c       ??_C@_09CLABNJJA@cast5?9ecb?$AA@ 0007a40c     libeay32:obj_dat.obj
 0002:00013418       ??_C@_09NNJNMOFF@CAST5?9ECB?$AA@ 0007a418     libeay32:obj_dat.obj
 0002:00013424       ??_C@_09BGLDNNDK@cast5?9cbc?$AA@ 0007a424     libeay32:obj_dat.obj
 0002:00013430       ??_C@_09OACPMKPP@CAST5?9CBC?$AA@ 0007a430     libeay32:obj_dat.obj
 0002:0001343c       ??_C@_0M@PPJNHBMP@description?$AA@ 0007a43c     libeay32:obj_dat.obj
 0002:00013448       ??_C@_05PHLGJONK@title?$AA@ 0007a448     libeay32:obj_dat.obj
 0002:00013450       ??_C@_0N@OMOHFKCJ@serialNumber?$AA@ 0007a450     libeay32:obj_dat.obj
 0002:00013460       ??_C@_0L@CNDCBNIN@md5WithRSA?$AA@ 0007a460     libeay32:obj_dat.obj
 0002:0001346c       ??_C@_0L@NACEPNFC@RSA?9NP?9MD5?$AA@ 0007a46c     libeay32:obj_dat.obj
 0002:00013478       ??_C@_0BP@EGHJGANM@X509v3?5CRL?5Distribution?5Points?$AA@ 0007a478     libeay32:obj_dat.obj
 0002:00013498       ??_C@_0BG@CCHGOEBE@crlDistributionPoints?$AA@ 0007a498     libeay32:obj_dat.obj
 0002:000134b0       ??_C@_08PAKNLFON@initials?$AA@ 0007a4b0     libeay32:obj_dat.obj
 0002:000134bc       ??_C@_07LNKFHLHI@surname?$AA@ 0007a4bc     libeay32:obj_dat.obj
 0002:000134c4       ??_C@_02LONEIP@SN?$AA@     0007a4c4     libeay32:obj_dat.obj
 0002:000134c8       ??_C@_09GCBNJLNP@givenName?$AA@ 0007a4c8     libeay32:obj_dat.obj
 0002:000134d4       ??_C@_02BLJBNPCD@GN?$AA@   0007a4d4     libeay32:obj_dat.obj
 0002:000134d8       ??_C@_0L@CHEFJHBP@rc2?940?9cbc?$AA@ 0007a4d8     libeay32:obj_dat.obj
 0002:000134e4       ??_C@_0L@ODHPNGGE@RC2?940?9CBC?$AA@ 0007a4e4     libeay32:obj_dat.obj
 0002:000134f0       ??_C@_06GNNJIOGN@rc4?940?$AA@ 0007a4f0     libeay32:obj_dat.obj
 0002:000134f8       ??_C@_06KFMILCMH@RC4?940?$AA@ 0007a4f8     libeay32:obj_dat.obj
 0002:00013500       ??_C@_0M@HGGNEPNN@mdc2WithRSA?$AA@ 0007a500     libeay32:obj_dat.obj
 0002:0001350c       ??_C@_08OMAMCKNL@RSA?9MDC2?$AA@ 0007a50c     libeay32:obj_dat.obj
 0002:00013518       ??_C@_04ELNKPKEC@mdc2?$AA@ 0007a518     libeay32:obj_dat.obj
 0002:00013520       ??_C@_04BCGEDMJI@MDC2?$AA@ 0007a520     libeay32:obj_dat.obj
 0002:00013528       ??_C@_06OBJCCDFN@bf?9ofb?$AA@ 0007a528     libeay32:obj_dat.obj
 0002:00013530       ??_C@_06CEHINCIL@BF?9OFB?$AA@ 0007a530     libeay32:obj_dat.obj
 0002:00013538       ??_C@_06KLEEJMOF@bf?9cfb?$AA@ 0007a538     libeay32:obj_dat.obj
 0002:00013540       ??_C@_06GOKOGNDD@BF?9CFB?$AA@ 0007a540     libeay32:obj_dat.obj
 0002:00013548       ??_C@_06IIOEABNC@bf?9ecb?$AA@ 0007a548     libeay32:obj_dat.obj
 0002:00013550       ??_C@_06ENAOPAAE@BF?9ECB?$AA@ 0007a550     libeay32:obj_dat.obj
 0002:00013558       ??_C@_06LFFGAFHI@bf?9cbc?$AA@ 0007a558     libeay32:obj_dat.obj
 0002:00013560       ??_C@_06HALMPEKO@BF?9CBC?$AA@ 0007a560     libeay32:obj_dat.obj
 0002:00013568       ??_C@_0CA@GODCHEHD@X509v3?5Authority?5Key?5Identifier?$AA@ 0007a568     libeay32:obj_dat.obj
 0002:00013588       ??_C@_0BH@ICHFALGD@authorityKeyIdentifier?$AA@ 0007a588     libeay32:obj_dat.obj
 0002:000135a0       ??_C@_0BM@OOFGKLPK@X509v3?5Certificate?5Policies?$AA@ 0007a5a0     libeay32:obj_dat.obj
 0002:000135bc       ??_C@_0BE@OLMJNPEP@certificatePolicies?$AA@ 0007a5bc     libeay32:obj_dat.obj
 0002:000135d0       ??_C@_0BC@PCPNBDDJ@X509v3?5CRL?5Number?$AA@ 0007a5d0     libeay32:obj_dat.obj
 0002:000135e4       ??_C@_09JDPHHKMA@crlNumber?$AA@ 0007a5e4     libeay32:obj_dat.obj
 0002:000135f0       ??_C@_0BJ@FBHDAJML@X509v3?5Basic?5Constraints?$AA@ 0007a5f0     libeay32:obj_dat.obj
 0002:0001360c       ??_C@_0BB@IKNGJCLO@basicConstraints?$AA@ 0007a60c     libeay32:obj_dat.obj
 0002:00013620       ??_C@_0BP@FMJCGPCG@X509v3?5Issuer?5Alternative?5Name?$AA@ 0007a620     libeay32:obj_dat.obj
 0002:00013640       ??_C@_0O@DLIFHFCD@issuerAltName?$AA@ 0007a640     libeay32:obj_dat.obj
 0002:00013650       ??_C@_0CA@OPCJJLNF@X509v3?5Subject?5Alternative?5Name?$AA@ 0007a650     libeay32:obj_dat.obj
 0002:00013670       ??_C@_0P@EOFJHHKD@subjectAltName?$AA@ 0007a670     libeay32:obj_dat.obj
 0002:00013680       ??_C@_0CA@CLGHAMIP@X509v3?5Private?5Key?5Usage?5Period?$AA@ 0007a680     libeay32:obj_dat.obj
 0002:000136a0       ??_C@_0BG@JOIAJOMN@privateKeyUsagePeriod?$AA@ 0007a6a0     libeay32:obj_dat.obj
 0002:000136b8       ??_C@_0BB@BPPOKNBO@X509v3?5Key?5Usage?$AA@ 0007a6b8     libeay32:obj_dat.obj
 0002:000136cc       ??_C@_08BCICBOHF@keyUsage?$AA@ 0007a6cc     libeay32:obj_dat.obj
 0002:000136d8       ??_C@_0BO@ILPNOINJ@X509v3?5Subject?5Key?5Identifier?$AA@ 0007a6d8     libeay32:obj_dat.obj
 0002:000136f8       ??_C@_0BF@MOEDIMBI@subjectKeyIdentifier?$AA@ 0007a6f8     libeay32:obj_dat.obj
 0002:00013710       ??_C@_05NDHEMDL@id?9ce?$AA@ 0007a710     libeay32:obj_dat.obj
 0002:00013718       ??_C@_08KPMCEEEO@desx?9cbc?$AA@ 0007a718     libeay32:obj_dat.obj
 0002:00013724       ??_C@_08BBKPFFGN@DESX?9CBC?$AA@ 0007a724     libeay32:obj_dat.obj
 0002:00013730       ??_C@_0BO@KKKBMKBD@Netscape?5Certificate?5Sequence?$AA@ 0007a730     libeay32:obj_dat.obj
 0002:00013750       ??_C@_0P@OCCBBJKK@nsCertSequence?$AA@ 0007a750     libeay32:obj_dat.obj
 0002:00013760       ??_C@_0BB@DCFBGIOA@Netscape?5Comment?$AA@ 0007a760     libeay32:obj_dat.obj
 0002:00013774       ??_C@_09BALDFHMJ@nsComment?$AA@ 0007a774     libeay32:obj_dat.obj
 0002:00013780       ??_C@_0BJ@GMBLEMAL@Netscape?5SSL?5Server?5Name?$AA@ 0007a780     libeay32:obj_dat.obj
 0002:0001379c       ??_C@_0BA@KNOKNJNE@nsSslServerName?$AA@ 0007a79c     libeay32:obj_dat.obj
 0002:000137ac       ??_C@_0BH@EMEFHLC@Netscape?5CA?5Policy?5Url?$AA@ 0007a7ac     libeay32:obj_dat.obj
 0002:000137c4       ??_C@_0O@DHDIMJD@nsCaPolicyUrl?$AA@ 0007a7c4     libeay32:obj_dat.obj
 0002:000137d4       ??_C@_0BF@FKENIIHB@Netscape?5Renewal?5Url?$AA@ 0007a7d4     libeay32:obj_dat.obj
 0002:000137ec       ??_C@_0N@JILHKMLM@nsRenewalUrl?$AA@ 0007a7ec     libeay32:obj_dat.obj
 0002:000137fc       ??_C@_0BL@EMOMOFDB@Netscape?5CA?5Revocation?5Url?$AA@ 0007a7fc     libeay32:obj_dat.obj
 0002:00013818       ??_C@_0BC@IKAPCMGG@nsCaRevocationUrl?$AA@ 0007a818     libeay32:obj_dat.obj
 0002:0001382c       ??_C@_0BI@BCDINENC@Netscape?5Revocation?5Url?$AA@ 0007a82c     libeay32:obj_dat.obj
 0002:00013844       ??_C@_0BA@DKPGPAKK@nsRevocationUrl?$AA@ 0007a844     libeay32:obj_dat.obj
 0002:00013854       ??_C@_0BC@DIHCABP@Netscape?5Base?5Url?$AA@ 0007a854     libeay32:obj_dat.obj
 0002:00013868       ??_C@_09OCIGDOMM@nsBaseUrl?$AA@ 0007a868     libeay32:obj_dat.obj
 0002:00013874       ??_C@_0BD@NFPBEMEE@Netscape?5Cert?5Type?$AA@ 0007a874     libeay32:obj_dat.obj
 0002:00013888       ??_C@_0L@IICLKDNB@nsCertType?$AA@ 0007a888     libeay32:obj_dat.obj
 0002:00013894       ??_C@_0BA@DDLLDHEM@dsaWithSHA1?9old?$AA@ 0007a894     libeay32:obj_dat.obj
 0002:000138a4       ??_C@_0N@ONIKBKNK@DSA?9SHA1?9old?$AA@ 0007a8a4     libeay32:obj_dat.obj
 0002:000138b4       ??_C@_06KBOEGBGA@PBKDF2?$AA@ 0007a8b4     libeay32:obj_dat.obj
 0002:000138bc       ??_C@_0BG@IBNNJING@pbeWithSHA1AndRC2?9CBC?$AA@ 0007a8bc     libeay32:obj_dat.obj
 0002:000138d4       ??_C@_0BA@KKPEMNGH@PBE?9SHA1?9RC2?964?$AA@ 0007a8d4     libeay32:obj_dat.obj
 0002:000138e4       ??_C@_0BC@FFHHBCCH@dsaEncryption?9old?$AA@ 0007a8e4     libeay32:obj_dat.obj
 0002:000138f8       ??_C@_07PLHLFGGF@DSA?9old?$AA@ 0007a8f8     libeay32:obj_dat.obj
 0002:00013900       ??_C@_0L@BEHMICBH@dsaWithSHA?$AA@ 0007a900     libeay32:obj_dat.obj
 0002:0001390c       ??_C@_07JGDBCPKH@DSA?9SHA?$AA@ 0007a90c     libeay32:obj_dat.obj
 0002:00013914       ??_C@_0BG@DALFFFBE@sha1WithRSAEncryption?$AA@ 0007a914     libeay32:obj_dat.obj
 0002:0001392c       ??_C@_08FBKDDLCN@RSA?9SHA1?$AA@ 0007a92c     libeay32:obj_dat.obj
 0002:00013938       ??_C@_04PGHFOLLE@sha1?$AA@ 0007a938     libeay32:obj_dat.obj
 0002:00013940       ??_C@_04KPMLCNGO@SHA1?$AA@ 0007a940     libeay32:obj_dat.obj
 0002:00013948       ??_C@_0N@LODGAID@des?9ede3?9ofb?$AA@ 0007a948     libeay32:obj_dat.obj
 0002:00013958       ??_C@_0N@JPPBGLEM@DES?9EDE3?9OFB?$AA@ 0007a958     libeay32:obj_dat.obj
 0002:00013968       ??_C@_0M@BOHDOFGF@des?9ede?9ofb?$AA@ 0007a968     libeay32:obj_dat.obj
 0002:00013974       ??_C@_0M@PDBPCBBK@DES?9EDE?9OFB?$AA@ 0007a974     libeay32:obj_dat.obj
 0002:00013980       ??_C@_0N@EBDFNPDL@des?9ede3?9cfb?$AA@ 0007a980     libeay32:obj_dat.obj
 0002:00013990       ??_C@_0N@NFCHNEPE@DES?9EDE3?9CFB?$AA@ 0007a990     libeay32:obj_dat.obj
 0002:000139a0       ??_C@_0M@FEKFFKNN@des?9ede?9cfb?$AA@ 0007a9a0     libeay32:obj_dat.obj
 0002:000139ac       ??_C@_0M@LJMJJOKC@DES?9EDE?9CFB?$AA@ 0007a9ac     libeay32:obj_dat.obj
 0002:000139b8       ??_C@_0BD@JJEILMNP@Netscape?5Data?5Type?$AA@ 0007a9b8     libeay32:obj_dat.obj
 0002:000139cc       ??_C@_0L@FIMLGGPA@nsDataType?$AA@ 0007a9cc     libeay32:obj_dat.obj
 0002:000139d8       ??_C@_0BP@LHPGKGFM@Netscape?5Certificate?5Extension?$AA@ 0007a9d8     libeay32:obj_dat.obj
 0002:000139f8       ??_C@_09JDCKDNMG@nsCertExt?$AA@ 0007a9f8     libeay32:obj_dat.obj
 0002:00013a04       ??_C@_0BO@IAIBEBGO@Netscape?5Communications?5Corp?4?$AA@ 0007aa04     libeay32:obj_dat.obj
 0002:00013a24       ??_C@_08BDEPHMAF@Netscape?$AA@ 0007aa24     libeay32:obj_dat.obj
 0002:00013a30       ??_C@_0BO@LDCCNBPE@extendedCertificateAttributes?$AA@ 0007aa30     libeay32:obj_dat.obj
 0002:00013a50       ??_C@_0BE@MACPCAPF@unstructuredAddress?$AA@ 0007aa50     libeay32:obj_dat.obj
 0002:00013a64       ??_C@_0BC@OKHONEEM@challengePassword?$AA@ 0007aa64     libeay32:obj_dat.obj
 0002:00013a78       ??_C@_0BB@IPFGMODP@countersignature?$AA@ 0007aa78     libeay32:obj_dat.obj
 0002:00013a8c       ??_C@_0M@IJBJCCMP@signingTime?$AA@ 0007aa8c     libeay32:obj_dat.obj
 0002:00013a98       ??_C@_0O@JDGJDGC@messageDigest?$AA@ 0007aa98     libeay32:obj_dat.obj
 0002:00013aa8       ??_C@_0M@DOEFOEJD@contentType?$AA@ 0007aaa8     libeay32:obj_dat.obj
 0002:00013ab4       ??_C@_0BB@CJIILOEM@unstructuredName?$AA@ 0007aab4     libeay32:obj_dat.obj
 0002:00013ac8       ??_C@_0N@IHLBAGEP@emailAddress?$AA@ 0007aac8     libeay32:obj_dat.obj
 0002:00013ad8       ??_C@_05NKFNBGJP@pkcs9?$AA@ 0007aad8     libeay32:obj_dat.obj
 0002:00013ae0       ??_C@_08OGDEHPAF@idea?9ofb?$AA@ 0007aae0     libeay32:obj_dat.obj
 0002:00013aec       ??_C@_08FIFJGOCG@IDEA?9OFB?$AA@ 0007aaec     libeay32:obj_dat.obj
 0002:00013af8       ??_C@_07NLMBCAKN@des?9ofb?$AA@ 0007aaf8     libeay32:obj_dat.obj
 0002:00013b00       ??_C@_07OHFNLDCN@DES?9OFB?$AA@ 0007ab00     libeay32:obj_dat.obj
 0002:00013b08       ??_C@_0N@FPCHEGKG@des?9ede3?9cbc?$AA@ 0007ab08     libeay32:obj_dat.obj
 0002:00013b18       ??_C@_0N@MLDFENGJ@DES?9EDE3?9CBC?$AA@ 0007ab18     libeay32:obj_dat.obj
 0002:00013b28       ??_C@_0M@EKLHMDEA@des?9ede?9cbc?$AA@ 0007ab28     libeay32:obj_dat.obj
 0002:00013b34       ??_C@_0M@KHNLAHDP@DES?9EDE?9CBC?$AA@ 0007ab34     libeay32:obj_dat.obj
 0002:00013b40       ??_C@_0BF@LIDINENF@shaWithRSAEncryption?$AA@ 0007ab40     libeay32:obj_dat.obj
 0002:00013b58       ??_C@_07CMOFBHAL@RSA?9SHA?$AA@ 0007ab58     libeay32:obj_dat.obj
 0002:00013b60       ??_C@_03JNBDOPOP@sha?$AA@  0007ab60     libeay32:obj_dat.obj
 0002:00013b64       ??_C@_03JAOICCJD@SHA?$AA@  0007ab64     libeay32:obj_dat.obj
 0002:00013b68       ??_C@_07MGMBPEPC@rc2?9ofb?$AA@ 0007ab68     libeay32:obj_dat.obj
 0002:00013b70       ??_C@_07PNPBGCEE@RC2?9OFB?$AA@ 0007ab70     libeay32:obj_dat.obj
 0002:00013b78       ??_C@_07IMBHELEK@rc2?9cfb?$AA@ 0007ab78     libeay32:obj_dat.obj
 0002:00013b80       ??_C@_07LHCHNNPM@RC2?9CFB?$AA@ 0007ab80     libeay32:obj_dat.obj
 0002:00013b88       ??_C@_07KPLHNGHN@rc2?9ecb?$AA@ 0007ab88     libeay32:obj_dat.obj
 0002:00013b90       ??_C@_07JEIHEAML@RC2?9ECB?$AA@ 0007ab90     libeay32:obj_dat.obj
 0002:00013b98       ??_C@_07JCAFNCNH@rc2?9cbc?$AA@ 0007ab98     libeay32:obj_dat.obj
 0002:00013ba0       ??_C@_07KJDFEEGB@RC2?9CBC?$AA@ 0007aba0     libeay32:obj_dat.obj
 0002:00013ba8       ??_C@_08IPECFNIK@idea?9ecb?$AA@ 0007aba8     libeay32:obj_dat.obj
 0002:00013bb4       ??_C@_08DBCPEMKJ@IDEA?9ECB?$AA@ 0007abb4     libeay32:obj_dat.obj
 0002:00013bc0       ??_C@_08KMOCMALN@idea?9cfb?$AA@ 0007abc0     libeay32:obj_dat.obj
 0002:00013bcc       ??_C@_08BCIPNBJO@IDEA?9CFB?$AA@ 0007abcc     libeay32:obj_dat.obj
 0002:00013bd8       ??_C@_08LCPAFJCA@idea?9cbc?$AA@ 0007abd8     libeay32:obj_dat.obj
 0002:00013be4       ??_C@_08MJNEIAD@IDEA?9CBC?$AA@ 0007abe4     libeay32:obj_dat.obj
 0002:00013bf0       ??_C@_08LJCBLNOK@des?9ede3?$AA@ 0007abf0     libeay32:obj_dat.obj
 0002:00013bfc       ??_C@_08FEKFKCFJ@DES?9EDE3?$AA@ 0007abfc     libeay32:obj_dat.obj
 0002:00013c08       ??_C@_07PILJICGA@des?9ede?$AA@ 0007ac08     libeay32:obj_dat.obj
 0002:00013c10       ??_C@_07MECFBBOA@DES?9EDE?$AA@ 0007ac10     libeay32:obj_dat.obj
 0002:00013c18       ??_C@_07IPAFAGII@des?9cbc?$AA@ 0007ac18     libeay32:obj_dat.obj
 0002:00013c20       ??_C@_07LDJJJFAI@DES?9CBC?$AA@ 0007ac20     libeay32:obj_dat.obj
 0002:00013c28       ??_C@_07JBBHJPBF@des?9cfb?$AA@ 0007ac28     libeay32:obj_dat.obj
 0002:00013c30       ??_C@_07KNILAMJF@DES?9CFB?$AA@ 0007ac30     libeay32:obj_dat.obj
 0002:00013c38       ??_C@_07LCLHACCC@des?9ecb?$AA@ 0007ac38     libeay32:obj_dat.obj
 0002:00013c40       ??_C@_07IOCLJBKC@DES?9ECB?$AA@ 0007ac40     libeay32:obj_dat.obj
 0002:00013c48       ??_C@_0P@HCMIBBEB@dhKeyAgreement?$AA@ 0007ac48     libeay32:obj_dat.obj
 0002:00013c58       ??_C@_05CALCPOBF@pkcs3?$AA@ 0007ac58     libeay32:obj_dat.obj
 0002:00013c60       ??_C@_0BE@CAMKAFJN@pkcs7?9encryptedData?$AA@ 0007ac60     libeay32:obj_dat.obj
 0002:00013c74       ??_C@_0BB@CJNFBHDI@pkcs7?9digestData?$AA@ 0007ac74     libeay32:obj_dat.obj
 0002:00013c88       ??_C@_0BN@LMEEMCPG@pkcs7?9signedAndEnvelopedData?$AA@ 0007ac88     libeay32:obj_dat.obj
 0002:00013ca8       ??_C@_0BE@FAIIHMP@pkcs7?9envelopedData?$AA@ 0007aca8     libeay32:obj_dat.obj
 0002:00013cbc       ??_C@_0BB@PEKKHBEJ@pkcs7?9signedData?$AA@ 0007acbc     libeay32:obj_dat.obj
 0002:00013cd0       ??_C@_0L@BCKMJOMA@pkcs7?9data?$AA@ 0007acd0     libeay32:obj_dat.obj
 0002:00013cdc       ??_C@_05EENODLBB@pkcs7?$AA@ 0007acdc     libeay32:obj_dat.obj
 0002:00013ce4       ??_C@_03DICHAJGH@RSA?$AA@  0007ace4     libeay32:obj_dat.obj
 0002:00013ce8       ??_C@_0BH@LAMMAAM@organizationalUnitName?$AA@ 0007ace8     libeay32:obj_dat.obj
 0002:00013d00       ??_C@_02LMLEEFAB@OU?$AA@   0007ad00     libeay32:obj_dat.obj
 0002:00013d04       ??_C@_0BB@GBCNPHLL@organizationName?$AA@ 0007ad04     libeay32:obj_dat.obj
 0002:00013d18       ??_C@_01MJMHLOMK@O?$AA@    0007ad18     libeay32:obj_dat.obj
 0002:00013d1c       ??_C@_0BE@NKDCJFMD@stateOrProvinceName?$AA@ 0007ad1c     libeay32:obj_dat.obj
 0002:00013d30       ??_C@_02LAJDCOFE@ST?$AA@   0007ad30     libeay32:obj_dat.obj
 0002:00013d34       ??_C@_0N@LEDCGGBI@localityName?$AA@ 0007ad34     libeay32:obj_dat.obj
 0002:00013d44       ??_C@_01OCOKONAJ@L?$AA@    0007ad44     libeay32:obj_dat.obj
 0002:00013d48       ??_C@_0M@NPBHECMC@countryName?$AA@ 0007ad48     libeay32:obj_dat.obj
 0002:00013d54       ??_C@_01GFHCPBMG@C?$AA@    0007ad54     libeay32:obj_dat.obj
 0002:00013d58       ??_C@_0L@OILMNBLH@commonName?$AA@ 0007ad58     libeay32:obj_dat.obj
 0002:00013d64       ??_C@_02BMJIHHPP@CN?$AA@   0007ad64     libeay32:obj_dat.obj
 0002:00013d68       ??_C@_04NMKEOMFB@X509?$AA@ 0007ad68     libeay32:obj_dat.obj
 0002:00013d70       ??_C@_0BL@NJHHPHOL@directory?5services?5?$CIX?4500?$CJ?$AA@ 0007ad70     libeay32:obj_dat.obj
 0002:00013d8c       ??_C@_04NGGFHBI@X500?$AA@  0007ad8c     libeay32:obj_dat.obj
 0002:00013d94       ??_C@_0BF@DAJHPIMK@pbeWithMD5AndDES?9CBC?$AA@ 0007ad94     libeay32:obj_dat.obj
 0002:00013dac       ??_C@_0M@KBNDBPIJ@PBE?9MD5?9DES?$AA@ 0007adac     libeay32:obj_dat.obj
 0002:00013db8       ??_C@_0BF@EEAPBBEF@pbeWithMD2AndDES?9CBC?$AA@ 0007adb8     libeay32:obj_dat.obj
 0002:00013dd0       ??_C@_0M@LMNGCPDB@PBE?9MD2?9DES?$AA@ 0007add0     libeay32:obj_dat.obj
 0002:00013ddc       ??_C@_0BF@EEAHCNKC@md5WithRSAEncryption?$AA@ 0007addc     libeay32:obj_dat.obj
 0002:00013df4       ??_C@_07NOGKHCDB@RSA?9MD5?$AA@ 0007adf4     libeay32:obj_dat.obj
 0002:00013dfc       ??_C@_0BF@ODJKGOJ@md2WithRSAEncryption?$AA@ 0007adfc     libeay32:obj_dat.obj
 0002:00013e14       ??_C@_07JBCLOEPG@RSA?9MD2?$AA@ 0007ae14     libeay32:obj_dat.obj
 0002:00013e1c       ??_C@_0O@PCHNMHJE@rsaEncryption?$AA@ 0007ae1c     libeay32:obj_dat.obj
 0002:00013e2c       ??_C@_03OODGMOHK@rc4?$AA@  0007ae2c     libeay32:obj_dat.obj
 0002:00013e30       ??_C@_03HGEJCHKE@RC4?$AA@  0007ae30     libeay32:obj_dat.obj
 0002:00013e34       ??_C@_03PKBIKOHH@md5?$AA@  0007ae34     libeay32:obj_dat.obj
 0002:00013e38       ??_C@_03GCGHEHKJ@MD5?$AA@  0007ae38     libeay32:obj_dat.obj
 0002:00013e3c       ??_C@_03LFFJDILA@md2?$AA@  0007ae3c     libeay32:obj_dat.obj
 0002:00013e40       ??_C@_03CNCGNBGO@MD2?$AA@  0007ae40     libeay32:obj_dat.obj
 0002:00013e44       ??_C@_0BN@EBHJCEC@RSA?5Data?5Security?0?5Inc?4?5PKCS?$AA@ 0007ae44     libeay32:obj_dat.obj
 0002:00013e64       ??_C@_04GCKLMHGD@pkcs?$AA@ 0007ae64     libeay32:obj_dat.obj
 0002:00013e6c       ??_C@_0BI@MPBNCOIB@RSA?5Data?5Security?0?5Inc?4?$AA@ 0007ae6c     libeay32:obj_dat.obj
 0002:00013e84       ??_C@_06GGEMKGKC@rsadsi?$AA@ 0007ae84     libeay32:obj_dat.obj
 0002:00013e8c       ??_C@_09MLGAJAED@undefined?$AA@ 0007ae8c     libeay32:obj_dat.obj
 0002:00013e98       ??_C@_05DBLJEJPC@UNDEF?$AA@ 0007ae98     libeay32:obj_dat.obj
 0002:00013ea0       ??_C@_0FB@EJHIDBFI@d?3?2wm653wehh?2platform?2mvv210?2src@ 0007aea0     libeay32:obj_dat.obj
 0002:00013ef4       ??_C@_04MDEFHJHM@?4?$CFlu?$AA@ 0007aef4     libeay32:obj_dat.obj
 0002:00013f00       ??_C@_0FA@DONMMNBK@d?3?2wm653wehh?2platform?2mvv210?2src@ 0007af00     libeay32:eng_lib.obj
 0002:00013f50       ??_C@_0EM@DLBKEKNP@d?3?2wm653wehh?2platform?2mvv210?2src@ 0007af50     libeay32:digest.obj
 0002:00013f9c       ??_C@_0CI@KPJFNDOF@ctx?9?$DOdigest?9?$DOmd_size?5?$DM?$DN?5EVP_MAX_@ 0007af9c     libeay32:digest.obj
 0002:00014158       ??_C@_0FC@LCBCBJII@d?3?2wm653wehh?2platform?2mvv210?2src@ 0007b158     libeay32:eng_table.obj
 0002:00014250       ??_C@_0EN@LKHNEOCI@d?3?2wm653wehh?2platform?2mvv210?2src@ 0007b250     libeay32:ecp_mont.obj
 0002:00014340       ??_C@_0EN@MFLMOEJL@d?3?2wm653wehh?2platform?2mvv210?2src@ 0007b340     libeay32:ecp_nist.obj
 0002:00014430       ??_C@_0EN@HKENHFKC@d?3?2wm653wehh?2platform?2mvv210?2src@ 0007b430     libeay32:ec2_smpl.obj
 0002:00014480       ??_C@_0EP@EOLMKMCC@d?3?2wm653wehh?2platform?2mvv210?2src@ 0007b480     libeay32:a_object.obj
 0002:000144d0       ??_C@_09OJNEAJGG@?$DMINVALID?$DO?$AA@ 0007b4d0     libeay32:a_object.obj
 0002:000144e0       ??_C@_0FB@OACJPALH@d?3?2wm653wehh?2platform?2mvv210?2src@ 0007b4e0     libeay32:obj_lib.obj
 0002:00014534       ASN1_version               0007b534     libeay32:asn1_lib.obj
 0002:00014560       ??_C@_0EP@DFJJGEMF@d?3?2wm653wehh?2platform?2mvv210?2src@ 0007b560     libeay32:asn1_lib.obj
 0002:000145b0       ??_C@_0FC@BNEDDMOL@d?3?2wm653wehh?2platform?2mvv210?2src@ 0007b5b0     libeay32:tb_asnmth.obj
 0002:00014608       ??_C@_0FC@NEBNNILH@d?3?2wm653wehh?2platform?2mvv210?2src@ 0007b608     libeay32:tb_pkmeth.obj
 0002:00014660       ??_C@_0EP@HIMPJABG@d?3?2wm653wehh?2platform?2mvv210?2src@ 0007b660     libeay32:pmeth_lib.obj
 0002:000146b0       ??_C@_06IJPNAHC@digest?$AA@ 0007b6b0     libeay32:pmeth_lib.obj
 0002:000146b8       ??_C@_0FC@GLILKHMO@d?3?2wm653wehh?2platform?2mvv210?2src@ 0007b6b8     libeay32:tb_digest.obj
 0002:00014710       ??_C@_0EN@HNCBNDLA@d?3?2wm653wehh?2platform?2mvv210?2src@ 0007b710     libeay32:evp_lib.obj
 0002:00014760       ??_C@_0BD@LHHAEAAJ@l?5?$DM?$DN?5sizeof?$CIc?9?$DOiv?$CJ?$AA@ 0007b760     libeay32:evp_lib.obj
 0002:00014774       ??_C@_0BD@CKKMELBK@j?5?$DM?$DN?5sizeof?$CIc?9?$DOiv?$CJ?$AA@ 0007b774     libeay32:evp_lib.obj
 0002:00014788       ??_C@_0EO@NHOCECJL@d?3?2wm653wehh?2platform?2mvv210?2src@ 0007b788     libeay32:rsa_sign.obj
 0002:000147d8       ??_C@_0DF@DGNAAHIE@signature?5has?5problems?0?5re?9make?5@ 0007b7d8     libeay32:rsa_sign.obj
 0002:00014810       SHA256_version             0007b810     libeay32:sha256.obj
 0002:00014940       SHA512_version             0007b940     libeay32:sha512.obj
 0002:00014c90       ??_C@_0EN@IKCJFOCD@d?3?2wm653wehh?2platform?2mvv210?2src@ 0007bc90     libeay32:ecp_smpl.obj
 0002:00014ce0       ??_C@_0EM@PNNGIHGB@d?3?2wm653wehh?2platform?2mvv210?2src@ 0007bce0     libeay32:bn_mont.obj
 0002:000151e0       ??_C@_0EN@JCJEBHDE@d?3?2wm653wehh?2platform?2mvv210?2src@ 0007c1e0     libeay32:ec2_mult.obj
 0002:00015270       ??_C@_0EM@KOFLLDDI@d?3?2wm653wehh?2platform?2mvv210?2src@ 0007c270     libeay32:bn_gf2m.obj
 0002:000152c0       cmac_pkey_meth             0007c2c0     libeay32:cm_pmeth.obj
 0002:0001532c       ??_C@_06BHJHKMJC@hexkey?$AA@ 0007c32c     libeay32:cm_pmeth.obj
 0002:00015334       ??_C@_06KDGDAFPH@cipher?$AA@ 0007c334     libeay32:cm_pmeth.obj
 0002:0001533c       ??_C@_03ICHNJLJF@key?$AA@  0007c33c     libeay32:cm_pmeth.obj
 0002:00015340       hmac_pkey_meth             0007c340     libeay32:hm_pmeth.obj
 0002:000153b0       ??_C@_0EP@PNIBEDF@d?3?2wm653wehh?2platform?2mvv210?2src@ 0007c3b0     libeay32:hm_pmeth.obj
 0002:00015400       ec_pkey_meth               0007c400     libeay32:ec_pmeth.obj
 0002:00015470       ??_C@_0EN@FGGHDHMC@d?3?2wm653wehh?2platform?2mvv210?2src@ 0007c470     libeay32:ec_pmeth.obj
 0002:000154c0       ??_C@_0BC@BLCJLNNM@ec_paramgen_curve?$AA@ 0007c4c0     libeay32:ec_pmeth.obj
 0002:000154d8       dsa_pkey_meth              0007c4d8     libeay32:dsa_pmeth.obj
 0002:00015548       ??_C@_0EP@KECMJLCG@d?3?2wm653wehh?2platform?2mvv210?2src@ 0007c548     libeay32:dsa_pmeth.obj
 0002:00015598       ??_C@_0BA@HDLNDIMK@dsa_paramgen_md?$AA@ 0007c598     libeay32:dsa_pmeth.obj
 0002:000155a8       ??_C@_0BE@JHBKDNPA@dsa_paramgen_q_bits?$AA@ 0007c5a8     libeay32:dsa_pmeth.obj
 0002:000155bc       ??_C@_0BC@DOMHFBFC@dsa_paramgen_bits?$AA@ 0007c5bc     libeay32:dsa_pmeth.obj
 0002:000155d0       dh_pkey_meth               0007c5d0     libeay32:dh_pmeth.obj
 0002:00015640       ??_C@_0EN@BFMPENCA@d?3?2wm653wehh?2platform?2mvv210?2src@ 0007c640     libeay32:dh_pmeth.obj
 0002:00015690       ??_C@_0BG@POLEFOHA@dh_paramgen_generator?$AA@ 0007c690     libeay32:dh_pmeth.obj
 0002:000156a8       ??_C@_0BG@LEMCDPBI@dh_paramgen_prime_len?$AA@ 0007c6a8     libeay32:dh_pmeth.obj
 0002:000156c0       rsa_pkey_meth              0007c6c0     libeay32:rsa_pmeth.obj
 0002:00015730       ??_C@_0EP@PCLPIEEA@d?3?2wm653wehh?2platform?2mvv210?2src@ 0007c730     libeay32:rsa_pmeth.obj
 0002:00015780       ??_C@_0BC@DMECNPFD@rsa_keygen_pubexp?$AA@ 0007c780     libeay32:rsa_pmeth.obj
 0002:00015794       ??_C@_0BA@GFPKPLAF@rsa_keygen_bits?$AA@ 0007c794     libeay32:rsa_pmeth.obj
 0002:000157a4       ??_C@_0BA@CIHMEEHB@rsa_pss_saltlen?$AA@ 0007c7a4     libeay32:rsa_pmeth.obj
 0002:000157b4       ??_C@_04JNCMEILM@x931?$AA@ 0007c7b4     libeay32:rsa_pmeth.obj
 0002:000157bc       ??_C@_04EIGNDHKO@oeap?$AA@ 0007c7bc     libeay32:rsa_pmeth.obj
 0002:000157c4       ??_C@_04CGFJFPFD@none?$AA@ 0007c7c4     libeay32:rsa_pmeth.obj
 0002:000157cc       ??_C@_06PDLHKEJK@sslv23?$AA@ 0007c7cc     libeay32:rsa_pmeth.obj
 0002:000157d4       ??_C@_0BB@BILFEOKG@rsa_padding_mode?$AA@ 0007c7d4     libeay32:rsa_pmeth.obj
 0002:000157e8       ??_C@_0EL@PAPNDPGN@d?3?2wm653wehh?2platform?2mvv210?2src@ 0007c7e8     libeay32:p_lib.obj
 0002:00015838       ??_C@_0EP@KDEOOFHE@d?3?2wm653wehh?2platform?2mvv210?2src@ 0007c838     libeay32:evp_asn1.obj
 0002:00015888       ??_C@_0EO@DEEJNAGE@d?3?2wm653wehh?2platform?2mvv210?2src@ 0007c888     libeay32:rsa_crpt.obj
 0002:0001591c       ??_C@_08DFMPDBMK@X509_SIG?$AA@ 0007c91c     libeay32:x_sig.obj
 0002:00015928       ??_C@_05CJCEEADM@algor?$AA@ 0007c928     libeay32:x_sig.obj
 0002:00015930       ??_C@_0EL@CLIEFBLC@d?3?2wm653wehh?2platform?2mvv210?2src@ 0007c930     libeay32:bn_mod.obj
 0002:00015980       ??_C@_0EL@EPOPJPNF@d?3?2wm653wehh?2platform?2mvv210?2src@ 0007c980     libeay32:bn_gcd.obj
 0002:000159d0       ??_C@_0EL@HJNLGKMO@d?3?2wm653wehh?2platform?2mvv210?2src@ 0007c9d0     libeay32:bn_div.obj
 0002:00015a20       cmac_asn1_meth             0007ca20     libeay32:cm_ameth.obj
 0002:00015a8c       ??_C@_0BE@GBIGMENL@OpenSSL?5CMAC?5method?$AA@ 0007ca8c     libeay32:cm_ameth.obj
 0002:00015aa0       hmac_asn1_meth             0007caa0     libeay32:hm_ameth.obj
 0002:00015b0c       ??_C@_0BE@BABEGANF@OpenSSL?5HMAC?5method?$AA@ 0007cb0c     libeay32:hm_ameth.obj
 0002:00015b20       ??_C@_0EP@LPMJCFIA@d?3?2wm653wehh?2platform?2mvv210?2src@ 0007cb20     libeay32:hm_ameth.obj
 0002:00015b70       eckey_asn1_meth            0007cb70     libeay32:ec_ameth.obj
 0002:00015bdc       ??_C@_0BF@DKDIFOGG@OpenSSL?5EC?5algorithm?$AA@ 0007cbdc     libeay32:ec_ameth.obj
 0002:00015bf4       ??_C@_02KNLLHFAA@EC?$AA@   0007cbf4     libeay32:ec_ameth.obj
 0002:00015bf8       ??_C@_0EN@OGHGAGHH@d?3?2wm653wehh?2platform?2mvv210?2src@ 0007cbf8     libeay32:ec_ameth.obj
 0002:00015c48       ??_C@_05FJHKEHEO@pub?3?5?$AA@ 0007cc48     libeay32:ec_ameth.obj
 0002:00015c50       ??_C@_05PFPGJCCA@priv?3?$AA@ 0007cc50     libeay32:ec_ameth.obj
 0002:00015c58       ??_C@_0O@OPPPNLCD@?$CFs?3?5?$CI?$CFd?5bit?$CJ?6?$AA@ 0007cc58     libeay32:ec_ameth.obj
 0002:00015c68       ??_C@_0BB@DMDKLH@ECDSA?9Parameters?$AA@ 0007cc68     libeay32:ec_ameth.obj
 0002:00015c7c       ??_C@_0L@FMJMEKAC@Public?9Key?$AA@ 0007cc7c     libeay32:ec_ameth.obj
 0002:00015c88       ??_C@_0M@CJKOCIEC@Private?9Key?$AA@ 0007cc88     libeay32:ec_ameth.obj
 0002:00015c98       dsa_asn1_meths             0007cc98     libeay32:dsa_ameth.obj
 0002:00015eb4       ??_C@_0BD@IBKHKBJA@OpenSSL?5DSA?5method?$AA@ 0007ceb4     libeay32:dsa_ameth.obj
 0002:00015ec8       ??_C@_0EP@BEDNKKJD@d?3?2wm653wehh?2platform?2mvv210?2src@ 0007cec8     libeay32:dsa_ameth.obj
 0002:00015f18       ??_C@_05LKAKAJND@G?3?5?5?5?$AA@ 0007cf18     libeay32:dsa_ameth.obj
 0002:00015f20       ??_C@_05GPIFOIFF@Q?3?5?5?5?$AA@ 0007cf20     libeay32:dsa_ameth.obj
 0002:00015f28       ??_C@_05KENJDLPA@P?3?5?5?5?$AA@ 0007cf28     libeay32:dsa_ameth.obj
 0002:00015f30       ??_C@_0P@LAFOADJN@DSA?9Parameters?$AA@ 0007cf30     libeay32:dsa_ameth.obj
 0002:00015f40       ??_C@_05CFOBEMGI@s?3?5?5?5?$AA@ 0007cf40     libeay32:dsa_ameth.obj
 0002:00015f48       ??_C@_05OOLNJPMN@r?3?5?5?5?$AA@ 0007cf48     libeay32:dsa_ameth.obj
 0002:00015f50       dh_asn1_meth               0007cf50     libeay32:dh_ameth.obj
 0002:00015fbc       ??_C@_0BJ@OPGBMMOB@OpenSSL?5PKCS?$CD3?5DH?5method?$AA@ 0007cfbc     libeay32:dh_ameth.obj
 0002:00015fd8       ??_C@_02EPINMGPM@DH?$AA@   0007cfd8     libeay32:dh_ameth.obj
 0002:00015fe0       ??_C@_0EN@KFNOHMJF@d?3?2wm653wehh?2platform?2mvv210?2src@ 0007cfe0     libeay32:dh_ameth.obj
 0002:00016030       ??_C@_0CF@KKPEILHE@recommended?9private?9length?3?5?$CFd?5b@ 0007d030     libeay32:dh_ameth.obj
 0002:00016058       ??_C@_0L@HDGHCIJF@generator?3?$AA@ 0007d058     libeay32:dh_ameth.obj
 0002:00016064       ??_C@_06POMKLBDA@prime?3?$AA@ 0007d064     libeay32:dh_ameth.obj
 0002:0001606c       ??_C@_0M@BCALNHOD@public?9key?3?$AA@ 0007d06c     libeay32:dh_ameth.obj
 0002:00016078       ??_C@_0N@MPONDEBM@private?9key?3?$AA@ 0007d078     libeay32:dh_ameth.obj
 0002:00016088       ??_C@_0BF@HJBOBPFM@PKCS?$CD3?5DH?5Parameters?$AA@ 0007d088     libeay32:dh_ameth.obj
 0002:000160a0       ??_C@_0BF@NEOAIGKI@PKCS?$CD3?5DH?5Public?9Key?$AA@ 0007d0a0     libeay32:dh_ameth.obj
 0002:000160b8       ??_C@_0BG@BPCFBOHI@PKCS?$CD3?5DH?5Private?9Key?$AA@ 0007d0b8     libeay32:dh_ameth.obj
 0002:000160d0       rsa_asn1_meths             0007d0d0     libeay32:rsa_ameth.obj
 0002:000161a8       ??_C@_0BD@MHOEKPBI@OpenSSL?5RSA?5method?$AA@ 0007d1a8     libeay32:rsa_ameth.obj
 0002:000161c0       ??_C@_0EP@ECKOLFPF@d?3?2wm653wehh?2platform?2mvv210?2src@ 0007d1c0     libeay32:rsa_ameth.obj
 0002:00016210       ??_C@_0N@GNAMJPHF@coefficient?3?$AA@ 0007d210     libeay32:rsa_ameth.obj
 0002:00016220       ??_C@_0L@OKKEHIPG@exponent2?3?$AA@ 0007d220     libeay32:rsa_ameth.obj
 0002:0001622c       ??_C@_0L@OIOCMGKP@exponent1?3?$AA@ 0007d22c     libeay32:rsa_ameth.obj
 0002:00016238       ??_C@_07NJNHFNM@prime2?3?$AA@ 0007d238     libeay32:rsa_ameth.obj
 0002:00016240       ??_C@_07PNLMLIF@prime1?3?$AA@ 0007d240     libeay32:rsa_ameth.obj
 0002:00016248       ??_C@_0BB@NFOLHHHJ@privateExponent?3?$AA@ 0007d248     libeay32:rsa_ameth.obj
 0002:0001625c       ??_C@_08GIMLILAA@Modulus?3?$AA@ 0007d25c     libeay32:rsa_ameth.obj
 0002:00016268       ??_C@_09DALHJPOO@Exponent?3?$AA@ 0007d268     libeay32:rsa_ameth.obj
 0002:00016274       ??_C@_0BG@HAJOCCOP@Public?9Key?3?5?$CI?$CFd?5bit?$CJ?6?$AA@ 0007d274     libeay32:rsa_ameth.obj
 0002:0001628c       ??_C@_08OKDKAJKD@modulus?3?$AA@ 0007d28c     libeay32:rsa_ameth.obj
 0002:00016298       ??_C@_0BA@FAAMOFHC@publicExponent?3?$AA@ 0007d298     libeay32:rsa_ameth.obj
 0002:000162a8       ??_C@_0BH@JHLDJION@Private?9Key?3?5?$CI?$CFd?5bit?$CJ?6?$AA@ 0007d2a8     libeay32:rsa_ameth.obj
 0002:000162c0       ??_C@_0P@DDPOEOJA@0xbc?5?$CIdefault?$CJ?$AA@ 0007d2c0     libeay32:rsa_ameth.obj
 0002:000162d0       ??_C@_0BA@LIMPMLCB@Trailer?5Field?3?5?$AA@ 0007d2d0     libeay32:rsa_ameth.obj
 0002:000162e0       ??_C@_0N@LMKHLINK@20?5?$CIdefault?$CJ?$AA@ 0007d2e0     libeay32:rsa_ameth.obj
 0002:000162f0       ??_C@_0O@KKNIODBM@Salt?5Length?3?5?$AA@ 0007d2f0     libeay32:rsa_ameth.obj
 0002:00016300       ??_C@_0BJ@NNFOENLD@mgf1?5with?5sha1?5?$CIdefault?$CJ?$AA@ 0007d300     libeay32:rsa_ameth.obj
 0002:0001631c       ??_C@_07DNODLGKM@INVALID?$AA@ 0007d31c     libeay32:rsa_ameth.obj
 0002:00016324       ??_C@_06BIDGLIKJ@?5with?5?$AA@ 0007d324     libeay32:rsa_ameth.obj
 0002:0001632c       ??_C@_0BB@HEAMLCPA@Mask?5Algorithm?3?5?$AA@ 0007d32c     libeay32:rsa_ameth.obj
 0002:00016340       ??_C@_0P@ODEAMLKF@sha1?5?$CIdefault?$CJ?$AA@ 0007d340     libeay32:rsa_ameth.obj
 0002:00016350       ??_C@_0BB@PMMDHLKH@Hash?5Algorithm?3?5?$AA@ 0007d350     libeay32:rsa_ameth.obj
 0002:00016364       ??_C@_0BL@KMBKPBGM@?5?$CIINVALID?5PSS?5PARAMETERS?$CJ?6?$AA@ 0007d364     libeay32:rsa_ameth.obj
 0002:00016380       ??_C@_0EL@CJHJHLOJ@d?3?2wm653wehh?2platform?2mvv210?2src@ 0007d380     libeay32:cmac.obj
 0002:000163e0       ??_C@_0EP@DFJOCJBM@d?3?2wm653wehh?2platform?2mvv210?2src@ 0007d3e0     libeay32:v3_utl.obj
 0002:00016430       ??_C@_05MAJJAKPI@FALSE?$AA@ 0007d430     libeay32:v3_utl.obj
 0002:00016438       ??_C@_04HCDDPBNL@TRUE?$AA@ 0007d438     libeay32:v3_utl.obj
 0002:00016440       ??_C@_07BDICHDDB@?0value?3?$AA@ 0007d440     libeay32:v3_utl.obj
 0002:00016448       ??_C@_06FONLLLNC@?0name?3?$AA@ 0007d448     libeay32:v3_utl.obj
 0002:00016450       ??_C@_08PCLJGJAL@section?3?$AA@ 0007d450     libeay32:v3_utl.obj
 0002:0001645c       ??_C@_02KAJCLHKP@no?$AA@   0007d45c     libeay32:v3_utl.obj
 0002:00016460       ??_C@_02NFLNFON@NO?$AA@    0007d460     libeay32:v3_utl.obj
 0002:00016464       ??_C@_01EFFIKLCJ@n?$AA@    0007d464     libeay32:v3_utl.obj
 0002:00016468       ??_C@_01NANMIPIL@N?$AA@    0007d468     libeay32:v3_utl.obj
 0002:0001646c       ??_C@_05LAPONLG@false?$AA@ 0007d46c     libeay32:v3_utl.obj
 0002:00016474       ??_C@_03ICICOMAL@yes?$AA@  0007d474     libeay32:v3_utl.obj
 0002:00016478       ??_C@_03IPHJCBHH@YES?$AA@  0007d478     libeay32:v3_utl.obj
 0002:0001647c       ??_C@_01EANLCPLP@y?$AA@    0007d47c     libeay32:v3_utl.obj
 0002:00016480       ??_C@_01NFFPALBN@Y?$AA@    0007d480     libeay32:v3_utl.obj
 0002:00016484       ??_C@_04LOAJBDKD@true?$AA@ 0007d484     libeay32:v3_utl.obj
 0002:0001648c       ??_C@_0M@PCENNPGA@?$CFd?4?$CFd?4?$CFd?4?$CFd?$AA@ 0007d48c     libeay32:v3_utl.obj
 0002:00016498       ??_C@_0CF@JFAAPJDH@len?$DO?$DN0?5?$CG?$CG?5len?$DM?$DN?$CIint?$CJsizeof?$CIctx?9?$DO@ 0007d498     libeay32:hmac.obj
 0002:000164c0       ??_C@_0BL@OKHNPHMK@j?5?$DM?$DN?5?$CIint?$CJsizeof?$CIctx?9?$DOkey?$CJ?$AA@ 0007d4c0     libeay32:hmac.obj
 0002:000164e0       ??_C@_0EL@FKOMILBN@d?3?2wm653wehh?2platform?2mvv210?2src@ 0007d4e0     libeay32:hmac.obj
 0002:0001652c       ECDSA_version              0007d52c     libeay32:ecs_lib.obj
 0002:00016558       ??_C@_0EP@HDBDKLOP@d?3?2wm653wehh?2platform?2mvv210?2src@ 0007d558     libeay32:ecs_lib.obj
 0002:000167e8       ??_C@_08CCPALKOP@priv_key?$AA@ 0007d7e8     libeay32:dsa_asn1.obj
 0002:000167f4       ??_C@_07CLGEADLH@pub_key?$AA@ 0007d7f4     libeay32:dsa_asn1.obj
 0002:000167fc       ??_C@_01JEJKBAGA@g?$AA@    0007d7fc     libeay32:dsa_asn1.obj
 0002:00016800       ??_C@_01IIACKFLH@q?$AA@    0007d800     libeay32:dsa_asn1.obj
 0002:00016804       ??_C@_01JBBJJEPG@p?$AA@    0007d804     libeay32:dsa_asn1.obj
 0002:00016808       ??_C@_07CPCPJPKL@version?$AA@ 0007d808     libeay32:dsa_asn1.obj
 0002:00016810       ??_C@_07ECLLFBLJ@DSA_SIG?$AA@ 0007d810     libeay32:dsa_asn1.obj
 0002:00016818       ??_C@_01LKDEMHDF@s?$AA@    0007d818     libeay32:dsa_asn1.obj
 0002:00016820       ??_C@_0EO@DLELNGDB@d?3?2wm653wehh?2platform?2mvv210?2src@ 0007d820     libeay32:dsa_asn1.obj
 0002:00016870       DSA_version                0007d870     libeay32:dsa_lib.obj
 0002:00016898       ??_C@_0EN@HPPIDPIC@d?3?2wm653wehh?2platform?2mvv210?2src@ 0007d898     libeay32:dsa_lib.obj
 0002:000168e8       DH_version                 0007d8e8     libeay32:dh_lib.obj
 0002:00016920       ??_C@_0EL@PIAODHMF@d?3?2wm653wehh?2platform?2mvv210?2src@ 0007d920     libeay32:dh_lib.obj
 0002:00016970       ??_C@_0EL@BNOPJFLP@d?3?2wm653wehh?2platform?2mvv210?2src@ 0007d970     libeay32:dh_gen.obj
 0002:000169bc       ??_C@_0BC@MGHKLCAP@OpenSSL?5DH?5Method?$AA@ 0007d9bc     libeay32:dh_key.obj
 0002:000169d0       ??_C@_0EL@KHODDKOC@d?3?2wm653wehh?2platform?2mvv210?2src@ 0007d9d0     libeay32:dh_key.obj
 0002:00016a28       ??_C@_0EN@HNNJMEMO@d?3?2wm653wehh?2platform?2mvv210?2src@ 0007da28     libeay32:rsa_pss.obj
 0002:00016a78       ??_C@_0EO@IHJGGIGJ@d?3?2wm653wehh?2platform?2mvv210?2src@ 0007da78     libeay32:rsa_x931.obj
 0002:00016ac8       ??_C@_0EO@KJLCAEHF@d?3?2wm653wehh?2platform?2mvv210?2src@ 0007dac8     libeay32:rsa_saos.obj
 0002:00016b8c       ??_C@_0M@MMOLGLEG@X509_ALGORS?$AA@ 0007db8c     libeay32:x_algor.obj
 0002:00016b98       ??_C@_0L@BNOBMJFK@algorithms?$AA@ 0007db98     libeay32:x_algor.obj
 0002:00016ba4       ??_C@_0L@BFHONDPK@X509_ALGOR?$AA@ 0007dba4     libeay32:x_algor.obj
 0002:00016bb0       ??_C@_09DAGAJHIH@parameter?$AA@ 0007dbb0     libeay32:x_algor.obj
 0002:00016bc0       ??_C@_0EN@EGODLFJH@d?3?2wm653wehh?2platform?2mvv210?2src@ 0007dbc0     libeay32:cms_env.obj
 0002:00016c10       RSA_version                0007dc10     libeay32:rsa_lib.obj
 0002:00016c38       ??_C@_0EN@MLDILJPH@d?3?2wm653wehh?2platform?2mvv210?2src@ 0007dc38     libeay32:rsa_lib.obj
 0002:00016c88       ??_C@_0EN@CONJBLIN@d?3?2wm653wehh?2platform?2mvv210?2src@ 0007dc88     libeay32:rsa_gen.obj
 0002:00016d60       ??_C@_06IEOJBDIK@object?$AA@ 0007dd60     libeay32:x_attrib.obj
 0002:00016d68       ??_C@_0P@IBKNNFL@X509_ATTRIBUTE?$AA@ 0007dd68     libeay32:x_attrib.obj
 0002:00016d78       ??_C@_0N@MCAEPLPL@value?4single?$AA@ 0007dd78     libeay32:x_attrib.obj
 0002:00016d88       ??_C@_09MPCDAIAO@value?4set?$AA@ 0007dd88     libeay32:x_attrib.obj
 0002:00017120       ??_C@_0EN@ODDCBIPI@d?3?2wm653wehh?2platform?2mvv210?2src@ 0007e120     libeay32:evp_pbe.obj
 0002:00017170       ??_C@_05DLJFLBDA@TYPE?$DN?$AA@ 0007e170     libeay32:evp_pbe.obj
 0002:00017494       ??_C@_0N@KHICOJGI@ASN1_SET_ANY?$AA@ 0007e494     libeay32:tasn_typ.obj
 0002:000174a4       ??_C@_0BC@COPGMDLD@ASN1_SEQUENCE_ANY?$AA@ 0007e4a4     libeay32:tasn_typ.obj
 0002:000174b8       ??_C@_0BH@HEBAELGA@ASN1_OCTET_STRING_NDEF?$AA@ 0007e4b8     libeay32:tasn_typ.obj
 0002:000174d0       ??_C@_0O@JKANHMPI@ASN1_FBOOLEAN?$AA@ 0007e4d0     libeay32:tasn_typ.obj
 0002:000174e0       ??_C@_0O@BIDLBGAP@ASN1_TBOOLEAN?$AA@ 0007e4e0     libeay32:tasn_typ.obj
 0002:000174f0       ??_C@_0N@HMAPMMGF@ASN1_BOOLEAN?$AA@ 0007e4f0     libeay32:tasn_typ.obj
 0002:00017500       ??_C@_0BA@CBHCBCAE@DIRECTORYSTRING?$AA@ 0007e500     libeay32:tasn_typ.obj
 0002:00017510       ??_C@_0M@FANFDIEE@DISPLAYTEXT?$AA@ 0007e510     libeay32:tasn_typ.obj
 0002:0001751c       ??_C@_0P@NDKOCAEJ@ASN1_PRINTABLE?$AA@ 0007e51c     libeay32:tasn_typ.obj
 0002:0001752c       ??_C@_0O@NJFCFMGE@ASN1_SEQUENCE?$AA@ 0007e52c     libeay32:tasn_typ.obj
 0002:0001753c       ??_C@_08FIDCPDIJ@ASN1_ANY?$AA@ 0007e53c     libeay32:tasn_typ.obj
 0002:00017548       ??_C@_0P@CHICPHIN@ASN1_BMPSTRING?$AA@ 0007e548     libeay32:tasn_typ.obj
 0002:00017558       ??_C@_0BF@DMDDFBNJ@ASN1_UNIVERSALSTRING?$AA@ 0007e558     libeay32:tasn_typ.obj
 0002:00017570       ??_C@_0BD@HMMCNBGD@ASN1_VISIBLESTRING?$AA@ 0007e570     libeay32:tasn_typ.obj
 0002:00017584       ??_C@_0BF@MPJFOIHC@ASN1_GENERALIZEDTIME?$AA@ 0007e584     libeay32:tasn_typ.obj
 0002:0001759c       ??_C@_0N@OIMCLPEM@ASN1_UTCTIME?$AA@ 0007e59c     libeay32:tasn_typ.obj
 0002:000175ac       ??_C@_0BD@EMMGLGMD@ASN1_GENERALSTRING?$AA@ 0007e5ac     libeay32:tasn_typ.obj
 0002:000175c0       ??_C@_0P@KBFNFBLB@ASN1_IA5STRING?$AA@ 0007e5c0     libeay32:tasn_typ.obj
 0002:000175d0       ??_C@_0P@GDIFPLAP@ASN1_T61STRING?$AA@ 0007e5d0     libeay32:tasn_typ.obj
 0002:000175e0       ??_C@_0BF@CPDMNKCA@ASN1_PRINTABLESTRING?$AA@ 0007e5e0     libeay32:tasn_typ.obj
 0002:000175f8       ??_C@_0BA@LEPDCAOC@ASN1_UTF8STRING?$AA@ 0007e5f8     libeay32:tasn_typ.obj
 0002:00017608       ??_C@_0M@BJNOJGBL@ASN1_OBJECT?$AA@ 0007e608     libeay32:tasn_typ.obj
 0002:00017614       ??_C@_09NHFFCPKK@ASN1_NULL?$AA@ 0007e614     libeay32:tasn_typ.obj
 0002:00017620       ??_C@_0BC@PEBEKNCO@ASN1_OCTET_STRING?$AA@ 0007e620     libeay32:tasn_typ.obj
 0002:00017634       ??_C@_0BA@LJHGDIKH@ASN1_BIT_STRING?$AA@ 0007e634     libeay32:tasn_typ.obj
 0002:00017644       ??_C@_0BA@CLGIIAJD@ASN1_ENUMERATED?$AA@ 0007e644     libeay32:tasn_typ.obj
 0002:00017654       ??_C@_0N@KIGEHGKE@ASN1_INTEGER?$AA@ 0007e654     libeay32:tasn_typ.obj
 0002:00017668       ??_C@_0EM@IJKLDGFG@d?3?2wm653wehh?2platform?2mvv210?2src@ 0007e668     libeay32:a_int.obj
 0002:000176b8       ??_C@_0EN@CHOOKOEN@d?3?2wm653wehh?2platform?2mvv210?2src@ 0007e6b8     libeay32:bn_blind.obj
 0002:00017788       ??_C@_0EP@IJPFBBNM@d?3?2wm653wehh?2platform?2mvv210?2src@ 0007e788     libeay32:tasn_dec.obj
 0002:000177d8       ??_C@_05GCCLHHOK@Type?$DN?$AA@ 0007e7d8     libeay32:tasn_dec.obj
 0002:000177e0       ??_C@_07NHKPEHKF@?0?5Type?$DN?$AA@ 0007e7e0     libeay32:tasn_dec.obj
 0002:000177e8       ??_C@_06GPKHKFJE@Field?$DN?$AA@ 0007e7e8     libeay32:tasn_dec.obj
 0002:000177f0       ??_C@_0EP@DFHJPDGI@d?3?2wm653wehh?2platform?2mvv210?2src@ 0007e7f0     libeay32:tasn_enc.obj
 0002:00017840       ??_C@_0EP@PHBFPCHC@d?3?2wm653wehh?2platform?2mvv210?2src@ 0007e840     libeay32:tasn_new.obj
 0002:00017c10       ??_C@_0O@DFJMHGOP@EC_PRIVATEKEY?$AA@ 0007ec10     libeay32:ec_asn1.obj
 0002:00017c20       ??_C@_09IDENFCJL@publicKey?$AA@ 0007ec20     libeay32:ec_asn1.obj
 0002:00017c2c       ??_C@_0L@HHPOFMCB@parameters?$AA@ 0007ec2c     libeay32:ec_asn1.obj
 0002:00017c38       ??_C@_0L@BCENACFO@privateKey?$AA@ 0007ec38     libeay32:ec_asn1.obj
 0002:00017c44       ??_C@_0P@PBBIGPFJ@ECPKPARAMETERS?$AA@ 0007ec44     libeay32:ec_asn1.obj
 0002:00017c54       ??_C@_0BD@HOIIAPI@value?4implicitlyCA?$AA@ 0007ec54     libeay32:ec_asn1.obj
 0002:00017c68       ??_C@_0BB@KOECJJJ@value?4parameters?$AA@ 0007ec68     libeay32:ec_asn1.obj
 0002:00017c7c       ??_C@_0BC@JEJHGDNN@value?4named_curve?$AA@ 0007ec7c     libeay32:ec_asn1.obj
 0002:00017c90       ??_C@_0N@ECDPFONH@ECPARAMETERS?$AA@ 0007ec90     libeay32:ec_asn1.obj
 0002:00017ca0       ??_C@_08DKFAOMDI@cofactor?$AA@ 0007eca0     libeay32:ec_asn1.obj
 0002:00017cac       ??_C@_05NDNMCCJH@order?$AA@ 0007ecac     libeay32:ec_asn1.obj
 0002:00017cb4       ??_C@_04BHIIPFEC@base?$AA@ 0007ecb4     libeay32:ec_asn1.obj
 0002:00017cbc       ??_C@_05HIKPKPAA@curve?$AA@ 0007ecbc     libeay32:ec_asn1.obj
 0002:00017cc4       ??_C@_07MJJGNICD@fieldID?$AA@ 0007ecc4     libeay32:ec_asn1.obj
 0002:00017ccc       ??_C@_0M@BHDPNPCK@X9_62_CURVE?$AA@ 0007eccc     libeay32:ec_asn1.obj
 0002:00017cd8       ??_C@_04MENKDCKE@seed?$AA@ 0007ecd8     libeay32:ec_asn1.obj
 0002:00017ce0       ??_C@_0O@PGPIAKKH@X9_62_FIELDID?$AA@ 0007ece0     libeay32:ec_asn1.obj
 0002:00017cf0       ??_C@_09OAOLGAOM@fieldType?$AA@ 0007ecf0     libeay32:ec_asn1.obj
 0002:00017cfc       ??_C@_0L@NLMAKEBL@p?4char_two?$AA@ 0007ecfc     libeay32:ec_asn1.obj
 0002:00017d08       ??_C@_07DPJEDCLB@p?4prime?$AA@ 0007ed08     libeay32:ec_asn1.obj
 0002:00017d10       ??_C@_0BJ@CCODLOLO@X9_62_CHARACTERISTIC_TWO?$AA@ 0007ed10     libeay32:ec_asn1.obj
 0002:00017d2c       ??_C@_04GPMDFGEJ@type?$AA@ 0007ed2c     libeay32:ec_asn1.obj
 0002:00017d34       ??_C@_01GOHFPIOK@m?$AA@    0007ed34     libeay32:ec_asn1.obj
 0002:00017d38       ??_C@_09DMGLCKOJ@p?4ppBasis?$AA@ 0007ed38     libeay32:ec_asn1.obj
 0002:00017d44       ??_C@_09LICBCEBD@p?4tpBasis?$AA@ 0007ed44     libeay32:ec_asn1.obj
 0002:00017d50       ??_C@_09KOBBOOPN@p?4onBasis?$AA@ 0007ed50     libeay32:ec_asn1.obj
 0002:00017d5c       ??_C@_07PBHIMFBE@p?4other?$AA@ 0007ed5c     libeay32:ec_asn1.obj
 0002:00017d64       ??_C@_0BC@NPDMPFCL@X9_62_PENTANOMIAL?$AA@ 0007ed64     libeay32:ec_asn1.obj
 0002:00017d78       ??_C@_02LAFHGHBM@k3?$AA@   0007ed78     libeay32:ec_asn1.obj
 0002:00017d7c       ??_C@_02KJEMFGFN@k2?$AA@   0007ed7c     libeay32:ec_asn1.obj
 0002:00017d80       ??_C@_02ICGBAFJO@k1?$AA@   0007ed80     libeay32:ec_asn1.obj
 0002:00017d88       ??_C@_0EM@BCOHHMGC@d?3?2wm653wehh?2platform?2mvv210?2src@ 0007ed88     libeay32:ec_asn1.obj
 0002:00017e30       ??_C@_0M@INJPOKDH@X509_PUBKEY?$AA@ 0007ee30     libeay32:x_pubkey.obj
 0002:00017e3c       ??_C@_0L@PJCANJEE@public_key?$AA@ 0007ee3c     libeay32:x_pubkey.obj
 0002:00017e48       ??_C@_0EP@OKMPOBJE@d?3?2wm653wehh?2platform?2mvv210?2src@ 0007ee48     libeay32:x_pubkey.obj
 0002:00017f20       ??_C@_0BE@LDIFBBLG@PKCS8_PRIV_KEY_INFO?$AA@ 0007ef20     libeay32:p8_pkey.obj
 0002:00017f34       ??_C@_0L@HNMJPKNA@attributes?$AA@ 0007ef34     libeay32:p8_pkey.obj
 0002:00017f40       ??_C@_04JMMJFDFL@pkey?$AA@ 0007ef40     libeay32:p8_pkey.obj
 0002:00017f48       ??_C@_07PLCMOKAM@pkeyalg?$AA@ 0007ef48     libeay32:p8_pkey.obj
 0002:00017f50       ??_C@_0BE@FPCNHCIJ@Generator?5?$CIhybrid?$CJ?3?$AA@ 0007ef50     libeay32:eck_prn.obj
 0002:00017f64       ??_C@_0BK@DOCPEENO@Generator?5?$CIuncompressed?$CJ?3?$AA@ 0007ef64     libeay32:eck_prn.obj
 0002:00017f80       ??_C@_0BI@DFFFIKFB@Generator?5?$CIcompressed?$CJ?3?$AA@ 0007ef80     libeay32:eck_prn.obj
 0002:00017f98       ??_C@_06LEJCPMLM@?$CF02x?$CFs?$AA@ 0007ef98     libeay32:eck_prn.obj
 0002:00017fa0       ??_C@_01JLIPDDHJ@?3?$AA@   0007efa0     libeay32:eck_prn.obj
 0002:00017fa8       ??_C@_0EM@FLNGOIDD@d?3?2wm653wehh?2platform?2mvv210?2src@ 0007efa8     libeay32:eck_prn.obj
 0002:00017ff4       ??_C@_05PDHKGGIM@Seed?3?$AA@ 0007eff4     libeay32:eck_prn.obj
 0002:00017ffc       ??_C@_0L@IEMHODML@Cofactor?3?5?$AA@ 0007effc     libeay32:eck_prn.obj
 0002:00018008       ??_C@_07KOGOKIFH@Order?3?5?$AA@ 0007f008     libeay32:eck_prn.obj
 0002:00018010       ??_C@_05OKMHJIGA@B?3?5?5?5?$AA@ 0007f010     libeay32:eck_prn.obj
 0002:00018018       ??_C@_05GMFDOKMO@A?3?5?5?5?$AA@ 0007f018     libeay32:eck_prn.obj
 0002:00018020       ??_C@_06DBHHIIKM@Prime?3?$AA@ 0007f020     libeay32:eck_prn.obj
 0002:00018028       ??_C@_0M@JDIPGLHE@Polynomial?3?$AA@ 0007f028     libeay32:eck_prn.obj
 0002:00018034       ??_C@_0BA@ENMKKION@Basis?5Type?3?5?$CFs?6?$AA@ 0007f034     libeay32:eck_prn.obj
 0002:00018044       ??_C@_0BA@KNKNOIFH@Field?5Type?3?5?$CFs?6?$AA@ 0007f044     libeay32:eck_prn.obj
 0002:00018054       ??_C@_0N@JOFLCJFF@ASN1?5OID?3?5?$CFs?$AA@ 0007f054     libeay32:eck_prn.obj
 0002:00018064       ??_C@_04HDOCAJNK@?$CFs?$CFs?$AA@ 0007f064     libeay32:t_pkey.obj
 0002:0001806c       ??_C@_0M@IBLDKCHK@?5?$CINegative?$CJ?$AA@ 0007f06c     libeay32:t_pkey.obj
 0002:00018078       ??_C@_0BE@KHLFKPFC@?$CFs?5?$CFs?$CFlu?5?$CI?$CFs0x?$CFlx?$CJ?6?$AA@ 0007f078     libeay32:t_pkey.obj
 0002:0001808c       ??_C@_05NJJIPCOC@?$CFs?50?6?$AA@ 0007f08c     libeay32:t_pkey.obj
 0002:00018098       ??_C@_0EN@IAKMHMJK@d?3?2wm653wehh?2platform?2mvv210?2src@ 0007f098     libeay32:ec_print.obj
 0002:000180e8       ??_C@_0EP@EBOHPFGP@d?3?2wm653wehh?2platform?2mvv210?2src@ 0007f0e8     libeay32:pk7_lib.obj
 0002:00018138       ??_C@_0EM@PJNFBCEL@d?3?2wm653wehh?2platform?2mvv210?2src@ 0007f138     libeay32:cms_sd.obj
 0002:00018188       ??_C@_0EL@MKGMFIIF@d?3?2wm653wehh?2platform?2mvv210?2src@ 0007f188     libeay32:bn_exp.obj
 0002:000181d4       ??_C@_03MKABNOCG@Dec?$AA@  0007f1d4     libeay32:t_x509.obj
 0002:000181d8       ??_C@_03JPJOFNIA@Nov?$AA@  0007f1d8     libeay32:t_x509.obj
 0002:000181dc       ??_C@_03BMAOKBAD@Oct?$AA@  0007f1dc     libeay32:t_x509.obj
 0002:000181e0       ??_C@_03GGCAPAJC@Sep?$AA@  0007f1e0     libeay32:t_x509.obj
 0002:000181e4       ??_C@_03IFJFEIGA@Aug?$AA@  0007f1e4     libeay32:t_x509.obj
 0002:000181e8       ??_C@_03LBGABGKK@Jul?$AA@  0007f1e8     libeay32:t_x509.obj
 0002:000181ec       ??_C@_03IDFGHECI@Jun?$AA@  0007f1ec     libeay32:t_x509.obj
 0002:000181f0       ??_C@_03CNMDKL@May?$AA@    0007f1f0     libeay32:t_x509.obj
 0002:000181f4       ??_C@_03LEOLGMJP@Apr?$AA@  0007f1f4     libeay32:t_x509.obj
 0002:000181f8       ??_C@_03ODNJBKGA@Mar?$AA@  0007f1f8     libeay32:t_x509.obj
 0002:000181fc       ??_C@_03HJBDCHOM@Feb?$AA@  0007f1fc     libeay32:t_x509.obj
 0002:00018200       ??_C@_03JIHJHPIE@Jan?$AA@  0007f200     libeay32:t_x509.obj
 0002:00018208       ??_C@_0EN@JFBJIANP@d?3?2wm653wehh?2platform?2mvv210?2src@ 0007f208     libeay32:t_x509.obj
 0002:00018258       ??_C@_0P@FGACABCD@Bad?5time?5value?$AA@ 0007f258     libeay32:t_x509.obj
 0002:00018268       ??_C@_0BP@OGIOIJMK@?$CFs?5?$CF2d?5?$CF02d?3?$CF02d?3?$CF02d?$CF?4?$CKs?5?$CFd?$CFs?$AA@ 0007f268     libeay32:t_x509.obj
 0002:00018288       ??_C@_04FIEKMBKB@?5GMT?$AA@ 0007f288     libeay32:t_x509.obj
 0002:00018290       ??_C@_02KEGNLNML@?0?5?$AA@ 0007f290     libeay32:t_x509.obj
 0002:00018298       ??_C@_0EO@PHDJAHKO@d?3?2wm653wehh?2platform?2mvv210?2src@ 0007f298     libeay32:dsa_sign.obj
 0002:00018358       ??_C@_06IJDLPEM@length?$AA@ 0007f358     libeay32:dh_asn1.obj
 0002:00018514       ??_C@_0P@PJJHDFJB@RSA_PSS_PARAMS?$AA@ 0007f514     libeay32:rsa_asn1.obj
 0002:00018524       ??_C@_0N@KGDDKMLA@trailerField?$AA@ 0007f524     libeay32:rsa_asn1.obj
 0002:00018534       ??_C@_0L@PKGNFOCE@saltLength?$AA@ 0007f534     libeay32:rsa_asn1.obj
 0002:00018540       ??_C@_0BB@KKPGFJED@maskGenAlgorithm?$AA@ 0007f540     libeay32:rsa_asn1.obj
 0002:00018554       ??_C@_0O@DHJLLKEK@hashAlgorithm?$AA@ 0007f554     libeay32:rsa_asn1.obj
 0002:00018564       ??_C@_04BBEMPLKC@iqmp?$AA@ 0007f564     libeay32:rsa_asn1.obj
 0002:0001856c       ??_C@_04PENPDGE@dmq1?$AA@  0007f56c     libeay32:rsa_asn1.obj
 0002:00018574       ??_C@_04OIPJJFD@dmp1?$AA@  0007f574     libeay32:rsa_asn1.obj
 0002:0001857c       ??_C@_01LPLHEDKD@d?$AA@    0007f57c     libeay32:rsa_asn1.obj
 0002:00018580       ??_C@_01KGKMHCOC@e?$AA@    0007f580     libeay32:rsa_asn1.obj
 0002:00018584       ??_C@_02JPPHBJLD@?2?6?$AA@ 0007f584     libeay32:f_int.obj
 0002:00018588       ??_C@_02PLJDPFIO@00?$AA@   0007f588     libeay32:f_int.obj
 0002:00018590       ??_C@_0EO@ENFGJDHG@d?3?2wm653wehh?2platform?2mvv210?2src@ 0007f590     libeay32:m_sigver.obj
 0002:000185e0       ??_C@_0EP@ECCLNLMM@d?3?2wm653wehh?2platform?2mvv210?2src@ 0007f5e0     libeay32:asn_pack.obj
 0002:00018630       EVP_version                0007f630     libeay32:evp_enc.obj
 0002:00018658       ??_C@_0EN@FALCDJAN@d?3?2wm653wehh?2platform?2mvv210?2src@ 0007f658     libeay32:evp_enc.obj
 0002:000186a8       ??_C@_0BM@NOPGEACO@bl?5?$DM?$DN?5?$CIint?$CJsizeof?$CIctx?9?$DObuf?$CJ?$AA@ 0007f6a8     libeay32:evp_enc.obj
 0002:000186c4       ??_C@_0BF@NLHGELBH@b?5?$DM?$DN?5sizeof?5ctx?9?$DObuf?$AA@ 0007f6c4     libeay32:evp_enc.obj
 0002:000186dc       ??_C@_0BH@JPOFFCDO@b?5?$DM?$DN?5sizeof?5ctx?9?$DOfinal?$AA@ 0007f6dc     libeay32:evp_enc.obj
 0002:000186f4       ??_C@_0DG@IKOHIL@EVP_CIPHER_CTX_iv_length?$CIctx?$CJ?5?$DM?$DN@ 0007f6f4     libeay32:evp_enc.obj
 0002:00018730       ??_C@_0FO@KIBMBINE@ctx?9?$DOcipher?9?$DOblock_size?5?$DN?$DN?51?5?$HM?$HM?5@ 0007f730     libeay32:evp_enc.obj
 0002:00018790       ??_C@_0EN@MHHCMNBH@d?3?2wm653wehh?2platform?2mvv210?2src@ 0007f790     libeay32:a_enum.obj
 0002:000187e0       ??_C@_0EP@KFOAJJMD@d?3?2wm653wehh?2platform?2mvv210?2src@ 0007f7e0     libeay32:x509name.obj
 0002:00018830       ??_C@_05DFCJAACA@name?$DN?$AA@ 0007f830     libeay32:x509name.obj
 0002:000188ac       v3_sinfo                   0007f8ac     libeay32:v3_info.obj
 0002:000188e4       v3_info                    0007f8e4     libeay32:v3_info.obj
 0002:0001891c       ??_C@_0BG@PFEKCAHJ@AUTHORITY_INFO_ACCESS?$AA@ 0007f91c     libeay32:v3_info.obj
 0002:00018934       ??_C@_0N@CJKIBDLK@GeneralNames?$AA@ 0007f934     libeay32:v3_info.obj
 0002:00018944       ??_C@_0BD@IKHCEBLA@ACCESS_DESCRIPTION?$AA@ 0007f944     libeay32:v3_info.obj
 0002:00018958       ??_C@_08CBBFJFMD@location?$AA@ 0007f958     libeay32:v3_info.obj
 0002:00018964       ??_C@_06GABBCIBA@method?$AA@ 0007f964     libeay32:v3_info.obj
 0002:0001896c       ??_C@_03NLJIHOMM@?5?9?5?$AA@ 0007f96c     libeay32:v3_info.obj
 0002:00018970       ??_C@_0FA@EJINBECP@d?3?2wm653wehh?2platform?2mvv210?2src@ 0007f970     libeay32:v3_info.obj
 0002:000189c0       ??_C@_06KFEJCPI@value?$DN?$AA@ 0007f9c0     libeay32:v3_info.obj
 0002:000189c8       ??_C@_0EP@JMDNBNIF@d?3?2wm653wehh?2platform?2mvv210?2src@ 0007f9c8     libeay32:conf_mod.obj
 0002:00018a18       ??_C@_01KMDKNFGN@?1?$AA@   0007fa18     libeay32:conf_mod.obj
 0002:00018bac       ??_C@_0O@NFAAPMIG@GENERAL_NAMES?$AA@ 0007fbac     libeay32:v3_genn.obj
 0002:00018bbc       ??_C@_0N@JCNPGCGM@GENERAL_NAME?$AA@ 0007fbbc     libeay32:v3_genn.obj
 0002:00018bcc       ??_C@_0P@KIENIEMD@d?4registeredID?$AA@ 0007fbcc     libeay32:v3_genn.obj
 0002:00018bdc       ??_C@_0M@PANAALJB@d?4iPAddress?$AA@ 0007fbdc     libeay32:v3_genn.obj
 0002:00018be8       ??_C@_0BM@CMCMADCA@d?4uniformResourceIdentifier?$AA@ 0007fbe8     libeay32:v3_genn.obj
 0002:00018c04       ??_C@_0P@OBCPPLOL@d?4ediPartyName?$AA@ 0007fc04     libeay32:v3_genn.obj
 0002:00018c14       ??_C@_0BA@JLDFBFLN@d?4directoryName?$AA@ 0007fc14     libeay32:v3_genn.obj
 0002:00018c24       ??_C@_0O@NKHOODFK@d?4x400Address?$AA@ 0007fc24     libeay32:v3_genn.obj
 0002:00018c34       ??_C@_09HIBJABFB@d?4dNSName?$AA@ 0007fc34     libeay32:v3_genn.obj
 0002:00018c40       ??_C@_0N@MMCCMIPN@d?4rfc822Name?$AA@ 0007fc40     libeay32:v3_genn.obj
 0002:00018c50       ??_C@_0M@FGIBMCEL@d?4otherName?$AA@ 0007fc50     libeay32:v3_genn.obj
 0002:00018c5c       ??_C@_0N@GEILLNKP@EDIPARTYNAME?$AA@ 0007fc5c     libeay32:v3_genn.obj
 0002:00018c6c       ??_C@_09EHIHAIPF@partyName?$AA@ 0007fc6c     libeay32:v3_genn.obj
 0002:00018c78       ??_C@_0N@KBFEHHDO@nameAssigner?$AA@ 0007fc78     libeay32:v3_genn.obj
 0002:00018c88       ??_C@_09MAFAINAH@OTHERNAME?$AA@ 0007fc88     libeay32:v3_genn.obj
 0002:00018c94       ??_C@_05MFEJDJP@value?$AA@ 0007fc94     libeay32:v3_genn.obj
 0002:00018c9c       ??_C@_07EEDOJOAA@type_id?$AA@ 0007fc9c     libeay32:v3_genn.obj
 0002:00018d2c       ??_C@_0BA@JCMMJNEE@X509_EXTENSIONS?$AA@ 0007fd2c     libeay32:x_exten.obj
 0002:00018d3c       ??_C@_09KMFOEAAA@Extension?$AA@ 0007fd3c     libeay32:x_exten.obj
 0002:00018d48       ??_C@_0P@OMHBNPIC@X509_EXTENSION?$AA@ 0007fd48     libeay32:x_exten.obj
 0002:00018d58       ??_C@_08CBBMEOFB@critical?$AA@ 0007fd58     libeay32:x_exten.obj
 0002:00018da8       ??_C@_09FLJPBFIA@ECDSA_SIG?$AA@ 0007fda8     libeay32:ecs_asn1.obj
 0002:00018db4       ??_C@_0BF@DJKLHCAL@OpenSSL?5ECDSA?5method?$AA@ 0007fdb4     libeay32:ecs_ossl.obj
 0002:00018dd0       ??_C@_0FA@PJGMNPFB@d?3?2wm653wehh?2platform?2mvv210?2src@ 0007fdd0     libeay32:ecs_ossl.obj
 0002:00018e5c       ??_C@_06CHOIGJDB@BIGNUM?$AA@ 0007fe5c     libeay32:x_bignum.obj
 0002:00018e9c       ??_C@_05HIGAPBOG@ZLONG?$AA@ 0007fe9c     libeay32:x_long.obj
 0002:00018ea4       ??_C@_04KCJFIMMJ@LONG?$AA@ 0007fea4     libeay32:x_long.obj
 0002:00018eb0       ??_C@_0EN@OBFIOJLM@d?3?2wm653wehh?2platform?2mvv210?2src@ 0007feb0     libeay32:x_long.obj
 0002:00018f00       ??_C@_04PEDNGLFL@?$CFld?6?$AA@ 0007ff00     libeay32:x_long.obj
 0002:00018f08       ??_C@_0EM@KNGHBEEM@d?3?2wm653wehh?2platform?2mvv210?2src@ 0007ff08     libeay32:a_dup.obj
 0002:00018f58       ??_C@_0EO@MKGDCJCA@d?3?2wm653wehh?2platform?2mvv210?2src@ 0007ff58     libeay32:dsa_ossl.obj
 0002:00019fb8       ??_C@_0EO@FBMJEFIA@d?3?2wm653wehh?2platform?2mvv210?2src@ 00080fb8     libeay32:rsa_oaep.obj
 0002:0001ade4       ??_C@_0M@GJHAMFIP@CMS_Receipt?$AA@ 00081de4     libeay32:cms_asn1.obj
 0002:0001adf0       ??_C@_0BJ@OPFDHHHB@originatorSignatureValue?$AA@ 00081df0     libeay32:cms_asn1.obj
 0002:0001ae0c       ??_C@_0BD@KOFKAGLC@CMS_ReceiptRequest?$AA@ 00081e0c     libeay32:cms_asn1.obj
 0002:0001ae20       ??_C@_0L@BBBJMFCF@receiptsTo?$AA@ 00081e20     libeay32:cms_asn1.obj
 0002:0001ae2c       ??_C@_0N@CIHGCFJG@receiptsFrom?$AA@ 00081e2c     libeay32:cms_asn1.obj
 0002:0001ae3c       ??_C@_0BI@BHIBPADG@signedContentIdentifier?$AA@ 00081e3c     libeay32:cms_asn1.obj
 0002:0001ae54       ??_C@_0BB@JKAAKCKP@CMS_ReceiptsFrom?$AA@ 00081e54     libeay32:cms_asn1.obj
 0002:0001ae68       ??_C@_0O@ECMNNMJA@d?4receiptList?$AA@ 00081e68     libeay32:cms_asn1.obj
 0002:0001ae78       ??_C@_0BB@DENHEDOF@d?4allOrFirstTier?$AA@ 00081e78     libeay32:cms_asn1.obj
 0002:0001ae8c       ??_C@_0BG@NLALJKHJ@CMS_Attributes_Verify?$AA@ 00081e8c     libeay32:cms_asn1.obj
 0002:0001aea4       ??_C@_0BE@PAHMALPK@CMS_Attributes_Sign?$AA@ 00081ea4     libeay32:cms_asn1.obj
 0002:0001aeb8       ??_C@_0P@KAJKPCJH@CMS_ATTRIBUTES?$AA@ 00081eb8     libeay32:cms_asn1.obj
 0002:0001aec8       ??_C@_0BA@ECDDPOHH@CMS_ContentInfo?$AA@ 00081ec8     libeay32:cms_asn1.obj
 0002:0001aed8       ??_C@_0BB@NELCELCK@d?4compressedData?$AA@ 00081ed8     libeay32:cms_asn1.obj
 0002:0001aeec       ??_C@_0BE@NPCJHPOJ@d?4authenticatedData?$AA@ 00081eec     libeay32:cms_asn1.obj
 0002:0001af00       ??_C@_0BA@HJCBJEH@d?4encryptedData?$AA@ 00081f00     libeay32:cms_asn1.obj
 0002:0001af10       ??_C@_0P@HJCJOBOP@d?4digestedData?$AA@ 00081f10     libeay32:cms_asn1.obj
 0002:0001af20       ??_C@_0BA@CCFAJLBF@d?4envelopedData?$AA@ 00081f20     libeay32:cms_asn1.obj
 0002:0001af30       ??_C@_0N@DDIMJOHE@d?4signedData?$AA@ 00081f30     libeay32:cms_asn1.obj
 0002:0001af40       ??_C@_06OAPKPHLA@d?4data?$AA@ 00081f40     libeay32:cms_asn1.obj
 0002:0001af48       ??_C@_0BD@IAIGGNCI@CMS_CompressedData?$AA@ 00081f48     libeay32:cms_asn1.obj
 0002:0001af5c       ??_C@_0BF@PNIPCJJ@compressionAlgorithm?$AA@ 00081f5c     libeay32:cms_asn1.obj
 0002:0001af74       ??_C@_0BG@DOMHNMEC@CMS_AuthenticatedData?$AA@ 00081f74     libeay32:cms_asn1.obj
 0002:0001af8c       ??_C@_0M@FBFPDIHA@unauthAttrs?$AA@ 00081f8c     libeay32:cms_asn1.obj
 0002:0001af98       ??_C@_03BADCJGEO@mac?$AA@  00081f98     libeay32:cms_asn1.obj
 0002:0001af9c       ??_C@_09HHELNNLD@authAttrs?$AA@ 00081f9c     libeay32:cms_asn1.obj
 0002:0001afa8       ??_C@_0N@PGIFJMM@macAlgorithm?$AA@ 00081fa8     libeay32:cms_asn1.obj
 0002:0001afb8       ??_C@_0BC@ONODDCLB@CMS_EncryptedData?$AA@ 00081fb8     libeay32:cms_asn1.obj
 0002:0001afcc       ??_C@_0BB@NNEFCOGL@CMS_DigestedData?$AA@ 00081fcc     libeay32:cms_asn1.obj
 0002:0001afe0       ??_C@_0BC@MICBLAOD@CMS_EnvelopedData?$AA@ 00081fe0     libeay32:cms_asn1.obj
 0002:0001aff4       ??_C@_0BB@JCNJKAMK@unprotectedAttrs?$AA@ 00081ff4     libeay32:cms_asn1.obj
 0002:0001b008       ??_C@_0BF@OHLPJHAO@encryptedContentInfo?$AA@ 00082008     libeay32:cms_asn1.obj
 0002:0001b020       ??_C@_0P@MHKJPFAE@recipientInfos?$AA@ 00082020     libeay32:cms_asn1.obj
 0002:0001b030       ??_C@_0P@HMLDCEHI@originatorInfo?$AA@ 00082030     libeay32:cms_asn1.obj
 0002:0001b040       ??_C@_0BC@OIOGGOHC@CMS_RecipientInfo?$AA@ 00082040     libeay32:cms_asn1.obj
 0002:0001b054       ??_C@_05CDKGAJPA@d?4ori?$AA@ 00082054     libeay32:cms_asn1.obj
 0002:0001b05c       ??_C@_06MMLMDIAL@d?4pwri?$AA@ 0008205c     libeay32:cms_asn1.obj
 0002:0001b064       ??_C@_07GNHCNHGA@d?4kekri?$AA@ 00082064     libeay32:cms_asn1.obj
 0002:0001b06c       ??_C@_06KOPOJGNL@d?4kari?$AA@ 0008206c     libeay32:cms_asn1.obj
 0002:0001b074       ??_C@_06MJDJDBHG@d?4ktri?$AA@ 00082074     libeay32:cms_asn1.obj
 0002:0001b07c       ??_C@_0BH@ELFPNLNE@CMS_OtherRecipientInfo?$AA@ 0008207c     libeay32:cms_asn1.obj
 0002:0001b094       ??_C@_08CPLCPCAK@oriValue?$AA@ 00082094     libeay32:cms_asn1.obj
 0002:0001b0a0       ??_C@_07FAMFHMLO@oriType?$AA@ 000820a0     libeay32:cms_asn1.obj
 0002:0001b0a8       ??_C@_0BK@KBPCOALF@CMS_PasswordRecipientInfo?$AA@ 000820a8     libeay32:cms_asn1.obj
 0002:0001b0c4       ??_C@_0BH@OGDBOKG@keyDerivationAlgorithm?$AA@ 000820c4     libeay32:cms_asn1.obj
 0002:0001b0dc       ??_C@_0BF@NBHFGDNK@CMS_KEKRecipientInfo?$AA@ 000820dc     libeay32:cms_asn1.obj
 0002:0001b0f4       ??_C@_05NHGMHHPG@kekid?$AA@ 000820f4     libeay32:cms_asn1.obj
 0002:0001b0fc       ??_C@_0BC@MBEMIKEG@CMS_KEKIdentifier?$AA@ 000820fc     libeay32:cms_asn1.obj
 0002:0001b110       ??_C@_0O@NFJHJHKH@keyIdentifier?$AA@ 00082110     libeay32:cms_asn1.obj
 0002:0001b120       ??_C@_0BK@FMJLFKK@CMS_KeyAgreeRecipientInfo?$AA@ 00082120     libeay32:cms_asn1.obj
 0002:0001b13c       ??_C@_0BH@PJIHPFGD@recipientEncryptedKeys?$AA@ 0008213c     libeay32:cms_asn1.obj
 0002:0001b154       ??_C@_03BGILEBGG@ukm?$AA@  00082154     libeay32:cms_asn1.obj
 0002:0001b158       ??_C@_0L@LNFLHOFG@originator?$AA@ 00082158     libeay32:cms_asn1.obj
 0002:0001b164       ??_C@_0BO@EGGGKLC@CMS_OriginatorIdentifierOrKey?$AA@ 00082164     libeay32:cms_asn1.obj
 0002:0001b184       ??_C@_0BA@GMAGEPIK@d?4originatorKey?$AA@ 00082184     libeay32:cms_asn1.obj
 0002:0001b194       ??_C@_0BI@BANGJHOF@CMS_OriginatorPublicKey?$AA@ 00082194     libeay32:cms_asn1.obj
 0002:0001b1ac       ??_C@_0BK@PEPAIBDP@CMS_RecipientEncryptedKey?$AA@ 000821ac     libeay32:cms_asn1.obj
 0002:0001b1c8       ??_C@_0CA@LLLOPIGI@CMS_KeyAgreeRecipientIdentifier?$AA@ 000821c8     libeay32:cms_asn1.obj
 0002:0001b1e8       ??_C@_08NDNCHPPH@d?4rKeyId?$AA@ 000821e8     libeay32:cms_asn1.obj
 0002:0001b1f4       ??_C@_0BL@KIFNEPBG@CMS_RecipientKeyIdentifier?$AA@ 000821f4     libeay32:cms_asn1.obj
 0002:0001b210       ??_C@_05BGEKGIIP@other?$AA@ 00082210     libeay32:cms_asn1.obj
 0002:0001b218       ??_C@_04JNIHBGGH@date?$AA@ 00082218     libeay32:cms_asn1.obj
 0002:0001b220       ??_C@_0BG@MPKMCLOF@CMS_OtherKeyAttribute?$AA@ 00082220     libeay32:cms_asn1.obj
 0002:0001b238       ??_C@_07CNMADOPK@keyAttr?$AA@ 00082238     libeay32:cms_asn1.obj
 0002:0001b240       ??_C@_09FBOICBLA@keyAttrId?$AA@ 00082240     libeay32:cms_asn1.obj
 0002:0001b24c       ??_C@_0BK@JKNAJMBM@CMS_KeyTransRecipientInfo?$AA@ 0008224c     libeay32:cms_asn1.obj
 0002:0001b268       ??_C@_0N@DJLGIBLA@encryptedKey?$AA@ 00082268     libeay32:cms_asn1.obj
 0002:0001b278       ??_C@_0BH@NBKKPKMP@keyEncryptionAlgorithm?$AA@ 00082278     libeay32:cms_asn1.obj
 0002:0001b290       ??_C@_03FJBKBGPI@rid?$AA@  00082290     libeay32:cms_asn1.obj
 0002:0001b294       ??_C@_0BJ@IHPALOIM@CMS_EncryptedContentInfo?$AA@ 00082294     libeay32:cms_asn1.obj
 0002:0001b2b0       ??_C@_0BB@HAOJNDCF@encryptedContent?$AA@ 000822b0     libeay32:cms_asn1.obj
 0002:0001b2c4       ??_C@_0BL@JFGGCGJK@contentEncryptionAlgorithm?$AA@ 000822c4     libeay32:cms_asn1.obj
 0002:0001b2e0       ??_C@_0BD@BOLANDH@CMS_OriginatorInfo?$AA@ 000822e0     libeay32:cms_asn1.obj
 0002:0001b2f4       ??_C@_0P@IFJHOEIE@CMS_SignedData?$AA@ 000822f4     libeay32:cms_asn1.obj
 0002:0001b304       ??_C@_0M@OPIAHELE@signerInfos?$AA@ 00082304     libeay32:cms_asn1.obj
 0002:0001b310       ??_C@_04GDKGHFBJ@crls?$AA@ 00082310     libeay32:cms_asn1.obj
 0002:0001b318       ??_C@_0N@NGKEHKOM@certificates?$AA@ 00082318     libeay32:cms_asn1.obj
 0002:0001b328       ??_C@_0BB@EFFJPOAL@encapContentInfo?$AA@ 00082328     libeay32:cms_asn1.obj
 0002:0001b33c       ??_C@_0BB@CMPBPEDI@digestAlgorithms?$AA@ 0008233c     libeay32:cms_asn1.obj
 0002:0001b350       ??_C@_0BJ@MJACOINL@CMS_RevocationInfoChoice?$AA@ 00082350     libeay32:cms_asn1.obj
 0002:0001b36c       ??_C@_05BEAHECAN@d?4crl?$AA@ 0008236c     libeay32:cms_asn1.obj
 0002:0001b374       ??_C@_0BO@ONAFHMMC@CMS_OtherRevocationInfoFormat?$AA@ 00082374     libeay32:cms_asn1.obj
 0002:0001b394       ??_C@_0N@MOBLFMFA@otherRevInfo?$AA@ 00082394     libeay32:cms_asn1.obj
 0002:0001b3a4       ??_C@_0BD@HLCFDNLB@otherRevInfoFormat?$AA@ 000823a4     libeay32:cms_asn1.obj
 0002:0001b3b8       ??_C@_0P@HBMKILHF@CMS_SignerInfo?$AA@ 000823b8     libeay32:cms_asn1.obj
 0002:0001b3c8       ??_C@_0O@PDNEMLFH@unsignedAttrs?$AA@ 000823c8     libeay32:cms_asn1.obj
 0002:0001b3d8       ??_C@_09CMIIOJHF@signature?$AA@ 000823d8     libeay32:cms_asn1.obj
 0002:0001b3e4       ??_C@_0BD@CBMBFDMH@signatureAlgorithm?$AA@ 000823e4     libeay32:cms_asn1.obj
 0002:0001b3f8       ??_C@_0M@MDGDHPDJ@signedAttrs?$AA@ 000823f8     libeay32:cms_asn1.obj
 0002:0001b404       ??_C@_0BA@OBGGJDDI@digestAlgorithm?$AA@ 00082404     libeay32:cms_asn1.obj
 0002:0001b414       ??_C@_03OBKGHBJN@sid?$AA@  00082414     libeay32:cms_asn1.obj
 0002:0001b418       ??_C@_0BM@FGCJFMKP@CMS_EncapsulatedContentInfo?$AA@ 00082418     libeay32:cms_asn1.obj
 0002:0001b434       ??_C@_08OOKAKDHE@eContent?$AA@ 00082434     libeay32:cms_asn1.obj
 0002:0001b440       ??_C@_0N@EBAJNGML@eContentType?$AA@ 00082440     libeay32:cms_asn1.obj
 0002:0001b450       ??_C@_0BF@HIKDPBH@CMS_SignerIdentifier?$AA@ 00082450     libeay32:cms_asn1.obj
 0002:0001b468       ??_C@_0BH@LJLJDHKP@d?4subjectKeyIdentifier?$AA@ 00082468     libeay32:cms_asn1.obj
 0002:0001b480       ??_C@_0BI@DNGDMGHK@d?4issuerAndSerialNumber?$AA@ 00082480     libeay32:cms_asn1.obj
 0002:0001b498       ??_C@_0BH@CFNIJMB@CMS_CertificateChoices?$AA@ 00082498     libeay32:cms_asn1.obj
 0002:0001b4b0       ??_C@_07JIJPKMF@d?4other?$AA@ 000824b0     libeay32:cms_asn1.obj
 0002:0001b4b8       ??_C@_0N@FODDOFO@d?4v2AttrCert?$AA@ 000824b8     libeay32:cms_asn1.obj
 0002:0001b4c8       ??_C@_0N@OONEIFFN@d?4v1AttrCert?$AA@ 000824c8     libeay32:cms_asn1.obj
 0002:0001b4d8       ??_C@_0BG@NLAONGA@d?4extendedCertificate?$AA@ 000824d8     libeay32:cms_asn1.obj
 0002:0001b4f0       ??_C@_0O@MNFCNMPJ@d?4certificate?$AA@ 000824f0     libeay32:cms_asn1.obj
 0002:0001b500       ??_C@_0BL@CACJFKMB@CMS_OtherCertificateFormat?$AA@ 00082500     libeay32:cms_asn1.obj
 0002:0001b51c       ??_C@_09CDBALEP@otherCert?$AA@ 0008251c     libeay32:cms_asn1.obj
 0002:0001b528       ??_C@_0BA@FEKMLOFK@otherCertFormat?$AA@ 00082528     libeay32:cms_asn1.obj
 0002:0001b538       ??_C@_0BK@GLMHLHML@CMS_IssuerAndSerialNumber?$AA@ 00082538     libeay32:cms_asn1.obj
 0002:0001b554       ??_C@_06EAINIONG@issuer?$AA@ 00082554     libeay32:cms_asn1.obj
 0002:0001b560       ??_C@_0EN@MLHPIIH@d?3?2wm653wehh?2platform?2mvv210?2src@ 00082560     libeay32:cms_lib.obj
 0002:0001b5b0       ??_C@_0EN@CBCEBCDK@d?3?2wm653wehh?2platform?2mvv210?2src@ 000825b0     libeay32:cms_enc.obj
 0002:0001b62c       ??_C@_0O@MABGKINF@timestampsign?$AA@ 0008262c     libeay32:v3_purp.obj
 0002:0001b63c       ??_C@_0BD@HLGKGIIB@Time?5Stamp?5signing?$AA@ 0008263c     libeay32:v3_purp.obj
 0002:0001b650       ??_C@_0L@IMHCEJBK@ocsphelper?$AA@ 00082650     libeay32:v3_purp.obj
 0002:0001b65c       ??_C@_0M@NEPIMEJA@OCSP?5helper?$AA@ 0008265c     libeay32:v3_purp.obj
 0002:0001b668       ??_C@_03OBJFJEBA@any?$AA@  00082668     libeay32:v3_purp.obj
 0002:0001b66c       ??_C@_0M@NMNFLNDB@Any?5Purpose?$AA@ 0008266c     libeay32:v3_purp.obj
 0002:0001b678       ??_C@_07IOMCDAPH@crlsign?$AA@ 00082678     libeay32:v3_purp.obj
 0002:0001b680       ??_C@_0M@MEKLJHLA@CRL?5signing?$AA@ 00082680     libeay32:v3_purp.obj
 0002:0001b68c       ??_C@_0N@BPFJELMP@smimeencrypt?$AA@ 0008268c     libeay32:v3_purp.obj
 0002:0001b69c       ??_C@_0BC@DOGNOPGC@S?1MIME?5encryption?$AA@ 0008269c     libeay32:v3_purp.obj
 0002:0001b6b0       ??_C@_09JPGBHOKH@smimesign?$AA@ 000826b0     libeay32:v3_purp.obj
 0002:0001b6bc       ??_C@_0P@LNDEBCCO@S?1MIME?5signing?$AA@ 000826bc     libeay32:v3_purp.obj
 0002:0001b6cc       ??_C@_0M@GKHHMMAE@nssslserver?$AA@ 000826cc     libeay32:v3_purp.obj
 0002:0001b6d8       ??_C@_0BE@BPEJPGJG@Netscape?5SSL?5server?$AA@ 000826d8     libeay32:v3_purp.obj
 0002:0001b6ec       ??_C@_09FEILOJPJ@sslserver?$AA@ 000826ec     libeay32:v3_purp.obj
 0002:0001b6f8       ??_C@_0L@PNDNFADH@SSL?5server?$AA@ 000826f8     libeay32:v3_purp.obj
 0002:0001b704       ??_C@_09BLMJDCHK@sslclient?$AA@ 00082704     libeay32:v3_purp.obj
 0002:0001b710       ??_C@_0L@LCHPILLE@SSL?5client?$AA@ 00082710     libeay32:v3_purp.obj
 0002:0001b720       ??_C@_0FA@EPMAEJOB@d?3?2wm653wehh?2platform?2mvv210?2src@ 00082720     libeay32:v3_purp.obj
 0002:0001b770       ??_C@_0EO@PHNCOBFO@d?3?2wm653wehh?2platform?2mvv210?2src@ 00082770     libeay32:pmeth_fn.obj
 0002:0001b7c8       AES_version                000827c8     libeay32:aes_misc.obj
 0002:0001b7f0       ??_C@_0EO@LKMDOFNL@d?3?2wm653wehh?2platform?2mvv210?2src@ 000827f0     libeay32:cms_pwri.obj
 0002:0001b840       ??_C@_0BI@NFPKAKEA@Eric?5Young?8s?5PKCS?$CD1?5RSA?$AA@ 00082840     libeay32:rsa_eay.obj
 0002:0001b858       ??_C@_0EN@FLFPHDGA@d?3?2wm653wehh?2platform?2mvv210?2src@ 00082858     libeay32:rsa_eay.obj
 0002:0001b8ac       ??_C@_0BF@JMOFLBJO@keylen?5?$DM?$DN?5sizeof?5key?$AA@ 000828ac     libeay32:p5_crpt2.obj
 0002:0001b8c8       ??_C@_0EO@DONPFFAH@d?3?2wm653wehh?2platform?2mvv210?2src@ 000828c8     libeay32:p5_crpt2.obj
 0002:0001b918       ??_C@_0FB@IJLBCKEP@d?3?2wm653wehh?2platform?2mvv210?2src@ 00082918     libeay32:p12_crpt.obj
 0002:0001b96c       ??_C@_0CD@HMFJNEFL@EVP_CIPHER_iv_length?$CIcipher?$CJ?5?$DM?$DN?5@ 0008296c     libeay32:p5_crpt.obj
 0002:0001b990       ??_C@_0DF@FHOHFFEB@EVP_CIPHER_key_length?$CIcipher?$CJ?5?$DM?$DN@ 00082990     libeay32:p5_crpt.obj
 0002:0001b9c8       ??_C@_0EN@DFHCIHFJ@d?3?2wm653wehh?2platform?2mvv210?2src@ 000829c8     libeay32:p5_crpt.obj
 0002:0001ba18       ??_C@_0EP@DLKDJLKC@d?3?2wm653wehh?2platform?2mvv210?2src@ 00082a18     libeay32:buffer.obj
 0002:0001ba68       ??_C@_0EP@PHFMEFHI@d?3?2wm653wehh?2platform?2mvv210?2src@ 00082a68     libeay32:a_bitstr.obj
 0002:0001bab8       ??_C@_0EP@EEJMGOIG@d?3?2wm653wehh?2platform?2mvv210?2src@ 00082ab8     libeay32:tasn_utl.obj
 0002:0001bb08       ??_C@_0EL@LDMNJGLH@d?3?2wm653wehh?2platform?2mvv210?2src@ 00082b08     libeay32:ec_oct.obj
 0002:0001c100       ??_C@_0BC@DLHIINOH@PKCS7_ATTR_VERIFY?$AA@ 00083100     libeay32:pk7_asn1.obj
 0002:0001c114       ??_C@_0BA@IJMFEGLH@PKCS7_ATTR_SIGN?$AA@ 00083114     libeay32:pk7_asn1.obj
 0002:0001c124       ??_C@_0BB@ODHHPICH@PKCS7_ATTRIBUTES?$AA@ 00083124     libeay32:pk7_asn1.obj
 0002:0001c138       ??_C@_0N@NAILNAH@PKCS7_DIGEST?$AA@ 00083138     libeay32:pk7_asn1.obj
 0002:0001c148       ??_C@_02EBCANADN@md?$AA@   00083148     libeay32:pk7_asn1.obj
 0002:0001c14c       ??_C@_0O@GIFGHKGC@PKCS7_ENCRYPT?$AA@ 0008314c     libeay32:pk7_asn1.obj
 0002:0001c15c       ??_C@_0BE@LMHBPFDD@PKCS7_SIGN_ENVELOPE?$AA@ 0008315c     libeay32:pk7_asn1.obj
 0002:0001c170       ??_C@_0BC@INKEDPEG@PKCS7_ENC_CONTENT?$AA@ 00083170     libeay32:pk7_asn1.obj
 0002:0001c184       ??_C@_0N@IEAAACJL@content_type?$AA@ 00083184     libeay32:pk7_asn1.obj
 0002:0001c194       ??_C@_0BB@MGPEFENK@PKCS7_RECIP_INFO?$AA@ 00083194     libeay32:pk7_asn1.obj
 0002:0001c1a8       ??_C@_07LBLKCHGJ@enc_key?$AA@ 000831a8     libeay32:pk7_asn1.obj
 0002:0001c1b0       ??_C@_0O@ODFHHMFC@key_enc_algor?$AA@ 000831b0     libeay32:pk7_asn1.obj
 0002:0001c1c0       ??_C@_0P@KCJMJLOD@PKCS7_ENVELOPE?$AA@ 000831c0     libeay32:pk7_asn1.obj
 0002:0001c1d0       ??_C@_08ENNDKKOI@enc_data?$AA@ 000831d0     libeay32:pk7_asn1.obj
 0002:0001c1dc       ??_C@_0O@HGJALPPJ@recipientinfo?$AA@ 000831dc     libeay32:pk7_asn1.obj
 0002:0001c1ec       ??_C@_0BI@POAIONGK@PKCS7_ISSUER_AND_SERIAL?$AA@ 000831ec     libeay32:pk7_asn1.obj
 0002:0001c204       ??_C@_06KCELPKEE@serial?$AA@ 00083204     libeay32:pk7_asn1.obj
 0002:0001c20c       ??_C@_0BC@BFFCPPDG@PKCS7_SIGNER_INFO?$AA@ 0008320c     libeay32:pk7_asn1.obj
 0002:0001c220       ??_C@_0M@NNBFAOJK@unauth_attr?$AA@ 00083220     libeay32:pk7_asn1.obj
 0002:0001c22c       ??_C@_0L@PJDBOMFC@enc_digest?$AA@ 0008322c     libeay32:pk7_asn1.obj
 0002:0001c238       ??_C@_0P@KLFHBHJD@digest_enc_alg?$AA@ 00083238     libeay32:pk7_asn1.obj
 0002:0001c248       ??_C@_09PLABOLFJ@auth_attr?$AA@ 00083248     libeay32:pk7_asn1.obj
 0002:0001c254       ??_C@_0L@OGBFEEJI@digest_alg?$AA@ 00083254     libeay32:pk7_asn1.obj
 0002:0001c260       ??_C@_0BC@PMGLGNPO@issuer_and_serial?$AA@ 00083260     libeay32:pk7_asn1.obj
 0002:0001c274       ??_C@_0N@CKBJFFNF@PKCS7_SIGNED?$AA@ 00083274     libeay32:pk7_asn1.obj
 0002:0001c284       ??_C@_0M@KEDNAHBP@signer_info?$AA@ 00083284     libeay32:pk7_asn1.obj
 0002:0001c290       ??_C@_03GJBFOAJL@crl?$AA@  00083290     libeay32:pk7_asn1.obj
 0002:0001c294       ??_C@_04PHJBACIC@cert?$AA@ 00083294     libeay32:pk7_asn1.obj
 0002:0001c29c       ??_C@_08ODCIAOPM@contents?$AA@ 0008329c     libeay32:pk7_asn1.obj
 0002:0001c2a8       ??_C@_07MPDKKGPO@md_algs?$AA@ 000832a8     libeay32:pk7_asn1.obj
 0002:0001c2b0       ??_C@_05BKMMPIPN@PKCS7?$AA@ 000832b0     libeay32:pk7_asn1.obj
 0002:0001c2b8       ??_C@_0M@IDEHBFAL@d?4encrypted?$AA@ 000832b8     libeay32:pk7_asn1.obj
 0002:0001c2c4       ??_C@_08JOIJLLGO@d?4digest?$AA@ 000832c4     libeay32:pk7_asn1.obj
 0002:0001c2d0       ??_C@_0BH@FHPJHCLF@d?4signed_and_enveloped?$AA@ 000832d0     libeay32:pk7_asn1.obj
 0002:0001c2e8       ??_C@_0M@CLKMIMCI@d?4enveloped?$AA@ 000832e8     libeay32:pk7_asn1.obj
 0002:0001c2f4       ??_C@_06GOHGJFCL@d?4sign?$AA@ 000832f4     libeay32:pk7_asn1.obj
 0002:0001c470       ??_C@_07OBHFIHGJ@sig_alg?$AA@ 00083470     libeay32:x_x509.obj
 0002:0001c478       ??_C@_09NKDPGBBA@cert_info?$AA@ 00083478     libeay32:x_x509.obj
 0002:0001c484       ??_C@_09LCJGKABB@X509_CINF?$AA@ 00083484     libeay32:x_x509.obj
 0002:0001c490       ??_C@_0L@ICCCPLKC@extensions?$AA@ 00083490     libeay32:x_x509.obj
 0002:0001c49c       ??_C@_0L@JMFHLKAL@subjectUID?$AA@ 0008349c     libeay32:x_x509.obj
 0002:0001c4a8       ??_C@_09KIIAMAEE@issuerUID?$AA@ 000834a8     libeay32:x_x509.obj
 0002:0001c4b4       ??_C@_07JNNGEGGO@subject?$AA@ 000834b4     libeay32:x_x509.obj
 0002:0001c4bc       ??_C@_08GCHKOCBP@validity?$AA@ 000834bc     libeay32:x_x509.obj
 0002:0001c654       ??_C@_08JGFBPDAP@X509_CRL?$AA@ 00083654     libeay32:x_crl.obj
 0002:0001c660       ??_C@_0O@IMOAEKCP@X509_CRL_INFO?$AA@ 00083660     libeay32:x_crl.obj
 0002:0001c670       ??_C@_07MIJFAMBD@revoked?$AA@ 00083670     libeay32:x_crl.obj
 0002:0001c678       ??_C@_0L@BMOABHOK@nextUpdate?$AA@ 00083678     libeay32:x_crl.obj
 0002:0001c684       ??_C@_0L@MPDCJAIM@lastUpdate?$AA@ 00083684     libeay32:x_crl.obj
 0002:0001c690       ??_C@_0N@JBPKOADN@X509_REVOKED?$AA@ 00083690     libeay32:x_crl.obj
 0002:0001c6a0       ??_C@_0P@HBDMPDNI@revocationDate?$AA@ 000836a0     libeay32:x_crl.obj
 0002:0001c6b0       ??_C@_0EM@HLHJDKMD@d?3?2wm653wehh?2platform?2mvv210?2src@ 000836b0     libeay32:x_crl.obj
 0002:0001c740       x509_name_ff               00083740     libeay32:x_name.obj
 0002:0001c7d8       ??_C@_09KGNJKBNF@X509_NAME?$AA@ 000837d8     libeay32:x_name.obj
 0002:0001c7e4       ??_C@_0BD@FDNDONGH@X509_NAME_INTERNAL?$AA@ 000837e4     libeay32:x_name.obj
 0002:0001c7f8       ??_C@_04FABLJDN@Name?$AA@  000837f8     libeay32:x_name.obj
 0002:0001c800       ??_C@_0BC@GJMCELDI@X509_NAME_ENTRIES?$AA@ 00083800     libeay32:x_name.obj
 0002:0001c814       ??_C@_04IEOKPFHO@RDNS?$AA@ 00083814     libeay32:x_name.obj
 0002:0001c81c       ??_C@_0BA@KEPIIMOE@X509_NAME_ENTRY?$AA@ 0008381c     libeay32:x_name.obj
 0002:0001c830       ??_C@_0EN@KBGECLLO@d?3?2wm653wehh?2platform?2mvv210?2src@ 00083830     libeay32:x_name.obj
 0002:0001c89c       ??_C@_09DHMKJJNA@ASN1_TIME?$AA@ 0008389c     libeay32:a_time.obj
 0002:0001c8a8       ??_C@_0EN@IOPKJOHJ@d?3?2wm653wehh?2platform?2mvv210?2src@ 000838a8     libeay32:a_time.obj
 0002:0001c8f8       X509_version               000838f8     libeay32:x509_vfy.obj
 0002:0001c924       ??_C@_07DLHCIBDH@default?$AA@ 00083924     libeay32:x509_vfy.obj
 0002:0001c930       ??_C@_0EM@MHADPNEH@d?3?2wm653wehh?2platform?2mvv210?2src@ 00083930     libeay32:p_sign.obj
 0002:0001c980       ??_C@_0EM@LKCJBLMG@d?3?2wm653wehh?2platform?2mvv210?2src@ 00083980     libeay32:bn_recp.obj
 0002:0001c9e0       ??_C@_0EP@ELMNNBNC@d?3?2wm653wehh?2platform?2mvv210?2src@ 000839e0     libeay32:x509_obj.obj
 0002:0001ca30       ??_C@_0N@MJCHLFGM@NO?5X509_NAME?$AA@ 00083a30     libeay32:x509_obj.obj
 0002:0001ca40       ??_C@_08DGFAABGD@?$DMEMPTY?$DO?6?$AA@ 00083a40     libeay32:v3_prn.obj
 0002:0001ca4c       ??_C@_03HIJPJGOM@?$CF?$CKs?$AA@ 00083a4c     libeay32:v3_prn.obj
 0002:0001ca50       ??_C@_07GOIIHCND@?$CF?$CKs?$CFs?3?6?$AA@ 00083a50     libeay32:v3_prn.obj
 0002:0001cb10       ??_C@_02HDBGODGB@?2?2?$AA@ 00083b10     libeay32:a_strex.obj
 0002:0001cb14       ??_C@_05JJPGCIKH@?2?$CF02X?$AA@ 00083b14     libeay32:a_strex.obj
 0002:0001cb1c       ??_C@_01KICIPPFI@?2?$AA@   00083b1c     libeay32:a_strex.obj
 0002:0001cb20       ??_C@_07FDBPKGOC@?2U?$CF04lX?$AA@ 00083b20     libeay32:a_strex.obj
 0002:0001cb28       ??_C@_07IOFGAIHD@?2W?$CF08lX?$AA@ 00083b28     libeay32:a_strex.obj
 0002:0001cb30       ??_C@_0EO@POPABNG@d?3?2wm653wehh?2platform?2mvv210?2src@ 00083b30     libeay32:a_strex.obj
 0002:0001cb80       ??_C@_01IPJKGB@?$CD?$AA@   00083b80     libeay32:a_strex.obj
 0002:0001cb84       ??_C@_01BJJEKLCA@?$CC?$AA@ 00083b84     libeay32:a_strex.obj
 0002:0001cb88       ??_C@_01NEMOKFLO@?$DN?$AA@ 00083b88     libeay32:a_strex.obj
 0002:0001cb8c       ??_C@_03MHLONNLM@?5?$DN?5?$AA@ 00083b8c     libeay32:a_strex.obj
 0002:0001cb90       ??_C@_01MIFGBAGJ@?$CL?$AA@ 00083b90     libeay32:a_strex.obj
 0002:0001cb94       ??_C@_02LNAEAIDO@?$DL?5?$AA@ 00083b94     libeay32:a_strex.obj
 0002:0001cb98       ??_C@_03NPBFACHO@?5?$CL?5?$AA@ 00083b98     libeay32:a_strex.obj
 0002:0001cba0       ??_C@_0FC@NLMGEGGH@d?3?2wm653wehh?2platform?2mvv210?2src@ 00083ba0     libeay32:tb_cipher.obj
 0002:0001cd78       v3_alt                     00083d78     libeay32:v3_alt.obj
 0002:0001ce20       ??_C@_0O@KAIENCPE@Registered?5ID?$AA@ 00083e20     libeay32:v3_alt.obj
 0002:0001ce30       ??_C@_09DPMBDOD@?$DMinvalid?$DO?$AA@ 00083e30     libeay32:v3_alt.obj
 0002:0001ce3c       ??_C@_0L@NGHMMCPJ@IP?5Address?$AA@ 00083e3c     libeay32:v3_alt.obj
 0002:0001ce48       ??_C@_02EMFKHFLK@?$CFX?$AA@ 00083e48     libeay32:v3_alt.obj
 0002:0001ce4c       ??_C@_07FDBCPIKC@DirName?$AA@ 00083e4c     libeay32:v3_alt.obj
 0002:0001ce54       ??_C@_03GMOLNBOB@URI?$AA@  00083e54     libeay32:v3_alt.obj
 0002:0001ce58       ??_C@_03CBFPEBNE@DNS?$AA@  00083e58     libeay32:v3_alt.obj
 0002:0001ce5c       ??_C@_05HKHCDHCL@email?$AA@ 00083e5c     libeay32:v3_alt.obj
 0002:0001ce64       ??_C@_0N@EEELPIKD@EdiPartyName?$AA@ 00083e64     libeay32:v3_alt.obj
 0002:0001ce74       ??_C@_08EBDOEGJI@X400Name?$AA@ 00083e74     libeay32:v3_alt.obj
 0002:0001ce80       ??_C@_0O@NHCJKCDC@?$DMunsupported?$DO?$AA@ 00083e80     libeay32:v3_alt.obj
 0002:0001ce90       ??_C@_09PAKBLAPA@othername?$AA@ 00083e90     libeay32:v3_alt.obj
 0002:0001ce9c       ??_C@_0BF@JMMIKJMP@IP?5Address?3?$DMinvalid?$DO?$AA@ 00083e9c     libeay32:v3_alt.obj
 0002:0001ceb4       ??_C@_03NMJGLHB@?3?$CFX?$AA@ 00083eb4     libeay32:v3_alt.obj
 0002:0001ceb8       ??_C@_0BH@OAMIHBGI@IP?5Address?3?$CFd?4?$CFd?4?$CFd?4?$CFd?$AA@ 00083eb8     libeay32:v3_alt.obj
 0002:0001ced0       ??_C@_09JDCPLDLD@DirName?3?5?$AA@ 00083ed0     libeay32:v3_alt.obj
 0002:0001cedc       ??_C@_06KCNJMDKO@URI?3?$CFs?$AA@ 00083edc     libeay32:v3_alt.obj
 0002:0001cee4       ??_C@_06DNDEBJBH@DNS?3?$CFs?$AA@ 00083ee4     libeay32:v3_alt.obj
 0002:0001ceec       ??_C@_08LPBGKPKE@email?3?$CFs?$AA@ 00083eec     libeay32:v3_alt.obj
 0002:0001cef8       ??_C@_0BL@HEOLJEB@EdiPartyName?3?$DMunsupported?$DO?$AA@ 00083ef8     libeay32:v3_alt.obj
 0002:0001cf14       ??_C@_0BH@HDOLFIDG@X400Name?3?$DMunsupported?$DO?$AA@ 00083f14     libeay32:v3_alt.obj
 0002:0001cf2c       ??_C@_0BI@PGFKPDEJ@othername?3?$DMunsupported?$DO?$AA@ 00083f2c     libeay32:v3_alt.obj
 0002:0001cf48       ??_C@_0EP@GIOEMKKC@d?3?2wm653wehh?2platform?2mvv210?2src@ 00083f48     libeay32:v3_alt.obj
 0002:0001cf98       ??_C@_08LNPIPPMM@section?$DN?$AA@ 00083f98     libeay32:v3_alt.obj
 0002:0001cfa4       ??_C@_09DBGAJPPE@otherName?$AA@ 00083fa4     libeay32:v3_alt.obj
 0002:0001cfb0       ??_C@_07KKGEJKPE@dirName?$AA@ 00083fb0     libeay32:v3_alt.obj
 0002:0001cfb8       ??_C@_02MFEOMNPG@IP?$AA@   00083fb8     libeay32:v3_alt.obj
 0002:0001cfbc       ??_C@_03FEOBNLIE@RID?$AA@  00083fbc     libeay32:v3_alt.obj
 0002:0001cfc0       ??_C@_04COAGEIMF@copy?$AA@ 00083fc0     libeay32:v3_alt.obj
 0002:0001cfc8       ??_C@_04HDMMNHEL@move?$AA@ 00083fc8     libeay32:v3_alt.obj
 0002:0001cfd0       ??_C@_0EN@IDEDPOKO@d?3?2wm653wehh?2platform?2mvv210?2src@ 00083fd0     libeay32:dso_lib.obj
 0002:0001d020       CONF_version               00084020     libeay32:conf_lib.obj
 0002:0001d048       ??_C@_0EP@PNEKGEFM@d?3?2wm653wehh?2platform?2mvv210?2src@ 00084048     libeay32:conf_lib.obj
 0002:0001d098       ??_C@_06NGDKEHGB@?5name?$DN?$AA@ 00084098     libeay32:conf_lib.obj
 0002:0001d0a0       ??_C@_06BDPCGOPM@group?$DN?$AA@ 000840a0     libeay32:conf_lib.obj
 0002:0001d0a8       ??_C@_02JDPG@rb?$AA@       000840a8     libeay32:conf_lib.obj
 0002:0001d1c4       v3_idp                     000841c4     libeay32:v3_crld.obj
 0002:0001d1fc       v3_freshest_crl            000841fc     libeay32:v3_crld.obj
 0002:0001d234       v3_crld                    00084234     libeay32:v3_crld.obj
 0002:0001d398       ??_C@_0BD@ENBCPHJ@ISSUING_DIST_POINT?$AA@ 00084398     libeay32:v3_crld.obj
 0002:0001d3ac       ??_C@_08DBIINPPL@onlyattr?$AA@ 000843ac     libeay32:v3_crld.obj
 0002:0001d3b8       ??_C@_0M@BECDICJC@indirectCRL?$AA@ 000843b8     libeay32:v3_crld.obj
 0002:0001d3c4       ??_C@_0BA@FNMBIJDN@onlysomereasons?$AA@ 000843c4     libeay32:v3_crld.obj
 0002:0001d3d4       ??_C@_06PMNIEKCA@onlyCA?$AA@ 000843d4     libeay32:v3_crld.obj
 0002:0001d3dc       ??_C@_08CENLBPEH@onlyuser?$AA@ 000843dc     libeay32:v3_crld.obj
 0002:0001d3e8       ??_C@_0BA@BBHAIMOE@CRL_DIST_POINTS?$AA@ 000843e8     libeay32:v3_crld.obj
 0002:0001d3f8       ??_C@_0BG@CHNNADAE@CRLDistributionPoints?$AA@ 000843f8     libeay32:v3_crld.obj
 0002:0001d410       ??_C@_0L@ELIKPJIH@DIST_POINT?$AA@ 00084410     libeay32:v3_crld.obj
 0002:0001d41c       ??_C@_09GJHADLCP@CRLissuer?$AA@ 0008441c     libeay32:v3_crld.obj
 0002:0001d428       ??_C@_07PFOCLIJD@reasons?$AA@ 00084428     libeay32:v3_crld.obj
 0002:0001d430       ??_C@_09FBDFGJDL@distpoint?$AA@ 00084430     libeay32:v3_crld.obj
 0002:0001d43c       ??_C@_0BA@MLHIPLLG@DIST_POINT_NAME?$AA@ 0008443c     libeay32:v3_crld.obj
 0002:0001d44c       ??_C@_0BC@JDMJBKME@name?4relativename?$AA@ 0008444c     libeay32:v3_crld.obj
 0002:0001d460       ??_C@_0O@HJHJCLAE@name?4fullname?$AA@ 00084460     libeay32:v3_crld.obj
 0002:0001d470       ??_C@_0N@LOIIODKP@AACompromise?$AA@ 00084470     libeay32:v3_crld.obj
 0002:0001d480       ??_C@_0O@PAGOKAK@AA?5Compromise?$AA@ 00084480     libeay32:v3_crld.obj
 0002:0001d490       ??_C@_0BD@PBLGJKCE@privilegeWithdrawn?$AA@ 00084490     libeay32:v3_crld.obj
 0002:0001d4a4       ??_C@_0BE@FJCCMGMM@Privilege?5Withdrawn?$AA@ 000844a4     libeay32:v3_crld.obj
 0002:0001d4b8       ??_C@_0BA@FBHLCNLK@certificateHold?$AA@ 000844b8     libeay32:v3_crld.obj
 0002:0001d4c8       ??_C@_0BB@IPDHDNJD@Certificate?5Hold?$AA@ 000844c8     libeay32:v3_crld.obj
 0002:0001d4dc       ??_C@_0BF@IGJCOPF@cessationOfOperation?$AA@ 000844dc     libeay32:v3_crld.obj
 0002:0001d4f4       ??_C@_0BH@OLCOAMGF@Cessation?5Of?5Operation?$AA@ 000844f4     libeay32:v3_crld.obj
 0002:0001d50c       ??_C@_0L@NHCKNIFL@superseded?$AA@ 0008450c     libeay32:v3_crld.obj
 0002:0001d518       ??_C@_0L@FBLGFHIM@Superseded?$AA@ 00084518     libeay32:v3_crld.obj
 0002:0001d524       ??_C@_0BD@BNOFAJLL@affiliationChanged?$AA@ 00084524     libeay32:v3_crld.obj
 0002:0001d538       ??_C@_0BE@EECEIFAP@Affiliation?5Changed?$AA@ 00084538     libeay32:v3_crld.obj
 0002:0001d54c       ??_C@_0N@NONEFGOE@CACompromise?$AA@ 0008454c     libeay32:v3_crld.obj
 0002:0001d55c       ??_C@_0O@OOGICOKH@CA?5Compromise?$AA@ 0008455c     libeay32:v3_crld.obj
 0002:0001d56c       ??_C@_0O@MCEAAJLH@keyCompromise?$AA@ 0008456c     libeay32:v3_crld.obj
 0002:0001d57c       ??_C@_0P@JENDIECI@Key?5Compromise?$AA@ 0008457c     libeay32:v3_crld.obj
 0002:0001d58c       ??_C@_06OJAIHGIC@unused?$AA@ 0008458c     libeay32:v3_crld.obj
 0002:0001d594       ??_C@_06CGLFEPBO@Unused?$AA@ 00084594     libeay32:v3_crld.obj
 0002:0001d5a0       ??_C@_0FA@EFIBGCB@d?3?2wm653wehh?2platform?2mvv210?2src@ 000845a0     libeay32:v3_crld.obj
 0002:0001d5f0       ??_C@_0L@NHIBCNGO@?$CF?$CKs?$CFs?3?6?$CF?$CKs?$AA@ 000845f0     libeay32:v3_crld.obj
 0002:0001d5fc       ??_C@_0BG@GIOHENJJ@?$CF?$CKsRelative?5Name?3?6?$CF?$CKs?$AA@ 000845fc     libeay32:v3_crld.obj
 0002:0001d614       ??_C@_0P@DKAHDIGH@?$CF?$CKsFull?5Name?3?6?$AA@ 00084614     libeay32:v3_crld.obj
 0002:0001d624       ??_C@_0M@FCFDJGIC@?$CF?$CKs?$DMEMPTY?$DO?6?$AA@ 00084624     libeay32:v3_crld.obj
 0002:0001d630       ??_C@_0CA@IIIJNMJM@?$CF?$CKsOnly?5Attribute?5Certificates?6?$AA@ 00084630     libeay32:v3_crld.obj
 0002:0001d650       ??_C@_0BC@JDEOGEEL@Only?5Some?5Reasons?$AA@ 00084650     libeay32:v3_crld.obj
 0002:0001d664       ??_C@_0BB@FLBIDOKD@?$CF?$CKsIndirect?5CRL?6?$AA@ 00084664     libeay32:v3_crld.obj
 0002:0001d678       ??_C@_0BJ@GKBBKMLO@?$CF?$CKsOnly?5CA?5Certificates?6?$AA@ 00084678     libeay32:v3_crld.obj
 0002:0001d694       ??_C@_0BL@FLJCHEKF@?$CF?$CKsOnly?5User?5Certificates?6?$AA@ 00084694     libeay32:v3_crld.obj
 0002:0001d6b0       ??_C@_0BA@NBJIBLNE@?$CF?$CKsCRL?5Issuer?3?6?$AA@ 000846b0     libeay32:v3_crld.obj
 0002:0001d6c0       ??_C@_07MJENKMF@Reasons?$AA@ 000846c0     libeay32:v3_crld.obj
 0002:0001d6c8       ??_C@_0N@LGEOMMHB@relativename?$AA@ 000846c8     libeay32:v3_crld.obj
 0002:0001d6d8       ??_C@_08BMACPLOA@fullname?$AA@ 000846d8     libeay32:v3_crld.obj
 0002:0001d6e4       ??_C@_06PPFMJOEO@onlyAA?$AA@ 000846e4     libeay32:v3_crld.obj
 0002:0001d6ec       v3_inhibit_anyp            000846ec     libeay32:v3_int.obj
 0002:0001d724       v3_delta_crl               00084724     libeay32:v3_int.obj
 0002:0001d75c       v3_crl_num                 0008475c     libeay32:v3_int.obj
 0002:0001d808       v3_policy_mappings         00084808     libeay32:v3_pmaps.obj
 0002:0001d840       ??_C@_0BA@DHPBCFFC@POLICY_MAPPINGS?$AA@ 00084840     libeay32:v3_pmaps.obj
 0002:0001d850       ??_C@_0P@NLHMKCKF@POLICY_MAPPING?$AA@ 00084850     libeay32:v3_pmaps.obj
 0002:0001d860       ??_C@_0BE@FFIKMOKF@subjectDomainPolicy?$AA@ 00084860     libeay32:v3_pmaps.obj
 0002:0001d874       ??_C@_0BD@JILOPHFL@issuerDomainPolicy?$AA@ 00084874     libeay32:v3_pmaps.obj
 0002:0001d888       ??_C@_0FB@JMEEBLD@d?3?2wm653wehh?2platform?2mvv210?2src@ 00084888     libeay32:v3_pmaps.obj
 0002:0001d93c       v3_name_constraints        0008493c     libeay32:v3_ncons.obj
 0002:0001d9b0       ??_C@_0BB@MLLJAFMN@NAME_CONSTRAINTS?$AA@ 000849b0     libeay32:v3_ncons.obj
 0002:0001d9c4       ??_C@_0BB@HLFEMJKE@excludedSubtrees?$AA@ 000849c4     libeay32:v3_ncons.obj
 0002:0001d9d8       ??_C@_0BC@FACFJLFB@permittedSubtrees?$AA@ 000849d8     libeay32:v3_ncons.obj
 0002:0001d9ec       ??_C@_0BA@ECMIFHDE@GENERAL_SUBTREE?$AA@ 000849ec     libeay32:v3_ncons.obj
 0002:0001d9fc       ??_C@_07MEIENILC@maximum?$AA@ 000849fc     libeay32:v3_ncons.obj
 0002:0001da04       ??_C@_07CCOEHHFD@minimum?$AA@ 00084a04     libeay32:v3_ncons.obj
 0002:0001da10       ??_C@_0FB@NFBAFBGE@d?3?2wm653wehh?2platform?2mvv210?2src@ 00084a10     libeay32:v3_ncons.obj
 0002:0001da64       ??_C@_08HPCEJEEF@excluded?$AA@ 00084a64     libeay32:v3_ncons.obj
 0002:0001da70       ??_C@_09HAKFOFAM@permitted?$AA@ 00084a70     libeay32:v3_ncons.obj
 0002:0001da7c       ??_C@_0BI@IFNIGPEJ@?$CFd?4?$CFd?4?$CFd?4?$CFd?1?$CFd?4?$CFd?4?$CFd?4?$CFd?$AA@ 00084a7c     libeay32:v3_ncons.obj
 0002:0001da94       ??_C@_03HBLCMHJN@IP?3?$AA@ 00084a94     libeay32:v3_ncons.obj
 0002:0001da98       ??_C@_09DPPIOGNM@Permitted?$AA@ 00084a98     libeay32:v3_ncons.obj
 0002:0001daa4       ??_C@_08PNNFBGOG@Excluded?$AA@ 00084aa4     libeay32:v3_ncons.obj
 0002:0001dab0       v3_pci                     00084ab0     libeay32:v3_pci.obj
 0002:0001dae8       ??_C@_0BE@HDJEDONA@?$CF?$CKsPolicy?5Text?3?5?$CFs?6?$AA@ 00084ae8     libeay32:v3_pci.obj
 0002:0001dafc       ??_C@_0BF@CGHJNACM@?$CF?$CKsPolicy?5Language?3?5?$AA@ 00084afc     libeay32:v3_pci.obj
 0002:0001db14       ??_C@_08MAJEGHKB@infinite?$AA@ 00084b14     libeay32:v3_pci.obj
 0002:0001db20       ??_C@_0BM@BMCPHDD@?$CF?$CKsPath?5Length?5Constraint?3?5?$AA@ 00084b20     libeay32:v3_pci.obj
 0002:0001db3c       ??_C@_05FHIGHPDA@text?3?$AA@ 00084b3c     libeay32:v3_pci.obj
 0002:0001db44       ??_C@_05BOPHDICO@file?3?$AA@ 00084b44     libeay32:v3_pci.obj
 0002:0001db4c       ??_C@_04ODCMNEMO@hex?3?$AA@ 00084b4c     libeay32:v3_pci.obj
 0002:0001db54       ??_C@_06NJNJNICG@policy?$AA@ 00084b54     libeay32:v3_pci.obj
 0002:0001db5c       ??_C@_07OGCPICFF@pathlen?$AA@ 00084b5c     libeay32:v3_pci.obj
 0002:0001db68       ??_C@_0EP@IAENADAP@d?3?2wm653wehh?2platform?2mvv210?2src@ 00084b68     libeay32:v3_pci.obj
 0002:0001dbb8       ??_C@_08JGCCIMAA@language?$AA@ 00084bb8     libeay32:v3_pci.obj
 0002:0001dbc4       v3_ocsp_serviceloc         00084bc4     libeay32:v3_ocsp.obj
 0002:0001dbfc       v3_ocsp_nocheck            00084bfc     libeay32:v3_ocsp.obj
 0002:0001dc34       v3_ocsp_nonce              00084c34     libeay32:v3_ocsp.obj
 0002:0001dc6c       v3_crl_hold                00084c6c     libeay32:v3_ocsp.obj
 0002:0001dca4       v3_crl_invdate             00084ca4     libeay32:v3_ocsp.obj
 0002:0001dcdc       v3_ocsp_acutoff            00084cdc     libeay32:v3_ocsp.obj
 0002:0001dd14       v3_ocsp_crlid              00084d14     libeay32:v3_ocsp.obj
 0002:0001dd4c       ??_C@_0N@IBJOMEDL@?$CF?$CKscrlTime?3?5?$AA@ 00084d4c     libeay32:v3_ocsp.obj
 0002:0001dd5c       ??_C@_0M@MLCMBODE@?$CF?$CKscrlNum?3?5?$AA@ 00084d5c     libeay32:v3_ocsp.obj
 0002:0001dd68       ??_C@_0M@KIKBFHBJ@?$CF?$CKscrlUrl?3?5?$AA@ 00084d68     libeay32:v3_ocsp.obj
 0002:0001dd78       ??_C@_0FA@DGLJGNPA@d?3?2wm653wehh?2platform?2mvv210?2src@ 00084d78     libeay32:v3_ocsp.obj
 0002:0001ddc8       ??_C@_04NFEJKGEM@?6?$CF?$CKs?$AA@ 00084dc8     libeay32:v3_ocsp.obj
 0002:0001ddd0       ??_C@_0M@IHOINNJF@?$CF?$CKsIssuer?3?5?$AA@ 00084dd0     libeay32:v3_ocsp.obj
 0002:0001de20       v3_policy_constraints      00084e20     libeay32:v3_pcons.obj
 0002:0001de58       ??_C@_0BD@MMPNIEIJ@POLICY_CONSTRAINTS?$AA@ 00084e58     libeay32:v3_pcons.obj
 0002:0001de6c       ??_C@_0BF@MOMLJGAL@inhibitPolicyMapping?$AA@ 00084e6c     libeay32:v3_pcons.obj
 0002:0001de84       ??_C@_0BG@HGJBEKFE@requireExplicitPolicy?$AA@ 00084e84     libeay32:v3_pcons.obj
 0002:0001de9c       ??_C@_0BI@HNCHDEDI@Require?5Explicit?5Policy?$AA@ 00084e9c     libeay32:v3_pcons.obj
 0002:0001deb4       ??_C@_0BH@HMKHOMED@Inhibit?5Policy?5Mapping?$AA@ 00084eb4     libeay32:v3_pcons.obj
 0002:0001ded0       ??_C@_0FB@LMCBHCHN@d?3?2wm653wehh?2platform?2mvv210?2src@ 00084ed0     libeay32:v3_pcons.obj
 0002:0001df54       v3_ocsp_accresp            00084f54     libeay32:v3_extku.obj
 0002:0001df8c       v3_ext_ku                  00084f8c     libeay32:v3_extku.obj
 0002:0001dfc4       ??_C@_0BD@CKAGEBEF@EXTENDED_KEY_USAGE?$AA@ 00084fc4     libeay32:v3_extku.obj
 0002:0001dfd8       ??_C@_0FB@GJDJKHPC@d?3?2wm653wehh?2platform?2mvv210?2src@ 00084fd8     libeay32:v3_extku.obj
 0002:0001e0b4       v3_sxnet                   000850b4     libeay32:v3_sxnet.obj
 0002:0001e0ec       ??_C@_05BPAJFIHK@SXNET?$AA@ 000850ec     libeay32:v3_sxnet.obj
 0002:0001e0f4       ??_C@_03NDFJNBKD@ids?$AA@  000850f4     libeay32:v3_sxnet.obj
 0002:0001e0f8       ??_C@_07FLDOGLPN@SXNETID?$AA@ 000850f8     libeay32:v3_sxnet.obj
 0002:0001e100       ??_C@_04CCHAHKJA@user?$AA@ 00085100     libeay32:v3_sxnet.obj
 0002:0001e108       ??_C@_04LDDJGOBB@zone?$AA@ 00085108     libeay32:v3_sxnet.obj
 0002:0001e110       ??_C@_0BF@NMLBNADB@?6?$CF?$CKsZone?3?5?$CFs?0?5User?3?5?$AA@ 00085110     libeay32:v3_sxnet.obj
 0002:0001e128       ??_C@_0BI@GOEPAKBG@?$CF?$CKsVersion?3?5?$CFld?5?$CI0x?$CFlX?$CJ?$AA@ 00085128     libeay32:v3_sxnet.obj
 0002:0001e140       ??_C@_0FB@HGCMGHKH@d?3?2wm653wehh?2platform?2mvv210?2src@ 00085140     libeay32:v3_sxnet.obj
 0002:0001e194       v3_crl_reason              00085194     libeay32:v3_enum.obj
 0002:0001e1cc       ??_C@_0O@BILLKPKO@removeFromCRL?$AA@ 000851cc     libeay32:v3_enum.obj
 0002:0001e1dc       ??_C@_0BA@GLPEKBIK@Remove?5From?5CRL?$AA@ 000851dc     libeay32:v3_enum.obj
 0002:0001e1ec       ??_C@_0M@MFMDLEDN@unspecified?$AA@ 000851ec     libeay32:v3_enum.obj
 0002:0001e1f8       ??_C@_0M@NNPCGPMF@Unspecified?$AA@ 000851f8     libeay32:v3_enum.obj
 0002:0001e204       v3_akey_id                 00085204     libeay32:v3_akey.obj
 0002:0001e23c       ??_C@_05CNHMOIOC@keyid?$AA@ 0008523c     libeay32:v3_akey.obj
 0002:0001e248       ??_C@_0FA@BIHNLJGI@d?3?2wm653wehh?2platform?2mvv210?2src@ 00085248     libeay32:v3_akey.obj
 0002:0001e298       ??_C@_06KHDOHNKC@always?$AA@ 00085298     libeay32:v3_akey.obj
 0002:0001e440       v3_cpols                   00085440     libeay32:v3_cpols.obj
 0002:0001e478       ??_C@_09DFHLGOKA@NOTICEREF?$AA@ 00085478     libeay32:v3_cpols.obj
 0002:0001e484       ??_C@_09CFGHNILC@noticenos?$AA@ 00085484     libeay32:v3_cpols.obj
 0002:0001e490       ??_C@_0N@HEIPMDAG@organization?$AA@ 00085490     libeay32:v3_cpols.obj
 0002:0001e4a0       ??_C@_0L@HCNDPADF@USERNOTICE?$AA@ 000854a0     libeay32:v3_cpols.obj
 0002:0001e4ac       ??_C@_07MHGINJOA@exptext?$AA@ 000854ac     libeay32:v3_cpols.obj
 0002:0001e4b4       ??_C@_09FIKFDFH@noticeref?$AA@ 000854b4     libeay32:v3_cpols.obj
 0002:0001e4c0       ??_C@_0P@POBJIHLD@POLICYQUALINFO?$AA@ 000854c0     libeay32:v3_cpols.obj
 0002:0001e4d0       ??_C@_07LEEILOKB@pqualid?$AA@ 000854d0     libeay32:v3_cpols.obj
 0002:0001e4d8       ??_C@_0N@JPAHANFF@d?4usernotice?$AA@ 000854d8     libeay32:v3_cpols.obj
 0002:0001e4e8       ??_C@_08EECALGEF@d?4cpsuri?$AA@ 000854e8     libeay32:v3_cpols.obj
 0002:0001e4f4       ??_C@_0L@POLPGHJK@POLICYINFO?$AA@ 000854f4     libeay32:v3_cpols.obj
 0002:0001e500       ??_C@_0L@HMNGMMJI@qualifiers?$AA@ 00085500     libeay32:v3_cpols.obj
 0002:0001e50c       ??_C@_08NEBFOBH@policyid?$AA@ 0008550c     libeay32:v3_cpols.obj
 0002:0001e518       ??_C@_0BE@GJBJOOCP@CERTIFICATEPOLICIES?$AA@ 00085518     libeay32:v3_cpols.obj
 0002:0001e530       ??_C@_0FB@GCODJBIG@d?3?2wm653wehh?2platform?2mvv210?2src@ 00085530     libeay32:v3_cpols.obj
 0002:0001e584       ??_C@_0BG@IHHCDAMH@?$CF?$CKsExplicit?5Text?3?5?$CFs?6?$AA@ 00085584     libeay32:v3_cpols.obj
 0002:0001e59c       ??_C@_0O@EFHNHHDA@?$CF?$CKsNumber?$CFs?3?5?$AA@ 0008559c     libeay32:v3_cpols.obj
 0002:0001e5ac       ??_C@_0BF@OCNFPJOG@?$CF?$CKsOrganization?3?5?$CFs?6?$AA@ 000855ac     libeay32:v3_cpols.obj
 0002:0001e5c4       ??_C@_0O@OKDALMJE@noticeNumbers?$AA@ 000855c4     libeay32:v3_cpols.obj
 0002:0001e5d4       ??_C@_0N@EALKMFB@explicitText?$AA@ 000855d4     libeay32:v3_cpols.obj
 0002:0001e5e4       ??_C@_0M@ICGFCJNO@?$CF?$CKsCPS?3?5?$CFs?6?$AA@ 000855e4     libeay32:v3_cpols.obj
 0002:0001e5f0       ??_C@_0BB@MMPKKFLI@?$CF?$CKsUser?5Notice?3?6?$AA@ 000855f0     libeay32:v3_cpols.obj
 0002:0001e604       ??_C@_0BH@CHOAEJEJ@?$CF?$CKsUnknown?5Qualifier?3?5?$AA@ 00085604     libeay32:v3_cpols.obj
 0002:0001e61c       ??_C@_0M@BBFMFBLN@?$CF?$CKsPolicy?3?5?$AA@ 0008561c     libeay32:v3_cpols.obj
 0002:0001e628       ??_C@_0L@LADHLIJ@userNotice?$AA@ 00085628     libeay32:v3_cpols.obj
 0002:0001e634       ??_C@_03KKDAPHBH@CPS?$AA@  00085634     libeay32:v3_cpols.obj
 0002:0001e638       ??_C@_0BB@FIJMMMGE@policyIdentifier?$AA@ 00085638     libeay32:v3_cpols.obj
 0002:0001e64c       ??_C@_06MIFIGELF@ia5org?$AA@ 0008564c     libeay32:v3_cpols.obj
 0002:0001e698       v3_bcons                   00085698     libeay32:v3_bcons.obj
 0002:0001e6d0       ??_C@_0BC@PKPCGCD@BASIC_CONSTRAINTS?$AA@ 000856d0     libeay32:v3_bcons.obj
 0002:0001e6e4       ??_C@_02DGMJAJHC@ca?$AA@   000856e4     libeay32:v3_bcons.obj
 0002:0001e6e8       ??_C@_02JLAAGLDA@CA?$AA@   000856e8     libeay32:v3_bcons.obj
 0002:0001e6f0       ??_C@_0FB@ICLPEECL@d?3?2wm653wehh?2platform?2mvv210?2src@ 000856f0     libeay32:v3_bcons.obj
 0002:0001e788       v3_pkey_usage_period       00085788     libeay32:v3_pku.obj
 0002:0001e7c0       ??_C@_0BC@CCOKACDM@PKEY_USAGE_PERIOD?$AA@ 000857c0     libeay32:v3_pku.obj
 0002:0001e7d4       ??_C@_08PJIFIJBI@notAfter?$AA@ 000857d4     libeay32:v3_pku.obj
 0002:0001e7e0       ??_C@_09MJPOMOII@notBefore?$AA@ 000857e0     libeay32:v3_pku.obj
 0002:0001e7ec       ??_C@_0M@FCHJLIHE@Not?5After?3?5?$AA@ 000857ec     libeay32:v3_pku.obj
 0002:0001e7f8       ??_C@_0N@KGLJEEMK@Not?5Before?3?5?$AA@ 000857f8     libeay32:v3_pku.obj
 0002:0001e808       v3_key_usage               00085808     libeay32:v3_bitst.obj
 0002:0001e840       v3_nscert                  00085840     libeay32:v3_bitst.obj
 0002:0001e878       ??_C@_0N@LIFHMFCO@decipherOnly?$AA@ 00085878     libeay32:v3_bitst.obj
 0002:0001e888       ??_C@_0O@FKBAPCEG@Decipher?5Only?$AA@ 00085888     libeay32:v3_bitst.obj
 0002:0001e898       ??_C@_0N@BEFDLIKF@encipherOnly?$AA@ 00085898     libeay32:v3_bitst.obj
 0002:0001e8a8       ??_C@_0O@CANGKMJD@Encipher?5Only?$AA@ 000858a8     libeay32:v3_bitst.obj
 0002:0001e8b8       ??_C@_07IHBCCDFJ@cRLSign?$AA@ 000858b8     libeay32:v3_bitst.obj
 0002:0001e8c0       ??_C@_08OCJGKMAN@CRL?5Sign?$AA@ 000858c0     libeay32:v3_bitst.obj
 0002:0001e8cc       ??_C@_0M@ONBOOMGI@keyCertSign?$AA@ 000858cc     libeay32:v3_bitst.obj
 0002:0001e8d8       ??_C@_0BB@ELNGMDLH@Certificate?5Sign?$AA@ 000858d8     libeay32:v3_bitst.obj
 0002:0001e8ec       ??_C@_0N@GONHKOEO@keyAgreement?$AA@ 000858ec     libeay32:v3_bitst.obj
 0002:0001e8fc       ??_C@_0O@EOJOBCHL@Key?5Agreement?$AA@ 000858fc     libeay32:v3_bitst.obj
 0002:0001e90c       ??_C@_0BB@LBKKKIGO@dataEncipherment?$AA@ 0008590c     libeay32:v3_bitst.obj
 0002:0001e920       ??_C@_0BC@GNPIAJLP@Data?5Encipherment?$AA@ 00085920     libeay32:v3_bitst.obj
 0002:0001e934       ??_C@_0BA@MINCLOJG@keyEncipherment?$AA@ 00085934     libeay32:v3_bitst.obj
 0002:0001e944       ??_C@_0BB@KNACIBEN@Key?5Encipherment?$AA@ 00085944     libeay32:v3_bitst.obj
 0002:0001e958       ??_C@_0P@GPCNPOGO@nonRepudiation?$AA@ 00085958     libeay32:v3_bitst.obj
 0002:0001e968       ??_C@_0BA@DJCGBBAI@Non?5Repudiation?$AA@ 00085968     libeay32:v3_bitst.obj
 0002:0001e978       ??_C@_0BB@MFKHIIOM@digitalSignature?$AA@ 00085978     libeay32:v3_bitst.obj
 0002:0001e98c       ??_C@_0BC@DPKEIPIO@Digital?5Signature?$AA@ 0008598c     libeay32:v3_bitst.obj
 0002:0001e9a0       ??_C@_05JLEIJNEE@objCA?$AA@ 000859a0     libeay32:v3_bitst.obj
 0002:0001e9a8       ??_C@_0BC@FAMHGMHB@Object?5Signing?5CA?$AA@ 000859a8     libeay32:v3_bitst.obj
 0002:0001e9bc       ??_C@_07FFHDGPMJ@emailCA?$AA@ 000859bc     libeay32:v3_bitst.obj
 0002:0001e9c4       ??_C@_09GIEMCMEO@S?1MIME?5CA?$AA@ 000859c4     libeay32:v3_bitst.obj
 0002:0001e9d0       ??_C@_05JHLHLOEK@sslCA?$AA@ 000859d0     libeay32:v3_bitst.obj
 0002:0001e9d8       ??_C@_06FMDLPOFJ@SSL?5CA?$AA@ 000859d8     libeay32:v3_bitst.obj
 0002:0001e9e0       ??_C@_08FINKBBAF@reserved?$AA@ 000859e0     libeay32:v3_bitst.obj
 0002:0001e9ec       ??_C@_07GIOKFKGL@objsign?$AA@ 000859ec     libeay32:v3_bitst.obj
 0002:0001e9f4       ??_C@_0P@DDHLFHHK@Object?5Signing?$AA@ 000859f4     libeay32:v3_bitst.obj
 0002:0001ea04       ??_C@_06HJHJCKIO@server?$AA@ 00085a04     libeay32:v3_bitst.obj
 0002:0001ea0c       ??_C@_0L@DCIAGJKL@SSL?5Server?$AA@ 00085a0c     libeay32:v3_bitst.obj
 0002:0001ea18       ??_C@_06DGDLPBAN@client?$AA@ 00085a18     libeay32:v3_bitst.obj
 0002:0001ea20       ??_C@_0L@HNMCLCCI@SSL?5Client?$AA@ 00085a20     libeay32:v3_bitst.obj
 0002:0001ea30       ??_C@_0FB@EKHJICLH@d?3?2wm653wehh?2platform?2mvv210?2src@ 00085a30     libeay32:v3_bitst.obj
 0002:0001ea84       v3_skey_id                 00085a84     libeay32:v3_skey.obj
 0002:0001eac0       ??_C@_0FA@OIDMDEIP@d?3?2wm653wehh?2platform?2mvv210?2src@ 00085ac0     libeay32:v3_skey.obj
 0002:0001eb10       ??_C@_04OIJGJDKO@hash?$AA@ 00085b10     libeay32:v3_skey.obj
 0002:0001eb18       v3_ns_ia5_list             00085b18     libeay32:v3_ia5.obj
 0002:0001ecd8       ??_C@_0EP@FPIPLDCG@d?3?2wm653wehh?2platform?2mvv210?2src@ 00085cd8     libeay32:v3_ia5.obj
 0002:0001ed28       ??_C@_0FA@GLNJJMIP@d?3?2wm653wehh?2platform?2mvv210?2src@ 00085d28     libeay32:v3_conf.obj
 0002:0001ee70       ??_C@_08JIPBBKBM@X509_REQ?$AA@ 00085e70     libeay32:x_req.obj
 0002:0001ee7c       ??_C@_08JILJKJG@req_info?$AA@ 00085e7c     libeay32:x_req.obj
 0002:0001ee88       ??_C@_0O@EHCMNJCB@X509_REQ_INFO?$AA@ 00085e88     libeay32:x_req.obj
 0002:0001ee98       ??_C@_06GKCAPDID@pubkey?$AA@ 00085e98     libeay32:x_req.obj
 0002:0001eea0       ??_C@_0EP@COKBPCCM@d?3?2wm653wehh?2platform?2mvv210?2src@ 00085ea0     libeay32:x509_att.obj
 0002:0001eef0       ??_C@_0EM@LBEFNFCH@d?3?2wm653wehh?2platform?2mvv210?2src@ 00085ef0     libeay32:bn_exp2.obj
 0002:0001ef40       ??_C@_0EM@EIEBKGJ@d?3?2wm653wehh?2platform?2mvv210?2src@ 00085f40     libeay32:cms_io.obj
 0002:0001ef8c       ??_C@_08POLPFBMC@SEQUENCE?$AA@ 00085f8c     libeay32:tasn_prn.obj
 0002:0001ef98       ??_C@_03KPIFFHNE@SET?$AA@  00085f98     libeay32:tasn_prn.obj
 0002:0001ef9c       ??_C@_0P@ONGHGJEC@message?5digest?$AA@ 00085f9c     libeay32:bio_md.obj
 0002:0001efac       ??_C@_0O@DIEIKEFB@memory?5buffer?$AA@ 00085fac     libeay32:bss_mem.obj
 0002:0001efc0       ??_C@_0EN@IFBMAPDF@d?3?2wm653wehh?2platform?2mvv210?2src@ 00085fc0     libeay32:bss_mem.obj
 0002:0001f010       ??_C@_0EM@CLBFFJNJ@d?3?2wm653wehh?2platform?2mvv210?2src@ 00086010     libeay32:cms_dd.obj
 0002:0001f060       ??_C@_0EN@GEIMIMFD@d?3?2wm653wehh?2platform?2mvv210?2src@ 00086060     libeay32:bio_enc.obj
 0002:0001f138       ??_C@_0BK@PILNOGHK@PROXY_CERT_INFO_EXTENSION?$AA@ 00086138     libeay32:v3_pcia.obj
 0002:0001f154       ??_C@_0M@KKFBCGOG@proxyPolicy?$AA@ 00086154     libeay32:v3_pcia.obj
 0002:0001f160       ??_C@_0BH@JBGKCLHC@pcPathLengthConstraint?$AA@ 00086160     libeay32:v3_pcia.obj
 0002:0001f178       ??_C@_0N@CLKEFBDI@PROXY_POLICY?$AA@ 00086178     libeay32:v3_pcia.obj
 0002:0001f188       ??_C@_0P@BLMEJDMO@policyLanguage?$AA@ 00086188     libeay32:v3_pcia.obj
 0002:00021370       ??_C@_0M@DPMJHKGH@PBKDF2PARAM?$AA@ 00088370     libeay32:p5_pbev2.obj
 0002:0002137c       ??_C@_03NBFGPAGA@prf?$AA@  0008837c     libeay32:p5_pbev2.obj
 0002:00021380       ??_C@_09PKJJLJJD@keylength?$AA@ 00088380     libeay32:p5_pbev2.obj
 0002:0002138c       ??_C@_04BKLHDIKK@iter?$AA@ 0008838c     libeay32:p5_pbev2.obj
 0002:00021394       ??_C@_04OKLIMCN@salt?$AA@  00088394     libeay32:p5_pbev2.obj
 0002:0002139c       ??_C@_09DHBCCKCK@PBE2PARAM?$AA@ 0008839c     libeay32:p5_pbev2.obj
 0002:000213a8       ??_C@_0L@HBBFMHKN@encryption?$AA@ 000883a8     libeay32:p5_pbev2.obj
 0002:000213b4       ??_C@_07KEPFKPDN@keyfunc?$AA@ 000883b4     libeay32:p5_pbev2.obj
 0002:000213c0       ??_C@_0EN@BMFEIIDL@d?3?2wm653wehh?2platform?2mvv210?2src@ 000883c0     libeay32:rsa_pk1.obj
 0002:00021410       ??_C@_0EN@PDDHPBKJ@d?3?2wm653wehh?2platform?2mvv210?2src@ 00088410     libeay32:rsa_ssl.obj
 0002:00021460       ??_C@_0EO@NNKDLJPI@d?3?2wm653wehh?2platform?2mvv210?2src@ 00088460     libeay32:rsa_none.obj
 0002:000214f4       ??_C@_08CKLJFNPB@PBEPARAM?$AA@ 000884f4     libeay32:p5_pbe.obj
 0002:00021500       ??_C@_0FA@NBNNIDCA@d?3?2wm653wehh?2platform?2mvv210?2src@ 00088500     libeay32:p12_key.obj
 0002:00021550       ??_C@_0EM@IBBLLJFJ@d?3?2wm653wehh?2platform?2mvv210?2src@ 00088550     libeay32:ec2_oct.obj
 0002:000215a0       ??_C@_0EM@OKKDHMMJ@d?3?2wm653wehh?2platform?2mvv210?2src@ 000885a0     libeay32:ecp_oct.obj
 0002:000215f0       ??_C@_0FA@NNAIMOGG@d?3?2wm653wehh?2platform?2mvv210?2src@ 000885f0     libeay32:pk7_doit.obj
 0002:00021684       ??_C@_08OPPGEJIL@X509_VAL?$AA@ 00088684     libeay32:x_val.obj
 0002:000216e8       ??_C@_0BA@OPHCNPAP@AUTHORITY_KEYID?$AA@ 000886e8     libeay32:v3_akeya.obj
 0002:000217bc       ??_C@_0P@BDECDGPA@X509_CERT_PAIR?$AA@ 000887bc     libeay32:x_x509a.obj
 0002:000217cc       ??_C@_07KOIEOCCE@reverse?$AA@ 000887cc     libeay32:x_x509a.obj
 0002:000217d4       ??_C@_07CJMBKHEI@forward?$AA@ 000887d4     libeay32:x_x509a.obj
 0002:000217dc       ??_C@_0O@LJIIOIG@X509_CERT_AUX?$AA@ 000887dc     libeay32:x_x509a.obj
 0002:000217ec       ??_C@_05NKHOCLEE@alias?$AA@ 000887ec     libeay32:x_x509a.obj
 0002:000217f4       ??_C@_06JPOFNODM@reject?$AA@ 000887f4     libeay32:x_x509a.obj
 0002:000217fc       ??_C@_05BMJJJIHB@trust?$AA@ 000887fc     libeay32:x_x509a.obj
 0002:00021808       ??_C@_0EP@FNGDBEGO@d?3?2wm653wehh?2platform?2mvv210?2src@ 00088808     libeay32:a_verify.obj
 0002:000218a0       ??_C@_0BK@EMDNDBLP@?$CF04d?$CF02d?$CF02d?$CF02d?$CF02d?$CF02dZ?$AA@ 000888a0     libeay32:a_gentm.obj
 0002:000218c0       ??_C@_0EO@HIOEHCAC@d?3?2wm653wehh?2platform?2mvv210?2src@ 000888c0     libeay32:a_gentm.obj
 0002:00021950       ??_C@_0BK@PMAAGDOP@?$CF02d?$CF02d?$CF02d?$CF02d?$CF02d?$CF02dZ?$AA@ 00088950     libeay32:a_utctm.obj
 0002:00021970       ??_C@_0EO@DLENMAPA@d?3?2wm653wehh?2platform?2mvv210?2src@ 00088970     libeay32:a_utctm.obj
 0002:000219c0       ??_C@_0L@CFEJKCOD@TSA?5server?$AA@ 000889c0     libeay32:x509_trs.obj
 0002:000219cc       ??_C@_0N@CAJJAOJD@OCSP?5request?$AA@ 000889cc     libeay32:x509_trs.obj
 0002:000219dc       ??_C@_0P@JHCOMJOI@OCSP?5responder?$AA@ 000889dc     libeay32:x509_trs.obj
 0002:000219ec       ??_C@_0O@EEPBMPKP@Object?5Signer?$AA@ 000889ec     libeay32:x509_trs.obj
 0002:000219fc       ??_C@_0N@OEEPKGPL@S?1MIME?5email?$AA@ 000889fc     libeay32:x509_trs.obj
 0002:00021a0c       ??_C@_0L@JNOGJJCA@compatible?$AA@ 00088a0c     libeay32:x509_trs.obj
 0002:00021ab8       ??_C@_0L@MDHNNNKP@ssl_server?$AA@ 00088ab8     libeay32:x509_vpm.obj
 0002:00021ac4       ??_C@_0L@IMDPAGCM@ssl_client?$AA@ 00088ac4     libeay32:x509_vpm.obj
 0002:00021ad0       ??_C@_0L@GGDBHMO@smime_sign?$AA@ 00088ad0     libeay32:x509_vpm.obj
 0002:00021b64       ??_C@_09BIBABMFN@BMPSTRING?$AA@ 00088b64     libeay32:asn1_par.obj
 0002:00021b70       ??_C@_09FGHEBGDO@?$DMASN1?529?$DO?$AA@ 00088b70     libeay32:asn1_par.obj
 0002:00021b7c       ??_C@_0BA@EJHHDALK@UNIVERSALSTRING?$AA@ 00088b7c     libeay32:asn1_par.obj
 0002:00021b8c       ??_C@_0O@DKDEPFLO@GENERALSTRING?$AA@ 00088b8c     libeay32:asn1_par.obj
 0002:00021b9c       ??_C@_0O@KDAJCBO@VISIBLESTRING?$AA@ 00088b9c     libeay32:asn1_par.obj
 0002:00021bac       ??_C@_0O@MABADFB@GRAPHICSTRING?$AA@ 00088bac     libeay32:asn1_par.obj
 0002:00021bbc       ??_C@_0BA@LKNBIJBB@GENERALIZEDTIME?$AA@ 00088bbc     libeay32:asn1_par.obj
 0002:00021bcc       ??_C@_07HIOLDDN@UTCTIME?$AA@ 00088bcc     libeay32:asn1_par.obj
 0002:00021bd4       ??_C@_09JOMPLKGB@IA5STRING?$AA@ 00088bd4     libeay32:asn1_par.obj
 0002:00021be0       ??_C@_0P@LNAMNBEL@VIDEOTEXSTRING?$AA@ 00088be0     libeay32:asn1_par.obj
 0002:00021bf0       ??_C@_09FMBHBANP@T61STRING?$AA@ 00088bf0     libeay32:asn1_par.obj
 0002:00021bfc       ??_C@_0BA@FKHILLED@PRINTABLESTRING?$AA@ 00088bfc     libeay32:asn1_par.obj
 0002:00021c0c       ??_C@_0O@DFADMOGA@NUMERICSTRING?$AA@ 00088c0c     libeay32:asn1_par.obj
 0002:00021c1c       ??_C@_09ENNLEALE@?$DMASN1?515?$DO?$AA@ 00088c1c     libeay32:asn1_par.obj
 0002:00021c28       ??_C@_09EMBJCKID@?$DMASN1?514?$DO?$AA@ 00088c28     libeay32:asn1_par.obj
 0002:00021c34       ??_C@_09EJFGDMAG@?$DMASN1?513?$DO?$AA@ 00088c34     libeay32:asn1_par.obj
 0002:00021c40       ??_C@_0L@DCBPGANN@UTF8STRING?$AA@ 00088c40     libeay32:asn1_par.obj
 0002:00021c4c       ??_C@_09EKNCOIGI@?$DMASN1?511?$DO?$AA@ 00088c4c     libeay32:asn1_par.obj
 0002:00021c58       ??_C@_0L@KNIEMAKM@ENUMERATED?$AA@ 00088c58     libeay32:asn1_par.obj
 0002:00021c64       ??_C@_04PKFANLLI@REAL?$AA@ 00088c64     libeay32:asn1_par.obj
 0002:00021c6c       ??_C@_08JHLDEHEK@EXTERNAL?$AA@ 00088c6c     libeay32:asn1_par.obj
 0002:00021c78       ??_C@_0BC@HDOCNDIH@OBJECT?5DESCRIPTOR?$AA@ 00088c78     libeay32:asn1_par.obj
 0002:00021c8c       ??_C@_06IAMCMNFI@OBJECT?$AA@ 00088c8c     libeay32:asn1_par.obj
 0002:00021c94       ??_C@_0N@KPGGMDFC@OCTET?5STRING?$AA@ 00088c94     libeay32:asn1_par.obj
 0002:00021ca4       ??_C@_0L@EKOKPLKE@BIT?5STRING?$AA@ 00088ca4     libeay32:asn1_par.obj
 0002:00021cb0       ??_C@_07EHCIHKNF@INTEGER?$AA@ 00088cb0     libeay32:asn1_par.obj
 0002:00021cb8       ??_C@_07JDEDMABE@BOOLEAN?$AA@ 00088cb8     libeay32:asn1_par.obj
 0002:00021cc0       ??_C@_03NCODFONH@EOC?$AA@  00088cc0     libeay32:asn1_par.obj
 0002:00021cc4       ??_C@_09GPGAJHPD@?$CIunknown?$CJ?$AA@ 00088cc4     libeay32:asn1_par.obj
 0002:00021cd0       ??_C@_0M@PCEPOGPN@?8?$CI?$CJ?$CL?0?9?4?1?3?$DN?$DP?$AA@ 00088cd0     libeay32:a_mbstr.obj
 0002:00021cdc       ??_C@_08EOPONIBF@maxsize?$DN?$AA@ 00088cdc     libeay32:a_mbstr.obj
 0002:00021ce8       ??_C@_03JALODAI@?$CFld?$AA@ 00088ce8     libeay32:a_mbstr.obj
 0002:00021cec       ??_C@_08JJBFGKFE@minsize?$DN?$AA@ 00088cec     libeay32:a_mbstr.obj
 0002:00021cf8       ??_C@_0EO@JLLBAGMI@d?3?2wm653wehh?2platform?2mvv210?2src@ 00088cf8     libeay32:a_mbstr.obj
 0002:00021f94       ??_C@_06DPGELLJH@FORMAT?$AA@ 00088f94     libeay32:asn1_gen.obj
 0002:00021f9c       ??_C@_04HPGCGPG@FORM?$AA@  00088f9c     libeay32:asn1_gen.obj
 0002:00021fa4       ??_C@_07JHDNPBBM@BITWRAP?$AA@ 00088fa4     libeay32:asn1_gen.obj
 0002:00021fac       ??_C@_07OAIMKKNN@SETWRAP?$AA@ 00088fac     libeay32:asn1_gen.obj
 0002:00021fb4       ??_C@_07LAEBDLGO@SEQWRAP?$AA@ 00088fb4     libeay32:asn1_gen.obj
 0002:00021fbc       ??_C@_07KIEILLID@OCTWRAP?$AA@ 00088fbc     libeay32:asn1_gen.obj
 0002:00021fc4       ??_C@_08PPMOEJGF@IMPLICIT?$AA@ 00088fc4     libeay32:asn1_gen.obj
 0002:00021fd0       ??_C@_03PKFOHEJD@IMP?$AA@  00088fd0     libeay32:asn1_gen.obj
 0002:00021fd4       ??_C@_08CNKBIFDO@EXPLICIT?$AA@ 00088fd4     libeay32:asn1_gen.obj
 0002:00021fe0       ??_C@_03KKGFKKLA@EXP?$AA@  00088fe0     libeay32:asn1_gen.obj
 0002:00021fe4       ??_C@_03NCPCKDJB@SEQ?$AA@  00088fe4     libeay32:asn1_gen.obj
 0002:00021fe8       ??_C@_07DBOJJFHC@NUMERIC?$AA@ 00088fe8     libeay32:asn1_gen.obj
 0002:00021ff0       ??_C@_06GBOJAPHH@GENSTR?$AA@ 00088ff0     libeay32:asn1_gen.obj
 0002:00021ff8       ??_C@_0O@OIKLOOAP@GeneralString?$AA@ 00088ff8     libeay32:asn1_gen.obj
 0002:00022008       ??_C@_0O@GENPGMAM@TELETEXSTRING?$AA@ 00089008     libeay32:asn1_gen.obj
 0002:00022018       ??_C@_03HMGPCGIG@T61?$AA@  00089018     libeay32:asn1_gen.obj
 0002:0002201c       ??_C@_09OMDMMLJJ@PRINTABLE?$AA@ 0008901c     libeay32:asn1_gen.obj
 0002:00022028       ??_C@_07MCGNPFEO@VISIBLE?$AA@ 00089028     libeay32:asn1_gen.obj
 0002:00022030       ??_C@_03CNFPPDJC@BMP?$AA@  00089030     libeay32:asn1_gen.obj
 0002:00022034       ??_C@_0L@PJIJIHJD@UTF8String?$AA@ 00089034     libeay32:asn1_gen.obj
 0002:00022040       ??_C@_04OOMJJNCF@UTF8?$AA@ 00089040     libeay32:asn1_gen.obj
 0002:00022048       ??_C@_03OLMOBCBF@IA5?$AA@  00089048     libeay32:asn1_gen.obj
 0002:0002204c       ??_C@_04CBEPCLMK@UNIV?$AA@ 0008904c     libeay32:asn1_gen.obj
 0002:00022054       ??_C@_09MBLGEDKL@BITSTRING?$AA@ 00089054     libeay32:asn1_gen.obj
 0002:00022060       ??_C@_06GOEDGPII@BITSTR?$AA@ 00089060     libeay32:asn1_gen.obj
 0002:00022068       ??_C@_0M@JIDALIGG@OCTETSTRING?$AA@ 00089068     libeay32:asn1_gen.obj
 0002:00022074       ??_C@_03LBMHMDEB@OCT?$AA@  00089074     libeay32:asn1_gen.obj
 0002:00022078       ??_C@_07EECHABMP@GENTIME?$AA@ 00089078     libeay32:asn1_gen.obj
 0002:00022080       ??_C@_03JCIJEFNJ@UTC?$AA@  00089080     libeay32:asn1_gen.obj
 0002:00022084       ??_C@_03PGJCFEMG@OID?$AA@  00089084     libeay32:asn1_gen.obj
 0002:00022088       ??_C@_04PNKFCNMG@ENUM?$AA@ 00089088     libeay32:asn1_gen.obj
 0002:00022090       ??_C@_03JMHEAPMO@INT?$AA@  00089090     libeay32:asn1_gen.obj
 0002:00022094       ??_C@_04PPJDIBFE@BOOL?$AA@ 00089094     libeay32:asn1_gen.obj
 0002:0002209c       ??_C@_05NALEHOPE@Char?$DN?$AA@ 0008909c     libeay32:asn1_gen.obj
 0002:000220a8       ??_C@_0EP@NAHIMGLP@d?3?2wm653wehh?2platform?2mvv210?2src@ 000890a8     libeay32:asn1_gen.obj
 0002:000220f8       ??_C@_07HMNLDFAL@BITLIST?$AA@ 000890f8     libeay32:asn1_gen.obj
 0002:00022100       ??_C@_03IECIMIEG@HEX?$AA@  00089100     libeay32:asn1_gen.obj
 0002:00022104       ??_C@_05CCNLIHFO@ASCII?$AA@ 00089104     libeay32:asn1_gen.obj
 0002:0002210c       ??_C@_04JBGFELJA@tag?$DN?$AA@ 0008910c     libeay32:asn1_gen.obj
 0002:00022114       ??_C@_07IOGEOOAA@string?$DN?$AA@ 00089114     libeay32:asn1_gen.obj
 0002:0002211c       ??_C@_05LKMDHMJN@WIN32?$AA@ 0008911c     libeay32:conf_def.obj
 0002:00022124       ??_C@_0BA@EEIGDPJJ@OpenSSL?5default?$AA@ 00089124     libeay32:conf_def.obj
 0002:00022134       CONF_def_version           00089134     libeay32:conf_def.obj
 0002:00022160       ??_C@_0EP@FLILJMGH@d?3?2wm653wehh?2platform?2mvv210?2src@ 00089160     libeay32:conf_def.obj
 0002:000221b0       ??_C@_07PNLMPOMH@?$FL?$FL?$CFs?$FN?$FN?6?$AA@ 000891b0     libeay32:conf_def.obj
 0002:000221b8       ??_C@_0M@CLCLGKAH@?$FL?$CFs?$FN?5?$CFs?$DN?$CFs?6?$AA@ 000891b8     libeay32:conf_def.obj
 0002:000221c4       ??_C@_05KFEICJBI@line?5?$AA@ 000891c4     libeay32:conf_def.obj
 0002:000221cc       ??_C@_03OEJENCPE@ENV?$AA@  000891cc     libeay32:conf_api.obj
 0002:000221d0       ??_C@_0L@BFMFELMC@vv?5?$DN?$DN?5NULL?$AA@ 000891d0     libeay32:conf_api.obj
 0002:000221e0       ??_C@_0EP@PLCFAFHA@d?3?2wm653wehh?2platform?2mvv210?2src@ 000891e0     libeay32:conf_api.obj
 0002:00022230       MD5_version                00089230     libeay32:md5_dgst.obj
 0002:00022784       ??_C@_0BA@JLGHGCLL@OCSP_SERVICELOC?$AA@ 00089784     libeay32:ocsp_asn.obj
 0002:00022794       ??_C@_07PAIKCKMF@locator?$AA@ 00089794     libeay32:ocsp_asn.obj
 0002:0002279c       ??_C@_0L@JOKCDHBA@OCSP_CRLID?$AA@ 0008979c     libeay32:ocsp_asn.obj
 0002:000227a8       ??_C@_07BDEAJPPO@crlTime?$AA@ 000897a8     libeay32:ocsp_asn.obj
 0002:000227b0       ??_C@_06DLEHNACA@crlNum?$AA@ 000897b0     libeay32:ocsp_asn.obj
 0002:000227b8       ??_C@_06KAALCHHK@crlUrl?$AA@ 000897b8     libeay32:ocsp_asn.obj
 0002:000227c0       ??_C@_0P@CPCDLAO@OCSP_BASICRESP?$AA@ 000897c0     libeay32:ocsp_asn.obj
 0002:000227d0       ??_C@_0BA@OOPOFNLG@tbsResponseData?$AA@ 000897d0     libeay32:ocsp_asn.obj
 0002:000227e0       ??_C@_0O@GNAMNHBK@OCSP_RESPDATA?$AA@ 000897e0     libeay32:ocsp_asn.obj
 0002:000227f0       ??_C@_0BD@LEANHDON@responseExtensions?$AA@ 000897f0     libeay32:ocsp_asn.obj
 0002:00022804       ??_C@_09NKKOBILA@responses?$AA@ 00089804     libeay32:ocsp_asn.obj
 0002:00022810       ??_C@_0L@KADAOIGF@producedAt?$AA@ 00089810     libeay32:ocsp_asn.obj
 0002:0002281c       ??_C@_0M@CPBMKBOK@responderId?$AA@ 0008981c     libeay32:ocsp_asn.obj
 0002:00022828       ??_C@_0BA@CEMENBMB@OCSP_SINGLERESP?$AA@ 00089828     libeay32:ocsp_asn.obj
 0002:00022838       ??_C@_0BB@BHCHCCEI@singleExtensions?$AA@ 00089838     libeay32:ocsp_asn.obj
 0002:0002284c       ??_C@_0L@BEDJFPDO@thisUpdate?$AA@ 0008984c     libeay32:ocsp_asn.obj
 0002:00022858       ??_C@_0L@IGGFAGC@certStatus?$AA@ 00089858     libeay32:ocsp_asn.obj
 0002:00022864       ??_C@_06JJGBHEJI@certId?$AA@ 00089864     libeay32:ocsp_asn.obj
 0002:0002286c       ??_C@_0BA@JBJHLNOJ@OCSP_CERTSTATUS?$AA@ 0008986c     libeay32:ocsp_asn.obj
 0002:0002287c       ??_C@_0O@ICNBHFHN@value?4unknown?$AA@ 0008987c     libeay32:ocsp_asn.obj
 0002:0002288c       ??_C@_0O@GCBEBIKI@value?4revoked?$AA@ 0008988c     libeay32:ocsp_asn.obj
 0002:0002289c       ??_C@_0L@MEIDNBL@value?4good?$AA@ 0008989c     libeay32:ocsp_asn.obj
 0002:000228a8       ??_C@_0BB@CFNKINIP@OCSP_REVOKEDINFO?$AA@ 000898a8     libeay32:ocsp_asn.obj
 0002:000228bc       ??_C@_0BB@JHENKMOK@revocationReason?$AA@ 000898bc     libeay32:ocsp_asn.obj
 0002:000228d0       ??_C@_0P@MHJPNEEK@revocationTime?$AA@ 000898d0     libeay32:ocsp_asn.obj
 0002:000228e0       ??_C@_0M@JBDPBGBO@OCSP_RESPID?$AA@ 000898e0     libeay32:ocsp_asn.obj
 0002:000228ec       ??_C@_0M@OFGLOCKB@value?4byKey?$AA@ 000898ec     libeay32:ocsp_asn.obj
 0002:000228f8       ??_C@_0N@OFBDHEPF@value?4byName?$AA@ 000898f8     libeay32:ocsp_asn.obj
 0002:00022908       ??_C@_0O@CDJMCFNM@OCSP_RESPONSE?$AA@ 00089908     libeay32:ocsp_asn.obj
 0002:00022918       ??_C@_0O@MMHCFEHM@responseBytes?$AA@ 00089918     libeay32:ocsp_asn.obj
 0002:00022928       ??_C@_0P@GEHCLFGI@responseStatus?$AA@ 00089928     libeay32:ocsp_asn.obj
 0002:00022938       ??_C@_0P@ONFJGMLI@OCSP_RESPBYTES?$AA@ 00089938     libeay32:ocsp_asn.obj
 0002:00022948       ??_C@_08HKMEAON@response?$AA@ 00089948     libeay32:ocsp_asn.obj
 0002:00022954       ??_C@_0N@FPIGADMM@responseType?$AA@ 00089954     libeay32:ocsp_asn.obj
 0002:00022964       ??_C@_0N@PCNOLOBD@OCSP_REQUEST?$AA@ 00089964     libeay32:ocsp_asn.obj
 0002:00022974       ??_C@_0BC@GKDKILGO@optionalSignature?$AA@ 00089974     libeay32:ocsp_asn.obj
 0002:00022988       ??_C@_0L@OIGCAPNH@tbsRequest?$AA@ 00089988     libeay32:ocsp_asn.obj
 0002:00022994       ??_C@_0N@DDBEOJJA@OCSP_REQINFO?$AA@ 00089994     libeay32:ocsp_asn.obj
 0002:000229a4       ??_C@_0BC@CPAMEDLH@requestExtensions?$AA@ 000899a4     libeay32:ocsp_asn.obj
 0002:000229b8       ??_C@_0M@NNJGDIDJ@requestList?$AA@ 000899b8     libeay32:ocsp_asn.obj
 0002:000229c4       ??_C@_0O@NHDBCFOA@requestorName?$AA@ 000899c4     libeay32:ocsp_asn.obj
 0002:000229d4       ??_C@_0M@IGPHKOAK@OCSP_ONEREQ?$AA@ 000899d4     libeay32:ocsp_asn.obj
 0002:000229e0       ??_C@_0BI@PPJDGJOP@singleRequestExtensions?$AA@ 000899e0     libeay32:ocsp_asn.obj
 0002:000229f8       ??_C@_07GCNFCODJ@reqCert?$AA@ 000899f8     libeay32:ocsp_asn.obj
 0002:00022a00       ??_C@_0M@OCJEDPID@OCSP_CERTID?$AA@ 00089a00     libeay32:ocsp_asn.obj
 0002:00022a0c       ??_C@_0O@KPBFDKHB@issuerKeyHash?$AA@ 00089a0c     libeay32:ocsp_asn.obj
 0002:00022a1c       ??_C@_0P@EKEFMOEP@issuerNameHash?$AA@ 00089a1c     libeay32:ocsp_asn.obj
 0002:00022a2c       ??_C@_0P@OIPGPNII@OCSP_SIGNATURE?$AA@ 00089a2c     libeay32:ocsp_asn.obj
 0002:00022a3c       ??_C@_05HFDFJDL@certs?$AA@ 00089a3c     libeay32:ocsp_asn.obj
 0002:00022ae0       ??_C@_0O@DBIGEIKO@NETSCAPE_SPKI?$AA@ 00089ae0     libeay32:x_spki.obj
 0002:00022af0       ??_C@_09JJGBLAHB@sig_algor?$AA@ 00089af0     libeay32:x_spki.obj
 0002:00022afc       ??_C@_05NBLLCIIN@spkac?$AA@ 00089afc     libeay32:x_spki.obj
 0002:00022b04       ??_C@_0P@OEBIEFNJ@NETSCAPE_SPKAC?$AA@ 00089b04     libeay32:x_spki.obj
 0002:00022b14       ??_C@_09DBEGHIJJ@challenge?$AA@ 00089b14     libeay32:x_spki.obj
 0002:00022b34       PEM_version                00089b34     libeay32:pem_lib.obj
 0002:00022b60       ??_C@_0FA@NCEGPJFE@d?3?2wm653wehh?2platform?2mvv210?2src@ 00089b60     libeay32:p12_utl.obj
 0002:00022bd0       ??_C@_0EM@FGPLHJJK@d?3?2wm653wehh?2platform?2mvv210?2src@ 00089bd0     libeay32:bn_sqrt.obj
 0002:00022c20       ??_C@_0FA@FLDKBPHG@d?3?2wm653wehh?2platform?2mvv210?2src@ 00089c20     libeay32:pk7_attr.obj
 0002:00022c70       ??_C@_0CG@ELPNGFCJ@OpenSSL?5?8win32?8?5shared?5library?5m@ 00089c70     libeay32:dso_win32.obj
 0002:00022c98       ??_C@_01PKGAHCOL@?$CJ?$AA@ 00089c98     libeay32:dso_win32.obj
 0002:00022c9c       ??_C@_09CCCHLKJP@filename?$CI?$AA@ 00089c9c     libeay32:dso_win32.obj
 0002:00022ca8       ??_C@_0EP@KLFAEIED@d?3?2wm653wehh?2platform?2mvv210?2src@ 00089ca8     libeay32:dso_win32.obj
 0002:00022cf8       ??_C@_08MFAHALLH@symname?$CI?$AA@ 00089cf8     libeay32:dso_win32.obj
 0002:00022d04       ??_C@_06DAJAKOAL@?$CFs?4dll?$AA@ 00089d04     libeay32:dso_win32.obj
 0002:00022d0c       ??_C@_0BI@GJJDGJIM@CloseToolhelp32Snapshot?$AA@ 00089d0c     libeay32:dso_win32.obj
 0002:00022d24       ??_C@_0O@CNMFJJGO@Module32First?$AA@ 00089d24     libeay32:dso_win32.obj
 0002:00022d34       ??_C@_0N@KIGOLBLC@Module32Next?$AA@ 00089d34     libeay32:dso_win32.obj
 0002:00022d44       ??_C@_0BJ@JEFKDHMD@CreateToolhelp32Snapshot?$AA@ 00089d44     libeay32:dso_win32.obj
 0002:00022d60       ??_C@_1BK@NKALKHPI@?$AAT?$AAO?$AAO?$AAL?$AAH?$AAE?$AAL?$AAP?$AA?4?$AAD?$AAL?$AAL?$AA?$AA@ 00089d60     libeay32:dso_win32.obj
 0002:00022e48       ??_C@_0CK@NJACHFBA@ctx?9?$DOlength?5?$DM?$DN?5?$CIint?$CJsizeof?$CIctx?9?$DO@ 00089e48     libeay32:encode.obj
 0002:00022e78       ??_C@_0EM@EJBFCLJI@d?3?2wm653wehh?2platform?2mvv210?2src@ 00089e78     libeay32:encode.obj
 0002:00022ec4       ??_C@_0BP@KGJPJK@n?5?$DM?5?$CIint?$CJsizeof?$CIctx?9?$DOenc_data?$CJ?$AA@ 00089ec4     libeay32:encode.obj
 0002:00022ee4       ??_C@_04GABBLIPF@asn1?$AA@ 00089ee4     libeay32:bio_asn1.obj
 0002:00022ef0       ??_C@_0EP@CPKJKHDC@d?3?2wm653wehh?2platform?2mvv210?2src@ 00089ef0     libeay32:bio_asn1.obj
 0002:00022f40       ??_C@_0BM@FIMHHPDL@ctx?9?$DObuflen?5?$DM?$DN?5ctx?9?$DObufsize?$AA@ 00089f40     libeay32:bio_asn1.obj
 0002:00022f5c       ??_C@_0BA@CNEIDKOH@base64?5encoding?$AA@ 00089f5c     libeay32:bio_b64.obj
 0002:00022f70       ??_C@_0EN@CHDAAPPK@d?3?2wm653wehh?2platform?2mvv210?2src@ 00089f70     libeay32:bio_b64.obj
 0002:00022fc0       ??_C@_0CH@JADBFJCL@ctx?9?$DObuf_off?$CLi?5?$DM?5?$CIint?$CJsizeof?$CIctx@ 00089fc0     libeay32:bio_b64.obj
 0002:00022fe8       ??_C@_0BN@FPMDFEFM@ctx?9?$DObuf_len?5?$DO?$DN?5ctx?9?$DObuf_off?$AA@ 00089fe8     libeay32:bio_b64.obj
 0002:00023008       ??_C@_0BC@BEKEPBME@ctx?9?$DOtmp_len?5?$DM?$DN?53?$AA@ 0008a008     libeay32:bio_b64.obj
 0002:0002301c       ??_C@_0CG@NALBBCEM@ctx?9?$DObuf_off?5?$DM?$DN?5?$CIint?$CJsizeof?$CIctx?9@ 0008a01c     libeay32:bio_b64.obj
 0002:00023044       ??_C@_06NOLCFJLD@i?5?$DM?$DN?5n?$AA@ 0008a044     libeay32:bio_b64.obj
 0002:0002304c       ??_C@_0CG@LFOFKIIN@ctx?9?$DObuf_len?5?$DM?$DN?5?$CIint?$CJsizeof?$CIctx?9@ 0008a04c     libeay32:bio_b64.obj
 0002:00023074       ??_C@_0CF@ELLFOHKP@ctx?9?$DObuf_off?5?$DM?5?$CIint?$CJsizeof?$CIctx?9?$DO@ 0008a074     libeay32:bio_b64.obj
 0002:0002309c       ??_C@_06HOHPNJLC@buffer?$AA@ 0008a09c     libeay32:bf_buff.obj
 0002:000230a8       ??_C@_0EN@HLACMGKH@d?3?2wm653wehh?2platform?2mvv210?2src@ 0008a0a8     libeay32:bf_buff.obj
 0002:000233e0       ??_C@_0BB@BIPBIGGF@PKCS12_AUTHSAFES?$AA@ 0008a3e0     libeay32:p12_asn.obj
 0002:000233f4       ??_C@_0BA@MCGBLIFE@PKCS12_SAFEBAGS?$AA@ 0008a3f4     libeay32:p12_asn.obj
 0002:00023404       ??_C@_06CEIPPJF@attrib?$AA@ 0008a404     libeay32:p12_asn.obj
 0002:0002340c       ??_C@_0P@EECFPDPC@PKCS12_SAFEBAG?$AA@ 0008a40c     libeay32:p12_asn.obj
 0002:0002341c       ??_C@_09EBGANBLK@value?4bag?$AA@ 0008a41c     libeay32:p12_asn.obj
 0002:00023428       ??_C@_0M@NFMGHALF@value?4safes?$AA@ 0008a428     libeay32:p12_asn.obj
 0002:00023434       ??_C@_0P@FIADCDOI@value?4shkeybag?$AA@ 0008a434     libeay32:p12_asn.obj
 0002:00023444       ??_C@_0N@DOAHKDFI@value?4keybag?$AA@ 0008a444     libeay32:p12_asn.obj
 0002:00023454       ??_C@_0M@BNPBMADO@PKCS12_BAGS?$AA@ 0008a454     libeay32:p12_asn.obj
 0002:00023460       ??_C@_0P@OEFHMPFE@value?4sdsicert?$AA@ 0008a460     libeay32:p12_asn.obj
 0002:00023470       ??_C@_0O@KKFHCJNP@value?4x509crl?$AA@ 0008a470     libeay32:p12_asn.obj
 0002:00023480       ??_C@_0P@IGODMFMC@value?4x509cert?$AA@ 0008a480     libeay32:p12_asn.obj
 0002:00023490       ??_C@_0M@PABGOMNF@value?4other?$AA@ 0008a490     libeay32:p12_asn.obj
 0002:0002349c       ??_C@_0BA@LPMCLHLH@PKCS12_MAC_DATA?$AA@ 0008a49c     libeay32:p12_asn.obj
 0002:000234ac       ??_C@_05DMLMEGOG@dinfo?$AA@ 0008a4ac     libeay32:p12_asn.obj
 0002:000234b4       ??_C@_06CKOLGKJK@PKCS12?$AA@ 0008a4b4     libeay32:p12_asn.obj
 0002:000234bc       ??_C@_09HFIAEJAG@authsafes?$AA@ 0008a4bc     libeay32:p12_asn.obj
 0002:000234c8       ??_C@_0BP@JCDKFDNH@OpenSSL?5default?5user?5interface?$AA@ 0008a4c8     libeay32:ui_openssl.obj
 0002:000234e8       ??_C@_0EP@FLBPENKO@d?3?2wm653wehh?2platform?2mvv210?2src@ 0008a4e8     libeay32:ui_openssl.obj
 0002:00023538       ??_C@_03EPNNLCDK@con?$AA@  0008a538     libeay32:ui_openssl.obj
 0002:0002353c       ??_C@_0BA@GANIJHKH@Verify?5failure?6?$AA@ 0008a53c     libeay32:ui_openssl.obj
 0002:0002354c       ??_C@_0P@IOLEFIHN@Verifying?5?9?5?$CFs?$AA@ 0008a54c     libeay32:ui_openssl.obj
 0002:0002355c       ??_C@_08EDHMEBNP@December?$AA@ 0008a55c     wcecompatex:time.obj
 0002:00023568       ??_C@_08HCHEGEOA@November?$AA@ 0008a568     wcecompatex:time.obj
 0002:00023574       ??_C@_07JJNFCEND@October?$AA@ 0008a574     wcecompatex:time.obj
 0002:0002357c       ??_C@_09BHHEALKD@September?$AA@ 0008a57c     wcecompatex:time.obj
 0002:00023588       ??_C@_06LBBHFDDG@August?$AA@ 0008a588     wcecompatex:time.obj
 0002:00023590       ??_C@_04MIEPOIFP@July?$AA@ 0008a590     wcecompatex:time.obj
 0002:00023598       ??_C@_04CNLMGBGM@June?$AA@ 0008a598     wcecompatex:time.obj
 0002:000235a0       ??_C@_05DMJDNLEJ@April?$AA@ 0008a5a0     wcecompatex:time.obj
 0002:000235a8       ??_C@_05HPCKOFNC@March?$AA@ 0008a5a8     wcecompatex:time.obj
 0002:000235b0       ??_C@_08GNJGEPFN@February?$AA@ 0008a5b0     wcecompatex:time.obj
 0002:000235bc       ??_C@_07CGJPFGJA@January?$AA@ 0008a5bc     wcecompatex:time.obj
 0002:000235c4       ??_C@_08INBOOONO@Saturday?$AA@ 0008a5c4     wcecompatex:time.obj
 0002:000235d0       ??_C@_06JECMNKMI@Friday?$AA@ 0008a5d0     wcecompatex:time.obj
 0002:000235d8       ??_C@_08HACCIKIA@Thursday?$AA@ 0008a5d8     wcecompatex:time.obj
 0002:000235e4       ??_C@_09DLIGFAKA@Wednesday?$AA@ 0008a5e4     wcecompatex:time.obj
 0002:000235f0       ??_C@_07BAAGCFCM@Tuesday?$AA@ 0008a5f0     wcecompatex:time.obj
 0002:000235f8       ??_C@_06JLEDEDGH@Monday?$AA@ 0008a5f8     wcecompatex:time.obj
 0002:00023600       ??_C@_06OOPIFAJ@Sunday?$AA@ 0008a600     wcecompatex:time.obj
 0002:00023608       ??_C@_03FEFJNEK@Sat?$AA@   0008a608     wcecompatex:time.obj
 0002:0002360c       ??_C@_03IDIOELNC@Fri?$AA@  0008a60c     wcecompatex:time.obj
 0002:00023610       ??_C@_03IOFIKPDN@Thu?$AA@  0008a610     wcecompatex:time.obj
 0002:00023614       ??_C@_03MHOMLAJA@Wed?$AA@  0008a614     wcecompatex:time.obj
 0002:00023618       ??_C@_03NAGEINEP@Tue?$AA@  0008a618     wcecompatex:time.obj
 0002:0002361c       ??_C@_03PDAGKDH@Mon?$AA@   0008a61c     wcecompatex:time.obj
 0002:00023620       ??_C@_03KOEHGMDN@Sun?$AA@  0008a620     wcecompatex:time.obj
 0002:0002362c       ??_C@_0BG@KLEAJEFJ@Illegal?5byte?5sequence?$AA@ 0008a62c     wcecompatex:string_extras.obj
 0002:00023644       ??_C@_0BE@ICMCHPHH@Directory?5not?5empty?$AA@ 0008a644     wcecompatex:string_extras.obj
 0002:00023658       ??_C@_0BJ@IHEHINLI@Function?5not?5implemented?$AA@ 0008a658     wcecompatex:string_extras.obj
 0002:00023674       ??_C@_0BD@CLHBCGPB@No?5locks?5available?$AA@ 0008a674     wcecompatex:string_extras.obj
 0002:00023688       ??_C@_0BC@BEDIHIDK@Filename?5too?5long?$AA@ 0008a688     wcecompatex:string_extras.obj
 0002:0002369c       ??_C@_0BK@JAEBMJJM@Resource?5deadlock?5avoided?$AA@ 0008a69c     wcecompatex:string_extras.obj
 0002:000236b8       ??_C@_0BB@FCBJFCAJ@Result?5too?5large?$AA@ 0008a6b8     wcecompatex:string_extras.obj
 0002:000236cc       ??_C@_0N@MMJPGLJK@Domain?5error?$AA@ 0008a6cc     wcecompatex:string_extras.obj
 0002:000236dc       ??_C@_0M@LHEPIIOM@Broken?5pipe?$AA@ 0008a6dc     wcecompatex:string_extras.obj
 0002:000236e8       ??_C@_0P@PKCJJLLM@Too?5many?5links?$AA@ 0008a6e8     wcecompatex:string_extras.obj
 0002:000236f8       ??_C@_0BG@DDBFNKBH@Read?9only?5file?5system?$AA@ 0008a6f8     wcecompatex:string_extras.obj
 0002:00023710       ??_C@_0N@FEHLOILP@Invalid?5seek?$AA@ 0008a710     wcecompatex:string_extras.obj
 0002:00023720       ??_C@_0BI@FEALHKLD@No?5space?5left?5on?5device?$AA@ 0008a720     wcecompatex:string_extras.obj
 0002:00023738       ??_C@_0P@LFMMIPAE@File?5too?5large?$AA@ 0008a738     wcecompatex:string_extras.obj
 0002:00023748       ??_C@_0CE@ONOKNLPF@Inappropriate?5I?1O?5control?5operat@ 0008a748     wcecompatex:string_extras.obj
 0002:0002376c       ??_C@_0BE@INBJMKGG@Too?5many?5open?5files?$AA@ 0008a76c     wcecompatex:string_extras.obj
 0002:00023780       ??_C@_0BO@IIFBODJE@Too?5many?5open?5files?5in?5system?$AA@ 0008a780     wcecompatex:string_extras.obj
 0002:000237a0       ??_C@_0BB@HMGGCEBG@Invalid?5argument?$AA@ 0008a7a0     wcecompatex:string_extras.obj
 0002:000237b4       ??_C@_0P@NDHGCGKE@Is?5a?5directory?$AA@ 0008a7b4     wcecompatex:string_extras.obj
 0002:000237c4       ??_C@_0BA@CJBACOOL@Not?5a?5directory?$AA@ 0008a7c4     wcecompatex:string_extras.obj
 0002:000237d4       ??_C@_0P@NLEIANHE@No?5such?5device?$AA@ 0008a7d4     wcecompatex:string_extras.obj
 0002:000237e4       ??_C@_0O@OAMDNOCP@Improper?5link?$AA@ 0008a7e4     wcecompatex:string_extras.obj
 0002:000237f4       ??_C@_0M@NAAJNNGH@File?5exists?$AA@ 0008a7f4     wcecompatex:string_extras.obj
 0002:00023800       ??_C@_0BI@PDLELJEJ@Device?5or?5resource?5busy?$AA@ 0008a800     wcecompatex:string_extras.obj
 0002:00023818       ??_C@_0O@NIPGCINC@Unknown?5error?$AA@ 0008a818     wcecompatex:string_extras.obj
 0002:00023828       ??_C@_0M@LOEHLCJD@Bad?5address?$AA@ 0008a828     wcecompatex:string_extras.obj
 0002:00023834       ??_C@_0BC@HFNFNKAI@Permission?5denied?$AA@ 0008a834     wcecompatex:string_extras.obj
 0002:00023848       ??_C@_0BC@BAKIAKOF@Not?5enough?5memory?$AA@ 0008a848     wcecompatex:string_extras.obj
 0002:0002385c       ??_C@_0CB@EPFKGNAK@Resource?5temporarily?5unavailable@ 0008a85c     wcecompatex:string_extras.obj
 0002:00023880       ??_C@_0BD@LOHELEP@No?5child?5processes?$AA@ 0008a880     wcecompatex:string_extras.obj
 0002:00023894       ??_C@_0BE@NFGDDCEF@Bad?5file?5descriptor?$AA@ 0008a894     wcecompatex:string_extras.obj
 0002:000238a8       ??_C@_0BC@HKPNECK@Exec?5format?5error?$AA@ 0008a8a8     wcecompatex:string_extras.obj
 0002:000238bc       ??_C@_0BC@MFFGCDFL@Arg?5list?5too?5long?$AA@ 0008a8bc     wcecompatex:string_extras.obj
 0002:000238d0       ??_C@_0BK@DPKMCKJ@No?5such?5device?5or?5address?$AA@ 0008a8d0     wcecompatex:string_extras.obj
 0002:000238ec       ??_C@_09FIANMNHE@I?1O?5error?$AA@ 0008a8ec     wcecompatex:string_extras.obj
 0002:000238f8       ??_C@_0BI@EAGLFFDI@Interrupted?5system?5call?$AA@ 0008a8f8     wcecompatex:string_extras.obj
 0002:00023910       ??_C@_0BA@FKIAIBGA@No?5such?5process?$AA@ 0008a910     wcecompatex:string_extras.obj
 0002:00023920       ??_C@_0BK@FMDHKPNF@No?5such?5file?5or?5directory?$AA@ 0008a920     wcecompatex:string_extras.obj
 0002:0002393c       ??_C@_0BI@BJFCGOHL@Operation?5not?5permitted?$AA@ 0008a93c     wcecompatex:string_extras.obj
 0002:00023954       ??_C@_08INEPGKHH@No?5error?$AA@ 0008a954     wcecompatex:string_extras.obj
 0002:00023974       __IMPORT_DESCRIPTOR_COREDLL 0008a974     coredll:COREDLL.dll
 0002:00023988       __NULL_IMPORT_DESCRIPTOR   0008a988     coredll:COREDLL.dll
 0003:00000000       __imp_fprintf              0008b000     coredll:COREDLL.dll
 0003:00000004       __imp__getstdfilex         0008b004     coredll:COREDLL.dll
 0003:00000008       __imp_sprintf              0008b008     coredll:COREDLL.dll
 0003:0000000c       __imp_memcmp               0008b00c     coredll:COREDLL.dll
 0003:00000010       __imp_malloc               0008b010     coredll:COREDLL.dll
 0003:00000014       __imp_realloc              0008b014     coredll:COREDLL.dll
 0003:00000018       __imp_free                 0008b018     coredll:COREDLL.dll
 0003:0000001c       __imp_memset               0008b01c     coredll:COREDLL.dll
 0003:00000020       __imp_strcpy               0008b020     coredll:COREDLL.dll
 0003:00000024       __imp_strlen               0008b024     coredll:COREDLL.dll
 0003:00000028       __imp_memcpy               0008b028     coredll:COREDLL.dll
 0003:0000002c       __imp__isctype             0008b02c     coredll:COREDLL.dll
 0003:00000030       __imp___ltd                0008b030     coredll:COREDLL.dll
 0003:00000034       __imp___negd               0008b034     coredll:COREDLL.dll
 0003:00000038       __imp___muld               0008b038     coredll:COREDLL.dll
 0003:0000003c       __imp___dtoi               0008b03c     coredll:COREDLL.dll
 0003:00000040       __imp___itod               0008b040     coredll:COREDLL.dll
 0003:00000044       __imp___subd               0008b044     coredll:COREDLL.dll
 0003:00000048       __imp___ged                0008b048     coredll:COREDLL.dll
 0003:0000004c       __imp___rt_udiv64by64      0008b04c     coredll:COREDLL.dll
 0003:00000050       __imp___rt_urem64by64      0008b050     coredll:COREDLL.dll
 0003:00000054       __imp_strncpy              0008b054     coredll:COREDLL.dll
 0003:00000058       __imp_strchr               0008b058     coredll:COREDLL.dll
 0003:0000005c       __imp_fclose               0008b05c     coredll:COREDLL.dll
 0003:00000060       __imp_GetLastError         0008b060     coredll:COREDLL.dll
 0003:00000064       __imp_ferror               0008b064     coredll:COREDLL.dll
 0003:00000068       __imp_fread                0008b068     coredll:COREDLL.dll
 0003:0000006c       __imp_fwrite               0008b06c     coredll:COREDLL.dll
 0003:00000070       __imp__setmode             0008b070     coredll:COREDLL.dll
 0003:00000074       __imp__fileno              0008b074     coredll:COREDLL.dll
 0003:00000078       __imp_fopen                0008b078     coredll:COREDLL.dll
 0003:0000007c       __imp_fseek                0008b07c     coredll:COREDLL.dll
 0003:00000080       __imp_ftell                0008b080     coredll:COREDLL.dll
 0003:00000084       __imp_feof                 0008b084     coredll:COREDLL.dll
 0003:00000088       __imp_fflush               0008b088     coredll:COREDLL.dll
 0003:0000008c       __imp_strcat               0008b08c     coredll:COREDLL.dll
 0003:00000090       __imp_fgets                0008b090     coredll:COREDLL.dll
 0003:00000094       __imp__wfopen              0008b094     coredll:COREDLL.dll
 0003:00000098       __imp_MultiByteToWideChar  0008b098     coredll:COREDLL.dll
 0003:0000009c       __imp_memchr               0008b09c     coredll:COREDLL.dll
 0003:000000a0       __imp_MessageBoxW          0008b0a0     coredll:COREDLL.dll
 0003:000000a4       __imp__vsnwprintf          0008b0a4     coredll:COREDLL.dll
 0003:000000a8       __imp___rt_udiv            0008b0a8     coredll:COREDLL.dll
 0003:000000ac       __imp_strcmp               0008b0ac     coredll:COREDLL.dll
 0003:000000b0       __imp_qsort                0008b0b0     coredll:COREDLL.dll
 0003:000000b4       __imp___addd               0008b0b4     coredll:COREDLL.dll
 0003:000000b8       __imp___rt_sdiv            0008b0b8     coredll:COREDLL.dll
 0003:000000bc       __imp_GetTickCount         0008b0bc     coredll:COREDLL.dll
 0003:000000c0       __imp_QueryPerformanceCounter 0008b0c0     coredll:COREDLL.dll
 0003:000000c4       __imp_GlobalMemoryStatus   0008b0c4     coredll:COREDLL.dll
 0003:000000c8       __imp_CryptReleaseContext  0008b0c8     coredll:COREDLL.dll
 0003:000000cc       __imp_CryptGenRandom       0008b0cc     coredll:COREDLL.dll
 0003:000000d0       __imp_CryptAcquireContextW 0008b0d0     coredll:COREDLL.dll
 0003:000000d4       __imp_GetVersionExW        0008b0d4     coredll:COREDLL.dll
 0003:000000d8       __imp__strnicmp            0008b0d8     coredll:COREDLL.dll
 0003:000000dc       __imp_atoi                 0008b0dc     coredll:COREDLL.dll
 0003:000000e0       __imp_tolower              0008b0e0     coredll:COREDLL.dll
 0003:000000e4       __imp_strncmp              0008b0e4     coredll:COREDLL.dll
 0003:000000e8       __imp_sscanf               0008b0e8     coredll:COREDLL.dll
 0003:000000ec       __imp_strrchr              0008b0ec     coredll:COREDLL.dll
 0003:000000f0       __imp_strtoul              0008b0f0     coredll:COREDLL.dll
 0003:000000f4       __imp__stricmp             0008b0f4     coredll:COREDLL.dll
 0003:000000f8       __imp_memmove              0008b0f8     coredll:COREDLL.dll
 0003:000000fc       __imp_LoadLibraryW         0008b0fc     coredll:COREDLL.dll
 0003:00000100       __imp_SetLastError         0008b100     coredll:COREDLL.dll
 0003:00000104       __imp_FreeLibrary          0008b104     coredll:COREDLL.dll
 0003:00000108       __imp_GetProcAddressA      0008b108     coredll:COREDLL.dll
 0003:0000010c       __imp_strstr               0008b10c     coredll:COREDLL.dll
 0003:00000110       __imp_WideCharToMultiByte  0008b110     coredll:COREDLL.dll
 0003:00000114       __imp_fputs                0008b114     coredll:COREDLL.dll
 0003:00000118       __imp_SystemTimeToFileTime 0008b118     coredll:COREDLL.dll
 0003:0000011c       __imp_GetSystemTime        0008b11c     coredll:COREDLL.dll
 0003:00000120       __imp_GetTimeZoneInformation 0008b120     coredll:COREDLL.dll
 0003:00000124       __imp_FileTimeToSystemTime 0008b124     coredll:COREDLL.dll
 0003:00000128       __imp_FileTimeToLocalFileTime 0008b128     coredll:COREDLL.dll
 0003:0000012c       __imp_LocalFree            0008b12c     coredll:COREDLL.dll
 0003:00000130       __imp__XcptFilter          0008b130     coredll:COREDLL.dll
 0003:00000134       __imp___C_specific_handler 0008b134     coredll:COREDLL.dll
 0003:00000138       __imp_FindFirstFileW       0008b138     coredll:COREDLL.dll
 0003:0000013c       __imp_FindClose            0008b13c     coredll:COREDLL.dll
 0003:00000140       __imp_FindNextFileW        0008b140     coredll:COREDLL.dll
 0003:00000144       __imp_GetModuleFileNameW   0008b144     coredll:COREDLL.dll
 0003:00000148       \177COREDLL_NULL_THUNK_DATA 0008b148     coredll:COREDLL.dll
 0003:0000014c       __xc_a                     0008b14c     corelibc:crt0init.obj
 0003:00000150       __xc_z                     0008b150     corelibc:crt0init.obj
 0003:00000154       __xi_a                     0008b154     corelibc:crt0init.obj
 0003:00000158       __xi_z                     0008b158     corelibc:crt0init.obj
 0003:0000015c       __xp_a                     0008b15c     corelibc:crt0init.obj
 0003:00000160       __xp_z                     0008b160     corelibc:crt0init.obj
 0003:00000164       __xt_a                     0008b164     corelibc:crt0init.obj
 0003:00000168       __xt_z                     0008b168     corelibc:crt0init.obj
 0003:00000464       rand_ssleay_meth           0008b464     libeay32:md_rand.obj
 0003:00000960       default_pctx               0008b960     libeay32:tasn_prn.obj
 0003:000010d8       ?messages@@3PAPADA         0008c0d8     wcecompatex:string_extras.obj
 0003:000028a0       cleanse_ctr                0008d8a0     libeay32:mem_clr.obj
 0003:000028a8       OPENSSL_NONPIC_relocated   0008d8a8     libeay32:cryptlib.obj
 0003:00002f40       obj_cleanup_defer          0008df40     libeay32:obj_dat.obj
 0003:00002f78       app_pkey_methods           0008df78     libeay32:pmeth_lib.obj
 0003:0000319c       errno                      0008e19c     wcecompatex:errno.obj
 0003:000031a0       _environ                   0008e1a0     wcecompatex:env.obj
 0003:000031a4       _wenviron                  0008e1a4     wcecompatex:env.obj
 0003:000031a8       ?num_env_vars@@3HA         0008e1a8     wcecompatex:env.obj
 0003:000031ac       ?_timezone@@3HA            0008e1ac     wcecompatex:timeb.obj
 0003:000031b0       ?altzone@@3HA              0008e1b0     wcecompatex:timeb.obj
 0003:000031b4       ?timezone@@3HA             0008e1b4     wcecompatex:timeb.obj
 0003:000031b8       sigx_app                   0008e1b8     <common>
 0003:000031bc       sig_app                    0008e1bc     <common>
 0003:000031c0       __onexitend                0008e1c0     <common>
 0003:000031c4       __onexitbegin              0008e1c4     <common>
 0003:000031c8       _exitflag                  0008e1c8     <common>

 entry point at        0001:000553d8

 Static symbols

 0001:00000000       KDF1_SHA1                  00011000 f   ecdhtest.obj
 0001:0000002c       test_ecdh_curve            0001102c f   ecdhtest.obj
 0001:00000f58       bn_expand_internal         00011f58 f   libeay32:bn_lib.obj
 0001:00001674       default_malloc_ex          00012674 f   libeay32:mem.obj
 0001:00001694       default_realloc_ex         00012694 f   libeay32:mem.obj
 0001:000016b4       default_malloc_locked_ex   000126b4 f   libeay32:mem.obj
 0001:00001c48       print_fp                   00012c48 f   libeay32:err_prn.obj
 0001:0000237c       roundv                     0001337c f   libeay32:b_print.obj
 0001:0000240c       doapr_outch                0001340c f   libeay32:b_print.obj
 0001:00002500       fmtstr                     00013500 f   libeay32:b_print.obj
 0001:00002630       fmtint                     00013630 f   libeay32:b_print.obj
 0001:00002970       fmtfp                      00013970 f   libeay32:b_print.obj
 0001:00002e60       _dopr                      00013e60 f   libeay32:b_print.obj
 0001:00005928       app_info_free              00016928 f   libeay32:mem_dbg.obj
 0001:00005b8c       mem_LHASH_COMP             00016b8c f   libeay32:mem_dbg.obj
 0001:00005b9c       mem_LHASH_HASH             00016b9c f   libeay32:mem_dbg.obj
 0001:00005bd0       app_info_LHASH_COMP        00016bd0 f   libeay32:mem_dbg.obj
 0001:00005be0       app_info_LHASH_HASH        00016be0 f   libeay32:mem_dbg.obj
 0001:00005c18       pop_info                   00016c18 f   libeay32:mem_dbg.obj
 0001:000060b8       print_leak_doall_arg       000170b8 f   libeay32:mem_dbg.obj
 0001:000062f8       print_leak_LHASH_DOALL_ARG 000172f8 f   libeay32:mem_dbg.obj
 0001:00006490       err_fns_check              00017490 f   libeay32:err.obj
 0001:000064f8       err_string_data_LHASH_HASH 000174f8 f   libeay32:err.obj
 0001:00006544       err_string_data_LHASH_COMP 00017544 f   libeay32:err.obj
 0001:00006554       int_err_get                00017554 f   libeay32:err.obj
 0001:00006600       int_err_del                00017600 f   libeay32:err.obj
 0001:0000665c       int_err_get_item           0001765c f   libeay32:err.obj
 0001:000066e0       int_err_set_item           000176e0 f   libeay32:err.obj
 0001:00006760       int_err_del_item           00017760 f   libeay32:err.obj
 0001:000067e4       err_state_LHASH_HASH       000177e4 f   libeay32:err.obj
 0001:000067fc       err_state_LHASH_COMP       000177fc f   libeay32:err.obj
 0001:0000680c       int_thread_get             0001780c f   libeay32:err.obj
 0001:000068c4       int_thread_release         000178c4 f   libeay32:err.obj
 0001:00006920       int_thread_get_item        00017920 f   libeay32:err.obj
 0001:000069c4       int_thread_set_item        000179c4 f   libeay32:err.obj
 0001:00006a68       int_err_get_next_lib       00017a68 f   libeay32:err.obj
 0001:00006ac0       ERR_STATE_free             00017ac0 f   libeay32:err.obj
 0001:00006ffc       int_thread_del_item        00017ffc f   libeay32:err.obj
 0001:00007234       get_error_values           00018234 f   libeay32:err.obj
 0001:00007554       impl_check                 00018554 f   libeay32:ex_data.obj
 0001:000075a8       ex_class_item_LHASH_HASH   000185a8 f   libeay32:ex_data.obj
 0001:000075b0       ex_class_item_LHASH_COMP   000185b0 f   libeay32:ex_data.obj
 0001:000075c0       ex_data_check              000185c0 f   libeay32:ex_data.obj
 0001:0000763c       def_cleanup_util_cb        0001863c f   libeay32:ex_data.obj
 0001:0000764c       def_cleanup_cb             0001864c f   libeay32:ex_data.obj
 0001:00007674       def_get_class              00018674 f   libeay32:ex_data.obj
 0001:00007770       def_add_index              00018770 f   libeay32:ex_data.obj
 0001:000078a4       int_new_class              000188a4 f   libeay32:ex_data.obj
 0001:000078fc       int_cleanup                000188fc f   libeay32:ex_data.obj
 0001:00007950       int_get_new_index          00018950 f   libeay32:ex_data.obj
 0001:00007b84       int_new_ex_data            00018b84 f   libeay32:ex_data.obj
 0001:00007d00       int_dup_ex_data            00018d00 f   libeay32:ex_data.obj
 0001:00007ea8       int_free_ex_data           00018ea8 f   libeay32:ex_data.obj
 0001:0000802c       BN_POOL_get                0001902c f   libeay32:bn_ctx.obj
 0001:00008424       file_new                   00019424 f   libeay32:bss_file.obj
 0001:00008440       file_free                  00019440 f   libeay32:bss_file.obj
 0001:0000849c       file_read                  0001949c f   libeay32:bss_file.obj
 0001:0000853c       file_write                 0001953c f   libeay32:bss_file.obj
 0001:00008588       file_ctrl                  00019588 f   libeay32:bss_file.obj
 0001:0000881c       file_gets                  0001981c f   libeay32:bss_file.obj
 0001:00008870       file_puts                  00019870 f   libeay32:bss_file.obj
 0001:00008d4c       sha1_block_data_order      00019d4c f   libeay32:sha1dgst.obj
 0001:000098bc       bnrand                     0001a8bc f   libeay32:bn_rand.obj
 0001:00009b24       bn_rand_range              0001ab24 f   libeay32:bn_rand.obj
 0001:00009d44       ec_group_new_from_data     0001ad44 f   libeay32:ec_curve.obj
 0001:0000a604       ecdh_data_new              0001b604 f   libeay32:ech_lib.obj
 0001:0000a6f8       ecdh_data_dup              0001b6f8 f   libeay32:ech_lib.obj
 0001:0000a718       ecdh_data_free             0001b718 f   libeay32:ech_lib.obj
 0001:0000a7d8       ec_pre_comp_dup            0001b7d8 f   libeay32:ec_mult.obj
 0001:0000a814       ec_pre_comp_free           0001b814 f   libeay32:ec_mult.obj
 0001:0000a890       ec_pre_comp_clear_free     0001b890 f   libeay32:ec_mult.obj
 0001:0000a924       compute_wNAF               0001b924 f   libeay32:ec_mult.obj
 0001:0000bdf0       expand                     0001cdf0 f   libeay32:lhash.obj
 0001:0000bf28       contract                   0001cf28 f   libeay32:lhash.obj
 0001:0000c020       getrn                      0001d020 f   libeay32:lhash.obj
 0001:0000c8fc       internal_find              0001d8fc f   libeay32:stack.obj
 0001:0000cc84       ssleay_rand_cleanup        0001dc84 f   libeay32:md_rand.obj
 0001:0000ccec       ssleay_rand_add            0001dcec f   libeay32:md_rand.obj
 0001:0000d084       ssleay_rand_seed           0001e084 f   libeay32:md_rand.obj
 0001:0000d0c4       ssleay_rand_bytes          0001e0c4 f   libeay32:md_rand.obj
 0001:0000d500       ssleay_rand_nopseudo_bytes 0001e500 f   libeay32:md_rand.obj
 0001:0000d514       ssleay_rand_pseudo_bytes   0001e514 f   libeay32:md_rand.obj
 0001:0000d528       ssleay_rand_status         0001e528 f   libeay32:md_rand.obj
 0001:0000e1d8       ecdh_compute_key           0001f1d8 f   libeay32:ech_ossl.obj
 0001:0000e548       sn_cmp_BSEARCH_CMP_FN      0001f548 f   libeay32:obj_dat.obj
 0001:0000e574       ln_cmp_BSEARCH_CMP_FN      0001f574 f   libeay32:obj_dat.obj
 0001:0000e850       obj_cmp_BSEARCH_CMP_FN     0001f850 f   libeay32:obj_dat.obj
 0001:0000f720       init                       00020720 f   libeay32:m_sha1.obj
 0001:0000f734       update                     00020734 f   libeay32:m_sha1.obj
 0001:0000f748       final                      00020748 f   libeay32:m_sha1.obj
 0001:0000f770       init224                    00020770 f   libeay32:m_sha1.obj
 0001:0000f784       init256                    00020784 f   libeay32:m_sha1.obj
 0001:0000f798       update256                  00020798 f   libeay32:m_sha1.obj
 0001:0000f7ac       final256                   000207ac f   libeay32:m_sha1.obj
 0001:0000f7c8       init384                    000207c8 f   libeay32:m_sha1.obj
 0001:0000f7dc       init512                    000207dc f   libeay32:m_sha1.obj
 0001:0000f7f0       update512                  000207f0 f   libeay32:m_sha1.obj
 0001:0000f804       final512                   00020804 f   libeay32:m_sha1.obj
 0001:0000f820       readtimer                  00020820 f   libeay32:rand_win.obj
 0001:0000fad4       int_cb_LHASH_DOALL_ARG     00020ad4 f   libeay32:eng_table.obj
 0001:00012084       asn1_get_length            00023084 f   libeay32:asn1_lib.obj
 0001:00012760       look_str_cb                00023760 f   libeay32:tb_asnmth.obj
 0001:00012a20       pmeth_cmp_BSEARCH_CMP_FN   00023a20 f   libeay32:pmeth_lib.obj
 0001:00013ae8       sha256_block_data_order    00024ae8 f   libeay32:sha256.obj
 0001:00014278       sha512_block_data_order    00025278 f   libeay32:sha512.obj
 0001:000173a8       BN_from_montgomery_word    000283a8 f   libeay32:bn_mont.obj
 0001:00017b58       nist_cp_bn_0               00028b58 f   libeay32:bn_nist.obj
 0001:00019068       gf2m_Mdouble               0002a068 f   libeay32:ec2_mult.obj
 0001:000191c4       gf2m_Madd                  0002a1c4 f   libeay32:ec2_mult.obj
 0001:0001933c       gf2m_Mxy                   0002a33c f   libeay32:ec2_mult.obj
 0001:000196e8       ec_GF2m_montgomery_point_multiply 0002a6e8 f   libeay32:ec2_mult.obj
 0001:00019c84       bn_GF2m_mul_1x1            0002ac84 f   libeay32:bn_gf2m.obj
 0001:0001b144       ameth_cmp_BSEARCH_CMP_FN   0002c144 f   libeay32:ameth_lib.obj
 0001:0001b3ec       pkey_cmac_init             0002c3ec f   libeay32:cm_pmeth.obj
 0001:0001b41c       pkey_cmac_copy             0002c41c f   libeay32:cm_pmeth.obj
 0001:0001b460       pkey_cmac_cleanup          0002c460 f   libeay32:cm_pmeth.obj
 0001:0001b474       pkey_cmac_keygen           0002c474 f   libeay32:cm_pmeth.obj
 0001:0001b4d4       int_update                 0002c4d4 f   libeay32:cm_pmeth.obj
 0001:0001b4fc       cmac_signctx_init          0002c4fc f   libeay32:cm_pmeth.obj
 0001:0001b528       cmac_signctx               0002c528 f   libeay32:cm_pmeth.obj
 0001:0001b53c       pkey_cmac_ctrl             0002c53c f   libeay32:cm_pmeth.obj
 0001:0001b610       pkey_cmac_ctrl_str         0002c610 f   libeay32:cm_pmeth.obj
 0001:0001b720       pkey_hmac_init             0002c720 f   libeay32:hm_pmeth.obj
 0001:0001b784       pkey_hmac_copy             0002c784 f   libeay32:hm_pmeth.obj
 0001:0001b80c       pkey_hmac_cleanup          0002c80c f   libeay32:hm_pmeth.obj
 0001:0001b858       pkey_hmac_keygen           0002c858 f   libeay32:hm_pmeth.obj
 0001:0001b8ac       int_update                 0002c8ac f   libeay32:hm_pmeth.obj
 0001:0001b8d8       hmac_signctx_init          0002c8d8 f   libeay32:hm_pmeth.obj
 0001:0001b918       hmac_signctx               0002c918 f   libeay32:hm_pmeth.obj
 0001:0001b988       pkey_hmac_ctrl             0002c988 f   libeay32:hm_pmeth.obj
 0001:0001ba20       pkey_hmac_ctrl_str         0002ca20 f   libeay32:hm_pmeth.obj
 0001:0001bae0       pkey_ec_init               0002cae0 f   libeay32:ec_pmeth.obj
 0001:0001bb24       pkey_ec_copy               0002cb24 f   libeay32:ec_pmeth.obj
 0001:0001bb84       pkey_ec_cleanup            0002cb84 f   libeay32:ec_pmeth.obj
 0001:0001bbb4       pkey_ec_sign               0002cbb4 f   libeay32:ec_pmeth.obj
 0001:0001bc78       pkey_ec_verify             0002cc78 f   libeay32:ec_pmeth.obj
 0001:0001bcd8       pkey_ec_derive             0002ccd8 f   libeay32:ec_pmeth.obj
 0001:0001bda0       pkey_ec_ctrl               0002cda0 f   libeay32:ec_pmeth.obj
 0001:0001beec       pkey_ec_ctrl_str           0002ceec f   libeay32:ec_pmeth.obj
 0001:0001bf98       pkey_ec_paramgen           0002cf98 f   libeay32:ec_pmeth.obj
 0001:0001c02c       pkey_ec_keygen             0002d02c f   libeay32:ec_pmeth.obj
 0001:0001c0c0       pkey_dsa_init              0002d0c0 f   libeay32:dsa_pmeth.obj
 0001:0001c128       pkey_dsa_copy              0002d128 f   libeay32:dsa_pmeth.obj
 0001:0001c17c       pkey_dsa_cleanup           0002d17c f   libeay32:dsa_pmeth.obj
 0001:0001c198       pkey_dsa_sign              0002d198 f   libeay32:dsa_pmeth.obj
 0001:0001c20c       pkey_dsa_verify            0002d20c f   libeay32:dsa_pmeth.obj
 0001:0001c26c       pkey_dsa_ctrl              0002d26c f   libeay32:dsa_pmeth.obj
 0001:0001c464       pkey_dsa_ctrl_str          0002d464 f   libeay32:dsa_pmeth.obj
 0001:0001c56c       pkey_dsa_paramgen          0002d56c f   libeay32:dsa_pmeth.obj
 0001:0001c614       pkey_dsa_keygen            0002d614 f   libeay32:dsa_pmeth.obj
 0001:0001c6a8       pkey_dh_init               0002d6a8 f   libeay32:dh_pmeth.obj
 0001:0001c708       pkey_dh_copy               0002d708 f   libeay32:dh_pmeth.obj
 0001:0001c754       pkey_dh_cleanup            0002d754 f   libeay32:dh_pmeth.obj
 0001:0001c770       pkey_dh_ctrl               0002d770 f   libeay32:dh_pmeth.obj
 0001:0001c7c4       pkey_dh_ctrl_str           0002d7c4 f   libeay32:dh_pmeth.obj
 0001:0001c880       pkey_dh_paramgen           0002d880 f   libeay32:dh_pmeth.obj
 0001:0001c90c       pkey_dh_keygen             0002d90c f   libeay32:dh_pmeth.obj
 0001:0001c99c       pkey_dh_derive             0002d99c f   libeay32:dh_pmeth.obj
 0001:0001ca18       pkey_rsa_init              0002da18 f   libeay32:rsa_pmeth.obj
 0001:0001ca90       pkey_rsa_copy              0002da90 f   libeay32:rsa_pmeth.obj
 0001:0001cb00       setup_tbuf                 0002db00 f   libeay32:rsa_pmeth.obj
 0001:0001cb4c       pkey_rsa_cleanup           0002db4c f   libeay32:rsa_pmeth.obj
 0001:0001cb8c       pkey_rsa_sign              0002db8c f   libeay32:rsa_pmeth.obj
 0001:0001cd74       pkey_rsa_verifyrecover     0002dd74 f   libeay32:rsa_pmeth.obj
 0001:0001cf28       pkey_rsa_verify            0002df28 f   libeay32:rsa_pmeth.obj
 0001:0001d0a0       pkey_rsa_encrypt           0002e0a0 f   libeay32:rsa_pmeth.obj
 0001:0001d0ec       pkey_rsa_decrypt           0002e0ec f   libeay32:rsa_pmeth.obj
 0001:0001d138       check_padding_md           0002e138 f   libeay32:rsa_pmeth.obj
 0001:0001d1c8       pkey_rsa_ctrl              0002e1c8 f   libeay32:rsa_pmeth.obj
 0001:0001d508       pkey_rsa_ctrl_str          0002e508 f   libeay32:rsa_pmeth.obj
 0001:0001d780       pkey_rsa_keygen            0002e780 f   libeay32:rsa_pmeth.obj
 0001:0001dab0       pkey_set_type              0002eab0 f   libeay32:p_lib.obj
 0001:0001debc       rsa_get_public_exp         0002eebc f   libeay32:rsa_crpt.obj
 0001:0001e64c       euclid                     0002f64c f   libeay32:bn_gcd.obj
 0001:0001e778       BN_mod_inverse_no_branch   0002f778 f   libeay32:bn_gcd.obj
 0001:0001f7a8       cmac_size                  000307a8 f   libeay32:cm_ameth.obj
 0001:0001f7b0       cmac_key_free              000307b0 f   libeay32:cm_ameth.obj
 0001:0001f7cc       hmac_size                  000307cc f   libeay32:hm_ameth.obj
 0001:0001f7d4       hmac_key_free              000307d4 f   libeay32:hm_ameth.obj
 0001:0001f808       hmac_pkey_ctrl             00030808 f   libeay32:hm_ameth.obj
 0001:0001f820       old_hmac_decode            00030820 f   libeay32:hm_ameth.obj
 0001:0001f880       old_hmac_encode            00030880 f   libeay32:hm_ameth.obj
 0001:0001f8f0       eckey_param2type           000308f0 f   libeay32:ec_ameth.obj
 0001:0001f9d8       eckey_pub_encode           000309d8 f   libeay32:ec_ameth.obj
 0001:0001fadc       eckey_type2param           00030adc f   libeay32:ec_ameth.obj
 0001:0001fbe8       eckey_pub_decode           00030be8 f   libeay32:ec_ameth.obj
 0001:0001fce4       eckey_pub_cmp              00030ce4 f   libeay32:ec_ameth.obj
 0001:0001fd4c       eckey_priv_decode          00030d4c f   libeay32:ec_ameth.obj
 0001:0001ff74       eckey_priv_encode          00030f74 f   libeay32:ec_ameth.obj
 0001:0002010c       int_ec_size                0003110c f   libeay32:ec_ameth.obj
 0001:00020120       ec_bits                    00031120 f   libeay32:ec_ameth.obj
 0001:0002017c       ec_missing_parameters      0003117c f   libeay32:ec_ameth.obj
 0001:000201a0       ec_copy_parameters         000311a0 f   libeay32:ec_ameth.obj
 0001:000201f0       ec_cmp_parameters          000311f0 f   libeay32:ec_ameth.obj
 0001:00020234       int_ec_free                00031234 f   libeay32:ec_ameth.obj
 0001:00020248       do_EC_KEY_print            00031248 f   libeay32:ec_ameth.obj
 0001:000204dc       eckey_param_decode         000314dc f   libeay32:ec_ameth.obj
 0001:00020540       eckey_param_encode         00031540 f   libeay32:ec_ameth.obj
 0001:00020554       eckey_param_print          00031554 f   libeay32:ec_ameth.obj
 0001:0002056c       eckey_pub_print            0003156c f   libeay32:ec_ameth.obj
 0001:00020584       eckey_priv_print           00031584 f   libeay32:ec_ameth.obj
 0001:0002059c       old_ec_priv_decode         0003159c f   libeay32:ec_ameth.obj
 0001:00020604       old_ec_priv_encode         00031604 f   libeay32:ec_ameth.obj
 0001:00020618       ec_pkey_ctrl               00031618 f   libeay32:ec_ameth.obj
 0001:0002076c       dsa_pub_decode             0003176c f   libeay32:dsa_ameth.obj
 0001:00020918       dsa_pub_encode             00031918 f   libeay32:dsa_ameth.obj
 0001:00020a54       dsa_priv_decode            00031a54 f   libeay32:dsa_ameth.obj
 0001:00020d40       dsa_priv_encode            00031d40 f   libeay32:dsa_ameth.obj
 0001:00020e98       int_dsa_size               00031e98 f   libeay32:dsa_ameth.obj
 0001:00020eac       dsa_bits                   00031eac f   libeay32:dsa_ameth.obj
 0001:00020ec4       dsa_missing_parameters     00031ec4 f   libeay32:dsa_ameth.obj
 0001:00020ef4       dsa_copy_parameters        00031ef4 f   libeay32:dsa_ameth.obj
 0001:00020fa8       dsa_cmp_parameters         00031fa8 f   libeay32:dsa_ameth.obj
 0001:0002101c       dsa_pub_cmp                0003201c f   libeay32:dsa_ameth.obj
 0001:0002104c       int_dsa_free               0003204c f   libeay32:dsa_ameth.obj
 0001:00021060       do_dsa_print               00032060 f   libeay32:dsa_ameth.obj
 0001:000212e8       dsa_param_decode           000322e8 f   libeay32:dsa_ameth.obj
 0001:0002134c       dsa_param_encode           0003234c f   libeay32:dsa_ameth.obj
 0001:00021360       dsa_param_print            00032360 f   libeay32:dsa_ameth.obj
 0001:00021378       dsa_pub_print              00032378 f   libeay32:dsa_ameth.obj
 0001:00021390       dsa_priv_print             00032390 f   libeay32:dsa_ameth.obj
 0001:000213a8       old_dsa_priv_decode        000323a8 f   libeay32:dsa_ameth.obj
 0001:00021410       old_dsa_priv_encode        00032410 f   libeay32:dsa_ameth.obj
 0001:00021424       dsa_sig_print              00032424 f   libeay32:dsa_ameth.obj
 0001:000215b4       dsa_pkey_ctrl              000325b4 f   libeay32:dsa_ameth.obj
 0001:00021708       int_dh_free                00032708 f   libeay32:dh_ameth.obj
 0001:0002171c       dh_pub_decode              0003271c f   libeay32:dh_ameth.obj
 0001:0002188c       dh_pub_encode              0003288c f   libeay32:dh_ameth.obj
 0001:000219a0       dh_priv_decode             000329a0 f   libeay32:dh_ameth.obj
 0001:00021ad4       dh_priv_encode             00032ad4 f   libeay32:dh_ameth.obj
 0001:00021c20       dh_param_decode            00032c20 f   libeay32:dh_ameth.obj
 0001:00021c84       dh_param_encode            00032c84 f   libeay32:dh_ameth.obj
 0001:00021c98       do_dh_print                00032c98 f   libeay32:dh_ameth.obj
 0001:00021f24       int_dh_size                00032f24 f   libeay32:dh_ameth.obj
 0001:00021f38       dh_bits                    00032f38 f   libeay32:dh_ameth.obj
 0001:00021f50       dh_cmp_parameters          00032f50 f   libeay32:dh_ameth.obj
 0001:00021fa8       dh_copy_parameters         00032fa8 f   libeay32:dh_ameth.obj
 0001:0002202c       dh_missing_parameters      0003302c f   libeay32:dh_ameth.obj
 0001:0002204c       dh_pub_cmp                 0003304c f   libeay32:dh_ameth.obj
 0001:00022098       dh_param_print             00033098 f   libeay32:dh_ameth.obj
 0001:000220bc       dh_public_print            000330bc f   libeay32:dh_ameth.obj
 0001:000220e0       dh_private_print           000330e0 f   libeay32:dh_ameth.obj
 0001:00022104       rsa_pub_encode             00033104 f   libeay32:rsa_ameth.obj
 0001:0002217c       rsa_pub_decode             0003317c f   libeay32:rsa_ameth.obj
 0001:0002220c       rsa_pub_cmp                0003320c f   libeay32:rsa_ameth.obj
 0001:00022264       old_rsa_priv_decode        00033264 f   libeay32:rsa_ameth.obj
 0001:000222c8       old_rsa_priv_encode        000332c8 f   libeay32:rsa_ameth.obj
 0001:000222dc       rsa_priv_encode            000332dc f   libeay32:rsa_ameth.obj
 0001:0002239c       rsa_priv_decode            0003339c f   libeay32:rsa_ameth.obj
 0001:000223e8       int_rsa_size               000333e8 f   libeay32:rsa_ameth.obj
 0001:000223fc       rsa_bits                   000333fc f   libeay32:rsa_ameth.obj
 0001:00022414       int_rsa_free               00033414 f   libeay32:rsa_ameth.obj
 0001:00022428       do_rsa_print               00033428 f   libeay32:rsa_ameth.obj
 0001:000227c4       rsa_pub_print              000337c4 f   libeay32:rsa_ameth.obj
 0001:000227dc       rsa_priv_print             000337dc f   libeay32:rsa_ameth.obj
 0001:000227f4       rsa_pss_decode             000337f4 f   libeay32:rsa_ameth.obj
 0001:000228bc       rsa_pss_param_print        000338bc f   libeay32:rsa_ameth.obj
 0001:00022b10       rsa_sig_print              00033b10 f   libeay32:rsa_ameth.obj
 0001:00022bd8       rsa_pkey_ctrl              00033bd8 f   libeay32:rsa_ameth.obj
 0001:00022cc8       rsa_item_verify            00033cc8 f   libeay32:rsa_ameth.obj
 0001:00022f98       rsa_item_sign              00033f98 f   libeay32:rsa_ameth.obj
 0001:00023e28       strip_spaces               00034e28 f   libeay32:v3_utl.obj
 0001:000241a0       ipv4_from_asc              000351a0 f   libeay32:v3_utl.obj
 0001:00024540       ipv6_cb                    00035540 f   libeay32:v3_utl.obj
 0001:00024650       ipv6_from_asc              00035650 f   libeay32:v3_utl.obj
 0001:00024f58       ecdsa_data_new             00035f58 f   libeay32:ecs_lib.obj
 0001:0002504c       ecdsa_data_dup             0003604c f   libeay32:ecs_lib.obj
 0001:0002506c       ecdsa_data_free            0003606c f   libeay32:ecs_lib.obj
 0001:000252b0       sig_cb                     000362b0 f   libeay32:dsa_asn1.obj
 0001:00025344       dsa_cb                     00036344 f   libeay32:dsa_asn1.obj
 0001:00025fa0       trans_cb                   00036fa0 f   libeay32:pmeth_gn.obj
 0001:00025ff0       dsa_builtin_keygen         00036ff0 f   libeay32:dsa_key.obj
 0001:0002644c       dh_builtin_genparams       0003744c f   libeay32:dh_gen.obj
 0001:000266a4       generate_key               000376a4 f   libeay32:dh_key.obj
 0001:000268bc       compute_key                000378bc f   libeay32:dh_key.obj
 0001:00026a74       dh_bn_mod_exp              00037a74 f   libeay32:dh_key.obj
 0001:00026afc       dh_init                    00037afc f   libeay32:dh_key.obj
 0001:00026b14       dh_finish                  00037b14 f   libeay32:dh_key.obj
 0001:000279f8       cms_RecipientInfo_ktri_encrypt 000389f8 f   libeay32:cms_env.obj
 0001:00027b84       cms_RecipientInfo_kekri_encrypt 00038b84 f   libeay32:cms_env.obj
 0001:00028168       rsa_builtin_keygen         00039168 f   libeay32:rsa_gen.obj
 0001:00028858       obj_name_LHASH_HASH        00039858 f   libeay32:o_names.obj
 0001:000288b8       obj_name_LHASH_COMP        000398b8 f   libeay32:o_names.obj
 0001:00028a40       sig_cmp_BSEARCH_CMP_FN     00039a40 f   libeay32:obj_xref.obj
 0001:00028a50       sigx_cmp_BSEARCH_CMP_FN    00039a50 f   libeay32:obj_xref.obj
 0001:00028bc0       pbe2_cmp_BSEARCH_CMP_FN    00039bc0 f   libeay32:evp_pbe.obj
 0001:0002a1f8       asn1_check_tlen            0003b1f8 f   libeay32:tasn_dec.obj
 0001:0002a3f8       asn1_template_ex_d2i       0003b3f8 f   libeay32:tasn_dec.obj
 0001:0002a614       asn1_find_end              0003b614 f   libeay32:tasn_dec.obj
 0001:0002a768       asn1_collect               0003b768 f   libeay32:tasn_dec.obj
 0001:0002a9c4       asn1_d2i_ex_primitive      0003b9c4 f   libeay32:tasn_dec.obj
 0001:0002b78c       asn1_template_noexp_d2i    0003c78c f   libeay32:tasn_dec.obj
 0001:0002bba8       asn1_template_ex_i2d       0003cba8 f   libeay32:tasn_enc.obj
 0001:0002bec8       der_cmp                    0003cec8 f   libeay32:tasn_enc.obj
 0001:0002c0e8       asn1_i2d_ex_primitive      0003d0e8 f   libeay32:tasn_enc.obj
 0001:0002c5c0       asn1_set_seq_out           0003d5c0 f   libeay32:tasn_enc.obj
 0001:0002c808       asn1_item_flags_i2d        0003d808 f   libeay32:tasn_enc.obj
 0001:0002c9fc       asn1_item_ex_combine_new   0003d9fc f   libeay32:tasn_new.obj
 0001:0002ccdc       asn1_item_clear            0003dcdc f   libeay32:tasn_new.obj
 0001:0002d02c       asn1_item_combine_free     0003e02c f   libeay32:tasn_fre.obj
 0001:0002d574       X9_62_CHARACTERISTIC_TWO_adb 0003e574 f   libeay32:ec_asn1.obj
 0001:0002d58c       X9_62_FIELDID_adb          0003e58c f   libeay32:ec_asn1.obj
 0001:0002d5c8       ec_asn1_group2fieldid      0003e5c8 f   libeay32:ec_asn1.obj
 0001:0002d93c       ec_asn1_group2curve        0003e93c f   libeay32:ec_asn1.obj
 0001:0002dd24       ec_asn1_group2parameters   0003ed24 f   libeay32:ec_asn1.obj
 0001:0002e0b8       ec_asn1_group2pkparameters 0003f0b8 f   libeay32:ec_asn1.obj
 0001:0002e1b8       ec_asn1_parameters2group   0003f1b8 f   libeay32:ec_asn1.obj
 0001:0002e9b4       ec_asn1_pkparameters2group 0003f9b4 f   libeay32:ec_asn1.obj
 0001:0002f5f8       pubkey_cb                  000405f8 f   libeay32:x_pubkey.obj
 0001:0002f8a4       pkey_cb                    000408a4 f   libeay32:p8_pkey.obj
 0001:0002fa3c       print_bin                  00040a3c f   libeay32:eck_prn.obj
 0001:00030644       cms_get0_signed            00041644 f   libeay32:cms_sd.obj
 0001:00030698       cms_sd_set_version         00041698 f   libeay32:cms_sd.obj
 0001:00030b54       cms_SignerInfo_content_sign 00041b54 f   libeay32:cms_sd.obj
 0001:0003110c       MOD_EXP_CTIME_COPY_FROM_PREBUF 0004210c f   libeay32:bn_exp.obj
 0001:00032644       dh_cb                      00043644 f   libeay32:dh_asn1.obj
 0001:000326d0       rsa_cb                     000436d0 f   libeay32:rsa_asn1.obj
 0001:00032928       do_sigver_init             00043928 f   libeay32:m_sigver.obj
 0001:000343c8       i2v_AUTHORITY_INFO_ACCESS  000453c8 f   libeay32:v3_info.obj
 0001:00034504       v2i_AUTHORITY_INFO_ACCESS  00045504 f   libeay32:v3_info.obj
 0001:00034a64       ext_cmp_BSEARCH_CMP_FN     00045a64 f   libeay32:v3_lib.obj
 0001:00034d04       ecdsa_sign_setup           00045d04 f   libeay32:ecs_ossl.obj
 0001:000350ec       ecdsa_do_sign              000460ec f   libeay32:ecs_ossl.obj
 0001:000354d4       ecdsa_do_verify            000464d4 f   libeay32:ecs_ossl.obj
 0001:000359f8       bn_new                     000469f8 f   libeay32:x_bignum.obj
 0001:00035a20       bn_free                    00046a20 f   libeay32:x_bignum.obj
 0001:00035a5c       bn_i2c                     00046a5c f   libeay32:x_bignum.obj
 0001:00035acc       bn_c2i                     00046acc f   libeay32:x_bignum.obj
 0001:00035b44       long_new                   00046b44 f   libeay32:x_long.obj
 0001:00035b58       long_free                  00046b58 f   libeay32:x_long.obj
 0001:00035b64       long_i2c                   00046b64 f   libeay32:x_long.obj
 0001:00035c1c       long_c2i                   00046c1c f   libeay32:x_long.obj
 0001:00035d10       long_print                 00046d10 f   libeay32:x_long.obj
 0001:00035de8       dsa_do_sign                00046de8 f   libeay32:dsa_ossl.obj
 0001:00036038       dsa_sign_setup             00047038 f   libeay32:dsa_ossl.obj
 0001:000362d4       dsa_do_verify              000472d4 f   libeay32:dsa_ossl.obj
 0001:000365ec       dsa_init                   000475ec f   libeay32:dsa_ossl.obj
 0001:00036604       dsa_finish                 00047604 f   libeay32:dsa_ossl.obj
 0001:000366c0       witness                    000476c0 f   libeay32:bn_prime.obj
 0001:000367cc       probable_prime_dh          000477cc f   libeay32:bn_prime.obj
 0001:000368f0       probable_prime_dh_safe     000478f0 f   libeay32:bn_prime.obj
 0001:00037894       cms_si_cb                  00048894 f   libeay32:cms_asn1.obj
 0001:000379a8       cms_ri_cb                  000489a8 f   libeay32:cms_asn1.obj
 0001:00037a78       CMS_ContentInfo_adb        00048a78 f   libeay32:cms_asn1.obj
 0001:00037a84       cms_cb                     00048a84 f   libeay32:cms_asn1.obj
 0001:0003850c       nid_cmp_BSEARCH_CMP_FN     0004950c f   libeay32:v3_purp.obj
 0001:00038578       setup_crldp                00049578 f   libeay32:v3_purp.obj
 0001:000386ac       x509v3_cache_extensions    000496ac f   libeay32:v3_purp.obj
 0001:00038b90       check_ca                   00049b90 f   libeay32:v3_purp.obj
 0001:00038bf8       check_purpose_ssl_client   00049bf8 f   libeay32:v3_purp.obj
 0001:00038c88       check_purpose_ssl_server   00049c88 f   libeay32:v3_purp.obj
 0001:00038d18       check_purpose_ns_ssl_server 00049d18 f   libeay32:v3_purp.obj
 0001:00038d58       purpose_smime              00049d58 f   libeay32:v3_purp.obj
 0001:00038de4       check_purpose_smime_sign   00049de4 f   libeay32:v3_purp.obj
 0001:00038e2c       check_purpose_smime_encrypt 00049e2c f   libeay32:v3_purp.obj
 0001:00038e74       check_purpose_crl_sign     00049e74 f   libeay32:v3_purp.obj
 0001:00038ec8       ocsp_helper                00049ec8 f   libeay32:v3_purp.obj
 0001:00038ef0       check_purpose_timestamp_sign 00049ef0 f   libeay32:v3_purp.obj
 0001:00038f8c       no_check                   00049f8c f   libeay32:v3_purp.obj
 0001:000395d4       kek_unwrap_key             0004a5d4 f   libeay32:cms_pwri.obj
 0001:00039758       kek_wrap_key               0004a758 f   libeay32:cms_pwri.obj
 0001:00039bd0       RSA_eay_public_encrypt     0004abd0 f   libeay32:rsa_eay.obj
 0001:00039f20       rsa_get_blinding           0004af20 f   libeay32:rsa_eay.obj
 0001:0003a090       rsa_blinding_convert       0004b090 f   libeay32:rsa_eay.obj
 0001:0003a118       RSA_eay_private_encrypt    0004b118 f   libeay32:rsa_eay.obj
 0001:0003a584       RSA_eay_private_decrypt    0004b584 f   libeay32:rsa_eay.obj
 0001:0003a9f4       RSA_eay_public_decrypt     0004b9f4 f   libeay32:rsa_eay.obj
 0001:0003ad6c       RSA_eay_mod_exp            0004bd6c f   libeay32:rsa_eay.obj
 0001:0003b388       RSA_eay_init               0004c388 f   libeay32:rsa_eay.obj
 0001:0003b3a0       RSA_eay_finish             0004c3a0 f   libeay32:rsa_eay.obj
 0001:0003cd7c       PKCS7_adb                  0004dd7c f   libeay32:pk7_asn1.obj
 0001:0003cd88       pk7_cb                     0004dd88 f   libeay32:pk7_asn1.obj
 0001:0003ce24       si_cb                      0004de24 f   libeay32:pk7_asn1.obj
 0001:0003ce68       ri_cb                      0004de68 f   libeay32:pk7_asn1.obj
 0001:0003cedc       x509_cb                    0004dedc f   libeay32:x_x509.obj
 0001:0003d008       crl_set_issuers            0004e008 f   libeay32:x_crl.obj
 0001:0003d194       setup_idp                  0004e194 f   libeay32:x_crl.obj
 0001:0003d298       X509_REVOKED_cmp           0004e298 f   libeay32:x_crl.obj
 0001:0003d2b8       def_crl_verify             0004e2b8 f   libeay32:x_crl.obj
 0001:0003d2ec       def_crl_lookup             0004e2ec f   libeay32:x_crl.obj
 0001:0003d478       crl_inf_cb                 0004e478 f   libeay32:x_crl.obj
 0001:0003d4b4       crl_cb                     0004e4b4 f   libeay32:x_crl.obj
 0001:0003d7e0       x509_name_ex_new           0004e7e0 f   libeay32:x_name.obj
 0001:0003d894       x509_name_ex_free          0004e894 f   libeay32:x_name.obj
 0001:0003d8ec       local_sk_X509_NAME_ENTRY_free 0004e8ec f   libeay32:x_name.obj
 0001:0003d8fc       local_sk_X509_NAME_ENTRY_pop_free 0004e8fc f   libeay32:x_name.obj
 0001:0003d914       x509_name_encode           0004e914 f   libeay32:x_name.obj
 0001:0003da7c       x509_name_ex_print         0004ea7c f   libeay32:x_name.obj
 0001:0003daa8       asn1_string_canon          0004eaa8 f   libeay32:x_name.obj
 0001:0003dc14       i2d_name_canon             0004ec14 f   libeay32:x_name.obj
 0001:0003dca0       x509_name_canon            0004eca0 f   libeay32:x_name.obj
 0001:0003de24       x509_name_ex_d2i           0004ee24 f   libeay32:x_name.obj
 0001:0003dfe0       x509_name_ex_i2d           0004efe0 f   libeay32:x_name.obj
 0001:0003ec3c       send_bio_chars             0004fc3c f   libeay32:a_strex.obj
 0001:0003ec6c       do_esc_char                0004fc6c f   libeay32:a_strex.obj
 0001:0003ee58       do_buf                     0004fe58 f   libeay32:a_strex.obj
 0001:0003f004       do_hex_dump                00050004 f   libeay32:a_strex.obj
 0001:0003f090       do_dump                    00050090 f   libeay32:a_strex.obj
 0001:0003f17c       do_print_ex                0005017c f   libeay32:a_strex.obj
 0001:0003f34c       do_indent                  0005034c f   libeay32:a_strex.obj
 0001:0003f3ac       do_name_ex                 000503ac f   libeay32:a_strex.obj
 0001:0003f99c       table_cmp_BSEARCH_CMP_FN   0005099c f   libeay32:a_strnid.obj
 0001:0003fe60       copy_issuer                00050e60 f   libeay32:v3_alt.obj
 0001:0003ff90       copy_email                 00050f90 f   libeay32:v3_alt.obj
 0001:00040124       do_othername               00051124 f   libeay32:v3_alt.obj
 0001:00040200       do_dirname                 00051200 f   libeay32:v3_alt.obj
 0001:0004075c       v2i_issuer_alt             0005175c f   libeay32:v3_alt.obj
 0001:00040880       v2i_subject_alt            00051880 f   libeay32:v3_alt.obj
 0001:00040f3c       init                       00051f3c f   libeay32:m_md5.obj
 0001:00040f50       update                     00051f50 f   libeay32:m_md5.obj
 0001:00040f64       final                      00051f64 f   libeay32:m_md5.obj
 0001:00040f80       gnames_from_sectname       00051f80 f   libeay32:v3_crld.obj
 0001:00041034       set_reasons                00052034 f   libeay32:v3_crld.obj
 0001:0004113c       print_reasons              0005213c f   libeay32:v3_crld.obj
 0001:00041214       dpn_cb                     00052214 f   libeay32:v3_crld.obj
 0001:000412d0       print_gens                 000522d0 f   libeay32:v3_crld.obj
 0001:00041358       print_distpoint            00052358 f   libeay32:v3_crld.obj
 0001:00041400       i2r_idp                    00052400 f   libeay32:v3_crld.obj
 0001:00041530       i2r_crldp                  00052530 f   libeay32:v3_crld.obj
 0001:000416c4       set_dist_point_name        000526c4 f   libeay32:v3_crld.obj
 0001:000418b0       crldp_from_section         000528b0 f   libeay32:v3_crld.obj
 0001:0004199c       v2i_crld                   0005299c f   libeay32:v3_crld.obj
 0001:00041b5c       v2i_idp                    00052b5c f   libeay32:v3_crld.obj
 0001:00041d28       s2i_asn1_int               00052d28 f   libeay32:v3_int.obj
 0001:00041d6c       i2v_POLICY_MAPPINGS        00052d6c f   libeay32:v3_pmaps.obj
 0001:00041df8       v2i_POLICY_MAPPINGS        00052df8 f   libeay32:v3_pmaps.obj
 0001:00042008       v2i_NAME_CONSTRAINTS       00053008 f   libeay32:v3_ncons.obj
 0001:000421bc       do_i2r_name_constraints    000531bc f   libeay32:v3_ncons.obj
 0001:0004236c       i2r_NAME_CONSTRAINTS       0005336c f   libeay32:v3_ncons.obj
 0001:000423c8       i2r_pci                    000533c8 f   libeay32:v3_pci.obj
 0001:000424a8       process_pci_value          000534a8 f   libeay32:v3_pci.obj
 0001:00042bd8       r2i_pci                    00053bd8 f   libeay32:v3_pci.obj
 0001:00042f20       i2r_ocsp_crlid             00053f20 f   libeay32:v3_ocsp.obj
 0001:00043058       i2r_ocsp_acutoff           00054058 f   libeay32:v3_ocsp.obj
 0001:000430b8       i2r_object                 000540b8 f   libeay32:v3_ocsp.obj
 0001:00043118       ocsp_nonce_new             00054118 f   libeay32:v3_ocsp.obj
 0001:00043128       i2d_ocsp_nonce             00054128 f   libeay32:v3_ocsp.obj
 0001:00043164       d2i_ocsp_nonce             00054164 f   libeay32:v3_ocsp.obj
 0001:00043218       ocsp_nonce_free            00054218 f   libeay32:v3_ocsp.obj
 0001:00043228       i2r_ocsp_nonce             00054228 f   libeay32:v3_ocsp.obj
 0001:0004328c       i2r_ocsp_nocheck           0005428c f   libeay32:v3_ocsp.obj
 0001:00043294       s2i_ocsp_nocheck           00054294 f   libeay32:v3_ocsp.obj
 0001:000432a4       i2r_ocsp_serviceloc        000542a4 f   libeay32:v3_ocsp.obj
 0001:000433b4       i2v_POLICY_CONSTRAINTS     000543b4 f   libeay32:v3_pcons.obj
 0001:000433f8       v2i_POLICY_CONSTRAINTS     000543f8 f   libeay32:v3_pcons.obj
 0001:00043574       i2v_EXTENDED_KEY_USAGE     00054574 f   libeay32:v3_extku.obj
 0001:000435ec       v2i_EXTENDED_KEY_USAGE     000545ec f   libeay32:v3_extku.obj
 0001:00043720       sxnet_i2r                  00054720 f   libeay32:v3_sxnet.obj
 0001:00043a74       sxnet_v2i                  00054a74 f   libeay32:v3_sxnet.obj
 0001:00043b50       i2v_AUTHORITY_KEYID        00054b50 f   libeay32:v3_akey.obj
 0001:00043c08       v2i_AUTHORITY_KEYID        00054c08 f   libeay32:v3_akey.obj
 0001:00043f18       POLICYQUALINFO_adb         00054f18 f   libeay32:v3_cpols.obj
 0001:00043f60       nref_nos                   00054f60 f   libeay32:v3_cpols.obj
 0001:0004403c       notice_section             0005503c f   libeay32:v3_cpols.obj
 0001:00044320       print_qualifiers           00055320 f   libeay32:v3_cpols.obj
 0001:00044510       policy_section             00055510 f   libeay32:v3_cpols.obj
 0001:0004487c       i2r_certpol                0005587c f   libeay32:v3_cpols.obj
 0001:00044920       r2i_certpol                00055920 f   libeay32:v3_cpols.obj
 0001:00044c0c       i2v_BASIC_CONSTRAINTS      00055c0c f   libeay32:v3_bcons.obj
 0001:00044c50       v2i_BASIC_CONSTRAINTS      00055c50 f   libeay32:v3_bcons.obj
 0001:00044da4       i2r_PKEY_USAGE_PERIOD      00055da4 f   libeay32:v3_pku.obj
 0001:000450d8       s2i_skey_id                000560d8 f   libeay32:v3_skey.obj
 0001:0004525c       i2s_ASN1_IA5STRING         0005625c f   libeay32:v3_ia5.obj
 0001:000452e4       s2i_ASN1_IA5STRING         000562e4 f   libeay32:v3_ia5.obj
 0001:00045418       nconf_get_string           00056418 f   libeay32:v3_conf.obj
 0001:00045428       nconf_get_section          00056428 f   libeay32:v3_conf.obj
 0001:00045438       conf_lhash_get_string      00056438 f   libeay32:v3_conf.obj
 0001:00045448       conf_lhash_get_section     00056448 f   libeay32:v3_conf.obj
 0001:00045458       rinf_cb                    00056458 f   libeay32:x_req.obj
 0001:00046150       md_new                     00057150 f   libeay32:bio_md.obj
 0001:00046184       md_free                    00057184 f   libeay32:bio_md.obj
 0001:000461bc       md_read                    000571bc f   libeay32:bio_md.obj
 0001:0004624c       md_write                   0005724c f   libeay32:bio_md.obj
 0001:000462fc       md_ctrl                    000572fc f   libeay32:bio_md.obj
 0001:00046448       md_callback_ctrl           00057448 f   libeay32:bio_md.obj
 0001:00046470       md_gets                    00057470 f   libeay32:bio_md.obj
 0001:0004654c       mem_new                    0005754c f   libeay32:bss_mem.obj
 0001:00046588       mem_free                   00057588 f   libeay32:bss_mem.obj
 0001:000465e4       mem_read                   000575e4 f   libeay32:bss_mem.obj
 0001:00046698       mem_write                  00057698 f   libeay32:bss_mem.obj
 0001:00046750       mem_ctrl                   00057750 f   libeay32:bss_mem.obj
 0001:00046890       mem_gets                   00057890 f   libeay32:bss_mem.obj
 0001:0004691c       mem_puts                   0005791c f   libeay32:bss_mem.obj
 0001:00046954       null_new                   00057954 f   libeay32:bss_null.obj
 0001:00046970       null_free                  00057970 f   libeay32:bss_null.obj
 0001:00046980       null_read                  00057980 f   libeay32:bss_null.obj
 0001:00046988       null_write                 00057988 f   libeay32:bss_null.obj
 0001:00046990       null_ctrl                  00057990 f   libeay32:bss_null.obj
 0001:000469d0       null_gets                  000579d0 f   libeay32:bss_null.obj
 0001:000469d8       null_puts                  000579d8 f   libeay32:bss_null.obj
 0001:00046b20       enc_new                    00057b20 f   libeay32:bio_enc.obj
 0001:00046b8c       enc_free                   00057b8c f   libeay32:bio_enc.obj
 0001:00046be0       enc_read                   00057be0 f   libeay32:bio_enc.obj
 0001:00046d80       enc_write                  00057d80 f   libeay32:bio_enc.obj
 0001:00046ec8       enc_ctrl                   00057ec8 f   libeay32:bio_enc.obj
 0001:000470c4       enc_callback_ctrl          000580c4 f   libeay32:bio_enc.obj
 0001:0004a130       PKCS7_get_octet_string     0005b130 f   libeay32:pk7_doit.obj
 0001:0004a190       PKCS7_bio_add_digest       0005b190 f   libeay32:pk7_doit.obj
 0001:0004a284       pkcs7_encode_rinfo         0005b284 f   libeay32:pk7_doit.obj
 0001:0004a844       PKCS7_find_digest          0005b844 f   libeay32:pk7_doit.obj
 0001:0004aac8       get_attribute              0005bac8 f   libeay32:pk7_doit.obj
 0001:0004ab70       add_attribute              0005bb70 f   libeay32:pk7_doit.obj
 0001:0004ac8c       do_pkcs7_signed_attrib     0005bc8c f   libeay32:pk7_doit.obj
 0001:0004bb4c       julian_to_date             0005cb4c f   libeay32:o_time.obj
 0001:0004beac       trust_compat               0005ceac f   libeay32:x509_trs.obj
 0001:0004bee0       obj_trust                  0005cee0 f   libeay32:x509_trs.obj
 0001:0004bfb0       trust_1oidany              0005cfb0 f   libeay32:x509_trs.obj
 0001:0004c01c       trust_1oid                 0005d01c f   libeay32:x509_trs.obj
 0001:0004c5a4       traverse_string            0005d5a4 f   libeay32:a_mbstr.obj
 0001:0004c6a4       in_utf8                    0005d6a4 f   libeay32:a_mbstr.obj
 0001:0004c6b8       out_utf8                   0005d6b8 f   libeay32:a_mbstr.obj
 0001:0004c6ec       cpy_asc                    0005d6ec f   libeay32:a_mbstr.obj
 0001:0004c70c       cpy_bmp                    0005d70c f   libeay32:a_mbstr.obj
 0001:0004c73c       cpy_univ                   0005d73c f   libeay32:a_mbstr.obj
 0001:0004c77c       cpy_utf8                   0005d77c f   libeay32:a_mbstr.obj
 0001:0004c7b0       type_str                   0005d7b0 f   libeay32:a_mbstr.obj
 0001:0004cd94       parse_tagging              0005dd94 f   libeay32:asn1_gen.obj
 0001:0004ced4       append_exp                 0005ded4 f   libeay32:asn1_gen.obj
 0001:0004cfb0       bitstr_cb                  0005dfb0 f   libeay32:asn1_gen.obj
 0001:0004d07c       asn1_cb                    0005e07c f   libeay32:asn1_gen.obj
 0001:0004d4c4       asn1_str2type              0005e4c4 f   libeay32:asn1_gen.obj
 0001:0004dce0       asn1_multi                 0005ece0 f   libeay32:asn1_gen.obj
 0001:0004de40       def_create                 0005ee40 f   libeay32:conf_def.obj
 0001:0004de94       def_init_default           0005ee94 f   libeay32:conf_def.obj
 0001:0004debc       def_init_WIN32             0005eebc f   libeay32:conf_def.obj
 0001:0004dee4       def_destroy_data           0005eee4 f   libeay32:conf_def.obj
 0001:0004df08       str_copy                   0005ef08 f   libeay32:conf_def.obj
 0001:0004e2b4       dump_value_LHASH_DOALL_ARG 0005f2b4 f   libeay32:conf_def.obj
 0001:0004e308       def_dump                   0005f308 f   libeay32:conf_def.obj
 0001:0004e32c       def_is_number              0005f32c f   libeay32:conf_def.obj
 0001:0004e344       def_to_int                 0005f344 f   libeay32:conf_def.obj
 0001:0004e34c       def_destroy                0005f34c f   libeay32:conf_def.obj
 0001:0004e380       clear_comments             0005f380 f   libeay32:conf_def.obj
 0001:0004e4cc       def_load_bio               0005f4cc f   libeay32:conf_def.obj
 0001:0004ed04       def_load                   0005fd04 f   libeay32:conf_def.obj
 0001:0004ef4c       conf_value_LHASH_HASH      0005ff4c f   libeay32:conf_api.obj
 0001:0004ef74       conf_value_LHASH_COMP      0005ff74 f   libeay32:conf_api.obj
 0001:0004f118       value_free_hash_LHASH_DOALL_ARG 00060118 f   libeay32:conf_api.obj
 0001:0004f13c       value_free_stack_LHASH_DOALL 0006013c f   libeay32:conf_api.obj
 0001:00050f70       LoadLibraryA               00061f70 f   libeay32:dso_win32.obj
 0001:00051010       win32_load                 00062010 f   libeay32:dso_win32.obj
 0001:0005114c       win32_unload               0006214c f   libeay32:dso_win32.obj
 0001:00051220       win32_bind_var             00062220 f   libeay32:dso_win32.obj
 0001:00051334       win32_bind_func            00062334 f   libeay32:dso_win32.obj
 0001:00051448       win32_splitter             00062448 f   libeay32:dso_win32.obj
 0001:0005167c       win32_name_converter       0006267c f   libeay32:dso_win32.obj
 0001:00051764       win32_pathbyaddr           00062764 f   libeay32:dso_win32.obj
 0001:0005198c       win32_globallookup         0006298c f   libeay32:dso_win32.obj
 0001:00051b24       win32_joiner               00062b24 f   libeay32:dso_win32.obj
 0001:00051e5c       win32_merger               00062e5c f   libeay32:dso_win32.obj
 0001:000526b4       asn1_bio_free              000636b4 f   libeay32:bio_asn1.obj
 0001:00052704       asn1_bio_flush_ex          00063704 f   libeay32:bio_asn1.obj
 0001:000527a8       asn1_bio_read              000637a8 f   libeay32:bio_asn1.obj
 0001:000527d0       asn1_bio_gets              000637d0 f   libeay32:bio_asn1.obj
 0001:000527f8       asn1_bio_callback_ctrl     000637f8 f   libeay32:bio_asn1.obj
 0001:00052820       asn1_bio_ctrl              00063820 f   libeay32:bio_asn1.obj
 0001:000529c8       asn1_bio_new               000639c8 f   libeay32:bio_asn1.obj
 0001:00052a64       asn1_bio_write             00063a64 f   libeay32:bio_asn1.obj
 0001:00052c98       asn1_bio_puts              00063c98 f   libeay32:bio_asn1.obj
 0001:00052cc4       b64_new                    00063cc4 f   libeay32:bio_b64.obj
 0001:00052d34       b64_free                   00063d34 f   libeay32:bio_b64.obj
 0001:00052d6c       b64_read                   00063d6c f   libeay32:bio_b64.obj
 0001:00053210       b64_write                  00064210 f   libeay32:bio_b64.obj
 0001:00053650       b64_ctrl                   00064650 f   libeay32:bio_b64.obj
 0001:00053868       b64_callback_ctrl          00064868 f   libeay32:bio_b64.obj
 0001:00053890       b64_puts                   00064890 f   libeay32:bio_b64.obj
 0001:000538bc       buffer_new                 000648bc f   libeay32:bf_buff.obj
 0001:00053970       buffer_free                00064970 f   libeay32:bf_buff.obj
 0001:000539cc       buffer_read                000649cc f   libeay32:bf_buff.obj
 0001:00053b0c       buffer_write               00064b0c f   libeay32:bf_buff.obj
 0001:00053ccc       buffer_ctrl                00064ccc f   libeay32:bf_buff.obj
 0001:000540a4       buffer_callback_ctrl       000650a4 f   libeay32:bf_buff.obj
 0001:000540cc       buffer_gets                000650cc f   libeay32:bf_buff.obj
 0001:000541d4       buffer_puts                000651d4 f   libeay32:bf_buff.obj
 0001:0005420c       PKCS12_BAGS_adb            0006520c f   libeay32:p12_asn.obj
 0001:00054224       PKCS12_SAFEBAG_adb         00065224 f   libeay32:p12_asn.obj
 0001:000542e0       write_string               000652e0 f   libeay32:ui_openssl.obj
 0001:00054328       open_console               00065328 f   libeay32:ui_openssl.obj
 0001:000543b4       close_console              000653b4 f   libeay32:ui_openssl.obj
 0001:00054418       read_string                00065418 f   libeay32:ui_openssl.obj
 0001:00054528       cmp64                      00065528 f   wcecompatex:time.obj
 0001:00054574       topBit                     00065574 f   wcecompatex:time.obj
 0001:00054700       div64                      00065700 f   wcecompatex:time.obj
 0001:0005529c       doexit                     0006629c f   corelibc:crt0dat.obj
 0001:00055470       ?getCmdLineArg@@YA?AW4ArgType@@PAPA_WPA_WHPAURedirArg@@PA_N@Z 00066470 f   wcecompatex:args.obj
 0001:0005579c       ?qsort_stricmp@@YAHPBX0@Z  0006679c f   wcecompatex:args.obj
