 ectest

 Timestamp is 511c9ae9 (Thu Feb 14 17:06:01 2013)

 Preferred load address is 00010000

 Start         Length     Name                   Class
 0001:00000000 0005f1c4H .text                   CODE
 0002:00000000 0002e6d5H .rdata                  DATA
 0002:0002e6d8 00000014H .xdata                  DATA
 0002:0002e6ec 00000014H .idata$2                DATA
 0002:0002e700 00000014H .idata$3                DATA
 0002:0002e714 00000150H .idata$4                DATA
 0002:0002e864 0000000cH .idata$6                DATA
 0002:0002e870 00000000H .edata                  DATA
 0003:00000000 00000150H .idata$5                DATA
 0003:00000150 00000004H .CRT$XCA                DATA
 0003:00000154 00000004H .CRT$XCZ                DATA
 0003:00000158 00000004H .CRT$XIA                DATA
 0003:0000015c 00000004H .CRT$XIZ                DATA
 0003:00000160 00000004H .CRT$XPA                DATA
 0003:00000164 00000004H .CRT$XPZ                DATA
 0003:00000168 00000004H .CRT$XTA                DATA
 0003:0000016c 00000004H .CRT$XTZ                DATA
 0003:00000170 00004b48H .data                   DATA
 0003:00004cc0 00002021H .bss                    DATA
 0004:00000000 00003758H .pdata                  DATA

  Address         Publics by Value              Rva+Base     Lib:Object

 0000:00000000       ___safe_se_handler_count   00000000     <absolute>
 0000:00000000       ___safe_se_handler_table   00000000     <absolute>
 0001:0000907c       main                       0001a07c f   ectest.obj
 0001:0000924c       BN_CTX_new                 0001a24c f   libeay32:bn_ctx.obj
 0001:000092d4       BN_CTX_free                0001a2d4 f   libeay32:bn_ctx.obj
 0001:00009350       BN_CTX_start               0001a350 f   libeay32:bn_ctx.obj
 0001:00009440       BN_CTX_end                 0001a440 f   libeay32:bn_ctx.obj
 0001:000094d0       BN_CTX_get                 0001a4d0 f   libeay32:bn_ctx.obj
 0001:0000955c       BN_value_one               0001a55c f   libeay32:bn_lib.obj
 0001:00009568       BN_num_bits_word           0001a568 f   libeay32:bn_lib.obj
 0001:000095ac       BN_num_bits                0001a5ac f   libeay32:bn_lib.obj
 0001:000095e0       BN_clear_free              0001a5e0 f   libeay32:bn_lib.obj
 0001:00009638       BN_free                    0001a638 f   libeay32:bn_lib.obj
 0001:00009690       BN_init                    0001a690 f   libeay32:bn_lib.obj
 0001:000096a8       BN_new                     0001a6a8 f   libeay32:bn_lib.obj
 0001:0000986c       bn_expand2                 0001a86c f   libeay32:bn_lib.obj
 0001:000098b8       BN_copy                    0001a8b8 f   libeay32:bn_lib.obj
 0001:00009980       BN_set_word                0001a980 f   libeay32:bn_lib.obj
 0001:000099d8       BN_bin2bn                  0001a9d8 f   libeay32:bn_lib.obj
 0001:00009ad4       BN_bn2bin                  0001aad4 f   libeay32:bn_lib.obj
 0001:00009b30       BN_ucmp                    0001ab30 f   libeay32:bn_lib.obj
 0001:00009b9c       BN_cmp                     0001ab9c f   libeay32:bn_lib.obj
 0001:00009c64       BN_set_bit                 0001ac64 f   libeay32:bn_lib.obj
 0001:00009d00       BN_is_bit_set              0001ad00 f   libeay32:bn_lib.obj
 0001:00009d40       BN_mask_bits               0001ad40 f   libeay32:bn_lib.obj
 0001:00009dd8       BN_set_negative            0001add8 f   libeay32:bn_lib.obj
 0001:00009df8       BN_dup                     0001adf8 f   libeay32:bn_lib.obj
 0001:00009e3c       EC_GROUP_new               0001ae3c f   libeay32:ec_lib.obj
 0001:00009f3c       EC_GROUP_method_of         0001af3c f   libeay32:ec_lib.obj
 0001:00009f44       EC_METHOD_get_field_type   0001af44 f   libeay32:ec_lib.obj
 0001:00009f4c       EC_GROUP_get0_generator    0001af4c f   libeay32:ec_lib.obj
 0001:00009f54       EC_GROUP_get_order         0001af54 f   libeay32:ec_lib.obj
 0001:00009f88       EC_GROUP_get_cofactor      0001af88 f   libeay32:ec_lib.obj
 0001:00009fc0       EC_GROUP_set_curve_name    0001afc0 f   libeay32:ec_lib.obj
 0001:00009fc8       EC_GROUP_get_curve_name    0001afc8 f   libeay32:ec_lib.obj
 0001:00009fd0       EC_GROUP_set_asn1_flag     0001afd0 f   libeay32:ec_lib.obj
 0001:00009fd8       EC_GROUP_get_asn1_flag     0001afd8 f   libeay32:ec_lib.obj
 0001:00009fe0       EC_GROUP_set_point_conversion_form 0001afe0 f   libeay32:ec_lib.obj
 0001:00009fe8       EC_GROUP_get_point_conversion_form 0001afe8 f   libeay32:ec_lib.obj
 0001:00009ff0       EC_GROUP_set_seed          0001aff0 f   libeay32:ec_lib.obj
 0001:0000a07c       EC_GROUP_get0_seed         0001b07c f   libeay32:ec_lib.obj
 0001:0000a084       EC_GROUP_get_seed_len      0001b084 f   libeay32:ec_lib.obj
 0001:0000a08c       EC_GROUP_set_curve_GFp     0001b08c f   libeay32:ec_lib.obj
 0001:0000a0f4       EC_GROUP_get_curve_GFp     0001b0f4 f   libeay32:ec_lib.obj
 0001:0000a15c       EC_GROUP_set_curve_GF2m    0001b15c f   libeay32:ec_lib.obj
 0001:0000a1c4       EC_GROUP_get_curve_GF2m    0001b1c4 f   libeay32:ec_lib.obj
 0001:0000a228       EC_GROUP_get_degree        0001b228 f   libeay32:ec_lib.obj
 0001:0000a280       EC_GROUP_check_discriminant 0001b280 f   libeay32:ec_lib.obj
 0001:0000a2d8       EC_EX_DATA_set_data        0001b2d8 f   libeay32:ec_lib.obj
 0001:0000a3b4       EC_EX_DATA_get_data        0001b3b4 f   libeay32:ec_lib.obj
 0001:0000a408       EC_EX_DATA_free_data       0001b408 f   libeay32:ec_lib.obj
 0001:0000a490       EC_EX_DATA_free_all_data   0001b490 f   libeay32:ec_lib.obj
 0001:0000a4e0       EC_EX_DATA_clear_free_all_data 0001b4e0 f   libeay32:ec_lib.obj
 0001:0000a530       EC_POINT_new               0001b530 f   libeay32:ec_lib.obj
 0001:0000a610       EC_POINT_free              0001b610 f   libeay32:ec_lib.obj
 0001:0000a644       EC_POINT_clear_free        0001b644 f   libeay32:ec_lib.obj
 0001:0000a6a0       EC_POINT_copy              0001b6a0 f   libeay32:ec_lib.obj
 0001:0000a734       EC_POINT_dup               0001b734 f   libeay32:ec_lib.obj
 0001:0000a77c       EC_POINT_set_to_infinity   0001b77c f   libeay32:ec_lib.obj
 0001:0000a808       EC_POINT_set_Jprojective_coordinates_GFp 0001b808 f   libeay32:ec_lib.obj
 0001:0000a8bc       EC_POINT_get_Jprojective_coordinates_GFp 0001b8bc f   libeay32:ec_lib.obj
 0001:0000a96c       EC_POINT_set_affine_coordinates_GFp 0001b96c f   libeay32:ec_lib.obj
 0001:0000aa0c       EC_POINT_set_affine_coordinates_GF2m 0001ba0c f   libeay32:ec_lib.obj
 0001:0000aab0       EC_POINT_get_affine_coordinates_GFp 0001bab0 f   libeay32:ec_lib.obj
 0001:0000ab54       EC_POINT_get_affine_coordinates_GF2m 0001bb54 f   libeay32:ec_lib.obj
 0001:0000abf4       EC_POINT_add               0001bbf4 f   libeay32:ec_lib.obj
 0001:0000acb0       EC_POINT_dbl               0001bcb0 f   libeay32:ec_lib.obj
 0001:0000ad50       EC_POINT_invert            0001bd50 f   libeay32:ec_lib.obj
 0001:0000addc       EC_POINT_is_at_infinity    0001bddc f   libeay32:ec_lib.obj
 0001:0000ae64       EC_POINT_is_on_curve       0001be64 f   libeay32:ec_lib.obj
 0001:0000aeec       EC_POINT_cmp               0001beec f   libeay32:ec_lib.obj
 0001:0000af8c       EC_POINT_make_affine       0001bf8c f   libeay32:ec_lib.obj
 0001:0000b014       EC_POINTs_make_affine      0001c014 f   libeay32:ec_lib.obj
 0001:0000b0dc       EC_POINTs_mul              0001c0dc f   libeay32:ec_lib.obj
 0001:0000b158       EC_POINT_mul               0001c158 f   libeay32:ec_lib.obj
 0001:0000b1ac       EC_GROUP_precompute_mult   0001c1ac f   libeay32:ec_lib.obj
 0001:0000b1f4       EC_GROUP_have_precompute_mult 0001c1f4 f   libeay32:ec_lib.obj
 0001:0000b23c       EC_GROUP_free              0001c23c f   libeay32:ec_lib.obj
 0001:0000b2a8       EC_GROUP_clear_free        0001c2a8 f   libeay32:ec_lib.obj
 0001:0000b34c       EC_GROUP_copy              0001c34c f   libeay32:ec_lib.obj
 0001:0000b560       EC_GROUP_dup               0001c560 f   libeay32:ec_lib.obj
 0001:0000b5a8       EC_GROUP_set_generator     0001c5a8 f   libeay32:ec_lib.obj
 0001:0000b688       EC_GROUP_cmp               0001c688 f   libeay32:ec_lib.obj
 0001:0000b8f4       bn_mul_normal              0001c8f4 f   libeay32:bn_mul.obj
 0001:0000ba04       BN_mul                     0001ca04 f   libeay32:bn_mul.obj
 0001:0000bb24       BN_uadd                    0001cb24 f   libeay32:bn_add.obj
 0001:0000bc20       BN_usub                    0001cc20 f   libeay32:bn_add.obj
 0001:0000bdc8       BN_sub                     0001cdc8 f   libeay32:bn_add.obj
 0001:0000bec0       BN_add                     0001cec0 f   libeay32:bn_add.obj
 0001:0000bf74       ERR_print_errors_cb        0001cf74 f   libeay32:err_prn.obj
 0001:0000c0b8       ERR_print_errors_fp        0001d0b8 f   libeay32:err_prn.obj
 0001:0000c2dc       BN_rand                    0001d2dc f   libeay32:bn_rand.obj
 0001:0000c30c       BN_pseudo_rand             0001d30c f   libeay32:bn_rand.obj
 0001:0000c524       BN_rand_range              0001d524 f   libeay32:bn_rand.obj
 0001:0000c540       BN_pseudo_rand_range       0001d540 f   libeay32:bn_rand.obj
 0001:0000c55c       BN_lshift1                 0001d55c f   libeay32:bn_shift.obj
 0001:0000c630       BN_rshift1                 0001d630 f   libeay32:bn_shift.obj
 0001:0000c70c       BN_lshift                  0001d70c f   libeay32:bn_shift.obj
 0001:0000c838       BN_rshift                  0001d838 f   libeay32:bn_shift.obj
 0001:0000c950       BN_GENCB_call              0001d950 f   libeay32:bn_prime.obj
 0001:0000cdb4       BN_is_prime_fasttest_ex    0001ddb4 f   libeay32:bn_prime.obj
 0001:0000d1a8       BN_generate_prime_ex       0001e1a8 f   libeay32:bn_prime.obj
 0001:0000d510       BN_is_prime_ex             0001e510 f   libeay32:bn_prime.obj
 0001:0000d534       EC_POINT_set_compressed_coordinates_GFp 0001e534 f   libeay32:ec_oct.obj
 0001:0000d62c       EC_POINT_set_compressed_coordinates_GF2m 0001e62c f   libeay32:ec_oct.obj
 0001:0000d724       EC_POINT_point2oct         0001e724 f   libeay32:ec_oct.obj
 0001:0000d834       EC_POINT_oct2point         0001e834 f   libeay32:ec_oct.obj
 0001:0000d92c       BN_bn2dec                  0001e92c f   libeay32:bn_print.obj
 0001:0000db18       BN_hex2bn                  0001eb18 f   libeay32:bn_print.obj
 0001:0000dca8       BN_dec2bn                  0001eca8 f   libeay32:bn_print.obj
 0001:0000de3c       BN_asc2bn                  0001ee3c f   libeay32:bn_print.obj
 0001:0000debc       BN_print                   0001eebc f   libeay32:bn_print.obj
 0001:0000df90       BN_print_fp                0001ef90 f   libeay32:bn_print.obj
 0001:0000dfe8       ec_GFp_mont_group_init     0001efe8 f   libeay32:ecp_mont.obj
 0001:0000e008       ec_GFp_mont_group_finish   0001f008 f   libeay32:ecp_mont.obj
 0001:0000e054       ec_GFp_mont_group_clear_finish 0001f054 f   libeay32:ecp_mont.obj
 0001:0000e0a0       ec_GFp_mont_group_copy     0001f0a0 f   libeay32:ecp_mont.obj
 0001:0000e170       ec_GFp_mont_group_set_curve 0001f170 f   libeay32:ecp_mont.obj
 0001:0000e2d0       ec_GFp_mont_field_mul      0001f2d0 f   libeay32:ecp_mont.obj
 0001:0000e340       ec_GFp_mont_field_sqr      0001f340 f   libeay32:ecp_mont.obj
 0001:0000e3ac       ec_GFp_mont_field_encode   0001f3ac f   libeay32:ecp_mont.obj
 0001:0000e41c       ec_GFp_mont_field_decode   0001f41c f   libeay32:ecp_mont.obj
 0001:0000e47c       ec_GFp_mont_field_set_to_one 0001f47c f   libeay32:ecp_mont.obj
 0001:0000e4e0       EC_GFp_mont_method         0001f4e0 f   libeay32:ecp_mont.obj
 0001:0000e4ec       ec_GF2m_simple_group_init  0001f4ec f   libeay32:ec2_smpl.obj
 0001:0000e518       ec_GF2m_simple_group_finish 0001f518 f   libeay32:ec2_smpl.obj
 0001:0000e540       ec_GF2m_simple_group_clear_finish 0001f540 f   libeay32:ec2_smpl.obj
 0001:0000e588       ec_GF2m_simple_group_copy  0001f588 f   libeay32:ec2_smpl.obj
 0001:0000e6d4       ec_GF2m_simple_group_set_curve 0001f6d4 f   libeay32:ec2_smpl.obj
 0001:0000e844       ec_GF2m_simple_group_get_curve 0001f844 f   libeay32:ec2_smpl.obj
 0001:0000e8c0       ec_GF2m_simple_group_get_degree 0001f8c0 f   libeay32:ec2_smpl.obj
 0001:0000e8d8       ec_GF2m_simple_group_check_discriminant 0001f8d8 f   libeay32:ec2_smpl.obj
 0001:0000e98c       ec_GF2m_simple_point_init  0001f98c f   libeay32:ec2_smpl.obj
 0001:0000e9b8       ec_GF2m_simple_point_finish 0001f9b8 f   libeay32:ec2_smpl.obj
 0001:0000e9e0       ec_GF2m_simple_point_clear_finish 0001f9e0 f   libeay32:ec2_smpl.obj
 0001:0000ea10       ec_GF2m_simple_point_copy  0001fa10 f   libeay32:ec2_smpl.obj
 0001:0000ea78       ec_GF2m_simple_point_set_to_infinity 0001fa78 f   libeay32:ec2_smpl.obj
 0001:0000eaa0       ec_GF2m_simple_point_set_affine_coordinates 0001faa0 f   libeay32:ec2_smpl.obj
 0001:0000eb6c       ec_GF2m_simple_point_get_affine_coordinates 0001fb6c f   libeay32:ec2_smpl.obj
 0001:0000ec5c       ec_GF2m_simple_add         0001fc5c f   libeay32:ec2_smpl.obj
 0001:0000f060       ec_GF2m_simple_dbl         00020060 f   libeay32:ec2_smpl.obj
 0001:0000f084       ec_GF2m_simple_invert      00020084 f   libeay32:ec2_smpl.obj
 0001:0000f0f0       ec_GF2m_simple_is_at_infinity 000200f0 f   libeay32:ec2_smpl.obj
 0001:0000f104       ec_GF2m_simple_is_on_curve 00020104 f   libeay32:ec2_smpl.obj
 0001:0000f294       ec_GF2m_simple_cmp         00020294 f   libeay32:ec2_smpl.obj
 0001:0000f420       ec_GF2m_simple_make_affine 00020420 f   libeay32:ec2_smpl.obj
 0001:0000f524       ec_GF2m_simple_points_make_affine 00020524 f   libeay32:ec2_smpl.obj
 0001:0000f58c       ec_GF2m_simple_field_mul   0002058c f   libeay32:ec2_smpl.obj
 0001:0000f5c8       ec_GF2m_simple_field_sqr   000205c8 f   libeay32:ec2_smpl.obj
 0001:0000f5ec       ec_GF2m_simple_field_div   000205ec f   libeay32:ec2_smpl.obj
 0001:0000f628       EC_GF2m_simple_method      00020628 f   libeay32:ec2_smpl.obj
 0001:0000f694       CRYPTO_set_mem_debug_functions 00020694 f   libeay32:mem.obj
 0001:0000f6e4       CRYPTO_free_locked         000206e4 f   libeay32:mem.obj
 0001:0000f740       CRYPTO_malloc              00020740 f   libeay32:mem.obj
 0001:0000f820       CRYPTO_realloc             00020820 f   libeay32:mem.obj
 0001:0000f908       CRYPTO_realloc_clean       00020908 f   libeay32:mem.obj
 0001:0000fa2c       CRYPTO_free                00020a2c f   libeay32:mem.obj
 0001:0000fa88       CRYPTO_set_mem_debug_options 00020a88 f   libeay32:mem.obj
 0001:0000faac       EC_GROUP_check             00020aac f   libeay32:ec_check.obj
 0001:0000fcf4       OBJ_nid2obj                00020cf4 f   libeay32:obj_dat.obj
 0001:0000fdd4       OBJ_nid2sn                 00020dd4 f   libeay32:obj_dat.obj
 0001:0000feb8       OBJ_nid2ln                 00020eb8 f   libeay32:obj_dat.obj
 0001:0000ffe0       OBJ_bsearch_ex_            00020fe0 f   libeay32:obj_dat.obj
 0001:000100c4       OBJ_bsearch_               000210c4 f   libeay32:obj_dat.obj
 0001:000100ec       OBJ_obj2nid                000210ec f   libeay32:obj_dat.obj
 0001:000101b4       OBJ_obj2txt                000211b4 f   libeay32:obj_dat.obj
 0001:000104b4       OBJ_ln2nid                 000214b4 f   libeay32:obj_dat.obj
 0001:00010564       OBJ_sn2nid                 00021564 f   libeay32:obj_dat.obj
 0001:00010614       OBJ_txt2obj                00021614 f   libeay32:obj_dat.obj
 0001:00010b38       EC_GROUP_new_by_curve_name 00021b38 f   libeay32:ec_curve.obj
 0001:00010be4       EC_get_builtin_curves      00021be4 f   libeay32:ec_curve.obj
 0001:00010c70       CRYPTO_mem_ctrl            00021c70 f   libeay32:mem_dbg.obj
 0001:00010de4       CRYPTO_is_mem_check_on     00021de4 f   libeay32:mem_dbg.obj
 0001:00010e78       CRYPTO_dbg_set_options     00021e78 f   libeay32:mem_dbg.obj
 0001:00010e88       CRYPTO_dbg_get_options     00021e88 f   libeay32:mem_dbg.obj
 0001:00010fc4       CRYPTO_push_info_          00021fc4 f   libeay32:mem_dbg.obj
 0001:00011094       CRYPTO_pop_info            00022094 f   libeay32:mem_dbg.obj
 0001:000110d4       CRYPTO_dbg_malloc          000220d4 f   libeay32:mem_dbg.obj
 0001:0001126c       CRYPTO_dbg_free            0002226c f   libeay32:mem_dbg.obj
 0001:0001131c       CRYPTO_dbg_realloc         0002231c f   libeay32:mem_dbg.obj
 0001:00011614       CRYPTO_mem_leaks           00022614 f   libeay32:mem_dbg.obj
 0001:00011730       CRYPTO_mem_leaks_fp        00022730 f   libeay32:mem_dbg.obj
 0001:00011e80       ERR_free_strings           00022e80 f   libeay32:err.obj
 0001:00011ea8       ERR_lib_error_string       00022ea8 f   libeay32:err.obj
 0001:00011ef8       ERR_func_error_string      00022ef8 f   libeay32:err.obj
 0001:00011f54       ERR_reason_error_string    00022f54 f   libeay32:err.obj
 0001:00011fd8       ERR_remove_thread_state    00022fd8 f   libeay32:err.obj
 0001:0001202c       ERR_get_state              0002302c f   libeay32:err.obj
 0001:0001212c       ERR_set_error_data         0002312c f   libeay32:err.obj
 0001:00012180       ERR_add_error_vdata        00023180 f   libeay32:err.obj
 0001:00012254       ERR_set_mark               00023254 f   libeay32:err.obj
 0001:00012294       ERR_pop_to_mark            00023294 f   libeay32:err.obj
 0001:00012464       ERR_load_ERR_strings       00023464 f   libeay32:err.obj
 0001:000125f4       ERR_load_strings           000235f4 f   libeay32:err.obj
 0001:00012618       ERR_put_error              00023618 f   libeay32:err.obj
 0001:0001270c       ERR_clear_error            0002370c f   libeay32:err.obj
 0001:000128d4       ERR_error_string_n         000238d4 f   libeay32:err.obj
 0001:00012a14       ERR_add_error_data         00023a14 f   libeay32:err.obj
 0001:00012a34       ERR_get_error_line_data    00023a34 f   libeay32:err.obj
 0001:00012a6c       ERR_peek_last_error        00023a6c f   libeay32:err.obj
 0001:00012ee0       CRYPTO_cleanup_all_ex_data 00023ee0 f   libeay32:ex_data.obj
 0001:00012f14       CRYPTO_new_ex_data         00023f14 f   libeay32:ex_data.obj
 0001:00012f60       CRYPTO_free_ex_data        00023f60 f   libeay32:ex_data.obj
 0001:00012fac       CRYPTO_set_ex_data         00023fac f   libeay32:ex_data.obj
 0001:00013080       CRYPTO_get_ex_data         00024080 f   libeay32:ex_data.obj
 0001:00013570       engine_free_util           00024570 f   libeay32:eng_lib.obj
 0001:00013630       ENGINE_free                00024630 f   libeay32:eng_lib.obj
 0001:00013668       ENGINE_cleanup             00024668 f   libeay32:eng_lib.obj
 0001:000136a4       RAND_set_rand_method       000246a4 f   libeay32:rand_lib.obj
 0001:000136dc       RAND_get_rand_method       000246dc f   libeay32:rand_lib.obj
 0001:00013744       RAND_seed                  00024744 f   libeay32:rand_lib.obj
 0001:00013778       RAND_add                   00024778 f   libeay32:rand_lib.obj
 0001:000137bc       RAND_bytes                 000247bc f   libeay32:rand_lib.obj
 0001:00013804       RAND_pseudo_bytes          00024804 f   libeay32:rand_lib.obj
 0001:0001384c       RAND_status                0002484c f   libeay32:rand_lib.obj
 0001:00013884       ERR_load_crypto_strings    00024884 f   libeay32:err_all.obj
 0001:00013900       OPENSSL_cleanse            00024900 f   libeay32:mem_clr.obj
 0001:00013d6c       ec_wNAF_mul                00024d6c f   libeay32:ec_mult.obj
 0001:00014914       ec_wNAF_precompute_mult    00025914 f   libeay32:ec_mult.obj
 0001:00014e20       ec_wNAF_have_precompute_mult 00025e20 f   libeay32:ec_mult.obj
 0001:00014e5c       bn_mul_add_words           00025e5c f   libeay32:bn_asm.obj
 0001:00014eb4       bn_mul_words               00025eb4 f   libeay32:bn_asm.obj
 0001:00014f00       bn_sqr_words               00025f00 f   libeay32:bn_asm.obj
 0001:00014f2c       bn_div_words               00025f2c f   libeay32:bn_asm.obj
 0001:00014f5c       bn_add_words               00025f5c f   libeay32:bn_asm.obj
 0001:00014fb0       bn_sub_words               00025fb0 f   libeay32:bn_asm.obj
 0001:000160a8       BIO_vprintf                000270a8 f   libeay32:b_print.obj
 0001:00016170       BIO_vsnprintf              00027170 f   libeay32:b_print.obj
 0001:000161d4       BIO_printf                 000271d4 f   libeay32:b_print.obj
 0001:000161f4       BIO_snprintf               000271f4 f   libeay32:b_print.obj
 0001:00016214       CRYPTO_destroy_dynlockid   00027214 f   libeay32:cryptlib.obj
 0001:00016318       CRYPTO_get_dynlock_value   00027318 f   libeay32:cryptlib.obj
 0001:000163b4       CRYPTO_THREADID_current    000273b4 f   libeay32:cryptlib.obj
 0001:00016430       CRYPTO_THREADID_cmp        00027430 f   libeay32:cryptlib.obj
 0001:00016444       CRYPTO_THREADID_cpy        00027444 f   libeay32:cryptlib.obj
 0001:00016458       CRYPTO_THREADID_hash       00027458 f   libeay32:cryptlib.obj
 0001:00016460       OPENSSL_showfatal          00027460 f   libeay32:cryptlib.obj
 0001:000165e8       OpenSSLDie                 000275e8 f   libeay32:cryptlib.obj
 0001:0001661c       CRYPTO_memcmp              0002761c f   libeay32:cryptlib.obj
 0001:00016658       CRYPTO_lock                00027658 f   libeay32:cryptlib.obj
 0001:00016724       CRYPTO_add_lock            00027724 f   libeay32:cryptlib.obj
 0001:000167b0       BIO_set                    000277b0 f   libeay32:bio_lib.obj
 0001:00016850       BIO_free                   00027850 f   libeay32:bio_lib.obj
 0001:00016914       BIO_clear_flags            00027914 f   libeay32:bio_lib.obj
 0001:00016924       BIO_test_flags             00027924 f   libeay32:bio_lib.obj
 0001:00016930       BIO_set_flags              00027930 f   libeay32:bio_lib.obj
 0001:00016940       BIO_read                   00027940 f   libeay32:bio_lib.obj
 0001:00016a70       BIO_write                  00027a70 f   libeay32:bio_lib.obj
 0001:00016ba4       BIO_puts                   00027ba4 f   libeay32:bio_lib.obj
 0001:00016ccc       BIO_gets                   00027ccc f   libeay32:bio_lib.obj
 0001:00016df4       BIO_indent                 00027df4 f   libeay32:bio_lib.obj
 0001:00016e50       BIO_ctrl                   00027e50 f   libeay32:bio_lib.obj
 0001:00016f4c       BIO_callback_ctrl          00027f4c f   libeay32:bio_lib.obj
 0001:00017050       BIO_push                   00028050 f   libeay32:bio_lib.obj
 0001:000170a4       BIO_find_type              000280a4 f   libeay32:bio_lib.obj
 0001:000170ec       BIO_next                   000280ec f   libeay32:bio_lib.obj
 0001:000170fc       BIO_free_all               000280fc f   libeay32:bio_lib.obj
 0001:00017130       BIO_copy_next_retry        00028130 f   libeay32:bio_lib.obj
 0001:00017154       BIO_new                    00028154 f   libeay32:bio_lib.obj
 0001:000171cc       BIO_int_ctrl               000281cc f   libeay32:bio_lib.obj
 0001:000171f0       BIO_s_file                 000281f0 f   libeay32:bss_file.obj
 0001:00017674       BIO_new_file               00028674 f   libeay32:bss_file.obj
 0001:000178c4       BN_nnmod                   000288c4 f   libeay32:bn_mod.obj
 0001:00017944       BN_mod_add                 00028944 f   libeay32:bn_mod.obj
 0001:00017980       BN_mod_add_quick           00028980 f   libeay32:bn_mod.obj
 0001:000179d8       BN_mod_sub_quick           000289d8 f   libeay32:bn_mod.obj
 0001:00017a28       BN_mod_mul                 00028a28 f   libeay32:bn_mod.obj
 0001:00017ab8       BN_mod_sqr                 00028ab8 f   libeay32:bn_mod.obj
 0001:00017afc       BN_mod_lshift1_quick       00028afc f   libeay32:bn_mod.obj
 0001:00017b54       BN_mod_lshift_quick        00028b54 f   libeay32:bn_mod.obj
 0001:00017c44       BN_mod_exp_recp            00028c44 f   libeay32:bn_exp.obj
 0001:00018050       BN_mod_exp_mont_consttime  00029050 f   libeay32:bn_exp.obj
 0001:000185f4       BN_mod_exp_mont_word       000295f4 f   libeay32:bn_exp.obj
 0001:00018a14       BN_mod_exp_mont            00029a14 f   libeay32:bn_exp.obj
 0001:00018e74       BN_mod_exp                 00029e74 f   libeay32:bn_exp.obj
 0001:00018f34       BN_mod_word                00029f34 f   libeay32:bn_word.obj
 0001:00018f98       BN_div_word                00029f98 f   libeay32:bn_word.obj
 0001:00019060       BN_add_word                0002a060 f   libeay32:bn_word.obj
 0001:0001916c       BN_sub_word                0002a16c f   libeay32:bn_word.obj
 0001:00019270       BN_mul_word                0002a270 f   libeay32:bn_word.obj
 0001:000192fc       BN_div                     0002a2fc f   libeay32:bn_div.obj
 0001:00019b58       BN_from_montgomery         0002ab58 f   libeay32:bn_mont.obj
 0001:00019bc4       BN_MONT_CTX_init           0002abc4 f   libeay32:bn_mont.obj
 0001:00019bfc       BN_MONT_CTX_free           0002abfc f   libeay32:bn_mont.obj
 0001:00019c38       BN_MONT_CTX_set            0002ac38 f   libeay32:bn_mont.obj
 0001:00019e00       BN_MONT_CTX_copy           0002ae00 f   libeay32:bn_mont.obj
 0001:00019e7c       BN_mod_mul_montgomery      0002ae7c f   libeay32:bn_mont.obj
 0001:00019f08       BN_MONT_CTX_new            0002af08 f   libeay32:bn_mont.obj
 0001:00019f4c       BN_MONT_CTX_set_locked     0002af4c f   libeay32:bn_mont.obj
 0001:0001a024       ec_GF2m_simple_set_compressed_coordinates 0002b024 f   libeay32:ec2_oct.obj
 0001:0001a2b8       ec_GF2m_simple_point2oct   0002b2b8 f   libeay32:ec2_oct.obj
 0001:0001a65c       ec_GF2m_simple_oct2point   0002b65c f   libeay32:ec2_oct.obj
 0001:0001aa08       ec_GFp_simple_set_compressed_coordinates 0002ba08 f   libeay32:ecp_oct.obj
 0001:0001ae54       ec_GFp_simple_point2oct    0002be54 f   libeay32:ecp_oct.obj
 0001:0001b1c4       ec_GFp_simple_oct2point    0002c1c4 f   libeay32:ecp_oct.obj
 0001:0001b534       ec_GFp_simple_group_init   0002c534 f   libeay32:ecp_smpl.obj
 0001:0001b568       ec_GFp_simple_group_finish 0002c568 f   libeay32:ecp_smpl.obj
 0001:0001b590       ec_GFp_simple_group_clear_finish 0002c590 f   libeay32:ecp_smpl.obj
 0001:0001b5b8       ec_GFp_simple_group_copy   0002c5b8 f   libeay32:ecp_smpl.obj
 0001:0001b620       ec_GFp_simple_group_set_curve 0002c620 f   libeay32:ecp_smpl.obj
 0001:0001b7ec       ec_GFp_simple_group_get_curve 0002c7ec f   libeay32:ecp_smpl.obj
 0001:0001b91c       ec_GFp_simple_group_get_degree 0002c91c f   libeay32:ecp_smpl.obj
 0001:0001b930       ec_GFp_simple_group_check_discriminant 0002c930 f   libeay32:ecp_smpl.obj
 0001:0001bb54       ec_GFp_simple_point_init   0002cb54 f   libeay32:ecp_smpl.obj
 0001:0001bb88       ec_GFp_simple_point_finish 0002cb88 f   libeay32:ecp_smpl.obj
 0001:0001bbb0       ec_GFp_simple_point_clear_finish 0002cbb0 f   libeay32:ecp_smpl.obj
 0001:0001bbe0       ec_GFp_simple_point_copy   0002cbe0 f   libeay32:ecp_smpl.obj
 0001:0001bc48       ec_GFp_simple_point_set_to_infinity 0002cc48 f   libeay32:ecp_smpl.obj
 0001:0001bc70       ec_GFp_simple_set_Jprojective_coordinates_GFp 0002cc70 f   libeay32:ecp_smpl.obj
 0001:0001be20       ec_GFp_simple_get_Jprojective_coordinates_GFp 0002ce20 f   libeay32:ecp_smpl.obj
 0001:0001bf70       ec_GFp_simple_point_set_affine_coordinates 0002cf70 f   libeay32:ecp_smpl.obj
 0001:0001bff0       ec_GFp_simple_point_get_affine_coordinates 0002cff0 f   libeay32:ecp_smpl.obj
 0001:0001c32c       ec_GFp_simple_add          0002d32c f   libeay32:ecp_smpl.obj
 0001:0001c93c       ec_GFp_simple_dbl          0002d93c f   libeay32:ecp_smpl.obj
 0001:0001ce14       ec_GFp_simple_invert       0002de14 f   libeay32:ecp_smpl.obj
 0001:0001ce5c       ec_GFp_simple_is_at_infinity 0002de5c f   libeay32:ecp_smpl.obj
 0001:0001ce70       ec_GFp_simple_is_on_curve  0002de70 f   libeay32:ecp_smpl.obj
 0001:0001d1b0       ec_GFp_simple_cmp          0002e1b0 f   libeay32:ecp_smpl.obj
 0001:0001d494       ec_GFp_simple_make_affine  0002e494 f   libeay32:ecp_smpl.obj
 0001:0001d5b0       ec_GFp_simple_points_make_affine 0002e5b0 f   libeay32:ecp_smpl.obj
 0001:0001dab0       ec_GFp_simple_field_mul    0002eab0 f   libeay32:ecp_smpl.obj
 0001:0001daec       ec_GFp_simple_field_sqr    0002eaec f   libeay32:ecp_smpl.obj
 0001:0001e490       ec_GF2m_simple_mul         0002f490 f   libeay32:ec2_mult.obj
 0001:0001e70c       ec_GF2m_precompute_mult    0002f70c f   libeay32:ec2_mult.obj
 0001:0001e71c       ec_GF2m_have_precompute_mult 0002f71c f   libeay32:ec2_mult.obj
 0001:0001e8c4       BN_GF2m_add                0002f8c4 f   libeay32:bn_gf2m.obj
 0001:0001e9b8       BN_GF2m_mod_arr            0002f9b8 f   libeay32:bn_gf2m.obj
 0001:0001ec30       BN_GF2m_mod_sqr_arr        0002fc30 f   libeay32:bn_gf2m.obj
 0001:0001edb8       BN_GF2m_poly2arr           0002fdb8 f   libeay32:bn_gf2m.obj
 0001:0001ee5c       BN_GF2m_mod                0002fe5c f   libeay32:bn_gf2m.obj
 0001:0001eed8       BN_GF2m_mod_mul_arr        0002fed8 f   libeay32:bn_gf2m.obj
 0001:0001f128       BN_GF2m_mod_mul            00030128 f   libeay32:bn_gf2m.obj
 0001:0001f1ec       BN_GF2m_mod_inv            000301ec f   libeay32:bn_gf2m.obj
 0001:0001f62c       BN_GF2m_mod_div            0003062c f   libeay32:bn_gf2m.obj
 0001:0001f6b8       BN_GF2m_mod_exp_arr        000306b8 f   libeay32:bn_gf2m.obj
 0001:0001f7f0       BN_GF2m_mod_sqrt_arr       000307f0 f   libeay32:bn_gf2m.obj
 0001:0001f88c       BN_GF2m_mod_solve_quad_arr 0003088c f   libeay32:bn_gf2m.obj
 0001:0001fbec       OPENSSL_init               00030bec f   libeay32:o_init.obj
 0001:0001fc08       lh_free                    00030c08 f   libeay32:lhash.obj
 0001:0001fc70       lh_doall                   00030c70 f   libeay32:lhash.obj
 0001:0001fcc4       lh_doall_arg               00030cc4 f   libeay32:lhash.obj
 0001:00020028       lh_strhash                 00031028 f   libeay32:lhash.obj
 0001:00020094       lh_num_items               00031094 f   libeay32:lhash.obj
 0001:000200a4       lh_new                     000310a4 f   libeay32:lhash.obj
 0001:000201a0       lh_insert                  000311a0 f   libeay32:lhash.obj
 0001:00020284       lh_delete                  00031284 f   libeay32:lhash.obj
 0001:00020330       lh_retrieve                00031330 f   libeay32:lhash.obj
 0001:00020380       a2d_ASN1_OBJECT            00031380 f   libeay32:a_object.obj
 0001:00020758       i2t_ASN1_OBJECT            00031758 f   libeay32:a_object.obj
 0001:0002076c       i2a_ASN1_OBJECT            0003176c f   libeay32:a_object.obj
 0001:00020848       ASN1_OBJECT_new            00031848 f   libeay32:a_object.obj
 0001:000208c4       ASN1_OBJECT_free           000318c4 f   libeay32:a_object.obj
 0001:00020944       c2i_ASN1_OBJECT            00031944 f   libeay32:a_object.obj
 0001:00020ad8       d2i_ASN1_OBJECT            00031ad8 f   libeay32:a_object.obj
 0001:00020b78       OBJ_dup                    00031b78 f   libeay32:obj_lib.obj
 0001:00020d18       OBJ_cmp                    00031d18 f   libeay32:obj_lib.obj
 0001:00020d44       BUF_strlcpy                00031d44 f   libeay32:buf_str.obj
 0001:00020d94       BUF_strlcat                00031d94 f   libeay32:buf_str.obj
 0001:00020dd0       BUF_strndup                00031dd0 f   libeay32:buf_str.obj
 0001:00020e44       BUF_strdup                 00031e44 f   libeay32:buf_str.obj
 0001:00020f30       ASN1_put_eoc               00031f30 f   libeay32:asn1_lib.obj
 0001:00020f50       ASN1_object_size           00031f50 f   libeay32:asn1_lib.obj
 0001:00020fa0       ASN1_STRING_set            00031fa0 f   libeay32:asn1_lib.obj
 0001:00021090       ASN1_STRING_set0           00032090 f   libeay32:asn1_lib.obj
 0001:000210c0       ASN1_STRING_type_new       000320c0 f   libeay32:asn1_lib.obj
 0001:0002112c       ASN1_STRING_free           0003212c f   libeay32:asn1_lib.obj
 0001:00021160       ASN1_STRING_cmp            00032160 f   libeay32:asn1_lib.obj
 0001:000211a0       ASN1_get_object            000321a0 f   libeay32:asn1_lib.obj
 0001:000212f8       ASN1_put_object            000322f8 f   libeay32:asn1_lib.obj
 0001:0002140c       ASN1_STRING_copy           0003240c f   libeay32:asn1_lib.obj
 0001:00021458       ASN1_STRING_new            00032458 f   libeay32:asn1_lib.obj
 0001:0002146c       ASN1_STRING_dup            0003246c f   libeay32:asn1_lib.obj
 0001:000214b4       EC_GROUP_new_curve_GFp     000324b4 f   libeay32:ec_cvt.obj
 0001:00021580       EC_GROUP_new_curve_GF2m    00032580 f   libeay32:ec_cvt.obj
 0001:000215e4       sk_set_cmp_func            000325e4 f   libeay32:stack.obj
 0001:00021600       sk_new                     00032600 f   libeay32:stack.obj
 0001:00021688       sk_insert                  00032688 f   libeay32:stack.obj
 0001:00021760       sk_delete                  00032760 f   libeay32:stack.obj
 0001:000217cc       sk_push                    000327cc f   libeay32:stack.obj
 0001:000217e0       sk_pop                     000327e0 f   libeay32:stack.obj
 0001:00021814       sk_free                    00032814 f   libeay32:stack.obj
 0001:00021840       sk_num                     00032840 f   libeay32:stack.obj
 0001:00021850       sk_value                   00032850 f   libeay32:stack.obj
 0001:0002187c       sk_set                     0003287c f   libeay32:stack.obj
 0001:000218b0       sk_sort                    000328b0 f   libeay32:stack.obj
 0001:000218ec       sk_is_sorted               000328ec f   libeay32:stack.obj
 0001:000218fc       sk_new_null                000328fc f   libeay32:stack.obj
 0001:00021910       sk_delete_ptr              00032910 f   libeay32:stack.obj
 0001:00021a24       sk_find                    00032a24 f   libeay32:stack.obj
 0001:00021a38       sk_pop_free                00032a38 f   libeay32:stack.obj
 0001:00021aa0       ENGINE_get_pkey_asn1_meth_engine 00032aa0 f   libeay32:tb_asnmth.obj
 0001:00021abc       engine_pkey_asn1_meths_free 00032abc f   libeay32:tb_asnmth.obj
 0001:00021bf8       ENGINE_pkey_asn1_find_str  00032bf8 f   libeay32:tb_asnmth.obj
 0001:00021c98       ENGINE_get_pkey_asn1_meth  00032c98 f   libeay32:tb_asnmth.obj
 0001:00021cfc       ENGINE_get_pkey_meth_engine 00032cfc f   libeay32:tb_pkmeth.obj
 0001:00021d18       engine_pkey_meths_free     00032d18 f   libeay32:tb_pkmeth.obj
 0001:00021d98       ENGINE_get_pkey_meth       00032d98 f   libeay32:tb_pkmeth.obj
 0001:00021dfc       engine_unlocked_init       00032dfc f   libeay32:eng_init.obj
 0001:00021e54       engine_unlocked_finish     00032e54 f   libeay32:eng_init.obj
 0001:00021f18       ENGINE_init                00032f18 f   libeay32:eng_init.obj
 0001:00021f94       ENGINE_finish              00032f94 f   libeay32:eng_init.obj
 0001:00022038       RAND_SSLeay                00033038 f   libeay32:md_rand.obj
 0001:00022a40       ENGINE_get_default_RAND    00033a40 f   libeay32:tb_rand.obj
 0001:00022a5c       ENGINE_get_RAND            00033a5c f   libeay32:tb_rand.obj
 0001:00022a64       ERR_load_CMS_strings       00033a64 f   libeay32:cms_err.obj
 0001:00022aa0       ERR_load_UI_strings        00033aa0 f   libeay32:ui_err.obj
 0001:00022adc       ERR_load_OCSP_strings      00033adc f   libeay32:ocsp_err.obj
 0001:00022b18       ERR_load_ENGINE_strings    00033b18 f   libeay32:eng_err.obj
 0001:00022b54       ERR_load_TS_strings        00033b54 f   libeay32:ts_err.obj
 0001:00022b90       ERR_load_DSO_strings       00033b90 f   libeay32:dso_err.obj
 0001:00022bcc       ERR_load_RAND_strings      00033bcc f   libeay32:rand_err.obj
 0001:00022c08       ERR_load_PKCS12_strings    00033c08 f   libeay32:pk12err.obj
 0001:00022c44       ERR_load_X509V3_strings    00033c44 f   libeay32:v3err.obj
 0001:00022c80       ERR_load_PKCS7_strings     00033c80 f   libeay32:pkcs7err.obj
 0001:00022cbc       ERR_load_BIO_strings       00033cbc f   libeay32:bio_err.obj
 0001:00022cf8       ERR_load_ECDH_strings      00033cf8 f   libeay32:ech_err.obj
 0001:00022d34       ERR_load_ECDSA_strings     00033d34 f   libeay32:ecs_err.obj
 0001:00022d70       ERR_load_EC_strings        00033d70 f   libeay32:ec_err.obj
 0001:00022dac       ERR_load_COMP_strings      00033dac f   libeay32:comp_err.obj
 0001:00022de8       ERR_load_CRYPTO_strings    00033de8 f   libeay32:cpt_err.obj
 0001:00022e24       ERR_load_CONF_strings      00033e24 f   libeay32:conf_err.obj
 0001:00022e60       ERR_load_ASN1_strings      00033e60 f   libeay32:asn1_err.obj
 0001:00022e9c       ERR_load_X509_strings      00033e9c f   libeay32:x509_err.obj
 0001:00022ed8       ERR_load_DSA_strings       00033ed8 f   libeay32:dsa_err.obj
 0001:00022f14       ERR_load_PEM_strings       00033f14 f   libeay32:pem_err.obj
 0001:00022f50       ERR_load_OBJ_strings       00033f50 f   libeay32:obj_err.obj
 0001:00022f8c       ERR_load_BUF_strings       00033f8c f   libeay32:buf_err.obj
 0001:00022fcc       ERR_load_EVP_strings       00033fcc f   libeay32:evp_err.obj
 0001:00023008       ERR_load_DH_strings        00034008 f   libeay32:dh_err.obj
 0001:00023044       ERR_load_RSA_strings       00034044 f   libeay32:rsa_err.obj
 0001:00023080       ERR_load_BN_strings        00034080 f   libeay32:bn_err.obj
 0001:000230bc       bn_sqr_normal              000340bc f   libeay32:bn_sqr.obj
 0001:000231a8       BN_sqr                     000341a8 f   libeay32:bn_sqr.obj
 0001:000232e0       BN_RECP_CTX_init           000342e0 f   libeay32:bn_recp.obj
 0001:00023308       BN_RECP_CTX_free           00034308 f   libeay32:bn_recp.obj
 0001:0002333c       BN_RECP_CTX_set            0003433c f   libeay32:bn_recp.obj
 0001:00023388       BN_reciprocal              00034388 f   libeay32:bn_recp.obj
 0001:00023408       BN_div_recp                00034408 f   libeay32:bn_recp.obj
 0001:00023664       BN_mod_mul_reciprocal      00034664 f   libeay32:bn_recp.obj
 0001:00023b70       BN_gcd                     00034b70 f   libeay32:bn_gcd.obj
 0001:00023c44       BN_mod_inverse             00034c44 f   libeay32:bn_gcd.obj
 0001:000242b8       BN_kronecker               000352b8 f   libeay32:bn_kron.obj
 0001:0002456c       BN_mod_sqrt                0003556c f   libeay32:bn_sqrt.obj
 0001:00024d7c       ec_GFp_nist_group_copy     00035d7c f   libeay32:ecp_nist.obj
 0001:00024d98       ec_GFp_nist_group_set_curve 00035d98 f   libeay32:ecp_nist.obj
 0001:00024ee4       ec_GFp_nist_field_mul      00035ee4 f   libeay32:ecp_nist.obj
 0001:00024fc0       ec_GFp_nist_field_sqr      00035fc0 f   libeay32:ecp_nist.obj
 0001:0002508c       EC_GFp_nist_method         0003608c f   libeay32:ecp_nist.obj
 0001:00025098       engine_table_select        00036098 f   libeay32:eng_table.obj
 0001:00025224       engine_table_doall         00036224 f   libeay32:eng_table.obj
 0001:00025270       EVP_PKEY_asn1_get_count    00036270 f   libeay32:ameth_lib.obj
 0001:000252a0       EVP_PKEY_asn1_get0         000362a0 f   libeay32:ameth_lib.obj
 0001:000252e8       EVP_PKEY_asn1_find         000362e8 f   libeay32:ameth_lib.obj
 0001:000253d0       EVP_PKEY_asn1_find_str     000363d0 f   libeay32:ameth_lib.obj
 0001:000254b8       EVP_PKEY_asn1_free         000364b8 f   libeay32:ameth_lib.obj
 0001:00025518       EVP_PKEY_meth_find         00036518 f   libeay32:pmeth_lib.obj
 0001:000255b0       EVP_PKEY_meth_free         000365b0 f   libeay32:pmeth_lib.obj
 0001:000255cc       EVP_PKEY_CTX_free          000365cc f   libeay32:pmeth_lib.obj
 0001:00025634       EVP_PKEY_CTX_ctrl          00036634 f   libeay32:pmeth_lib.obj
 0001:00025758       EVP_PKEY_CTX_get0_pkey     00036758 f   libeay32:pmeth_lib.obj
 0001:00025760       EVP_PKEY_CTX_new           00036760 f   libeay32:pmeth_lib.obj
 0001:000258dc       EVP_PKEY_CTX_dup           000368dc f   libeay32:pmeth_lib.obj
 0001:00025a18       EVP_MD_CTX_init            00036a18 f   libeay32:digest.obj
 0001:00025a30       EVP_MD_CTX_create          00036a30 f   libeay32:digest.obj
 0001:00025a68       EVP_DigestInit_ex          00036a68 f   libeay32:digest.obj
 0001:00025c80       EVP_DigestUpdate           00036c80 f   libeay32:digest.obj
 0001:00025c98       EVP_DigestFinal_ex         00036c98 f   libeay32:digest.obj
 0001:00025d44       EVP_MD_CTX_cleanup         00036d44 f   libeay32:digest.obj
 0001:00025e10       EVP_MD_CTX_copy_ex         00036e10 f   libeay32:digest.obj
 0001:00025fc0       EVP_Digest                 00036fc0 f   libeay32:digest.obj
 0001:00026064       EVP_MD_CTX_destroy         00037064 f   libeay32:digest.obj
 0001:00026080       EVP_MD_CTX_copy            00037080 f   libeay32:digest.obj
 0001:000260f0       EVP_sha1                   000370f0 f   libeay32:m_sha1.obj
 0001:00026228       RAND_poll                  00037228 f   libeay32:rand_win.obj
 0001:00026300       BN_get0_nist_prime_192     00037300 f   libeay32:bn_nist.obj
 0001:0002630c       BN_get0_nist_prime_224     0003730c f   libeay32:bn_nist.obj
 0001:00026318       BN_get0_nist_prime_256     00037318 f   libeay32:bn_nist.obj
 0001:00026324       BN_get0_nist_prime_384     00037324 f   libeay32:bn_nist.obj
 0001:00026330       BN_get0_nist_prime_521     00037330 f   libeay32:bn_nist.obj
 0001:0002638c       BN_nist_mod_192            0003738c f   libeay32:bn_nist.obj
 0001:00026654       BN_nist_mod_224            00037654 f   libeay32:bn_nist.obj
 0001:000269b8       BN_nist_mod_256            000379b8 f   libeay32:bn_nist.obj
 0001:00026e74       BN_nist_mod_384            00037e74 f   libeay32:bn_nist.obj
 0001:00027438       BN_nist_mod_521            00038438 f   libeay32:bn_nist.obj
 0001:0002d530       EVP_PKEY_bits              0003e530 f   libeay32:p_lib.obj
 0001:0002d570       EVP_PKEY_size              0003e570 f   libeay32:p_lib.obj
 0001:0002d5b0       EVP_PKEY_missing_parameters 0003e5b0 f   libeay32:p_lib.obj
 0001:0002d5e8       EVP_PKEY_new               0003e5e8 f   libeay32:p_lib.obj
 0001:0002d664       EVP_PKEY_type              0003e664 f   libeay32:p_lib.obj
 0001:0002d6a0       EVP_PKEY_id                0003e6a0 f   libeay32:p_lib.obj
 0001:0002d6a8       EVP_PKEY_get_default_digest_nid 0003e6a8 f   libeay32:p_lib.obj
 0001:0002d6ec       EVP_PKEY_copy_parameters   0003e6ec f   libeay32:p_lib.obj
 0001:0002d8d8       EVP_PKEY_set_type          0003e8d8 f   libeay32:p_lib.obj
 0001:0002d8f0       EVP_PKEY_assign            0003e8f0 f   libeay32:p_lib.obj
 0001:0002d928       EVP_PKEY_free              0003e928 f   libeay32:p_lib.obj
 0001:0002d9d4       EVP_get_cipherbyname       0003e9d4 f   libeay32:names.obj
 0001:0002d9e8       EVP_get_digestbyname       0003e9e8 f   libeay32:names.obj
 0001:0002d9fc       ENGINE_get_digest_engine   0003e9fc f   libeay32:tb_digest.obj
 0001:0002da18       ENGINE_get_digest          0003ea18 f   libeay32:tb_digest.obj
 0001:0002da7c       EVP_CIPHER_CTX_block_size  0003ea7c f   libeay32:evp_lib.obj
 0001:0002da88       EVP_Cipher                 0003ea88 f   libeay32:evp_lib.obj
 0001:0002daa4       EVP_CIPHER_CTX_cipher      0003eaa4 f   libeay32:evp_lib.obj
 0001:0002daac       EVP_CIPHER_CTX_flags       0003eaac f   libeay32:evp_lib.obj
 0001:0002dab8       EVP_CIPHER_iv_length       0003eab8 f   libeay32:evp_lib.obj
 0001:0002dac0       EVP_CIPHER_CTX_iv_length   0003eac0 f   libeay32:evp_lib.obj
 0001:0002dacc       EVP_CIPHER_key_length      0003eacc f   libeay32:evp_lib.obj
 0001:0002dad4       EVP_CIPHER_CTX_key_length  0003ead4 f   libeay32:evp_lib.obj
 0001:0002dadc       EVP_MD_block_size          0003eadc f   libeay32:evp_lib.obj
 0001:0002dae4       EVP_MD_type                0003eae4 f   libeay32:evp_lib.obj
 0001:0002daec       EVP_MD_pkey_type           0003eaec f   libeay32:evp_lib.obj
 0001:0002daf4       EVP_MD_size                0003eaf4 f   libeay32:evp_lib.obj
 0001:0002db40       EVP_MD_CTX_md              0003eb40 f   libeay32:evp_lib.obj
 0001:0002db50       EVP_MD_CTX_set_flags       0003eb50 f   libeay32:evp_lib.obj
 0001:0002db60       EVP_MD_CTX_clear_flags     0003eb60 f   libeay32:evp_lib.obj
 0001:0002db70       EVP_MD_CTX_test_flags      0003eb70 f   libeay32:evp_lib.obj
 0001:0002db7c       EVP_CIPHER_get_asn1_iv     0003eb7c f   libeay32:evp_lib.obj
 0001:0002dbf4       EVP_CIPHER_set_asn1_iv     0003ebf4 f   libeay32:evp_lib.obj
 0001:0002dc44       EVP_CIPHER_type            0003ec44 f   libeay32:evp_lib.obj
 0001:0002dd74       EVP_CIPHER_param_to_asn1   0003ed74 f   libeay32:evp_lib.obj
 0001:0002ddbc       EVP_CIPHER_asn1_to_param   0003edbc f   libeay32:evp_lib.obj
 0001:0002de04       RSA_sign                   0003ee04 f   libeay32:rsa_sign.obj
 0001:0002e048       int_rsa_verify             0003f048 f   libeay32:rsa_sign.obj
 0001:0002e434       RSA_verify                 0003f434 f   libeay32:rsa_sign.obj
 0001:0002e4ac       SHA1_Init                  0003f4ac f   libeay32:sha1dgst.obj
 0001:0002e864       SHA1_Update                0003f864 f   libeay32:sha1dgst.obj
 0001:0002e96c       SHA1_Final                 0003f96c f   libeay32:sha1dgst.obj
 0001:0002eadc       SHA224_Init                0003fadc f   libeay32:sha256.obj
 0001:0002eb5c       SHA256_Init                0003fb5c f   libeay32:sha256.obj
 0001:0002eefc       SHA256_Update              0003fefc f   libeay32:sha256.obj
 0001:0002f004       SHA256_Final               00040004 f   libeay32:sha256.obj
 0001:0002f18c       SHA384_Init                0004018c f   libeay32:sha512.obj
 0001:0002f27c       SHA512_Init                0004027c f   libeay32:sha512.obj
 0001:0002fb44       SHA512_Final               00040b44 f   libeay32:sha512.obj
 0001:0002fd70       SHA512_Update              00040d70 f   libeay32:sha512.obj
 0001:0002fec0       CMAC_CTX_new               00040ec0 f   libeay32:cmac.obj
 0001:0002ff00       CMAC_CTX_cleanup           00040f00 f   libeay32:cmac.obj
 0001:0002ff4c       CMAC_CTX_free              00040f4c f   libeay32:cmac.obj
 0001:0002ff68       CMAC_CTX_copy              00040f68 f   libeay32:cmac.obj
 0001:0002fff8       CMAC_Init                  00040ff8 f   libeay32:cmac.obj
 0001:00030274       CMAC_Update                00041274 f   libeay32:cmac.obj
 0001:00030358       CMAC_Final                 00041358 f   libeay32:cmac.obj
 0001:00030458       ASN1_INTEGER_it            00041458 f   libeay32:tasn_typ.obj
 0001:00030464       d2i_ASN1_INTEGER           00041464 f   libeay32:tasn_typ.obj
 0001:0003047c       i2d_ASN1_INTEGER           0004147c f   libeay32:tasn_typ.obj
 0001:00030494       ASN1_INTEGER_new           00041494 f   libeay32:tasn_typ.obj
 0001:000304ac       ASN1_INTEGER_free          000414ac f   libeay32:tasn_typ.obj
 0001:000304c4       ASN1_ENUMERATED_it         000414c4 f   libeay32:tasn_typ.obj
 0001:000304d0       ASN1_ENUMERATED_free       000414d0 f   libeay32:tasn_typ.obj
 0001:000304e8       ASN1_BIT_STRING_it         000414e8 f   libeay32:tasn_typ.obj
 0001:000304f4       ASN1_BIT_STRING_new        000414f4 f   libeay32:tasn_typ.obj
 0001:0003050c       ASN1_BIT_STRING_free       0004150c f   libeay32:tasn_typ.obj
 0001:00030524       ASN1_OCTET_STRING_it       00041524 f   libeay32:tasn_typ.obj
 0001:00030530       i2d_ASN1_OCTET_STRING      00041530 f   libeay32:tasn_typ.obj
 0001:00030548       ASN1_OCTET_STRING_new      00041548 f   libeay32:tasn_typ.obj
 0001:00030560       ASN1_OCTET_STRING_free     00041560 f   libeay32:tasn_typ.obj
 0001:00030578       ASN1_NULL_it               00041578 f   libeay32:tasn_typ.obj
 0001:00030584       ASN1_NULL_new              00041584 f   libeay32:tasn_typ.obj
 0001:0003059c       ASN1_OBJECT_it             0004159c f   libeay32:tasn_typ.obj
 0001:000305a8       ASN1_UTF8STRING_it         000415a8 f   libeay32:tasn_typ.obj
 0001:000305b4       ASN1_IA5STRING_it          000415b4 f   libeay32:tasn_typ.obj
 0001:000305c0       ASN1_GENERALIZEDTIME_it    000415c0 f   libeay32:tasn_typ.obj
 0001:000305cc       ASN1_ANY_it                000415cc f   libeay32:tasn_typ.obj
 0001:000305d8       ASN1_SEQUENCE_it           000415d8 f   libeay32:tasn_typ.obj
 0001:000305e4       d2i_ASN1_TYPE              000415e4 f   libeay32:tasn_typ.obj
 0001:000305fc       i2d_ASN1_TYPE              000415fc f   libeay32:tasn_typ.obj
 0001:00030614       ASN1_TYPE_new              00041614 f   libeay32:tasn_typ.obj
 0001:0003062c       ASN1_TYPE_free             0004162c f   libeay32:tasn_typ.obj
 0001:00030644       ASN1_PRINTABLE_it          00041644 f   libeay32:tasn_typ.obj
 0001:00030650       DISPLAYTEXT_it             00041650 f   libeay32:tasn_typ.obj
 0001:0003065c       DIRECTORYSTRING_it         0004165c f   libeay32:tasn_typ.obj
 0001:00030668       ASN1_BOOLEAN_it            00041668 f   libeay32:tasn_typ.obj
 0001:00030674       ASN1_FBOOLEAN_it           00041674 f   libeay32:tasn_typ.obj
 0001:00030680       ASN1_OCTET_STRING_NDEF_it  00041680 f   libeay32:tasn_typ.obj
 0001:0003068c       d2i_ASN1_SEQUENCE_ANY      0004168c f   libeay32:tasn_typ.obj
 0001:000306a4       i2d_ASN1_SEQUENCE_ANY      000416a4 f   libeay32:tasn_typ.obj
 0001:000306bc       i2d_ASN1_SET_ANY           000416bc f   libeay32:tasn_typ.obj
 0001:000306d4       ASN1_OCTET_STRING_dup      000416d4 f   libeay32:a_octet.obj
 0001:000306e4       ASN1_OCTET_STRING_set      000416e4 f   libeay32:a_octet.obj
 0001:000306f4       EC_GROUP_get_basis_type    000416f4 f   libeay32:ec_asn1.obj
 0001:0003076c       EC_GROUP_get_trinomial_basis 0004176c f   libeay32:ec_asn1.obj
 0001:00030800       EC_GROUP_get_pentanomial_basis 00041800 f   libeay32:ec_asn1.obj
 0001:000308cc       X9_62_PENTANOMIAL_it       000418cc f   libeay32:ec_asn1.obj
 0001:000308e4       X9_62_CHARACTERISTIC_TWO_it 000418e4 f   libeay32:ec_asn1.obj
 0001:000308fc       X9_62_FIELDID_it           000418fc f   libeay32:ec_asn1.obj
 0001:00030908       X9_62_CURVE_it             00041908 f   libeay32:ec_asn1.obj
 0001:00030914       ECPARAMETERS_it            00041914 f   libeay32:ec_asn1.obj
 0001:00030920       ECPKPARAMETERS_it          00041920 f   libeay32:ec_asn1.obj
 0001:00031e20       d2i_ECPKParameters         00042e20 f   libeay32:ec_asn1.obj
 0001:00031eec       i2d_ECPKParameters         00042eec f   libeay32:ec_asn1.obj
 0001:00031f90       d2i_ECPrivateKey           00042f90 f   libeay32:ec_asn1.obj
 0001:0003224c       i2d_ECPrivateKey           0004324c f   libeay32:ec_asn1.obj
 0001:000325d0       i2d_ECParameters           000435d0 f   libeay32:ec_asn1.obj
 0001:00032620       d2i_ECParameters           00043620 f   libeay32:ec_asn1.obj
 0001:00032704       o2i_ECPublicKey            00043704 f   libeay32:ec_asn1.obj
 0001:00032818       i2o_ECPublicKey            00043818 f   libeay32:ec_asn1.obj
 0001:0003295c       EC_KEY_new                 0004395c f   libeay32:ec_key.obj
 0001:000329e0       EC_KEY_free                000439e0 f   libeay32:ec_key.obj
 0001:00032a70       EC_KEY_generate_key        00043a70 f   libeay32:ec_key.obj
 0001:00032bcc       EC_KEY_get0_group          00043bcc f   libeay32:ec_key.obj
 0001:00032bd4       EC_KEY_set_group           00043bd4 f   libeay32:ec_key.obj
 0001:00032c14       EC_KEY_get0_private_key    00043c14 f   libeay32:ec_key.obj
 0001:00032c1c       EC_KEY_get0_public_key     00043c1c f   libeay32:ec_key.obj
 0001:00032c24       EC_KEY_set_public_key      00043c24 f   libeay32:ec_key.obj
 0001:00032c68       EC_KEY_get_enc_flags       00043c68 f   libeay32:ec_key.obj
 0001:00032c70       EC_KEY_set_enc_flags       00043c70 f   libeay32:ec_key.obj
 0001:00032c78       EC_KEY_get_conv_form       00043c78 f   libeay32:ec_key.obj
 0001:00032c80       EC_KEY_get_key_method_data 00043c80 f   libeay32:ec_key.obj
 0001:00032cec       EC_KEY_insert_key_method_data 00043cec f   libeay32:ec_key.obj
 0001:00032d9c       X509_PUBKEY_it             00043d9c f   libeay32:x_pubkey.obj
 0001:00032da8       X509_PUBKEY_get            00043da8 f   libeay32:x_pubkey.obj
 0001:00032f58       X509_PUBKEY_set0_param     00043f58 f   libeay32:x_pubkey.obj
 0001:00032fd8       X509_PUBKEY_get0_param     00043fd8 f   libeay32:x_pubkey.obj
 0001:00033028       X509_ALGOR_it              00044028 f   libeay32:x_algor.obj
 0001:00033034       d2i_X509_ALGOR             00044034 f   libeay32:x_algor.obj
 0001:0003304c       X509_ALGOR_new             0004404c f   libeay32:x_algor.obj
 0001:00033064       X509_ALGOR_free            00044064 f   libeay32:x_algor.obj
 0001:0003307c       X509_ALGOR_set0            0004407c f   libeay32:x_algor.obj
 0001:00033124       X509_ALGOR_get0            00044124 f   libeay32:x_algor.obj
 0001:00033178       X509_ALGOR_set_md          00044178 f   libeay32:x_algor.obj
 0001:000331f4       PKCS8_PRIV_KEY_INFO_it     000441f4 f   libeay32:p8_pkey.obj
 0001:00033200       PKCS8_pkey_set0            00044200 f   libeay32:p8_pkey.obj
 0001:000332b0       PKCS8_pkey_get0            000442b0 f   libeay32:p8_pkey.obj
 0001:000334a8       ecdsa_check                000444a8 f   libeay32:ecs_lib.obj
 0001:00033524       ECDSA_size                 00044524 f   libeay32:ecs_lib.obj
 0001:00033724       ECPKParameters_print       00044724 f   libeay32:eck_prn.obj
 0001:00033d0c       ASN1_bn_print              00044d0c f   libeay32:t_pkey.obj
 0001:00033f00       EC_POINT_point2bn          00044f00 f   libeay32:ec_print.obj
 0001:00033fac       PKCS7_ctrl                 00044fac f   libeay32:pk7_lib.obj
 0001:000340d0       PKCS7_SIGNER_INFO_get0_algs 000450d0 f   libeay32:pk7_lib.obj
 0001:00034100       PKCS7_RECIP_INFO_get0_alg  00045100 f   libeay32:pk7_lib.obj
 0001:00034110       PKCS7_stream               00045110 f   libeay32:pk7_lib.obj
 0001:00034220       OBJ_find_sigid_algs        00045220 f   libeay32:obj_xref.obj
 0001:000342c0       OBJ_find_sigid_by_algs     000452c0 f   libeay32:obj_xref.obj
 0001:0003453c       CMS_SignerInfo_get0_algs   0004553c f   libeay32:cms_sd.obj
 0001:0003457c       CMS_SignerInfo_sign        0004557c f   libeay32:cms_sd.obj
 0001:000347c8       cms_SignedData_init_bio    000457c8 f   libeay32:cms_sd.obj
 0001:00034a2c       cms_SignedData_final       00045a2c f   libeay32:cms_sd.obj
 0001:00034abc       DSA_new_method             00045abc f   libeay32:dsa_lib.obj
 0001:00034c6c       DSA_free                   00045c6c f   libeay32:dsa_lib.obj
 0001:00034d60       DSA_size                   00045d60 f   libeay32:dsa_lib.obj
 0001:00034dc4       DSA_new                    00045dc4 f   libeay32:dsa_lib.obj
 0001:00034dd8       ASN1_INTEGER_cmp           00045dd8 f   libeay32:a_int.obj
 0001:00034e20       i2c_ASN1_INTEGER           00045e20 f   libeay32:a_int.obj
 0001:00034f74       c2i_ASN1_INTEGER           00045f74 f   libeay32:a_int.obj
 0001:00035138       d2i_ASN1_UINTEGER          00046138 f   libeay32:a_int.obj
 0001:000352a8       ASN1_INTEGER_set           000462a8 f   libeay32:a_int.obj
 0001:000353b0       ASN1_INTEGER_get           000463b0 f   libeay32:a_int.obj
 0001:00035444       BN_to_ASN1_INTEGER         00046444 f   libeay32:a_int.obj
 0001:0003556c       ASN1_INTEGER_to_BN         0004656c f   libeay32:a_int.obj
 0001:00035660       d2i_DSA_SIG                00046660 f   libeay32:dsa_asn1.obj
 0001:000356d4       d2i_DSAPrivateKey          000466d4 f   libeay32:dsa_asn1.obj
 0001:000356ec       i2d_DSAPrivateKey          000466ec f   libeay32:dsa_asn1.obj
 0001:00035704       d2i_DSAparams              00046704 f   libeay32:dsa_asn1.obj
 0001:0003571c       i2d_DSAparams              0004671c f   libeay32:dsa_asn1.obj
 0001:00035734       dsa_pub_internal_it        00046734 f   libeay32:dsa_asn1.obj
 0001:00035740       i2d_DSAPublicKey           00046740 f   libeay32:dsa_asn1.obj
 0001:00035758       DSA_sign                   00046758 f   libeay32:dsa_asn1.obj
 0001:000357d8       DSA_verify                 000467d8 f   libeay32:dsa_asn1.obj
 0001:00035858       X509_signature_dump        00046858 f   libeay32:t_x509.obj
 0001:00035944       ASN1_STRING_print          00046944 f   libeay32:t_x509.obj
 0001:00035a18       ASN1_GENERALIZEDTIME_print 00046a18 f   libeay32:t_x509.obj
 0001:00035c34       X509_NAME_print            00046c34 f   libeay32:t_x509.obj
 0001:00035d64       DSA_do_sign                00046d64 f   libeay32:dsa_sign.obj
 0001:00035d80       DSA_sign_setup             00046d80 f   libeay32:dsa_sign.obj
 0001:00035d9c       DSA_SIG_new                00046d9c f   libeay32:dsa_sign.obj
 0001:00035dd4       DSA_SIG_free               00046dd4 f   libeay32:dsa_sign.obj
 0001:00035e10       DH_new_method              00046e10 f   libeay32:dh_lib.obj
 0001:00035fc8       DH_free                    00046fc8 f   libeay32:dh_lib.obj
 0001:000360cc       DH_size                    000470cc f   libeay32:dh_lib.obj
 0001:000360f0       DH_new                     000470f0 f   libeay32:dh_lib.obj
 0001:00036160       d2i_DHparams               00047160 f   libeay32:dh_asn1.obj
 0001:00036178       i2d_DHparams               00047178 f   libeay32:dh_asn1.obj
 0001:00036190       DH_generate_key            00047190 f   libeay32:dh_key.obj
 0001:000361ac       DH_compute_key             000471ac f   libeay32:dh_key.obj
 0001:000361c8       DH_OpenSSL                 000471c8 f   libeay32:dh_key.obj
 0001:000366c0       RSA_PSS_PARAMS_it          000476c0 f   libeay32:rsa_asn1.obj
 0001:000366cc       d2i_RSA_PSS_PARAMS         000476cc f   libeay32:rsa_asn1.obj
 0001:000366e4       RSA_PSS_PARAMS_new         000476e4 f   libeay32:rsa_asn1.obj
 0001:000366fc       RSA_PSS_PARAMS_free        000476fc f   libeay32:rsa_asn1.obj
 0001:00036714       d2i_RSAPrivateKey          00047714 f   libeay32:rsa_asn1.obj
 0001:0003672c       i2d_RSAPrivateKey          0004772c f   libeay32:rsa_asn1.obj
 0001:00036744       d2i_RSAPublicKey           00047744 f   libeay32:rsa_asn1.obj
 0001:0003675c       i2d_RSAPublicKey           0004775c f   libeay32:rsa_asn1.obj
 0001:00036774       RSA_size                   00047774 f   libeay32:rsa_crpt.obj
 0001:00036798       RSA_public_encrypt         00047798 f   libeay32:rsa_crpt.obj
 0001:000367c4       RSA_private_encrypt        000477c4 f   libeay32:rsa_crpt.obj
 0001:000367f0       RSA_private_decrypt        000477f0 f   libeay32:rsa_crpt.obj
 0001:0003681c       RSA_public_decrypt         0004781c f   libeay32:rsa_crpt.obj
 0001:0003692c       RSA_setup_blinding         0004792c f   libeay32:rsa_crpt.obj
 0001:00036b00       RSA_new_method             00047b00 f   libeay32:rsa_lib.obj
 0001:00036ce4       RSA_free                   00047ce4 f   libeay32:rsa_lib.obj
 0001:00036e18       RSA_new                    00047e18 f   libeay32:rsa_lib.obj
 0001:00036e2c       i2a_ASN1_INTEGER           00047e2c f   libeay32:f_int.obj
 0001:00036f74       CMS_RecipientInfo_ktri_get0_algs 00047f74 f   libeay32:cms_env.obj
 0001:000372d0       cms_EnvelopedData_init_bio 000482d0 f   libeay32:cms_env.obj
 0001:000375b0       EVP_DigestSignInit         000485b0 f   libeay32:m_sigver.obj
 0001:000375d8       EVP_DigestVerifyInit       000485d8 f   libeay32:m_sigver.obj
 0001:00037600       EVP_DigestSignFinal        00048600 f   libeay32:m_sigver.obj
 0001:00037740       EVP_DigestVerifyFinal      00048740 f   libeay32:m_sigver.obj
 0001:00037814       ASN1_item_pack             00048814 f   libeay32:asn_pack.obj
 0001:00037904       X509V3_add_value           00048904 f   libeay32:v3_utl.obj
 0001:000379fc       X509V3_add_value_uchar     000489fc f   libeay32:v3_utl.obj
 0001:00037a0c       X509V3_conf_free           00048a0c f   libeay32:v3_utl.obj
 0001:00037a58       X509V3_add_value_bool      00048a58 f   libeay32:v3_utl.obj
 0001:00037a7c       i2s_ASN1_ENUMERATED        00048a7c f   libeay32:v3_utl.obj
 0001:00037aec       i2s_ASN1_INTEGER           00048aec f   libeay32:v3_utl.obj
 0001:00037b5c       s2i_ASN1_INTEGER           00048b5c f   libeay32:v3_utl.obj
 0001:00037cac       X509V3_add_value_int       00048cac f   libeay32:v3_utl.obj
 0001:00037d00       X509V3_get_value_bool      00048d00 f   libeay32:v3_utl.obj
 0001:00037ebc       X509V3_get_value_int       00048ebc f   libeay32:v3_utl.obj
 0001:00037fd0       hex_to_string              00048fd0 f   libeay32:v3_utl.obj
 0001:00038090       string_to_hex              00049090 f   libeay32:v3_utl.obj
 0001:00038258       name_cmp                   00049258 f   libeay32:v3_utl.obj
 0001:0003833c       X509V3_NAME_from_section   0004933c f   libeay32:v3_utl.obj
 0001:00038424       X509V3_parse_list          00049424 f   libeay32:v3_utl.obj
 0001:00038894       a2i_ipadd                  00049894 f   libeay32:v3_utl.obj
 0001:000388f8       a2i_IPADDRESS              000498f8 f   libeay32:v3_utl.obj
 0001:00038954       a2i_IPADDRESS_NC           00049954 f   libeay32:v3_utl.obj
 0001:00038a20       HMAC_Init_ex               00049a20 f   libeay32:hmac.obj
 0001:00038c18       HMAC_Update                00049c18 f   libeay32:hmac.obj
 0001:00038c2c       HMAC_Final                 00049c2c f   libeay32:hmac.obj
 0001:00038cb4       HMAC_CTX_init              00049cb4 f   libeay32:hmac.obj
 0001:00038cdc       HMAC_CTX_copy              00049cdc f   libeay32:hmac.obj
 0001:00038d5c       HMAC_CTX_cleanup           00049d5c f   libeay32:hmac.obj
 0001:00038d94       HMAC_CTX_set_flags         00049d94 f   libeay32:hmac.obj
 0001:00038dc8       HMAC_Init                  00049dc8 f   libeay32:hmac.obj
 0001:00038e2c       HMAC                       00049e2c f   libeay32:hmac.obj
 0001:00038ed8       ECDSA_do_sign_ex           00049ed8 f   libeay32:ecs_sign.obj
 0001:00038f38       ECDSA_sign_ex              00049f38 f   libeay32:ecs_sign.obj
 0001:00038fc0       ECDSA_sign_setup           00049fc0 f   libeay32:ecs_sign.obj
 0001:00039010       ECDSA_sign                 0004a010 f   libeay32:ecs_sign.obj
 0001:00039044       ECDSA_do_verify            0004a044 f   libeay32:ecs_vrf.obj
 0001:00039098       ECDSA_verify               0004a098 f   libeay32:ecs_vrf.obj
 0001:00039110       ECDH_compute_key           0004a110 f   libeay32:ech_key.obj
 0001:00039170       dsa_builtin_paramgen       0004a170 f   libeay32:dsa_gen.obj
 0001:00039904       evp_pkey_set_cb_translate  0004a904 f   libeay32:pmeth_gn.obj
 0001:00039a58       DSA_generate_key           0004aa58 f   libeay32:dsa_key.obj
 0001:00039c6c       DH_generate_parameters_ex  0004ac6c f   libeay32:dh_gen.obj
 0001:00039c9c       RSA_verify_PKCS1_PSS_mgf1  0004ac9c f   libeay32:rsa_pss.obj
 0001:0003a1cc       RSA_padding_add_PKCS1_PSS_mgf1 0004b1cc f   libeay32:rsa_pss.obj
 0001:0003a620       RSA_padding_add_X931       0004b620 f   libeay32:rsa_x931.obj
 0001:0003a6cc       RSA_padding_check_X931     0004b6cc f   libeay32:rsa_x931.obj
 0001:0003a7f4       RSA_X931_hash_id           0004b7f4 f   libeay32:rsa_x931.obj
 0001:0003a844       RSA_sign_ASN1_OCTET_STRING 0004b844 f   libeay32:rsa_saos.obj
 0001:0003af0c       RSA_generate_key_ex        0004bf0c f   libeay32:rsa_gen.obj
 0001:0003af3c       X509_ATTRIBUTE_SET_it      0004bf3c f   libeay32:x_attrib.obj
 0001:0003af48       X509_ATTRIBUTE_it          0004bf48 f   libeay32:x_attrib.obj
 0001:0003af54       X509_ATTRIBUTE_new         0004bf54 f   libeay32:x_attrib.obj
 0001:0003af6c       X509_ATTRIBUTE_free        0004bf6c f   libeay32:x_attrib.obj
 0001:0003af84       X509_ATTRIBUTE_dup         0004bf84 f   libeay32:x_attrib.obj
 0001:0003afa0       X509_ATTRIBUTE_create      0004bfa0 f   libeay32:x_attrib.obj
 0001:0003b11c       OBJ_NAME_init              0004c11c f   libeay32:o_names.obj
 0001:0003b184       OBJ_NAME_get               0004c184 f   libeay32:o_names.obj
 0001:0003b254       EVP_PBE_find               0004c254 f   libeay32:evp_pbe.obj
 0001:0003b318       EVP_PBE_CipherInit         0004c318 f   libeay32:evp_pbe.obj
 0001:0003b4d0       ASN1_TYPE_set_octetstring  0004c4d0 f   libeay32:evp_asn1.obj
 0001:0003b530       ASN1_TYPE_get_octetstring  0004c530 f   libeay32:evp_asn1.obj
 0001:0003b5a4       X509_SIG_it                0004c5a4 f   libeay32:x_sig.obj
 0001:0003b5b0       d2i_X509_SIG               0004c5b0 f   libeay32:x_sig.obj
 0001:0003b5c8       i2d_X509_SIG               0004c5c8 f   libeay32:x_sig.obj
 0001:0003b5e0       X509_SIG_free              0004c5e0 f   libeay32:x_sig.obj
 0001:0003b5f8       ASN1_TYPE_get              0004c5f8 f   libeay32:a_type.obj
 0001:0003b61c       ASN1_TYPE_set              0004c61c f   libeay32:a_type.obj
 0001:0003b688       ASN1_TYPE_set1             0004c688 f   libeay32:a_type.obj
 0001:0003b6fc       EVP_CIPHER_CTX_init        0004c6fc f   libeay32:evp_enc.obj
 0001:0003b714       EVP_EncryptUpdate          0004c714 f   libeay32:evp_enc.obj
 0001:0003b904       EVP_EncryptFinal_ex        0004c904 f   libeay32:evp_enc.obj
 0001:0003ba30       EVP_DecryptUpdate          0004ca30 f   libeay32:evp_enc.obj
 0001:0003bbac       EVP_DecryptFinal_ex        0004cbac f   libeay32:evp_enc.obj
 0001:0003bd84       EVP_CIPHER_CTX_cleanup     0004cd84 f   libeay32:evp_enc.obj
 0001:0003be10       EVP_CIPHER_CTX_set_padding 0004ce10 f   libeay32:evp_enc.obj
 0001:0003be2c       EVP_CIPHER_CTX_ctrl        0004ce2c f   libeay32:evp_enc.obj
 0001:0003bedc       EVP_CIPHER_CTX_rand_key    0004cedc f   libeay32:evp_enc.obj
 0001:0003bf30       EVP_CIPHER_CTX_copy        0004cf30 f   libeay32:evp_enc.obj
 0001:0003c080       EVP_CipherInit_ex          0004d080 f   libeay32:evp_enc.obj
 0001:0003c3e0       EVP_CipherUpdate           0004d3e0 f   libeay32:evp_enc.obj
 0001:0003c424       EVP_CipherFinal_ex         0004d424 f   libeay32:evp_enc.obj
 0001:0003c44c       EVP_EncryptInit_ex         0004d44c f   libeay32:evp_enc.obj
 0001:0003c474       EVP_DecryptInit_ex         0004d474 f   libeay32:evp_enc.obj
 0001:0003c49c       EVP_CIPHER_CTX_set_key_length 0004d49c f   libeay32:evp_enc.obj
 0001:0003c524       ASN1_tag2bit               0004d524 f   libeay32:tasn_dec.obj
 0001:0003c53c       asn1_ex_c2i                0004d53c f   libeay32:tasn_dec.obj
 0001:0003d414       ASN1_item_ex_d2i           0004e414 f   libeay32:tasn_dec.obj
 0001:0003e1e8       ASN1_item_d2i              0004f1e8 f   libeay32:tasn_dec.obj
 0001:0003e598       asn1_ex_i2c                0004f598 f   libeay32:tasn_enc.obj
 0001:0003e884       ASN1_item_ex_i2d           0004f884 f   libeay32:tasn_enc.obj
 0001:0003ef5c       ASN1_item_i2d              0004ff5c f   libeay32:tasn_enc.obj
 0001:0003ef70       ASN1_primitive_new         0004ff70 f   libeay32:tasn_new.obj
 0001:0003f4ac       ASN1_item_ex_new           000504ac f   libeay32:tasn_new.obj
 0001:0003f4c0       ASN1_template_new          000504c0 f   libeay32:tasn_new.obj
 0001:0003f598       ASN1_item_new              00050598 f   libeay32:tasn_new.obj
 0001:0003f5d0       ASN1_primitive_free        000505d0 f   libeay32:tasn_fre.obj
 0001:0003f944       ASN1_template_free         00050944 f   libeay32:tasn_fre.obj
 0001:0003f9f8       ASN1_item_free             000509f8 f   libeay32:tasn_fre.obj
 0001:0003fa18       ASN1_item_ex_free          00050a18 f   libeay32:tasn_fre.obj
 0001:0003fa2c       LONG_it                    00050a2c f   libeay32:x_long.obj
 0001:0003fa38       ZLONG_it                   00050a38 f   libeay32:x_long.obj
 0001:0003fc2c       ASN1_BIT_STRING_set        00050c2c f   libeay32:a_bitstr.obj
 0001:0003fc3c       i2c_ASN1_BIT_STRING        00050c3c f   libeay32:a_bitstr.obj
 0001:0003fd40       c2i_ASN1_BIT_STRING        00050d40 f   libeay32:a_bitstr.obj
 0001:0003fe84       ASN1_BIT_STRING_set_bit    00050e84 f   libeay32:a_bitstr.obj
 0001:0003ffd4       ASN1_BIT_STRING_get_bit    00050fd4 f   libeay32:a_bitstr.obj
 0001:00040030       ASN1_item_dup              00051030 f   libeay32:a_dup.obj
 0001:000400c4       ECDSA_OpenSSL              000510c4 f   libeay32:ecs_ossl.obj
 0001:00040d88       ENGINE_get_default_ECDSA   00051d88 f   libeay32:tb_ecdsa.obj
 0001:00040da4       ENGINE_get_ECDSA           00051da4 f   libeay32:tb_ecdsa.obj
 0001:00040e3c       PKCS7_it                   00051e3c f   libeay32:pk7_asn1.obj
 0001:00040e48       PKCS7_SIGNED_it            00051e48 f   libeay32:pk7_asn1.obj
 0001:00040e74       PKCS7_SIGNER_INFO_it       00051e74 f   libeay32:pk7_asn1.obj
 0001:00040e80       PKCS7_ISSUER_AND_SERIAL_it 00051e80 f   libeay32:pk7_asn1.obj
 0001:00040e8c       PKCS7_ENVELOPE_it          00051e8c f   libeay32:pk7_asn1.obj
 0001:00040eb8       PKCS7_RECIP_INFO_it        00051eb8 f   libeay32:pk7_asn1.obj
 0001:00040ec4       PKCS7_ENC_CONTENT_it       00051ec4 f   libeay32:pk7_asn1.obj
 0001:00040ed0       PKCS7_SIGN_ENVELOPE_it     00051ed0 f   libeay32:pk7_asn1.obj
 0001:00040edc       PKCS7_ENCRYPT_it           00051edc f   libeay32:pk7_asn1.obj
 0001:00040ee8       PKCS7_DIGEST_it            00051ee8 f   libeay32:pk7_asn1.obj
 0001:00040ef4       PKCS7_ATTR_SIGN_it         00051ef4 f   libeay32:pk7_asn1.obj
 0001:00040f00       X509_CINF_it               00051f00 f   libeay32:x_x509.obj
 0001:00040ffc       X509_it                    00051ffc f   libeay32:x_x509.obj
 0001:00041008       X509_free                  00052008 f   libeay32:x_x509.obj
 0001:00041020       X509_REVOKED_it            00052020 f   libeay32:x_crl.obj
 0001:0004102c       X509_CRL_INFO_it           0005202c f   libeay32:x_crl.obj
 0001:000412bc       X509_CRL_it                000522bc f   libeay32:x_crl.obj
 0001:0004173c       X509_get_issuer_name       0005273c f   libeay32:x509_cmp.obj
 0001:00041748       X509_get_subject_name      00052748 f   libeay32:x509_cmp.obj
 0001:00041754       X509_get_serialNumber      00052754 f   libeay32:x509_cmp.obj
 0001:00041760       X509_NAME_cmp              00052760 f   libeay32:x509_cmp.obj
 0001:000417f0       X509_get_pubkey            000527f0 f   libeay32:x509_cmp.obj
 0001:00041824       X509_NAME_ENTRY_it         00052824 f   libeay32:x_name.obj
 0001:00041830       X509_NAME_ENTRY_new        00052830 f   libeay32:x_name.obj
 0001:00041848       X509_NAME_ENTRY_free       00052848 f   libeay32:x_name.obj
 0001:00041860       X509_NAME_ENTRY_dup        00052860 f   libeay32:x_name.obj
 0001:0004187c       X509_NAME_ENTRIES_it       0005287c f   libeay32:x_name.obj
 0001:00041888       X509_NAME_it               00052888 f   libeay32:x_name.obj
 0001:00041894       i2d_X509_NAME              00052894 f   libeay32:x_name.obj
 0001:000418ac       X509_NAME_new              000528ac f   libeay32:x_name.obj
 0001:000418c4       X509_NAME_free             000528c4 f   libeay32:x_name.obj
 0001:000418dc       X509_NAME_dup              000528dc f   libeay32:x_name.obj
 0001:00042168       CMS_IssuerAndSerialNumber_it 00053168 f   libeay32:cms_asn1.obj
 0001:00042174       CMS_OtherCertificateFormat_it 00053174 f   libeay32:cms_asn1.obj
 0001:00042180       CMS_CertificateChoices_it  00053180 f   libeay32:cms_asn1.obj
 0001:0004218c       CMS_SignerIdentifier_it    0005318c f   libeay32:cms_asn1.obj
 0001:00042198       CMS_EncapsulatedContentInfo_it 00053198 f   libeay32:cms_asn1.obj
 0001:000421e0       CMS_SignerInfo_it          000531e0 f   libeay32:cms_asn1.obj
 0001:000421ec       CMS_OtherRevocationInfoFormat_it 000531ec f   libeay32:cms_asn1.obj
 0001:000421f8       CMS_RevocationInfoChoice_it 000531f8 f   libeay32:cms_asn1.obj
 0001:00042204       CMS_SignedData_it          00053204 f   libeay32:cms_asn1.obj
 0001:00042210       CMS_OriginatorInfo_it      00053210 f   libeay32:cms_asn1.obj
 0001:0004221c       CMS_EncryptedContentInfo_it 0005321c f   libeay32:cms_asn1.obj
 0001:00042228       CMS_KeyTransRecipientInfo_it 00053228 f   libeay32:cms_asn1.obj
 0001:00042234       CMS_OtherKeyAttribute_it   00053234 f   libeay32:cms_asn1.obj
 0001:00042240       CMS_RecipientKeyIdentifier_it 00053240 f   libeay32:cms_asn1.obj
 0001:0004224c       CMS_KeyAgreeRecipientIdentifier_it 0005324c f   libeay32:cms_asn1.obj
 0001:00042258       CMS_RecipientEncryptedKey_it 00053258 f   libeay32:cms_asn1.obj
 0001:00042264       CMS_OriginatorPublicKey_it 00053264 f   libeay32:cms_asn1.obj
 0001:00042270       CMS_OriginatorIdentifierOrKey_it 00053270 f   libeay32:cms_asn1.obj
 0001:0004227c       CMS_KeyAgreeRecipientInfo_it 0005327c f   libeay32:cms_asn1.obj
 0001:00042288       CMS_KEKIdentifier_it       00053288 f   libeay32:cms_asn1.obj
 0001:00042294       CMS_KEKRecipientInfo_it    00053294 f   libeay32:cms_asn1.obj
 0001:000422a0       CMS_PasswordRecipientInfo_it 000532a0 f   libeay32:cms_asn1.obj
 0001:000422ac       CMS_OtherRecipientInfo_it  000532ac f   libeay32:cms_asn1.obj
 0001:00042340       CMS_RecipientInfo_it       00053340 f   libeay32:cms_asn1.obj
 0001:0004234c       CMS_EnvelopedData_it       0005334c f   libeay32:cms_asn1.obj
 0001:00042358       CMS_DigestedData_it        00053358 f   libeay32:cms_asn1.obj
 0001:00042364       CMS_EncryptedData_it       00053364 f   libeay32:cms_asn1.obj
 0001:00042370       CMS_AuthenticatedData_it   00053370 f   libeay32:cms_asn1.obj
 0001:0004237c       CMS_CompressedData_it      0005337c f   libeay32:cms_asn1.obj
 0001:00042420       CMS_Attributes_Sign_it     00053420 f   libeay32:cms_asn1.obj
 0001:0004242c       CMS_ReceiptsFrom_it        0005342c f   libeay32:cms_asn1.obj
 0001:00042438       X509_PURPOSE_get0          00053438 f   libeay32:v3_purp.obj
 0001:00042484       X509_PURPOSE_get_by_id     00053484 f   libeay32:v3_purp.obj
 0001:000424ec       X509_supported_extension   000534ec f   libeay32:v3_purp.obj
 0001:00042f64       X509_check_purpose         00053f64 f   libeay32:v3_purp.obj
 0001:00042ffc       ASN1_TIME_it               00053ffc f   libeay32:a_time.obj
 0001:00043008       ASN1_TIME_free             00054008 f   libeay32:a_time.obj
 0001:00043020       ASN1_TIME_adj              00054020 f   libeay32:a_time.obj
 0001:000430f0       ASN1_TIME_check            000540f0 f   libeay32:a_time.obj
 0001:0004312c       CMS_signed_get_attr_count  0005412c f   libeay32:cms_att.obj
 0001:00043140       CMS_signed_get_attr_by_NID 00054140 f   libeay32:cms_att.obj
 0001:00043154       CMS_signed_add1_attr_by_NID 00054154 f   libeay32:cms_att.obj
 0001:00043184       X509_time_adj_ex           00054184 f   libeay32:x509_vfy.obj
 0001:00043220       X509_gmtime_adj            00054220 f   libeay32:x509_vfy.obj
 0001:0004323c       CMS_get0_content           0005423c f   libeay32:cms_lib.obj
 0001:0004332c       cms_DigestAlgorithm_init_bio 0005432c f   libeay32:cms_lib.obj
 0001:000433f4       cms_DigestAlgorithm_find_ctx 000543f4 f   libeay32:cms_lib.obj
 0001:000434c4       cms_content_bio            000544c4 f   libeay32:cms_lib.obj
 0001:00043520       CMS_dataInit               00054520 f   libeay32:cms_lib.obj
 0001:00043624       CMS_dataFinal              00054624 f   libeay32:cms_lib.obj
 0001:0004378c       EVP_SignFinal              0005478c f   libeay32:p_sign.obj
 0001:00043958       DSA_OpenSSL                00054958 f   libeay32:dsa_ossl.obj
 0001:000441a0       ENGINE_get_default_DSA     000551a0 f   libeay32:tb_dsa.obj
 0001:000441bc       ENGINE_get_DSA             000551bc f   libeay32:tb_dsa.obj
 0001:000441c4       BIGNUM_it                  000551c4 f   libeay32:x_bignum.obj
 0001:000441d0       CBIGNUM_it                 000551d0 f   libeay32:x_bignum.obj
 0001:00044310       DSA_do_verify              00055310 f   libeay32:dsa_vrf.obj
 0001:0004432c       X509_NAME_oneline          0005532c f   libeay32:x509_obj.obj
 0001:000451e4       X509_NAME_print_ex         000561e4 f   libeay32:a_strex.obj
 0001:00045228       ASN1_STRING_to_UTF8        00056228 f   libeay32:a_strex.obj
 0001:000452b8       ENGINE_get_default_DH      000562b8 f   libeay32:tb_dh.obj
 0001:000452d4       ENGINE_get_DH              000562d4 f   libeay32:tb_dh.obj
 0001:000452dc       DH_check_pub_key           000562dc f   libeay32:dh_check.obj
 0001:00045378       BN_BLINDING_free           00056378 f   libeay32:bn_blind.obj
 0001:000453d4       BN_BLINDING_invert_ex      000563d4 f   libeay32:bn_blind.obj
 0001:00045458       BN_BLINDING_thread_id      00056458 f   libeay32:bn_blind.obj
 0001:00045460       BN_BLINDING_new            00056460 f   libeay32:bn_blind.obj
 0001:00045554       BN_BLINDING_create_param   00056554 f   libeay32:bn_blind.obj
 0001:00045730       BN_BLINDING_update         00056730 f   libeay32:bn_blind.obj
 0001:00045844       BN_BLINDING_convert_ex     00056844 f   libeay32:bn_blind.obj
 0001:00045914       RSA_PKCS1_SSLeay           00056914 f   libeay32:rsa_eay.obj
 0001:00047134       ENGINE_get_default_RSA     00058134 f   libeay32:tb_rsa.obj
 0001:00047150       ENGINE_get_RSA             00058150 f   libeay32:tb_rsa.obj
 0001:00047158       cms_EncryptedContent_init_bio 00058158 f   libeay32:cms_enc.obj
 0001:00047518       cms_EncryptedData_init_bio 00058518 f   libeay32:cms_enc.obj
 0001:00047548       EVP_PKEY_sign_init         00058548 f   libeay32:pmeth_fn.obj
 0001:000475d8       EVP_PKEY_sign              000585d8 f   libeay32:pmeth_fn.obj
 0001:000476ec       EVP_PKEY_verify_init       000586ec f   libeay32:pmeth_fn.obj
 0001:0004777c       EVP_PKEY_verify            0005877c f   libeay32:pmeth_fn.obj
 0001:00047820       EVP_PKEY_encrypt_init      00058820 f   libeay32:pmeth_fn.obj
 0001:000478b0       EVP_PKEY_encrypt           000588b0 f   libeay32:pmeth_fn.obj
 0001:000479c4       AES_wrap_key               000589c4 f   libeay32:aes_wrap.obj
 0001:00047ae0       AES_set_encrypt_key        00058ae0 f   libeay32:aes_misc.obj
 0001:00047d70       cms_RecipientInfo_pwri_crypt 00058d70 f   libeay32:cms_pwri.obj
 0001:000480e0       ASN1_ENUMERATED_get        000590e0 f   libeay32:a_enum.obj
 0001:00048174       ASN1_ENUMERATED_to_BN      00059174 f   libeay32:a_enum.obj
 0001:000481e8       X509_NAME_entry_count      000591e8 f   libeay32:x509name.obj
 0001:0004820c       X509_NAME_get_index_by_OBJ 0005920c f   libeay32:x509name.obj
 0001:00048278       X509_NAME_get_entry        00059278 f   libeay32:x509name.obj
 0001:000482c0       X509_NAME_delete_entry     000592c0 f   libeay32:x509name.obj
 0001:00048394       X509_NAME_add_entry        00059394 f   libeay32:x509name.obj
 0001:00048500       X509_NAME_ENTRY_set_object 00059500 f   libeay32:x509name.obj
 0001:00048574       X509_NAME_ENTRY_set_data   00059574 f   libeay32:x509name.obj
 0001:00048654       X509_NAME_ENTRY_get_object 00059654 f   libeay32:x509name.obj
 0001:00048664       X509_NAME_ENTRY_get_data   00059664 f   libeay32:x509name.obj
 0001:00048674       X509_NAME_get_index_by_NID 00059674 f   libeay32:x509name.obj
 0001:000486b0       X509_NAME_ENTRY_create_by_OBJ 000596b0 f   libeay32:x509name.obj
 0001:0004875c       X509_NAME_ENTRY_create_by_txt 0005975c f   libeay32:x509name.obj
 0001:00048800       X509_NAME_add_entry_by_txt 00059800 f   libeay32:x509name.obj
 0001:00048858       ACCESS_DESCRIPTION_it      00059858 f   libeay32:v3_info.obj
 0001:00048864       ACCESS_DESCRIPTION_free    00059864 f   libeay32:v3_info.obj
 0001:0004887c       AUTHORITY_INFO_ACCESS_it   0005987c f   libeay32:v3_info.obj
 0001:00048bd0       X509_CRL_get_ext_d2i       00059bd0 f   libeay32:x509_ext.obj
 0001:00048be8       X509_get_ext_count         00059be8 f   libeay32:x509_ext.obj
 0001:00048c00       X509_get_ext_by_NID        00059c00 f   libeay32:x509_ext.obj
 0001:00048c18       X509_get_ext               00059c18 f   libeay32:x509_ext.obj
 0001:00048c30       X509_get_ext_d2i           00059c30 f   libeay32:x509_ext.obj
 0001:00048c48       X509_REVOKED_get_ext_d2i   00059c48 f   libeay32:x509_ext.obj
 0001:00048c5c       CONF_parse_list            00059c5c f   libeay32:conf_mod.obj
 0001:00048d88       OTHERNAME_it               00059d88 f   libeay32:v3_genn.obj
 0001:00048d94       OTHERNAME_new              00059d94 f   libeay32:v3_genn.obj
 0001:00048dac       EDIPARTYNAME_it            00059dac f   libeay32:v3_genn.obj
 0001:00048db8       GENERAL_NAME_it            00059db8 f   libeay32:v3_genn.obj
 0001:00048dc4       GENERAL_NAME_new           00059dc4 f   libeay32:v3_genn.obj
 0001:00048ddc       GENERAL_NAME_free          00059ddc f   libeay32:v3_genn.obj
 0001:00048df4       GENERAL_NAMES_it           00059df4 f   libeay32:v3_genn.obj
 0001:00048e00       GENERAL_NAMES_new          00059e00 f   libeay32:v3_genn.obj
 0001:00048e18       GENERAL_NAMES_free         00059e18 f   libeay32:v3_genn.obj
 0001:00048e30       X509_EXTENSION_it          00059e30 f   libeay32:x_exten.obj
 0001:00048e54       X509V3_EXT_get_nid         00059e54 f   libeay32:v3_lib.obj
 0001:00048ee4       X509V3_EXT_d2i             00059ee4 f   libeay32:v3_lib.obj
 0001:00048f74       X509V3_get_d2i             00059f74 f   libeay32:v3_lib.obj
 0001:00049070       d2i_ECDSA_SIG              0005a070 f   libeay32:ecs_asn1.obj
 0001:00049088       i2d_ECDSA_SIG              0005a088 f   libeay32:ecs_asn1.obj
 0001:000490a0       ECDSA_SIG_new              0005a0a0 f   libeay32:ecs_asn1.obj
 0001:000490b8       ECDSA_SIG_free             0005a0b8 f   libeay32:ecs_asn1.obj
 0001:00049228       ecdh_check                 0005a228 f   libeay32:ech_lib.obj
 0001:000492a4       PKCS1_MGF1                 0005a2a4 f   libeay32:rsa_oaep.obj
 0001:000493cc       RSA_padding_add_PKCS1_OAEP 0005a3cc f   libeay32:rsa_oaep.obj
 0001:000495c4       RSA_padding_check_PKCS1_OAEP 0005a5c4 f   libeay32:rsa_oaep.obj
 0001:00049834       PKCS5_PBKDF2_HMAC          0005a834 f   libeay32:p5_crpt2.obj
 0001:000499fc       PKCS5_v2_PBKDF2_keyivgen   0005a9fc f   libeay32:p5_crpt2.obj
 0001:00049c9c       PKCS5_v2_PBE_keyivgen      0005ac9c f   libeay32:p5_crpt2.obj
 0001:00049e58       PKCS12_PBE_keyivgen        0005ae58 f   libeay32:p12_crpt.obj
 0001:0004a04c       PKCS5_PBE_keyivgen         0005b04c f   libeay32:p5_crpt.obj
 0001:0004a304       ENGINE_get_cipher_engine   0005b304 f   libeay32:tb_cipher.obj
 0001:0004a320       ENGINE_get_cipher          0005b320 f   libeay32:tb_cipher.obj
 0001:0004a384       BUF_MEM_new                0005b384 f   libeay32:buffer.obj
 0001:0004a3e8       BUF_MEM_free               0005b3e8 f   libeay32:buffer.obj
 0001:0004a428       BUF_MEM_grow               0005b428 f   libeay32:buffer.obj
 0001:0004a530       BUF_MEM_grow_clean         0005b530 f   libeay32:buffer.obj
 0001:0004a64c       asn1_get_choice_selector   0005b64c f   libeay32:tasn_utl.obj
 0001:0004a65c       asn1_set_choice_selector   0005b65c f   libeay32:tasn_utl.obj
 0001:0004a678       asn1_do_lock               0005b678 f   libeay32:tasn_utl.obj
 0001:0004a6fc       asn1_enc_init              0005b6fc f   libeay32:tasn_utl.obj
 0001:0004a754       asn1_enc_free              0005b754 f   libeay32:tasn_utl.obj
 0001:0004a7c8       asn1_enc_save              0005b7c8 f   libeay32:tasn_utl.obj
 0001:0004a874       asn1_enc_restore           0005b874 f   libeay32:tasn_utl.obj
 0001:0004a91c       asn1_get_field_ptr         0005b91c f   libeay32:tasn_utl.obj
 0001:0004a934       asn1_do_adb                0005b934 f   libeay32:tasn_utl.obj
 0001:0004ace0       PKCS7_dataInit             0005bce0 f   libeay32:pk7_doit.obj
 0001:0004b204       PKCS7_SIGNER_INFO_sign     0005c204 f   libeay32:pk7_doit.obj
 0001:0004b574       PKCS7_add_signed_attribute 0005c574 f   libeay32:pk7_doit.obj
 0001:0004b68c       PKCS7_dataFinal            0005c68c f   libeay32:pk7_doit.obj
 0001:0004bab8       X509_VAL_it                0005cab8 f   libeay32:x_val.obj
 0001:0004bac4       GENERAL_SUBTREE_it         0005cac4 f   libeay32:v3_ncons.obj
 0001:0004bad0       NAME_CONSTRAINTS_it        0005cad0 f   libeay32:v3_ncons.obj
 0001:0004badc       NAME_CONSTRAINTS_free      0005cadc f   libeay32:v3_ncons.obj
 0001:0004beb4       policy_cache_free          0005ceb4 f   libeay32:pcy_cache.obj
 0001:0004c1d0       DIST_POINT_NAME_it         0005d1d0 f   libeay32:v3_crld.obj
 0001:0004c1dc       DIST_POINT_it              0005d1dc f   libeay32:v3_crld.obj
 0001:0004c1e8       DIST_POINT_free            0005d1e8 f   libeay32:v3_crld.obj
 0001:0004c200       CRL_DIST_POINTS_it         0005d200 f   libeay32:v3_crld.obj
 0001:0004c20c       CRL_DIST_POINTS_free       0005d20c f   libeay32:v3_crld.obj
 0001:0004c224       ISSUING_DIST_POINT_it      0005d224 f   libeay32:v3_crld.obj
 0001:0004c230       ISSUING_DIST_POINT_free    0005d230 f   libeay32:v3_crld.obj
 0001:0004c578       DIST_POINT_set_dpname      0005d578 f   libeay32:v3_crld.obj
 0001:0004cca0       AUTHORITY_KEYID_it         0005dca0 f   libeay32:v3_akeya.obj
 0001:0004ccac       AUTHORITY_KEYID_new        0005dcac f   libeay32:v3_akeya.obj
 0001:0004ccc4       AUTHORITY_KEYID_free       0005dcc4 f   libeay32:v3_akeya.obj
 0001:0004ccdc       X509_CERT_AUX_free         0005dcdc f   libeay32:x_x509a.obj
 0001:0004ccf4       ASN1_item_verify           0005dcf4 f   libeay32:a_verify.obj
 0001:0004cf94       X509_digest                0005df94 f   libeay32:x_all.obj
 0001:0004cfd0       X509_CRL_digest            0005dfd0 f   libeay32:x_all.obj
 0001:0004d050       CMS_stream                 0005e050 f   libeay32:cms_io.obj
 0001:0004d0ec       X509v3_get_ext_count       0005e0ec f   libeay32:x509_v3.obj
 0001:0004d10c       X509v3_get_ext_by_OBJ      0005e10c f   libeay32:x509_v3.obj
 0001:0004d170       X509v3_get_ext             0005e170 f   libeay32:x509_v3.obj
 0001:0004d1b8       X509_EXTENSION_get_object  0005e1b8 f   libeay32:x509_v3.obj
 0001:0004d1c8       X509_EXTENSION_get_critical 0005e1c8 f   libeay32:x509_v3.obj
 0001:0004d1e8       X509v3_get_ext_by_NID      0005e1e8 f   libeay32:x509_v3.obj
 0001:0004d224       PROXY_POLICY_it            0005e224 f   libeay32:v3_pcia.obj
 0001:0004d230       PROXY_CERT_INFO_EXTENSION_it 0005e230 f   libeay32:v3_pcia.obj
 0001:0004d23c       PROXY_CERT_INFO_EXTENSION_new 0005e23c f   libeay32:v3_pcia.obj
 0001:0004d254       PROXY_CERT_INFO_EXTENSION_free 0005e254 f   libeay32:v3_pcia.obj
 0001:0004d26c       BASIC_CONSTRAINTS_it       0005e26c f   libeay32:v3_bcons.obj
 0001:0004d278       BASIC_CONSTRAINTS_free     0005e278 f   libeay32:v3_bcons.obj
 0001:0004d41c       ASN1_GENERALIZEDTIME_check 0005e41c f   libeay32:a_gentm.obj
 0001:0004d5f8       ASN1_GENERALIZEDTIME_adj   0005e5f8 f   libeay32:a_gentm.obj
 0001:0004d73c       ASN1_UTCTIME_check         0005e73c f   libeay32:a_utctm.obj
 0001:0004d8c8       ASN1_UTCTIME_adj           0005e8c8 f   libeay32:a_utctm.obj
 0001:0004da38       OPENSSL_gmtime             0005ea38 f   libeay32:o_time.obj
 0001:0004dbb0       OPENSSL_gmtime_adj         0005ebb0 f   libeay32:o_time.obj
 0001:0004ddc8       X509at_get_attr_count      0005edc8 f   libeay32:x509_att.obj
 0001:0004ddd8       X509at_get_attr_by_OBJ     0005edd8 f   libeay32:x509_att.obj
 0001:0004de3c       X509at_add1_attr           0005ee3c f   libeay32:x509_att.obj
 0001:0004df10       X509_ATTRIBUTE_set1_object 0005ef10 f   libeay32:x509_att.obj
 0001:0004df54       X509_ATTRIBUTE_set1_data   0005ef54 f   libeay32:x509_att.obj
 0001:0004e0c8       X509at_get_attr_by_NID     0005f0c8 f   libeay32:x509_att.obj
 0001:0004e104       X509_ATTRIBUTE_create_by_OBJ 0005f104 f   libeay32:x509_att.obj
 0001:0004e1d8       X509_ATTRIBUTE_create_by_NID 0005f1d8 f   libeay32:x509_att.obj
 0001:0004e25c       X509at_add1_attr_by_NID    0005f25c f   libeay32:x509_att.obj
 0001:0004e448       BIO_f_md                   0005f448 f   libeay32:bio_md.obj
 0001:0004e7b4       BIO_s_mem                  0005f7b4 f   libeay32:bss_mem.obj
 0001:0004e7c0       BIO_new_mem_buf            0005f7c0 f   libeay32:bss_mem.obj
 0001:0004ec4c       BIO_s_null                 0005fc4c f   libeay32:bss_null.obj
 0001:0004ed00       cms_DigestedData_init_bio  0005fd00 f   libeay32:cms_dd.obj
 0001:0004ed18       cms_DigestedData_do_final  0005fd18 f   libeay32:cms_dd.obj
 0001:0004ee18       BN_mod_exp2_mont           0005fe18 f   libeay32:bn_exp2.obj
 0001:0004f4cc       ASN1_tag2str               000604cc f   libeay32:asn1_par.obj
 0001:0004f50c       UTF8_getc                  0006050c f   libeay32:a_utf8.obj
 0001:0004f810       UTF8_putc                  00060810 f   libeay32:a_utf8.obj
 0001:0004fcfc       ASN1_mbstring_ncopy        00060cfc f   libeay32:a_mbstr.obj
 0001:000501ec       ASN1_mbstring_copy         000611ec f   libeay32:a_mbstr.obj
 0001:00050218       RSA_padding_add_PKCS1_type_1 00061218 f   libeay32:rsa_pk1.obj
 0001:000502ac       RSA_padding_check_PKCS1_type_1 000612ac f   libeay32:rsa_pk1.obj
 0001:000503f4       RSA_padding_add_PKCS1_type_2 000613f4 f   libeay32:rsa_pk1.obj
 0001:000504cc       RSA_padding_check_PKCS1_type_2 000614cc f   libeay32:rsa_pk1.obj
 0001:000505e0       RSA_padding_add_SSLv23     000615e0 f   libeay32:rsa_ssl.obj
 0001:000506c8       RSA_padding_check_SSLv23   000616c8 f   libeay32:rsa_ssl.obj
 0001:00050838       RSA_padding_add_none       00061838 f   libeay32:rsa_none.obj
 0001:000508b8       RSA_padding_check_none     000618b8 f   libeay32:rsa_none.obj
 0001:00050934       BIO_f_cipher               00061934 f   libeay32:bio_enc.obj
 0001:00050f0c       private_AES_set_encrypt_key 00061f0c f   libeay32:aes_core.obj
 0001:000514f0       AES_encrypt                000624f0 f   libeay32:aes_core.obj
 0001:00051c74       d2i_PBE2PARAM              00062c74 f   libeay32:p5_pbev2.obj
 0001:00051c8c       PBE2PARAM_free             00062c8c f   libeay32:p5_pbev2.obj
 0001:00051ca4       d2i_PBKDF2PARAM            00062ca4 f   libeay32:p5_pbev2.obj
 0001:00051cbc       PBKDF2PARAM_free           00062cbc f   libeay32:p5_pbev2.obj
 0001:00051cd4       ASN1_PRINTABLE_type        00062cd4 f   libeay32:a_print.obj
 0001:00051de8       ASN1_STRING_TABLE_get      00062de8 f   libeay32:a_strnid.obj
 0001:00051e64       ASN1_STRING_set_by_NID     00062e64 f   libeay32:a_strnid.obj
 0001:00051f24       i2v_GENERAL_NAME           00062f24 f   libeay32:v3_alt.obj
 0001:000520f4       GENERAL_NAME_print         000630f4 f   libeay32:v3_alt.obj
 0001:000526f8       i2v_GENERAL_NAMES          000636f8 f   libeay32:v3_alt.obj
 0001:0005276c       a2i_GENERAL_NAME           0006376c f   libeay32:v3_alt.obj
 0001:000529f4       v2i_GENERAL_NAME_ex        000639f4 f   libeay32:v3_alt.obj
 0001:00052b68       v2i_GENERAL_NAME           00063b68 f   libeay32:v3_alt.obj
 0001:00052e24       v2i_GENERAL_NAMES          00063e24 f   libeay32:v3_alt.obj
 0001:00052ef4       DSO_convert_filename       00063ef4 f   libeay32:dso_lib.obj
 0001:00053034       CONF_set_nconf             00064034 f   libeay32:conf_lib.obj
 0001:00053078       NCONF_get_section          00064078 f   libeay32:conf_lib.obj
 0001:000530f4       NCONF_get_string           000640f4 f   libeay32:conf_lib.obj
 0001:0005318c       CONF_get_section           0006418c f   libeay32:conf_lib.obj
 0001:000531c8       CONF_get_string            000641c8 f   libeay32:conf_lib.obj
 0001:0005320c       CONF_free                  0006420c f   libeay32:conf_lib.obj
 0001:00053254       POLICY_MAPPING_it          00064254 f   libeay32:v3_pmaps.obj
 0001:00053260       POLICY_MAPPINGS_it         00064260 f   libeay32:v3_pmaps.obj
 0001:0005326c       POLICY_MAPPING_free        0006426c f   libeay32:v3_pmaps.obj
 0001:000544d0       POLICY_CONSTRAINTS_it      000654d0 f   libeay32:v3_pcons.obj
 0001:00054690       EXTENDED_KEY_USAGE_it      00065690 f   libeay32:v3_extku.obj
 0001:00054830       SXNETID_it                 00065830 f   libeay32:v3_sxnet.obj
 0001:0005483c       SXNET_it                   0006583c f   libeay32:v3_sxnet.obj
 0001:00054918       SXNET_get_id_INTEGER       00065918 f   libeay32:v3_sxnet.obj
 0001:00054988       SXNET_add_id_INTEGER       00065988 f   libeay32:v3_sxnet.obj
 0001:00054b30       SXNET_add_id_asc           00065b30 f   libeay32:v3_sxnet.obj
 0001:00054c1c       i2s_ASN1_ENUMERATED_TABLE  00065c1c f   libeay32:v3_enum.obj
 0001:00055010       CERTIFICATEPOLICIES_it     00066010 f   libeay32:v3_cpols.obj
 0001:0005501c       POLICYINFO_it              0006601c f   libeay32:v3_cpols.obj
 0001:00055028       POLICYINFO_free            00066028 f   libeay32:v3_cpols.obj
 0001:0005504c       POLICYQUALINFO_it          0006604c f   libeay32:v3_cpols.obj
 0001:00055058       POLICYQUALINFO_free        00066058 f   libeay32:v3_cpols.obj
 0001:00055070       USERNOTICE_it              00066070 f   libeay32:v3_cpols.obj
 0001:0005507c       NOTICEREF_it               0006607c f   libeay32:v3_cpols.obj
 0001:00055d10       PKEY_USAGE_PERIOD_it       00066d10 f   libeay32:v3_pku.obj
 0001:00055dcc       i2v_ASN1_BIT_STRING        00066dcc f   libeay32:v3_bitst.obj
 0001:00055e30       v2i_ASN1_BIT_STRING        00066e30 f   libeay32:v3_bitst.obj
 0001:00055fb0       i2s_ASN1_OCTET_STRING      00066fb0 f   libeay32:v3_skey.obj
 0001:00055fcc       s2i_ASN1_OCTET_STRING      00066fcc f   libeay32:v3_skey.obj
 0001:000562f8       X509V3_get_section         000672f8 f   libeay32:v3_conf.obj
 0001:00056368       X509V3_section_free        00067368 f   libeay32:v3_conf.obj
 0001:00056404       X509_REQ_INFO_it           00067404 f   libeay32:x_req.obj
 0001:00056410       ECDH_OpenSSL               00067410 f   libeay32:ech_ossl.obj
 0001:00056768       ENGINE_get_default_ECDH    00067768 f   libeay32:tb_ecdh.obj
 0001:00056784       ENGINE_get_ECDH            00067784 f   libeay32:tb_ecdh.obj
 0001:0005678c       d2i_PBEPARAM               0006778c f   libeay32:p5_pbe.obj
 0001:000567a4       PBEPARAM_free              000677a4 f   libeay32:p5_pbe.obj
 0001:000567bc       PKCS12_key_gen_uni         000677bc f   libeay32:p12_key.obj
 0001:00056cbc       PKCS12_key_gen_asc         00067cbc f   libeay32:p12_key.obj
 0001:00056d94       PKCS7_add0_attrib_signing_time 00067d94 f   libeay32:pk7_attr.obj
 0001:00056e04       PKCS7_add1_attrib_digest   00067e04 f   libeay32:pk7_attr.obj
 0001:00056e70       policy_data_free           00067e70 f   libeay32:pcy_data.obj
 0001:00056eb8       NETSCAPE_SPKAC_it          00067eb8 f   libeay32:x_spki.obj
 0001:00056ec4       ASN1_item_digest           00067ec4 f   libeay32:a_digest.obj
 0001:00056f44       MD5_Init                   00067f44 f   libeay32:md5_dgst.obj
 0001:00056f94       md5_block_data_order       00067f94 f   libeay32:md5_dgst.obj
 0001:00057b90       MD5_Update                 00068b90 f   libeay32:md5_dgst.obj
 0001:00057c98       MD5_Final                  00068c98 f   libeay32:md5_dgst.obj
 0001:00058a58       ASN1_generate_v3           00069a58 f   libeay32:asn1_gen.obj
 0001:00058e88       NCONF_default              00069e88 f   libeay32:conf_def.obj
 0001:00059e08       _CONF_get_section          0006ae08 f   libeay32:conf_api.obj
 0001:00059e50       _CONF_get_section_values   0006ae50 f   libeay32:conf_api.obj
 0001:00059e70       _CONF_add_string           0006ae70 f   libeay32:conf_api.obj
 0001:00059ee8       _CONF_get_string           0006aee8 f   libeay32:conf_api.obj
 0001:0005a04c       _CONF_new_data             0006b04c f   libeay32:conf_api.obj
 0001:0005a09c       _CONF_new_section          0006b09c f   libeay32:conf_api.obj
 0001:0005a20c       _CONF_free_data            0006b20c f   libeay32:conf_api.obj
 0001:0005a260       OCSP_SIGNATURE_it          0006b260 f   libeay32:ocsp_asn.obj
 0001:0005a26c       OCSP_CERTID_it             0006b26c f   libeay32:ocsp_asn.obj
 0001:0005a278       OCSP_ONEREQ_it             0006b278 f   libeay32:ocsp_asn.obj
 0001:0005a284       OCSP_REQINFO_it            0006b284 f   libeay32:ocsp_asn.obj
 0001:0005a290       OCSP_RESPBYTES_it          0006b290 f   libeay32:ocsp_asn.obj
 0001:0005a29c       OCSP_RESPID_it             0006b29c f   libeay32:ocsp_asn.obj
 0001:0005a2a8       OCSP_REVOKEDINFO_it        0006b2a8 f   libeay32:ocsp_asn.obj
 0001:0005a2b4       OCSP_CERTSTATUS_it         0006b2b4 f   libeay32:ocsp_asn.obj
 0001:0005a2c0       OCSP_SINGLERESP_it         0006b2c0 f   libeay32:ocsp_asn.obj
 0001:0005a2cc       OCSP_RESPDATA_it           0006b2cc f   libeay32:ocsp_asn.obj
 0001:0005a2d8       OCSP_CRLID_it              0006b2d8 f   libeay32:ocsp_asn.obj
 0001:0005a2e4       OCSP_SERVICELOC_it         0006b2e4 f   libeay32:ocsp_asn.obj
 0001:0005a2f0       i2a_ASN1_STRING            0006b2f0 f   libeay32:f_string.obj
 0001:0005a40c       OPENSSL_asc2uni            0006b40c f   libeay32:p12_utl.obj
 0001:0005a4ac       EVP_EncodeInit             0006b4ac f   libeay32:encode.obj
 0001:0005a4c4       EVP_EncodeBlock            0006b4c4 f   libeay32:encode.obj
 0001:0005a5a4       EVP_DecodeInit             0006b5a4 f   libeay32:encode.obj
 0001:0005a5c0       EVP_DecodeBlock            0006b5c0 f   libeay32:encode.obj
 0001:0005a6e4       EVP_EncodeUpdate           0006b6e4 f   libeay32:encode.obj
 0001:0005a810       EVP_EncodeFinal            0006b810 f   libeay32:encode.obj
 0001:0005a864       EVP_DecodeUpdate           0006b864 f   libeay32:encode.obj
 0001:0005d73c       PKCS12_MAC_DATA_it         0006e73c f   libeay32:p12_asn.obj
 0001:0005d754       PKCS12_BAGS_it             0006e754 f   libeay32:p12_asn.obj
 0001:0005d76c       PKCS12_SAFEBAG_it          0006e76c f   libeay32:p12_asn.obj
 0001:0005d778       UI_get_string_type         0006e778 f   libeay32:ui_lib.obj
 0001:0005d788       UI_get_input_flags         0006e788 f   libeay32:ui_lib.obj
 0001:0005d798       UI_get0_output_string      0006e798 f   libeay32:ui_lib.obj
 0001:0005d7a8       UI_get0_action_string      0006e7a8 f   libeay32:ui_lib.obj
 0001:0005d7d4       UI_get0_result_string      0006e7d4 f   libeay32:ui_lib.obj
 0001:0005d7f8       UI_get0_test_string        0006e7f8 f   libeay32:ui_lib.obj
 0001:0005da64       getenv                     0006ea64 f   wcecompatex:env.obj
 0001:0005de30       w32_filetime_to_time_t     0006ee30 f   wcecompatex:time.obj
 0001:0005ded0       time                       0006eed0 f   wcecompatex:time.obj
 0001:0005df34       dayOfYear                  0006ef34 f   wcecompatex:time.obj
 0001:0005e008       localtime                  0006f008 f   wcecompatex:time.obj
 0001:0005e130       gmtime                     0006f130 f   wcecompatex:time.obj
 0001:0005e1f0       strerror                   0006f1f0 f   wcecompatex:string_extras.obj
 0001:0005e214       raise                      0006f214 f   wcecompatex:signal.obj
 0001:0005e21c       ?unicode2ascii@@YAXPB_WPAD@Z 0006f21c f   wcecompatex:ts_string.obj
 0001:0005e270       ?ascii2unicode@@YAXPBDPA_WH@Z 0006f270 f   wcecompatex:ts_string.obj
 0001:0005e310       ?unicode2ascii@@YAXPB_WPADH@Z 0006f310 f   wcecompatex:ts_string.obj
 0001:0005e3a0       fflush                     0006f3a0 f   coredll:COREDLL.dll
 0001:0005e3b0       fprintf                    0006f3b0 f   coredll:COREDLL.dll
 0001:0005e3c0       _getstdfilex               0006f3c0 f   coredll:COREDLL.dll
 0001:0005e3d0       puts                       0006f3d0 f   coredll:COREDLL.dll
 0001:0005e3e0       strcmp                     0006f3e0 f   coredll:COREDLL.dll
 0001:0005e3f0       memcpy                     0006f3f0 f   coredll:COREDLL.dll
 0001:0005e400       memset                     0006f400 f   coredll:COREDLL.dll
 0001:0005e410       strlen                     0006f410 f   coredll:COREDLL.dll
 0001:0005e420       _isctype                   0006f420 f   coredll:COREDLL.dll
 0001:0005e430       free                       0006f430 f   coredll:COREDLL.dll
 0001:0005e440       realloc                    0006f440 f   coredll:COREDLL.dll
 0001:0005e450       malloc                     0006f450 f   coredll:COREDLL.dll
 0001:0005e460       strcpy                     0006f460 f   coredll:COREDLL.dll
 0001:0005e470       memcmp                     0006f470 f   coredll:COREDLL.dll
 0001:0005e480       strncpy                    0006f480 f   coredll:COREDLL.dll
 0001:0005e490       strchr                     0006f490 f   coredll:COREDLL.dll
 0001:0005e4a0       memchr                     0006f4a0 f   coredll:COREDLL.dll
 0001:0005e4b0       MessageBoxW                0006f4b0 f   coredll:COREDLL.dll
 0001:0005e4c0       _vsnwprintf                0006f4c0 f   coredll:COREDLL.dll
 0001:0005e4d0       MultiByteToWideChar        0006f4d0 f   coredll:COREDLL.dll
 0001:0005e4e0       fclose                     0006f4e0 f   coredll:COREDLL.dll
 0001:0005e4f0       GetLastError               0006f4f0 f   coredll:COREDLL.dll
 0001:0005e500       ferror                     0006f500 f   coredll:COREDLL.dll
 0001:0005e510       fread                      0006f510 f   coredll:COREDLL.dll
 0001:0005e520       fwrite                     0006f520 f   coredll:COREDLL.dll
 0001:0005e530       _setmode                   0006f530 f   coredll:COREDLL.dll
 0001:0005e540       _fileno                    0006f540 f   coredll:COREDLL.dll
 0001:0005e550       fopen                      0006f550 f   coredll:COREDLL.dll
 0001:0005e560       fseek                      0006f560 f   coredll:COREDLL.dll
 0001:0005e570       ftell                      0006f570 f   coredll:COREDLL.dll
 0001:0005e580       feof                       0006f580 f   coredll:COREDLL.dll
 0001:0005e590       strcat                     0006f590 f   coredll:COREDLL.dll
 0001:0005e5a0       fgets                      0006f5a0 f   coredll:COREDLL.dll
 0001:0005e5b0       _wfopen                    0006f5b0 f   coredll:COREDLL.dll
 0001:0005e5c0       qsort                      0006f5c0 f   coredll:COREDLL.dll
 0001:0005e5d0       _strnicmp                  0006f5d0 f   coredll:COREDLL.dll
 0001:0005e5e0       GetTickCount               0006f5e0 f   coredll:COREDLL.dll
 0001:0005e5f0       QueryPerformanceCounter    0006f5f0 f   coredll:COREDLL.dll
 0001:0005e600       GlobalMemoryStatus         0006f600 f   coredll:COREDLL.dll
 0001:0005e610       CryptReleaseContext        0006f610 f   coredll:COREDLL.dll
 0001:0005e620       CryptGenRandom             0006f620 f   coredll:COREDLL.dll
 0001:0005e630       CryptAcquireContextW       0006f630 f   coredll:COREDLL.dll
 0001:0005e640       GetVersionExW              0006f640 f   coredll:COREDLL.dll
 0001:0005e650       atoi                       0006f650 f   coredll:COREDLL.dll
 0001:0005e660       tolower                    0006f660 f   coredll:COREDLL.dll
 0001:0005e670       strncmp                    0006f670 f   coredll:COREDLL.dll
 0001:0005e680       sscanf                     0006f680 f   coredll:COREDLL.dll
 0001:0005e690       strrchr                    0006f690 f   coredll:COREDLL.dll
 0001:0005e6a0       _stricmp                   0006f6a0 f   coredll:COREDLL.dll
 0001:0005e6b0       memmove                    0006f6b0 f   coredll:COREDLL.dll
 0001:0005e6c0       strtoul                    0006f6c0 f   coredll:COREDLL.dll
 0001:0005e6d0       LoadLibraryW               0006f6d0 f   coredll:COREDLL.dll
 0001:0005e6e0       SetLastError               0006f6e0 f   coredll:COREDLL.dll
 0001:0005e6f0       FreeLibrary                0006f6f0 f   coredll:COREDLL.dll
 0001:0005e700       GetProcAddressA            0006f700 f   coredll:COREDLL.dll
 0001:0005e710       sprintf                    0006f710 f   coredll:COREDLL.dll
 0001:0005e720       strstr                     0006f720 f   coredll:COREDLL.dll
 0001:0005e730       WideCharToMultiByte        0006f730 f   coredll:COREDLL.dll
 0001:0005e740       fputs                      0006f740 f   coredll:COREDLL.dll
 0001:0005e750       SystemTimeToFileTime       0006f750 f   coredll:COREDLL.dll
 0001:0005e760       GetSystemTime              0006f760 f   coredll:COREDLL.dll
 0001:0005e770       GetTimeZoneInformation     0006f770 f   coredll:COREDLL.dll
 0001:0005e780       FileTimeToSystemTime       0006f780 f   coredll:COREDLL.dll
 0001:0005e790       FileTimeToLocalFileTime    0006f790 f   coredll:COREDLL.dll
 0001:0005e7a0       _cinit                     0006f7a0 f   corelibc:crt0dat.obj
 0001:0005e910       exit                       0006f910 f   corelibc:crt0dat.obj
 0001:0005e928       _exit                      0006f928 f   corelibc:crt0dat.obj
 0001:0005e948       WinMainCRTStartup          0006f948 f   corelibc:pegwmain.obj
 0001:0005e9bc       WinMain                    0006f9bc f   wcecompatex:winmain.obj
 0001:0005ed18       ?processCmdLine@@YAHPA_WPAPAPAD@Z 0006fd18 f   wcecompatex:args.obj
 0001:0005f154       LocalFree                  00070154 f   coredll:COREDLL.dll
 0001:0005f164       _XcptFilter                00070164 f   coredll:COREDLL.dll
 0001:0005f174       __C_specific_handler       00070174 f   coredll:COREDLL.dll
 0001:0005f184       FindFirstFileW             00070184 f   coredll:COREDLL.dll
 0001:0005f194       FindClose                  00070194 f   coredll:COREDLL.dll
 0001:0005f1a4       FindNextFileW              000701a4 f   coredll:COREDLL.dll
 0001:0005f1b4       GetModuleFileNameW         000701b4 f   coredll:COREDLL.dll
 0002:00000040       ??_C@_03DJDALPN@ok?6?$AA@  00071040     ectest.obj
 0002:00000044       ??_C@_04CFDEAMPI@?5ok?6?$AA@ 00071044     ectest.obj
 0002:0000004c       ??_C@_0CA@LONHOMKM@long?1negative?5scalar?5tests?5?4?4?4?5?$AA@ 0007104c     ectest.obj
 0002:0000006c       ??_C@_01LFCBOECM@?4?$AA@   0007106c     ectest.obj
 0002:00000070       ??_C@_0EL@LPAMEPDF@d?3?2wm653wehh?2platform?2mvv210?2src@ 00071070     ectest.obj
 0002:000000bc       ??_C@_0O@HJBMECNK@?$CFs?3?$CFd?3?5ABORT?6?$AA@ 000710bc     ectest.obj
 0002:000000cc       ??_C@_0BH@KFBLJBMM@verify?5group?5order?5?4?4?4?$AA@ 000710cc     ectest.obj
 0002:000000e4       ??_C@_05EJKMKGKI@?5ok?6?6?$AA@ 000710e4     ectest.obj
 0002:000000ec       ??_C@_0BM@GCECKGMN@combined?5multiplication?5?4?4?4?$AA@ 000710ec     ectest.obj
 0002:00000108       ??_C@_0CM@LPEONNGM@?6NIST?5curve?5P?9521?5?9?9?5Generator?3?6@ 00071108     ectest.obj
 0002:00000138       ??_C@_0IE@IAAHKDDH@11839296A789A3BC0045C8A5FB42C7D1@ 00071138     ectest.obj
 0002:000001c0       ??_C@_0IE@DDIDDIA@1FFFFFFFFFFFFFFFFFFFFFFFFFFFFFFF@ 000711c0     ectest.obj
 0002:00000248       ??_C@_0ID@OOGMNGNF@C6858E06B70404E9CD9E3ECB662395B4@ 00071248     ectest.obj
 0002:000002d0       ??_C@_0IE@GOJLJCKA@051953EB9618E1C9A1F929A21A0B6854@ 000712d0     ectest.obj
 0002:00000358       ??_C@_0IE@MECPOLCO@1FFFFFFFFFFFFFFFFFFFFFFFFFFFFFFF@ 00071358     ectest.obj
 0002:000003e0       ??_C@_0IE@LJFIBPGL@1FFFFFFFFFFFFFFFFFFFFFFFFFFFFFFF@ 000713e0     ectest.obj
 0002:00000464       ??_C@_0CM@FJLNOJNP@?6NIST?5curve?5P?9384?5?9?9?5Generator?3?6@ 00071464     ectest.obj
 0002:00000490       ??_C@_0GB@EJCCOFND@3617DE4A96262C6F5D9E98BF9292DC29@ 00071490     ectest.obj
 0002:000004f8       ??_C@_0GB@IJGNFOHD@FFFFFFFFFFFFFFFFFFFFFFFFFFFFFFFF@ 000714f8     ectest.obj
 0002:00000560       ??_C@_0GB@GJBBIIPB@AA87CA22BE8B05378EB1C71EF320AD74@ 00071560     ectest.obj
 0002:000005c8       ??_C@_0GB@GBMGBGKN@B3312FA7E23EE7E4988E056BE3F82D19@ 000715c8     ectest.obj
 0002:00000630       ??_C@_0GB@KNLAOKCG@FFFFFFFFFFFFFFFFFFFFFFFFFFFFFFFF@ 00071630     ectest.obj
 0002:00000698       ??_C@_0GB@NAMHBOGD@FFFFFFFFFFFFFFFFFFFFFFFFFFFFFFFF@ 00071698     ectest.obj
 0002:000006fc       ??_C@_0CM@PMADIOLK@?6NIST?5curve?5P?9256?5?9?9?5Generator?3?6@ 000716fc     ectest.obj
 0002:00000728       ??_C@_0EB@EAOKNDEN@4FE342E2FE1A7F9B8EE7EB4A7C0F9E16@ 00071728     ectest.obj
 0002:00000770       ??_C@_0EB@MIJLAMHG@FFFFFFFF00000000FFFFFFFFFFFFFFFF@ 00071770     ectest.obj
 0002:000007b8       ??_C@_0EB@OLPMACDN@6B17D1F2E12C4247F8BCE6E563A440F2@ 000717b8     ectest.obj
 0002:00000800       ??_C@_0EB@CGMLNBOM@5AC635D8AA3A93E7B3EBBD55769886BC@ 00071800     ectest.obj
 0002:00000848       ??_C@_0EB@KHNFKCPI@FFFFFFFF000000010000000000000000@ 00071848     ectest.obj
 0002:00000890       ??_C@_0EB@NKKCFGLN@FFFFFFFF000000010000000000000000@ 00071890     ectest.obj
 0002:000008d4       ??_C@_0CM@NAOHNDN@?6NIST?5curve?5P?9224?5?9?9?5Generator?3?6@ 000718d4     ectest.obj
 0002:00000900       ??_C@_0DJ@EDHFDDJK@BD376388B5F723FB4C22DFE6CD4375A0@ 00071900     ectest.obj
 0002:0000093c       ??_C@_0DJ@BHCANMNE@FFFFFFFFFFFFFFFFFFFFFFFFFFFF16A2@ 0007193c     ectest.obj
 0002:00000978       ??_C@_0DJ@NPHLCOHI@B70E0CBD6BB4BF7F321390B94A03C1D3@ 00071978     ectest.obj
 0002:000009b4       ??_C@_0DJ@KCHEMFFJ@B4050A850C04B3ABF54132565044B0B7@ 000719b4     ectest.obj
 0002:000009f0       ??_C@_0DJ@GECEELCG@FFFFFFFFFFFFFFFFFFFFFFFFFFFFFFFE@ 000719f0     ectest.obj
 0002:00000a2c       ??_C@_0DJ@KBMBLOHP@FFFFFFFFFFFFFFFFFFFFFFFFFFFFFFFF@ 00071a2c     ectest.obj
 0002:00000a68       ??_C@_0CM@EHMHPIKF@?6NIST?5curve?5P?9192?5?9?9?5Generator?3?6@ 00071a68     ectest.obj
 0002:00000a94       ??_C@_0DB@PMAOLPKN@07192B95FFC8DA78631011ED6B24CDD5@ 00071a94     ectest.obj
 0002:00000ac8       ??_C@_0DB@EHFHEEFE@FFFFFFFFFFFFFFFFFFFFFFFF99DEF836@ 00071ac8     ectest.obj
 0002:00000afc       ??_C@_0DB@LHIGDGHO@188DA80EB03090F67CBF20EB43A18800@ 00071afc     ectest.obj
 0002:00000b30       ??_C@_0DB@PLBGALEH@64210519E59C80E70FA7E9AB72243049@ 00071b30     ectest.obj
 0002:00000b64       ??_C@_0DB@EFILCKBL@FFFFFFFFFFFFFFFFFFFFFFFFFFFFFFFE@ 00071b64     ectest.obj
 0002:00000b98       ??_C@_0DB@DIPMNOFO@FFFFFFFFFFFFFFFFFFFFFFFFFFFFFFFE@ 00071b98     ectest.obj
 0002:00000bcc       ??_C@_0BC@NNIFDGGK@verify?5degree?5?4?4?4?$AA@ 00071bcc     ectest.obj
 0002:00000be0       ??_C@_0DA@NBKFLMMD@?6SEC2?5curve?5secp160r1?5?9?9?5Generat@ 00071be0     ectest.obj
 0002:00000c10       ??_C@_0N@CEPBDNPI@?6?5?5?5?5?5y?5?$DN?50x?$AA@ 00071c10     ectest.obj
 0002:00000c20       ??_C@_0CL@EDKAMPLM@0100000000000000000001F4C8F927AE@ 00071c20     ectest.obj
 0002:00000c4c       ??_C@_0CJ@IFNODPPM@23a628553168947d59dcc91204235137@ 00071c4c     ectest.obj
 0002:00000c78       ??_C@_0CJ@MIDIAOCP@4A96B5688EF573284664698968C38BB9@ 00071c78     ectest.obj
 0002:00000ca4       ??_C@_0CJ@CGMIEEHD@1C97BEFC54BD7A8B65ACF89F81D4D4AD@ 00071ca4     ectest.obj
 0002:00000cd0       ??_C@_0CJ@IKNAKPND@FFFFFFFFFFFFFFFFFFFFFFFFFFFFFFFF@ 00071cd0     ectest.obj
 0002:00000cfc       ??_C@_0CJ@PHKHFLJG@FFFFFFFFFFFFFFFFFFFFFFFFFFFFFFFF@ 00071cfc     ectest.obj
 0002:00000d28       ??_C@_0GD@NLMMCCPG@?6A?5representation?5of?5the?5inverse@ 00071d28     ectest.obj
 0002:00000d8c       ??_C@_08PKKJEIF@?0?5Y?5?$DN?50x?$AA@ 00071d8c     ectest.obj
 0002:00000d98       ??_C@_08DOECIOBI@?0?5Z?5?$DN?50x?$AA@ 00071d98     ectest.obj
 0002:00000da4       ??_C@_0CP@PHEDNBLP@?6Generator?5as?5octet?5string?0?5hybr@ 00071da4     ectest.obj
 0002:00000dd4       ??_C@_0DF@LCMILNIB@?6Generator?5as?5octet?5string?0?5unco@ 00071dd4     ectest.obj
 0002:00000e0c       ??_C@_04JFFKLGJF@?$CF02X?$AA@ 00071e0c     ectest.obj
 0002:00000e14       ??_C@_0DC@JFAFDNDM@Generator?5as?5octet?5string?0?5compr@ 00071e14     ectest.obj
 0002:00000e48       ??_C@_0M@MMHINAIH@?5?5?5?5?5x?5?$DN?50x?$AA@ 00071e48     ectest.obj
 0002:00000e54       ??_C@_0BI@KGAKJGEC@?5?5?5?5?5point?5at?5infinity?6?$AA@ 00071e54     ectest.obj
 0002:00000e6c       ??_C@_0BE@MEOPFPBF@A?5cyclic?5subgroup?3?6?$AA@ 00071e6c     ectest.obj
 0002:00000e80       ??_C@_0BO@EBGLNJGE@Point?5is?5not?5on?5curve?3?5x?5?$DN?50x?$AA@ 00071e80     ectest.obj
 0002:00000ea0       ??_C@_08MABHKNBJ@?0?5y?5?$DN?50x?$AA@ 00071ea0     ectest.obj
 0002:00000eac       ??_C@_01CKDDGHAB@D?$AA@    00071eac     ectest.obj
 0002:00000eb0       ??_C@_0EI@GDDNHNIA@Curve?5defined?5by?5Weierstrass?5equ@ 00071eb0     ectest.obj
 0002:00000ef8       ??_C@_0O@MNDNFHIM@?$CJ?6?5?5?5?5?5a?5?$DN?50x?$AA@ 00071ef8     ectest.obj
 0002:00000f08       ??_C@_0N@EBCIPFMM@?6?5?5?5?5?5b?5?$DN?50x?$AA@ 00071f08     ectest.obj
 0002:00000f18       ??_C@_01EEMJAFIK@?6?$AA@   00071f18     ectest.obj
 0002:00000f1c       ??_C@_01HIHLOKLC@1?$AA@    00071f1c     ectest.obj
 0002:00000f20       ??_C@_02LFBAAJHO@17?$AA@   00071f20     ectest.obj
 0002:00000f24       ??_C@_0BB@GGANGOCK@NIST?5curve?5B?9571?$AA@ 00071f24     ectest.obj
 0002:00000f38       ??_C@_0JB@DDELOMEN@03FFFFFFFFFFFFFFFFFFFFFFFFFFFFFF@ 00071f38     ectest.obj
 0002:00000fd0       ??_C@_0JB@BGGOGNH@037BF27342DA639B6DCCFFFEB73D69D7@ 00071fd0     ectest.obj
 0002:00001068       ??_C@_0JB@CJJMMHGF@0303001D34B856296C16C0D40D3CD775@ 00072068     ectest.obj
 0002:00001100       ??_C@_0JB@OOBDGNJO@02F40E7E2221F295DE297117B7F3D62F@ 00072100     ectest.obj
 0002:00001198       ??_C@_0JB@IHMKNFOJ@00000000000000000000000000000000@ 00072198     ectest.obj
 0002:0000122c       ??_C@_0BB@EBACDPOC@NIST?5curve?5K?9571?$AA@ 0007222c     ectest.obj
 0002:00001240       ??_C@_0JB@PPPHEALL@02000000000000000000000000000000@ 00072240     ectest.obj
 0002:000012d8       ??_C@_0JB@CLBKOHGL@0349DC807F4FBF374F4AEADE3BCA9531@ 000722d8     ectest.obj
 0002:00001370       ??_C@_0JB@IGIOHLOD@026EB7A859923FBC82189631F8103FE4@ 00072370     ectest.obj
 0002:00001408       ??_C@_0JA@IMPAOLHO@80000000000000000000000000000000@ 00072408     ectest.obj
 0002:00001498       ??_C@_0BB@BDCHJFMC@NIST?5curve?5B?9409?$AA@ 00072498     ectest.obj
 0002:000014b0       ??_C@_0GJ@MAKMEDBJ@01000000000000000000000000000000@ 000724b0     ectest.obj
 0002:00001520       ??_C@_0GJ@DJJIPKHI@0061B1CFAB6BE5F32BBFA78324ED106A@ 00072520     ectest.obj
 0002:00001590       ??_C@_0GJ@CLLEPAGO@015D4860D088DDB3496B0C6064756260@ 00072590     ectest.obj
 0002:00001600       ??_C@_0GJ@NBAHPFHH@0021A5C2C8EE9FEB5C4B9A753B7B476B@ 00072600     ectest.obj
 0002:00001670       ??_C@_0GJ@LFNCJKBA@00000000000000000000000000000000@ 00072670     ectest.obj
 0002:000016dc       ??_C@_0BB@DECIMEAK@NIST?5curve?5K?9409?$AA@ 000726dc     ectest.obj
 0002:000016f0       ??_C@_0GJ@NAANHFDL@007FFFFFFFFFFFFFFFFFFFFFFFFFFFFF@ 000726f0     ectest.obj
 0002:00001760       ??_C@_0GJ@LELALKNN@01E369050B7C4E42ACBA1DACBF04299C@ 00072760     ectest.obj
 0002:000017d0       ??_C@_0GJ@JHNGHILE@0060F05F658F49C1AD3AB1890F718421@ 000727d0     ectest.obj
 0002:00001840       ??_C@_0GJ@KMBGFIOM@02000000000000000000000000000000@ 00072840     ectest.obj
 0002:000018ac       ??_C@_0BB@MCLAHDCM@NIST?5curve?5B?9283?$AA@ 000728ac     ectest.obj
 0002:000018c0       ??_C@_0EJ@DNDJJNNM@03FFFFFFFFFFFFFFFFFFFFFFFFFFFFFF@ 000728c0     ectest.obj
 0002:00001910       ??_C@_0EJ@JNLPOLB@03676854FE24141CB98FE6D4B20D02B4@ 00072910     ectest.obj
 0002:00001960       ??_C@_0EJ@BHGHAALC@05F939258DB7DD90E1934F8C70B0DFEC@ 00072960     ectest.obj
 0002:000019b0       ??_C@_0EJ@BMCMHGKL@027B680AC8B8596DA5A4AF8A19A0303F@ 000729b0     ectest.obj
 0002:00001a00       ??_C@_0EJ@IJMOMPKF@00000000000000000000000000000000@ 00072a00     ectest.obj
 0002:00001a4c       ??_C@_0BB@OFLPCCOE@NIST?5curve?5K?9283?$AA@ 00072a4c     ectest.obj
 0002:00001a60       ??_C@_0EJ@BABGJLPC@01FFFFFFFFFFFFFFFFFFFFFFFFFFFFFF@ 00072a60     ectest.obj
 0002:00001ab0       ??_C@_0EJ@NHJKIFIC@01CCDA380F1C9E318D90F95D07E5426F@ 00072ab0     ectest.obj
 0002:00001b00       ??_C@_0EJ@PKMPDCLH@0503213F78CA44883F1A3B8162F188E5@ 00072b00     ectest.obj
 0002:00001b50       ??_C@_0EJ@JBJAGLBF@08000000000000000000000000000000@ 00072b50     ectest.obj
 0002:00001b9c       ??_C@_0BB@MOOFJMMN@NIST?5curve?5B?9233?$AA@ 00072b9c     ectest.obj
 0002:00001bb0       ??_C@_0DN@NCBBCNPJ@01000000000000000000000000000013@ 00072bb0     ectest.obj
 0002:00001bf0       ??_C@_0DN@NGABPGAG@01006A08A41903350678E58528BEBF8A@ 00072bf0     ectest.obj
 0002:00001c30       ??_C@_0DN@FGKPOKON@00FAC9DFCBAC8313BB2139F1BB755FEF@ 00072c30     ectest.obj
 0002:00001c70       ??_C@_0DN@HFMDPMGE@0066647EDE6C332C7F8C0923BB58213B@ 00072c70     ectest.obj
 0002:00001cb0       ??_C@_0DN@CMGNLJKG@00000000000000000000000000000000@ 00072cb0     ectest.obj
 0002:00001cf0       ??_C@_0BB@OJOKMNAF@NIST?5curve?5K?9233?$AA@ 00072cf0     ectest.obj
 0002:00001d04       ??_C@_01FAMBOPH@4?$AA@     00072d04     ectest.obj
 0002:00001d08       ??_C@_0DN@ICANBKHC@00800000000000000000000000000006@ 00072d08     ectest.obj
 0002:00001d48       ??_C@_0DN@JNNCCFCL@01DB537DECE819B7F70F555A67C427A8@ 00072d48     ectest.obj
 0002:00001d88       ??_C@_0DN@PMLLGPLO@017232BA853A7E731AF129F22FF41495@ 00072d88     ectest.obj
 0002:00001dc8       ??_C@_01GBGANLPD@0?$AA@    00072dc8     ectest.obj
 0002:00001dcc       ??_C@_0DN@CMFGEJKA@02000000000000000000000000000000@ 00072dcc     ectest.obj
 0002:00001e0c       ??_C@_0BB@NKJLPBMI@NIST?5curve?5B?9163?$AA@ 00072e0c     ectest.obj
 0002:00001e20       ??_C@_0CL@BCAGACCK@040000000000000000000292FE77E70C@ 00072e20     ectest.obj
 0002:00001e4c       ??_C@_0CL@BNIJOFII@00D51FBC6C71A0094FA2CDD545B11C5C@ 00072e4c     ectest.obj
 0002:00001e78       ??_C@_0CL@LINOKKFB@03F0EBA16286A2D57EA0991168D49946@ 00072e78     ectest.obj
 0002:00001ea4       ??_C@_0CL@HEOEMBKD@020A601907B8C953CA1481EB10512F78@ 00072ea4     ectest.obj
 0002:00001ed0       ??_C@_0BB@PNJEKAAA@NIST?5curve?5K?9163?$AA@ 00072ed0     ectest.obj
 0002:00001ee4       ??_C@_0BO@EHFMKNGN@?6?$CFs?5?9?9?5Generator?3?6?5?5?5?5?5x?5?$DN?50x?$AA@ 00072ee4     ectest.obj
 0002:00001f04       ??_C@_01FDFGLJHB@2?$AA@    00072f04     ectest.obj
 0002:00001f08       ??_C@_0CL@OGGJHJDP@04000000000000000000020108A2E0CC@ 00072f08     ectest.obj
 0002:00001f34       ??_C@_0CL@JCJOHIPK@0289070FB05D38FF58321F2E800536D5@ 00072f34     ectest.obj
 0002:00001f60       ??_C@_0CL@NIAKCKHM@02FE13C0537BBC11ACAA07D793DE4E6D@ 00072f60     ectest.obj
 0002:00001f8c       ??_C@_0CL@CPIBMACL@08000000000000000000000000000000@ 00072f8c     ectest.obj
 0002:00001fb8       ??_C@_01KJLJFBPL@8?$AA@    00072fb8     ectest.obj
 0002:00001fbc       ??_C@_01DHDKHMHF@6?$AA@    00072fbc     ectest.obj
 0002:00001fc0       ??_C@_0FA@MHBGMEEC@Curve?5defined?5by?5Weierstrass?5equ@ 00072fc0     ectest.obj
 0002:00002010       ??_C@_0CC@LOPDHOML@?6?$CI0x?4?4?4?5means?5binary?5polynomial?$CJ@ 00073010     ectest.obj
 0002:00002034       ??_C@_01EKENIIDA@3?$AA@    00073034     ectest.obj
 0002:00002038       ??_C@_02NBHMMMHK@13?$AA@   00073038     ectest.obj
 0002:0000203c       ??_C@_09BDOGPPHA@?5failed?6?6?$AA@ 0007303c     ectest.obj
 0002:00002048       ??_C@_0CI@LFFCKAOO@?6EC_GROUP_check?$CI?$CJ?5failed?5with?5cu@ 00073048     ectest.obj
 0002:00002070       ??_C@_0DB@LADHHCL@?6EC_GROUP_new_curve_name?$CI?$CJ?5faile@ 00073070     ectest.obj
 0002:000020a4       ??_C@_0BK@DOGMEADO@testing?5internal?5curves?3?5?$AA@ 000730a4     ectest.obj
 0002:000020be       ??_C@_00CNPNBAHC@?$AA@     000730be     ectest.obj
 0002:000020c0       ??_C@_03MCADLMAF@off?$AA@  000730c0     ectest.obj
 0002:000020c4       ??_C@_0BF@CKJKJIOH@OPENSSL_DEBUG_MEMORY?$AA@ 000730c4     ectest.obj
 0002:000020e0       ??_C@_0EL@BMHBHOHG@d?3?2wm653wehh?2platform?2mvv210?2src@ 000730e0     libeay32:bn_ctx.obj
 0002:00002148       BN_version                 00073148     libeay32:bn_lib.obj
 0002:00002278       ??_C@_0EL@EKPDCIGL@d?3?2wm653wehh?2platform?2mvv210?2src@ 00073278     libeay32:bn_lib.obj
 0002:000022f0       ??_C@_0EL@KJLPEPL@d?3?2wm653wehh?2platform?2mvv210?2src@ 000732f0     libeay32:ec_lib.obj
 0002:00002340       ??_C@_0EL@CLJGKANI@d?3?2wm653wehh?2platform?2mvv210?2src@ 00073340     libeay32:bn_add.obj
 0002:0000238c       ??_C@_0BB@KDJGCOOH@?$CFlu?3?$CFs?3?$CFs?3?$CFd?3?$CFs?6?$AA@ 0007338c     libeay32:err_prn.obj
 0002:000023a0       ??_C@_02DKCKIIND@?$CFs?$AA@ 000733a0     libeay32:err_prn.obj
 0002:000023a8       ??_C@_0EM@GFDFNKJ@d?3?2wm653wehh?2platform?2mvv210?2src@ 000733a8     libeay32:bn_rand.obj
 0002:000033f8       ??_C@_0EL@LDMNJGLH@d?3?2wm653wehh?2platform?2mvv210?2src@ 000743f8     libeay32:ec_oct.obj
 0002:00003458       ??_C@_0EN@HOIICIBH@d?3?2wm653wehh?2platform?2mvv210?2src@ 00074458     libeay32:bn_print.obj
 0002:000034a8       ??_C@_04LJCFADJL@?$CF09u?$AA@ 000744a8     libeay32:bn_print.obj
 0002:000034b0       ??_C@_02GMHACPFF@?$CFu?$AA@ 000744b0     libeay32:bn_print.obj
 0002:000034b4       ??_C@_01JOAMLHOP@?9?$AA@   000744b4     libeay32:bn_print.obj
 0002:00003558       ??_C@_0EN@LKHNEOCI@d?3?2wm653wehh?2platform?2mvv210?2src@ 00074558     libeay32:ecp_mont.obj
 0002:00003648       ??_C@_0EN@HKENHFKC@d?3?2wm653wehh?2platform?2mvv210?2src@ 00074648     libeay32:ec2_smpl.obj
 0002:00003698       ??_C@_0EN@DGBOMKNB@d?3?2wm653wehh?2platform?2mvv210?2src@ 00074698     libeay32:ec_check.obj
 0002:0000ce80       ??_C@_09FHIEKOPH@rsaesOaep?$AA@ 0007de80     libeay32:obj_dat.obj
 0002:0000ce8c       ??_C@_0L@NCPDMLAN@RSAES?9OAEP?$AA@ 0007de8c     libeay32:obj_dat.obj
 0002:0000ce98       ??_C@_0BG@MBIALEGA@aes?9256?9cbc?9hmac?9sha1?$AA@ 0007de98     libeay32:obj_dat.obj
 0002:0000ceb0       ??_C@_0BG@NJKHMG@AES?9256?9CBC?9HMAC?9SHA1?$AA@ 0007deb0     libeay32:obj_dat.obj
 0002:0000cec8       ??_C@_0BG@GKCPENNE@aes?9192?9cbc?9hmac?9sha1?$AA@ 0007dec8     libeay32:obj_dat.obj
 0002:0000cee0       ??_C@_0BG@KLHGFOHC@AES?9192?9CBC?9HMAC?9SHA1?$AA@ 0007dee0     libeay32:obj_dat.obj
 0002:0000cef8       ??_C@_0BG@CLBGODOC@aes?9128?9cbc?9hmac?9sha1?$AA@ 0007def8     libeay32:obj_dat.obj
 0002:0000cf10       ??_C@_0BG@OKEPPAEE@AES?9128?9CBC?9HMAC?9SHA1?$AA@ 0007df10     libeay32:obj_dat.obj
 0002:0000cf28       ??_C@_0N@EFPJLHOG@rc4?9hmac?9md5?$AA@ 0007df28     libeay32:obj_dat.obj
 0002:0000cf38       ??_C@_0N@MFFPBCGK@RC4?9HMAC?9MD5?$AA@ 0007df38     libeay32:obj_dat.obj
 0002:0000cf48       ??_C@_0M@FHDOMLNI@aes?9256?9xts?$AA@ 0007df48     libeay32:obj_dat.obj
 0002:0000cf54       ??_C@_0M@ILDFFBFL@AES?9256?9XTS?$AA@ 0007df54     libeay32:obj_dat.obj
 0002:0000cf60       ??_C@_0M@CGBMJDMF@aes?9128?9xts?$AA@ 0007df60     libeay32:obj_dat.obj
 0002:0000cf6c       ??_C@_0M@PKBHAJEG@AES?9128?9XTS?$AA@ 0007df6c     libeay32:obj_dat.obj
 0002:0000cf78       ??_C@_09FGGKIFKD@rsassaPss?$AA@ 0007df78     libeay32:obj_dat.obj
 0002:0000cf84       ??_C@_0L@CPMAKEFG@RSASSA?9PSS?$AA@ 0007df84     libeay32:obj_dat.obj
 0002:0000cf90       ??_C@_04HEIJMEIE@mgf1?$AA@ 0007df90     libeay32:obj_dat.obj
 0002:0000cf98       ??_C@_04CNDHACFO@MGF1?$AA@ 0007df98     libeay32:obj_dat.obj
 0002:0000cfa0       ??_C@_0BH@FHBOBBKO@Any?5Extended?5Key?5Usage?$AA@ 0007dfa0     libeay32:obj_dat.obj
 0002:0000cfb8       ??_C@_0BE@FKFLDMON@anyExtendedKeyUsage?$AA@ 0007dfb8     libeay32:obj_dat.obj
 0002:0000cfcc       ??_C@_0BE@PHKLGFJC@id?9camellia256?9wrap?$AA@ 0007dfcc     libeay32:obj_dat.obj
 0002:0000cfe0       ??_C@_0BE@GNMGGIAL@id?9camellia192?9wrap?$AA@ 0007dfe0     libeay32:obj_dat.obj
 0002:0000cff4       ??_C@_0BE@JENMCLBD@id?9camellia128?9wrap?$AA@ 0007dff4     libeay32:obj_dat.obj
 0002:0000d008       ??_C@_0M@MJDNCKAH@aes?9256?9ctr?$AA@ 0007e008     libeay32:obj_dat.obj
 0002:0000d014       ??_C@_0M@BFDGLAIE@AES?9256?9CTR?$AA@ 0007e014     libeay32:obj_dat.obj
 0002:0000d020       ??_C@_0M@BLIDAFIG@aes?9192?9ctr?$AA@ 0007e020     libeay32:obj_dat.obj
 0002:0000d02c       ??_C@_0M@MHIIJPAF@AES?9192?9CTR?$AA@ 0007e02c     libeay32:obj_dat.obj
 0002:0000d038       ??_C@_0M@LIBPHCBK@aes?9128?9ctr?$AA@ 0007e038     libeay32:obj_dat.obj
 0002:0000d044       ??_C@_0M@GEBEOIJJ@AES?9128?9CTR?$AA@ 0007e044     libeay32:obj_dat.obj
 0002:0000d050       ??_C@_0BD@OHLFOIJM@id?9aes256?9wrap?9pad?$AA@ 0007e050     libeay32:obj_dat.obj
 0002:0000d064       ??_C@_0M@BNAOJBGM@aes?9256?9ccm?$AA@ 0007e064     libeay32:obj_dat.obj
 0002:0000d070       ??_C@_0O@EDMKMBKB@id?9aes256?9CCM?$AA@ 0007e070     libeay32:obj_dat.obj
 0002:0000d080       ??_C@_0M@JCGMAGDL@aes?9256?9gcm?$AA@ 0007e080     libeay32:obj_dat.obj
 0002:0000d08c       ??_C@_0O@MMKIFGPG@id?9aes256?9GCM?$AA@ 0007e08c     libeay32:obj_dat.obj
 0002:0000d09c       ??_C@_0BD@OPKMLKFB@id?9aes192?9wrap?9pad?$AA@ 0007e09c     libeay32:obj_dat.obj
 0002:0000d0b0       ??_C@_0M@MPLALOON@aes?9192?9ccm?$AA@ 0007e0b0     libeay32:obj_dat.obj
 0002:0000d0bc       ??_C@_0O@JBHEOOCA@id?9aes192?9CCM?$AA@ 0007e0bc     libeay32:obj_dat.obj
 0002:0000d0cc       ??_C@_0M@EANCCJLK@aes?9192?9gcm?$AA@ 0007e0cc     libeay32:obj_dat.obj
 0002:0000d0d8       ??_C@_0O@BOBGHJHH@id?9aes192?9GCM?$AA@ 0007e0d8     libeay32:obj_dat.obj
 0002:0000d0e8       ??_C@_0BD@HMJBEGNL@id?9aes128?9wrap?9pad?$AA@ 0007e0e8     libeay32:obj_dat.obj
 0002:0000d0fc       ??_C@_0M@GMCMMJHB@aes?9128?9ccm?$AA@ 0007e0fc     libeay32:obj_dat.obj
 0002:0000d108       ??_C@_0O@DCOIJJLM@id?9aes128?9CCM?$AA@ 0007e108     libeay32:obj_dat.obj
 0002:0000d118       ??_C@_0M@ODEOFOCG@aes?9128?9gcm?$AA@ 0007e118     libeay32:obj_dat.obj
 0002:0000d124       ??_C@_0O@LNIKAOOL@id?9aes128?9GCM?$AA@ 0007e124     libeay32:obj_dat.obj
 0002:0000d134       ??_C@_04CJMGLDNC@cmac?$AA@ 0007e134     libeay32:obj_dat.obj
 0002:0000d13c       ??_C@_04OFPMFBKK@CMAC?$AA@ 0007e13c     libeay32:obj_dat.obj
 0002:0000d144       ??_C@_0BA@NJOHMDIG@id?9alg?9PWRI?9KEK?$AA@ 0007e144     libeay32:obj_dat.obj
 0002:0000d154       ??_C@_07ILKEFPGB@dmdName?$AA@ 0007e154     libeay32:obj_dat.obj
 0002:0000d15c       ??_C@_0BE@MNOFELKF@deltaRevocationList?$AA@ 0007e15c     libeay32:obj_dat.obj
 0002:0000d170       ??_C@_0BE@KGOGIPEN@supportedAlgorithms?$AA@ 0007e170     libeay32:obj_dat.obj
 0002:0000d184       ??_C@_0BA@EKKIBBF@houseIdentifier?$AA@ 0007e184     libeay32:obj_dat.obj
 0002:0000d194       ??_C@_0N@FIGDLDDJ@uniqueMember?$AA@ 0007e194     libeay32:obj_dat.obj
 0002:0000d1a4       ??_C@_0BC@IIJOGNNH@distinguishedName?$AA@ 0007e1a4     libeay32:obj_dat.obj
 0002:0000d1b8       ??_C@_0BE@FKAMNJMM@protocolInformation?$AA@ 0007e1b8     libeay32:obj_dat.obj
 0002:0000d1cc       ??_C@_0BE@NNAGLFEM@enhancedSearchGuide?$AA@ 0007e1cc     libeay32:obj_dat.obj
 0002:0000d1e0       ??_C@_0BF@GAAPBDAE@crossCertificatePair?$AA@ 0007e1e0     libeay32:obj_dat.obj
 0002:0000d1f8       ??_C@_0BK@IMFDMOND@certificateRevocationList?$AA@ 0007e1f8     libeay32:obj_dat.obj
 0002:0000d214       ??_C@_0BI@EODAEBFG@authorityRevocationList?$AA@ 0007e214     libeay32:obj_dat.obj
 0002:0000d22c       ??_C@_0O@JJCNKCKK@cACertificate?$AA@ 0007e22c     libeay32:obj_dat.obj
 0002:0000d23c       ??_C@_0BA@FEECIELF@userCertificate?$AA@ 0007e23c     libeay32:obj_dat.obj
 0002:0000d24c       ??_C@_0N@JHMNNHKM@userPassword?$AA@ 0007e24c     libeay32:obj_dat.obj
 0002:0000d25c       ??_C@_07JJAENDGN@seeAlso?$AA@ 0007e25c     libeay32:obj_dat.obj
 0002:0000d264       ??_C@_0N@NAEJMDPF@roleOccupant?$AA@ 0007e264     libeay32:obj_dat.obj
 0002:0000d274       ??_C@_05HEIBENID@owner?$AA@ 0007e274     libeay32:obj_dat.obj
 0002:0000d27c       ??_C@_06HDFDANIG@member?$AA@ 0007e27c     libeay32:obj_dat.obj
 0002:0000d284       ??_C@_0BM@NHJFOGBI@supportedApplicationContext?$AA@ 0007e284     libeay32:obj_dat.obj
 0002:0000d2a0       ??_C@_0BE@KHACCONJ@presentationAddress?$AA@ 0007e2a0     libeay32:obj_dat.obj
 0002:0000d2b4       ??_C@_0BI@MKMMOKIA@preferredDeliveryMethod?$AA@ 0007e2b4     libeay32:obj_dat.obj
 0002:0000d2cc       ??_C@_0BF@CMAFNEOO@destinationIndicator?$AA@ 0007e2cc     libeay32:obj_dat.obj
 0002:0000d2e4       ??_C@_0BC@DLLOJDNE@registeredAddress?$AA@ 0007e2e4     libeay32:obj_dat.obj
 0002:0000d2f8       ??_C@_0BI@OAHCBLEE@internationaliSDNNumber?$AA@ 0007e2f8     libeay32:obj_dat.obj
 0002:0000d310       ??_C@_0M@MOCAHDLJ@x121Address?$AA@ 0007e310     libeay32:obj_dat.obj
 0002:0000d31c       ??_C@_0BJ@NDMMBDAB@facsimileTelephoneNumber?$AA@ 0007e31c     libeay32:obj_dat.obj
 0002:0000d338       ??_C@_0BK@BBNEJJDC@teletexTerminalIdentifier?$AA@ 0007e338     libeay32:obj_dat.obj
 0002:0000d354       ??_C@_0M@MMDMBPMM@telexNumber?$AA@ 0007e354     libeay32:obj_dat.obj
 0002:0000d360       ??_C@_0BA@NCAGJGBF@telephoneNumber?$AA@ 0007e360     libeay32:obj_dat.obj
 0002:0000d370       ??_C@_0BL@DENBGONK@physicalDeliveryOfficeName?$AA@ 0007e370     libeay32:obj_dat.obj
 0002:0000d38c       ??_C@_0O@PCCHCGPG@postOfficeBox?$AA@ 0007e38c     libeay32:obj_dat.obj
 0002:0000d39c       ??_C@_0O@KABBPKPG@postalAddress?$AA@ 0007e39c     libeay32:obj_dat.obj
 0002:0000d3ac       ??_C@_0BB@GFJJGHBI@businessCategory?$AA@ 0007e3ac     libeay32:obj_dat.obj
 0002:0000d3c0       ??_C@_0M@MCCFGANF@searchGuide?$AA@ 0007e3c0     libeay32:obj_dat.obj
 0002:0000d3cc       ??_C@_0BF@DGGAJJCO@Permanent?5Identifier?$AA@ 0007e3cc     libeay32:obj_dat.obj
 0002:0000d3e4       ??_C@_0BK@BMFCOPIC@id?9on?9permanentIdentifier?$AA@ 0007e3e4     libeay32:obj_dat.obj
 0002:0000d400       ??_C@_0BE@KEJIKEFG@X509v3?5Freshest?5CRL?$AA@ 0007e400     libeay32:obj_dat.obj
 0002:0000d414       ??_C@_0M@PKNKMHEG@freshestCRL?$AA@ 0007e414     libeay32:obj_dat.obj
 0002:0000d420       ??_C@_0BI@FMFOLFMC@Microsoft?5Local?5Key?5set?$AA@ 0007e420     libeay32:obj_dat.obj
 0002:0000d438       ??_C@_0M@LCODBGNO@LocalKeySet?$AA@ 0007e438     libeay32:obj_dat.obj
 0002:0000d444       ??_C@_04FOBGICMD@hmac?$AA@ 0007e444     libeay32:obj_dat.obj
 0002:0000d44c       ??_C@_04JCCMGALL@HMAC?$AA@ 0007e44c     libeay32:obj_dat.obj
 0002:0000d454       ??_C@_0CJ@NCCJHEBD@GOST?5R?53410?92001?5Parameter?5Set?5C@ 0007e454     libeay32:obj_dat.obj
 0002:0000d480       ??_C@_0BO@LBPHKLOM@id?9GostR3410?92001?9ParamSet?9cc?$AA@ 0007e480     libeay32:obj_dat.obj
 0002:0000d4a0       ??_C@_0DB@BGOOPLFE@GOST?5R?534?411?994?5with?5GOST?5R?534?41@ 0007e4a0     libeay32:obj_dat.obj
 0002:0000d4d4       ??_C@_0CH@JJNMILDM@id?9GostR3411?994?9with?9GostR3410?92@ 0007e4d4     libeay32:obj_dat.obj
 0002:0000d4fc       ??_C@_0CP@ILDIBBAJ@GOST?5R?534?411?994?5with?5GOST?5R?534?41@ 0007e4fc     libeay32:obj_dat.obj
 0002:0000d52c       ??_C@_0CF@FCIKJGLH@id?9GostR3411?994?9with?9GostR3410?99@ 0007e52c     libeay32:obj_dat.obj
 0002:0000d554       ??_C@_0BK@IGCJADLM@GOST?534?410?92001?5Cryptocom?$AA@ 0007e554     libeay32:obj_dat.obj
 0002:0000d570       ??_C@_0L@PKDOCLKG@gost2001cc?$AA@ 0007e570     libeay32:obj_dat.obj
 0002:0000d57c       ??_C@_0BI@GJIILMEB@GOST?534?410?994?5Cryptocom?$AA@ 0007e57c     libeay32:obj_dat.obj
 0002:0000d594       ??_C@_08LCDFMIFG@gost94cc?$AA@ 0007e594     libeay32:obj_dat.obj
 0002:0000d5a0       ??_C@_0CB@KNOPDNHN@GOST?528147?989?5Cryptocom?5ParamSet@ 0007e5a0     libeay32:obj_dat.obj
 0002:0000d5c4       ??_C@_0BD@MEAAKKFJ@id?9Gost28147?989?9cc?$AA@ 0007e5c4     libeay32:obj_dat.obj
 0002:0000d5d8       ??_C@_0BF@PGMBMCGF@id?9GostR3410?994?9bBis?$AA@ 0007e5d8     libeay32:obj_dat.obj
 0002:0000d5f0       ??_C@_0BC@MKOAJFN@id?9GostR3410?994?9b?$AA@ 0007e5f0     libeay32:obj_dat.obj
 0002:0000d604       ??_C@_0BF@LBGBLILF@id?9GostR3410?994?9aBis?$AA@ 0007e604     libeay32:obj_dat.obj
 0002:0000d61c       ??_C@_0BC@CHIDFKJO@id?9GostR3410?994?9a?$AA@ 0007e61c     libeay32:obj_dat.obj
 0002:0000d630       ??_C@_0CK@GDLEHLKF@id?9GostR3410?92001?9CryptoPro?9XchB@ 0007e630     libeay32:obj_dat.obj
 0002:0000d65c       ??_C@_0CK@PKFGBNKE@id?9GostR3410?92001?9CryptoPro?9XchA@ 0007e65c     libeay32:obj_dat.obj
 0002:0000d688       ??_C@_0CH@DLGDIIGO@id?9GostR3410?92001?9CryptoPro?9C?9Pa@ 0007e688     libeay32:obj_dat.obj
 0002:0000d6b0       ??_C@_0CH@PKONFHKO@id?9GostR3410?92001?9CryptoPro?9B?9Pa@ 0007e6b0     libeay32:obj_dat.obj
 0002:0000d6d8       ??_C@_0CH@GDAPDBKP@id?9GostR3410?92001?9CryptoPro?9A?9Pa@ 0007e6d8     libeay32:obj_dat.obj
 0002:0000d700       ??_C@_0BP@GEEJLPDI@id?9GostR3410?92001?9TestParamSet?$AA@ 0007e700     libeay32:obj_dat.obj
 0002:0000d720       ??_C@_0CI@DAANNIN@id?9GostR3410?994?9CryptoPro?9XchC?9P@ 0007e720     libeay32:obj_dat.obj
 0002:0000d748       ??_C@_0CI@MCIOACEN@id?9GostR3410?994?9CryptoPro?9XchB?9P@ 0007e748     libeay32:obj_dat.obj
 0002:0000d770       ??_C@_0CI@FLGMGEEM@id?9GostR3410?994?9CryptoPro?9XchA?9P@ 0007e770     libeay32:obj_dat.obj
 0002:0000d798       ??_C@_0CF@LMAJFDGB@id?9GostR3410?994?9CryptoPro?9D?9Para@ 0007e798     libeay32:obj_dat.obj
 0002:0000d7c0       ??_C@_0CF@JFDCEGOC@id?9GostR3410?994?9CryptoPro?9C?9Para@ 0007e7c0     libeay32:obj_dat.obj
 0002:0000d7e8       ??_C@_0CF@FELMJJCC@id?9GostR3410?994?9CryptoPro?9B?9Para@ 0007e7e8     libeay32:obj_dat.obj
 0002:0000d810       ??_C@_0CF@MNFOPPCD@id?9GostR3410?994?9CryptoPro?9A?9Para@ 0007e810     libeay32:obj_dat.obj
 0002:0000d838       ??_C@_0BN@NAOAJFAF@id?9GostR3410?994?9TestParamSet?$AA@ 0007e838     libeay32:obj_dat.obj
 0002:0000d858       ??_C@_0CJ@IIADIAJH@id?9Gost28147?989?9CryptoPro?9RIC?91?9@ 0007e858     libeay32:obj_dat.obj
 0002:0000d884       ??_C@_0CN@IIJDEMNM@id?9Gost28147?989?9CryptoPro?9Oscar?9@ 0007e884     libeay32:obj_dat.obj
 0002:0000d8b4       ??_C@_0CN@EJBNJDBM@id?9Gost28147?989?9CryptoPro?9Oscar?9@ 0007e8b4     libeay32:obj_dat.obj
 0002:0000d8e4       ??_C@_0CF@IEBLBMOP@id?9Gost28147?989?9CryptoPro?9D?9Para@ 0007e8e4     libeay32:obj_dat.obj
 0002:0000d90c       ??_C@_0CF@KNCAAJGM@id?9Gost28147?989?9CryptoPro?9C?9Para@ 0007e90c     libeay32:obj_dat.obj
 0002:0000d934       ??_C@_0CF@GMKONGKM@id?9Gost28147?989?9CryptoPro?9B?9Para@ 0007e934     libeay32:obj_dat.obj
 0002:0000d95c       ??_C@_0CF@PFEMLAKN@id?9Gost28147?989?9CryptoPro?9A?9Para@ 0007e95c     libeay32:obj_dat.obj
 0002:0000d984       ??_C@_0BN@GKJFBLMI@id?9Gost28147?989?9TestParamSet?$AA@ 0007e984     libeay32:obj_dat.obj
 0002:0000d9a4       ??_C@_0CC@DOHJLMBI@id?9GostR3411?994?9CryptoProParamSe@ 0007e9a4     libeay32:obj_dat.obj
 0002:0000d9c8       ??_C@_0BN@DPLCCDOE@id?9GostR3411?994?9TestParamSet?$AA@ 0007e9c8     libeay32:obj_dat.obj
 0002:0000d9e8       ??_C@_0CA@BLJAEGEG@id?9Gost28147?989?9None?9KeyMeshing?$AA@ 0007e9e8     libeay32:obj_dat.obj
 0002:0000da08       ??_C@_0CF@MMKONEIK@id?9Gost28147?989?9CryptoPro?9KeyMes@ 0007ea08     libeay32:obj_dat.obj
 0002:0000da30       ??_C@_0BD@LGKAOLPL@GOST?5R?534?410?994?5DH?$AA@ 0007ea30     libeay32:obj_dat.obj
 0002:0000da44       ??_C@_0BC@CEMDDFNK@id?9GostR3410?994DH?$AA@ 0007ea44     libeay32:obj_dat.obj
 0002:0000da58       ??_C@_0BF@OKPANPLK@GOST?5R?534?410?92001?5DH?$AA@ 0007ea58     libeay32:obj_dat.obj
 0002:0000da70       ??_C@_0BE@OBKEJCJB@id?9GostR3410?92001DH?$AA@ 0007ea70     libeay32:obj_dat.obj
 0002:0000da84       ??_C@_0BE@FFELJBNB@GOST?5R?534?411?994?5PRF?$AA@ 0007ea84     libeay32:obj_dat.obj
 0002:0000da98       ??_C@_0BB@LJIINAAP@prf?9gostr3411?994?$AA@ 0007ea98     libeay32:obj_dat.obj
 0002:0000daac       ??_C@_0BC@BPAGAEJB@GOST?528147?989?5MAC?$AA@ 0007eaac     libeay32:obj_dat.obj
 0002:0000dac0       ??_C@_08JCNEGNFC@gost?9mac?$AA@ 0007eac0     libeay32:obj_dat.obj
 0002:0000dacc       ??_C@_0L@INGOKGPP@gost89?9cnt?$AA@ 0007eacc     libeay32:obj_dat.obj
 0002:0000dad8       ??_C@_0O@POKHNLDL@GOST?528147?989?$AA@ 0007ead8     libeay32:obj_dat.obj
 0002:0000dae8       ??_C@_06KLPDHLCD@gost89?$AA@ 0007eae8     libeay32:obj_dat.obj
 0002:0000daf0       ??_C@_0BA@JOCBNIHN@GOST?5R?534?410?994?$AA@ 0007eaf0     libeay32:obj_dat.obj
 0002:0000db00       ??_C@_06BPJPGPFJ@gost94?$AA@ 0007eb00     libeay32:obj_dat.obj
 0002:0000db08       ??_C@_0BC@IBNIHBI@GOST?5R?534?410?92001?$AA@ 0007eb08     libeay32:obj_dat.obj
 0002:0000db1c       ??_C@_08KMPAMBCP@gost2001?$AA@ 0007eb1c     libeay32:obj_dat.obj
 0002:0000db28       ??_C@_0BD@BHKLGKNG@HMAC?5GOST?534?411?994?$AA@ 0007eb28     libeay32:obj_dat.obj
 0002:0000db3c       ??_C@_0BE@EBBOKDGI@id?9HMACGostR3411?994?$AA@ 0007eb3c     libeay32:obj_dat.obj
 0002:0000db50       ??_C@_0BA@KDEBPBMN@GOST?5R?534?411?994?$AA@ 0007eb50     libeay32:obj_dat.obj
 0002:0000db60       ??_C@_09MIOJGGFD@md_gost94?$AA@ 0007eb60     libeay32:obj_dat.obj
 0002:0000db6c       ??_C@_0CF@PAGBHGOC@GOST?5R?534?411?994?5with?5GOST?5R?534?41@ 0007eb6c     libeay32:obj_dat.obj
 0002:0000db94       ??_C@_0CC@LCAPGDKC@id?9GostR3411?994?9with?9GostR3410?99@ 0007eb94     libeay32:obj_dat.obj
 0002:0000dbb8       ??_C@_0CH@MPKKPBGC@GOST?5R?534?411?994?5with?5GOST?5R?534?41@ 0007ebb8     libeay32:obj_dat.obj
 0002:0000dbe0       ??_C@_0CE@FCAOBIOC@id?9GostR3411?994?9with?9GostR3410?92@ 0007ebe0     libeay32:obj_dat.obj
 0002:0000dc04       ??_C@_09JGBNPHGI@cryptocom?$AA@ 0007ec04     libeay32:obj_dat.obj
 0002:0000dc10       ??_C@_09PCHJFNLI@cryptopro?$AA@ 0007ec10     libeay32:obj_dat.obj
 0002:0000dc1c       ??_C@_09DEGKDAEL@whirlpool?$AA@ 0007ec1c     libeay32:obj_dat.obj
 0002:0000dc28       ??_C@_0BA@FMFCOCGA@dsa_with_SHA256?$AA@ 0007ec28     libeay32:obj_dat.obj
 0002:0000dc38       ??_C@_0BA@GLCLJGGH@dsa_with_SHA224?$AA@ 0007ec38     libeay32:obj_dat.obj
 0002:0000dc48       ??_C@_0P@FLKKCAHA@hmacWithSHA512?$AA@ 0007ec48     libeay32:obj_dat.obj
 0002:0000dc58       ??_C@_0P@CHEKODKF@hmacWithSHA384?$AA@ 0007ec58     libeay32:obj_dat.obj
 0002:0000dc68       ??_C@_0P@KFBIHFBB@hmacWithSHA256?$AA@ 0007ec68     libeay32:obj_dat.obj
 0002:0000dc78       ??_C@_0P@JCGBABBG@hmacWithSHA224?$AA@ 0007ec78     libeay32:obj_dat.obj
 0002:0000dc88       ??_C@_0M@KOBPMNIO@hmacWithMD5?$AA@ 0007ec88     libeay32:obj_dat.obj
 0002:0000dc94       ??_C@_0BC@DONDMJAG@ecdsa?9with?9SHA512?$AA@ 0007ec94     libeay32:obj_dat.obj
 0002:0000dca8       ??_C@_0BC@ECDDAKND@ecdsa?9with?9SHA384?$AA@ 0007eca8     libeay32:obj_dat.obj
 0002:0000dcbc       ??_C@_0BC@MAGBJMGH@ecdsa?9with?9SHA256?$AA@ 0007ecbc     libeay32:obj_dat.obj
 0002:0000dcd0       ??_C@_0BC@PHBIOIGA@ecdsa?9with?9SHA224?$AA@ 0007ecd0     libeay32:obj_dat.obj
 0002:0000dce4       ??_C@_0BF@INFCLNHO@ecdsa?9with?9Specified?$AA@ 0007ece4     libeay32:obj_dat.obj
 0002:0000dcfc       ??_C@_0BH@GCJALNKM@ecdsa?9with?9Recommended?$AA@ 0007ecfc     libeay32:obj_dat.obj
 0002:0000dd14       ??_C@_0P@KDMMBOEP@id?9aes256?9wrap?$AA@ 0007ed14     libeay32:obj_dat.obj
 0002:0000dd24       ??_C@_0P@DJKBBDNG@id?9aes192?9wrap?$AA@ 0007ed24     libeay32:obj_dat.obj
 0002:0000dd34       ??_C@_0P@MALLFAMO@id?9aes128?9wrap?$AA@ 0007ed34     libeay32:obj_dat.obj
 0002:0000dd44       ??_C@_0BI@FNBGJEPL@id?9ct?9asciiTextWithCRLF?$AA@ 0007ed44     libeay32:obj_dat.obj
 0002:0000dd5c       ??_C@_0BL@HEJKLKLL@id?9smime?9ct?9compressedData?$AA@ 0007ed5c     libeay32:obj_dat.obj
 0002:0000dd78       ??_C@_0O@LBCGFGCI@CA?5Repository?$AA@ 0007ed78     libeay32:obj_dat.obj
 0002:0000dd88       ??_C@_0N@CKNFLOGG@caRepository?$AA@ 0007ed88     libeay32:obj_dat.obj
 0002:0000dd98       ??_C@_0BD@MGCOMIO@id?9it?9suppLangTags?$AA@ 0007ed98     libeay32:obj_dat.obj
 0002:0000ddac       ??_C@_0BJ@CDGIGDFG@Diffie?9Hellman?5based?5MAC?$AA@ 0007edac     libeay32:obj_dat.obj
 0002:0000ddc8       ??_C@_0O@MEHCKGFD@id?9DHBasedMac?$AA@ 0007edc8     libeay32:obj_dat.obj
 0002:0000ddd8       ??_C@_0BD@FANJCJAP@password?5based?5MAC?$AA@ 0007edd8     libeay32:obj_dat.obj
 0002:0000ddec       ??_C@_0BE@HCNFOMHA@id?9PasswordBasedMAC?$AA@ 0007edec     libeay32:obj_dat.obj
 0002:0000de00       ??_C@_09KBOMLGBN@hmac?9sha1?$AA@ 0007ee00     libeay32:obj_dat.obj
 0002:0000de0c       ??_C@_09DDFKKHO@HMAC?9SHA1?$AA@ 0007ee0c     libeay32:obj_dat.obj
 0002:0000de18       ??_C@_08LPACCAD@hmac?9md5?$AA@ 0007ee18     libeay32:obj_dat.obj
 0002:0000de24       ??_C@_08CABJBHIC@HMAC?9MD5?$AA@ 0007ee24     libeay32:obj_dat.obj
 0002:0000de30       ??_C@_08JGLJJHP@seed?9cfb?$AA@ 0007ee30     libeay32:obj_dat.obj
 0002:0000de3c       ??_C@_08LHAGIIFM@SEED?9CFB?$AA@ 0007ee3c     libeay32:obj_dat.obj
 0002:0000de48       ??_C@_08EDLNCGMH@seed?9ofb?$AA@ 0007ee48     libeay32:obj_dat.obj
 0002:0000de54       ??_C@_08PNNADHOE@SEED?9OFB?$AA@ 0007ee54     libeay32:obj_dat.obj
 0002:0000de60       ??_C@_08BHHJAAOC@seed?9cbc?$AA@ 0007ee60     libeay32:obj_dat.obj
 0002:0000de6c       ??_C@_08KJBEBBMB@SEED?9CBC?$AA@ 0007ee6c     libeay32:obj_dat.obj
 0002:0000de78       ??_C@_08CKMLAEEI@seed?9ecb?$AA@ 0007ee78     libeay32:obj_dat.obj
 0002:0000de84       ??_C@_08JEKGBFGL@SEED?9ECB?$AA@ 0007ee84     libeay32:obj_dat.obj
 0002:0000de90       ??_C@_04LLEAHKNI@kisa?$AA@ 0007ee90     libeay32:obj_dat.obj
 0002:0000de98       ??_C@_04HHHKJIKA@KISA?$AA@ 0007ee98     libeay32:obj_dat.obj
 0002:0000dea0       ??_C@_0BK@EMNEMCDI@X509v3?5Certificate?5Issuer?$AA@ 0007eea0     libeay32:obj_dat.obj
 0002:0000debc       ??_C@_0BC@NAJGKAHO@certificateIssuer?$AA@ 0007eebc     libeay32:obj_dat.obj
 0002:0000ded0       ??_C@_0CC@MMIACGNM@X509v3?5Issuing?5Distrubution?5Poin@ 0007eed0     libeay32:obj_dat.obj
 0002:0000def4       ??_C@_0BJ@OAOPOBMH@issuingDistributionPoint?$AA@ 0007eef4     libeay32:obj_dat.obj
 0002:0000df10       ??_C@_0CE@OGGDDHCK@X509v3?5Subject?5Directory?5Attribu@ 0007ef10     libeay32:obj_dat.obj
 0002:0000df34       ??_C@_0BL@GAJEKNCJ@subjectDirectoryAttributes?$AA@ 0007ef34     libeay32:obj_dat.obj
 0002:0000df50       ??_C@_0BB@EGAOKAEM@camellia?9256?9ofb?$AA@ 0007ef50     libeay32:obj_dat.obj
 0002:0000df64       ??_C@_0BB@FFEGHOPL@CAMELLIA?9256?9OFB?$AA@ 0007ef64     libeay32:obj_dat.obj
 0002:0000df78       ??_C@_0BB@JELAIPMN@camellia?9192?9ofb?$AA@ 0007ef78     libeay32:obj_dat.obj
 0002:0000df8c       ??_C@_0BB@IHPIFBHK@CAMELLIA?9192?9OFB?$AA@ 0007ef8c     libeay32:obj_dat.obj
 0002:0000dfa0       ??_C@_0BB@DHCMPIFB@camellia?9128?9ofb?$AA@ 0007efa0     libeay32:obj_dat.obj
 0002:0000dfb4       ??_C@_0BB@CEGECGOG@CAMELLIA?9128?9OFB?$AA@ 0007efb4     libeay32:obj_dat.obj
 0002:0000dfc8       ??_C@_0BC@KNEDFCOB@camellia?9256?9cfb8?$AA@ 0007efc8     libeay32:obj_dat.obj
 0002:0000dfdc       ??_C@_0BC@PIFFDMBA@CAMELLIA?9256?9CFB8?$AA@ 0007efdc     libeay32:obj_dat.obj
 0002:0000dff0       ??_C@_0BC@DHCOFPHI@camellia?9192?9cfb8?$AA@ 0007eff0     libeay32:obj_dat.obj
 0002:0000e004       ??_C@_0BC@GCDIDBIJ@CAMELLIA?9192?9CFB8?$AA@ 0007f004     libeay32:obj_dat.obj
 0002:0000e018       ??_C@_0BC@MODEBMGA@camellia?9128?9cfb8?$AA@ 0007f018     libeay32:obj_dat.obj
 0002:0000e02c       ??_C@_0BC@JLCCHCJB@CAMELLIA?9128?9CFB8?$AA@ 0007f02c     libeay32:obj_dat.obj
 0002:0000e040       ??_C@_0BC@HMIBOJKI@camellia?9256?9cfb1?$AA@ 0007f040     libeay32:obj_dat.obj
 0002:0000e054       ??_C@_0BC@CJJHIHFJ@CAMELLIA?9256?9CFB1?$AA@ 0007f054     libeay32:obj_dat.obj
 0002:0000e068       ??_C@_0BC@OGOMOEDB@camellia?9192?9cfb1?$AA@ 0007f068     libeay32:obj_dat.obj
 0002:0000e07c       ??_C@_0BC@LDPKIKMA@CAMELLIA?9192?9CFB1?$AA@ 0007f07c     libeay32:obj_dat.obj
 0002:0000e090       ??_C@_0BC@BPPGKHCJ@camellia?9128?9cfb1?$AA@ 0007f090     libeay32:obj_dat.obj
 0002:0000e0a4       ??_C@_0BC@EKOAMJNI@CAMELLIA?9128?9CFB1?$AA@ 0007f0a4     libeay32:obj_dat.obj
 0002:0000e0b8       ??_C@_0BB@MNIBPPE@camellia?9256?9cfb?$AA@ 0007f0b8     libeay32:obj_dat.obj
 0002:0000e0cc       ??_C@_0BB@BPJAMBED@CAMELLIA?9256?9CFB?$AA@ 0007f0cc     libeay32:obj_dat.obj
 0002:0000e0e0       ??_C@_0BB@NOGGDAHF@camellia?9192?9cfb?$AA@ 0007f0e0     libeay32:obj_dat.obj
 0002:0000e0f4       ??_C@_0BB@MNCOOOMC@CAMELLIA?9192?9CFB?$AA@ 0007f0f4     libeay32:obj_dat.obj
 0002:0000e108       ??_C@_0BB@HNPKEHOJ@camellia?9128?9cfb?$AA@ 0007f108     libeay32:obj_dat.obj
 0002:0000e11c       ??_C@_0BB@GOLCJJFO@CAMELLIA?9128?9CFB?$AA@ 0007f11c     libeay32:obj_dat.obj
 0002:0000e130       ??_C@_0BB@CPHIICMD@camellia?9256?9ecb?$AA@ 0007f130     libeay32:obj_dat.obj
 0002:0000e144       ??_C@_0BB@DMDAFMHE@CAMELLIA?9256?9ECB?$AA@ 0007f144     libeay32:obj_dat.obj
 0002:0000e158       ??_C@_0BB@PNMGKNEC@camellia?9192?9ecb?$AA@ 0007f158     libeay32:obj_dat.obj
 0002:0000e16c       ??_C@_0BB@OOIOHDPF@CAMELLIA?9192?9ECB?$AA@ 0007f16c     libeay32:obj_dat.obj
 0002:0000e180       ??_C@_0BB@FOFKNKNO@camellia?9128?9ecb?$AA@ 0007f180     libeay32:obj_dat.obj
 0002:0000e194       ??_C@_0BB@ENBCAEGJ@CAMELLIA?9128?9ECB?$AA@ 0007f194     libeay32:obj_dat.obj
 0002:0000e1a8       ??_C@_0BB@BCMKIGGJ@camellia?9256?9cbc?$AA@ 0007f1a8     libeay32:obj_dat.obj
 0002:0000e1bc       ??_C@_0BB@BICFINO@CAMELLIA?9256?9CBC?$AA@ 0007f1bc     libeay32:obj_dat.obj
 0002:0000e1d0       ??_C@_0BB@MAHEKJOI@camellia?9192?9cbc?$AA@ 0007f1d0     libeay32:obj_dat.obj
 0002:0000e1e4       ??_C@_0BB@NDDMHHFP@CAMELLIA?9192?9CBC?$AA@ 0007f1e4     libeay32:obj_dat.obj
 0002:0000e1f8       ??_C@_0BB@GDOINOHE@camellia?9128?9cbc?$AA@ 0007f1f8     libeay32:obj_dat.obj
 0002:0000e20c       ??_C@_0BB@HAKAAAMD@CAMELLIA?9128?9CBC?$AA@ 0007f20c     libeay32:obj_dat.obj
 0002:0000e220       ??_C@_06DEKODPNG@ipsec4?$AA@ 0007f220     libeay32:obj_dat.obj
 0002:0000e228       ??_C@_0O@FENFAHJA@Oakley?9EC2N?94?$AA@ 0007f228     libeay32:obj_dat.obj
 0002:0000e238       ??_C@_06HLOPKJBB@ipsec3?$AA@ 0007f238     libeay32:obj_dat.obj
 0002:0000e240       ??_C@_0O@BLJEJBFH@Oakley?9EC2N?93?$AA@ 0007f240     libeay32:obj_dat.obj
 0002:0000e250       ??_C@_0BK@FPAAFIAO@X509v3?5Inhibit?5Any?5Policy?$AA@ 0007f250     libeay32:obj_dat.obj
 0002:0000e26c       ??_C@_0BB@CFCCDKGF@inhibitAnyPolicy?$AA@ 0007f26c     libeay32:obj_dat.obj
 0002:0000e280       ??_C@_0BH@NJBPACCN@X509v3?5Policy?5Mappings?$AA@ 0007f280     libeay32:obj_dat.obj
 0002:0000e298       ??_C@_0P@MEGGINDP@policyMappings?$AA@ 0007f298     libeay32:obj_dat.obj
 0002:0000e2a8       ??_C@_0BC@CEEMIAHF@X509v3?5Any?5Policy?$AA@ 0007f2a8     libeay32:obj_dat.obj
 0002:0000e2bc       ??_C@_09HBBJOJHB@anyPolicy?$AA@ 0007f2bc     libeay32:obj_dat.obj
 0002:0000e2c8       ??_C@_0BI@MNOLKEAO@wap?9wsg?9idm?9ecid?9wtls12?$AA@ 0007f2c8     libeay32:obj_dat.obj
 0002:0000e2e0       ??_C@_0BI@OGMGPHMN@wap?9wsg?9idm?9ecid?9wtls11?$AA@ 0007f2e0     libeay32:obj_dat.obj
 0002:0000e2f8       ??_C@_0BI@PPNNMGIM@wap?9wsg?9idm?9ecid?9wtls10?$AA@ 0007f2f8     libeay32:obj_dat.obj
 0002:0000e310       ??_C@_0BH@DMKMEGHN@wap?9wsg?9idm?9ecid?9wtls9?$AA@ 0007f310     libeay32:obj_dat.obj
 0002:0000e328       ??_C@_0BH@CFLHHHDM@wap?9wsg?9idm?9ecid?9wtls8?$AA@ 0007f328     libeay32:obj_dat.obj
 0002:0000e340       ??_C@_0BH@KCCPGLPD@wap?9wsg?9idm?9ecid?9wtls7?$AA@ 0007f340     libeay32:obj_dat.obj
 0002:0000e358       ??_C@_0BH@LLDEFKLC@wap?9wsg?9idm?9ecid?9wtls6?$AA@ 0007f358     libeay32:obj_dat.obj
 0002:0000e370       ??_C@_0BH@JABJAJHB@wap?9wsg?9idm?9ecid?9wtls5?$AA@ 0007f370     libeay32:obj_dat.obj
 0002:0000e388       ??_C@_0BH@IJACDIDA@wap?9wsg?9idm?9ecid?9wtls4?$AA@ 0007f388     libeay32:obj_dat.obj
 0002:0000e3a0       ??_C@_0BH@MGEDKOPH@wap?9wsg?9idm?9ecid?9wtls3?$AA@ 0007f3a0     libeay32:obj_dat.obj
 0002:0000e3b8       ??_C@_0BH@PEHFMMHF@wap?9wsg?9idm?9ecid?9wtls1?$AA@ 0007f3b8     libeay32:obj_dat.obj
 0002:0000e3d0       ??_C@_09MPLFOIFJ@sect571r1?$AA@ 0007f3d0     libeay32:obj_dat.obj
 0002:0000e3dc       ??_C@_09NMECHAKG@sect571k1?$AA@ 0007f3dc     libeay32:obj_dat.obj
 0002:0000e3e8       ??_C@_09HDHNMPAD@sect409r1?$AA@ 0007f3e8     libeay32:obj_dat.obj
 0002:0000e3f4       ??_C@_09GAIKFHPM@sect409k1?$AA@ 0007f3f4     libeay32:obj_dat.obj
 0002:0000e400       ??_C@_09PKOJIHLL@sect283r1?$AA@ 0007f400     libeay32:obj_dat.obj
 0002:0000e40c       ??_C@_09OJBOBPEE@sect283k1?$AA@ 0007f40c     libeay32:obj_dat.obj
 0002:0000e418       ??_C@_09PBHDMODB@sect239k1?$AA@ 0007f418     libeay32:obj_dat.obj
 0002:0000e424       ??_C@_09INDJLGKK@sect233r1?$AA@ 0007f424     libeay32:obj_dat.obj
 0002:0000e430       ??_C@_09JOMOCOFF@sect233k1?$AA@ 0007f430     libeay32:obj_dat.obj
 0002:0000e43c       ??_C@_09GKDAIPGG@sect193r2?$AA@ 0007f43c     libeay32:obj_dat.obj
 0002:0000e448       ??_C@_09EBBNNMKF@sect193r1?$AA@ 0007f448     libeay32:obj_dat.obj
 0002:0000e454       ??_C@_09OIGABILH@sect163r2?$AA@ 0007f454     libeay32:obj_dat.obj
 0002:0000e460       ??_C@_09MDENELHE@sect163r1?$AA@ 0007f460     libeay32:obj_dat.obj
 0002:0000e46c       ??_C@_09NALKNDIL@sect163k1?$AA@ 0007f46c     libeay32:obj_dat.obj
 0002:0000e478       ??_C@_09IKIJFPEM@sect131r2?$AA@ 0007f478     libeay32:obj_dat.obj
 0002:0000e484       ??_C@_09KBKEAMIP@sect131r1?$AA@ 0007f484     libeay32:obj_dat.obj
 0002:0000e490       ??_C@_09FKEAMEKH@sect113r2?$AA@ 0007f490     libeay32:obj_dat.obj
 0002:0000e49c       ??_C@_09HBGNJHGE@sect113r1?$AA@ 0007f49c     libeay32:obj_dat.obj
 0002:0000e4a8       ??_C@_09PDBKEDDK@secp521r1?$AA@ 0007f4a8     libeay32:obj_dat.obj
 0002:0000e4b4       ??_C@_09FICNEILE@secp384r1?$AA@ 0007f4b4     libeay32:obj_dat.obj
 0002:0000e4c0       ??_C@_09NCBPAPNE@secp256k1?$AA@ 0007f4c0     libeay32:obj_dat.obj
 0002:0000e4cc       ??_C@_09NJMBIDLA@secp224r1?$AA@ 0007f4cc     libeay32:obj_dat.obj
 0002:0000e4d8       ??_C@_09MKDGBLEP@secp224k1?$AA@ 0007f4d8     libeay32:obj_dat.obj
 0002:0000e4e4       ??_C@_09BOBJAHCM@secp192k1?$AA@ 0007f4e4     libeay32:obj_dat.obj
 0002:0000e4f0       ??_C@_09OJKJDEK@secp160r2?$AA@ 0007f4f0     libeay32:obj_dat.obj
 0002:0000e4fc       ??_C@_09CFLHMAIJ@secp160r1?$AA@ 0007f4fc     libeay32:obj_dat.obj
 0002:0000e508       ??_C@_09DGEAFIHG@secp160k1?$AA@ 0007f508     libeay32:obj_dat.obj
 0002:0000e514       ??_C@_09DOKOBNGF@secp128r2?$AA@ 0007f514     libeay32:obj_dat.obj
 0002:0000e520       ??_C@_09BFIDEOKG@secp128r1?$AA@ 0007f520     libeay32:obj_dat.obj
 0002:0000e52c       ??_C@_09BGLDIHNB@secp112r2?$AA@ 0007f52c     libeay32:obj_dat.obj
 0002:0000e538       ??_C@_09DNJONEBC@secp112r1?$AA@ 0007f538     libeay32:obj_dat.obj
 0002:0000e544       ??_C@_0L@OFJKDCBG@c2tnb431r1?$AA@ 0007f544     libeay32:obj_dat.obj
 0002:0000e550       ??_C@_0L@BGFAFBLD@c2pnb368w1?$AA@ 0007f550     libeay32:obj_dat.obj
 0002:0000e55c       ??_C@_0L@LFGCHHDN@c2tnb359v1?$AA@ 0007f55c     libeay32:obj_dat.obj
 0002:0000e568       ??_C@_0L@NDMGBLKL@c2pnb304w1?$AA@ 0007f568     libeay32:obj_dat.obj
 0002:0000e574       ??_C@_0L@IPNBELMC@c2pnb272w1?$AA@ 0007f574     libeay32:obj_dat.obj
 0002:0000e580       ??_C@_0L@LLIHEIJA@c2onb239v5?$AA@ 0007f580     libeay32:obj_dat.obj
 0002:0000e58c       ??_C@_0L@KCJMHJNB@c2onb239v4?$AA@ 0007f58c     libeay32:obj_dat.obj
 0002:0000e598       ??_C@_0L@MDEIDDLK@c2tnb239v3?$AA@ 0007f598     libeay32:obj_dat.obj
 0002:0000e5a4       ??_C@_0L@NKFDACPL@c2tnb239v2?$AA@ 0007f5a4     libeay32:obj_dat.obj
 0002:0000e5b0       ??_C@_0L@PBHOFBDI@c2tnb239v1?$AA@ 0007f5b0     libeay32:obj_dat.obj
 0002:0000e5bc       ??_C@_0L@FCEMHHLG@c2pnb208w1?$AA@ 0007f5bc     libeay32:obj_dat.obj
 0002:0000e5c8       ??_C@_0L@LCBHAKHA@c2onb191v5?$AA@ 0007f5c8     libeay32:obj_dat.obj
 0002:0000e5d4       ??_C@_0L@KLAMDLDB@c2onb191v4?$AA@ 0007f5d4     libeay32:obj_dat.obj
 0002:0000e5e0       ??_C@_0L@MKNIHBFK@c2tnb191v3?$AA@ 0007f5e0     libeay32:obj_dat.obj
 0002:0000e5ec       ??_C@_0L@NDMDEABL@c2tnb191v2?$AA@ 0007f5ec     libeay32:obj_dat.obj
 0002:0000e5f8       ??_C@_0L@PIOOBDNI@c2tnb191v1?$AA@ 0007f5f8     libeay32:obj_dat.obj
 0002:0000e604       ??_C@_0L@IHOFMEAM@c2pnb176v1?$AA@ 0007f604     libeay32:obj_dat.obj
 0002:0000e610       ??_C@_0L@LPGNHPAM@c2pnb163v3?$AA@ 0007f610     libeay32:obj_dat.obj
 0002:0000e61c       ??_C@_0L@KGHGEOEN@c2pnb163v2?$AA@ 0007f61c     libeay32:obj_dat.obj
 0002:0000e628       ??_C@_0L@INFLBNIO@c2pnb163v1?$AA@ 0007f628     libeay32:obj_dat.obj
 0002:0000e634       ??_C@_07GLJEBFP@ppBasis?$AA@ 0007f634     libeay32:obj_dat.obj
 0002:0000e63c       ??_C@_07ICPDEPKF@tpBasis?$AA@ 0007f63c     libeay32:obj_dat.obj
 0002:0000e644       ??_C@_07JEMDIFEL@onBasis?$AA@ 0007f644     libeay32:obj_dat.obj
 0002:0000e64c       ??_C@_0BM@PPOCDOAJ@id?9characteristic?9two?9basis?$AA@ 0007f64c     libeay32:obj_dat.obj
 0002:0000e668       ??_C@_07KJBJKKHG@wap?9wsg?$AA@ 0007f668     libeay32:obj_dat.obj
 0002:0000e670       ??_C@_03EOHJGACH@wap?$AA@  0007f670     libeay32:obj_dat.obj
 0002:0000e674       ??_C@_0N@GOPBJFID@certicom?9arc?$AA@ 0007f674     libeay32:obj_dat.obj
 0002:0000e684       ??_C@_0BI@NDBFOMIA@identified?9organization?$AA@ 0007f684     libeay32:obj_dat.obj
 0002:0000e69c       ??_C@_06DJABMLNO@sha224?$AA@ 0007f69c     libeay32:obj_dat.obj
 0002:0000e6a4       ??_C@_06DANBNIHA@SHA224?$AA@ 0007f6a4     libeay32:obj_dat.obj
 0002:0000e6ac       ??_C@_06PAMKOKLI@sha512?$AA@ 0007f6ac     libeay32:obj_dat.obj
 0002:0000e6b4       ??_C@_06PJBKPJBG@SHA512?$AA@ 0007f6b4     libeay32:obj_dat.obj
 0002:0000e6bc       ??_C@_06IMCKCJGN@sha384?$AA@ 0007f6bc     libeay32:obj_dat.obj
 0002:0000e6c4       ??_C@_06IFPKDKMD@SHA384?$AA@ 0007f6c4     libeay32:obj_dat.obj
 0002:0000e6cc       ??_C@_06OHILPNJ@sha256?$AA@ 0007f6cc     libeay32:obj_dat.obj
 0002:0000e6d4       ??_C@_06HKIKMHH@SHA256?$AA@ 0007f6d4     libeay32:obj_dat.obj
 0002:0000e6dc       ??_C@_0BI@HODNLFBE@sha224WithRSAEncryption?$AA@ 0007f6dc     libeay32:obj_dat.obj
 0002:0000e6f4       ??_C@_0L@BPFBIPIP@RSA?9SHA224?$AA@ 0007f6f4     libeay32:obj_dat.obj
 0002:0000e700       ??_C@_0BI@CFKPHFJF@sha512WithRSAEncryption?$AA@ 0007f700     libeay32:obj_dat.obj
 0002:0000e718       ??_C@_0L@NGJKKOOJ@RSA?9SHA512?$AA@ 0007f718     libeay32:obj_dat.obj
 0002:0000e724       ??_C@_0BI@LGPCJGLE@sha384WithRSAEncryption?$AA@ 0007f724     libeay32:obj_dat.obj
 0002:0000e73c       ??_C@_0L@KKHKGNDM@RSA?9SHA384?$AA@ 0007f73c     libeay32:obj_dat.obj
 0002:0000e748       ??_C@_0BI@OLMNBFHG@sha256WithRSAEncryption?$AA@ 0007f748     libeay32:obj_dat.obj
 0002:0000e760       ??_C@_0L@CICIPLII@RSA?9SHA256?$AA@ 0007f760     libeay32:obj_dat.obj
 0002:0000e76c       ??_C@_0M@MLMKHJLC@Independent?$AA@ 0007f76c     libeay32:obj_dat.obj
 0002:0000e778       ??_C@_0BD@JMNHHICP@id?9ppl?9independent?$AA@ 0007f778     libeay32:obj_dat.obj
 0002:0000e78c       ??_C@_0BI@MLJLAGL@X509v3?5Name?5Constraints?$AA@ 0007f78c     libeay32:obj_dat.obj
 0002:0000e7a4       ??_C@_0BA@NDBMPGLN@nameConstraints?$AA@ 0007f7a4     libeay32:obj_dat.obj
 0002:0000e7b4       ??_C@_0M@FFLAPACB@Inherit?5all?$AA@ 0007f7b4     libeay32:obj_dat.obj
 0002:0000e7c0       ??_C@_0BC@PCEJIIF@id?9ppl?9inheritAll?$AA@ 0007f7c0     libeay32:obj_dat.obj
 0002:0000e7d4       ??_C@_0N@BEBFEGLC@Any?5language?$AA@ 0007f7d4     libeay32:obj_dat.obj
 0002:0000e7e4       ??_C@_0BD@HNCKDFAM@id?9ppl?9anyLanguage?$AA@ 0007f7e4     libeay32:obj_dat.obj
 0002:0000e7f8       ??_C@_0BO@CCHFGBDO@Proxy?5Certificate?5Information?$AA@ 0007f7f8     libeay32:obj_dat.obj
 0002:0000e818       ??_C@_0O@LOINHHBF@proxyCertInfo?$AA@ 0007f818     libeay32:obj_dat.obj
 0002:0000e828       ??_C@_06CAAPGDCJ@id?9ppl?$AA@ 0007f828     libeay32:obj_dat.obj
 0002:0000e830       ??_C@_0L@NCDHJCMF@postalCode?$AA@ 0007f830     libeay32:obj_dat.obj
 0002:0000e83c       ??_C@_0O@GFJANBCD@streetAddress?$AA@ 0007f83c     libeay32:obj_dat.obj
 0002:0000e84c       ??_C@_06KFAFKEEH@street?$AA@ 0007f84c     libeay32:obj_dat.obj
 0002:0000e854       ??_C@_0O@KGNFGAAA@des?9ede3?9cfb8?$AA@ 0007f854     libeay32:obj_dat.obj
 0002:0000e864       ??_C@_0O@KNJKKNCK@DES?9EDE3?9CFB8?$AA@ 0007f864     libeay32:obj_dat.obj
 0002:0000e874       ??_C@_0O@HHBHNLEJ@des?9ede3?9cfb1?$AA@ 0007f874     libeay32:obj_dat.obj
 0002:0000e884       ??_C@_0O@HMFIBGGD@DES?9EDE3?9CFB1?$AA@ 0007f884     libeay32:obj_dat.obj
 0002:0000e894       ??_C@_08HKNDEPIP@des?9cfb8?$AA@ 0007f894     libeay32:obj_dat.obj
 0002:0000e8a0       ??_C@_08JHFHFADM@DES?9CFB8?$AA@ 0007f8a0     libeay32:obj_dat.obj
 0002:0000e8ac       ??_C@_08KLBBPEMG@des?9cfb1?$AA@ 0007f8ac     libeay32:obj_dat.obj
 0002:0000e8b8       ??_C@_08EGJFOLHF@DES?9CFB1?$AA@ 0007f8b8     libeay32:obj_dat.obj
 0002:0000e8c4       ??_C@_0N@GPAECIBG@aes?9256?9cfb8?$AA@ 0007f8c4     libeay32:obj_dat.obj
 0002:0000e8d4       ??_C@_0N@BLGJPBBG@AES?9256?9CFB8?$AA@ 0007f8d4     libeay32:obj_dat.obj
 0002:0000e8e4       ??_C@_0N@PFGJCFIP@aes?9192?9cfb8?$AA@ 0007f8e4     libeay32:obj_dat.obj
 0002:0000e8f4       ??_C@_0N@IBAEPMIP@AES?9192?9CFB8?$AA@ 0007f8f4     libeay32:obj_dat.obj
 0002:0000e904       ??_C@_0N@MHDGGJH@aes?9128?9cfb8?$AA@ 0007f904     libeay32:obj_dat.obj
 0002:0000e914       ??_C@_0N@HIBOLPJH@AES?9128?9CFB8?$AA@ 0007f914     libeay32:obj_dat.obj
 0002:0000e924       ??_C@_0N@LOMGJDFP@aes?9256?9cfb1?$AA@ 0007f924     libeay32:obj_dat.obj
 0002:0000e934       ??_C@_0N@MKKLEKFP@AES?9256?9CFB1?$AA@ 0007f934     libeay32:obj_dat.obj
 0002:0000e944       ??_C@_0N@CEKLJOMG@aes?9192?9cfb1?$AA@ 0007f944     libeay32:obj_dat.obj
 0002:0000e954       ??_C@_0N@FAMGEHMG@AES?9192?9CFB1?$AA@ 0007f954     libeay32:obj_dat.obj
 0002:0000e964       ??_C@_0N@NNLBNNNO@aes?9128?9cfb1?$AA@ 0007f964     libeay32:obj_dat.obj
 0002:0000e974       ??_C@_0N@KJNMAENO@AES?9128?9CFB1?$AA@ 0007f974     libeay32:obj_dat.obj
 0002:0000e984       ??_C@_0CD@POJHJMFG@Microsoft?5Universal?5Principal?5Na@ 0007f984     libeay32:obj_dat.obj
 0002:0000e9a8       ??_C@_05LKLAGLGM@msUPN?$AA@ 0007f9a8     libeay32:obj_dat.obj
 0002:0000e9b0       ??_C@_0BJ@BHLLFCI@Microsoft?5Smartcardlogin?$AA@ 0007f9b0     libeay32:obj_dat.obj
 0002:0000e9cc       ??_C@_0BB@MJPMDGHF@msSmartcardLogin?$AA@ 0007f9cc     libeay32:obj_dat.obj
 0002:0000e9e0       ??_C@_0BM@PGMBEIHL@International?5Organizations?$AA@ 0007f9e0     libeay32:obj_dat.obj
 0002:0000e9fc       ??_C@_0BM@PBBEOBAP@international?9organizations?$AA@ 0007f9fc     libeay32:obj_dat.obj
 0002:0000ea18       ??_C@_0BA@DDCJMADA@joint?9iso?9itu?9t?$AA@ 0007fa18     libeay32:obj_dat.obj
 0002:0000ea28       ??_C@_0BA@NPJCPIN@JOINT?9ISO?9ITU?9T?$AA@ 0007fa28     libeay32:obj_dat.obj
 0002:0000ea38       ??_C@_05EKLDHPCO@itu?9t?$AA@ 0007fa38     libeay32:obj_dat.obj
 0002:0000ea40       ??_C@_05LJGINOIA@ITU?9T?$AA@ 0007fa40     libeay32:obj_dat.obj
 0002:0000ea48       ??_C@_0BF@EIIDBKMM@rsaOAEPEncryptionSET?$AA@ 0007fa48     libeay32:obj_dat.obj
 0002:0000ea60       ??_C@_08PPLOLAOD@des?9cdmf?$AA@ 0007fa60     libeay32:obj_dat.obj
 0002:0000ea6c       ??_C@_08IHLOILPC@DES?9CDMF?$AA@ 0007fa6c     libeay32:obj_dat.obj
 0002:0000ea78       ??_C@_0BA@JHOGHBHC@set?9brand?9Novus?$AA@ 0007fa78     libeay32:obj_dat.obj
 0002:0000ea88       ??_C@_0BF@EKCBHCKG@set?9brand?9MasterCard?$AA@ 0007fa88     libeay32:obj_dat.obj
 0002:0000eaa0       ??_C@_0P@KADKEMKM@set?9brand?9Visa?$AA@ 0007faa0     libeay32:obj_dat.obj
 0002:0000eab0       ??_C@_0O@ODFDKJIN@set?9brand?9JCB?$AA@ 0007fab0     libeay32:obj_dat.obj
 0002:0000eac0       ??_C@_0BK@NGHCPIFJ@set?9brand?9AmericanExpress?$AA@ 0007fac0     libeay32:obj_dat.obj
 0002:0000eadc       ??_C@_0BB@MJOMIBOM@set?9brand?9Diners?$AA@ 0007fadc     libeay32:obj_dat.obj
 0002:0000eaf0       ??_C@_0BD@EBDAHFCK@set?9brand?9IATA?9ATA?$AA@ 0007faf0     libeay32:obj_dat.obj
 0002:0000eb04       ??_C@_0BI@BMDLNIII@secure?5device?5signature?$AA@ 0007fb04     libeay32:obj_dat.obj
 0002:0000eb1c       ??_C@_0BC@HILPEDHB@setAttr?9SecDevSig?$AA@ 0007fb1c     libeay32:obj_dat.obj
 0002:0000eb30       ??_C@_0BH@FLMFBHA@ICC?5or?5token?5signature?$AA@ 0007fb30     libeay32:obj_dat.obj
 0002:0000eb48       ??_C@_0BC@KFHJNGAA@setAttr?9TokICCsig?$AA@ 0007fb48     libeay32:obj_dat.obj
 0002:0000eb5c       ??_C@_0BC@EEELFHMJ@cleartext?5track?52?$AA@ 0007fb5c     libeay32:obj_dat.obj
 0002:0000eb70       ??_C@_0BD@GDDCOMNC@setAttr?9T2cleartxt?$AA@ 0007fb70     libeay32:obj_dat.obj
 0002:0000eb84       ??_C@_0BC@MCHFBPJF@encrypted?5track?52?$AA@ 0007fb84     libeay32:obj_dat.obj
 0002:0000eb98       ??_C@_0O@GFEDKLID@setAttr?9T2Enc?$AA@ 0007fb98     libeay32:obj_dat.obj
 0002:0000eba8       ??_C@_0BE@BANBLNDJ@generate?5cryptogram?$AA@ 0007fba8     libeay32:obj_dat.obj
 0002:0000ebbc       ??_C@_0BE@FJCINFHM@setAttr?9GenCryptgrm?$AA@ 0007fbbc     libeay32:obj_dat.obj
 0002:0000ebd0       ??_C@_0BD@DMNGIJGO@setAttr?9IssCap?9Sig?$AA@ 0007fbd0     libeay32:obj_dat.obj
 0002:0000ebe4       ??_C@_0BC@FKLLNJMF@setAttr?9IssCap?9T2?$AA@ 0007fbe4     libeay32:obj_dat.obj
 0002:0000ebf8       ??_C@_0BD@CMJDLAHE@setAttr?9IssCap?9CVM?$AA@ 0007fbf8     libeay32:obj_dat.obj
 0002:0000ec0c       ??_C@_0BG@ICNBHDJ@setAttr?9Token?9B0Prime?$AA@ 0007fc0c     libeay32:obj_dat.obj
 0002:0000ec24       ??_C@_0BC@BMANBENP@setAttr?9Token?9EMV?$AA@ 0007fc24     libeay32:obj_dat.obj
 0002:0000ec38       ??_C@_0O@NOCONBCM@set?9addPolicy?$AA@ 0007fc38     libeay32:obj_dat.obj
 0002:0000ec48       ??_C@_0BB@MADMNAKK@set?9rootKeyThumb?$AA@ 0007fc48     libeay32:obj_dat.obj
 0002:0000ec5c       ??_C@_0BE@HBDPGKCG@issuer?5capabilities?$AA@ 0007fc5c     libeay32:obj_dat.obj
 0002:0000ec70       ??_C@_0P@OGFLCCKL@setAttr?9IssCap?$AA@ 0007fc70     libeay32:obj_dat.obj
 0002:0000ec80       ??_C@_0BC@IKOKMCIL@setAttr?9TokenType?$AA@ 0007fc80     libeay32:obj_dat.obj
 0002:0000ec94       ??_C@_0BN@HEFBDPEB@payment?5gateway?5capabilities?$AA@ 0007fc94     libeay32:obj_dat.obj
 0002:0000ecb4       ??_C@_0BA@FAIFDKDK@setAttr?9PGWYcap?$AA@ 0007fcb4     libeay32:obj_dat.obj
 0002:0000ecc4       ??_C@_0N@DCNKAAPN@setAttr?9Cert?$AA@ 0007fcc4     libeay32:obj_dat.obj
 0002:0000ecd4       ??_C@_0BL@OLCLGJDA@setCext?9IssuerCapabilities?$AA@ 0007fcd4     libeay32:obj_dat.obj
 0002:0000ecf0       ??_C@_0BC@KMFGLCBL@setCext?9TokenType?$AA@ 0007fcf0     libeay32:obj_dat.obj
 0002:0000ed04       ??_C@_0BD@FHFLAKJD@setCext?9Track2Data?$AA@ 0007fd04     libeay32:obj_dat.obj
 0002:0000ed18       ??_C@_0BI@FIIEHNL@setCext?9TokenIdentifier?$AA@ 0007fd18     libeay32:obj_dat.obj
 0002:0000ed30       ??_C@_0BJ@CNLNHONG@setCext?9PGWYcapabilities?$AA@ 0007fd30     libeay32:obj_dat.obj
 0002:0000ed4c       ??_C@_0BB@HIAOOOIO@setCext?9setQualf?$AA@ 0007fd4c     libeay32:obj_dat.obj
 0002:0000ed60       ??_C@_0P@DFHCPLJG@setCext?9setExt?$AA@ 0007fd60     libeay32:obj_dat.obj
 0002:0000ed70       ??_C@_0BC@BPADJLFJ@setCext?9tunneling?$AA@ 0007fd70     libeay32:obj_dat.obj
 0002:0000ed84       ??_C@_0BG@CMNKGOHO@setCext?9cCertRequired?$AA@ 0007fd84     libeay32:obj_dat.obj
 0002:0000ed9c       ??_C@_0BC@ONMLOIHK@setCext?9merchData?$AA@ 0007fd9c     libeay32:obj_dat.obj
 0002:0000edb0       ??_C@_0BB@LHGCHNFD@setCext?9certType?$AA@ 0007fdb0     libeay32:obj_dat.obj
 0002:0000edc4       ??_C@_0BD@MELPLACB@setCext?9hashedRoot?$AA@ 0007fdc4     libeay32:obj_dat.obj
 0002:0000edd8       ??_C@_0BA@DLJGCPKK@set?9policy?9root?$AA@ 0007fdd8     libeay32:obj_dat.obj
 0002:0000ede8       ??_C@_0BI@MFPOFNGC@additional?5verification?$AA@ 0007fde8     libeay32:obj_dat.obj
 0002:0000ee00       ??_C@_09GMOEIEJI@setext?9cv?$AA@ 0007fe00     libeay32:obj_dat.obj
 0002:0000ee0c       ??_C@_0O@PNAFPHHK@setext?9track2?$AA@ 0007fe0c     libeay32:obj_dat.obj
 0002:0000ee1c       ??_C@_0O@PNHGIFHA@setext?9pinAny?$AA@ 0007fe1c     libeay32:obj_dat.obj
 0002:0000ee2c       ??_C@_0BB@IKLFBNP@setext?9pinSecure?$AA@ 0007fe2c     libeay32:obj_dat.obj
 0002:0000ee40       ??_C@_0BI@IMGNFPLI@merchant?5initiated?5auth?$AA@ 0007fe40     libeay32:obj_dat.obj
 0002:0000ee58       ??_C@_0O@IFMPKKOL@setext?9miAuth?$AA@ 0007fe58     libeay32:obj_dat.obj
 0002:0000ee68       ??_C@_0BD@IMJHIOH@generic?5cryptogram?$AA@ 0007fe68     libeay32:obj_dat.obj
 0002:0000ee7c       ??_C@_0BA@NKJJMGPC@setext?9genCrypt?$AA@ 0007fe7c     libeay32:obj_dat.obj
 0002:0000ee8c       ??_C@_0BJ@BPGLEKIJ@setct?9BCIDistributionTBS?$AA@ 0007fe8c     libeay32:obj_dat.obj
 0002:0000eea8       ??_C@_0BM@GINBKIMJ@setct?9CRLNotificationResTBS?$AA@ 0007fea8     libeay32:obj_dat.obj
 0002:0000eec4       ??_C@_0BJ@KMIJGANO@setct?9CRLNotificationTBS?$AA@ 0007fec4     libeay32:obj_dat.obj
 0002:0000eee0       ??_C@_0BB@KEDMFAIN@setct?9CertResTBE?$AA@ 0007fee0     libeay32:obj_dat.obj
 0002:0000eef4       ??_C@_0BC@KMAHLFJK@setct?9CertReqTBEX?$AA@ 0007fef4     libeay32:obj_dat.obj
 0002:0000ef08       ??_C@_0BB@NOPMADON@setct?9CertReqTBE?$AA@ 0007ff08     libeay32:obj_dat.obj
 0002:0000ef1c       ??_C@_0BE@MIADHNEP@setct?9RegFormReqTBE?$AA@ 0007ff1c     libeay32:obj_dat.obj
 0002:0000ef30       ??_C@_0BH@PFFPEIML@setct?9BatchAdminResTBE?$AA@ 0007ff30     libeay32:obj_dat.obj
 0002:0000ef48       ??_C@_0BH@IPJPBLKL@setct?9BatchAdminReqTBE?$AA@ 0007ff48     libeay32:obj_dat.obj
 0002:0000ef60       ??_C@_0BE@MGLMPAHD@setct?9CredRevResTBE?$AA@ 0007ff60     libeay32:obj_dat.obj
 0002:0000ef74       ??_C@_0BF@PGGAOKCB@setct?9CredRevReqTBEX?$AA@ 0007ff74     libeay32:obj_dat.obj
 0002:0000ef8c       ??_C@_0BE@LMHMKDBD@setct?9CredRevReqTBE?$AA@ 0007ff8c     libeay32:obj_dat.obj
 0002:0000efa0       ??_C@_0BB@NFFENEIP@setct?9CredResTBE?$AA@ 0007ffa0     libeay32:obj_dat.obj
 0002:0000efb4       ??_C@_0BC@ECHILMDC@setct?9CredReqTBEX?$AA@ 0007ffb4     libeay32:obj_dat.obj
 0002:0000efc8       ??_C@_0BB@KPJEIHOP@setct?9CredReqTBE?$AA@ 0007ffc8     libeay32:obj_dat.obj
 0002:0000efdc       ??_C@_0BD@GIBDNMDG@setct?9CapRevResTBE?$AA@ 0007ffdc     libeay32:obj_dat.obj
 0002:0000eff0       ??_C@_0BE@PAHIPABC@setct?9CapRevReqTBEX?$AA@ 0007fff0     libeay32:obj_dat.obj
 0002:0000f004       ??_C@_0BD@BCNDIPFG@setct?9CapRevReqTBE?$AA@ 00080004     libeay32:obj_dat.obj
 0002:0000f018       ??_C@_0BA@MEFGIEBL@setct?9CapResTBE?$AA@ 00080018     libeay32:obj_dat.obj
 0002:0000f028       ??_C@_0BB@LFALOJDP@setct?9CapReqTBEX?$AA@ 00080028     libeay32:obj_dat.obj
 0002:0000f03c       ??_C@_0BA@LOJGNHHL@setct?9CapReqTBE?$AA@ 0008003c     libeay32:obj_dat.obj
 0002:0000f04c       ??_C@_0BF@KKFFJIHO@setct?9AuthRevResTBEB?$AA@ 0008004c     libeay32:obj_dat.obj
 0002:0000f064       ??_C@_0BE@MHAGABNC@setct?9AuthRevResTBE?$AA@ 00080064     libeay32:obj_dat.obj
 0002:0000f078       ??_C@_0BE@LNMGFCLC@setct?9AuthRevReqTBE?$AA@ 00080078     libeay32:obj_dat.obj
 0002:0000f08c       ??_C@_0BI@PALCIALL@setct?9AcqCardCodeMsgTBE?$AA@ 0008008c     libeay32:obj_dat.obj
 0002:0000f0a4       ??_C@_0BD@OMCOOIME@setct?9CapTokenTBEX?$AA@ 000800a4     libeay32:obj_dat.obj
 0002:0000f0b8       ??_C@_0BC@CIKKDLAH@setct?9CapTokenTBE?$AA@ 000800b8     libeay32:obj_dat.obj
 0002:0000f0cc       ??_C@_0BD@DHGMJDKO@setct?9AuthTokenTBE?$AA@ 000800cc     libeay32:obj_dat.obj
 0002:0000f0e0       ??_C@_0BC@OEOIIPOH@setct?9AuthResTBEX?$AA@ 000800e0     libeay32:obj_dat.obj
 0002:0000f0f4       ??_C@_0BB@IDPADFEK@setct?9AuthResTBE?$AA@ 000800f4     libeay32:obj_dat.obj
 0002:0000f108       ??_C@_0BB@PJDAGGCK@setct?9AuthReqTBE?$AA@ 00080108     libeay32:obj_dat.obj
 0002:0000f11c       ??_C@_0BE@IBOAPLDD@setct?9PIUnsignedTBE?$AA@ 0008011c     libeay32:obj_dat.obj
 0002:0000f130       ??_C@_0BG@JDDNBPAG@setct?9PIDualSignedTBE?$AA@ 00080130     libeay32:obj_dat.obj
 0002:0000f148       ??_C@_0P@DLHKHMDJ@setct?9ErrorTBS?$AA@ 00080148     libeay32:obj_dat.obj
 0002:0000f158       ??_C@_0BE@OIDIJLCF@setct?9CertInqReqTBS?$AA@ 00080158     libeay32:obj_dat.obj
 0002:0000f16c       ??_C@_0BC@BIIFIBNO@setct?9CertResData?$AA@ 0008016c     libeay32:obj_dat.obj
 0002:0000f180       ??_C@_0BB@MCGELGDK@setct?9CertReqTBS?$AA@ 00080180     libeay32:obj_dat.obj
 0002:0000f194       ??_C@_0BC@FFENCANF@setct?9CertReqData?$AA@ 00080194     libeay32:obj_dat.obj
 0002:0000f1a8       ??_C@_0BE@KOFLJLPI@setct?9RegFormResTBS?$AA@ 000801a8     libeay32:obj_dat.obj
 0002:0000f1bc       ??_C@_0BG@DIBJJIJB@setct?9MeAqCInitResTBS?$AA@ 000801bc     libeay32:obj_dat.obj
 0002:0000f1d4       ??_C@_0BG@OMHIHPPP@setct?9CardCInitResTBS?$AA@ 000801d4     libeay32:obj_dat.obj
 0002:0000f1ec       ??_C@_0BI@IHGLAGGD@setct?9BatchAdminResData?$AA@ 000801ec     libeay32:obj_dat.obj
 0002:0000f204       ??_C@_0BI@MKKDKHGI@setct?9BatchAdminReqData?$AA@ 00080204     libeay32:obj_dat.obj
 0002:0000f21c       ??_C@_0BC@CFHCKIIA@setct?9PCertResTBS?$AA@ 0008021c     libeay32:obj_dat.obj
 0002:0000f230       ??_C@_0BD@DDNGMNFC@setct?9PCertReqData?$AA@ 00080230     libeay32:obj_dat.obj
 0002:0000f244       ??_C@_0BF@ECOCNOGF@setct?9CredRevResData?$AA@ 00080244     libeay32:obj_dat.obj
 0002:0000f25c       ??_C@_0BF@OOMLDFOD@setct?9CredRevReqTBSX?$AA@ 0008025c     libeay32:obj_dat.obj
 0002:0000f274       ??_C@_0BE@KAOEBGME@setct?9CredRevReqTBS?$AA@ 00080274     libeay32:obj_dat.obj
 0002:0000f288       ??_C@_0BC@PGPKIIHG@setct?9CredResData?$AA@ 00080288     libeay32:obj_dat.obj
 0002:0000f29c       ??_C@_0BC@FKNDGDPA@setct?9CredReqTBSX?$AA@ 0008029c     libeay32:obj_dat.obj
 0002:0000f2b0       ??_C@_0BB@LDAMDCDI@setct?9CredReqTBS?$AA@ 000802b0     libeay32:obj_dat.obj
 0002:0000f2c4       ??_C@_0BE@EEPKMEFG@setct?9CapRevResData?$AA@ 000802c4     libeay32:obj_dat.obj
 0002:0000f2d8       ??_C@_0BE@OINDCPNA@setct?9CapRevReqTBSX?$AA@ 000802d8     libeay32:obj_dat.obj
 0002:0000f2ec       ??_C@_0BD@OELDKIB@setct?9CapRevReqTBS?$AA@ 000802ec     libeay32:obj_dat.obj
 0002:0000f300       ??_C@_0BB@BIJNNHL@setct?9CapResData?$AA@ 00080300     libeay32:obj_dat.obj
 0002:0000f314       ??_C@_0BB@KNKADGPN@setct?9CapReqTBSX?$AA@ 00080314     libeay32:obj_dat.obj
 0002:0000f328       ??_C@_0BA@KCAOGCKM@setct?9CapReqTBS?$AA@ 00080328     libeay32:obj_dat.obj
 0002:0000f338       ??_C@_0BE@NLJOLEAF@setct?9AuthRevResTBS?$AA@ 00080338     libeay32:obj_dat.obj
 0002:0000f34c       ??_C@_0BF@ODDCPHOK@setct?9AuthRevResData?$AA@ 0008034c     libeay32:obj_dat.obj
 0002:0000f364       ??_C@_0BE@KBFOOHGF@setct?9AuthRevReqTBS?$AA@ 00080364     libeay32:obj_dat.obj
 0002:0000f378       ??_C@_0BF@LAOAGKEH@setct?9AcqCardCodeMsg?$AA@ 00080378     libeay32:obj_dat.obj
 0002:0000f390       ??_C@_0BC@DEDCIONA@setct?9CapTokenTBS?$AA@ 00080390     libeay32:obj_dat.obj
 0002:0000f3a4       ??_C@_0BD@BFGEHNIL@setct?9CapTokenData?$AA@ 000803a4     libeay32:obj_dat.obj
 0002:0000f3b8       ??_C@_0BD@CLPECGHJ@setct?9AuthTokenTBS?$AA@ 000803b8     libeay32:obj_dat.obj
 0002:0000f3cc       ??_C@_0BC@PMEDFACF@setct?9AuthResTBSX?$AA@ 000803cc     libeay32:obj_dat.obj
 0002:0000f3e0       ??_C@_0BB@JPGIIAJN@setct?9AuthResTBS?$AA@ 000803e0     libeay32:obj_dat.obj
 0002:0000f3f4       ??_C@_0BB@OFKINDPN@setct?9AuthReqTBS?$AA@ 000803f4     libeay32:obj_dat.obj
 0002:0000f408       ??_C@_0P@NGDEPBBH@setct?9PResData?$AA@ 00080408     libeay32:obj_dat.obj
 0002:0000f418       ??_C@_0N@GIGHFPBJ@setct?9PI?9TBS?$AA@ 00080418     libeay32:obj_dat.obj
 0002:0000f428       ??_C@_0BD@GIEGHJGD@setct?9PInitResData?$AA@ 00080428     libeay32:obj_dat.obj
 0002:0000f43c       ??_C@_0BC@DDFFKACM@setct?9CapTokenSeq?$AA@ 0008043c     libeay32:obj_dat.obj
 0002:0000f450       ??_C@_0BI@CNLKCNFM@setct?9AuthRevResBaggage?$AA@ 00080450     libeay32:obj_dat.obj
 0002:0000f468       ??_C@_0BI@DEMAFNK@setct?9AuthRevReqBaggage?$AA@ 00080468     libeay32:obj_dat.obj
 0002:0000f480       ??_C@_0BF@EFHLGKOJ@setct?9AuthResBaggage?$AA@ 00080480     libeay32:obj_dat.obj
 0002:0000f498       ??_C@_0P@LPBKKIBL@setct?9HODInput?$AA@ 00080498     libeay32:obj_dat.obj
 0002:0000f4a8       ??_C@_0BF@BDFGFMFJ@setct?9PIDataUnsigned?$AA@ 000804a8     libeay32:obj_dat.obj
 0002:0000f4c0       ??_C@_0N@PGCGIPOF@setct?9PIData?$AA@ 000804c0     libeay32:obj_dat.obj
 0002:0000f4d0       ??_C@_08MNJJNIEC@setct?9PI?$AA@ 000804d0     libeay32:obj_dat.obj
 0002:0000f4dc       ??_C@_0N@GHLAGDMC@setct?9OIData?$AA@ 000804dc     libeay32:obj_dat.obj
 0002:0000f4ec       ??_C@_0O@PFJCCKAL@setct?9PANOnly?$AA@ 000804ec     libeay32:obj_dat.obj
 0002:0000f4fc       ??_C@_0P@LAMDLEMO@setct?9PANToken?$AA@ 000804fc     libeay32:obj_dat.obj
 0002:0000f50c       ??_C@_0O@EKAPGBNN@setct?9PANData?$AA@ 0008050c     libeay32:obj_dat.obj
 0002:0000f51c       ??_C@_09JHODGPNO@set?9brand?$AA@ 0008051c     libeay32:obj_dat.obj
 0002:0000f528       ??_C@_0BH@PDPIEGPA@certificate?5extensions?$AA@ 00080528     libeay32:obj_dat.obj
 0002:0000f540       ??_C@_0M@KEIBDDC@set?9certExt?$AA@ 00080540     libeay32:obj_dat.obj
 0002:0000f54c       ??_C@_0L@LAAAKICM@set?9policy?$AA@ 0008054c     libeay32:obj_dat.obj
 0002:0000f558       ??_C@_08OFDIOKIA@set?9attr?$AA@ 00080558     libeay32:obj_dat.obj
 0002:0000f564       ??_C@_0BD@LEIDLLNO@message?5extensions?$AA@ 00080564     libeay32:obj_dat.obj
 0002:0000f578       ??_C@_0L@PKPEIEIJ@set?9msgExt?$AA@ 00080578     libeay32:obj_dat.obj
 0002:0000f584       ??_C@_0O@HJGLMADJ@content?5types?$AA@ 00080584     libeay32:obj_dat.obj
 0002:0000f594       ??_C@_09EJPBIJJA@set?9ctype?$AA@ 00080594     libeay32:obj_dat.obj
 0002:0000f5a0       ??_C@_0BP@KEIHJPNF@Secure?5Electronic?5Transactions?$AA@ 000805a0     libeay32:obj_dat.obj
 0002:0000f5c0       ??_C@_06KKEMDFAF@id?9set?$AA@ 000805c0     libeay32:obj_dat.obj
 0002:0000f5c8       ??_C@_09NNMENHIH@pseudonym?$AA@ 000805c8     libeay32:obj_dat.obj
 0002:0000f5d4       ??_C@_0BE@DAEHFOO@generationQualifier?$AA@ 000805d4     libeay32:obj_dat.obj
 0002:0000f5e8       ??_C@_0BJ@KCNAIDP@id?9hex?9multipart?9message?$AA@ 000805e8     libeay32:obj_dat.obj
 0002:0000f604       ??_C@_0BH@ILCJEHBB@id?9hex?9partial?9message?$AA@ 00080604     libeay32:obj_dat.obj
 0002:0000f61c       ??_C@_0BA@MOFCNIEE@mime?9mhs?9bodies?$AA@ 0008061c     libeay32:obj_dat.obj
 0002:0000f62c       ??_C@_0BC@NIFMCBEJ@mime?9mhs?9headings?$AA@ 0008062c     libeay32:obj_dat.obj
 0002:0000f640       ??_C@_08DNBACEKK@MIME?5MHS?$AA@ 00080640     libeay32:obj_dat.obj
 0002:0000f64c       ??_C@_08HLONPBDI@mime?9mhs?$AA@ 0008064c     libeay32:obj_dat.obj
 0002:0000f658       ??_C@_0BF@EFCCADKK@x500UniqueIdentifier?$AA@ 00080658     libeay32:obj_dat.obj
 0002:0000f670       ??_C@_0BC@KCCHJGGO@documentPublisher?$AA@ 00080670     libeay32:obj_dat.obj
 0002:0000f684       ??_C@_05KNIAAKIP@audio?$AA@ 00080684     libeay32:obj_dat.obj
 0002:0000f68c       ??_C@_0M@KIABODOB@dITRedirect?$AA@ 0008068c     libeay32:obj_dat.obj
 0002:0000f698       ??_C@_0BC@CBOFINFC@personalSignature?$AA@ 00080698     libeay32:obj_dat.obj
 0002:0000f6ac       ??_C@_0BG@FLFPEGPE@subtreeMaximumQuality?$AA@ 000806ac     libeay32:obj_dat.obj
 0002:0000f6c4       ??_C@_0BG@HMOECBMF@subtreeMinimumQuality?$AA@ 000806c4     libeay32:obj_dat.obj
 0002:0000f6dc       ??_C@_0BD@EHDOPADK@singleLevelQuality?$AA@ 000806dc     libeay32:obj_dat.obj
 0002:0000f6f0       ??_C@_0L@LMCCHBHL@dSAQuality?$AA@ 000806f0     libeay32:obj_dat.obj
 0002:0000f6fc       ??_C@_0N@POAALOHC@buildingName?$AA@ 000806fc     libeay32:obj_dat.obj
 0002:0000f70c       ??_C@_0BF@OFOHKDCI@mailPreferenceOption?$AA@ 0008070c     libeay32:obj_dat.obj
 0002:0000f724       ??_C@_0N@DGNBNBGJ@janetMailbox?$AA@ 00080724     libeay32:obj_dat.obj
 0002:0000f734       ??_C@_0BF@IANLBJMF@organizationalStatus?$AA@ 00080734     libeay32:obj_dat.obj
 0002:0000f74c       ??_C@_0BE@MGDAFGCM@friendlyCountryName?$AA@ 0008074c     libeay32:obj_dat.obj
 0002:0000f760       ??_C@_0BF@JICDDEFM@pagerTelephoneNumber?$AA@ 00080760     libeay32:obj_dat.obj
 0002:0000f778       ??_C@_0BG@DCPABLLG@mobileTelephoneNumber?$AA@ 00080778     libeay32:obj_dat.obj
 0002:0000f790       ??_C@_0O@CCHLDBGG@personalTitle?$AA@ 00080790     libeay32:obj_dat.obj
 0002:0000f7a0       ??_C@_0BC@NPJKACJF@homePostalAddress?$AA@ 000807a0     libeay32:obj_dat.obj
 0002:0000f7b4       ??_C@_0P@OJOOFNGB@associatedName?$AA@ 000807b4     libeay32:obj_dat.obj
 0002:0000f7c4       ??_C@_0BB@MEFMIBKO@associatedDomain?$AA@ 000807c4     libeay32:obj_dat.obj
 0002:0000f7d8       ??_C@_0M@GHEAGPOE@cNAMERecord?$AA@ 000807d8     libeay32:obj_dat.obj
 0002:0000f7e4       ??_C@_09OCFHDJJF@sOARecord?$AA@ 000807e4     libeay32:obj_dat.obj
 0002:0000f7f0       ??_C@_08FBLONLGA@nSRecord?$AA@ 000807f0     libeay32:obj_dat.obj
 0002:0000f7fc       ??_C@_08DFFJPLPD@mXRecord?$AA@ 000807fc     libeay32:obj_dat.obj
 0002:0000f808       ??_C@_0BF@MIIMJDJB@pilotAttributeType27?$AA@ 00080808     libeay32:obj_dat.obj
 0002:0000f820       ??_C@_07IBNMBOJB@aRecord?$AA@ 00080820     libeay32:obj_dat.obj
 0002:0000f828       ??_C@_0P@ECLEJAJJ@lastModifiedBy?$AA@ 00080828     libeay32:obj_dat.obj
 0002:0000f838       ??_C@_0BB@LHLABCIP@lastModifiedTime?$AA@ 00080838     libeay32:obj_dat.obj
 0002:0000f84c       ??_C@_0N@CEOKELFP@otherMailbox?$AA@ 0008084c     libeay32:obj_dat.obj
 0002:0000f85c       ??_C@_09EMBFDNKC@secretary?$AA@ 0008085c     libeay32:obj_dat.obj
 0002:0000f868       ??_C@_0BE@CPLAKLNE@homeTelephoneNumber?$AA@ 00080868     libeay32:obj_dat.obj
 0002:0000f87c       ??_C@_0BB@COFKDFJ@documentLocation?$AA@ 0008087c     libeay32:obj_dat.obj
 0002:0000f890       ??_C@_0P@DABDJKFB@documentAuthor?$AA@ 00080890     libeay32:obj_dat.obj
 0002:0000f8a0       ??_C@_0BA@GHOLKFM@documentVersion?$AA@ 000808a0     libeay32:obj_dat.obj
 0002:0000f8b0       ??_C@_0O@BDIDABAC@documentTitle?$AA@ 000808b0     libeay32:obj_dat.obj
 0002:0000f8c0       ??_C@_0BD@MEPJGCEO@documentIdentifier?$AA@ 000808c0     libeay32:obj_dat.obj
 0002:0000f8d4       ??_C@_07JPLKDPHP@manager?$AA@ 000808d4     libeay32:obj_dat.obj
 0002:0000f8dc       ??_C@_04OODOLJMA@host?$AA@ 000808dc     libeay32:obj_dat.obj
 0002:0000f8e4       ??_C@_09CCPGMHEM@userClass?$AA@ 000808e4     libeay32:obj_dat.obj
 0002:0000f8f0       ??_C@_05DOIFDPKA@photo?$AA@ 000808f0     libeay32:obj_dat.obj
 0002:0000f8f8       ??_C@_0L@DGKNANFO@roomNumber?$AA@ 000808f8     libeay32:obj_dat.obj
 0002:0000f904       ??_C@_0P@PAMFCEKP@favouriteDrink?$AA@ 00080904     libeay32:obj_dat.obj
 0002:0000f914       ??_C@_04NIDJFNBE@info?$AA@ 00080914     libeay32:obj_dat.obj
 0002:0000f91c       ??_C@_0O@PDNFEOHL@rfc822Mailbox?$AA@ 0008091c     libeay32:obj_dat.obj
 0002:0000f92c       ??_C@_04FFKLPPHM@mail?$AA@ 0008092c     libeay32:obj_dat.obj
 0002:0000f934       ??_C@_0BF@HDIIKJDI@textEncodedORAddress?$AA@ 00080934     libeay32:obj_dat.obj
 0002:0000f94c       ??_C@_06LPELCIKE@userId?$AA@ 0008094c     libeay32:obj_dat.obj
 0002:0000f954       ??_C@_03MJDGODDN@UID?$AA@  00080954     libeay32:obj_dat.obj
 0002:0000f958       ??_C@_0BE@DDFOMMI@qualityLabelledData?$AA@ 00080958     libeay32:obj_dat.obj
 0002:0000f96c       ??_C@_08MPJGPMC@pilotDSA?$AA@ 0008096c     libeay32:obj_dat.obj
 0002:0000f978       ??_C@_0BC@PLDKCMI@pilotOrganization?$AA@ 00080978     libeay32:obj_dat.obj
 0002:0000f98c       ??_C@_0BF@CONLNHDI@simpleSecurityObject?$AA@ 0008098c     libeay32:obj_dat.obj
 0002:0000f9a4       ??_C@_0BA@LKHIAMBK@friendlyCountry?$AA@ 000809a4     libeay32:obj_dat.obj
 0002:0000f9b4       ??_C@_0BE@OPAPHNCO@domainRelatedObject?$AA@ 000809b4     libeay32:obj_dat.obj
 0002:0000f9c8       ??_C@_09BOCGGGMK@dNSDomain?$AA@ 000809c8     libeay32:obj_dat.obj
 0002:0000f9d4       ??_C@_0BA@KIAIOBLD@rFC822localPart?$AA@ 000809d4     libeay32:obj_dat.obj
 0002:0000f9e4       ??_C@_0P@OAPEDDHP@documentSeries?$AA@ 000809e4     libeay32:obj_dat.obj
 0002:0000f9f4       ??_C@_04EKFCMFOP@room?$AA@ 000809f4     libeay32:obj_dat.obj
 0002:0000f9fc       ??_C@_08JEEDKNPB@document?$AA@ 000809fc     libeay32:obj_dat.obj
 0002:0000fa08       ??_C@_07PMDLEBNF@account?$AA@ 00080a08     libeay32:obj_dat.obj
 0002:0000fa10       ??_C@_0M@NCGDCEIP@pilotPerson?$AA@ 00080a10     libeay32:obj_dat.obj
 0002:0000fa1c       ??_C@_0M@MCCFCPKP@pilotObject?$AA@ 00080a1c     libeay32:obj_dat.obj
 0002:0000fa28       ??_C@_0BK@LELMGJGD@caseIgnoreIA5StringSyntax?$AA@ 00080a28     libeay32:obj_dat.obj
 0002:0000fa44       ??_C@_0BA@KPIIGILK@iA5StringSyntax?$AA@ 00080a44     libeay32:obj_dat.obj
 0002:0000fa54       ??_C@_0M@DLMEDAFC@pilotGroups?$AA@ 00080a54     libeay32:obj_dat.obj
 0002:0000fa60       ??_C@_0BB@MJFNAIDM@pilotObjectClass?$AA@ 00080a60     libeay32:obj_dat.obj
 0002:0000fa74       ??_C@_0BF@CDEFHHCF@pilotAttributeSyntax?$AA@ 00080a74     libeay32:obj_dat.obj
 0002:0000fa8c       ??_C@_0BD@NEGIHOAI@pilotAttributeType?$AA@ 00080a8c     libeay32:obj_dat.obj
 0002:0000faa0       ??_C@_05KIBFDOPF@pilot?$AA@ 00080aa0     libeay32:obj_dat.obj
 0002:0000faa8       ??_C@_03BIDCBJP@ucl?$AA@   00080aa8     libeay32:obj_dat.obj
 0002:0000faac       ??_C@_03OHCBHMED@pss?$AA@  00080aac     libeay32:obj_dat.obj
 0002:0000fab0       ??_C@_04PJOLNDGD@data?$AA@ 00080ab0     libeay32:obj_dat.obj
 0002:0000fab8       ??_C@_0BI@EEABHGCD@Hold?5Instruction?5Reject?$AA@ 00080ab8     libeay32:obj_dat.obj
 0002:0000fad0       ??_C@_0BG@BDAACIJE@holdInstructionReject?$AA@ 00080ad0     libeay32:obj_dat.obj
 0002:0000fae8       ??_C@_0BN@IJKNPIFC@Hold?5Instruction?5Call?5Issuer?$AA@ 00080ae8     libeay32:obj_dat.obj
 0002:0000fb08       ??_C@_0BK@ENEKHHMB@holdInstructionCallIssuer?$AA@ 00080b08     libeay32:obj_dat.obj
 0002:0000fb24       ??_C@_0BG@ECBIHNGK@Hold?5Instruction?5None?$AA@ 00080b24     libeay32:obj_dat.obj
 0002:0000fb3c       ??_C@_0BE@KPEIPHPJ@holdInstructionNone?$AA@ 00080b3c     libeay32:obj_dat.obj
 0002:0000fb50       ??_C@_0BG@LHBPDMAN@Hold?5Instruction?5Code?$AA@ 00080b50     libeay32:obj_dat.obj
 0002:0000fb68       ??_C@_0BE@FKEPLGJO@holdInstructionCode?$AA@ 00080b68     libeay32:obj_dat.obj
 0002:0000fb7c       ??_C@_0M@JMFNEPEI@aes?9256?9cfb?$AA@ 00080b7c     libeay32:obj_dat.obj
 0002:0000fb88       ??_C@_0M@EAFGNFML@AES?9256?9CFB?$AA@ 00080b88     libeay32:obj_dat.obj
 0002:0000fb94       ??_C@_0M@NGILPAPA@aes?9256?9ofb?$AA@ 00080b94     libeay32:obj_dat.obj
 0002:0000fba0       ??_C@_0M@KIAGKHD@AES?9256?9OFB?$AA@ 00080ba0     libeay32:obj_dat.obj
 0002:0000fbac       ??_C@_0M@ICEPNGNF@aes?9256?9cbc?$AA@ 00080bac     libeay32:obj_dat.obj
 0002:0000fbb8       ??_C@_0M@FOEEEMFG@AES?9256?9CBC?$AA@ 00080bb8     libeay32:obj_dat.obj
 0002:0000fbc4       ??_C@_0M@LPPNNCHP@aes?9256?9ecb?$AA@ 00080bc4     libeay32:obj_dat.obj
 0002:0000fbd0       ??_C@_0M@GDPGEIPM@AES?9256?9ECB?$AA@ 00080bd0     libeay32:obj_dat.obj
 0002:0000fbdc       ??_C@_0M@EOODGAMJ@aes?9192?9cfb?$AA@ 00080bdc     libeay32:obj_dat.obj
 0002:0000fbe8       ??_C@_0M@JCOIPKEK@AES?9192?9CFB?$AA@ 00080be8     libeay32:obj_dat.obj
 0002:0000fbf4       ??_C@_0M@EDFNPHB@aes?9192?9ofb?$AA@ 00080bf4     libeay32:obj_dat.obj
 0002:0000fc00       ??_C@_0M@NIDOEFPC@AES?9192?9OFB?$AA@ 00080c00     libeay32:obj_dat.obj
 0002:0000fc0c       ??_C@_0M@FAPBPJFE@aes?9192?9cbc?$AA@ 00080c0c     libeay32:obj_dat.obj
 0002:0000fc18       ??_C@_0M@IMPKGDNH@AES?9192?9CBC?$AA@ 00080c18     libeay32:obj_dat.obj
 0002:0000fc24       ??_C@_0M@GNEDPNPO@aes?9192?9ecb?$AA@ 00080c24     libeay32:obj_dat.obj
 0002:0000fc30       ??_C@_0M@LBEIGHHN@AES?9192?9ECB?$AA@ 00080c30     libeay32:obj_dat.obj
 0002:0000fc3c       ??_C@_0M@ONHPBHFF@aes?9128?9cfb?$AA@ 00080c3c     libeay32:obj_dat.obj
 0002:0000fc48       ??_C@_0M@DBHEINNG@AES?9128?9CFB?$AA@ 00080c48     libeay32:obj_dat.obj
 0002:0000fc54       ??_C@_0M@KHKJKION@aes?9128?9ofb?$AA@ 00080c54     libeay32:obj_dat.obj
 0002:0000fc60       ??_C@_0M@HLKCDCGO@AES?9128?9OFB?$AA@ 00080c60     libeay32:obj_dat.obj
 0002:0000fc6c       ??_C@_0M@PDGNIOMI@aes?9128?9cbc?$AA@ 00080c6c     libeay32:obj_dat.obj
 0002:0000fc78       ??_C@_0M@CPGGBEEL@AES?9128?9CBC?$AA@ 00080c78     libeay32:obj_dat.obj
 0002:0000fc84       ??_C@_0M@MONPIKGC@aes?9128?9ecb?$AA@ 00080c84     libeay32:obj_dat.obj
 0002:0000fc90       ??_C@_0M@BCNEBAOB@AES?9128?9ECB?$AA@ 00080c90     libeay32:obj_dat.obj
 0002:0000fc9c       ??_C@_0BD@HDEEGCLB@Microsoft?5CSP?5Name?$AA@ 00080c9c     libeay32:obj_dat.obj
 0002:0000fcb0       ??_C@_07BPKAKPJK@CSPName?$AA@ 00080cb0     libeay32:obj_dat.obj
 0002:0000fcb8       ??_C@_0BA@DGJNDOPM@ecdsa?9with?9SHA1?$AA@ 00080cb8     libeay32:obj_dat.obj
 0002:0000fcc8       ??_C@_0L@JJFEINOP@prime256v1?$AA@ 00080cc8     libeay32:obj_dat.obj
 0002:0000fcd4       ??_C@_0L@HMEBAKJL@prime239v3?$AA@ 00080cd4     libeay32:obj_dat.obj
 0002:0000fce0       ??_C@_0L@GFFKDLNK@prime239v2?$AA@ 00080ce0     libeay32:obj_dat.obj
 0002:0000fcec       ??_C@_0L@EOHHGIBJ@prime239v1?$AA@ 00080cec     libeay32:obj_dat.obj
 0002:0000fcf8       ??_C@_0L@GHGEOHJF@prime192v3?$AA@ 00080cf8     libeay32:obj_dat.obj
 0002:0000fd04       ??_C@_0L@HOHPNGNE@prime192v2?$AA@ 00080d04     libeay32:obj_dat.obj
 0002:0000fd10       ??_C@_0L@FFFCIFBH@prime192v1?$AA@ 00080d10     libeay32:obj_dat.obj
 0002:0000fd1c       ??_C@_0P@NEOBKIMO@id?9ecPublicKey?$AA@ 00080d1c     libeay32:obj_dat.obj
 0002:0000fd2c       ??_C@_0BJ@HECCMKCN@characteristic?9two?9field?$AA@ 00080d2c     libeay32:obj_dat.obj
 0002:0000fd48       ??_C@_0M@LGLKIODB@prime?9field?$AA@ 00080d48     libeay32:obj_dat.obj
 0002:0000fd54       ??_C@_0L@HAOKGHPF@ANSI?5X9?462?$AA@ 00080d54     libeay32:obj_dat.obj
 0002:0000fd60       ??_C@_0L@LBMOMFCJ@ansi?9X9?962?$AA@ 00080d60     libeay32:obj_dat.obj
 0002:0000fd6c       ??_C@_0BP@DEKFNCEH@X509v3?5No?5Revocation?5Available?$AA@ 00080d6c     libeay32:obj_dat.obj
 0002:0000fd8c       ??_C@_0L@ECGDAGCK@noRevAvail?$AA@ 00080d8c     libeay32:obj_dat.obj
 0002:0000fd98       ??_C@_0BE@IECCFFCH@X509v3?5AC?5Targeting?$AA@ 00080d98     libeay32:obj_dat.obj
 0002:0000fdac       ??_C@_0BC@JINDJNPM@targetInformation?$AA@ 00080dac     libeay32:obj_dat.obj
 0002:0000fdc0       ??_C@_0BK@DNMBLGM@X509v3?5Policy?5Constraints?$AA@ 00080dc0     libeay32:obj_dat.obj
 0002:0000fddc       ??_C@_0BC@IJLMCBHD@policyConstraints?$AA@ 00080ddc     libeay32:obj_dat.obj
 0002:0000fdf0       ??_C@_04IAMNPBLO@role?$AA@ 00080df0     libeay32:obj_dat.obj
 0002:0000fdf8       ??_C@_0BA@PEFFHNFH@id?9aca?9encAttrs?$AA@ 00080df8     libeay32:obj_dat.obj
 0002:0000fe08       ??_C@_0BL@OMFIOBLF@Subject?5Information?5Access?$AA@ 00080e08     libeay32:obj_dat.obj
 0002:0000fe24       ??_C@_0BC@IEIBIKBA@subjectInfoAccess?$AA@ 00080e24     libeay32:obj_dat.obj
 0002:0000fe38       ??_C@_0M@BKAIKGEL@ac?9proxying?$AA@ 00080e38     libeay32:obj_dat.obj
 0002:0000fe44       ??_C@_0BF@JDOFKNPK@md4WithRSAEncryption?$AA@ 00080e44     libeay32:obj_dat.obj
 0002:0000fe5c       ??_C@_07MHHBEDHA@RSA?9MD4?$AA@ 00080e5c     libeay32:obj_dat.obj
 0002:0000fe64       ??_C@_09ECGCCLFI@clearance?$AA@ 00080e64     libeay32:obj_dat.obj
 0002:0000fe70       ??_C@_0BJ@MAOJIBHF@Selected?5Attribute?5Types?$AA@ 00080e70     libeay32:obj_dat.obj
 0002:0000fe8c       ??_C@_0BJ@BDDNHDDA@selected?9attribute?9types?$AA@ 00080e8c     libeay32:obj_dat.obj
 0002:0000fea8       ??_C@_04HIBGFPH@NULL?$AA@  00080ea8     libeay32:obj_dat.obj
 0002:0000feb0       ??_C@_06HFDFFJHI@Domain?$AA@ 00080eb0     libeay32:obj_dat.obj
 0002:0000feb8       ??_C@_06LKIIGAOE@domain?$AA@ 00080eb8     libeay32:obj_dat.obj
 0002:0000fec0       ??_C@_0BA@DMAKFKAH@domainComponent?$AA@ 00080ec0     libeay32:obj_dat.obj
 0002:0000fed0       ??_C@_02KMHJBPDH@DC?$AA@   00080ed0     libeay32:obj_dat.obj
 0002:0000fed4       ??_C@_08GPNKJGDG@dcObject?$AA@ 00080ed4     libeay32:obj_dat.obj
 0002:0000fee0       ??_C@_08KAGHKPKK@dcobject?$AA@ 00080ee0     libeay32:obj_dat.obj
 0002:0000feec       ??_C@_0M@CEEPHGPL@Enterprises?$AA@ 00080eec     libeay32:obj_dat.obj
 0002:0000fef8       ??_C@_0M@DMHOKNAD@enterprises?$AA@ 00080ef8     libeay32:obj_dat.obj
 0002:0000ff04       ??_C@_04JEGKNAHI@Mail?$AA@ 00080f04     libeay32:obj_dat.obj
 0002:0000ff0c       ??_C@_06JDJOGLHO@SNMPv2?$AA@ 00080f0c     libeay32:obj_dat.obj
 0002:0000ff14       ??_C@_06DKHMNHOO@snmpv2?$AA@ 00080f14     libeay32:obj_dat.obj
 0002:0000ff1c       ??_C@_08EDKKPLCC@Security?$AA@ 00080f1c     libeay32:obj_dat.obj
 0002:0000ff28       ??_C@_08MBFLHJIB@security?$AA@ 00080f28     libeay32:obj_dat.obj
 0002:0000ff34       ??_C@_07CFINJGKH@Private?$AA@ 00080f34     libeay32:obj_dat.obj
 0002:0000ff3c       ??_C@_07NMPLPEPB@private?$AA@ 00080f3c     libeay32:obj_dat.obj
 0002:0000ff44       ??_C@_0N@FKCIGJFM@Experimental?$AA@ 00080f44     libeay32:obj_dat.obj
 0002:0000ff54       ??_C@_0N@OJFGCCKJ@experimental?$AA@ 00080f54     libeay32:obj_dat.obj
 0002:0000ff64       ??_C@_0L@ENAJINDB@Management?$AA@ 00080f64     libeay32:obj_dat.obj
 0002:0000ff70       ??_C@_04PFNCJACF@mgmt?$AA@ 00080f70     libeay32:obj_dat.obj
 0002:0000ff78       ??_C@_09EOAFACM@Directory?$AA@ 00080f78     libeay32:obj_dat.obj
 0002:0000ff84       ??_C@_09ELLNFDPM@directory?$AA@ 00080f84     libeay32:obj_dat.obj
 0002:0000ff90       ??_C@_04BAMKDBHE@iana?$AA@ 00080f90     libeay32:obj_dat.obj
 0002:0000ff98       ??_C@_04NMPANDAM@IANA?$AA@ 00080f98     libeay32:obj_dat.obj
 0002:0000ffa0       ??_C@_03CIOFGCAJ@dod?$AA@  00080fa0     libeay32:obj_dat.obj
 0002:0000ffa4       ??_C@_03CFBOKPHF@DOD?$AA@  00080fa4     libeay32:obj_dat.obj
 0002:0000ffa8       ??_C@_03MADHIGOI@org?$AA@  00080fa8     libeay32:obj_dat.obj
 0002:0000ffac       ??_C@_03MNMMELJE@ORG?$AA@  00080fac     libeay32:obj_dat.obj
 0002:0000ffb0       ??_C@_0CA@FIOIBJEO@directory?5services?5?9?5algorithms?$AA@ 00080fb0     libeay32:obj_dat.obj
 0002:0000ffd0       ??_C@_0P@NMIAKCBG@X500algorithms?$AA@ 00080fd0     libeay32:obj_dat.obj
 0002:0000ffe0       ??_C@_0N@JHANBHGC@rsaSignature?$AA@ 00080fe0     libeay32:obj_dat.obj
 0002:0000fff0       ??_C@_09JPNFBOJG@algorithm?$AA@ 00080ff0     libeay32:obj_dat.obj
 0002:0000fffc       ??_C@_0L@INBPOG@Trust?5Root?$AA@ 00080ffc     libeay32:obj_dat.obj
 0002:00010008       ??_C@_09LNEPAILM@trustRoot?$AA@ 00081008     libeay32:obj_dat.obj
 0002:00010014       ??_C@_04LNEJFJGI@path?$AA@ 00081014     libeay32:obj_dat.obj
 0002:0001001c       ??_C@_05HDPIMK@valid?$AA@  0008101c     libeay32:obj_dat.obj
 0002:00010024       ??_C@_0BF@MPEDLKDP@Extended?5OCSP?5Status?$AA@ 00081024     libeay32:obj_dat.obj
 0002:0001003c       ??_C@_0P@EGENIBNC@extendedStatus?$AA@ 0008103c     libeay32:obj_dat.obj
 0002:0001004c       ??_C@_0BF@CEIKAD@OCSP?5Service?5Locator?$AA@ 0008104c     libeay32:obj_dat.obj
 0002:00010064       ??_C@_0P@LCDAPLHC@serviceLocator?$AA@ 00081064     libeay32:obj_dat.obj
 0002:00010074       ??_C@_0BE@JAFPABJB@OCSP?5Archive?5Cutoff?$AA@ 00081074     libeay32:obj_dat.obj
 0002:00010088       ??_C@_0O@FIEDPKGI@archiveCutoff?$AA@ 00081088     libeay32:obj_dat.obj
 0002:00010098       ??_C@_0O@HFOALJCG@OCSP?5No?5Check?$AA@ 00081098     libeay32:obj_dat.obj
 0002:000100a8       ??_C@_07MCKMCKHJ@noCheck?$AA@ 000810a8     libeay32:obj_dat.obj
 0002:000100b0       ??_C@_0BK@JKKLNLEI@Acceptable?5OCSP?5Responses?$AA@ 000810b0     libeay32:obj_dat.obj
 0002:000100cc       ??_C@_0BE@FBPDIHIK@acceptableResponses?$AA@ 000810cc     libeay32:obj_dat.obj
 0002:000100e0       ??_C@_0M@LCLKJALE@OCSP?5CRL?5ID?$AA@ 000810e0     libeay32:obj_dat.obj
 0002:000100ec       ??_C@_05NOENOBME@CrlID?$AA@ 000810ec     libeay32:obj_dat.obj
 0002:000100f4       ??_C@_0L@NCNDEJFL@OCSP?5Nonce?$AA@ 000810f4     libeay32:obj_dat.obj
 0002:00010100       ??_C@_05OJOPLPHH@Nonce?$AA@ 00081100     libeay32:obj_dat.obj
 0002:00010108       ??_C@_0BE@ONEEPEOL@Basic?5OCSP?5Response?$AA@ 00081108     libeay32:obj_dat.obj
 0002:0001011c       ??_C@_0BC@KFAFMFFF@basicOCSPResponse?$AA@ 0008111c     libeay32:obj_dat.obj
 0002:00010130       ??_C@_07JCKMJMPC@ad?5dvcs?$AA@ 00081130     libeay32:obj_dat.obj
 0002:00010138       ??_C@_07JCCJJKFE@AD_DVCS?$AA@ 00081138     libeay32:obj_dat.obj
 0002:00010140       ??_C@_0BB@NMPPBOGK@AD?5Time?5Stamping?$AA@ 00081140     libeay32:obj_dat.obj
 0002:00010154       ??_C@_0BA@PBBONLHE@ad_timestamping?$AA@ 00081154     libeay32:obj_dat.obj
 0002:00010164       ??_C@_0BD@DDALHPCH@id?9cct?9PKIResponse?$AA@ 00081164     libeay32:obj_dat.obj
 0002:00010178       ??_C@_0P@FNCPPGJO@id?9cct?9PKIData?$AA@ 00081178     libeay32:obj_dat.obj
 0002:00010188       ??_C@_0L@CDHPLMPE@id?9cct?9crs?$AA@ 00081188     libeay32:obj_dat.obj
 0002:00010194       ??_C@_0BH@DJONLBHI@id?9qcs?9pkixQCSyntax?9v1?$AA@ 00081194     libeay32:obj_dat.obj
 0002:000101ac       ??_C@_0M@FBOAJIIJ@id?9aca?9role?$AA@ 000811ac     libeay32:obj_dat.obj
 0002:000101b8       ??_C@_0N@HOPCGOGP@id?9aca?9group?$AA@ 000811b8     libeay32:obj_dat.obj
 0002:000101c8       ??_C@_0BI@IDHFJBKH@id?9aca?9chargingIdentity?$AA@ 000811c8     libeay32:obj_dat.obj
 0002:000101e0       ??_C@_0BG@GFJCFEAI@id?9aca?9accessIdentity?$AA@ 000811e0     libeay32:obj_dat.obj
 0002:000101f8       ??_C@_0BK@OFEDAOCA@id?9aca?9authenticationInfo?$AA@ 000811f8     libeay32:obj_dat.obj
 0002:00010214       ??_C@_0BK@BJMNIGCJ@id?9pda?9countryOfResidence?$AA@ 00081214     libeay32:obj_dat.obj
 0002:00010230       ??_C@_0BM@KMGEGNAB@id?9pda?9countryOfCitizenship?$AA@ 00081230     libeay32:obj_dat.obj
 0002:0001024c       ??_C@_0O@JMCFNPFD@id?9pda?9gender?$AA@ 0008124c     libeay32:obj_dat.obj
 0002:0001025c       ??_C@_0BE@NIFFDBPJ@id?9pda?9placeOfBirth?$AA@ 0008125c     libeay32:obj_dat.obj
 0002:00010270       ??_C@_0BD@BADJMIPF@id?9pda?9dateOfBirth?$AA@ 00081270     libeay32:obj_dat.obj
 0002:00010284       ??_C@_0BD@IGLADCFL@id?9on?9personalData?$AA@ 00081284     libeay32:obj_dat.obj
 0002:00010298       ??_C@_0BN@MIGHDJON@id?9cmc?9confirmCertAcceptance?$AA@ 00081298     libeay32:obj_dat.obj
 0002:000102b8       ??_C@_0BG@EEIJMDPB@id?9cmc?9popLinkWitness?$AA@ 000812b8     libeay32:obj_dat.obj
 0002:000102d0       ??_C@_0BF@GGLCNKGO@id?9cmc?9popLinkRandom?$AA@ 000812d0     libeay32:obj_dat.obj
 0002:000102e8       ??_C@_0BE@JKLJLIIH@id?9cmc?9queryPending?$AA@ 000812e8     libeay32:obj_dat.obj
 0002:000102fc       ??_C@_0BE@CKMFMMDP@id?9cmc?9responseInfo?$AA@ 000812fc     libeay32:obj_dat.obj
 0002:00010310       ??_C@_0P@PCIOIKNC@id?9cmc?9regInfo?$AA@ 00081310     libeay32:obj_dat.obj
 0002:00010320       ??_C@_0BF@BOEAJJNI@id?9cmc?9revokeRequest?$AA@ 00081320     libeay32:obj_dat.obj
 0002:00010338       ??_C@_0O@OIGIOBJ@id?9cmc?9getCRL?$AA@ 00081338     libeay32:obj_dat.obj
 0002:00010348       ??_C@_0P@GMDPJKDO@id?9cmc?9getCert?$AA@ 00081348     libeay32:obj_dat.obj
 0002:00010358       ??_C@_0BF@BMODAINP@id?9cmc?9lraPOPWitness?$AA@ 00081358     libeay32:obj_dat.obj
 0002:00010370       ??_C@_0BE@KBIPLENG@id?9cmc?9decryptedPOP?$AA@ 00081370     libeay32:obj_dat.obj
 0002:00010384       ??_C@_0BE@NILMJFN@id?9cmc?9encryptedPOP?$AA@ 00081384     libeay32:obj_dat.obj
 0002:00010398       ??_C@_0BF@HLOCACJF@id?9cmc?9addExtensions?$AA@ 00081398     libeay32:obj_dat.obj
 0002:000103b0       ??_C@_0BG@JLHHNNCH@id?9cmc?9recipientNonce?$AA@ 000813b0     libeay32:obj_dat.obj
 0002:000103c8       ??_C@_0BD@BCMJDDMP@id?9cmc?9senderNonce?$AA@ 000813c8     libeay32:obj_dat.obj
 0002:000103dc       ??_C@_0BF@GEJAHBF@id?9cmc?9transactionId?$AA@ 000813dc     libeay32:obj_dat.obj
 0002:000103f4       ??_C@_0BC@LLJKCHEN@id?9cmc?9dataReturn?$AA@ 000813f4     libeay32:obj_dat.obj
 0002:00010408       ??_C@_0BF@IDAHNDCK@id?9cmc?9identityProof?$AA@ 00081408     libeay32:obj_dat.obj
 0002:00010420       ??_C@_0BG@PPIINOMK@id?9cmc?9identification?$AA@ 00081420     libeay32:obj_dat.obj
 0002:00010438       ??_C@_0BC@CMNEPEAI@id?9cmc?9statusInfo?$AA@ 00081438     libeay32:obj_dat.obj
 0002:0001044c       ??_C@_0O@OBGPPBGA@id?9alg?9dh?9pop?$AA@ 0008144c     libeay32:obj_dat.obj
 0002:0001045c       ??_C@_0BI@KIODNBCM@id?9alg?9dh?9sig?9hmac?9sha1?$AA@ 0008145c     libeay32:obj_dat.obj
 0002:00010474       ??_C@_0BD@LAAJOBHI@id?9alg?9noSignature?$AA@ 00081474     libeay32:obj_dat.obj
 0002:00010488       ??_C@_0N@KIJONBNA@id?9alg?9des40?$AA@ 00081488     libeay32:obj_dat.obj
 0002:00010498       ??_C@_0BD@EEAPBNJJ@id?9regInfo?9certReq?$AA@ 00081498     libeay32:obj_dat.obj
 0002:000104ac       ??_C@_0BF@FHFGHAHE@id?9regInfo?9utf8Pairs?$AA@ 000814ac     libeay32:obj_dat.obj
 0002:000104c4       ??_C@_0BL@GHBPLPHM@id?9regCtrl?9protocolEncrKey?$AA@ 000814c4     libeay32:obj_dat.obj
 0002:000104e0       ??_C@_0BF@GFJPNJIG@id?9regCtrl?9oldCertID?$AA@ 000814e0     libeay32:obj_dat.obj
 0002:000104f8       ??_C@_0BN@ONKHMAOP@id?9regCtrl?9pkiArchiveOptions?$AA@ 000814f8     libeay32:obj_dat.obj
 0002:00010518       ??_C@_0BO@GJKPPLPL@id?9regCtrl?9pkiPublicationInfo?$AA@ 00081518     libeay32:obj_dat.obj
 0002:00010538       ??_C@_0BJ@FBKKLLKP@id?9regCtrl?9authenticator?$AA@ 00081538     libeay32:obj_dat.obj
 0002:00010554       ??_C@_0BE@JDMKCIPE@id?9regCtrl?9regToken?$AA@ 00081554     libeay32:obj_dat.obj
 0002:00010568       ??_C@_0L@BGHMJHOP@id?9regInfo?$AA@ 00081568     libeay32:obj_dat.obj
 0002:00010574       ??_C@_0L@FDGKGANK@id?9regCtrl?$AA@ 00081574     libeay32:obj_dat.obj
 0002:00010580       ??_C@_0BF@CLCJJGFI@id?9it?9origPKIMessage?$AA@ 00081580     libeay32:obj_dat.obj
 0002:00010598       ??_C@_0BG@KCBHNMIK@id?9it?9confirmWaitTime?$AA@ 00081598     libeay32:obj_dat.obj
 0002:000105b0       ??_C@_0BG@MKDHCJKF@id?9it?9implicitConfirm?$AA@ 000815b0     libeay32:obj_dat.obj
 0002:000105c8       ??_C@_0BE@FOOOCPMH@id?9it?9revPassphrase?$AA@ 000815c8     libeay32:obj_dat.obj
 0002:000105dc       ??_C@_0BG@KPIIFBLH@id?9it?9keyPairParamRep?$AA@ 000815dc     libeay32:obj_dat.obj
 0002:000105f4       ??_C@_0BG@LGJDGAPG@id?9it?9keyPairParamReq?$AA@ 000815f4     libeay32:obj_dat.obj
 0002:0001060c       ??_C@_0BL@HBPHBFLO@id?9it?9subscriptionResponse?$AA@ 0008160c     libeay32:obj_dat.obj
 0002:00010628       ??_C@_0BK@MKGCMKGI@id?9it?9subscriptionRequest?$AA@ 00081628     libeay32:obj_dat.obj
 0002:00010644       ??_C@_0BG@BPLKDJPD@id?9it?9unsupportedOIDs?$AA@ 00081644     libeay32:obj_dat.obj
 0002:0001065c       ??_C@_0BB@NHKBGJFG@id?9it?9currentCRL?$AA@ 0008165c     libeay32:obj_dat.obj
 0002:00010670       ??_C@_0BG@OAKEHPLC@id?9it?9caKeyUpdateInfo?$AA@ 00081670     libeay32:obj_dat.obj
 0002:00010688       ??_C@_0BH@JFBOPDCH@id?9it?9preferredSymmAlg?$AA@ 00081688     libeay32:obj_dat.obj
 0002:000106a0       ??_C@_0BG@FKIDIODL@id?9it?9encKeyPairTypes?$AA@ 000816a0     libeay32:obj_dat.obj
 0002:000106b8       ??_C@_0BH@POCENFBA@id?9it?9signKeyPairTypes?$AA@ 000816b8     libeay32:obj_dat.obj
 0002:000106d0       ??_C@_0BE@GJACIPND@id?9it?9caProtEncCert?$AA@ 000816d0     libeay32:obj_dat.obj
 0002:000106e4       ??_C@_04FFLIHJGD@dvcs?$AA@ 000816e4     libeay32:obj_dat.obj
 0002:000106ec       ??_C@_04JJICJLBL@DVCS?$AA@ 000816ec     libeay32:obj_dat.obj
 0002:000106f4       ??_C@_0L@DECDDCGF@IPSec?5User?$AA@ 000816f4     libeay32:obj_dat.obj
 0002:00010700       ??_C@_09GOHJKOFF@ipsecUser?$AA@ 00081700     libeay32:obj_dat.obj
 0002:0001070c       ??_C@_0N@EKDIOGLO@IPSec?5Tunnel?$AA@ 0008170c     libeay32:obj_dat.obj
 0002:0001071c       ??_C@_0M@GMMHFFHI@ipsecTunnel?$AA@ 0008171c     libeay32:obj_dat.obj
 0002:00010728       ??_C@_0BB@JEJDAICO@IPSec?5End?5System?$AA@ 00081728     libeay32:obj_dat.obj
 0002:0001073c       ??_C@_0P@MKBFMAPP@ipsecEndSystem?$AA@ 0008173c     libeay32:obj_dat.obj
 0002:0001074c       ??_C@_0L@HLNNPJEH@textNotice?$AA@ 0008174c     libeay32:obj_dat.obj
 0002:00010758       ??_C@_0BG@JCJJBMAI@sbgp?9routerIdentifier?$AA@ 00081758     libeay32:obj_dat.obj
 0002:00010770       ??_C@_0BG@OJEHJDKA@sbgp?9autonomousSysNum?$AA@ 00081770     libeay32:obj_dat.obj
 0002:00010788       ??_C@_0BB@NNCKCHBC@sbgp?9ipAddrBlock?$AA@ 00081788     libeay32:obj_dat.obj
 0002:0001079c       ??_C@_0L@DLGBNBJE@aaControls?$AA@ 0008179c     libeay32:obj_dat.obj
 0002:000107a8       ??_C@_0N@FPEEOJCI@ac?9targeting?$AA@ 000817a8     libeay32:obj_dat.obj
 0002:000107b8       ??_C@_0P@CIOHPJGC@ac?9auditEntity?$AA@ 000817b8     libeay32:obj_dat.obj
 0002:000107c8       ??_C@_0N@FPMNLLM@qcStatements?$AA@ 000817c8     libeay32:obj_dat.obj
 0002:000107d8       ??_C@_0P@KFKDECPH@Biometric?5Info?$AA@ 000817d8     libeay32:obj_dat.obj
 0002:000107e8       ??_C@_0O@MPIIPAHM@biometricInfo?$AA@ 000817e8     libeay32:obj_dat.obj
 0002:000107f8       ??_C@_0P@MMOAAMFD@id?9mod?9cmp2000?$AA@ 000817f8     libeay32:obj_dat.obj
 0002:00010808       ??_C@_0M@GHDGNJKI@id?9mod?9dvcs?$AA@ 00081808     libeay32:obj_dat.obj
 0002:00010814       ??_C@_0M@EACKLPKH@id?9mod?9ocsp?$AA@ 00081814     libeay32:obj_dat.obj
 0002:00010820       ??_C@_0BK@GAJOODEK@id?9mod?9timestamp?9protocol?$AA@ 00081820     libeay32:obj_dat.obj
 0002:0001083c       ??_C@_0BG@EPPFBJNH@id?9mod?9attribute?9cert?$AA@ 0008183c     libeay32:obj_dat.obj
 0002:00010854       ??_C@_0BJ@IGODAJIK@id?9mod?9qualified?9cert?993?$AA@ 00081854     libeay32:obj_dat.obj
 0002:00010870       ??_C@_0BJ@GENFLKHG@id?9mod?9qualified?9cert?988?$AA@ 00081870     libeay32:obj_dat.obj
 0002:0001088c       ??_C@_0L@MONEHBKH@id?9mod?9cmp?$AA@ 0008188c     libeay32:obj_dat.obj
 0002:00010898       ??_C@_0BG@NAFGGBFM@id?9mod?9kea?9profile?993?$AA@ 00081898     libeay32:obj_dat.obj
 0002:000108b0       ??_C@_0BG@DCGANCKA@id?9mod?9kea?9profile?988?$AA@ 000818b0     libeay32:obj_dat.obj
 0002:000108c8       ??_C@_0L@KPDLDADF@id?9mod?9cmc?$AA@ 000818c8     libeay32:obj_dat.obj
 0002:000108d4       ??_C@_0M@GHFPFJPB@id?9mod?9crmf?$AA@ 000818d4     libeay32:obj_dat.obj
 0002:000108e0       ??_C@_0BF@EOKAKKIK@id?9pkix1?9implicit?993?$AA@ 000818e0     libeay32:obj_dat.obj
 0002:000108f8       ??_C@_0BF@JEALIPIC@id?9pkix1?9explicit?993?$AA@ 000818f8     libeay32:obj_dat.obj
 0002:00010910       ??_C@_0BF@KMJGBJHG@id?9pkix1?9implicit?988?$AA@ 00081910     libeay32:obj_dat.obj
 0002:00010928       ??_C@_0BF@HGDNDMHO@id?9pkix1?9explicit?988?$AA@ 00081928     libeay32:obj_dat.obj
 0002:00010940       ??_C@_06PONIBOCI@id?9cct?$AA@ 00081940     libeay32:obj_dat.obj
 0002:00010948       ??_C@_06ELIJBHPL@id?9qcs?$AA@ 00081948     libeay32:obj_dat.obj
 0002:00010950       ??_C@_06GDGEDALH@id?9aca?$AA@ 00081950     libeay32:obj_dat.obj
 0002:00010958       ??_C@_06IOIOBGMI@id?9pda?$AA@ 00081958     libeay32:obj_dat.obj
 0002:00010960       ??_C@_05OHNJGMJE@id?9on?$AA@ 00081960     libeay32:obj_dat.obj
 0002:00010968       ??_C@_06PBMFLHLE@id?9cmc?$AA@ 00081968     libeay32:obj_dat.obj
 0002:00010970       ??_C@_06DOGCNAAM@id?9alg?$AA@ 00081970     libeay32:obj_dat.obj
 0002:00010978       ??_C@_07OMHOPMIM@id?9pkip?$AA@ 00081978     libeay32:obj_dat.obj
 0002:00010980       ??_C@_05FDHJOKPN@id?9it?$AA@ 00081980     libeay32:obj_dat.obj
 0002:00010988       ??_C@_05EBEMBIDF@id?9qt?$AA@ 00081988     libeay32:obj_dat.obj
 0002:00010990       ??_C@_0M@FNAFBNKE@id?9pkix?9mod?$AA@ 00081990     libeay32:obj_dat.obj
 0002:0001099c       ??_C@_03ODADJPDG@md4?$AA@  0008199c     libeay32:obj_dat.obj
 0002:000109a0       ??_C@_03HLHMHGOI@MD4?$AA@  000819a0     libeay32:obj_dat.obj
 0002:000109a4       ??_C@_0CB@MICJDGGH@id?9smime?9cti?9ets?9proofOfCreation@ 000819a4     libeay32:obj_dat.obj
 0002:000109c8       ??_C@_0CB@DDLMHEBC@id?9smime?9cti?9ets?9proofOfApproval@ 000819c8     libeay32:obj_dat.obj
 0002:000109ec       ??_C@_0BP@ODCAFFCM@id?9smime?9cti?9ets?9proofOfSender?$AA@ 000819ec     libeay32:obj_dat.obj
 0002:00010a0c       ??_C@_0CB@ICJGPMEP@id?9smime?9cti?9ets?9proofOfDelivery@ 00081a0c     libeay32:obj_dat.obj
 0002:00010a30       ??_C@_0CA@HNGOKBGC@id?9smime?9cti?9ets?9proofOfReceipt?$AA@ 00081a30     libeay32:obj_dat.obj
 0002:00010a50       ??_C@_0BP@BCHFEGHC@id?9smime?9cti?9ets?9proofOfOrigin?$AA@ 00081a50     libeay32:obj_dat.obj
 0002:00010a70       ??_C@_0BN@GPAAHNOH@id?9smime?9spq?9ets?9sqt?9unotice?$AA@ 00081a70     libeay32:obj_dat.obj
 0002:00010a90       ??_C@_0BJ@IMNKDGEG@id?9smime?9spq?9ets?9sqt?9uri?$AA@ 00081a90     libeay32:obj_dat.obj
 0002:00010aac       ??_C@_0BB@BMOBKAGE@id?9smime?9cd?9ldap?$AA@ 00081aac     libeay32:obj_dat.obj
 0002:00010ac0       ??_C@_0BI@FIFDKKFJ@id?9smime?9alg?9CMSRC2wrap?$AA@ 00081ac0     libeay32:obj_dat.obj
 0002:00010ad8       ??_C@_0BJ@FOFHEIDB@id?9smime?9alg?9CMS3DESwrap?$AA@ 00081ad8     libeay32:obj_dat.obj
 0002:00010af4       ??_C@_0BC@COOODKPD@id?9smime?9alg?9ESDH?$AA@ 00081af4     libeay32:obj_dat.obj
 0002:00010b08       ??_C@_0BF@JNCPAJCA@id?9smime?9alg?9RC2wrap?$AA@ 00081b08     libeay32:obj_dat.obj
 0002:00010b20       ??_C@_0BG@HHELPNAK@id?9smime?9alg?93DESwrap?$AA@ 00081b20     libeay32:obj_dat.obj
 0002:00010b38       ??_C@_0BJ@FIJMOHBJ@id?9smime?9alg?9ESDHwithRC2?$AA@ 00081b38     libeay32:obj_dat.obj
 0002:00010b54       ??_C@_0BK@JNJOCCCB@id?9smime?9alg?9ESDHwith3DES?$AA@ 00081b54     libeay32:obj_dat.obj
 0002:00010b70       ??_C@_0BF@KEMAMBKF@id?9smime?9aa?9dvcs?9dvc?$AA@ 00081b70     libeay32:obj_dat.obj
 0002:00010b88       ??_C@_0BK@HDBIPLFI@id?9smime?9aa?9signatureType?$AA@ 00081b88     libeay32:obj_dat.obj
 0002:00010ba4       ??_C@_0CB@BEMKNJGO@id?9smime?9aa?9ets?9archiveTimeStamp@ 00081ba4     libeay32:obj_dat.obj
 0002:00010bc8       ??_C@_0CB@CJNBPJE@id?9smime?9aa?9ets?9certCRLTimestamp@ 00081bc8     libeay32:obj_dat.obj
 0002:00010bec       ??_C@_0BN@HGLOGOFI@id?9smime?9aa?9ets?9escTimeStamp?$AA@ 00081bec     libeay32:obj_dat.obj
 0002:00010c0c       ??_C@_0CB@GOCEFPFO@id?9smime?9aa?9ets?9revocationValues@ 00081c0c     libeay32:obj_dat.obj
 0002:00010c30       ??_C@_0BL@IFKOLDIG@id?9smime?9aa?9ets?9certValues?$AA@ 00081c30     libeay32:obj_dat.obj
 0002:00010c4c       ??_C@_0BP@BCHJHNFO@id?9smime?9aa?9ets?9RevocationRefs?$AA@ 00081c4c     libeay32:obj_dat.obj
 0002:00010c6c       ??_C@_0CA@NKIOCHLG@id?9smime?9aa?9ets?9CertificateRefs?$AA@ 00081c6c     libeay32:obj_dat.obj
 0002:00010c8c       ??_C@_0CB@GHKINGOH@id?9smime?9aa?9ets?9contentTimestamp@ 00081c8c     libeay32:obj_dat.obj
 0002:00010cb0       ??_C@_0BN@JFIFOPBH@id?9smime?9aa?9ets?9otherSigCert?$AA@ 00081cb0     libeay32:obj_dat.obj
 0002:00010cd0       ??_C@_0BL@KDJDAGDC@id?9smime?9aa?9ets?9signerAttr?$AA@ 00081cd0     libeay32:obj_dat.obj
 0002:00010cec       ??_C@_0BP@EODAELPO@id?9smime?9aa?9ets?9signerLocation?$AA@ 00081cec     libeay32:obj_dat.obj
 0002:00010d0c       ??_C@_0BP@OLIFPEIM@id?9smime?9aa?9ets?9commitmentType?$AA@ 00081d0c     libeay32:obj_dat.obj
 0002:00010d2c       ??_C@_0BM@GKFMJCFL@id?9smime?9aa?9ets?9sigPolicyId?$AA@ 00081d2c     libeay32:obj_dat.obj
 0002:00010d48       ??_C@_0BL@DHJOIJNE@id?9smime?9aa?9timeStampToken?$AA@ 00081d48     libeay32:obj_dat.obj
 0002:00010d64       ??_C@_0BO@CEEOANBD@id?9smime?9aa?9smimeEncryptCerts?$AA@ 00081d64     libeay32:obj_dat.obj
 0002:00010d84       ??_C@_0BP@LHGJLGIB@id?9smime?9aa?9signingCertificate?$AA@ 00081d84     libeay32:obj_dat.obj
 0002:00010da4       ??_C@_0BK@LAPEFMP@id?9smime?9aa?9encrypKeyPref?$AA@ 00081da4     libeay32:obj_dat.obj
 0002:00010dc0       ??_C@_0BN@LEFAEFL@id?9smime?9aa?9contentReference?$AA@ 00081dc0     libeay32:obj_dat.obj
 0002:00010de0       ??_C@_0BN@NFAAOKEA@id?9smime?9aa?9equivalentLabels?$AA@ 00081de0     libeay32:obj_dat.obj
 0002:00010e00       ??_C@_0BF@CFNHFPDB@id?9smime?9aa?9macValue?$AA@ 00081e00     libeay32:obj_dat.obj
 0002:00010e18       ??_C@_0BO@KMJGIAMK@id?9smime?9aa?9contentIdentifier?$AA@ 00081e18     libeay32:obj_dat.obj
 0002:00010e38       ??_C@_0BN@GCCNOJCG@id?9smime?9aa?9encapContentType?$AA@ 00081e38     libeay32:obj_dat.obj
 0002:00010e58       ??_C@_0BJ@LJLDKMDH@id?9smime?9aa?9msgSigDigest?$AA@ 00081e58     libeay32:obj_dat.obj
 0002:00010e74       ??_C@_0BI@EMGPJFHB@id?9smime?9aa?9contentHint?$AA@ 00081e74     libeay32:obj_dat.obj
 0002:00010e8c       ??_C@_0BM@OEKGBMLE@id?9smime?9aa?9mlExpandHistory?$AA@ 00081e8c     libeay32:obj_dat.obj
 0002:00010ea8       ??_C@_0BK@DNJNJILO@id?9smime?9aa?9securityLabel?$AA@ 00081ea8     libeay32:obj_dat.obj
 0002:00010ec4       ??_C@_0BL@LMGNMPFD@id?9smime?9aa?9receiptRequest?$AA@ 00081ec4     libeay32:obj_dat.obj
 0002:00010ee0       ??_C@_0BN@POKJLKJJ@id?9smime?9ct?9DVCSResponseData?$AA@ 00081ee0     libeay32:obj_dat.obj
 0002:00010f00       ??_C@_0BM@MFKPCEGN@id?9smime?9ct?9DVCSRequestData?$AA@ 00081f00     libeay32:obj_dat.obj
 0002:00010f1c       ??_C@_0BI@BGKPNMK@id?9smime?9ct?9contentInfo?$AA@ 00081f1c     libeay32:obj_dat.obj
 0002:00010f34       ??_C@_0BE@FKPPBHI@id?9smime?9ct?9TDTInfo?$AA@ 00081f34     libeay32:obj_dat.obj
 0002:00010f48       ??_C@_0BE@KHNGFDDI@id?9smime?9ct?9TSTInfo?$AA@ 00081f48     libeay32:obj_dat.obj
 0002:00010f5c       ??_C@_0BI@DBILCLFJ@id?9smime?9ct?9publishCert?$AA@ 00081f5c     libeay32:obj_dat.obj
 0002:00010f74       ??_C@_0BF@KGEHGOF@id?9smime?9ct?9authData?$AA@ 00081f74     libeay32:obj_dat.obj
 0002:00010f8c       ??_C@_0BE@GCHIHBHA@id?9smime?9ct?9receipt?$AA@ 00081f8c     libeay32:obj_dat.obj
 0002:00010fa0       ??_C@_0BP@CCCOHHAI@id?9smime?9mod?9ets?9eSigPolicy?997?$AA@ 00081fa0     libeay32:obj_dat.obj
 0002:00010fc0       ??_C@_0BP@KEHEABPA@id?9smime?9mod?9ets?9eSigPolicy?988?$AA@ 00081fc0     libeay32:obj_dat.obj
 0002:00010fe0       ??_C@_0BP@POGMGJII@id?9smime?9mod?9ets?9eSignature?997?$AA@ 00081fe0     libeay32:obj_dat.obj
 0002:00011000       ??_C@_0BP@HIDGBPHA@id?9smime?9mod?9ets?9eSignature?988?$AA@ 00082000     libeay32:obj_dat.obj
 0002:00011020       ??_C@_0BE@PEENABNJ@id?9smime?9mod?9msg?9v3?$AA@ 00082020     libeay32:obj_dat.obj
 0002:00011034       ??_C@_0BB@LBBEMNBN@id?9smime?9mod?9oid?$AA@ 00082034     libeay32:obj_dat.obj
 0002:00011048       ??_C@_0BB@MKJLIPEJ@id?9smime?9mod?9ess?$AA@ 00082048     libeay32:obj_dat.obj
 0002:0001105c       ??_C@_0BB@PJEIFOOP@id?9smime?9mod?9cms?$AA@ 0008205c     libeay32:obj_dat.obj
 0002:00011070       ??_C@_0N@CFBKAPGC@id?9smime?9cti?$AA@ 00082070     libeay32:obj_dat.obj
 0002:00011080       ??_C@_0N@PABBGIHI@id?9smime?9spq?$AA@ 00082080     libeay32:obj_dat.obj
 0002:00011090       ??_C@_0M@LHBAJBP@id?9smime?9cd?$AA@ 00082090     libeay32:obj_dat.obj
 0002:0001109c       ??_C@_0N@DKFBIKP@id?9smime?9alg?$AA@ 0008209c     libeay32:obj_dat.obj
 0002:000110ac       ??_C@_0M@HFICCJDE@id?9smime?9aa?$AA@ 000820ac     libeay32:obj_dat.obj
 0002:000110b8       ??_C@_0M@EBLDBLEO@id?9smime?9ct?$AA@ 000820b8     libeay32:obj_dat.obj
 0002:000110c4       ??_C@_0N@GABIEKIN@id?9smime?9mod?$AA@ 000820c4     libeay32:obj_dat.obj
 0002:000110d4       ??_C@_06DFGHEKNE@S?1MIME?$AA@ 000820d4     libeay32:obj_dat.obj
 0002:000110dc       ??_C@_05HHBEAKJJ@SMIME?$AA@ 000820dc     libeay32:obj_dat.obj
 0002:000110e4       ??_C@_05HGOIFJJD@pkcs5?$AA@ 000820e4     libeay32:obj_dat.obj
 0002:000110ec       ??_C@_05BCIEJMJH@pkcs1?$AA@ 000820ec     libeay32:obj_dat.obj
 0002:000110f4       ??_C@_0L@DJCLIPOH@X9?457?5CM?5?$DP?$AA@ 000820f4     libeay32:obj_dat.obj
 0002:00011100       ??_C@_04CGFPFLFA@X9cm?$AA@ 00082100     libeay32:obj_dat.obj
 0002:00011108       ??_C@_05PAJLFBHD@X9?457?$AA@ 00082108     libeay32:obj_dat.obj
 0002:00011110       ??_C@_05OCCOPOJN@X9?957?$AA@ 00082110     libeay32:obj_dat.obj
 0002:00011118       ??_C@_0BD@NMCDOJHL@ISO?5US?5Member?5Body?$AA@ 00082118     libeay32:obj_dat.obj
 0002:0001112c       ??_C@_06EKAADAMF@ISO?9US?$AA@ 0008212c     libeay32:obj_dat.obj
 0002:00011134       ??_C@_0BA@BGDAEHGF@ISO?5Member?5Body?$AA@ 00082134     libeay32:obj_dat.obj
 0002:00011144       ??_C@_0M@CMICFDOA@member?9body?$AA@ 00082144     libeay32:obj_dat.obj
 0002:00011150       ??_C@_03CMEHDJAL@iso?$AA@  00082150     libeay32:obj_dat.obj
 0002:00011154       ??_C@_03CBLMPEHH@ISO?$AA@  00082154     libeay32:obj_dat.obj
 0002:00011158       ??_C@_0N@CPJNIPDD@OCSP?5Signing?$AA@ 00082158     libeay32:obj_dat.obj
 0002:00011168       ??_C@_0M@HBKJLKNM@OCSPSigning?$AA@ 00082168     libeay32:obj_dat.obj
 0002:00011174       ??_C@_0L@CABCENFK@CA?5Issuers?$AA@ 00082174     libeay32:obj_dat.obj
 0002:00011180       ??_C@_09GFPECPIH@caIssuers?$AA@ 00082180     libeay32:obj_dat.obj
 0002:0001118c       ??_C@_04LOJOPNBE@OCSP?$AA@ 0008218c     libeay32:obj_dat.obj
 0002:00011194       ??_C@_0BN@EILCOJAN@Authority?5Information?5Access?$AA@ 00082194     libeay32:obj_dat.obj
 0002:000111b4       ??_C@_0BE@PLCGCINM@authorityInfoAccess?$AA@ 000821b4     libeay32:obj_dat.obj
 0002:000111c8       ??_C@_05BHKIKJBE@id?9ad?$AA@ 000821c8     libeay32:obj_dat.obj
 0002:000111d0       ??_C@_05BDFHFBBC@id?9pe?$AA@ 000821d0     libeay32:obj_dat.obj
 0002:000111d8       ??_C@_0M@DNNLEIMI@dnQualifier?$AA@ 000821d8     libeay32:obj_dat.obj
 0002:000111e4       ??_C@_04MEMAJGDJ@name?$AA@ 000821e4     libeay32:obj_dat.obj
 0002:000111ec       ??_C@_0BC@GLHEKHCC@Extension?5Request?$AA@ 000821ec     libeay32:obj_dat.obj
 0002:00011200       ??_C@_06EJACAMDF@extReq?$AA@ 00082200     libeay32:obj_dat.obj
 0002:00011208       ??_C@_0BM@MEJAMAEO@Microsoft?5Extension?5Request?$AA@ 00082208     libeay32:obj_dat.obj
 0002:00011224       ??_C@_08HCCJAOPJ@msExtReq?$AA@ 00082224     libeay32:obj_dat.obj
 0002:00011230       ??_C@_0BG@JLHBEJLP@pbeWithSHA1AndDES?9CBC?$AA@ 00082230     libeay32:obj_dat.obj
 0002:00011248       ??_C@_0N@GOPIPBOD@PBE?9SHA1?9DES?$AA@ 00082248     libeay32:obj_dat.obj
 0002:00011258       ??_C@_0BF@CKDLCJKD@pbeWithMD5AndRC2?9CBC?$AA@ 00082258     libeay32:obj_dat.obj
 0002:00011270       ??_C@_0P@IDPFKEHM@PBE?9MD5?9RC2?964?$AA@ 00082270     libeay32:obj_dat.obj
 0002:00011280       ??_C@_0BF@FOKDMACM@pbeWithMD2AndRC2?9CBC?$AA@ 00082280     libeay32:obj_dat.obj
 0002:00011298       ??_C@_0P@OHJEMJLF@PBE?9MD2?9RC2?964?$AA@ 00082298     libeay32:obj_dat.obj
 0002:000112a8       ??_C@_0BE@CEEFMCAI@S?1MIME?5Capabilities?$AA@ 000822a8     libeay32:obj_dat.obj
 0002:000112bc       ??_C@_0L@LCBJGKJG@SMIME?9CAPS?$AA@ 000822bc     libeay32:obj_dat.obj
 0002:000112c8       ??_C@_0L@CLELMECA@rc2?964?9cbc?$AA@ 000822c8     libeay32:obj_dat.obj
 0002:000112d4       ??_C@_0L@OPHBIFFL@RC2?964?9CBC?$AA@ 000822d4     libeay32:obj_dat.obj
 0002:000112e0       ??_C@_0BN@KPMBKEE@Policy?5Qualifier?5User?5Notice?$AA@ 000822e0     libeay32:obj_dat.obj
 0002:00011300       ??_C@_0O@CJFHFAHE@id?9qt?9unotice?$AA@ 00082300     libeay32:obj_dat.obj
 0002:00011310       ??_C@_0BF@HPKIKKPI@Policy?5Qualifier?5CPS?$AA@ 00082310     libeay32:obj_dat.obj
 0002:00011328       ??_C@_09MIPGHKGJ@id?9qt?9cps?$AA@ 00082328     libeay32:obj_dat.obj
 0002:00011334       ??_C@_0N@KANOAIP@hmacWithSHA1?$AA@ 00082334     libeay32:obj_dat.obj
 0002:00011344       ??_C@_06DEJMPFNK@PBMAC1?$AA@ 00082344     libeay32:obj_dat.obj
 0002:0001134c       ??_C@_05EPMADBBF@PBES2?$AA@ 0008234c     libeay32:obj_dat.obj
 0002:00011354       ??_C@_07KAOEJCFK@x509Crl?$AA@ 00082354     libeay32:obj_dat.obj
 0002:0001135c       ??_C@_0BA@BFAOBDKH@sdsiCertificate?$AA@ 0008235c     libeay32:obj_dat.obj
 0002:0001136c       ??_C@_0BA@EMOFOCJL@x509Certificate?$AA@ 0008236c     libeay32:obj_dat.obj
 0002:0001137c       ??_C@_0L@BCMHPPAO@localKeyID?$AA@ 0008237c     libeay32:obj_dat.obj
 0002:00011388       ??_C@_0N@BGFMPLCM@friendlyName?$AA@ 00082388     libeay32:obj_dat.obj
 0002:00011398       ??_C@_0BA@KAKLKBBC@safeContentsBag?$AA@ 00082398     libeay32:obj_dat.obj
 0002:000113a8       ??_C@_09DELDBPIE@secretBag?$AA@ 000823a8     libeay32:obj_dat.obj
 0002:000113b4       ??_C@_06JAFBIMLO@crlBag?$AA@ 000823b4     libeay32:obj_dat.obj
 0002:000113bc       ??_C@_07FDLMCII@certBag?$AA@ 000823bc     libeay32:obj_dat.obj
 0002:000113c4       ??_C@_0BE@ELJKIANF@pkcs8ShroudedKeyBag?$AA@ 000823c4     libeay32:obj_dat.obj
 0002:000113d8       ??_C@_06BFGNOIAI@keyBag?$AA@ 000823d8     libeay32:obj_dat.obj
 0002:000113e0       ??_C@_0BL@CKNKIMON@pbeWithSHA1And40BitRC2?9CBC?$AA@ 000823e0     libeay32:obj_dat.obj
 0002:000113fc       ??_C@_0BA@MNBMNMAN@PBE?9SHA1?9RC2?940?$AA@ 000823fc     libeay32:obj_dat.obj
 0002:0001140c       ??_C@_0BM@DOLDINME@pbeWithSHA1And128BitRC2?9CBC?$AA@ 0008240c     libeay32:obj_dat.obj
 0002:00011428       ??_C@_0BB@FNLJPIMG@PBE?9SHA1?9RC2?9128?$AA@ 00082428     libeay32:obj_dat.obj
 0002:0001143c       ??_C@_0CB@NCMPKEGH@pbeWithSHA1And2?9KeyTripleDES?9CBC@ 0008243c     libeay32:obj_dat.obj
 0002:00011460       ??_C@_0O@HOHOOIGM@PBE?9SHA1?92DES?$AA@ 00082460     libeay32:obj_dat.obj
 0002:00011470       ??_C@_0CB@FCNCEDP@pbeWithSHA1And3?9KeyTripleDES?9CBC@ 00082470     libeay32:obj_dat.obj
 0002:00011494       ??_C@_0O@EDBOMBNM@PBE?9SHA1?93DES?$AA@ 00082494     libeay32:obj_dat.obj
 0002:000114a4       ??_C@_0BH@OCAEJMIL@pbeWithSHA1And40BitRC4?$AA@ 000824a4     libeay32:obj_dat.obj
 0002:000114bc       ??_C@_0BA@ECFMCJKN@PBE?9SHA1?9RC4?940?$AA@ 000824bc     libeay32:obj_dat.obj
 0002:000114cc       ??_C@_0BI@LBIFCLPB@pbeWithSHA1And128BitRC4?$AA@ 000824cc     libeay32:obj_dat.obj
 0002:000114e4       ??_C@_0BB@ILOABLNL@PBE?9SHA1?9RC4?9128?$AA@ 000824e4     libeay32:obj_dat.obj
 0002:000114f8       ??_C@_0BD@PNDCMCDK@Strong?5Extranet?5ID?$AA@ 000824f8     libeay32:obj_dat.obj
 0002:0001150c       ??_C@_07DKMNOLMH@SXNetID?$AA@ 0008250c     libeay32:obj_dat.obj
 0002:00011514       ??_C@_0BA@JDBEMONE@Invalidity?5Date?$AA@ 00082514     libeay32:obj_dat.obj
 0002:00011524       ??_C@_0P@BKEGCOMO@invalidityDate?$AA@ 00082524     libeay32:obj_dat.obj
 0002:00011534       ??_C@_0BH@GODIEFKG@X509v3?5CRL?5Reason?5Code?$AA@ 00082534     libeay32:obj_dat.obj
 0002:0001154c       ??_C@_09MCDAGILE@CRLReason?$AA@ 0008254c     libeay32:obj_dat.obj
 0002:00011558       ??_C@_0BL@HLNLPBHP@X509v3?5Delta?5CRL?5Indicator?$AA@ 00082558     libeay32:obj_dat.obj
 0002:00011574       ??_C@_08ECNAKPJJ@deltaCRL?$AA@ 00082574     libeay32:obj_dat.obj
 0002:00011580       ??_C@_0BN@MDNLHLBL@Netscape?5Server?5Gated?5Crypto?$AA@ 00082580     libeay32:obj_dat.obj
 0002:000115a0       ??_C@_05LFIIINKG@nsSGC?$AA@ 000825a0     libeay32:obj_dat.obj
 0002:000115a8       ??_C@_0CA@IJODBCMB@Microsoft?5Encrypted?5File?5System?$AA@ 000825a8     libeay32:obj_dat.obj
 0002:000115c8       ??_C@_05NGOIPCN@msEFS?$AA@ 000825c8     libeay32:obj_dat.obj
 0002:000115d0       ??_C@_0BO@FBDDCLK@Microsoft?5Server?5Gated?5Crypto?$AA@ 000825d0     libeay32:obj_dat.obj
 0002:000115f0       ??_C@_05DDBMPPAI@msSGC?$AA@ 000825f0     libeay32:obj_dat.obj
 0002:000115f8       ??_C@_0BN@GNMCHNOI@Microsoft?5Trust?5List?5Signing?$AA@ 000825f8     libeay32:obj_dat.obj
 0002:00011618       ??_C@_09HGCLLDPK@msCTLSign?$AA@ 00082618     libeay32:obj_dat.obj
 0002:00011624       ??_C@_0CC@GKFNEBFA@Microsoft?5Commercial?5Code?5Signin@ 00082624     libeay32:obj_dat.obj
 0002:00011648       ??_C@_09PDGAMFAO@msCodeCom?$AA@ 00082648     libeay32:obj_dat.obj
 0002:00011654       ??_C@_0CC@NDDHKAMP@Microsoft?5Individual?5Code?5Signin@ 00082654     libeay32:obj_dat.obj
 0002:00011678       ??_C@_09EMNNPEBE@msCodeInd?$AA@ 00082678     libeay32:obj_dat.obj
 0002:00011684       ??_C@_0O@GMMBLMEE@Time?5Stamping?$AA@ 00082684     libeay32:obj_dat.obj
 0002:00011694       ??_C@_0N@LONEBHPN@timeStamping?$AA@ 00082694     libeay32:obj_dat.obj
 0002:000116a4       ??_C@_0BC@BLBGFKKG@E?9mail?5Protection?$AA@ 000826a4     libeay32:obj_dat.obj
 0002:000116b8       ??_C@_0BA@NPCFDPCO@emailProtection?$AA@ 000826b8     libeay32:obj_dat.obj
 0002:000116c8       ??_C@_0N@CHJHLHFC@Code?5Signing?$AA@ 000826c8     libeay32:obj_dat.obj
 0002:000116d8       ??_C@_0M@OJNCNGJ@codeSigning?$AA@ 000826d8     libeay32:obj_dat.obj
 0002:000116e4       ??_C@_0BO@FEMCBEOF@TLS?5Web?5Client?5Authentication?$AA@ 000826e4     libeay32:obj_dat.obj
 0002:00011704       ??_C@_0L@HCMKLLOP@clientAuth?$AA@ 00082704     libeay32:obj_dat.obj
 0002:00011710       ??_C@_0BO@HPFOJNNE@TLS?5Web?5Server?5Authentication?$AA@ 00082710     libeay32:obj_dat.obj
 0002:00011730       ??_C@_0L@CINGAJGN@serverAuth?$AA@ 00082730     libeay32:obj_dat.obj
 0002:0001173c       ??_C@_05DEJBPLJH@id?9kp?$AA@ 0008273c     libeay32:obj_dat.obj
 0002:00011744       ??_C@_04EAPCHJAG@PKIX?$AA@ 00082744     libeay32:obj_dat.obj
 0002:0001174c       ??_C@_0BK@KFMGFBEG@X509v3?5Extended?5Key?5Usage?$AA@ 0008274c     libeay32:obj_dat.obj
 0002:00011768       ??_C@_0BB@DGDLKPHD@extendedKeyUsage?$AA@ 00082768     libeay32:obj_dat.obj
 0002:0001177c       ??_C@_0BB@KGNEOBKL@zlib?5compression?$AA@ 0008277c     libeay32:obj_dat.obj
 0002:00011790       ??_C@_04CHLIKDMF@ZLIB?$AA@ 00082790     libeay32:obj_dat.obj
 0002:00011798       ??_C@_0BH@CAEIMNHD@run?5length?5compression?$AA@ 00082798     libeay32:obj_dat.obj
 0002:000117b0       ??_C@_03ELDBCICO@RLE?$AA@  000827b0     libeay32:obj_dat.obj
 0002:000117b4       ??_C@_07NLMEMEEK@rc5?9ofb?$AA@ 000827b4     libeay32:obj_dat.obj
 0002:000117bc       ??_C@_07OAPEFCPM@RC5?9OFB?$AA@ 000827bc     libeay32:obj_dat.obj
 0002:000117c4       ??_C@_07JBBCHLPC@rc5?9cfb?$AA@ 000827c4     libeay32:obj_dat.obj
 0002:000117cc       ??_C@_07KKCCONEE@RC5?9CFB?$AA@ 000827cc     libeay32:obj_dat.obj
 0002:000117d4       ??_C@_07LCLCOGMF@rc5?9ecb?$AA@ 000827d4     libeay32:obj_dat.obj
 0002:000117dc       ??_C@_07IJICHAHD@RC5?9ECB?$AA@ 000827dc     libeay32:obj_dat.obj
 0002:000117e4       ??_C@_07IPAAOCGP@rc5?9cbc?$AA@ 000827e4     libeay32:obj_dat.obj
 0002:000117ec       ??_C@_07LEDAHENJ@RC5?9CBC?$AA@ 000827ec     libeay32:obj_dat.obj
 0002:000117f4       ??_C@_0BB@DCJDAKFH@ripemd160WithRSA?$AA@ 000827f4     libeay32:obj_dat.obj
 0002:00011808       ??_C@_0O@JPOIHGOH@RSA?9RIPEMD160?$AA@ 00082808     libeay32:obj_dat.obj
 0002:00011818       ??_C@_09EDIPKBN@ripemd160?$AA@ 00082818     libeay32:obj_dat.obj
 0002:00011824       ??_C@_09DJDCAKJG@RIPEMD160?$AA@ 00082824     libeay32:obj_dat.obj
 0002:00011830       ??_C@_0O@GMANLAEO@dsaEncryption?$AA@ 00082830     libeay32:obj_dat.obj
 0002:00011840       ??_C@_03ENFFABCE@DSA?$AA@  00082840     libeay32:obj_dat.obj
 0002:00011844       ??_C@_0M@KECGAPAA@sha1WithRSA?$AA@ 00082844     libeay32:obj_dat.obj
 0002:00011850       ??_C@_0L@EMMEGDKK@RSA?9SHA1?92?$AA@ 00082850     libeay32:obj_dat.obj
 0002:0001185c       ??_C@_08GOLKFMKI@md5?9sha1?$AA@ 0008285c     libeay32:obj_dat.obj
 0002:00011868       ??_C@_08EMIDHKIH@MD5?9SHA1?$AA@ 00082868     libeay32:obj_dat.obj
 0002:00011874       ??_C@_0M@EFJKPOPH@dsaWithSHA1?$AA@ 00082874     libeay32:obj_dat.obj
 0002:00011880       ??_C@_08IOHJAANG@DSA?9SHA1?$AA@ 00082880     libeay32:obj_dat.obj
 0002:0001188c       ??_C@_0BG@JCFINJGL@pbeWithMD5AndCast5CBC?$AA@ 0008288c     libeay32:obj_dat.obj
 0002:000118a4       ??_C@_09ECHHPLBP@cast5?9ofb?$AA@ 000828a4     libeay32:obj_dat.obj
 0002:000118b0       ??_C@_09LEOLOMNK@CAST5?9OFB?$AA@ 000828b0     libeay32:obj_dat.obj
 0002:000118bc       ??_C@_09IKBEEKH@cast5?9cfb?$AA@ 000828bc     libeay32:obj_dat.obj
 0002:000118c8       ??_C@_09PODNFDGC@CAST5?9CFB?$AA@ 000828c8     libeay32:obj_dat.obj
 0002:000118d4       ??_C@_09CLABNJJA@cast5?9ecb?$AA@ 000828d4     libeay32:obj_dat.obj
 0002:000118e0       ??_C@_09NNJNMOFF@CAST5?9ECB?$AA@ 000828e0     libeay32:obj_dat.obj
 0002:000118ec       ??_C@_09BGLDNNDK@cast5?9cbc?$AA@ 000828ec     libeay32:obj_dat.obj
 0002:000118f8       ??_C@_09OACPMKPP@CAST5?9CBC?$AA@ 000828f8     libeay32:obj_dat.obj
 0002:00011904       ??_C@_0M@PPJNHBMP@description?$AA@ 00082904     libeay32:obj_dat.obj
 0002:00011910       ??_C@_05PHLGJONK@title?$AA@ 00082910     libeay32:obj_dat.obj
 0002:00011918       ??_C@_0N@OMOHFKCJ@serialNumber?$AA@ 00082918     libeay32:obj_dat.obj
 0002:00011928       ??_C@_0L@CNDCBNIN@md5WithRSA?$AA@ 00082928     libeay32:obj_dat.obj
 0002:00011934       ??_C@_0L@NACEPNFC@RSA?9NP?9MD5?$AA@ 00082934     libeay32:obj_dat.obj
 0002:00011940       ??_C@_0BP@EGHJGANM@X509v3?5CRL?5Distribution?5Points?$AA@ 00082940     libeay32:obj_dat.obj
 0002:00011960       ??_C@_0BG@CCHGOEBE@crlDistributionPoints?$AA@ 00082960     libeay32:obj_dat.obj
 0002:00011978       ??_C@_08PAKNLFON@initials?$AA@ 00082978     libeay32:obj_dat.obj
 0002:00011984       ??_C@_07LNKFHLHI@surname?$AA@ 00082984     libeay32:obj_dat.obj
 0002:0001198c       ??_C@_02LONEIP@SN?$AA@     0008298c     libeay32:obj_dat.obj
 0002:00011990       ??_C@_09GCBNJLNP@givenName?$AA@ 00082990     libeay32:obj_dat.obj
 0002:0001199c       ??_C@_02BLJBNPCD@GN?$AA@   0008299c     libeay32:obj_dat.obj
 0002:000119a0       ??_C@_0L@CHEFJHBP@rc2?940?9cbc?$AA@ 000829a0     libeay32:obj_dat.obj
 0002:000119ac       ??_C@_0L@ODHPNGGE@RC2?940?9CBC?$AA@ 000829ac     libeay32:obj_dat.obj
 0002:000119b8       ??_C@_06GNNJIOGN@rc4?940?$AA@ 000829b8     libeay32:obj_dat.obj
 0002:000119c0       ??_C@_06KFMILCMH@RC4?940?$AA@ 000829c0     libeay32:obj_dat.obj
 0002:000119c8       ??_C@_0M@HGGNEPNN@mdc2WithRSA?$AA@ 000829c8     libeay32:obj_dat.obj
 0002:000119d4       ??_C@_08OMAMCKNL@RSA?9MDC2?$AA@ 000829d4     libeay32:obj_dat.obj
 0002:000119e0       ??_C@_04ELNKPKEC@mdc2?$AA@ 000829e0     libeay32:obj_dat.obj
 0002:000119e8       ??_C@_04BCGEDMJI@MDC2?$AA@ 000829e8     libeay32:obj_dat.obj
 0002:000119f0       ??_C@_06OBJCCDFN@bf?9ofb?$AA@ 000829f0     libeay32:obj_dat.obj
 0002:000119f8       ??_C@_06CEHINCIL@BF?9OFB?$AA@ 000829f8     libeay32:obj_dat.obj
 0002:00011a00       ??_C@_06KLEEJMOF@bf?9cfb?$AA@ 00082a00     libeay32:obj_dat.obj
 0002:00011a08       ??_C@_06GOKOGNDD@BF?9CFB?$AA@ 00082a08     libeay32:obj_dat.obj
 0002:00011a10       ??_C@_06IIOEABNC@bf?9ecb?$AA@ 00082a10     libeay32:obj_dat.obj
 0002:00011a18       ??_C@_06ENAOPAAE@BF?9ECB?$AA@ 00082a18     libeay32:obj_dat.obj
 0002:00011a20       ??_C@_06LFFGAFHI@bf?9cbc?$AA@ 00082a20     libeay32:obj_dat.obj
 0002:00011a28       ??_C@_06HALMPEKO@BF?9CBC?$AA@ 00082a28     libeay32:obj_dat.obj
 0002:00011a30       ??_C@_0CA@GODCHEHD@X509v3?5Authority?5Key?5Identifier?$AA@ 00082a30     libeay32:obj_dat.obj
 0002:00011a50       ??_C@_0BH@ICHFALGD@authorityKeyIdentifier?$AA@ 00082a50     libeay32:obj_dat.obj
 0002:00011a68       ??_C@_0BM@OOFGKLPK@X509v3?5Certificate?5Policies?$AA@ 00082a68     libeay32:obj_dat.obj
 0002:00011a84       ??_C@_0BE@OLMJNPEP@certificatePolicies?$AA@ 00082a84     libeay32:obj_dat.obj
 0002:00011a98       ??_C@_0BC@PCPNBDDJ@X509v3?5CRL?5Number?$AA@ 00082a98     libeay32:obj_dat.obj
 0002:00011aac       ??_C@_09JDPHHKMA@crlNumber?$AA@ 00082aac     libeay32:obj_dat.obj
 0002:00011ab8       ??_C@_0BJ@FBHDAJML@X509v3?5Basic?5Constraints?$AA@ 00082ab8     libeay32:obj_dat.obj
 0002:00011ad4       ??_C@_0BB@IKNGJCLO@basicConstraints?$AA@ 00082ad4     libeay32:obj_dat.obj
 0002:00011ae8       ??_C@_0BP@FMJCGPCG@X509v3?5Issuer?5Alternative?5Name?$AA@ 00082ae8     libeay32:obj_dat.obj
 0002:00011b08       ??_C@_0O@DLIFHFCD@issuerAltName?$AA@ 00082b08     libeay32:obj_dat.obj
 0002:00011b18       ??_C@_0CA@OPCJJLNF@X509v3?5Subject?5Alternative?5Name?$AA@ 00082b18     libeay32:obj_dat.obj
 0002:00011b38       ??_C@_0P@EOFJHHKD@subjectAltName?$AA@ 00082b38     libeay32:obj_dat.obj
 0002:00011b48       ??_C@_0CA@CLGHAMIP@X509v3?5Private?5Key?5Usage?5Period?$AA@ 00082b48     libeay32:obj_dat.obj
 0002:00011b68       ??_C@_0BG@JOIAJOMN@privateKeyUsagePeriod?$AA@ 00082b68     libeay32:obj_dat.obj
 0002:00011b80       ??_C@_0BB@BPPOKNBO@X509v3?5Key?5Usage?$AA@ 00082b80     libeay32:obj_dat.obj
 0002:00011b94       ??_C@_08BCICBOHF@keyUsage?$AA@ 00082b94     libeay32:obj_dat.obj
 0002:00011ba0       ??_C@_0BO@ILPNOINJ@X509v3?5Subject?5Key?5Identifier?$AA@ 00082ba0     libeay32:obj_dat.obj
 0002:00011bc0       ??_C@_0BF@MOEDIMBI@subjectKeyIdentifier?$AA@ 00082bc0     libeay32:obj_dat.obj
 0002:00011bd8       ??_C@_05NDHEMDL@id?9ce?$AA@ 00082bd8     libeay32:obj_dat.obj
 0002:00011be0       ??_C@_08KPMCEEEO@desx?9cbc?$AA@ 00082be0     libeay32:obj_dat.obj
 0002:00011bec       ??_C@_08BBKPFFGN@DESX?9CBC?$AA@ 00082bec     libeay32:obj_dat.obj
 0002:00011bf8       ??_C@_0BO@KKKBMKBD@Netscape?5Certificate?5Sequence?$AA@ 00082bf8     libeay32:obj_dat.obj
 0002:00011c18       ??_C@_0P@OCCBBJKK@nsCertSequence?$AA@ 00082c18     libeay32:obj_dat.obj
 0002:00011c28       ??_C@_0BB@DCFBGIOA@Netscape?5Comment?$AA@ 00082c28     libeay32:obj_dat.obj
 0002:00011c3c       ??_C@_09BALDFHMJ@nsComment?$AA@ 00082c3c     libeay32:obj_dat.obj
 0002:00011c48       ??_C@_0BJ@GMBLEMAL@Netscape?5SSL?5Server?5Name?$AA@ 00082c48     libeay32:obj_dat.obj
 0002:00011c64       ??_C@_0BA@KNOKNJNE@nsSslServerName?$AA@ 00082c64     libeay32:obj_dat.obj
 0002:00011c74       ??_C@_0BH@EMEFHLC@Netscape?5CA?5Policy?5Url?$AA@ 00082c74     libeay32:obj_dat.obj
 0002:00011c8c       ??_C@_0O@DHDIMJD@nsCaPolicyUrl?$AA@ 00082c8c     libeay32:obj_dat.obj
 0002:00011c9c       ??_C@_0BF@FKENIIHB@Netscape?5Renewal?5Url?$AA@ 00082c9c     libeay32:obj_dat.obj
 0002:00011cb4       ??_C@_0N@JILHKMLM@nsRenewalUrl?$AA@ 00082cb4     libeay32:obj_dat.obj
 0002:00011cc4       ??_C@_0BL@EMOMOFDB@Netscape?5CA?5Revocation?5Url?$AA@ 00082cc4     libeay32:obj_dat.obj
 0002:00011ce0       ??_C@_0BC@IKAPCMGG@nsCaRevocationUrl?$AA@ 00082ce0     libeay32:obj_dat.obj
 0002:00011cf4       ??_C@_0BI@BCDINENC@Netscape?5Revocation?5Url?$AA@ 00082cf4     libeay32:obj_dat.obj
 0002:00011d0c       ??_C@_0BA@DKPGPAKK@nsRevocationUrl?$AA@ 00082d0c     libeay32:obj_dat.obj
 0002:00011d1c       ??_C@_0BC@DIHCABP@Netscape?5Base?5Url?$AA@ 00082d1c     libeay32:obj_dat.obj
 0002:00011d30       ??_C@_09OCIGDOMM@nsBaseUrl?$AA@ 00082d30     libeay32:obj_dat.obj
 0002:00011d3c       ??_C@_0BD@NFPBEMEE@Netscape?5Cert?5Type?$AA@ 00082d3c     libeay32:obj_dat.obj
 0002:00011d50       ??_C@_0L@IICLKDNB@nsCertType?$AA@ 00082d50     libeay32:obj_dat.obj
 0002:00011d5c       ??_C@_0BA@DDLLDHEM@dsaWithSHA1?9old?$AA@ 00082d5c     libeay32:obj_dat.obj
 0002:00011d6c       ??_C@_0N@ONIKBKNK@DSA?9SHA1?9old?$AA@ 00082d6c     libeay32:obj_dat.obj
 0002:00011d7c       ??_C@_06KBOEGBGA@PBKDF2?$AA@ 00082d7c     libeay32:obj_dat.obj
 0002:00011d84       ??_C@_0BG@IBNNJING@pbeWithSHA1AndRC2?9CBC?$AA@ 00082d84     libeay32:obj_dat.obj
 0002:00011d9c       ??_C@_0BA@KKPEMNGH@PBE?9SHA1?9RC2?964?$AA@ 00082d9c     libeay32:obj_dat.obj
 0002:00011dac       ??_C@_0BC@FFHHBCCH@dsaEncryption?9old?$AA@ 00082dac     libeay32:obj_dat.obj
 0002:00011dc0       ??_C@_07PLHLFGGF@DSA?9old?$AA@ 00082dc0     libeay32:obj_dat.obj
 0002:00011dc8       ??_C@_0L@BEHMICBH@dsaWithSHA?$AA@ 00082dc8     libeay32:obj_dat.obj
 0002:00011dd4       ??_C@_07JGDBCPKH@DSA?9SHA?$AA@ 00082dd4     libeay32:obj_dat.obj
 0002:00011ddc       ??_C@_0BG@DALFFFBE@sha1WithRSAEncryption?$AA@ 00082ddc     libeay32:obj_dat.obj
 0002:00011df4       ??_C@_08FBKDDLCN@RSA?9SHA1?$AA@ 00082df4     libeay32:obj_dat.obj
 0002:00011e00       ??_C@_04PGHFOLLE@sha1?$AA@ 00082e00     libeay32:obj_dat.obj
 0002:00011e08       ??_C@_04KPMLCNGO@SHA1?$AA@ 00082e08     libeay32:obj_dat.obj
 0002:00011e10       ??_C@_0N@LODGAID@des?9ede3?9ofb?$AA@ 00082e10     libeay32:obj_dat.obj
 0002:00011e20       ??_C@_0N@JPPBGLEM@DES?9EDE3?9OFB?$AA@ 00082e20     libeay32:obj_dat.obj
 0002:00011e30       ??_C@_0M@BOHDOFGF@des?9ede?9ofb?$AA@ 00082e30     libeay32:obj_dat.obj
 0002:00011e3c       ??_C@_0M@PDBPCBBK@DES?9EDE?9OFB?$AA@ 00082e3c     libeay32:obj_dat.obj
 0002:00011e48       ??_C@_0N@EBDFNPDL@des?9ede3?9cfb?$AA@ 00082e48     libeay32:obj_dat.obj
 0002:00011e58       ??_C@_0N@NFCHNEPE@DES?9EDE3?9CFB?$AA@ 00082e58     libeay32:obj_dat.obj
 0002:00011e68       ??_C@_0M@FEKFFKNN@des?9ede?9cfb?$AA@ 00082e68     libeay32:obj_dat.obj
 0002:00011e74       ??_C@_0M@LJMJJOKC@DES?9EDE?9CFB?$AA@ 00082e74     libeay32:obj_dat.obj
 0002:00011e80       ??_C@_0BD@JJEILMNP@Netscape?5Data?5Type?$AA@ 00082e80     libeay32:obj_dat.obj
 0002:00011e94       ??_C@_0L@FIMLGGPA@nsDataType?$AA@ 00082e94     libeay32:obj_dat.obj
 0002:00011ea0       ??_C@_0BP@LHPGKGFM@Netscape?5Certificate?5Extension?$AA@ 00082ea0     libeay32:obj_dat.obj
 0002:00011ec0       ??_C@_09JDCKDNMG@nsCertExt?$AA@ 00082ec0     libeay32:obj_dat.obj
 0002:00011ecc       ??_C@_0BO@IAIBEBGO@Netscape?5Communications?5Corp?4?$AA@ 00082ecc     libeay32:obj_dat.obj
 0002:00011eec       ??_C@_08BDEPHMAF@Netscape?$AA@ 00082eec     libeay32:obj_dat.obj
 0002:00011ef8       ??_C@_0BO@LDCCNBPE@extendedCertificateAttributes?$AA@ 00082ef8     libeay32:obj_dat.obj
 0002:00011f18       ??_C@_0BE@MACPCAPF@unstructuredAddress?$AA@ 00082f18     libeay32:obj_dat.obj
 0002:00011f2c       ??_C@_0BC@OKHONEEM@challengePassword?$AA@ 00082f2c     libeay32:obj_dat.obj
 0002:00011f40       ??_C@_0BB@IPFGMODP@countersignature?$AA@ 00082f40     libeay32:obj_dat.obj
 0002:00011f54       ??_C@_0M@IJBJCCMP@signingTime?$AA@ 00082f54     libeay32:obj_dat.obj
 0002:00011f60       ??_C@_0O@JDGJDGC@messageDigest?$AA@ 00082f60     libeay32:obj_dat.obj
 0002:00011f70       ??_C@_0M@DOEFOEJD@contentType?$AA@ 00082f70     libeay32:obj_dat.obj
 0002:00011f7c       ??_C@_0BB@CJIILOEM@unstructuredName?$AA@ 00082f7c     libeay32:obj_dat.obj
 0002:00011f90       ??_C@_0N@IHLBAGEP@emailAddress?$AA@ 00082f90     libeay32:obj_dat.obj
 0002:00011fa0       ??_C@_05NKFNBGJP@pkcs9?$AA@ 00082fa0     libeay32:obj_dat.obj
 0002:00011fa8       ??_C@_08OGDEHPAF@idea?9ofb?$AA@ 00082fa8     libeay32:obj_dat.obj
 0002:00011fb4       ??_C@_08FIFJGOCG@IDEA?9OFB?$AA@ 00082fb4     libeay32:obj_dat.obj
 0002:00011fc0       ??_C@_07NLMBCAKN@des?9ofb?$AA@ 00082fc0     libeay32:obj_dat.obj
 0002:00011fc8       ??_C@_07OHFNLDCN@DES?9OFB?$AA@ 00082fc8     libeay32:obj_dat.obj
 0002:00011fd0       ??_C@_0N@FPCHEGKG@des?9ede3?9cbc?$AA@ 00082fd0     libeay32:obj_dat.obj
 0002:00011fe0       ??_C@_0N@MLDFENGJ@DES?9EDE3?9CBC?$AA@ 00082fe0     libeay32:obj_dat.obj
 0002:00011ff0       ??_C@_0M@EKLHMDEA@des?9ede?9cbc?$AA@ 00082ff0     libeay32:obj_dat.obj
 0002:00011ffc       ??_C@_0M@KHNLAHDP@DES?9EDE?9CBC?$AA@ 00082ffc     libeay32:obj_dat.obj
 0002:00012008       ??_C@_0BF@LIDINENF@shaWithRSAEncryption?$AA@ 00083008     libeay32:obj_dat.obj
 0002:00012020       ??_C@_07CMOFBHAL@RSA?9SHA?$AA@ 00083020     libeay32:obj_dat.obj
 0002:00012028       ??_C@_03JNBDOPOP@sha?$AA@  00083028     libeay32:obj_dat.obj
 0002:0001202c       ??_C@_03JAOICCJD@SHA?$AA@  0008302c     libeay32:obj_dat.obj
 0002:00012030       ??_C@_07MGMBPEPC@rc2?9ofb?$AA@ 00083030     libeay32:obj_dat.obj
 0002:00012038       ??_C@_07PNPBGCEE@RC2?9OFB?$AA@ 00083038     libeay32:obj_dat.obj
 0002:00012040       ??_C@_07IMBHELEK@rc2?9cfb?$AA@ 00083040     libeay32:obj_dat.obj
 0002:00012048       ??_C@_07LHCHNNPM@RC2?9CFB?$AA@ 00083048     libeay32:obj_dat.obj
 0002:00012050       ??_C@_07KPLHNGHN@rc2?9ecb?$AA@ 00083050     libeay32:obj_dat.obj
 0002:00012058       ??_C@_07JEIHEAML@RC2?9ECB?$AA@ 00083058     libeay32:obj_dat.obj
 0002:00012060       ??_C@_07JCAFNCNH@rc2?9cbc?$AA@ 00083060     libeay32:obj_dat.obj
 0002:00012068       ??_C@_07KJDFEEGB@RC2?9CBC?$AA@ 00083068     libeay32:obj_dat.obj
 0002:00012070       ??_C@_08IPECFNIK@idea?9ecb?$AA@ 00083070     libeay32:obj_dat.obj
 0002:0001207c       ??_C@_08DBCPEMKJ@IDEA?9ECB?$AA@ 0008307c     libeay32:obj_dat.obj
 0002:00012088       ??_C@_08KMOCMALN@idea?9cfb?$AA@ 00083088     libeay32:obj_dat.obj
 0002:00012094       ??_C@_08BCIPNBJO@IDEA?9CFB?$AA@ 00083094     libeay32:obj_dat.obj
 0002:000120a0       ??_C@_08LCPAFJCA@idea?9cbc?$AA@ 000830a0     libeay32:obj_dat.obj
 0002:000120ac       ??_C@_08MJNEIAD@IDEA?9CBC?$AA@ 000830ac     libeay32:obj_dat.obj
 0002:000120b8       ??_C@_08LJCBLNOK@des?9ede3?$AA@ 000830b8     libeay32:obj_dat.obj
 0002:000120c4       ??_C@_08FEKFKCFJ@DES?9EDE3?$AA@ 000830c4     libeay32:obj_dat.obj
 0002:000120d0       ??_C@_07PILJICGA@des?9ede?$AA@ 000830d0     libeay32:obj_dat.obj
 0002:000120d8       ??_C@_07MECFBBOA@DES?9EDE?$AA@ 000830d8     libeay32:obj_dat.obj
 0002:000120e0       ??_C@_07IPAFAGII@des?9cbc?$AA@ 000830e0     libeay32:obj_dat.obj
 0002:000120e8       ??_C@_07LDJJJFAI@DES?9CBC?$AA@ 000830e8     libeay32:obj_dat.obj
 0002:000120f0       ??_C@_07JBBHJPBF@des?9cfb?$AA@ 000830f0     libeay32:obj_dat.obj
 0002:000120f8       ??_C@_07KNILAMJF@DES?9CFB?$AA@ 000830f8     libeay32:obj_dat.obj
 0002:00012100       ??_C@_07LCLHACCC@des?9ecb?$AA@ 00083100     libeay32:obj_dat.obj
 0002:00012108       ??_C@_07IOCLJBKC@DES?9ECB?$AA@ 00083108     libeay32:obj_dat.obj
 0002:00012110       ??_C@_0P@HCMIBBEB@dhKeyAgreement?$AA@ 00083110     libeay32:obj_dat.obj
 0002:00012120       ??_C@_05CALCPOBF@pkcs3?$AA@ 00083120     libeay32:obj_dat.obj
 0002:00012128       ??_C@_0BE@CAMKAFJN@pkcs7?9encryptedData?$AA@ 00083128     libeay32:obj_dat.obj
 0002:0001213c       ??_C@_0BB@CJNFBHDI@pkcs7?9digestData?$AA@ 0008313c     libeay32:obj_dat.obj
 0002:00012150       ??_C@_0BN@LMEEMCPG@pkcs7?9signedAndEnvelopedData?$AA@ 00083150     libeay32:obj_dat.obj
 0002:00012170       ??_C@_0BE@FAIIHMP@pkcs7?9envelopedData?$AA@ 00083170     libeay32:obj_dat.obj
 0002:00012184       ??_C@_0BB@PEKKHBEJ@pkcs7?9signedData?$AA@ 00083184     libeay32:obj_dat.obj
 0002:00012198       ??_C@_0L@BCKMJOMA@pkcs7?9data?$AA@ 00083198     libeay32:obj_dat.obj
 0002:000121a4       ??_C@_05EENODLBB@pkcs7?$AA@ 000831a4     libeay32:obj_dat.obj
 0002:000121ac       ??_C@_03DFNMMEBL@rsa?$AA@  000831ac     libeay32:obj_dat.obj
 0002:000121b0       ??_C@_03DICHAJGH@RSA?$AA@  000831b0     libeay32:obj_dat.obj
 0002:000121b4       ??_C@_0BH@LAMMAAM@organizationalUnitName?$AA@ 000831b4     libeay32:obj_dat.obj
 0002:000121cc       ??_C@_02LMLEEFAB@OU?$AA@   000831cc     libeay32:obj_dat.obj
 0002:000121d0       ??_C@_0BB@GBCNPHLL@organizationName?$AA@ 000831d0     libeay32:obj_dat.obj
 0002:000121e4       ??_C@_01MJMHLOMK@O?$AA@    000831e4     libeay32:obj_dat.obj
 0002:000121e8       ??_C@_0BE@NKDCJFMD@stateOrProvinceName?$AA@ 000831e8     libeay32:obj_dat.obj
 0002:000121fc       ??_C@_02LAJDCOFE@ST?$AA@   000831fc     libeay32:obj_dat.obj
 0002:00012200       ??_C@_0N@LEDCGGBI@localityName?$AA@ 00083200     libeay32:obj_dat.obj
 0002:00012210       ??_C@_01OCOKONAJ@L?$AA@    00083210     libeay32:obj_dat.obj
 0002:00012214       ??_C@_0M@NPBHECMC@countryName?$AA@ 00083214     libeay32:obj_dat.obj
 0002:00012220       ??_C@_01GFHCPBMG@C?$AA@    00083220     libeay32:obj_dat.obj
 0002:00012224       ??_C@_0L@OILMNBLH@commonName?$AA@ 00083224     libeay32:obj_dat.obj
 0002:00012230       ??_C@_02BMJIHHPP@CN?$AA@   00083230     libeay32:obj_dat.obj
 0002:00012234       ??_C@_04NMKEOMFB@X509?$AA@ 00083234     libeay32:obj_dat.obj
 0002:0001223c       ??_C@_0BL@NJHHPHOL@directory?5services?5?$CIX?4500?$CJ?$AA@ 0008323c     libeay32:obj_dat.obj
 0002:00012258       ??_C@_04NGGFHBI@X500?$AA@  00083258     libeay32:obj_dat.obj
 0002:00012260       ??_C@_0BF@DAJHPIMK@pbeWithMD5AndDES?9CBC?$AA@ 00083260     libeay32:obj_dat.obj
 0002:00012278       ??_C@_0M@KBNDBPIJ@PBE?9MD5?9DES?$AA@ 00083278     libeay32:obj_dat.obj
 0002:00012284       ??_C@_0BF@EEAPBBEF@pbeWithMD2AndDES?9CBC?$AA@ 00083284     libeay32:obj_dat.obj
 0002:0001229c       ??_C@_0M@LMNGCPDB@PBE?9MD2?9DES?$AA@ 0008329c     libeay32:obj_dat.obj
 0002:000122a8       ??_C@_0BF@EEAHCNKC@md5WithRSAEncryption?$AA@ 000832a8     libeay32:obj_dat.obj
 0002:000122c0       ??_C@_07NOGKHCDB@RSA?9MD5?$AA@ 000832c0     libeay32:obj_dat.obj
 0002:000122c8       ??_C@_0BF@ODJKGOJ@md2WithRSAEncryption?$AA@ 000832c8     libeay32:obj_dat.obj
 0002:000122e0       ??_C@_07JBCLOEPG@RSA?9MD2?$AA@ 000832e0     libeay32:obj_dat.obj
 0002:000122e8       ??_C@_0O@PCHNMHJE@rsaEncryption?$AA@ 000832e8     libeay32:obj_dat.obj
 0002:000122f8       ??_C@_03OODGMOHK@rc4?$AA@  000832f8     libeay32:obj_dat.obj
 0002:000122fc       ??_C@_03HGEJCHKE@RC4?$AA@  000832fc     libeay32:obj_dat.obj
 0002:00012300       ??_C@_03PKBIKOHH@md5?$AA@  00083300     libeay32:obj_dat.obj
 0002:00012304       ??_C@_03GCGHEHKJ@MD5?$AA@  00083304     libeay32:obj_dat.obj
 0002:00012308       ??_C@_03LFFJDILA@md2?$AA@  00083308     libeay32:obj_dat.obj
 0002:0001230c       ??_C@_03CNCGNBGO@MD2?$AA@  0008330c     libeay32:obj_dat.obj
 0002:00012310       ??_C@_0BN@EBHJCEC@RSA?5Data?5Security?0?5Inc?4?5PKCS?$AA@ 00083310     libeay32:obj_dat.obj
 0002:00012330       ??_C@_04GCKLMHGD@pkcs?$AA@ 00083330     libeay32:obj_dat.obj
 0002:00012338       ??_C@_0BI@MPBNCOIB@RSA?5Data?5Security?0?5Inc?4?$AA@ 00083338     libeay32:obj_dat.obj
 0002:00012350       ??_C@_06GGEMKGKC@rsadsi?$AA@ 00083350     libeay32:obj_dat.obj
 0002:00012358       ??_C@_09MLGAJAED@undefined?$AA@ 00083358     libeay32:obj_dat.obj
 0002:00012364       ??_C@_05DBLJEJPC@UNDEF?$AA@ 00083364     libeay32:obj_dat.obj
 0002:00012370       ??_C@_0FB@EJHIDBFI@d?3?2wm653wehh?2platform?2mvv210?2src@ 00083370     libeay32:obj_dat.obj
 0002:000123c4       ??_C@_04MDEFHJHM@?4?$CFlu?$AA@ 000833c4     libeay32:obj_dat.obj
 0002:00015848       ??_C@_0HB@IIAMGFOE@?6?7IPSec?1IKE?1Oakley?5curve?5?$CD4?5over@ 00086848     libeay32:ec_curve.obj
 0002:000158c0       ??_C@_0HB@LGGCBEEP@?6?7IPSec?1IKE?1Oakley?5curve?5?$CD3?5over@ 000868c0     libeay32:ec_curve.obj
 0002:00015934       ??_C@_0CG@MLNHEHNL@WTLS?5curvs?5over?5a?5224?5bit?5prime?5@ 00086934     libeay32:ec_curve.obj
 0002:0001595c       ??_C@_0CG@JBBHINGJ@WTLS?5curve?5over?5a?5160?5bit?5prime?5@ 0008695c     libeay32:ec_curve.obj
 0002:00015984       ??_C@_0CG@NOPNGNKB@WTLS?5curve?5over?5a?5112?5bit?5prime?5@ 00086984     libeay32:ec_curve.obj
 0002:000159ac       ??_C@_0CH@PAECJHG@WTLS?5curve?5over?5a?5113?5bit?5binary@ 000869ac     libeay32:ec_curve.obj
 0002:000159d4       ??_C@_0CI@PHOKEIPD@X9?462?5curve?5over?5a?5431?5bit?5binar@ 000869d4     libeay32:ec_curve.obj
 0002:000159fc       ??_C@_0CI@GLMEIDGJ@X9?462?5curve?5over?5a?5368?5bit?5binar@ 000869fc     libeay32:ec_curve.obj
 0002:00015a24       ??_C@_0CI@BDIPEOPL@X9?462?5curve?5over?5a?5359?5bit?5binar@ 00086a24     libeay32:ec_curve.obj
 0002:00015a4c       ??_C@_0CI@PCOAONL@X9?462?5curve?5over?5a?5304?5bit?5binar@ 00086a4c     libeay32:ec_curve.obj
 0002:00015a74       ??_C@_0CI@OMGMCAMF@X9?462?5curve?5over?5a?5272?5bit?5binar@ 00086a74     libeay32:ec_curve.obj
 0002:00015a9c       ??_C@_0CI@IHGFALA@X9?462?5curve?5over?5a?5239?5bit?5binar@ 00086a9c     libeay32:ec_curve.obj
 0002:00015ac4       ??_C@_0CI@HADNJNCC@X9?462?5curve?5over?5a?5208?5bit?5binar@ 00086ac4     libeay32:ec_curve.obj
 0002:00015aec       ??_C@_0CI@CNNMGPOI@X9?462?5curve?5over?5a?5191?5bit?5binar@ 00086aec     libeay32:ec_curve.obj
 0002:00015b14       ??_C@_0CI@HOBKKPME@X9?462?5curve?5over?5a?5176?5bit?5binar@ 00086b14     libeay32:ec_curve.obj
 0002:00015b3c       ??_C@_0CI@CFPHBJDI@X9?462?5curve?5over?5a?5163?5bit?5binar@ 00086b3c     libeay32:ec_curve.obj
 0002:00015b64       ??_C@_0CM@EACJKLC@NIST?1SECG?5curve?5over?5a?5571?5bit?5b@ 00086b64     libeay32:ec_curve.obj
 0002:00015b90       ??_C@_0CM@HDDNKCDK@NIST?1SECG?5curve?5over?5a?5409?5bit?5b@ 00086b90     libeay32:ec_curve.obj
 0002:00015bbc       ??_C@_0CM@GFMOGKDK@NIST?1SECG?5curve?5over?5a?5283?5bit?5b@ 00086bbc     libeay32:ec_curve.obj
 0002:00015be8       ??_C@_0CH@CLCLBOGN@SECG?5curve?5over?5a?5239?5bit?5binary@ 00086be8     libeay32:ec_curve.obj
 0002:00015c10       ??_C@_0DB@PNCPLOPN@NIST?1SECG?1WTLS?5curve?5over?5a?5233?5@ 00086c10     libeay32:ec_curve.obj
 0002:00015c44       ??_C@_0CH@HKDFCHME@SECG?5curve?5over?5a?5193?5bit?5binary@ 00086c44     libeay32:ec_curve.obj
 0002:00015c6c       ??_C@_0CM@HCIKDLO@NIST?1SECG?5curve?5over?5a?5163?5bit?5b@ 00086c6c     libeay32:ec_curve.obj
 0002:00015c98       ??_C@_0CH@GKKFHOF@SECG?5curve?5over?5a?5163?5bit?5binary@ 00086c98     libeay32:ec_curve.obj
 0002:00015cc0       ??_C@_0DB@KNLLOMAB@NIST?1SECG?1WTLS?5curve?5over?5a?5163?5@ 00086cc0     libeay32:ec_curve.obj
 0002:00015cf4       ??_C@_0CH@FJJEIBAL@SECG?5curve?5over?5a?5131?5bit?5binary@ 00086cf4     libeay32:ec_curve.obj
 0002:00015d1c       ??_C@_0CM@EPOILLGK@SECG?1WTLS?5curve?5over?5a?5131?5bit?5b@ 00086d1c     libeay32:ec_curve.obj
 0002:00015d48       ??_C@_0CH@OHOOPBHG@SECG?5curve?5over?5a?5113?5bit?5binary@ 00086d48     libeay32:ec_curve.obj
 0002:00015d70       ??_C@_0CM@IACJENLF@X9?462?1SECG?5curve?5over?5a?5256?5bit?5@ 00086d70     libeay32:ec_curve.obj
 0002:00015d9c       ??_C@_0CH@COBCAEEE@X9?462?5curve?5over?5a?5239?5bit?5prime@ 00086d9c     libeay32:ec_curve.obj
 0002:00015dc4       ??_C@_0CH@BHJCBJE@X9?462?5curve?5over?5a?5192?5bit?5prime@ 00086dc4     libeay32:ec_curve.obj
 0002:00015dec       ??_C@_0DB@HJIMEGJL@NIST?1X9?462?1SECG?5curve?5over?5a?5192@ 00086dec     libeay32:ec_curve.obj
 0002:00015e20       ??_C@_0CL@NCEJLDDF@NIST?1SECG?5curve?5over?5a?5521?5bit?5p@ 00086e20     libeay32:ec_curve.obj
 0002:00015e4c       ??_C@_0CL@MPIFFEHD@NIST?1SECG?5curve?5over?5a?5384?5bit?5p@ 00086e4c     libeay32:ec_curve.obj
 0002:00015e78       ??_C@_0CG@MBJIMJMI@SECG?5curve?5over?5a?5256?5bit?5prime?5@ 00086e78     libeay32:ec_curve.obj
 0002:00015ea0       ??_C@_0CL@NHPHHEEB@NIST?1SECG?5curve?5over?5a?5224?5bit?5p@ 00086ea0     libeay32:ec_curve.obj
 0002:00015ecc       ??_C@_0CG@IOHCCJAA@SECG?5curve?5over?5a?5224?5bit?5prime?5@ 00086ecc     libeay32:ec_curve.obj
 0002:00015ef4       ??_C@_0CG@IFFAEDGD@SECG?5curve?5over?5a?5192?5bit?5prime?5@ 00086ef4     libeay32:ec_curve.obj
 0002:00015f1c       ??_C@_0CL@NDOOJKPB@SECG?1WTLS?5curve?5over?5a?5160?5bit?5p@ 00086f1c     libeay32:ec_curve.obj
 0002:00015f48       ??_C@_0CG@MDBLLOCO@SECG?5curve?5over?5a?5160?5bit?5prime?5@ 00086f48     libeay32:ec_curve.obj
 0002:00015f70       ??_C@_0CG@DNCCBNMA@SECG?5curve?5over?5a?5128?5bit?5prime?5@ 00086f70     libeay32:ec_curve.obj
 0002:00015f98       ??_C@_0CG@IMPBFOOG@SECG?5curve?5over?5a?5112?5bit?5prime?5@ 00086f98     libeay32:ec_curve.obj
 0002:00015fc0       ??_C@_0CL@JMAEHKDJ@SECG?1WTLS?5curve?5over?5a?5112?5bit?5p@ 00086fc0     libeay32:ec_curve.obj
 0002:00015ff0       ??_C@_0EN@GGBLGKDN@d?3?2wm653wehh?2platform?2mvv210?2src@ 00086ff0     libeay32:ec_curve.obj
 0002:00016040       ??_C@_0EJ@DIAKMCGH@d?3?2wm653wehh?2platform?2mvv210?2src@ 00087040     libeay32:mem_dbg.obj
 0002:0001608c       ??_C@_02MBJIFMOJ@?$CC?6?$AA@ 0008708c     libeay32:mem_dbg.obj
 0002:00016090       ??_C@_0CG@LFPKBHEM@?5thread?$DN?$CFlu?0?5file?$DN?$CFs?0?5line?$DN?$CFd?0?5i@ 00087090     libeay32:mem_dbg.obj
 0002:000160b8       ??_C@_0BK@MHANPPFK@number?$DN?$CFd?0?5address?$DN?$CF08lX?6?$AA@ 000870b8     libeay32:mem_dbg.obj
 0002:000160d4       ??_C@_0N@BAIEKLOK@thread?$DN?$CFlu?0?5?$AA@ 000870d4     libeay32:mem_dbg.obj
 0002:000160e4       ??_C@_0BI@OFHOPHMO@?$CF5lu?5file?$DN?$CFs?0?5line?$DN?$CFd?0?5?$AA@ 000870e4     libeay32:mem_dbg.obj
 0002:000160fc       ??_C@_0BC@MALIEGMD@?$FL?$CF02d?3?$CF02d?3?$CF02d?$FN?5?$AA@ 000870fc     libeay32:mem_dbg.obj
 0002:00016110       ??_C@_0BP@JOECODN@?$CFld?5bytes?5leaked?5in?5?$CFd?5chunks?6?$AA@ 00087110     libeay32:mem_dbg.obj
 0002:0001615c       ??_C@_0DE@JBNNAKOP@called?5a?5function?5that?5was?5disab@ 0008715c     libeay32:err.obj
 0002:00016190       ??_C@_0P@LPIEGNHB@internal?5error?$AA@ 00087190     libeay32:err.obj
 0002:000161a0       ??_C@_0BI@MMHLKOF@passed?5a?5null?5parameter?$AA@ 000871a0     libeay32:err.obj
 0002:000161b8       ??_C@_0CG@JFIACAPA@called?5a?5function?5you?5should?5not@ 000871b8     libeay32:err.obj
 0002:000161e0       ??_C@_0P@BOLAOBGL@malloc?5failure?$AA@ 000871e0     libeay32:err.obj
 0002:000161f0       ??_C@_05FAMCFOJB@fatal?$AA@ 000871f0     libeay32:err.obj
 0002:000161f8       ??_C@_0BB@LLCBNOLO@missing?5asn1?5eos?$AA@ 000871f8     libeay32:err.obj
 0002:0001620c       ??_C@_0BF@JKEELALH@asn1?5length?5mismatch?$AA@ 0008720c     libeay32:err.obj
 0002:00016224       ??_C@_0BL@PKJJDDDF@expecting?5an?5asn1?5sequence?$AA@ 00087224     libeay32:err.obj
 0002:00016240       ??_C@_0BJ@KHBMOGBI@bad?5get?5asn1?5object?5call?$AA@ 00087240     libeay32:err.obj
 0002:0001625c       ??_C@_0BH@LJENPHMF@bad?5asn1?5object?5header?$AA@ 0008725c     libeay32:err.obj
 0002:00016274       ??_C@_0BC@JPACPGKL@nested?5asn1?5error?$AA@ 00087274     libeay32:err.obj
 0002:00016288       ??_C@_06JPOPAJEJ@TS?5lib?$AA@ 00087288     libeay32:err.obj
 0002:00016290       ??_C@_08BIAIHGB@OCSP?5lib?$AA@ 00087290     libeay32:err.obj
 0002:0001629c       ??_C@_0L@NEGIHAGL@ENGINE?5lib?$AA@ 0008729c     libeay32:err.obj
 0002:000162a8       ??_C@_07HLMFDJCH@DSO?5lib?$AA@ 000872a8     libeay32:err.obj
 0002:000162b0       ??_C@_08IAGEJILJ@RAND?5lib?$AA@ 000872b0     libeay32:err.obj
 0002:000162bc       ??_C@_0L@FBHADCPC@PKCS12?5lib?$AA@ 000872bc     libeay32:err.obj
 0002:000162c8       ??_C@_0L@OHLIEDB@X509V3?5lib?$AA@ 000872c8     libeay32:err.obj
 0002:000162d4       ??_C@_09PFAKBDBP@PKCS7?5lib?$AA@ 000872d4     libeay32:err.obj
 0002:000162e0       ??_C@_07HOAEPDCA@BIO?5lib?$AA@ 000872e0     libeay32:err.obj
 0002:000162e8       ??_C@_07ILCPHDLL@SSL?5lib?$AA@ 000872e8     libeay32:err.obj
 0002:000162f0       ??_C@_06FNJAJMKI@EC?5lib?$AA@ 000872f0     libeay32:err.obj
 0002:000162f8       ??_C@_0L@GEIMIIEL@CRYPTO?5lib?$AA@ 000872f8     libeay32:err.obj
 0002:00016304       ??_C@_08GDJNHNLC@CONF?5lib?$AA@ 00087304     libeay32:err.obj
 0002:00016310       ??_C@_08HAFIEMCJ@ASN1?5lib?$AA@ 00087310     libeay32:err.obj
 0002:0001631c       ??_C@_08DGLLDICE@X509?5lib?$AA@ 0008731c     libeay32:err.obj
 0002:00016328       ??_C@_07EBMPFIFH@DSA?5lib?$AA@ 00087328     libeay32:err.obj
 0002:00016330       ??_C@_07MKPCAOAJ@PEM?5lib?$AA@ 00087330     libeay32:err.obj
 0002:00016338       ??_C@_07LHMLCDLI@OBJ?5lib?$AA@ 00087338     libeay32:err.obj
 0002:00016340       ??_C@_07PJHFFEFC@BUF?5lib?$AA@ 00087340     libeay32:err.obj
 0002:00016348       ??_C@_07BHNHKGFA@EVP?5lib?$AA@ 00087348     libeay32:err.obj
 0002:00016350       ??_C@_06JBCAGHNP@DH?5lib?$AA@ 00087350     libeay32:err.obj
 0002:00016358       ??_C@_07PLBLGAPL@RSA?5lib?$AA@ 00087358     libeay32:err.obj
 0002:00016360       ??_C@_06CEKJLBPI@BN?5lib?$AA@ 00087360     libeay32:err.obj
 0002:00016368       ??_C@_0L@NFMIFFDK@system?5lib?$AA@ 00087368     libeay32:err.obj
 0002:00016374       ??_C@_05FHPOAJDB@fread?$AA@ 00087374     libeay32:err.obj
 0002:0001637c       ??_C@_07OPAOJOOA@opendir?$AA@ 0008737c     libeay32:err.obj
 0002:00016384       ??_C@_0L@LNCNEFCG@WSAstartup?$AA@ 00087384     libeay32:err.obj
 0002:00016390       ??_C@_06MPKMECK@accept?$AA@ 00087390     libeay32:err.obj
 0002:00016398       ??_C@_06OODDLKLE@listen?$AA@ 00087398     libeay32:err.obj
 0002:000163a0       ??_C@_04NPNJNMMP@bind?$AA@ 000873a0     libeay32:err.obj
 0002:000163a8       ??_C@_0M@PBPOCKDG@ioctlsocket?$AA@ 000873a8     libeay32:err.obj
 0002:000163b4       ??_C@_06HBELJPBO@socket?$AA@ 000873b4     libeay32:err.obj
 0002:000163bc       ??_C@_0O@NKLJGHIL@getservbyname?$AA@ 000873bc     libeay32:err.obj
 0002:000163cc       ??_C@_07KAIBNCHO@connect?$AA@ 000873cc     libeay32:err.obj
 0002:000163d4       ??_C@_05FFKPLNPJ@fopen?$AA@ 000873d4     libeay32:err.obj
 0002:000163dc       ??_C@_0O@PBJMEGGG@HMAC?5routines?$AA@ 000873dc     libeay32:err.obj
 0002:000163ec       ??_C@_0N@MKJBFBO@CMS?5routines?$AA@ 000873ec     libeay32:err.obj
 0002:000163fc       ??_C@_0O@MDPFBMCI@FIPS?5routines?$AA@ 000873fc     libeay32:err.obj
 0002:0001640c       ??_C@_0O@LJIADBLP@OCSP?5routines?$AA@ 0008740c     libeay32:err.obj
 0002:0001641c       ??_C@_0BA@MMHCJFKD@engine?5routines?$AA@ 0008741c     libeay32:err.obj
 0002:0001642c       ??_C@_0BE@IMHDPIMO@time?5stamp?5routines?$AA@ 0008742c     libeay32:err.obj
 0002:00016440       ??_C@_0BF@BDHLAIEM@DSO?5support?5routines?$AA@ 00087440     libeay32:err.obj
 0002:00016458       ??_C@_0BI@GMPKPCPG@random?5number?5generator?$AA@ 00087458     libeay32:err.obj
 0002:00016470       ??_C@_0BA@KPFPMFD@PKCS12?5routines?$AA@ 00087470     libeay32:err.obj
 0002:00016480       ??_C@_0BB@LKDEPKLM@X509?5V3?5routines?$AA@ 00087480     libeay32:err.obj
 0002:00016494       ??_C@_0P@FBDCKDAN@PKCS7?5routines?$AA@ 00087494     libeay32:err.obj
 0002:000164a4       ??_C@_0N@HGNFKBOI@BIO?5routines?$AA@ 000874a4     libeay32:err.obj
 0002:000164b4       ??_C@_0N@GAIJLNCL@SSL?5routines?$AA@ 000874b4     libeay32:err.obj
 0002:000164c4       ??_C@_0BI@NNCFPCDI@elliptic?5curve?5routines?$AA@ 000874c4     libeay32:err.obj
 0002:000164dc       ??_C@_0BK@GOIAPJCF@common?5libcrypto?5routines?$AA@ 000874dc     libeay32:err.obj
 0002:000164f8       ??_C@_0BM@FNIFPKKP@configuration?5file?5routines?$AA@ 000874f8     libeay32:err.obj
 0002:00016514       ??_C@_0BH@OKMDKJBH@asn1?5encoding?5routines?$AA@ 00087514     libeay32:err.obj
 0002:0001652c       ??_C@_0BK@MLDIFNOG@x509?5certificate?5routines?$AA@ 0008752c     libeay32:err.obj
 0002:00016548       ??_C@_0N@EPLKEPHE@dsa?5routines?$AA@ 00087548     libeay32:err.obj
 0002:00016558       ??_C@_0N@PPOIEGDJ@PEM?5routines?$AA@ 00087558     libeay32:err.obj
 0002:00016568       ??_C@_0BL@GAJLDLEG@object?5identifier?5routines?$AA@ 00087568     libeay32:err.obj
 0002:00016584       ??_C@_0BH@GHBGFOKA@memory?5buffer?5routines?$AA@ 00087584     libeay32:err.obj
 0002:0001659c       ??_C@_0BK@KCBHLAIJ@digital?5envelope?5routines?$AA@ 0008759c     libeay32:err.obj
 0002:000165b8       ??_C@_0BI@BELEOFAM@Diffie?9Hellman?5routines?$AA@ 000875b8     libeay32:err.obj
 0002:000165d0       ??_C@_0N@FLFIDGHD@rsa?5routines?$AA@ 000875d0     libeay32:err.obj
 0002:000165e0       ??_C@_0BA@BALAMMCD@bignum?5routines?$AA@ 000875e0     libeay32:err.obj
 0002:000165f0       ??_C@_0P@KJHLNCML@system?5library?$AA@ 000875f0     libeay32:err.obj
 0002:00016600       ??_C@_0BA@JLJAKIKL@unknown?5library?$AA@ 00087600     libeay32:err.obj
 0002:00016610       ??_C@_0EJ@LLHEHHLL@d?3?2wm653wehh?2platform?2mvv210?2src@ 00087610     libeay32:err.obj
 0002:0001665c       ??_C@_0BE@CGMKPIME@int_err_get?5?$CIerr?4c?$CJ?$AA@ 0008765c     libeay32:err.obj
 0002:00016670       ??_C@_0BH@KBGLDIDO@int_thread_get?5?$CIerr?4c?$CJ?$AA@ 00087670     libeay32:err.obj
 0002:00016688       ??_C@_07CIFAGBMG@unknown?$AA@ 00087688     libeay32:err.obj
 0002:00016690       ??_C@_02JDNIPIGD@NA?$AA@   00087690     libeay32:err.obj
 0002:00016694       ??_C@_0BF@IKLBHEFA@error?3?$CF08lX?3?$CFs?3?$CFs?3?$CFs?$AA@ 00087694     libeay32:err.obj
 0002:000166ac       ??_C@_0M@MNMDFDLE@reason?$CI?$CFlu?$CJ?$AA@ 000876ac     libeay32:err.obj
 0002:000166b8       ??_C@_09IANFNLBB@func?$CI?$CFlu?$CJ?$AA@ 000876b8     libeay32:err.obj
 0002:000166c4       ??_C@_08PFHOCFHJ@lib?$CI?$CFlu?$CJ?$AA@ 000876c4     libeay32:err.obj
 0002:000166d0       ??_C@_0EJ@IBNICOFA@d?3?2wm653wehh?2platform?2mvv210?2src@ 000876d0     libeay32:ex_data.obj
 0002:00016720       ??_C@_0FA@DONMMNBK@d?3?2wm653wehh?2platform?2mvv210?2src@ 00087720     libeay32:eng_lib.obj
 0002:00016770       ??_C@_0EM@NFBEAOGE@d?3?2wm653wehh?2platform?2mvv210?2src@ 00087770     libeay32:ec_mult.obj
 0002:000167c0       ??_C@_0EN@GMEKCP@d?3?2wm653wehh?2platform?2mvv210?2src@ 000877c0     libeay32:b_print.obj
 0002:00016810       ??_C@_06CBHGEMFM@?$DMNULL?$DO?$AA@ 00087810     libeay32:b_print.obj
 0002:00016818       ??_C@_0BB@JCEFLFJE@0123456789abcdef?$AA@ 00087818     libeay32:b_print.obj
 0002:0001682c       ??_C@_0BB@JGGOGLEG@0123456789ABCDEF?$AA@ 0008782c     libeay32:b_print.obj
 0002:00016840       ??_C@_02MDDDDAID@0x?$AA@   00087840     libeay32:b_print.obj
 0002:00016844       ??_C@_07DKNGGOEP@doapr?$CI?$CJ?$AA@ 00087844     libeay32:b_print.obj
 0002:000168fc       ??_C@_05NEEKIFMD@fips2?$AA@ 000878fc     libeay32:cryptlib.obj
 0002:00016904       ??_C@_04DJGCHAOD@fips?$AA@ 00087904     libeay32:cryptlib.obj
 0002:0001690c       ??_C@_04OLDKMDKP@comp?$AA@ 0008790c     libeay32:cryptlib.obj
 0002:00016914       ??_C@_05ODGDKDLF@store?$AA@ 00087914     libeay32:cryptlib.obj
 0002:0001691c       ??_C@_0M@FNJFEIGB@ec_pre_comp?$AA@ 0008791c     libeay32:cryptlib.obj
 0002:00016928       ??_C@_02LAJDHPIK@bn?$AA@   00087928     libeay32:cryptlib.obj
 0002:0001692c       ??_C@_04KDGGCKGB@ecdh?$AA@ 0008792c     libeay32:cryptlib.obj
 0002:00016934       ??_C@_02HCBHEC@ec?$AA@     00087934     libeay32:cryptlib.obj
 0002:00016938       ??_C@_05FGIDCBJD@ecdsa?$AA@ 00087938     libeay32:cryptlib.obj
 0002:00016940       ??_C@_02OGLLFMLI@ui?$AA@   00087940     libeay32:cryptlib.obj
 0002:00016944       ??_C@_06LOBMEHPF@engine?$AA@ 00087944     libeay32:cryptlib.obj
 0002:0001694c       ??_C@_07HGGNMPAJ@dynlock?$AA@ 0008794c     libeay32:cryptlib.obj
 0002:00016954       ??_C@_03NOCNOBNG@dso?$AA@  00087954     libeay32:cryptlib.obj
 0002:00016958       ??_C@_0O@PMFKBDME@debug_malloc2?$AA@ 00087958     libeay32:cryptlib.obj
 0002:00016968       ??_C@_02OCEEKELO@dh?$AA@   00087968     libeay32:cryptlib.obj
 0002:0001696c       ??_C@_0N@BGAJKBNF@RSA_blinding?$AA@ 0008796c     libeay32:cryptlib.obj
 0002:0001697c       ??_C@_07OMHHFDME@readdir?$AA@ 0008797c     libeay32:cryptlib.obj
 0002:00016984       ??_C@_0O@BFBCKHPD@gethostbyname?$AA@ 00087984     libeay32:cryptlib.obj
 0002:00016994       ??_C@_03OHAMFFNA@BIO?$AA@  00087994     libeay32:cryptlib.obj
 0002:00016998       ??_C@_0N@CLEMOJNL@debug_malloc?$AA@ 00087998     libeay32:cryptlib.obj
 0002:000169a8       ??_C@_05NFNCBLNG@rand2?$AA@ 000879a8     libeay32:cryptlib.obj
 0002:000169b0       ??_C@_04HKINGDKC@rand?$AA@ 000879b0     libeay32:cryptlib.obj
 0002:000169b8       ??_C@_0L@NKBFNPDB@ssl_method?$AA@ 000879b8     libeay32:cryptlib.obj
 0002:000169c4       ??_C@_03DIMONNDD@ssl?$AA@  000879c4     libeay32:cryptlib.obj
 0002:000169c8       ??_C@_0O@LOCLBOHA@ssl_sess_cert?$AA@ 000879c8     libeay32:cryptlib.obj
 0002:000169d8       ??_C@_0M@OAEAFGMD@ssl_session?$AA@ 000879d8     libeay32:cryptlib.obj
 0002:000169e4       ??_C@_08INIFBEOB@ssl_cert?$AA@ 000879e4     libeay32:cryptlib.obj
 0002:000169f0       ??_C@_07DNHKIAPH@ssl_ctx?$AA@ 000879f0     libeay32:cryptlib.obj
 0002:000169f8       ??_C@_0L@JCDDFIOK@x509_store?$AA@ 000879f8     libeay32:cryptlib.obj
 0002:00016a04       ??_C@_08NBJJIGBN@evp_pkey?$AA@ 00087a04     libeay32:cryptlib.obj
 0002:00016a10       ??_C@_03EAKOMMFI@dsa?$AA@  00087a10     libeay32:cryptlib.obj
 0002:00016a14       ??_C@_08BHPLFFMD@x509_req?$AA@ 00087a14     libeay32:cryptlib.obj
 0002:00016a20       ??_C@_08BJFLLMNA@x509_crl?$AA@ 00087a20     libeay32:cryptlib.obj
 0002:00016a2c       ??_C@_09HNLHIFBP@x509_pkey?$AA@ 00087a2c     libeay32:cryptlib.obj
 0002:00016a38       ??_C@_09DJEHILFA@x509_info?$AA@ 00087a38     libeay32:cryptlib.obj
 0002:00016a44       ??_C@_04BNGFMDFF@x509?$AA@ 00087a44     libeay32:cryptlib.obj
 0002:00016a4c       ??_C@_07OALPHBKG@ex_data?$AA@ 00087a4c     libeay32:cryptlib.obj
 0002:00016a54       ??_C@_03JIDPIAJI@err?$AA@  00087a54     libeay32:cryptlib.obj
 0002:00016a58       ??_C@_09OGFJIAEE@?$DM?$DMERROR?$DO?$DO?$AA@ 00087a58     libeay32:cryptlib.obj
 0002:00016a68       ??_C@_0EK@JACEKOIE@d?3?2wm653wehh?2platform?2mvv210?2src@ 00087a68     libeay32:cryptlib.obj
 0002:00016ab4       ??_C@_1BO@DCCMIJEM@?$AAO?$AAp?$AAe?$AAn?$AAS?$AAS?$AAL?$AA?3?$AA?5?$AAF?$AAA?$AAT?$AAA?$AAL?$AA?$AA@ 00087ab4     libeay32:cryptlib.obj
 0002:00016ad4       ??_C@_1BE@NLCFDLCA@?$AAn?$AAo?$AA?5?$AAs?$AAt?$AAa?$AAc?$AAk?$AA?$DP?$AA?$AA@ 00087ad4     libeay32:cryptlib.obj
 0002:00016ae8       ??_C@_0DG@JJAMFCAP@?$CFs?$CI?$CFd?$CJ?3?5OpenSSL?5internal?5error?0?5@ 00087ae8     libeay32:cryptlib.obj
 0002:00016b20       ??_C@_0BA@LPBALOME@pointer?5?$CB?$DN?5NULL?$AA@ 00087b20     libeay32:cryptlib.obj
 0002:00016b30       ??_C@_0EN@MBCJMNEM@d?3?2wm653wehh?2platform?2mvv210?2src@ 00087b30     libeay32:bio_lib.obj
 0002:00016b80       ??_C@_01CLKCMJKC@?5?$AA@   00087b80     libeay32:bio_lib.obj
 0002:00016b84       ??_C@_0N@JAGKAFD@FILE?5pointer?$AA@ 00087b84     libeay32:bss_file.obj
 0002:00016b98       ??_C@_0EO@GEBEJMNG@d?3?2wm653wehh?2platform?2mvv210?2src@ 00087b98     libeay32:bss_file.obj
 0002:00016be8       ??_C@_02HJPKOJGD@?8?$CJ?$AA@ 00087be8     libeay32:bss_file.obj
 0002:00016bec       ??_C@_03IMMLKIF@?8?0?8?$AA@ 00087bec     libeay32:bss_file.obj
 0002:00016bf0       ??_C@_07JMDFGFFH@fopen?$CI?8?$AA@ 00087bf0     libeay32:bss_file.obj
 0002:00016bf8       ??_C@_01PFHFFBPC@t?$AA@    00087bf8     libeay32:bss_file.obj
 0002:00016bfc       ??_C@_01OJONOECF@b?$AA@    00087bfc     libeay32:bss_file.obj
 0002:00016c00       ??_C@_01KDCPPGHE@r?$AA@    00087c00     libeay32:bss_file.obj
 0002:00016c04       ??_C@_01NOFIACDB@w?$AA@    00087c04     libeay32:bss_file.obj
 0002:00016c08       ??_C@_02CBLLGHLK@r?$CL?$AA@ 00087c08     libeay32:bss_file.obj
 0002:00016c0c       ??_C@_01MCMALHOG@a?$AA@    00087c0c     libeay32:bss_file.obj
 0002:00016c10       ??_C@_02DPNLHKJD@a?$CL?$AA@ 00087c10     libeay32:bss_file.obj
 0002:00016c18       ??_C@_0EL@CLIEFBLC@d?3?2wm653wehh?2platform?2mvv210?2src@ 00087c18     libeay32:bn_mod.obj
 0002:00016c68       ??_C@_0EL@MKGMFIIF@d?3?2wm653wehh?2platform?2mvv210?2src@ 00087c68     libeay32:bn_exp.obj
 0002:00016cb8       ??_C@_0EL@HJNLGKMO@d?3?2wm653wehh?2platform?2mvv210?2src@ 00087cb8     libeay32:bn_div.obj
 0002:00016d08       ??_C@_0EM@PNNGIHGB@d?3?2wm653wehh?2platform?2mvv210?2src@ 00087d08     libeay32:bn_mont.obj
 0002:00016d58       ??_C@_0EM@IBBLLJFJ@d?3?2wm653wehh?2platform?2mvv210?2src@ 00087d58     libeay32:ec2_oct.obj
 0002:00016da8       ??_C@_0EM@OKKDHMMJ@d?3?2wm653wehh?2platform?2mvv210?2src@ 00087da8     libeay32:ecp_oct.obj
 0002:00016e98       ??_C@_0EN@IKCJFOCD@d?3?2wm653wehh?2platform?2mvv210?2src@ 00087e98     libeay32:ecp_smpl.obj
 0002:00016ee8       ??_C@_0EN@JCJEBHDE@d?3?2wm653wehh?2platform?2mvv210?2src@ 00087ee8     libeay32:ec2_mult.obj
 0002:00016f78       ??_C@_0EM@KOFLLDDI@d?3?2wm653wehh?2platform?2mvv210?2src@ 00087f78     libeay32:bn_gf2m.obj
 0002:00016fc4       lh_version                 00087fc4     libeay32:lhash.obj
 0002:00016ff0       ??_C@_0EN@ECMNBMLE@d?3?2wm653wehh?2platform?2mvv210?2src@ 00087ff0     libeay32:lhash.obj
 0002:00017040       ??_C@_0EP@EOLMKMCC@d?3?2wm653wehh?2platform?2mvv210?2src@ 00088040     libeay32:a_object.obj
 0002:00017090       ??_C@_09OJNEAJGG@?$DMINVALID?$DO?$AA@ 00088090     libeay32:a_object.obj
 0002:000170a0       ??_C@_0FB@OACJPALH@d?3?2wm653wehh?2platform?2mvv210?2src@ 000880a0     libeay32:obj_lib.obj
 0002:000170f8       ??_C@_0FA@OIJOADBF@d?3?2wm653wehh?2platform?2mvv210?2src@ 000880f8     libeay32:buf_str.obj
 0002:00017148       ASN1_version               00088148     libeay32:asn1_lib.obj
 0002:00017178       ??_C@_0EP@DFJJGEMF@d?3?2wm653wehh?2platform?2mvv210?2src@ 00088178     libeay32:asn1_lib.obj
 0002:000171c8       STACK_version              000881c8     libeay32:stack.obj
 0002:000171f8       ??_C@_0EN@GOCHBJJG@d?3?2wm653wehh?2platform?2mvv210?2src@ 000881f8     libeay32:stack.obj
 0002:00017248       ??_C@_0FC@BNEDDMOL@d?3?2wm653wehh?2platform?2mvv210?2src@ 00088248     libeay32:tb_asnmth.obj
 0002:000172a0       ??_C@_0FC@NEBNNILH@d?3?2wm653wehh?2platform?2mvv210?2src@ 000882a0     libeay32:tb_pkmeth.obj
 0002:000172f8       ??_C@_0FB@FHJDMCII@d?3?2wm653wehh?2platform?2mvv210?2src@ 000882f8     libeay32:eng_init.obj
 0002:0001734c       RAND_version               0008834c     libeay32:md_rand.obj
 0002:00017378       ??_C@_0EO@OKPIHEJM@d?3?2wm653wehh?2platform?2mvv210?2src@ 00088378     libeay32:md_rand.obj
 0002:000173c8       ??_C@_0EK@MHBHPLPP@You?5need?5to?5read?5the?5OpenSSL?5FAQ@ 000883c8     libeay32:md_rand.obj
 0002:00017414       ??_C@_0BF@KNMHCCP@?4?4?4?4?4?4?4?4?4?4?4?4?4?4?4?4?4?4?4?4?$AA@ 00088414     libeay32:md_rand.obj
 0002:00017430       ??_C@_0L@NNLHLDBF@wrap?5error?$AA@ 00088430     libeay32:cms_err.obj
 0002:0001743c       ??_C@_0BF@BPGKPNEB@verification?5failure?$AA@ 0008843c     libeay32:cms_err.obj
 0002:00017454       ??_C@_0P@OLMHDACD@unwrap?5failure?$AA@ 00088454     libeay32:cms_err.obj
 0002:00017464       ??_C@_0N@NPPMDEPK@unwrap?5error?$AA@ 00088464     libeay32:cms_err.obj
 0002:00017474       ??_C@_0BB@HCAFPPCK@unsupported?5type?$AA@ 00088474     libeay32:cms_err.obj
 0002:00017488       ??_C@_0BO@DFLIHPDC@unsupported?5recpientinfo?5type?$AA@ 00088488     libeay32:cms_err.obj
 0002:000174a8       ??_C@_0BL@JINAKJM@unsupported?5recipient?5type?$AA@ 000884a8     libeay32:cms_err.obj
 0002:000174c4       ??_C@_0CF@JJHJPPBK@unsupported?5key?5encryption?5algor@ 000884c4     libeay32:cms_err.obj
 0002:000174ec       ??_C@_0BK@GCOIGPEN@unsupported?5kek?5algorithm?$AA@ 000884ec     libeay32:cms_err.obj
 0002:00017508       ??_C@_0BJ@KNOCCCPA@unsupported?5content?5type?$AA@ 00088508     libeay32:cms_err.obj
 0002:00017524       ??_C@_0CC@EGPPFAKP@unsupported?5compression?5algorith@ 00088524     libeay32:cms_err.obj
 0002:00017548       ??_C@_0L@GEAKBAPK@unknown?5id?$AA@ 00088548     libeay32:cms_err.obj
 0002:00017554       ??_C@_0BI@GDMEEIDA@unknown?5digest?5algorihm?$AA@ 00088554     libeay32:cms_err.obj
 0002:0001756c       ??_C@_0P@JHGHJHE@unknown?5cipher?$AA@ 0008856c     libeay32:cms_err.obj
 0002:0001757c       ??_C@_0BL@EPBMKCGE@unable?5to?5finalize?5context?$AA@ 0008857c     libeay32:cms_err.obj
 0002:00017598       ??_C@_0BI@MICOMFLM@type?5not?5enveloped?5data?$AA@ 00088598     libeay32:cms_err.obj
 0002:000175b0       ??_C@_0BI@ENGODHOG@type?5not?5encrypted?5data?$AA@ 000885b0     libeay32:cms_err.obj
 0002:000175c8       ??_C@_0BH@PNMANIDN@type?5not?5digested?5data?$AA@ 000885c8     libeay32:cms_err.obj
 0002:000175e0       ??_C@_0O@OIKFLGPK@type?5not?5data?$AA@ 000885e0     libeay32:cms_err.obj
 0002:000175f0       ??_C@_0BJ@LKLHJNJG@type?5not?5compressed?5data?$AA@ 000885f0     libeay32:cms_err.obj
 0002:0001760c       ??_C@_0BB@KLHMPIEH@store?5init?5error?$AA@ 0008860c     libeay32:cms_err.obj
 0002:00017620       ??_C@_0BB@KEMFLAGG@smime?5text?5error?$AA@ 00088620     libeay32:cms_err.obj
 0002:00017634       ??_C@_0BA@KIAFIMOL@signfinal?5error?$AA@ 00088634     libeay32:cms_err.obj
 0002:00017644       ??_C@_0BN@LFDDONEE@signer?5certificate?5not?5found?$AA@ 00088644     libeay32:cms_err.obj
 0002:00017664       ??_C@_0BA@EMGFGLHJ@recipient?5error?$AA@ 00088664     libeay32:cms_err.obj
 0002:00017674       ??_C@_0BF@LECBOCPG@receipt?5decode?5error?$AA@ 00088674     libeay32:cms_err.obj
 0002:0001768c       ??_C@_0CH@PMPAELAG@private?5key?5does?5not?5match?5certi@ 0008868c     libeay32:cms_err.obj
 0002:000176b4       ??_C@_0L@GEFKNGMC@no?5signers?$AA@ 000886b4     libeay32:cms_err.obj
 0002:000176c0       ??_C@_0BD@MOCPMAMA@no?5receipt?5request?$AA@ 000886c0     libeay32:cms_err.obj
 0002:000176d4       ??_C@_0O@EOGKGIEL@no?5public?5key?$AA@ 000886d4     libeay32:cms_err.obj
 0002:000176e4       ??_C@_0P@DEBHAAB@no?5private?5key?$AA@ 000886e4     libeay32:cms_err.obj
 0002:000176f4       ??_C@_0M@LLPPIJG@no?5password?$AA@ 000886f4     libeay32:cms_err.obj
 0002:00017700       ??_C@_0BA@OPCNALIK@no?5msgsigdigest?$AA@ 00088700     libeay32:cms_err.obj
 0002:00017710       ??_C@_0BG@JPMMLKD@no?5matching?5signature?$AA@ 00088710     libeay32:cms_err.obj
 0002:00017728       ??_C@_0BG@HOBMPGL@no?5matching?5recipient?$AA@ 00088728     libeay32:cms_err.obj
 0002:00017740       ??_C@_0BD@PLEMHKD@no?5matching?5digest?$AA@ 00088740     libeay32:cms_err.obj
 0002:00017754       ??_C@_0P@KFGEHDGK@no?5key?5or?5cert?$AA@ 00088754     libeay32:cms_err.obj
 0002:00017764       ??_C@_06NNLPDOME@no?5key?$AA@ 00088764     libeay32:cms_err.obj
 0002:0001776c       ??_C@_0O@MFHBBAJO@no?5digest?5set?$AA@ 0008876c     libeay32:cms_err.obj
 0002:0001777c       ??_C@_0BC@GDBMALNO@no?5default?5digest?$AA@ 0008877c     libeay32:cms_err.obj
 0002:00017790       ??_C@_0BA@FPKKDFNC@no?5content?5type?$AA@ 00088790     libeay32:cms_err.obj
 0002:000177a0       ??_C@_0L@CMBDMAOL@no?5content?$AA@ 000887a0     libeay32:cms_err.obj
 0002:000177ac       ??_C@_09GIAHKKBP@no?5cipher?$AA@ 000887ac     libeay32:cms_err.obj
 0002:000177b8       ??_C@_0CA@FDMFGJMC@not?5supported?5for?5this?5key?5type?$AA@ 000887b8     libeay32:cms_err.obj
 0002:000177d8       ??_C@_08HHGHOGEE@not?5pwri?$AA@ 000887d8     libeay32:cms_err.obj
 0002:000177e4       ??_C@_0BC@FCIJIHJO@not?5key?5transport?$AA@ 000887e4     libeay32:cms_err.obj
 0002:000177f8       ??_C@_07FHACAFGF@not?5kek?$AA@ 000887f8     libeay32:cms_err.obj
 0002:00017800       ??_C@_0BD@HIIHKPFA@not?5encrypted?5data?$AA@ 00088800     libeay32:cms_err.obj
 0002:00017814       ??_C@_0BF@DPOIIODH@not?5a?5signed?5receipt?$AA@ 00088814     libeay32:cms_err.obj
 0002:0001782c       ??_C@_0BA@BHDOODOM@need?5one?5signer?$AA@ 0008882c     libeay32:cms_err.obj
 0002:0001783c       ??_C@_0BK@NAHJMMPF@msgsigdigest?5wrong?5length?$AA@ 0008883c     libeay32:cms_err.obj
 0002:00017858       ??_C@_0CC@EFEFGHFB@msgsigdigest?5verification?5failur@ 00088858     libeay32:cms_err.obj
 0002:0001787c       ??_C@_0BD@HNLNAPHC@msgsigdigest?5error?$AA@ 0008887c     libeay32:cms_err.obj
 0002:00017890       ??_C@_0BL@DGDMJPMD@messagedigest?5wrong?5length?$AA@ 00088890     libeay32:cms_err.obj
 0002:000178ac       ??_C@_0CF@DEFLCFJL@messagedigest?5attribute?5wrong?5le@ 000888ac     libeay32:cms_err.obj
 0002:000178d4       ??_C@_0BC@NFJILDHC@md?5bio?5init?5error?$AA@ 000888d4     libeay32:cms_err.obj
 0002:000178e8       ??_C@_0BD@ECABCPMG@invalid?5key?5length?$AA@ 000888e8     libeay32:cms_err.obj
 0002:000178fc       ??_C@_0CB@KFOHGPLF@invalid?5key?5encryption?5parameter@ 000888fc     libeay32:cms_err.obj
 0002:00017920       ??_C@_0BN@JNGACGBD@invalid?5encrypted?5key?5length?$AA@ 00088920     libeay32:cms_err.obj
 0002:00017940       ??_C@_0BM@MKIGGLBJ@error?5setting?5recipientinfo?$AA@ 00088940     libeay32:cms_err.obj
 0002:0001795c       ??_C@_0BC@GBDDBCFF@error?5setting?5key?$AA@ 0008895c     libeay32:cms_err.obj
 0002:00017970       ??_C@_0CG@KKAHAFIL@error?5reading?5messagedigest?5attr@ 00088970     libeay32:cms_err.obj
 0002:00017998       ??_C@_0BJ@KOCDEKNH@error?5getting?5public?5key?$AA@ 00088998     libeay32:cms_err.obj
 0002:000179b4       ??_C@_0N@KPANJIHN@digest?5error?$AA@ 000889b4     libeay32:cms_err.obj
 0002:000179c4       ??_C@_0O@IKMKDME@decrypt?5error?$AA@ 000889c4     libeay32:cms_err.obj
 0002:000179d4       ??_C@_0N@NAPIGBMI@ctrl?5failure?$AA@ 000889d4     libeay32:cms_err.obj
 0002:000179e4       ??_C@_0L@HANPCOML@ctrl?5error?$AA@ 000889e4     libeay32:cms_err.obj
 0002:000179f0       ??_C@_0BF@CBLCHNCH@content?5verify?5error?$AA@ 000889f0     libeay32:cms_err.obj
 0002:00017a08       ??_C@_0BN@IBDMPLNJ@content?5type?5not?5signed?5data?$AA@ 00088a08     libeay32:cms_err.obj
 0002:00017a28       ??_C@_0CA@NNDPBEED@content?5type?5not?5enveloped?5data?$AA@ 00088a28     libeay32:cms_err.obj
 0002:00017a48       ??_C@_0CB@JHKAGDMK@content?5type?5not?5compressed?5data@ 00088a48     libeay32:cms_err.obj
 0002:00017a6c       ??_C@_0BG@DOJFGBAA@content?5type?5mismatch?$AA@ 00088a6c     libeay32:cms_err.obj
 0002:00017a84       ??_C@_0BC@JJDDEPPC@content?5not?5found?$AA@ 00088a84     libeay32:cms_err.obj
 0002:00017a98       ??_C@_0BL@HAKJOONM@contentidentifier?5mismatch?$AA@ 00088a98     libeay32:cms_err.obj
 0002:00017ab4       ??_C@_07DJCELLB@cms?5lib?$AA@ 00088ab4     libeay32:cms_err.obj
 0002:00017abc       ??_C@_0BE@HDNIFGNJ@cms?5datafinal?5error?$AA@ 00088abc     libeay32:cms_err.obj
 0002:00017ad0       ??_C@_0CG@NJEMBNPF@cipher?5parameter?5initialisation?5@ 00088ad0     libeay32:cms_err.obj
 0002:00017af8       ??_C@_0BM@CDGMNLKF@cipher?5initialisation?5error?$AA@ 00088af8     libeay32:cms_err.obj
 0002:00017b14       ??_C@_0BJ@PLMONNLI@certificate?5verify?5error?$AA@ 00088b14     libeay32:cms_err.obj
 0002:00017b30       ??_C@_0BJ@DDNKEBDF@certificate?5has?5no?5keyid?$AA@ 00088b30     libeay32:cms_err.obj
 0002:00017b4c       ??_C@_0BM@GPNDEIAC@certificate?5already?5present?$AA@ 00088b4c     libeay32:cms_err.obj
 0002:00017b68       ??_C@_0BB@FNKCEDFO@add?5signer?5error?$AA@ 00088b68     libeay32:cms_err.obj
 0002:00017b7c       ??_C@_0L@NHFFCEMH@CMS_verify?$AA@ 00088b7c     libeay32:cms_err.obj
 0002:00017b88       ??_C@_0P@OPDEFJDG@CMS_uncompress?$AA@ 00088b88     libeay32:cms_err.obj
 0002:00017b98       ??_C@_0L@CMNAKEDG@CMS_stream?$AA@ 00088b98     libeay32:cms_err.obj
 0002:00017ba4       ??_C@_0BB@OJKJBGPA@CMS_sign_receipt?$AA@ 00088ba4     libeay32:cms_err.obj
 0002:00017bb8       ??_C@_0BO@GDPNOCCN@CMS_SignerInfo_verify_content?$AA@ 00088bb8     libeay32:cms_err.obj
 0002:00017bd8       ??_C@_0BL@HPPJGHNG@CMS_SIGNERINFO_VERIFY_CERT?$AA@ 00088bd8     libeay32:cms_err.obj
 0002:00017bf4       ??_C@_0BG@JGBNMIIN@CMS_SignerInfo_verify?$AA@ 00088bf4     libeay32:cms_err.obj
 0002:00017c0c       ??_C@_0BE@BCBEAGJM@CMS_SignerInfo_sign?$AA@ 00088c0c     libeay32:cms_err.obj
 0002:00017c20       ??_C@_0BM@HLKOHAIJ@CMS_SIGNERINFO_CONTENT_SIGN?$AA@ 00088c20     libeay32:cms_err.obj
 0002:00017c3c       ??_C@_0BF@HLPFDGMI@CMS_SIGNED_DATA_INIT?$AA@ 00088c3c     libeay32:cms_err.obj
 0002:00017c54       ??_C@_08ONCOPDLN@CMS_sign?$AA@ 00088c54     libeay32:cms_err.obj
 0002:00017c60       ??_C@_0BB@GNCOKBPO@CMS_set_detached?$AA@ 00088c60     libeay32:cms_err.obj
 0002:00017c74       ??_C@_0BK@KNGIIIB@cms_set1_SignerIdentifier?$AA@ 00088c74     libeay32:cms_err.obj
 0002:00017c90       ??_C@_0BM@CLJEMDDE@CMS_RecipientInfo_set0_pkey?$AA@ 00088c90     libeay32:cms_err.obj
 0002:00017cac       ??_C@_0CA@BPDHKOPM@CMS_RecipientInfo_set0_password?$AA@ 00088cac     libeay32:cms_err.obj
 0002:00017ccc       ??_C@_0BL@GCLBMPOL@CMS_RecipientInfo_set0_key?$AA@ 00088ccc     libeay32:cms_err.obj
 0002:00017ce8       ??_C@_0BN@EIBMMFBI@cms_RecipientInfo_pwri_crypt?$AA@ 00088ce8     libeay32:cms_err.obj
 0002:00017d08       ??_C@_0CG@MDGMCNHP@CMS_RecipientInfo_ktri_get0_sign@ 00088d08     libeay32:cms_err.obj
 0002:00017d30       ??_C@_0CB@MAJAJIJB@CMS_RecipientInfo_ktri_get0_algs@ 00088d30     libeay32:cms_err.obj
 0002:00017d54       ??_C@_0BP@OAMIJOBO@CMS_RECIPIENTINFO_KTRI_ENCRYPT?$AA@ 00088d54     libeay32:cms_err.obj
 0002:00017d74       ??_C@_0BP@COGFMKHK@CMS_RECIPIENTINFO_KTRI_DECRYPT?$AA@ 00088d74     libeay32:cms_err.obj
 0002:00017d94       ??_C@_0CA@OHEFBGJP@CMS_RecipientInfo_ktri_cert_cmp?$AA@ 00088d94     libeay32:cms_err.obj
 0002:00017db4       ??_C@_0BP@FEAOKEHC@CMS_RecipientInfo_kekri_id_cmp?$AA@ 00088db4     libeay32:cms_err.obj
 0002:00017dd4       ??_C@_0CA@FHDOEBKK@CMS_RecipientInfo_kekri_get0_id?$AA@ 00088dd4     libeay32:cms_err.obj
 0002:00017df4       ??_C@_0CA@LLHHMFLP@CMS_RECIPIENTINFO_KEKRI_ENCRYPT?$AA@ 00088df4     libeay32:cms_err.obj
 0002:00017e14       ??_C@_0CA@HFNKJBNL@CMS_RECIPIENTINFO_KEKRI_DECRYPT?$AA@ 00088e14     libeay32:cms_err.obj
 0002:00017e34       ??_C@_0BK@MJGGGDJP@CMS_RecipientInfo_decrypt?$AA@ 00088e34     libeay32:cms_err.obj
 0002:00017e50       ??_C@_0BD@PJPKFFBN@cms_Receipt_verify?$AA@ 00088e50     libeay32:cms_err.obj
 0002:00017e64       ??_C@_0BL@JEBFMOJM@CMS_ReceiptRequest_create0?$AA@ 00088e64     libeay32:cms_err.obj
 0002:00017e80       ??_C@_0BG@NAKGFLPL@cms_msgSigDigest_add1?$AA@ 00088e80     libeay32:cms_err.obj
 0002:00017e98       ??_C@_0BA@OPINNJHK@CMS_GET0_SIGNED?$AA@ 00088e98     libeay32:cms_err.obj
 0002:00017ea8       ??_C@_0BM@GGKLNKH@CMS_GET0_REVOCATION_CHOICES?$AA@ 00088ea8     libeay32:cms_err.obj
 0002:00017ec4       ??_C@_0BD@IMILPDEA@cms_get0_enveloped?$AA@ 00088ec4     libeay32:cms_err.obj
 0002:00017ed8       ??_C@_0BH@ELAGGFNC@CMS_GET0_ECONTENT_TYPE?$AA@ 00088ed8     libeay32:cms_err.obj
 0002:00017ef0       ??_C@_0BB@KBMFHBNJ@CMS_get0_content?$AA@ 00088ef0     libeay32:cms_err.obj
 0002:00017f04       ??_C@_0BN@JHKBLBCL@CMS_GET0_CERTIFICATE_CHOICES?$AA@ 00088f04     libeay32:cms_err.obj
 0002:00017f24       ??_C@_09FJDKFOPG@CMS_final?$AA@ 00088f24     libeay32:cms_err.obj
 0002:00017f30       ??_C@_0BI@LGKNJDCK@CMS_ENVELOPED_DATA_INIT?$AA@ 00088f30     libeay32:cms_err.obj
 0002:00017f48       ??_C@_0BL@LPACJDLI@cms_EnvelopedData_init_bio?$AA@ 00088f48     libeay32:cms_err.obj
 0002:00017f64       ??_C@_0BJ@IOFCEDEP@CMS_EnvelopedData_create?$AA@ 00088f64     libeay32:cms_err.obj
 0002:00017f80       ??_C@_0BL@CINLHLFO@CMS_EncryptedData_set1_key?$AA@ 00088f80     libeay32:cms_err.obj
 0002:00017f9c       ??_C@_0BK@IPLKOKCP@CMS_EncryptedData_encrypt?$AA@ 00088f9c     libeay32:cms_err.obj
 0002:00017fb8       ??_C@_0BK@EBBHLOEL@CMS_EncryptedData_decrypt?$AA@ 00088fb8     libeay32:cms_err.obj
 0002:00017fd4       ??_C@_0BO@KJGCMDOC@cms_EncryptedContent_init_bio?$AA@ 00088fd4     libeay32:cms_err.obj
 0002:00017ff4       ??_C@_0M@GGKGNHBM@CMS_encrypt?$AA@ 00088ff4     libeay32:cms_err.obj
 0002:00018000       ??_C@_0BD@GFELKJAN@cms_encode_Receipt?$AA@ 00089000     libeay32:cms_err.obj
 0002:00018014       ??_C@_0BC@EBOECHMN@CMS_digest_verify?$AA@ 00089014     libeay32:cms_err.obj
 0002:00018028       ??_C@_0BK@MPJJOAPG@cms_DigestedData_do_final?$AA@ 00089028     libeay32:cms_err.obj
 0002:00018044       ??_C@_0BN@GKJNEGCL@cms_DigestAlgorithm_init_bio?$AA@ 00089044     libeay32:cms_err.obj
 0002:00018064       ??_C@_0BN@NAFBGPCG@cms_DigestAlgorithm_find_ctx?$AA@ 00089064     libeay32:cms_err.obj
 0002:00018084       ??_C@_0BG@NGGHLDM@CMS_decrypt_set1_pkey?$AA@ 00089084     libeay32:cms_err.obj
 0002:0001809c       ??_C@_0BK@OFEJCPHJ@CMS_decrypt_set1_password?$AA@ 0008909c     libeay32:cms_err.obj
 0002:000180b8       ??_C@_0BF@EJDJGLNL@CMS_decrypt_set1_key?$AA@ 000890b8     libeay32:cms_err.obj
 0002:000180d0       ??_C@_0M@KIALIDHI@CMS_decrypt?$AA@ 000890d0     libeay32:cms_err.obj
 0002:000180dc       ??_C@_0N@LDENDKPJ@CMS_dataInit?$AA@ 000890dc     libeay32:cms_err.obj
 0002:000180ec       ??_C@_0O@MJNGBEMO@CMS_dataFinal?$AA@ 000890ec     libeay32:cms_err.obj
 0002:000180fc       ??_C@_08GDKCJBCG@CMS_data?$AA@ 000890fc     libeay32:cms_err.obj
 0002:00018108       ??_C@_0BH@LEEPHKHL@CMS_COPY_MESSAGEDIGEST?$AA@ 00089108     libeay32:cms_err.obj
 0002:00018120       ??_C@_0BB@MGOOAMEI@CMS_COPY_CONTENT?$AA@ 00089120     libeay32:cms_err.obj
 0002:00018134       ??_C@_0BM@PPBOOFHN@cms_CompressedData_init_bio?$AA@ 00089134     libeay32:cms_err.obj
 0002:00018150       ??_C@_0BK@LDGCLEIM@cms_CompressedData_create?$AA@ 00089150     libeay32:cms_err.obj
 0002:0001816c       ??_C@_0N@KHGKPDNG@CMS_compress?$AA@ 0008916c     libeay32:cms_err.obj
 0002:0001817c       ??_C@_0BF@DHEFJKJH@CMS_ADD1_SIGNINGTIME?$AA@ 0008917c     libeay32:cms_err.obj
 0002:00018194       ??_C@_0BA@DIKIAKAL@CMS_add1_signer?$AA@ 00089194     libeay32:cms_err.obj
 0002:000181a4       ??_C@_0BI@ECOCMKIO@CMS_add1_recipient_cert?$AA@ 000891a4     libeay32:cms_err.obj
 0002:000181bc       ??_C@_0BI@LKJJACNE@CMS_add1_ReceiptRequest?$AA@ 000891bc     libeay32:cms_err.obj
 0002:000181d4       ??_C@_0BM@CONIGCIH@CMS_add0_recipient_password?$AA@ 000891d4     libeay32:cms_err.obj
 0002:000181f0       ??_C@_0BH@IPBCDHLJ@CMS_add0_recipient_key?$AA@ 000891f0     libeay32:cms_err.obj
 0002:00018208       ??_C@_0O@LJGCAAGO@CMS_add0_cert?$AA@ 00089208     libeay32:cms_err.obj
 0002:00018218       ??_C@_0O@DNEAIJDG@CHECK_CONTENT?$AA@ 00089218     libeay32:cms_err.obj
 0002:00018228       ??_C@_0BI@HFFBAJKF@unknown?5control?5command?$AA@ 00089228     libeay32:ui_err.obj
 0002:00018240       ??_C@_0BB@NEPBJBGF@result?5too?5small?$AA@ 00089240     libeay32:ui_err.obj
 0002:00018254       ??_C@_0BB@HMLKGAPD@result?5too?5large?$AA@ 00089254     libeay32:ui_err.obj
 0002:00018268       ??_C@_0BB@HMMNCLKL@no?5result?5buffer?$AA@ 00089268     libeay32:ui_err.obj
 0002:0001827c       ??_C@_0BA@CHEBNBMB@index?5too?5small?$AA@ 0008927c     libeay32:ui_err.obj
 0002:0001828c       ??_C@_0BA@IPAKCAFH@index?5too?5large?$AA@ 0008928c     libeay32:ui_err.obj
 0002:0001829c       ??_C@_0CA@MODCIDDB@common?5ok?5and?5cancel?5characters?$AA@ 0008929c     libeay32:ui_err.obj
 0002:000182bc       ??_C@_0O@EDJPOOGP@UI_set_result?$AA@ 000892bc     libeay32:ui_err.obj
 0002:000182cc       ??_C@_0O@NGDBEIBL@UI_new_method?$AA@ 000892cc     libeay32:ui_err.obj
 0002:000182dc       ??_C@_0P@LPDIOMBP@UI_get0_result?$AA@ 000892dc     libeay32:ui_err.obj
 0002:000182ec       ??_C@_0BF@CLNOBEOL@UI_dup_verify_string?$AA@ 000892ec     libeay32:ui_err.obj
 0002:00018304       ??_C@_0BE@EKGBGIID@UI_dup_input_string?$AA@ 00089304     libeay32:ui_err.obj
 0002:00018318       ??_C@_0BF@POGJGJNM@UI_dup_input_boolean?$AA@ 00089318     libeay32:ui_err.obj
 0002:00018330       ??_C@_0BD@BDJEJKHN@UI_dup_info_string?$AA@ 00089330     libeay32:ui_err.obj
 0002:00018344       ??_C@_0BE@MCDDKAGP@UI_dup_error_string?$AA@ 00089344     libeay32:ui_err.obj
 0002:00018358       ??_C@_07PKCPFHP@UI_ctrl?$AA@ 00089358     libeay32:ui_err.obj
 0002:00018360       ??_C@_0BI@OAGFBGFA@GENERAL_ALLOCATE_STRING?$AA@ 00089360     libeay32:ui_err.obj
 0002:00018378       ??_C@_0BI@GHJBOEFM@GENERAL_ALLOCATE_PROMPT?$AA@ 00089378     libeay32:ui_err.obj
 0002:00018390       ??_C@_0BJ@HEJNMKGO@GENERAL_ALLOCATE_BOOLEAN?$AA@ 00089390     libeay32:ui_err.obj
 0002:000183ac       ??_C@_0BP@PEMBCGCF@unsupported?5requestorname?5type?$AA@ 000893ac     libeay32:ocsp_err.obj
 0002:000183cc       ??_C@_0M@MJJCBEFL@unknown?5nid?$AA@ 000893cc     libeay32:ocsp_err.obj
 0002:000183d8       ??_C@_0BH@HCJHEFDL@unknown?5message?5digest?$AA@ 000893d8     libeay32:ocsp_err.obj
 0002:000183f0       ??_C@_0P@GGIDMBBF@status?5too?5old?$AA@ 000893f0     libeay32:ocsp_err.obj
 0002:00018400       ??_C@_0BF@IGIMLKNE@status?5not?5yet?5valid?$AA@ 00089400     libeay32:ocsp_err.obj
 0002:00018418       ??_C@_0P@HOCKGMFL@status?5expired?$AA@ 00089418     libeay32:ocsp_err.obj
 0002:00018428       ??_C@_0BC@FNMJPDOC@signature?5failure?$AA@ 00089428     libeay32:ocsp_err.obj
 0002:0001843c       ??_C@_0BD@GNOPIANF@server?5write?5error?$AA@ 0008943c     libeay32:ocsp_err.obj
 0002:00018450       ??_C@_0BM@PELFIJJH@server?5response?5parse?5error?$AA@ 00089450     libeay32:ocsp_err.obj
 0002:0001846c       ??_C@_0BG@HMMPALGI@server?5response?5error?$AA@ 0008946c     libeay32:ocsp_err.obj
 0002:00018484       ??_C@_0BC@IPNNFNEJ@server?5read?5error?$AA@ 00089484     libeay32:ocsp_err.obj
 0002:00018498       ??_C@_0BE@FPFBADPC@root?5ca?5not?5trusted?$AA@ 00089498     libeay32:ocsp_err.obj
 0002:000184ac       ??_C@_0CF@EOACFMGE@response?5contains?5no?5revocation?5@ 000894ac     libeay32:ocsp_err.obj
 0002:000184d4       ??_C@_0BD@NCDAPJKO@request?5not?5signed?$AA@ 000894d4     libeay32:ocsp_err.obj
 0002:000184e8       ??_C@_0BA@KBOGMBML@no?5revoked?5time?$AA@ 000894e8     libeay32:ocsp_err.obj
 0002:000184f8       ??_C@_0BB@GBCEEOG@no?5response?5data?$AA@ 000894f8     libeay32:ocsp_err.obj
 0002:0001850c       ??_C@_0BJ@PFPLJIP@no?5certificates?5in?5chain?$AA@ 0008950c     libeay32:ocsp_err.obj
 0002:00018528       ??_C@_0BD@BKKPMAGI@not?5basic?5response?$AA@ 00089528     libeay32:ocsp_err.obj
 0002:0001853c       ??_C@_0BN@MIEFPHNI@nextupdate?5before?5thisupdate?$AA@ 0008953c     libeay32:ocsp_err.obj
 0002:0001855c       ??_C@_0BK@CFIMGAGI@missing?5ocspsigning?5usage?$AA@ 0008955c     libeay32:ocsp_err.obj
 0002:00018578       ??_C@_0BC@FBBBNNOE@error?5parsing?5url?$AA@ 00089578     libeay32:ocsp_err.obj
 0002:0001858c       ??_C@_0BK@GDOEKJHF@error?5in?5thisupdate?5field?$AA@ 0008958c     libeay32:ocsp_err.obj
 0002:000185a8       ??_C@_0BK@NHIHEDGP@error?5in?5nextupdate?5field?$AA@ 000895a8     libeay32:ocsp_err.obj
 0002:000185c4       ??_C@_0L@DDPIMMLP@digest?5err?$AA@ 000895c4     libeay32:ocsp_err.obj
 0002:000185d0       ??_C@_08MPEBFEBH@bad?5data?$AA@ 000895d0     libeay32:ocsp_err.obj
 0002:000185dc       ??_C@_0P@EJFIFBBI@REQUEST_VERIFY?$AA@ 000895dc     libeay32:ocsp_err.obj
 0002:000185ec       ??_C@_0BB@PKOGPKEC@PARSE_HTTP_LINE1?$AA@ 000895ec     libeay32:ocsp_err.obj
 0002:00018600       ??_C@_0BC@EKOLHKDB@OCSP_sendreq_nbio?$AA@ 00089600     libeay32:ocsp_err.obj
 0002:00018614       ??_C@_0BB@PJALPLHC@OCSP_sendreq_bio?$AA@ 00089614     libeay32:ocsp_err.obj
 0002:00018628       ??_C@_0BJ@PJFNFKOP@OCSP_response_get1_basic?$AA@ 00089628     libeay32:ocsp_err.obj
 0002:00018644       ??_C@_0BE@OFJONHDE@OCSP_request_verify?$AA@ 00089644     libeay32:ocsp_err.obj
 0002:00018658       ??_C@_0BC@BOKGIJKF@OCSP_request_sign?$AA@ 00089658     libeay32:ocsp_err.obj
 0002:0001866c       ??_C@_0P@EGPIPMGP@OCSP_parse_url?$AA@ 0008966c     libeay32:ocsp_err.obj
 0002:0001867c       ??_C@_0BE@JIKJHJDO@OCSP_MATCH_ISSUERID?$AA@ 0008967c     libeay32:ocsp_err.obj
 0002:00018690       ??_C@_0BE@MFKONAMO@OCSP_check_validity?$AA@ 00089690     libeay32:ocsp_err.obj
 0002:000186a4       ??_C@_0BC@NGBDAEFF@OCSP_CHECK_ISSUER?$AA@ 000896a4     libeay32:ocsp_err.obj
 0002:000186b8       ??_C@_0P@DDGGJONL@OCSP_CHECK_IDS?$AA@ 000896b8     libeay32:ocsp_err.obj
 0002:000186c8       ??_C@_0BF@KOGHHGND@OCSP_CHECK_DELEGATED?$AA@ 000896c8     libeay32:ocsp_err.obj
 0002:000186e0       ??_C@_0BB@FDFOGFMH@OCSP_cert_id_new?$AA@ 000896e0     libeay32:ocsp_err.obj
 0002:000186f4       ??_C@_0BC@BKMFDAMH@OCSP_basic_verify?$AA@ 000896f4     libeay32:ocsp_err.obj
 0002:00018708       ??_C@_0BA@ENHCHJFD@OCSP_basic_sign?$AA@ 00089708     libeay32:ocsp_err.obj
 0002:00018718       ??_C@_0BH@GOAFBKBP@OCSP_basic_add1_status?$AA@ 00089718     libeay32:ocsp_err.obj
 0002:00018730       ??_C@_0P@MGFFHJND@D2I_OCSP_NONCE?$AA@ 00089730     libeay32:ocsp_err.obj
 0002:00018740       ??_C@_0BD@NPDGBE@ASN1_STRING_encode?$AA@ 00089740     libeay32:ocsp_err.obj
 0002:00018754       ??_C@_0BI@GMELFAKF@version?5incompatibility?$AA@ 00089754     libeay32:eng_err.obj
 0002:0001876c       ??_C@_0CA@OGBEJDPN@unimplemented?5public?5key?5method?$AA@ 0008976c     libeay32:eng_err.obj
 0002:0001878c       ??_C@_0BF@FHAJCIB@unimplemented?5digest?$AA@ 0008978c     libeay32:eng_err.obj
 0002:000187a4       ??_C@_0BF@KOIMEHAE@unimplemented?5cipher?$AA@ 000897a4     libeay32:eng_err.obj
 0002:000187bc       ??_C@_0BE@ICGIJGPJ@rsa?5not?5implemented?$AA@ 000897bc     libeay32:eng_err.obj
 0002:000187d0       ??_C@_0BD@OBEDCEHC@provide?5parameters?$AA@ 000897d0     libeay32:eng_err.obj
 0002:000187e4       ??_C@_0BD@BAMGBJCH@no?5unload?5function?$AA@ 000897e4     libeay32:eng_err.obj
 0002:000187f8       ??_C@_0P@MKGFOFPM@no?5such?5engine?$AA@ 000897f8     libeay32:eng_err.obj
 0002:00018808       ??_C@_0N@GNFMHGFB@no?5reference?$AA@ 00089808     libeay32:eng_err.obj
 0002:00018818       ??_C@_0BB@MEBKLLLP@no?5load?5function?$AA@ 00089818     libeay32:eng_err.obj
 0002:0001882c       ??_C@_08FPGGDHDD@no?5index?$AA@ 0008982c     libeay32:eng_err.obj
 0002:00018838       ??_C@_0BE@IBINMIII@no?5control?5function?$AA@ 00089838     libeay32:eng_err.obj
 0002:0001884c       ??_C@_0L@ICAFOIA@not?5loaded?$AA@ 0008984c     libeay32:eng_err.obj
 0002:00018858       ??_C@_0BA@FEBOOGFB@not?5initialised?$AA@ 00089858     libeay32:eng_err.obj
 0002:00018868       ??_C@_0P@JNPPPLLF@invalid?5string?$AA@ 00089868     libeay32:eng_err.obj
 0002:00018878       ??_C@_0BD@HIPFLJCP@invalid?5init?5value?$AA@ 00089878     libeay32:eng_err.obj
 0002:0001888c       ??_C@_0BD@PPGEIBJN@invalid?5cmd?5number?$AA@ 0008988c     libeay32:eng_err.obj
 0002:000188a0       ??_C@_0BB@CNFOOOPK@invalid?5cmd?5name?$AA@ 000898a0     libeay32:eng_err.obj
 0002:000188b4       ??_C@_0BB@FCMFBGOM@invalid?5argument?$AA@ 000898b4     libeay32:eng_err.obj
 0002:000188c8       ??_C@_0BE@OKODLAII@internal?5list?5error?$AA@ 000898c8     libeay32:eng_err.obj
 0002:000188dc       ??_C@_0M@MLCJFCMN@init?5failed?$AA@ 000898dc     libeay32:eng_err.obj
 0002:000188e8       ??_C@_0BH@HIGAMGCJ@?8id?8?5or?5?8name?8?5missing?$AA@ 000898e8     libeay32:eng_err.obj
 0002:00018900       ??_C@_0CB@LBPHDELA@could?5not?5obtain?5hardware?5handle@ 00089900     libeay32:eng_err.obj
 0002:00018924       ??_C@_0O@LLOFKFAE@finish?5failed?$AA@ 00089924     libeay32:eng_err.obj
 0002:00018934       ??_C@_0BK@OJHFAKGP@failed?5loading?5public?5key?$AA@ 00089934     libeay32:eng_err.obj
 0002:00018950       ??_C@_0BL@DPOFILLC@failed?5loading?5private?5key?$AA@ 00089950     libeay32:eng_err.obj
 0002:0001896c       ??_C@_0BF@NFOFDGOH@engine?5section?5error?$AA@ 0008996c     libeay32:eng_err.obj
 0002:00018984       ??_C@_0BK@OKABGIGB@engine?5is?5not?5in?5the?5list?$AA@ 00089984     libeay32:eng_err.obj
 0002:000189a0       ??_C@_0BL@PJMIFLBC@engine?5configuration?5error?$AA@ 000899a0     libeay32:eng_err.obj
 0002:000189bc       ??_C@_0BG@OGKPDNLL@engines?5section?5error?$AA@ 000899bc     libeay32:eng_err.obj
 0002:000189d4       ??_C@_0O@BBPECCFC@dso?5not?5found?$AA@ 000899d4     libeay32:eng_err.obj
 0002:000189e4       ??_C@_0M@OADBIJHF@DSO?5failure?$AA@ 000899e4     libeay32:eng_err.obj
 0002:000189f0       ??_C@_0BE@OGINKAAJ@dsa?5not?5implemented?$AA@ 000899f0     libeay32:eng_err.obj
 0002:00018a04       ??_C@_0BD@PDMGEBAD@dh?5not?5implemented?$AA@ 00089a04     libeay32:eng_err.obj
 0002:00018a18       ??_C@_0BN@NJGGMLOG@ctrl?5command?5not?5implemented?$AA@ 00089a18     libeay32:eng_err.obj
 0002:00018a38       ??_C@_0BG@FIAJIFFO@conflicting?5engine?5id?$AA@ 00089a38     libeay32:eng_err.obj
 0002:00018a50       ??_C@_0BH@KAPFONCA@command?5takes?5no?5input?$AA@ 00089a50     libeay32:eng_err.obj
 0002:00018a68       ??_C@_0BE@CMOMGKCM@command?5takes?5input?$AA@ 00089a68     libeay32:eng_err.obj
 0002:00018a7c       ??_C@_0BD@DHLDGNIM@cmd?5not?5executable?$AA@ 00089a7c     libeay32:eng_err.obj
 0002:00018a90       ??_C@_0BJ@MLKFDHJB@argument?5is?5not?5a?5number?$AA@ 00089a90     libeay32:eng_err.obj
 0002:00018aac       ??_C@_0P@BJJHFGDF@already?5loaded?$AA@ 00089aac     libeay32:eng_err.obj
 0002:00018abc       ??_C@_0M@KPAPOBEL@LOG_MESSAGE?$AA@ 00089abc     libeay32:eng_err.obj
 0002:00018ac8       ??_C@_0BH@NKOABKBJ@INT_ENGINE_MODULE_INIT?$AA@ 00089ac8     libeay32:eng_err.obj
 0002:00018ae0       ??_C@_0BF@KHKGEEDA@INT_ENGINE_CONFIGURE?$AA@ 00089ae0     libeay32:eng_err.obj
 0002:00018af8       ??_C@_0BA@NBOMGPDI@INT_CTRL_HELPER?$AA@ 00089af8     libeay32:eng_err.obj
 0002:00018b08       ??_C@_0O@GOAHGMDB@ENGINE_up_ref?$AA@ 00089b08     libeay32:eng_err.obj
 0002:00018b18       ??_C@_0BH@LANMBLCP@ENGINE_UNLOCKED_FINISH?$AA@ 00089b18     libeay32:eng_err.obj
 0002:00018b30       ??_C@_0BC@NNKOFPO@ENGINE_UNLOAD_KEY?$AA@ 00089b30     libeay32:eng_err.obj
 0002:00018b44       ??_C@_0BG@HEPKCBPA@ENGINE_TABLE_REGISTER?$AA@ 00089b44     libeay32:eng_err.obj
 0002:00018b5c       ??_C@_0BA@BBCLHLE@ENGINE_set_name?$AA@ 00089b5c     libeay32:eng_err.obj
 0002:00018b6c       ??_C@_0O@IBKJDIDD@ENGINE_set_id?$AA@ 00089b6c     libeay32:eng_err.obj
 0002:00018b7c       ??_C@_0BI@PCMFCKOJ@ENGINE_SET_DEFAULT_TYPE?$AA@ 00089b7c     libeay32:eng_err.obj
 0002:00018b94       ??_C@_0BK@CMIADBNF@ENGINE_set_default_string?$AA@ 00089b94     libeay32:eng_err.obj
 0002:00018bb0       ??_C@_0O@LEGEOLNJ@ENGINE_remove?$AA@ 00089bb0     libeay32:eng_err.obj
 0002:00018bc0       ??_C@_0L@DLEMNAIO@ENGINE_new?$AA@ 00089bc0     libeay32:eng_err.obj
 0002:00018bcc       ??_C@_0BM@OANOBGKF@ENGINE_load_ssl_client_cert?$AA@ 00089bcc     libeay32:eng_err.obj
 0002:00018be8       ??_C@_0BH@DNGJCACJ@ENGINE_load_public_key?$AA@ 00089be8     libeay32:eng_err.obj
 0002:00018c00       ??_C@_0BI@CBHILLDH@ENGINE_load_private_key?$AA@ 00089c00     libeay32:eng_err.obj
 0002:00018c18       ??_C@_0BD@LDGPIDHA@ENGINE_LIST_REMOVE?$AA@ 00089c18     libeay32:eng_err.obj
 0002:00018c2c       ??_C@_0BA@LJOOGOPL@ENGINE_LIST_ADD?$AA@ 00089c2c     libeay32:eng_err.obj
 0002:00018c3c       ??_C@_0M@DCPBILGO@ENGINE_init?$AA@ 00089c3c     libeay32:eng_err.obj
 0002:00018c48       ??_C@_0BA@CLOGFHB@ENGINE_get_prev?$AA@ 00089c48     libeay32:eng_err.obj
 0002:00018c58       ??_C@_0BF@KNMJNENJ@ENGINE_get_pkey_meth?$AA@ 00089c58     libeay32:eng_err.obj
 0002:00018c70       ??_C@_0BK@FIIKCJLD@ENGINE_get_pkey_asn1_meth?$AA@ 00089c70     libeay32:eng_err.obj
 0002:00018c8c       ??_C@_0BA@DGGIHBBF@ENGINE_get_next?$AA@ 00089c8c     libeay32:eng_err.obj
 0002:00018c9c       ??_C@_0BC@NEPEFELB@ENGINE_get_digest?$AA@ 00089c9c     libeay32:eng_err.obj
 0002:00018cb0       ??_C@_0BI@JGJMJEFL@ENGINE_GET_DEFAULT_TYPE?$AA@ 00089cb0     libeay32:eng_err.obj
 0002:00018cc8       ??_C@_0BC@HPAIIBDE@ENGINE_get_cipher?$AA@ 00089cc8     libeay32:eng_err.obj
 0002:00018cdc       ??_C@_0BB@PJHBNDMO@ENGINE_FREE_UTIL?$AA@ 00089cdc     libeay32:eng_err.obj
 0002:00018cf0       ??_C@_0O@IBJJAKNF@ENGINE_finish?$AA@ 00089cf0     libeay32:eng_err.obj
 0002:00018d00       ??_C@_0BH@IEMBPIBJ@ENGINE_ctrl_cmd_string?$AA@ 00089d00     libeay32:eng_err.obj
 0002:00018d18       ??_C@_0BA@NDKOOMLF@ENGINE_ctrl_cmd?$AA@ 00089d18     libeay32:eng_err.obj
 0002:00018d28       ??_C@_0M@NFINPAPM@ENGINE_ctrl?$AA@ 00089d28     libeay32:eng_err.obj
 0002:00018d34       ??_C@_0BJ@HKGBPGOI@ENGINE_cmd_is_executable?$AA@ 00089d34     libeay32:eng_err.obj
 0002:00018d50       ??_C@_0N@NCBADPHI@ENGINE_by_id?$AA@ 00089d50     libeay32:eng_err.obj
 0002:00018d60       ??_C@_0L@DACOLHN@ENGINE_add?$AA@ 00089d60     libeay32:eng_err.obj
 0002:00018d6c       ??_C@_0BF@CMDFGLLL@DYNAMIC_SET_DATA_CTX?$AA@ 00089d6c     libeay32:eng_err.obj
 0002:00018d84       ??_C@_0N@PDCGAECP@DYNAMIC_LOAD?$AA@ 00089d84     libeay32:eng_err.obj
 0002:00018d94       ??_C@_0BF@FIILKHPH@DYNAMIC_GET_DATA_CTX?$AA@ 00089d94     libeay32:eng_err.obj
 0002:00018dac       ??_C@_0N@CANHNEEB@DYNAMIC_CTRL?$AA@ 00089dac     libeay32:eng_err.obj
 0002:00018dbc       ??_C@_0BD@ONLLMKAC@wrong?5content?5type?$AA@ 00089dbc     libeay32:ts_err.obj
 0002:00018dd0       ??_C@_0BE@GIHMIKOK@unsupported?5version?$AA@ 00089dd0     libeay32:ts_err.obj
 0002:00018de4       ??_C@_0BJ@EEKKMNJN@unsupported?5md?5algorithm?$AA@ 00089de4     libeay32:ts_err.obj
 0002:00018e00       ??_C@_0BE@BGDLMDPE@unacceptable?5policy?$AA@ 00089e00     libeay32:ts_err.obj
 0002:00018e14       ??_C@_0M@DAAFFGJ@ts?5datasign?$AA@ 00089e14     libeay32:ts_err.obj
 0002:00018e20       ??_C@_0BF@DKJELPOK@tst?5info?5setup?5error?$AA@ 00089e20     libeay32:ts_err.obj
 0002:00018e38       ??_C@_0O@HGLDNJNA@tsa?5untrusted?$AA@ 00089e38     libeay32:ts_err.obj
 0002:00018e48       ??_C@_0BC@JCDOLPAM@tsa?5name?5mismatch?$AA@ 00089e48     libeay32:ts_err.obj
 0002:00018e5c       ??_C@_0O@PFJGPIJM@token?5present?$AA@ 00089e5c     libeay32:ts_err.obj
 0002:00018e6c       ??_C@_0BC@ECEKKIAN@token?5not?5present?$AA@ 00089e6c     libeay32:ts_err.obj
 0002:00018e80       ??_C@_0BD@LIIGNAIL@time?5syscall?5error?$AA@ 00089e80     libeay32:ts_err.obj
 0002:00018e94       ??_C@_0BJ@IMMKNIA@there?5must?5be?5one?5signer?$AA@ 00089e94     libeay32:ts_err.obj
 0002:00018eb0       ??_C@_0BF@HELKGHLI@response?5setup?5error?$AA@ 00089eb0     libeay32:ts_err.obj
 0002:00018ec8       ??_C@_0BA@MMPMGIJA@policy?5mismatch?$AA@ 00089ec8     libeay32:ts_err.obj
 0002:00018ed8       ??_C@_0BM@OPFHKDNL@pkcs7?5to?5ts?5tst?5info?5failed?$AA@ 00089ed8     libeay32:ts_err.obj
 0002:00018ef4       ??_C@_0BM@HMEEBAGP@pkcs7?5add?5signed?5attr?5error?$AA@ 00089ef4     libeay32:ts_err.obj
 0002:00018f10       ??_C@_0BK@HFMOMPGJ@pkcs7?5add?5signature?5error?$AA@ 00089f10     libeay32:ts_err.obj
 0002:00018f2c       ??_C@_0BE@HKGKNPBO@no?5time?5stamp?5token?$AA@ 00089f2c     libeay32:ts_err.obj
 0002:00018f40       ??_C@_0BD@OIKCHNFI@nonce?5not?5returned?$AA@ 00089f40     libeay32:ts_err.obj
 0002:00018f54       ??_C@_0P@DEPHDNFM@nonce?5mismatch?$AA@ 00089f54     libeay32:ts_err.obj
 0002:00018f64       ??_C@_0BJ@NEMHGAK@message?5imprint?5mismatch?$AA@ 00089f64     libeay32:ts_err.obj
 0002:00018f80       ??_C@_0CD@JMDGIOD@invalid?5signer?5certificate?5purpo@ 00089f80     libeay32:ts_err.obj
 0002:00018fa4       ??_C@_0BF@IPGLAOPL@invalid?5null?5pointer?$AA@ 00089fa4     libeay32:ts_err.obj
 0002:00018fbc       ??_C@_0BO@LOJEHLMB@ess?5signing?5certificate?5error?$AA@ 00089fbc     libeay32:ts_err.obj
 0002:00018fdc       ??_C@_0BL@IDONJCGG@ess?5add?5signing?5cert?5error?$AA@ 00089fdc     libeay32:ts_err.obj
 0002:00018ff8       ??_C@_0BB@BGNKKBKP@detached?5content?$AA@ 00089ff8     libeay32:ts_err.obj
 0002:0001900c       ??_C@_0BH@PGKJHEIC@d2i?5ts?5resp?5int?5failed?$AA@ 0008a00c     libeay32:ts_err.obj
 0002:00019024       ??_C@_0BD@EOEPMDF@could?5not?5set?5time?$AA@ 0008a024     libeay32:ts_err.obj
 0002:00019038       ??_C@_0BF@JADDABHG@could?5not?5set?5engine?$AA@ 0008a038     libeay32:ts_err.obj
 0002:00019050       ??_C@_08FJGJNBDN@bad?5type?$AA@ 0008a050     libeay32:ts_err.obj
 0002:0001905c       ??_C@_0P@KJFPELCC@bad?5pkcs7?5type?$AA@ 0008a05c     libeay32:ts_err.obj
 0002:0001906c       ??_C@_0BC@PMKDCJPB@TS_VERIFY_CTX_new?$AA@ 0008a06c     libeay32:ts_err.obj
 0002:00019080       ??_C@_0P@EEMBONBH@TS_VERIFY_CERT?$AA@ 0008a080     libeay32:ts_err.obj
 0002:00019090       ??_C@_09MPGCPGED@TS_VERIFY?$AA@ 0008a090     libeay32:ts_err.obj
 0002:0001909c       ??_C@_0BE@FJAAKDDK@TS_TST_INFO_set_tsa?$AA@ 0008a09c     libeay32:ts_err.obj
 0002:000190b0       ??_C@_0BF@OIGBAIGM@TS_TST_INFO_set_time?$AA@ 0008a0b0     libeay32:ts_err.obj
 0002:000190c8       ??_C@_0BH@FNMNIAFK@TS_TST_INFO_set_serial?$AA@ 0008a0c8     libeay32:ts_err.obj
 0002:000190e0       ??_C@_0BK@JIGEGHPI@TS_TST_INFO_set_policy_id?$AA@ 0008a0e0     libeay32:ts_err.obj
 0002:000190fc       ??_C@_0BG@GHFDNEJI@TS_TST_INFO_set_nonce?$AA@ 0008a0fc     libeay32:ts_err.obj
 0002:00019114       ??_C@_0BM@IEMIMIPL@TS_TST_INFO_set_msg_imprint?$AA@ 0008a114     libeay32:ts_err.obj
 0002:00019130       ??_C@_0BJ@DNEONPJA@TS_TST_INFO_set_accuracy?$AA@ 0008a130     libeay32:ts_err.obj
 0002:0001914c       ??_C@_0BF@OIPDEICC@TS_RESP_verify_token?$AA@ 0008a14c     libeay32:ts_err.obj
 0002:00019164       ??_C@_0BJ@MPIGMHBH@TS_RESP_verify_signature?$AA@ 0008a164     libeay32:ts_err.obj
 0002:00019180       ??_C@_0N@DHNLKJGL@TS_RESP_SIGN?$AA@ 0008a180     libeay32:ts_err.obj
 0002:00019190       ??_C@_0BF@GIGAKHCL@TS_RESP_set_tst_info?$AA@ 0008a190     libeay32:ts_err.obj
 0002:000191a8       ??_C@_0BI@PAICHCKE@TS_RESP_set_status_info?$AA@ 0008a1a8     libeay32:ts_err.obj
 0002:000191c0       ??_C@_0CD@CANHJHD@TS_RESP_SET_GENTIME_WITH_PRECISI@ 0008a1c0     libeay32:ts_err.obj
 0002:000191e4       ??_C@_0BD@FBFLPBEA@TS_RESP_GET_POLICY?$AA@ 0008a1e4     libeay32:ts_err.obj
 0002:000191f8       ??_C@_0BM@CPPAEEJK@TS_RESP_CTX_set_status_info?$AA@ 0008a1f8     libeay32:ts_err.obj
 0002:00019214       ??_C@_0BM@ILAGBAPH@TS_RESP_CTX_set_signer_cert?$AA@ 0008a214     libeay32:ts_err.obj
 0002:00019230       ??_C@_0BL@MIMGPLHO@TS_RESP_CTX_set_def_policy?$AA@ 0008a230     libeay32:ts_err.obj
 0002:0001924c       ??_C@_0BG@OAIBOLBJ@TS_RESP_CTX_set_certs?$AA@ 0008a24c     libeay32:ts_err.obj
 0002:00019264       ??_C@_0BJ@NMDIGKEA@TS_RESP_CTX_set_accuracy?$AA@ 0008a264     libeay32:ts_err.obj
 0002:00019280       ??_C@_0BA@KGPIMJJ@TS_RESP_CTX_new?$AA@ 0008a280     libeay32:ts_err.obj
 0002:00019290       ??_C@_0BH@LJMGBPDF@TS_RESP_CTX_add_policy?$AA@ 0008a290     libeay32:ts_err.obj
 0002:000192a8       ??_C@_0BD@HAFNIPMB@TS_RESP_CTX_add_md?$AA@ 0008a2a8     libeay32:ts_err.obj
 0002:000192bc       ??_C@_0BN@CABIECM@TS_RESP_CTX_add_failure_info?$AA@ 0008a2bc     libeay32:ts_err.obj
 0002:000192dc       ??_C@_0BI@KGLLIOBM@TS_RESP_CREATE_TST_INFO?$AA@ 0008a2dc     libeay32:ts_err.obj
 0002:000192f4       ??_C@_0BI@DECHCDBG@TS_RESP_create_response?$AA@ 0008a2f4     libeay32:ts_err.obj
 0002:0001930c       ??_C@_0BF@PKANHDDJ@TS_REQ_set_policy_id?$AA@ 0008a30c     libeay32:ts_err.obj
 0002:00019324       ??_C@_0BB@EIKDIEGN@TS_REQ_set_nonce?$AA@ 0008a324     libeay32:ts_err.obj
 0002:00019338       ??_C@_0BH@EMPDJIOA@TS_REQ_set_msg_imprint?$AA@ 0008a338     libeay32:ts_err.obj
 0002:00019350       ??_C@_0BI@BMLOACLP@TS_MSG_IMPRINT_set_algo?$AA@ 0008a350     libeay32:ts_err.obj
 0002:00019368       ??_C@_0BD@KIAIHHOF@TS_GET_STATUS_TEXT?$AA@ 0008a368     libeay32:ts_err.obj
 0002:0001937c       ??_C@_0BL@KPDHBLEH@TS_CONF_set_default_engine?$AA@ 0008a37c     libeay32:ts_err.obj
 0002:00019398       ??_C@_0BD@KALPCPNC@TS_COMPUTE_IMPRINT?$AA@ 0008a398     libeay32:ts_err.obj
 0002:000193ac       ??_C@_0BF@DCHLKMIF@TS_CHECK_STATUS_INFO?$AA@ 0008a3ac     libeay32:ts_err.obj
 0002:000193c4       ??_C@_0BH@KBPIGHCA@TS_CHECK_SIGNING_CERTS?$AA@ 0008a3c4     libeay32:ts_err.obj
 0002:000193dc       ??_C@_0BA@GKENKOMJ@TS_CHECK_POLICY?$AA@ 0008a3dc     libeay32:ts_err.obj
 0002:000193ec       ??_C@_0BA@LGLDGOGG@TS_CHECK_NONCES?$AA@ 0008a3ec     libeay32:ts_err.obj
 0002:000193fc       ??_C@_0BC@NNCCIAGM@TS_CHECK_IMPRINTS?$AA@ 0008a3fc     libeay32:ts_err.obj
 0002:00019410       ??_C@_0BI@HCHFFCAB@TS_ACCURACY_set_seconds?$AA@ 0008a410     libeay32:ts_err.obj
 0002:00019428       ??_C@_0BH@GLDDCJIE@TS_ACCURACY_set_millis?$AA@ 0008a428     libeay32:ts_err.obj
 0002:00019440       ??_C@_0BH@FNCIOCEL@TS_ACCURACY_set_micros?$AA@ 0008a440     libeay32:ts_err.obj
 0002:00019458       ??_C@_0BF@NEHHPIJO@PKCS7_to_TS_TST_INFO?$AA@ 0008a458     libeay32:ts_err.obj
 0002:00019470       ??_C@_0BJ@FPCBNLKF@INT_TS_RESP_VERIFY_TOKEN?$AA@ 0008a470     libeay32:ts_err.obj
 0002:0001948c       ??_C@_0BK@JMEMFCFA@ESS_SIGNING_CERT_NEW_INIT?$AA@ 0008a48c     libeay32:ts_err.obj
 0002:000194a8       ??_C@_0BF@COCNPBNI@ESS_CERT_ID_NEW_INIT?$AA@ 0008a4a8     libeay32:ts_err.obj
 0002:000194c0       ??_C@_0BF@GFPKILJC@ESS_ADD_SIGNING_CERT?$AA@ 0008a4c0     libeay32:ts_err.obj
 0002:000194d8       ??_C@_0M@COMIPLAF@DEF_TIME_CB?$AA@ 0008a4d8     libeay32:ts_err.obj
 0002:000194e4       ??_C@_0O@JIKHDFOB@DEF_SERIAL_CB?$AA@ 0008a4e4     libeay32:ts_err.obj
 0002:000194f4       ??_C@_0M@FLLAHAAK@d2i_TS_RESP?$AA@ 0008a4f4     libeay32:ts_err.obj
 0002:00019500       ??_C@_0BM@LHLEOIGK@functionality?5not?5supported?$AA@ 0008a500     libeay32:dso_err.obj
 0002:0001951c       ??_C@_0CE@FOMJAKIK@could?5not?5unload?5the?5shared?5libr@ 0008a51c     libeay32:dso_err.obj
 0002:00019540       ??_C@_0CM@JGGNADOB@could?5not?5bind?5to?5the?5requested?5@ 0008a540     libeay32:dso_err.obj
 0002:0001956c       ??_C@_0BP@PIEGKEEJ@the?5meth_data?5stack?5is?5corrupt?$AA@ 0008a56c     libeay32:dso_err.obj
 0002:0001958c       ??_C@_0BE@NIHPFFEI@set?5filename?5failed?$AA@ 0008a58c     libeay32:dso_err.obj
 0002:000195a0       ??_C@_0CG@BNDBJOHD@a?5null?5shared?5library?5handle?5was@ 0008a5a0     libeay32:dso_err.obj
 0002:000195c8       ??_C@_0BG@DMKAPHFP@no?5file?5specification?$AA@ 0008a5c8     libeay32:dso_err.obj
 0002:000195e0       ??_C@_0M@MANHICLF@no?5filename?$AA@ 0008a5e0     libeay32:dso_err.obj
 0002:000195ec       ??_C@_0BI@CMDMEMFB@name?5translation?5failed?$AA@ 0008a5ec     libeay32:dso_err.obj
 0002:00019604       ??_C@_0CC@FFDOFDDH@could?5not?5load?5the?5shared?5librar@ 0008a604     libeay32:dso_err.obj
 0002:00019628       ??_C@_0BG@NKEINIBP@incorrect?5file?5syntax?$AA@ 0008a628     libeay32:dso_err.obj
 0002:00019640       ??_C@_0BP@OLOPAJM@cleanup?5method?5function?5failed?$AA@ 0008a640     libeay32:dso_err.obj
 0002:00019660       ??_C@_0BB@PBMBADNF@filename?5too?5big?$AA@ 0008a660     libeay32:dso_err.obj
 0002:00019674       ??_C@_07MBLPHJFH@failure?$AA@ 0008a674     libeay32:dso_err.obj
 0002:0001967c       ??_C@_0BF@PAMEGLNL@empty?5file?5structure?$AA@ 0008a67c     libeay32:dso_err.obj
 0002:00019694       ??_C@_0BD@BHBOFNOP@dso?5already?5loaded?$AA@ 0008a694     libeay32:dso_err.obj
 0002:000196a8       ??_C@_0BH@OOCPFGMG@control?5command?5failed?$AA@ 0008a6a8     libeay32:dso_err.obj
 0002:000196c0       ??_C@_0N@FNAFDKAA@WIN32_UNLOAD?$AA@ 0008a6c0     libeay32:dso_err.obj
 0002:000196d0       ??_C@_0P@MLLACKJ@WIN32_SPLITTER?$AA@ 0008a6d0     libeay32:dso_err.obj
 0002:000196e0       ??_C@_0BB@NMILAIHE@WIN32_PATHBYADDR?$AA@ 0008a6e0     libeay32:dso_err.obj
 0002:000196f4       ??_C@_0BF@KDGOAHDK@WIN32_NAME_CONVERTER?$AA@ 0008a6f4     libeay32:dso_err.obj
 0002:0001970c       ??_C@_0N@GCAGAEGN@WIN32_MERGER?$AA@ 0008a70c     libeay32:dso_err.obj
 0002:0001971c       ??_C@_0L@MDFNLIFJ@WIN32_LOAD?$AA@ 0008a71c     libeay32:dso_err.obj
 0002:00019728       ??_C@_0N@GMACPAJM@WIN32_JOINER?$AA@ 0008a728     libeay32:dso_err.obj
 0002:00019738       ??_C@_0BI@IBLPJFIL@WIN32_GLOBALLOOKUP_FUNC?$AA@ 0008a738     libeay32:dso_err.obj
 0002:00019750       ??_C@_0BD@EGNJAOD@WIN32_GLOBALLOOKUP?$AA@ 0008a750     libeay32:dso_err.obj
 0002:00019764       ??_C@_0P@CFCFCNCK@WIN32_BIND_VAR?$AA@ 0008a764     libeay32:dso_err.obj
 0002:00019774       ??_C@_0BA@KKGNPNGD@WIN32_BIND_FUNC?$AA@ 0008a774     libeay32:dso_err.obj
 0002:00019784       ??_C@_0L@FHGIHEGE@VMS_UNLOAD?$AA@ 0008a784     libeay32:dso_err.obj
 0002:00019790       ??_C@_0L@GIGLEKAJ@VMS_MERGER?$AA@ 0008a790     libeay32:dso_err.obj
 0002:0001979c       ??_C@_08POPKNNEM@VMS_LOAD?$AA@ 0008a79c     libeay32:dso_err.obj
 0002:000197a8       ??_C@_0N@FNGBOJBH@VMS_BIND_SYM?$AA@ 0008a7a8     libeay32:dso_err.obj
 0002:000197b8       ??_C@_0L@DOJGKPLN@PATHBYADDR?$AA@ 0008a7b8     libeay32:dso_err.obj
 0002:000197c4       ??_C@_0BD@IKENGPMB@GLOBAL_LOOKUP_FUNC?$AA@ 0008a7c4     libeay32:dso_err.obj
 0002:000197d8       ??_C@_0L@JOFLDDCD@DSO_up_ref?$AA@ 0008a7d8     libeay32:dso_err.obj
 0002:000197e4       ??_C@_0BH@HJLMMDGG@DSO_set_name_converter?$AA@ 0008a7e4     libeay32:dso_err.obj
 0002:000197fc       ??_C@_0BB@KOOHGFJP@DSO_set_filename?$AA@ 0008a7fc     libeay32:dso_err.obj
 0002:00019810       ??_C@_0P@PLFANOCN@DSO_pathbyaddr?$AA@ 0008a810     libeay32:dso_err.obj
 0002:00019820       ??_C@_0P@MIPJLIEO@DSO_new_method?$AA@ 0008a820     libeay32:dso_err.obj
 0002:00019830       ??_C@_09JEEHMKBG@DSO_merge?$AA@ 0008a830     libeay32:dso_err.obj
 0002:0001983c       ??_C@_08HJLJIAGA@DSO_load?$AA@ 0008a83c     libeay32:dso_err.obj
 0002:00019848       ??_C@_0BC@FCGODICD@DSO_global_lookup?$AA@ 0008a848     libeay32:dso_err.obj
 0002:0001985c       ??_C@_0BI@BHCPJBAG@DSO_get_loaded_filename?$AA@ 0008a85c     libeay32:dso_err.obj
 0002:00019874       ??_C@_0BB@NKFJKJND@DSO_get_filename?$AA@ 0008a874     libeay32:dso_err.obj
 0002:00019888       ??_C@_08IPGIIOBO@DSO_free?$AA@ 0008a888     libeay32:dso_err.obj
 0002:00019894       ??_C@_08KKEIFAAO@DSO_ctrl?$AA@ 0008a894     libeay32:dso_err.obj
 0002:000198a0       ??_C@_0BF@LACAGLOM@DSO_convert_filename?$AA@ 0008a8a0     libeay32:dso_err.obj
 0002:000198b8       ??_C@_0N@JOCDIPCP@DSO_bind_var?$AA@ 0008a8b8     libeay32:dso_err.obj
 0002:000198c8       ??_C@_0O@EPDICLOM@DSO_bind_func?$AA@ 0008a8c8     libeay32:dso_err.obj
 0002:000198d8       ??_C@_09MAACBMPD@DL_UNLOAD?$AA@ 0008a8d8     libeay32:dso_err.obj
 0002:000198e4       ??_C@_0BC@EKHEMLCM@DL_NAME_CONVERTER?$AA@ 0008a8e4     libeay32:dso_err.obj
 0002:000198f8       ??_C@_09PPABCCJO@DL_MERGER?$AA@ 0008a8f8     libeay32:dso_err.obj
 0002:00019904       ??_C@_07PCEANJHL@DL_LOAD?$AA@ 0008a904     libeay32:dso_err.obj
 0002:0001990c       ??_C@_0M@MILJIHKO@DL_BIND_VAR?$AA@ 0008a90c     libeay32:dso_err.obj
 0002:00019918       ??_C@_0N@EAFFCGPA@DL_BIND_FUNC?$AA@ 0008a918     libeay32:dso_err.obj
 0002:00019928       ??_C@_0N@JGHGNDBI@DLFCN_UNLOAD?$AA@ 0008a928     libeay32:dso_err.obj
 0002:00019938       ??_C@_0BF@IJHLGIMF@DLFCN_NAME_CONVERTER?$AA@ 0008a938     libeay32:dso_err.obj
 0002:00019950       ??_C@_0N@KJHFONHF@DLFCN_MERGER?$AA@ 0008a950     libeay32:dso_err.obj
 0002:00019960       ??_C@_0L@COCAFIAA@DLFCN_LOAD?$AA@ 0008a960     libeay32:dso_err.obj
 0002:0001996c       ??_C@_0P@HOOICENM@DLFCN_BIND_VAR?$AA@ 0008a96c     libeay32:dso_err.obj
 0002:0001997c       ??_C@_0BA@POOIGHED@DLFCN_BIND_FUNC?$AA@ 0008a97c     libeay32:dso_err.obj
 0002:0001998c       ??_C@_0M@KIIDFIHP@BEOS_UNLOAD?$AA@ 0008a98c     libeay32:dso_err.obj
 0002:00019998       ??_C@_0BE@ICAKPBCC@BEOS_NAME_CONVERTER?$AA@ 0008a998     libeay32:dso_err.obj
 0002:000199ac       ??_C@_09LGFOAPMA@BEOS_LOAD?$AA@ 0008a9ac     libeay32:dso_err.obj
 0002:000199b8       ??_C@_0O@CODOLNOB@BEOS_BIND_VAR?$AA@ 0008a9b8     libeay32:dso_err.obj
 0002:000199c8       ??_C@_0P@KGNAPNML@BEOS_BIND_FUNC?$AA@ 0008a9c8     libeay32:dso_err.obj
 0002:000199d8       ??_C@_0BA@PGDKLOAF@PRNG?5not?5seeded?$AA@ 0008a9d8     libeay32:rand_err.obj
 0002:000199e8       ??_C@_0BK@DNJBBHNJ@no?5fips?5random?5method?5set?$AA@ 0008a9e8     libeay32:rand_err.obj
 0002:00019a04       ??_C@_0BJ@EEMAPNFK@error?5instantiating?5drbg?$AA@ 0008aa04     libeay32:rand_err.obj
 0002:00019a20       ??_C@_0BI@FBCLCKDG@error?5initialising?5drbg?$AA@ 0008aa20     libeay32:rand_err.obj
 0002:00019a38       ??_C@_0BC@HICMDCDB@SSLEAY_RAND_BYTES?$AA@ 0008aa38     libeay32:rand_err.obj
 0002:00019a4c       ??_C@_0P@NOHKHPEN@RAND_init_fips?$AA@ 0008aa4c     libeay32:rand_err.obj
 0002:00019a5c       ??_C@_0BF@CAFGGGED@RAND_get_rand_method?$AA@ 0008aa5c     libeay32:rand_err.obj
 0002:00019a74       ??_C@_0BI@EEIECHAF@unsupported?5pkcs12?5mode?$AA@ 0008aa74     libeay32:pk12err.obj
 0002:00019a8c       ??_C@_0BJ@OKONMLMC@unknown?5digest?5algorithm?$AA@ 0008aa8c     libeay32:pk12err.obj
 0002:00019aa8       ??_C@_0BH@KFJJFPGN@pkcs12?5pbe?5crypt?5error?$AA@ 0008aaa8     libeay32:pk12err.obj
 0002:00019ac0       ??_C@_0BJ@BKJAONNI@pkcs12?5cipherfinal?5error?$AA@ 0008aac0     libeay32:pk12err.obj
 0002:00019adc       ??_C@_0BO@BBFFHMLJ@pkcs12?5algor?5cipherinit?5error?$AA@ 0008aadc     libeay32:pk12err.obj
 0002:00019afc       ??_C@_0M@BJIBBOFC@parse?5error?$AA@ 0008aafc     libeay32:pk12err.obj
 0002:00019b08       ??_C@_0BD@GOKMGMNC@mac?5verify?5failure?$AA@ 0008ab08     libeay32:pk12err.obj
 0002:00019b1c       ??_C@_0BB@GIFNFEPC@mac?5verify?5error?$AA@ 0008ab1c     libeay32:pk12err.obj
 0002:00019b30       ??_C@_0BF@JMCFJAMN@mac?5string?5set?5error?$AA@ 0008ab30     libeay32:pk12err.obj
 0002:00019b48       ??_C@_0BA@ILPLLEEK@mac?5setup?5error?$AA@ 0008ab48     libeay32:pk12err.obj
 0002:00019b58       ??_C@_0BF@NKGPIEMN@mac?5generation?5error?$AA@ 0008ab58     libeay32:pk12err.obj
 0002:00019b70       ??_C@_0L@HOOIALKD@mac?5absent?$AA@ 0008ab70     libeay32:pk12err.obj
 0002:00019b7c       ??_C@_0O@KKIOONMM@key?5gen?5error?$AA@ 0008ab7c     libeay32:pk12err.obj
 0002:00019b8c       ??_C@_0N@FPIKEAMH@iv?5gen?5error?$AA@ 0008ab8c     libeay32:pk12err.obj
 0002:00019b9c       ??_C@_0BM@HJIDLEHH@invalid?5null?5pkcs12?5pointer?$AA@ 0008ab9c     libeay32:pk12err.obj
 0002:00019bb8       ??_C@_0BG@HMFEKIEC@invalid?5null?5argument?$AA@ 0008abb8     libeay32:pk12err.obj
 0002:00019bd0       ??_C@_0CC@OLHMBGOD@error?5setting?5encrypted?5data?5typ@ 0008abd0     libeay32:pk12err.obj
 0002:00019bf4       ??_C@_0O@HCGKPNBB@encrypt?5error?$AA@ 0008abf4     libeay32:pk12err.obj
 0002:00019c04       ??_C@_0N@NJEIFFDB@encode?5error?$AA@ 0008ac04     libeay32:pk12err.obj
 0002:00019c14       ??_C@_0N@HFEMCILK@decode?5error?$AA@ 0008ac14     libeay32:pk12err.obj
 0002:00019c24       ??_C@_0BG@NAJKFFBP@content?5type?5not?5data?$AA@ 0008ac24     libeay32:pk12err.obj
 0002:00019c3c       ??_C@_0BE@DIFPEDMB@cant?5pack?5structure?$AA@ 0008ac3c     libeay32:pk12err.obj
 0002:00019c50       ??_C@_0O@GEAAJNGL@PKCS8_encrypt?$AA@ 0008ac50     libeay32:pk12err.obj
 0002:00019c60       ??_C@_0BD@PNOACOKG@PKCS8_add_keyusage?$AA@ 0008ac60     libeay32:pk12err.obj
 0002:00019c74       ??_C@_0BC@ODGOFFJK@PKCS12_verify_mac?$AA@ 0008ac74     libeay32:pk12err.obj
 0002:00019c88       ??_C@_0BF@PGHHFMGC@PKCS12_unpack_p7data?$AA@ 0008ac88     libeay32:pk12err.obj
 0002:00019ca0       ??_C@_0BI@LFBOHEJ@PKCS12_unpack_authsafes?$AA@ 0008aca0     libeay32:pk12err.obj
 0002:00019cb8       ??_C@_0P@NELHLNIA@PKCS12_set_mac?$AA@ 0008acb8     libeay32:pk12err.obj
 0002:00019cc8       ??_C@_0BB@KDNNBMPN@PKCS12_setup_mac?$AA@ 0008acc8     libeay32:pk12err.obj
 0002:00019cdc       ??_C@_0BE@IOEGDAJO@PKCS12_PBE_keyivgen?$AA@ 0008acdc     libeay32:pk12err.obj
 0002:00019cf0       ??_C@_0BB@IMFIILMJ@PKCS12_pbe_crypt?$AA@ 0008acf0     libeay32:pk12err.obj
 0002:00019d04       ??_C@_0N@KODNLEFI@PKCS12_parse?$AA@ 0008ad04     libeay32:pk12err.obj
 0002:00019d14       ??_C@_0BG@GJBJGPGL@PKCS12_pack_p7encdata?$AA@ 0008ad14     libeay32:pk12err.obj
 0002:00019d2c       ??_C@_0BD@CKGFANON@PKCS12_pack_p7data?$AA@ 0008ad2c     libeay32:pk12err.obj
 0002:00019d40       ??_C@_0P@OJLKIJPG@PKCS12_newpass?$AA@ 0008ad40     libeay32:pk12err.obj
 0002:00019d50       ??_C@_0BF@NOJGELOL@PKCS12_MAKE_SHKEYBAG?$AA@ 0008ad50     libeay32:pk12err.obj
 0002:00019d68       ??_C@_0BD@NGAACKBP@PKCS12_MAKE_KEYBAG?$AA@ 0008ad68     libeay32:pk12err.obj
 0002:00019d7c       ??_C@_0BD@DMMKPAAN@PKCS12_key_gen_uni?$AA@ 0008ad7c     libeay32:pk12err.obj
 0002:00019d90       ??_C@_0BD@NKAOIGM@PKCS12_key_gen_asc?$AA@ 0008ad90     libeay32:pk12err.obj
 0002:00019da4       ??_C@_0BJ@KMABOEKC@PKCS12_item_pack_safebag?$AA@ 0008ada4     libeay32:pk12err.obj
 0002:00019dc0       ??_C@_0BI@HHFDKLOA@PKCS12_item_i2d_encrypt?$AA@ 0008adc0     libeay32:pk12err.obj
 0002:00019dd8       ??_C@_0BI@DMGNLMLF@PKCS12_item_decrypt_d2i?$AA@ 0008add8     libeay32:pk12err.obj
 0002:00019df0       ??_C@_0M@LLKHLIMM@PKCS12_init?$AA@ 0008adf0     libeay32:pk12err.obj
 0002:00019dfc       ??_C@_0P@IOALKDKM@PKCS12_gen_mac?$AA@ 0008adfc     libeay32:pk12err.obj
 0002:00019e0c       ??_C@_0O@JLNEJADH@PKCS12_create?$AA@ 0008ae0c     libeay32:pk12err.obj
 0002:00019e1c       ??_C@_0BG@MCOKGJI@PKCS12_add_localkeyid?$AA@ 0008ae1c     libeay32:pk12err.obj
 0002:00019e34       ??_C@_0BM@DMPHEEM@PKCS12_add_friendlyname_uni?$AA@ 0008ae34     libeay32:pk12err.obj
 0002:00019e50       ??_C@_0BM@DCKFGMCN@PKCS12_add_friendlyname_asc?$AA@ 0008ae50     libeay32:pk12err.obj
 0002:00019e6c       ??_C@_0BI@NGMPLJFF@PKCS12_ADD_FRIENDLYNAME?$AA@ 0008ae6c     libeay32:pk12err.obj
 0002:00019e84       ??_C@_0L@BEIACDCD@PARSE_BAGS?$AA@ 0008ae84     libeay32:pk12err.obj
 0002:00019e90       ??_C@_09HDBNGMFC@PARSE_BAG?$AA@ 0008ae90     libeay32:pk12err.obj
 0002:00019e9c       ??_C@_0O@JHPAMHAH@user?5too?5long?$AA@ 0008ae9c     libeay32:v3err.obj
 0002:00019eac       ??_C@_0BD@HBMBLBA@unsupported?5option?$AA@ 0008aeac     libeay32:v3err.obj
 0002:00019ec0       ??_C@_0P@EMNDFJHN@unknown?5option?$AA@ 0008aec0     libeay32:v3err.obj
 0002:00019ed0       ??_C@_0BH@BCAACBGI@unknown?5extension?5name?$AA@ 0008aed0     libeay32:v3err.obj
 0002:00019ee8       ??_C@_0BC@OOCHDELC@unknown?5extension?$AA@ 0008aee8     libeay32:v3err.obj
 0002:00019efc       ??_C@_0BM@MKJMMAIK@unknown?5bit?5string?5argument?$AA@ 0008aefc     libeay32:v3err.obj
 0002:00019f18       ??_C@_0BL@OBFDCJAP@unable?5to?5get?5issuer?5keyid?$AA@ 0008af18     libeay32:v3err.obj
 0002:00019f34       ??_C@_0BN@CHFBOPOP@unable?5to?5get?5issuer?5details?$AA@ 0008af34     libeay32:v3err.obj
 0002:00019f54       ??_C@_0BC@JNLKMDNP@section?5not?5found?$AA@ 0008af54     libeay32:v3err.obj
 0002:00019f68       ??_C@_0CO@JHHDKONF@policy?5when?5proxy?5language?5requi@ 0008af68     libeay32:v3err.obj
 0002:00019f98       ??_C@_0CG@MJOKMEM@policy?5syntax?5not?5currently?5supp@ 0008af98     libeay32:v3err.obj
 0002:00019fc0       ??_C@_0CD@BBDANIPI@policy?5path?5length?5already?5defin@ 0008afc0     libeay32:v3err.obj
 0002:00019fe4       ??_C@_0BD@NEDBFMDL@policy?5path?5length?$AA@ 0008afe4     libeay32:v3err.obj
 0002:00019ff8       ??_C@_0CA@CPCFNOPI@policy?5language?5already?5defined?$AA@ 0008aff8     libeay32:v3err.obj
 0002:0001a018       ??_C@_0BA@MOGEPHBJ@othername?5error?$AA@ 0008b018     libeay32:v3err.obj
 0002:0001a028       ??_C@_0BG@NMPNHAKE@operation?5not?5defined?$AA@ 0008b028     libeay32:v3err.obj
 0002:0001a040       ??_C@_0BF@KKPHKHFI@odd?5number?5of?5digits?$AA@ 0008b040     libeay32:v3err.obj
 0002:0001a058       ??_C@_0BD@MBNAEAHJ@no?5subject?5details?$AA@ 0008b058     libeay32:v3err.obj
 0002:0001a06c       ??_C@_0CG@OJBEOHLI@no?5proxy?5cert?5policy?5language?5de@ 0008b06c     libeay32:v3err.obj
 0002:0001a094       ??_C@_0BF@GMFLKLFH@no?5policy?5identifier?$AA@ 0008b094     libeay32:v3err.obj
 0002:0001a0ac       ??_C@_0BC@DGDOEGNM@no?5issuer?5details?$AA@ 0008b0ac     libeay32:v3err.obj
 0002:0001a0c0       ??_C@_0BG@BJHMFLGH@no?5issuer?5certificate?$AA@ 0008b0c0     libeay32:v3err.obj
 0002:0001a0d8       ??_C@_0BD@GBCDPHMB@no?5config?5database?$AA@ 0008b0d8     libeay32:v3err.obj
 0002:0001a0ec       ??_C@_0BO@NPHFIDLK@need?5organization?5and?5numbers?$AA@ 0008b0ec     libeay32:v3err.obj
 0002:0001a10c       ??_C@_0O@EGLIOGHL@missing?5value?$AA@ 0008b10c     libeay32:v3err.obj
 0002:0001a11c       ??_C@_0BE@OKJPOHGC@issuer?5decode?5error?$AA@ 0008b11c     libeay32:v3err.obj
 0002:0001a130       ??_C@_0P@OAAEFEAJ@invalid?5syntax?$AA@ 0008b130     libeay32:v3err.obj
 0002:0001a140       ??_C@_0BA@ECHPICKH@invalid?5section?$AA@ 0008b140     libeay32:v3err.obj
 0002:0001a150       ??_C@_0N@FIBHOIMG@invalid?5safi?$AA@ 0008b150     libeay32:v3err.obj
 0002:0001a160       ??_C@_0BA@EFIHLCHH@invalid?5purpose?$AA@ 0008b160     libeay32:v3err.obj
 0002:0001a170       ??_C@_0BN@HOHNAMND@invalid?5proxy?5policy?5setting?$AA@ 0008b170     libeay32:v3err.obj
 0002:0001a190       ??_C@_0BK@EAPNGJJJ@invalid?5policy?5identifier?$AA@ 0008b190     libeay32:v3err.obj
 0002:0001a1ac       ??_C@_0P@PJFAGLMH@invalid?5option?$AA@ 0008b1ac     libeay32:v3err.obj
 0002:0001a1bc       ??_C@_0BK@NLNHJCIF@invalid?5object?5identifier?$AA@ 0008b1bc     libeay32:v3err.obj
 0002:0001a1d8       ??_C@_0BA@LGPBNKEG@invalid?5numbers?$AA@ 0008b1d8     libeay32:v3err.obj
 0002:0001a1e8       ??_C@_0P@FOPLFLLJ@invalid?5number?$AA@ 0008b1e8     libeay32:v3err.obj
 0002:0001a1f8       ??_C@_0BD@GLEJLJGC@invalid?5null?5value?$AA@ 0008b1f8     libeay32:v3err.obj
 0002:0001a20c       ??_C@_0BC@EKAKHKC@invalid?5null?5name?$AA@ 0008b20c     libeay32:v3err.obj
 0002:0001a220       ??_C@_0N@GAIHBLBI@invalid?5name?$AA@ 0008b220     libeay32:v3err.obj
 0002:0001a230       ??_C@_0BC@LAJKDMCB@invalid?5ipaddress?$AA@ 0008b230     libeay32:v3err.obj
 0002:0001a244       ??_C@_0BE@EJNBIJCH@invalid?5inheritance?$AA@ 0008b244     libeay32:v3err.obj
 0002:0001a258       ??_C@_0BJ@ECCGDIOM@invalid?5extension?5string?$AA@ 0008b258     libeay32:v3err.obj
 0002:0001a274       ??_C@_0BH@CJLEFGHB@invalid?5boolean?5string?$AA@ 0008b274     libeay32:v3err.obj
 0002:0001a28c       ??_C@_0BA@GIFFGEAD@invalid?5asrange?$AA@ 0008b28c     libeay32:v3err.obj
 0002:0001a29c       ??_C@_0BB@MMCPCDHP@invalid?5asnumber?$AA@ 0008b29c     libeay32:v3err.obj
 0002:0001a2b0       ??_C@_0BG@HKLEIIMK@invalid?5multiple?5rdns?$AA@ 0008b2b0     libeay32:v3err.obj
 0002:0001a2c8       ??_C@_0BM@GFPPDKKF@incorrect?5policy?5syntax?5tag?$AA@ 0008b2c8     libeay32:v3err.obj
 0002:0001a2e4       ??_C@_0BC@NGJFBKFK@illegal?5hex?5digit?$AA@ 0008b2e4     libeay32:v3err.obj
 0002:0001a2f8       ??_C@_0BI@JDFDJJBE@illegal?5empty?5extension?$AA@ 0008b2f8     libeay32:v3err.obj
 0002:0001a310       ??_C@_0BG@HAAPENCJ@extension?5value?5error?$AA@ 0008b310     libeay32:v3err.obj
 0002:0001a328       ??_C@_0CA@OIICHEJO@extension?5setting?5not?5supported?$AA@ 0008b328     libeay32:v3err.obj
 0002:0001a348       ??_C@_0BE@PDPAEMIJ@extension?5not?5found?$AA@ 0008b348     libeay32:v3err.obj
 0002:0001a35c       ??_C@_0BF@NELDGAFP@extension?5name?5error?$AA@ 0008b35c     libeay32:v3err.obj
 0002:0001a374       ??_C@_0BB@NMKOJBMO@extension?5exists?$AA@ 0008b374     libeay32:v3err.obj
 0002:0001a388       ??_C@_0BI@FPOKMAM@expected?5a?5section?5name?$AA@ 0008b388     libeay32:v3err.obj
 0002:0001a3a0       ??_C@_0BD@OJDPENBP@error?5in?5extension?$AA@ 0008b3a0     libeay32:v3err.obj
 0002:0001a3b4       ??_C@_0BJ@PFLAAICM@error?5creating?5extension?$AA@ 0008b3b4     libeay32:v3err.obj
 0002:0001a3d0       ??_C@_0BG@BJAKBIPP@error?5converting?5zone?$AA@ 0008b3d0     libeay32:v3err.obj
 0002:0001a3e8       ??_C@_0BC@CAFGAOAM@duplicate?5zone?5id?$AA@ 0008b3e8     libeay32:v3err.obj
 0002:0001a3fc       ??_C@_0BG@OJEPNJEI@distpoint?5already?5set?$AA@ 0008b3fc     libeay32:v3err.obj
 0002:0001a414       ??_C@_0O@HIKALICP@dirname?5error?$AA@ 0008b414     libeay32:v3err.obj
 0002:0001a424       ??_C@_0BJ@FNPACNBP@bn?5to?5asn1?5integer?5error?$AA@ 0008b424     libeay32:v3err.obj
 0002:0001a440       ??_C@_0BA@CINBMAOD@bn?5dec2bn?5error?$AA@ 0008b440     libeay32:v3err.obj
 0002:0001a450       ??_C@_0L@LMGGIPFB@bad?5object?$AA@ 0008b450     libeay32:v3err.obj
 0002:0001a45c       ??_C@_0P@HHIOGPLO@bad?5ip?5address?$AA@ 0008b45c     libeay32:v3err.obj
 0002:0001a46c       ??_C@_0BB@HHDJLLEN@X509_PURPOSE_set?$AA@ 0008b46c     libeay32:v3err.obj
 0002:0001a480       ??_C@_0BB@MGCJFMDP@X509_PURPOSE_add?$AA@ 0008b480     libeay32:v3err.obj
 0002:0001a494       ??_C@_0BC@KJEMBDOE@X509V3_parse_list?$AA@ 0008b494     libeay32:v3err.obj
 0002:0001a4a8       ??_C@_0BG@MGIBIFAD@X509V3_get_value_bool?$AA@ 0008b4a8     libeay32:v3err.obj
 0002:0001a4c0       ??_C@_0BC@DJANGIBG@X509V3_get_string?$AA@ 0008b4c0     libeay32:v3err.obj
 0002:0001a4d4       ??_C@_0BD@NAEICGG@X509V3_get_section?$AA@ 0008b4d4     libeay32:v3err.obj
 0002:0001a4e8       ??_C@_0BB@LCMAPPDO@X509V3_EXT_nconf?$AA@ 0008b4e8     libeay32:v3err.obj
 0002:0001a4fc       ??_C@_0P@EKNPOBED@X509V3_EXT_i2d?$AA@ 0008b4fc     libeay32:v3err.obj
 0002:0001a50c       ??_C@_0BA@KCHIEJOC@X509V3_EXT_conf?$AA@ 0008b50c     libeay32:v3err.obj
 0002:0001a51c       ??_C@_0BF@MMADKDDK@X509V3_EXT_add_alias?$AA@ 0008b51c     libeay32:v3err.obj
 0002:0001a534       ??_C@_0P@OHFKJLKO@X509V3_EXT_add?$AA@ 0008b534     libeay32:v3err.obj
 0002:0001a544       ??_C@_0BB@FBAFPAF@X509V3_add_value?$AA@ 0008b544     libeay32:v3err.obj
 0002:0001a558       ??_C@_0BA@CDLAKIAK@X509V3_add1_i2d?$AA@ 0008b558     libeay32:v3err.obj
 0002:0001a568       ??_C@_0BF@CFAPJAED@V3_GENERIC_EXTENSION?$AA@ 0008b568     libeay32:v3err.obj
 0002:0001a580       ??_C@_0BP@FCHOOCEO@V3_ADDR_VALIDATE_PATH_INTERNAL?$AA@ 0008b580     libeay32:v3err.obj
 0002:0001a5a0       ??_C@_0BA@DHKCKDL@V2I_SUBJECT_ALT?$AA@ 0008b5a0     libeay32:v3err.obj
 0002:0001a5b0       ??_C@_0BE@KOLIPFC@V2I_POLICY_MAPPINGS?$AA@ 0008b5b0     libeay32:v3err.obj
 0002:0001a5c4       ??_C@_0BH@GFHHCJKN@V2I_POLICY_CONSTRAINTS?$AA@ 0008b5c4     libeay32:v3err.obj
 0002:0001a5dc       ??_C@_0BF@MLIEBPGH@V2I_NAME_CONSTRAINTS?$AA@ 0008b5dc     libeay32:v3err.obj
 0002:0001a5f4       ??_C@_0P@HKPGPAFL@V2I_ISSUER_ALT?$AA@ 0008b5f4     libeay32:v3err.obj
 0002:0001a604       ??_C@_0BB@GHEBMKIK@V2I_IPADDRBLOCKS?$AA@ 0008b604     libeay32:v3err.obj
 0002:0001a618       ??_C@_07IPEIACON@V2I_IDP?$AA@ 0008b618     libeay32:v3err.obj
 0002:0001a620       ??_C@_0BE@EAFOFDEM@v2i_GENERAL_NAME_ex?$AA@ 0008b620     libeay32:v3err.obj
 0002:0001a634       ??_C@_0BC@HHFBPNHH@v2i_GENERAL_NAMES?$AA@ 0008b634     libeay32:v3err.obj
 0002:0001a648       ??_C@_0BH@IDIMOMGB@V2I_EXTENDED_KEY_USAGE?$AA@ 0008b648     libeay32:v3err.obj
 0002:0001a660       ??_C@_08GANPBGDA@V2I_CRLD?$AA@ 0008b660     libeay32:v3err.obj
 0002:0001a66c       ??_C@_0BG@DJKMFBMP@V2I_BASIC_CONSTRAINTS?$AA@ 0008b66c     libeay32:v3err.obj
 0002:0001a684       ??_C@_0BE@NCGIHFAP@V2I_AUTHORITY_KEYID?$AA@ 0008b684     libeay32:v3err.obj
 0002:0001a698       ??_C@_0BK@NMMKGGHG@V2I_AUTHORITY_INFO_ACCESS?$AA@ 0008b698     libeay32:v3err.obj
 0002:0001a6b4       ??_C@_0BE@MDNGHKJM@v2i_ASN1_BIT_STRING?$AA@ 0008b6b4     libeay32:v3err.obj
 0002:0001a6c8       ??_C@_0BC@NFHLLIFI@V2I_ASIDENTIFIERS?$AA@ 0008b6c8     libeay32:v3err.obj
 0002:0001a6dc       ??_C@_0BD@NOFPGMLA@SXNET_get_id_ulong?$AA@ 0008b6dc     libeay32:v3err.obj
 0002:0001a6f0       ??_C@_0BB@DCAEMBDN@SXNET_get_id_asc?$AA@ 0008b6f0     libeay32:v3err.obj
 0002:0001a704       ??_C@_0BD@ELOJDLMJ@SXNET_add_id_ulong?$AA@ 0008b704     libeay32:v3err.obj
 0002:0001a718       ??_C@_0BF@KHDBJGPF@SXNET_add_id_INTEGER?$AA@ 0008b718     libeay32:v3err.obj
 0002:0001a730       ??_C@_0BB@JJLDCCDB@SXNET_add_id_asc?$AA@ 0008b730     libeay32:v3err.obj
 0002:0001a744       ??_C@_0O@FGGLLMNC@string_to_hex?$AA@ 0008b744     libeay32:v3err.obj
 0002:0001a754       ??_C@_0BE@DCBADICH@SET_DIST_POINT_NAME?$AA@ 0008b754     libeay32:v3err.obj
 0002:0001a768       ??_C@_0M@PPIOCBAF@S2I_SKEY_ID?$AA@ 0008b768     libeay32:v3err.obj
 0002:0001a774       ??_C@_0BB@JOCKIPFF@S2I_ASN1_SKEY_ID?$AA@ 0008b774     libeay32:v3err.obj
 0002:0001a788       ??_C@_0BG@BLPNOPMK@s2i_ASN1_OCTET_STRING?$AA@ 0008b788     libeay32:v3err.obj
 0002:0001a7a0       ??_C@_0BB@GKLKBJAL@s2i_ASN1_INTEGER?$AA@ 0008b7a0     libeay32:v3err.obj
 0002:0001a7b4       ??_C@_0BD@FNOIALGO@S2I_ASN1_IA5STRING?$AA@ 0008b7b4     libeay32:v3err.obj
 0002:0001a7c8       ??_C@_07LIFMKLJP@R2I_PCI?$AA@ 0008b7c8     libeay32:v3err.obj
 0002:0001a7d0       ??_C@_0M@DKNLDHGC@R2I_CERTPOL?$AA@ 0008b7d0     libeay32:v3err.obj
 0002:0001a7dc       ??_C@_0BC@MLBEAOC@PROCESS_PCI_VALUE?$AA@ 0008b7dc     libeay32:v3err.obj
 0002:0001a7f0       ??_C@_0P@OGMAKCCE@POLICY_SECTION?$AA@ 0008b7f0     libeay32:v3err.obj
 0002:0001a800       ??_C@_08PMEPMHKO@NREF_NOS?$AA@ 0008b800     libeay32:v3err.obj
 0002:0001a80c       ??_C@_0P@JMEHDBMP@NOTICE_SECTION?$AA@ 0008b80c     libeay32:v3err.obj
 0002:0001a81c       ??_C@_0BK@GHAMBPGA@I2V_AUTHORITY_INFO_ACCESS?$AA@ 0008b81c     libeay32:v3err.obj
 0002:0001a838       ??_C@_0BB@GMKKLNHG@i2s_ASN1_INTEGER?$AA@ 0008b838     libeay32:v3err.obj
 0002:0001a84c       ??_C@_0BD@BGMCGNDE@I2S_ASN1_IA5STRING?$AA@ 0008b84c     libeay32:v3err.obj
 0002:0001a860       ??_C@_0BE@PBLHIADL@i2s_ASN1_ENUMERATED?$AA@ 0008b860     libeay32:v3err.obj
 0002:0001a874       ??_C@_0O@FLJILPHC@hex_to_string?$AA@ 0008b874     libeay32:v3err.obj
 0002:0001a884       ??_C@_0BF@HALJGMFL@GNAMES_FROM_SECTNAME?$AA@ 0008b884     libeay32:v3err.obj
 0002:0001a89c       ??_C@_0BI@PNFOPHFO@DO_I2V_NAME_CONSTRAINTS?$AA@ 0008b89c     libeay32:v3err.obj
 0002:0001a8b4       ??_C@_0N@KELHEBGM@DO_EXT_NCONF?$AA@ 0008b8b4     libeay32:v3err.obj
 0002:0001a8c4       ??_C@_0L@DJEOCDBO@DO_EXT_I2D?$AA@ 0008b8c4     libeay32:v3err.obj
 0002:0001a8d0       ??_C@_0M@ICGHHOPF@DO_EXT_CONF?$AA@ 0008b8d0     libeay32:v3err.obj
 0002:0001a8dc       ??_C@_0L@DMJGNPBG@DO_DIRNAME?$AA@ 0008b8dc     libeay32:v3err.obj
 0002:0001a8e8       ??_C@_0M@ELLBFBDD@COPY_ISSUER?$AA@ 0008b8e8     libeay32:v3err.obj
 0002:0001a8f4       ??_C@_0L@KGBMNDCM@COPY_EMAIL?$AA@ 0008b8f4     libeay32:v3err.obj
 0002:0001a900       ??_C@_0CA@PCJPNFHG@ASIDENTIFIERCHOICE_IS_CANONICAL?$AA@ 0008b900     libeay32:v3err.obj
 0002:0001a920       ??_C@_0BM@FNMHINEI@ASIDENTIFIERCHOICE_CANONIZE?$AA@ 0008b920     libeay32:v3err.obj
 0002:0001a93c       ??_C@_0BB@DFAKAIBN@A2I_GENERAL_NAME?$AA@ 0008b93c     libeay32:v3err.obj
 0002:0001a950       ??_C@_0BB@LMNDDHAO@wrong?5pkcs7?5type?$AA@ 0008b950     libeay32:pkcs7err.obj
 0002:0001a964       ??_C@_0BI@BDKIDJNG@unsupported?5cipher?5type?$AA@ 0008b964     libeay32:pkcs7err.obj
 0002:0001a97c       ??_C@_0BC@BDMDPLFD@unknown?5operation?$AA@ 0008b97c     libeay32:pkcs7err.obj
 0002:0001a990       ??_C@_0BE@FDMIMEPA@unknown?5digest?5type?$AA@ 0008b990     libeay32:pkcs7err.obj
 0002:0001a9a4       ??_C@_0BO@BPGCPEON@unable?5to?5find?5message?5digest?$AA@ 0008b9a4     libeay32:pkcs7err.obj
 0002:0001a9c4       ??_C@_0BH@GGBACGPO@unable?5to?5find?5mem?5bio?$AA@ 0008b9c4     libeay32:pkcs7err.obj
 0002:0001a9dc       ??_C@_0BL@MPEBNJMM@unable?5to?5find?5certificate?$AA@ 0008b9dc     libeay32:pkcs7err.obj
 0002:0001a9f8       ??_C@_0BG@HLPLMCAK@sig?5invalid?5mime?5type?$AA@ 0008b9f8     libeay32:pkcs7err.obj
 0002:0001aa10       ??_C@_0CI@MODCEPNI@signing?5not?5supported?5for?5this?5k@ 0008ba10     libeay32:pkcs7err.obj
 0002:0001aa38       ??_C@_0BF@NKHMFGHO@signing?5ctrl?5failure?$AA@ 0008ba38     libeay32:pkcs7err.obj
 0002:0001aa50       ??_C@_0BG@GDEPAMKB@pkcs7?5sig?5parse?5error?$AA@ 0008ba50     libeay32:pkcs7err.obj
 0002:0001aa68       ??_C@_0BC@HAIFOMAN@pkcs7?5parse?5error?$AA@ 0008ba68     libeay32:pkcs7err.obj
 0002:0001aa7c       ??_C@_0P@MLIPMLPL@pkcs7?5datasign?$AA@ 0008ba7c     libeay32:pkcs7err.obj
 0002:0001aa8c       ??_C@_0BG@DENNOOLH@pkcs7?5datafinal?5error?$AA@ 0008ba8c     libeay32:pkcs7err.obj
 0002:0001aaa4       ??_C@_0BA@MGKDBLGL@pkcs7?5datafinal?$AA@ 0008baa4     libeay32:pkcs7err.obj
 0002:0001aab4       ??_C@_0BH@HILILNFK@pkcs7?5add?5signer?5error?$AA@ 0008bab4     libeay32:pkcs7err.obj
 0002:0001aacc       ??_C@_0CF@KFDJAIAE@operation?5not?5supported?5on?5this?5@ 0008bacc     libeay32:pkcs7err.obj
 0002:0001aaf4       ??_C@_0BE@PKDDELLH@no?5sig?5content?5type?$AA@ 0008baf4     libeay32:pkcs7err.obj
 0002:0001ab08       ??_C@_0BG@KJOJDMCP@no?5signatures?5on?5data?$AA@ 0008bb08     libeay32:pkcs7err.obj
 0002:0001ab20       ??_C@_0BJ@HNAOANNO@no?5recipient?5matches?5key?$AA@ 0008bb20     libeay32:pkcs7err.obj
 0002:0001ab3c       ??_C@_0CB@EOIABHI@no?5recipient?5matches?5certificate@ 0008bb3c     libeay32:pkcs7err.obj
 0002:0001ab60       ??_C@_0BG@CCLGBNL@no?5multipart?5boundary?$AA@ 0008bb60     libeay32:pkcs7err.obj
 0002:0001ab78       ??_C@_0BK@BJLDLELE@no?5multipart?5body?5failure?$AA@ 0008bb78     libeay32:pkcs7err.obj
 0002:0001ab94       ??_C@_0BO@BPCBFOBN@no?5matching?5digest?5type?5found?$AA@ 0008bb94     libeay32:pkcs7err.obj
 0002:0001abb4       ??_C@_0BG@FIKOHGJL@missing?5ceripend?5info?$AA@ 0008bbb4     libeay32:pkcs7err.obj
 0002:0001abcc       ??_C@_0BF@NGKJEMBA@mime?5sig?5parse?5error?$AA@ 0008bbcc     libeay32:pkcs7err.obj
 0002:0001abe4       ??_C@_0BB@CLOKMDJL@mime?5parse?5error?$AA@ 0008bbe4     libeay32:pkcs7err.obj
 0002:0001abf8       ??_C@_0BF@JPGANBNB@mime?5no?5content?5type?$AA@ 0008bbf8     libeay32:pkcs7err.obj
 0002:0001ac10       ??_C@_0BC@FHFCCIPJ@invalid?5mime?5type?$AA@ 0008bc10     libeay32:pkcs7err.obj
 0002:0001ac24       ??_C@_0BF@EJOJNMMB@error?5setting?5cipher?$AA@ 0008bc24     libeay32:pkcs7err.obj
 0002:0001ac3c       ??_C@_0BH@PJNOPIMM@error?5adding?5recipient?$AA@ 0008bc3c     libeay32:pkcs7err.obj
 0002:0001ac54       ??_C@_0CL@KPOELFBN@encryption?5not?5supported?5for?5thi@ 0008bc54     libeay32:pkcs7err.obj
 0002:0001ac80       ??_C@_0BI@FLDJBJEB@encryption?5ctrl?5failure?$AA@ 0008bc80     libeay32:pkcs7err.obj
 0002:0001ac98       ??_C@_0P@EAGFKBJN@digest?5failure?$AA@ 0008bc98     libeay32:pkcs7err.obj
 0002:0001aca8       ??_C@_0BO@LNIEDLGB@decrypted?5key?5is?5wrong?5length?$AA@ 0008bca8     libeay32:pkcs7err.obj
 0002:0001acc8       ??_C@_0BJ@JDGHLKE@content?5and?5data?5present?$AA@ 0008bcc8     libeay32:pkcs7err.obj
 0002:0001ace4       ??_C@_0BH@HHGJPEG@cipher?5not?5initialized?$AA@ 0008bce4     libeay32:pkcs7err.obj
 0002:0001acfc       ??_C@_0CA@BHNCFDBP@cipher?5has?5no?5object?5identifier?$AA@ 0008bcfc     libeay32:pkcs7err.obj
 0002:0001ad1c       ??_C@_0L@CEDJDPJO@SMIME_text?$AA@ 0008bd1c     libeay32:pkcs7err.obj
 0002:0001ad28       ??_C@_0BB@KDHLDBMO@SMIME_read_PKCS7?$AA@ 0008bd28     libeay32:pkcs7err.obj
 0002:0001ad3c       ??_C@_0N@MDDFJGNF@PKCS7_verify?$AA@ 0008bd3c     libeay32:pkcs7err.obj
 0002:0001ad4c       ??_C@_0BG@NGGLELOE@PKCS7_simple_smimecap?$AA@ 0008bd4c     libeay32:pkcs7err.obj
 0002:0001ad64       ??_C@_0BG@ODCDGOGB@PKCS7_sign_add_signer?$AA@ 0008bd64     libeay32:pkcs7err.obj
 0002:0001ad7c       ??_C@_0BH@BLILFECF@PKCS7_SIGNER_INFO_sign?$AA@ 0008bd7c     libeay32:pkcs7err.obj
 0002:0001ad94       ??_C@_0BG@EIAOKKPM@PKCS7_SIGNER_INFO_set?$AA@ 0008bd94     libeay32:pkcs7err.obj
 0002:0001adac       ??_C@_0BG@PMADOMPD@PKCS7_signatureVerify?$AA@ 0008bdac     libeay32:pkcs7err.obj
 0002:0001adc4       ??_C@_0L@GIIMDMGD@PKCS7_sign?$AA@ 0008bdc4     libeay32:pkcs7err.obj
 0002:0001add0       ??_C@_0P@EIBMGDIL@PKCS7_set_type?$AA@ 0008bdd0     libeay32:pkcs7err.obj
 0002:0001ade0       ??_C@_0BB@KHOAIGEC@PKCS7_set_digest?$AA@ 0008bde0     libeay32:pkcs7err.obj
 0002:0001adf4       ??_C@_0BC@KEHPIBPE@PKCS7_set_content?$AA@ 0008bdf4     libeay32:pkcs7err.obj
 0002:0001ae08       ??_C@_0BB@MBMFDMH@PKCS7_set_cipher?$AA@ 0008be08     libeay32:pkcs7err.obj
 0002:0001ae1c       ??_C@_0BF@OGANHOPM@PKCS7_RECIP_INFO_set?$AA@ 0008be1c     libeay32:pkcs7err.obj
 0002:0001ae34       ??_C@_0BD@ONJMGDLL@PKCS7_get0_signers?$AA@ 0008be34     libeay32:pkcs7err.obj
 0002:0001ae48       ??_C@_0BC@PMCDCHO@PKCS7_FIND_DIGEST?$AA@ 0008be48     libeay32:pkcs7err.obj
 0002:0001ae5c       ??_C@_0M@DINEADOK@PKCS7_final?$AA@ 0008be5c     libeay32:pkcs7err.obj
 0002:0001ae68       ??_C@_0O@JFALMGOG@PKCS7_encrypt?$AA@ 0008be68     libeay32:pkcs7err.obj
 0002:0001ae78       ??_C@_0BD@PHHOANMB@PKCS7_ENCODE_RINFO?$AA@ 0008be78     libeay32:pkcs7err.obj
 0002:0001ae8c       ??_C@_0BE@JNDPEFCA@PKCS7_DECRYPT_RINFO?$AA@ 0008be8c     libeay32:pkcs7err.obj
 0002:0001aea0       ??_C@_0O@FLKGJCIC@PKCS7_decrypt?$AA@ 0008bea0     libeay32:pkcs7err.obj
 0002:0001aeb0       ??_C@_0BB@LMCKHKKD@PKCS7_dataVerify?$AA@ 0008beb0     libeay32:pkcs7err.obj
 0002:0001aec4       ??_C@_0P@FNIPPNIC@PKCS7_DATASIGN?$AA@ 0008bec4     libeay32:pkcs7err.obj
 0002:0001aed4       ??_C@_0P@OONGIMOK@PKCS7_dataInit?$AA@ 0008bed4     libeay32:pkcs7err.obj
 0002:0001aee4       ??_C@_0BA@ENDFMOKG@PKCS7_dataFinal?$AA@ 0008bee4     libeay32:pkcs7err.obj
 0002:0001aef4       ??_C@_0BB@NBHDJPJJ@PKCS7_dataDecode?$AA@ 0008bef4     libeay32:pkcs7err.obj
 0002:0001af08       ??_C@_0L@ICMECHLK@PKCS7_ctrl?$AA@ 0008bf08     libeay32:pkcs7err.obj
 0002:0001af14       ??_C@_0BL@EDLJNLML@PKCS7_COPY_EXISTING_DIGEST?$AA@ 0008bf14     libeay32:pkcs7err.obj
 0002:0001af30       ??_C@_0BF@HBBJACAF@PKCS7_BIO_ADD_DIGEST?$AA@ 0008bf30     libeay32:pkcs7err.obj
 0002:0001af48       ??_C@_0BB@CJPBIPAC@PKCS7_add_signer?$AA@ 0008bf48     libeay32:pkcs7err.obj
 0002:0001af5c       ??_C@_0BE@HCOKFGIN@PKCS7_add_signature?$AA@ 0008bf5c     libeay32:pkcs7err.obj
 0002:0001af70       ??_C@_0BJ@NOCKKMGL@PKCS7_add_recipient_info?$AA@ 0008bf70     libeay32:pkcs7err.obj
 0002:0001af8c       ??_C@_0O@CPFOLHJD@PKCS7_add_crl?$AA@ 0008bf8c     libeay32:pkcs7err.obj
 0002:0001af9c       ??_C@_0BG@DMGOLPOM@PKCS7_add_certificate?$AA@ 0008bf9c     libeay32:pkcs7err.obj
 0002:0001afb4       ??_C@_0BK@HOMOFJDN@PKCS7_add_attrib_smimecap?$AA@ 0008bfb4     libeay32:pkcs7err.obj
 0002:0001afd0       ??_C@_0BP@OLGBKKPO@PKCS7_add0_attrib_signing_time?$AA@ 0008bfd0     libeay32:pkcs7err.obj
 0002:0001aff0       ??_C@_0BF@EMAJJAAB@i2d_PKCS7_bio_stream?$AA@ 0008bff0     libeay32:pkcs7err.obj
 0002:0001b008       ??_C@_0BH@HCBGADHN@DO_PKCS7_SIGNED_ATTRIB?$AA@ 0008c008     libeay32:pkcs7err.obj
 0002:0001b020       ??_C@_0BA@NHGCDPL@B64_WRITE_PKCS7?$AA@ 0008c020     libeay32:pkcs7err.obj
 0002:0001b030       ??_C@_0P@CNHJDHJP@B64_READ_PKCS7?$AA@ 0008c030     libeay32:pkcs7err.obj
 0002:0001b040       ??_C@_0L@EEFLCHHA@WSAStartup?$AA@ 0008c040     libeay32:bio_err.obj
 0002:0001b04c       ??_C@_0BH@JKPNCGEG@write?5to?5read?5only?5BIO?$AA@ 0008c04c     libeay32:bio_err.obj
 0002:0001b064       ??_C@_0BD@IBMLBGPO@unsupported?5method?$AA@ 0008c064     libeay32:bio_err.obj
 0002:0001b078       ??_C@_0O@MBAHBKHG@uninitialized?$AA@ 0008c078     libeay32:bio_err.obj
 0002:0001b088       ??_C@_0BI@IMDEIGOC@unable?5to?5listen?5socket?$AA@ 0008c088     libeay32:bio_err.obj
 0002:0001b0a0       ??_C@_0BI@PPNDHPPD@unable?5to?5create?5socket?$AA@ 0008c0a0     libeay32:bio_err.obj
 0002:0001b0b8       ??_C@_0BG@FHGKKMFN@unable?5to?5bind?5socket?$AA@ 0008c0b8     libeay32:bio_err.obj
 0002:0001b0d0       ??_C@_0N@KDFLPJNC@tag?5mismatch?$AA@ 0008c0d0     libeay32:bio_err.obj
 0002:0001b0e0       ??_C@_0P@PKDFLBFD@null?5parameter?$AA@ 0008c0e0     libeay32:bio_err.obj
 0002:0001b0f0       ??_C@_0N@JHAEJMBC@no?5such?5file?$AA@ 0008c0f0     libeay32:bio_err.obj
 0002:0001b100       ??_C@_0BC@JMJFCOFK@no?5port?5specified?$AA@ 0008c100     libeay32:bio_err.obj
 0002:0001b114       ??_C@_0BA@LJKOOBIO@no?5port?5defined?$AA@ 0008c114     libeay32:bio_err.obj
 0002:0001b124       ??_C@_0BG@JKBKGOCO@no?5hostname?5specified?$AA@ 0008c124     libeay32:bio_err.obj
 0002:0001b13c       ??_C@_0BJ@GKFIJAJL@no?5accept?5port?5specified?$AA@ 0008c13c     libeay32:bio_err.obj
 0002:0001b158       ??_C@_0BD@POMCLPDD@nbio?5connect?5error?$AA@ 0008c158     libeay32:bio_err.obj
 0002:0001b16c       ??_C@_09MGFHKHCL@keepalive?$AA@ 0008c16c     libeay32:bio_err.obj
 0002:0001b178       ??_C@_06JNFOHBNM@in?5use?$AA@ 0008c178     libeay32:bio_err.obj
 0002:0001b180       ??_C@_0BD@LLPPBLCA@invalid?5ip?5address?$AA@ 0008c180     libeay32:bio_err.obj
 0002:0001b194       ??_C@_0CC@PGBNHLMO@gethostbyname?5addr?5is?5not?5af?5ine@ 0008c194     libeay32:bio_err.obj
 0002:0001b1b8       ??_C@_0CE@GODMPCOM@error?5setting?5nbio?5on?5accept?5soc@ 0008c1b8     libeay32:bio_err.obj
 0002:0001b1dc       ??_C@_0CG@JPMNKLHJ@error?5setting?5nbio?5on?5accepted?5s@ 0008c1dc     libeay32:bio_err.obj
 0002:0001b204       ??_C@_0BD@LABEPFLI@error?5setting?5nbio?$AA@ 0008c204     libeay32:bio_err.obj
 0002:0001b218       ??_C@_0BC@DJNFOHIO@EOF?5on?5memory?5BIO?$AA@ 0008c218     libeay32:bio_err.obj
 0002:0001b22c       ??_C@_0O@MFKCCHBC@connect?5error?$AA@ 0008c22c     libeay32:bio_err.obj
 0002:0001b23c       ??_C@_0M@KPHOFDBE@broken?5pipe?$AA@ 0008c23c     libeay32:bio_err.obj
 0002:0001b248       ??_C@_0BE@HPLPMGEP@bad?5hostname?5lookup?$AA@ 0008c248     libeay32:bio_err.obj
 0002:0001b25c       ??_C@_0P@HMIOPJLA@bad?5fopen?5mode?$AA@ 0008c25c     libeay32:bio_err.obj
 0002:0001b26c       ??_C@_0N@NBEBIMEI@accept?5error?$AA@ 0008c26c     libeay32:bio_err.obj
 0002:0001b27c       ??_C@_0L@EAHAPJKC@WSASTARTUP?$AA@ 0008c27c     libeay32:bio_err.obj
 0002:0001b288       ??_C@_07GEALNDFO@SSL_new?$AA@ 0008c288     libeay32:bio_err.obj
 0002:0001b290       ??_C@_09NHMOJNMM@MEM_WRITE?$AA@ 0008c290     libeay32:bio_err.obj
 0002:0001b29c       ??_C@_08IEAGDEEB@MEM_READ?$AA@ 0008c29c     libeay32:bio_err.obj
 0002:0001b2a8       ??_C@_0BA@KHKLOGKO@LINEBUFFER_CTRL?$AA@ 0008c2a8     libeay32:bio_err.obj
 0002:0001b2b8       ??_C@_09GDGNDLDO@FILE_READ?$AA@ 0008c2b8     libeay32:bio_err.obj
 0002:0001b2c4       ??_C@_09PBCCNH@FILE_CTRL?$AA@ 0008c2c4     libeay32:bio_err.obj
 0002:0001b2d0       ??_C@_0BA@OKAMFHCA@DGRAM_SCTP_READ?$AA@ 0008c2d0     libeay32:bio_err.obj
 0002:0001b2e0       ??_C@_0L@MJCDONOC@CONN_STATE?$AA@ 0008c2e0     libeay32:bio_err.obj
 0002:0001b2ec       ??_C@_09NFOAMDJO@CONN_CTRL?$AA@ 0008c2ec     libeay32:bio_err.obj
 0002:0001b2f8       ??_C@_0M@CPJAKCHN@BUFFER_CTRL?$AA@ 0008c2f8     libeay32:bio_err.obj
 0002:0001b304       ??_C@_09EJECNFGG@BIO_write?$AA@ 0008c304     libeay32:bio_err.obj
 0002:0001b310       ??_C@_0O@OKBNIDJO@BIO_sock_init?$AA@ 0008c310     libeay32:bio_err.obj
 0002:0001b320       ??_C@_08FHLFBNIO@BIO_read?$AA@ 0008c320     libeay32:bio_err.obj
 0002:0001b32c       ??_C@_08GCACPMHM@BIO_puts?$AA@ 0008c32c     libeay32:bio_err.obj
 0002:0001b338       ??_C@_0M@HMEMAIDG@BIO_nwrite0?$AA@ 0008c338     libeay32:bio_err.obj
 0002:0001b344       ??_C@_0L@LGDOLBGC@BIO_nwrite?$AA@ 0008c344     libeay32:bio_err.obj
 0002:0001b350       ??_C@_0L@CKGNEJMN@BIO_nread0?$AA@ 0008c350     libeay32:bio_err.obj
 0002:0001b35c       ??_C@_09CELLGJFH@BIO_nread?$AA@ 0008c35c     libeay32:bio_err.obj
 0002:0001b368       ??_C@_0BA@KKBPEOM@BIO_new_mem_buf?$AA@ 0008c368     libeay32:bio_err.obj
 0002:0001b378       ??_C@_0N@FMJJBHLM@BIO_new_file?$AA@ 0008c378     libeay32:bio_err.obj
 0002:0001b388       ??_C@_07JBCAFDMF@BIO_new?$AA@ 0008c388     libeay32:bio_err.obj
 0002:0001b390       ??_C@_0O@MMPGPDFN@BIO_MAKE_PAIR?$AA@ 0008c390     libeay32:bio_err.obj
 0002:0001b3a0       ??_C@_0N@EOHICLOO@BIO_get_port?$AA@ 0008c3a0     libeay32:bio_err.obj
 0002:0001b3b0       ??_C@_0BA@BEIHJGBF@BIO_get_host_ip?$AA@ 0008c3b0     libeay32:bio_err.obj
 0002:0001b3c0       ??_C@_0BG@OBCHEGOE@BIO_get_accept_socket?$AA@ 0008c3c0     libeay32:bio_err.obj
 0002:0001b3d8       ??_C@_08OANLOAHB@BIO_gets?$AA@ 0008c3d8     libeay32:bio_err.obj
 0002:0001b3e4       ??_C@_0BC@FKJOFNNM@BIO_gethostbyname?$AA@ 0008c3e4     libeay32:bio_err.obj
 0002:0001b3f8       ??_C@_08DECJAEGH@BIO_ctrl?$AA@ 0008c3f8     libeay32:bio_err.obj
 0002:0001b404       ??_C@_0BC@CFHCBGEE@BIO_callback_ctrl?$AA@ 0008c404     libeay32:bio_err.obj
 0002:0001b418       ??_C@_0BD@IAPMAGLL@BIO_BER_GET_HEADER?$AA@ 0008c418     libeay32:bio_err.obj
 0002:0001b42c       ??_C@_0L@JLLHALEA@BIO_accept?$AA@ 0008c42c     libeay32:bio_err.obj
 0002:0001b438       ??_C@_0L@CAKAAKN@ACPT_STATE?$AA@ 0008c438     libeay32:bio_err.obj
 0002:0001b444       ??_C@_0BJ@GIHJPDAI@point?5arithmetic?5failure?$AA@ 0008c444     libeay32:ech_err.obj
 0002:0001b460       ??_C@_0BB@COKBGGEN@no?5private?5value?$AA@ 0008c460     libeay32:ech_err.obj
 0002:0001b474       ??_C@_0BA@MAGMKJLO@non?5fips?5method?$AA@ 0008c474     libeay32:ech_err.obj
 0002:0001b484       ??_C@_0L@CDCPDAHG@KDF?5failed?$AA@ 0008c484     libeay32:ech_err.obj
 0002:0001b490       ??_C@_0BF@GOHHALFG@ECDH_DATA_new_method?$AA@ 0008c490     libeay32:ech_err.obj
 0002:0001b4a8       ??_C@_0BB@IOKCFGPF@ECDH_compute_key?$AA@ 0008c4a8     libeay32:ech_err.obj
 0002:0001b4bc       ??_C@_0L@MGKFDDAC@ECDH_CHECK?$AA@ 0008c4bc     libeay32:ech_err.obj
 0002:0001b4c8       ??_C@_0BI@IHHJBEMD@signature?5malloc?5failed?$AA@ 0008c4c8     libeay32:ecs_err.obj
 0002:0001b4e0       ??_C@_0CA@PEINDBLK@random?5number?5generation?5failed?$AA@ 0008c4e0     libeay32:ecs_err.obj
 0002:0001b500       ??_C@_0BG@CMMPCEJC@need?5new?5setup?5values?$AA@ 0008c500     libeay32:ecs_err.obj
 0002:0001b518       ??_C@_0BD@FMCFODNL@missing?5parameters?$AA@ 0008c518     libeay32:ecs_err.obj
 0002:0001b52c       ??_C@_0L@JHHGCIEK@err?5ec?5lib?$AA@ 0008c52c     libeay32:ecs_err.obj
 0002:0001b538       ??_C@_0BM@LDGAMALI@data?5too?5large?5for?5key?5size?$AA@ 0008c538     libeay32:ecs_err.obj
 0002:0001b554       ??_C@_0O@NKHGIDL@bad?5signature?$AA@ 0008c554     libeay32:ecs_err.obj
 0002:0001b564       ??_C@_0BB@IKKHAHBP@ECDSA_sign_setup?$AA@ 0008c564     libeay32:ecs_err.obj
 0002:0001b578       ??_C@_0BA@EHPKHBIM@ECDSA_do_verify?$AA@ 0008c578     libeay32:ecs_err.obj
 0002:0001b588       ??_C@_0O@HPIOKGCH@ECDSA_do_sign?$AA@ 0008c588     libeay32:ecs_err.obj
 0002:0001b598       ??_C@_0BG@PPIAHALF@ECDSA_DATA_NEW_METHOD?$AA@ 0008c598     libeay32:ecs_err.obj
 0002:0001b5b0       ??_C@_0M@KDLAGBMI@ECDSA_CHECK?$AA@ 0008c5b0     libeay32:ecs_err.obj
 0002:0001b5bc       ??_C@_0M@EOIJFDOH@wrong?5order?$AA@ 0008c5bc     libeay32:ec_err.obj
 0002:0001b5c8       ??_C@_0BH@IMKFEGMC@wrong?5curve?5parameters?$AA@ 0008c5c8     libeay32:ec_err.obj
 0002:0001b5e0       ??_C@_0BC@JMLAMKLK@unsupported?5field?$AA@ 0008c5e0     libeay32:ec_err.obj
 0002:0001b5f4       ??_C@_0O@MMOMPOPJ@unknown?5order?$AA@ 0008c5f4     libeay32:ec_err.obj
 0002:0001b604       ??_C@_0O@NJKODKGH@unknown?5group?$AA@ 0008c604     libeay32:ec_err.obj
 0002:0001b614       ??_C@_0BA@KMEKJECH@undefined?5order?$AA@ 0008c614     libeay32:ec_err.obj
 0002:0001b624       ??_C@_0BE@EGDCECDM@undefined?5generator?$AA@ 0008c624     libeay32:ec_err.obj
 0002:0001b638       ??_C@_09GPAKFMBH@slot?5full?$AA@ 0008c638     libeay32:ec_err.obj
 0002:0001b644       ??_C@_0BG@HJHIMKPE@point?5is?5not?5on?5curve?$AA@ 0008c644     libeay32:ec_err.obj
 0002:0001b65c       ??_C@_0BC@GCGFLKCO@point?5at?5infinity?$AA@ 0008c65c     libeay32:ec_err.obj
 0002:0001b670       ??_C@_0BL@ELPENPAK@pkparameters2group?5failure?$AA@ 0008c670     libeay32:ec_err.obj
 0002:0001b68c       ??_C@_0BG@DNAKIAMA@passed?5null?5parameter?$AA@ 0008c68c     libeay32:ec_err.obj
 0002:0001b6a4       ??_C@_0BC@GIAEKLLJ@no?5parameters?5set?$AA@ 0008c6a4     libeay32:ec_err.obj
 0002:0001b6b8       ??_C@_0N@PJBCLHJD@no?5field?5mod?$AA@ 0008c6b8     libeay32:ec_err.obj
 0002:0001b6c8       ??_C@_0BA@CJBGKJNL@not?5initialized?$AA@ 0008c6c8     libeay32:ec_err.obj
 0002:0001b6d8       ??_C@_0BA@JJKIAAEB@not?5implemented?$AA@ 0008c6d8     libeay32:ec_err.obj
 0002:0001b6e8       ??_C@_0BL@JNPAJGEA@not?5a?5supported?5NIST?5prime?$AA@ 0008c6e8     libeay32:ec_err.obj
 0002:0001b704       ??_C@_0BB@BMGODCLF@not?5a?5NIST?5prime?$AA@ 0008c704     libeay32:ec_err.obj
 0002:0001b718       ??_C@_0BE@DEHOFIII@missing?5private?5key?$AA@ 0008c718     libeay32:ec_err.obj
 0002:0001b72c       ??_C@_0N@CGIIEDML@keys?5not?5set?$AA@ 0008c72c     libeay32:ec_err.obj
 0002:0001b73c       ??_C@_0BI@JECPOIKH@invalid?5trinomial?5basis?$AA@ 0008c73c     libeay32:ec_err.obj
 0002:0001b754       ??_C@_0BE@IKADKHBA@invalid?5private?5key?$AA@ 0008c754     libeay32:ec_err.obj
 0002:0001b768       ??_C@_0BK@FNMGACKE@invalid?5pentanomial?5basis?$AA@ 0008c768     libeay32:ec_err.obj
 0002:0001b784       ??_C@_0BE@PJEEGFKA@invalid?5group?5order?$AA@ 0008c784     libeay32:ec_err.obj
 0002:0001b798       ??_C@_0N@GPILEJKP@invalid?5form?$AA@ 0008c798     libeay32:ec_err.obj
 0002:0001b7a8       ??_C@_0O@ENLGLCC@invalid?5field?$AA@ 0008c7a8     libeay32:ec_err.obj
 0002:0001b7b8       ??_C@_0BB@FEBGPKDB@invalid?5encoding?$AA@ 0008c7b8     libeay32:ec_err.obj
 0002:0001b7cc       ??_C@_0BE@CJFMBLEL@invalid?5digest?5type?$AA@ 0008c7cc     libeay32:ec_err.obj
 0002:0001b7e0       ??_C@_0O@DEGCPIND@invalid?5curve?$AA@ 0008c7e0     libeay32:ec_err.obj
 0002:0001b7f0       ??_C@_0BI@LFAIIMLE@invalid?5compression?5bit?$AA@ 0008c7f0     libeay32:ec_err.obj
 0002:0001b808       ??_C@_0BJ@MNCPMIGN@invalid?5compressed?5point?$AA@ 0008c808     libeay32:ec_err.obj
 0002:0001b824       ??_C@_0BF@PILBEPF@incompatible?5objects?$AA@ 0008c824     libeay32:ec_err.obj
 0002:0001b83c       ??_C@_0BL@PCNBEHHO@i2d?5ecpkparameters?5failure?$AA@ 0008c83c     libeay32:ec_err.obj
 0002:0001b858       ??_C@_0BL@OGODAEJ@group2pkparameters?5failure?$AA@ 0008c858     libeay32:ec_err.obj
 0002:0001b874       ??_C@_0BD@EBPFBOJF@gf2m?5not?5supported?$AA@ 0008c874     libeay32:ec_err.obj
 0002:0001b888       ??_C@_0BA@IJGJADJE@field?5too?5large?$AA@ 0008c888     libeay32:ec_err.obj
 0002:0001b898       ??_C@_0BN@FLBCEDHC@ec?5group?5new?5by?5name?5failure?$AA@ 0008c898     libeay32:ec_err.obj
 0002:0001b8b8       ??_C@_0BF@CBFOEPCG@discriminant?5is?5zero?$AA@ 0008c8b8     libeay32:ec_err.obj
 0002:0001b8d0       ??_C@_0BL@ENKDKILC@d2i?5ecpkparameters?5failure?$AA@ 0008c8d0     libeay32:ec_err.obj
 0002:0001b8ec       ??_C@_0BJ@NKAFKGBO@coordinates?5out?5of?5range?$AA@ 0008c8ec     libeay32:ec_err.obj
 0002:0001b908       ??_C@_0BB@CABJKBPN@buffer?5too?5small?$AA@ 0008c908     libeay32:ec_err.obj
 0002:0001b91c       ??_C@_0BE@OABMJMCN@bignum?5out?5of?5range?$AA@ 0008c91c     libeay32:ec_err.obj
 0002:0001b930       ??_C@_0BD@CGGBEGAN@asn1?5unknown?5field?$AA@ 0008c930     libeay32:ec_err.obj
 0002:0001b944       ??_C@_0L@EOLINLAB@asn1?5error?$AA@ 0008c944     libeay32:ec_err.obj
 0002:0001b950       ??_C@_0N@JMMDEJFH@PKEY_EC_SIGN?$AA@ 0008c950     libeay32:ec_err.obj
 0002:0001b960       ??_C@_0BB@KACMCNKG@PKEY_EC_PARAMGEN?$AA@ 0008c960     libeay32:ec_err.obj
 0002:0001b974       ??_C@_0P@GDHKPHHP@PKEY_EC_KEYGEN?$AA@ 0008c974     libeay32:ec_err.obj
 0002:0001b984       ??_C@_0P@PPKJAFFG@PKEY_EC_DERIVE?$AA@ 0008c984     libeay32:ec_err.obj
 0002:0001b994       ??_C@_0BB@IDGMOPLD@PKEY_EC_CTRL_STR?$AA@ 0008c994     libeay32:ec_err.obj
 0002:0001b9a8       ??_C@_0N@HGILFCIO@PKEY_EC_CTRL?$AA@ 0008c9a8     libeay32:ec_err.obj
 0002:0001b9b8       ??_C@_0BD@DFJHKIOP@OLD_EC_PRIV_DECODE?$AA@ 0008c9b8     libeay32:ec_err.obj
 0002:0001b9cc       ??_C@_0BA@PLLAKFLG@o2i_ECPublicKey?$AA@ 0008c9cc     libeay32:ec_err.obj
 0002:0001b9dc       ??_C@_0BG@LEEGNPDC@NISTP521_PRE_COMP_NEW?$AA@ 0008c9dc     libeay32:ec_err.obj
 0002:0001b9f4       ??_C@_0BG@PCCMFEBG@NISTP256_PRE_COMP_NEW?$AA@ 0008c9f4     libeay32:ec_err.obj
 0002:0001ba0c       ??_C@_0BG@KHFDBNPC@NISTP224_PRE_COMP_NEW?$AA@ 0008ca0c     libeay32:ec_err.obj
 0002:0001ba24       ??_C@_0BA@FAODIHOE@i2o_ECPublicKey?$AA@ 0008ca24     libeay32:ec_err.obj
 0002:0001ba34       ??_C@_0BB@MNAGGNI@i2d_ECPrivateKey?$AA@ 0008ca34     libeay32:ec_err.obj
 0002:0001ba48       ??_C@_0BD@EJJCMPPD@i2d_ECPKParameters?$AA@ 0008ca48     libeay32:ec_err.obj
 0002:0001ba5c       ??_C@_0BB@GJGDDIKH@i2d_ECParameters?$AA@ 0008ca5c     libeay32:ec_err.obj
 0002:0001ba70       ??_C@_0BI@BBMLGAEE@ec_wNAF_precompute_mult?$AA@ 0008ca70     libeay32:ec_err.obj
 0002:0001ba88       ??_C@_0M@MOCHBPNP@ec_wNAF_mul?$AA@ 0008ca88     libeay32:ec_err.obj
 0002:0001ba94       ??_C@_0BA@KHGDGKMC@EC_PRE_COMP_NEW?$AA@ 0008ca94     libeay32:ec_err.obj
 0002:0001baa4       ??_C@_0BA@JLLJLPBB@EC_PRE_COMP_DUP?$AA@ 0008caa4     libeay32:ec_err.obj
 0002:0001bab4       ??_C@_0BJ@OKHKHJLG@EC_POINT_set_to_infinity?$AA@ 0008cab4     libeay32:ec_err.obj
 0002:0001bad0       ??_C@_0CJ@OEEMAMPO@EC_POINT_set_Jprojective_coordin@ 0008cad0     libeay32:ec_err.obj
 0002:0001bafc       ??_C@_0CI@KEKPCLNN@EC_POINT_set_compressed_coordina@ 0008cafc     libeay32:ec_err.obj
 0002:0001bb24       ??_C@_0CJ@FLILENAG@EC_POINT_set_compressed_coordina@ 0008cb24     libeay32:ec_err.obj
 0002:0001bb50       ??_C@_0CE@BGAPNKLA@EC_POINT_set_affine_coordinates_@ 0008cb50     libeay32:ec_err.obj
 0002:0001bb74       ??_C@_0CF@GIDKPABC@EC_POINT_set_affine_coordinates_@ 0008cb74     libeay32:ec_err.obj
 0002:0001bb9c       ??_C@_0BD@OIBFFFMJ@EC_POINT_point2oct?$AA@ 0008cb9c     libeay32:ec_err.obj
 0002:0001bbb0       ??_C@_0BD@KNOOFOGC@EC_POINT_oct2point?$AA@ 0008cbb0     libeay32:ec_err.obj
 0002:0001bbc4       ??_C@_0N@LOIMDOGK@EC_POINT_new?$AA@ 0008cbc4     libeay32:ec_err.obj
 0002:0001bbd4       ??_C@_0N@BJCJPJGO@EC_POINT_mul?$AA@ 0008cbd4     libeay32:ec_err.obj
 0002:0001bbe4       ??_C@_0BF@OGCGANIF@EC_POINT_make_affine?$AA@ 0008cbe4     libeay32:ec_err.obj
 0002:0001bbfc       ??_C@_0BF@LEBHDAHH@EC_POINT_is_on_curve?$AA@ 0008cbfc     libeay32:ec_err.obj
 0002:0001bc14       ??_C@_0BI@OBFGKGNP@EC_POINT_is_at_infinity?$AA@ 0008cc14     libeay32:ec_err.obj
 0002:0001bc2c       ??_C@_0BA@GCFFHKDO@EC_POINT_invert?$AA@ 0008cc2c     libeay32:ec_err.obj
 0002:0001bc3c       ??_C@_0CJ@IIJPHIDN@EC_POINT_get_Jprojective_coordin@ 0008cc3c     libeay32:ec_err.obj
 0002:0001bc68       ??_C@_0CE@CJDKBKKA@EC_POINT_get_affine_coordinates_@ 0008cc68     libeay32:ec_err.obj
 0002:0001bc8c       ??_C@_0CF@HFLCNFLG@EC_POINT_get_affine_coordinates_@ 0008cc8c     libeay32:ec_err.obj
 0002:0001bcb4       ??_C@_0N@HNEIADBB@EC_POINT_dbl?$AA@ 0008ccb4     libeay32:ec_err.obj
 0002:0001bcc4       ??_C@_0O@MBEGPEJH@EC_POINT_copy?$AA@ 0008ccc4     libeay32:ec_err.obj
 0002:0001bcd4       ??_C@_0N@NLECBMI@EC_POINT_cmp?$AA@ 0008ccd4     libeay32:ec_err.obj
 0002:0001bce4       ??_C@_0N@IGMCAFJJ@EC_POINT_add?$AA@ 0008cce4     libeay32:ec_err.obj
 0002:0001bcf4       ??_C@_0BG@BELCPGD@EC_POINTs_make_affine?$AA@ 0008ccf4     libeay32:ec_err.obj
 0002:0001bd0c       ??_C@_0CJ@PKPNGFF@EC_KEY_set_public_key_affine_coo@ 0008cd0c     libeay32:ec_err.obj
 0002:0001bd38       ??_C@_0BA@JKENIEBO@EC_KEY_print_fp?$AA@ 0008cd38     libeay32:ec_err.obj
 0002:0001bd48       ??_C@_0N@FGDNEALE@EC_KEY_print?$AA@ 0008cd48     libeay32:ec_err.obj
 0002:0001bd58       ??_C@_0L@ONJMCKDA@EC_KEY_new?$AA@ 0008cd58     libeay32:ec_err.obj
 0002:0001bd64       ??_C@_0BE@MFFKFHAB@EC_KEY_generate_key?$AA@ 0008cd64     libeay32:ec_err.obj
 0002:0001bd78       ??_C@_0M@EKKLFMGJ@EC_KEY_copy?$AA@ 0008cd78     libeay32:ec_err.obj
 0002:0001bd84       ??_C@_0BB@NNGADNNL@EC_KEY_check_key?$AA@ 0008cd84     libeay32:ec_err.obj
 0002:0001bd98       ??_C@_0BH@CFECBPOO@EC_GROUP_set_generator?$AA@ 0008cd98     libeay32:ec_err.obj
 0002:0001bdb0       ??_C@_0BI@FFDHFCOK@EC_GROUP_SET_EXTRA_DATA?$AA@ 0008cdb0     libeay32:ec_err.obj
 0002:0001bdc8       ??_C@_0BH@BKLNCDLE@EC_GROUP_set_curve_GFp?$AA@ 0008cdc8     libeay32:ec_err.obj
 0002:0001bde0       ??_C@_0BI@GPFLIGPC@EC_GROUP_set_curve_GF2m?$AA@ 0008cde0     libeay32:ec_err.obj
 0002:0001bdf8       ??_C@_0BJ@EGIKACCD@EC_GROUP_precompute_mult?$AA@ 0008cdf8     libeay32:ec_err.obj
 0002:0001be14       ??_C@_0BH@GPENGIHE@EC_GROUP_NEW_FROM_DATA?$AA@ 0008ce14     libeay32:ec_err.obj
 0002:0001be2c       ??_C@_0BL@EGJNHICO@EC_GROUP_new_by_curve_name?$AA@ 0008ce2c     libeay32:ec_err.obj
 0002:0001be48       ??_C@_0N@BOFGICHI@EC_GROUP_new?$AA@ 0008ce48     libeay32:ec_err.obj
 0002:0001be58       ??_C@_0BN@BIKFBBCG@EC_GROUP_get_trinomial_basis?$AA@ 0008ce58     libeay32:ec_err.obj
 0002:0001be78       ??_C@_0BP@IOAFMBFK@EC_GROUP_get_pentanomial_basis?$AA@ 0008ce78     libeay32:ec_err.obj
 0002:0001be98       ??_C@_0BD@OOGPHLOG@EC_GROUP_get_order?$AA@ 0008ce98     libeay32:ec_err.obj
 0002:0001beac       ??_C@_0BE@NONOHBAO@EC_GROUP_get_degree?$AA@ 0008ceac     libeay32:ec_err.obj
 0002:0001bec0       ??_C@_0BH@GFKDJAMD@EC_GROUP_get_curve_GFp?$AA@ 0008cec0     libeay32:ec_err.obj
 0002:0001bed8       ??_C@_0BI@KBEFHMNO@EC_GROUP_get_curve_GF2m?$AA@ 0008ced8     libeay32:ec_err.obj
 0002:0001bef0       ??_C@_0BG@FGHCOKEJ@EC_GROUP_get_cofactor?$AA@ 0008cef0     libeay32:ec_err.obj
 0002:0001bf08       ??_C@_0BI@JLPIENJE@EC_GROUP_get0_generator?$AA@ 0008cf08     libeay32:ec_err.obj
 0002:0001bf20       ??_C@_0O@DCFPFPGD@EC_GROUP_copy?$AA@ 0008cf20     libeay32:ec_err.obj
 0002:0001bf30       ??_C@_0BM@EDPHFFHB@EC_GROUP_check_discriminant?$AA@ 0008cf30     libeay32:ec_err.obj
 0002:0001bf4c       ??_C@_0P@JGNGIAMK@EC_GROUP_check?$AA@ 0008cf4c     libeay32:ec_err.obj
 0002:0001bf5c       ??_C@_0CN@HEIOPOMJ@EC_GFP_SIMPLE_SET_COMPRESSED_COO@ 0008cf5c     libeay32:ec_err.obj
 0002:0001bf8c       ??_C@_0CJ@NNCOMCAA@ec_GFp_simple_set_compressed_coo@ 0008cf8c     libeay32:ec_err.obj
 0002:0001bfb8       ??_C@_0CP@IIHPGJL@EC_GFP_SIMPLE_POINT_SET_AFFINE_C@ 0008cfb8     libeay32:ec_err.obj
 0002:0001bfe8       ??_C@_0CL@CECOKBPF@ec_GFp_simple_point_set_affine_c@ 0008cfe8     libeay32:ec_err.obj
 0002:0001c014       ??_C@_0CP@DHLCDGIL@EC_GFP_SIMPLE_POINT_GET_AFFINE_C@ 0008d014     libeay32:ec_err.obj
 0002:0001c044       ??_C@_0CL@CFAAIGCK@ec_GFp_simple_point_get_affine_c@ 0008d044     libeay32:ec_err.obj
 0002:0001c070       ??_C@_0CB@KBGPMJPK@ec_GFp_simple_points_make_affine@ 0008d070     libeay32:ec_err.obj
 0002:0001c094       ??_C@_0BI@JEGCEGAG@ec_GFp_simple_point2oct?$AA@ 0008d094     libeay32:ec_err.obj
 0002:0001c0ac       ??_C@_0BI@NBJJENKN@ec_GFp_simple_oct2point?$AA@ 0008d0ac     libeay32:ec_err.obj
 0002:0001c0c4       ??_C@_0BK@COPKPLKN@ec_GFp_simple_make_affine?$AA@ 0008d0c4     libeay32:ec_err.obj
 0002:0001c0e0       ??_C@_0CC@KAJMPEKM@EC_GFP_SIMPLE_GROUP_SET_GENERATO@ 0008d0e0     libeay32:ec_err.obj
 0002:0001c104       ??_C@_0CC@MGNNAOCM@EC_GFP_SIMPLE_GROUP_SET_CURVE_GF@ 0008d104     libeay32:ec_err.obj
 0002:0001c128       ??_C@_0BO@FHKAIIJJ@ec_GFp_simple_group_set_curve?$AA@ 0008d128     libeay32:ec_err.obj
 0002:0001c148       ??_C@_0CH@CICCEFIM@ec_GFp_simple_group_check_discri@ 0008d148     libeay32:ec_err.obj
 0002:0001c170       ??_C@_0BM@NNIDGPMA@ec_GFp_nist_group_set_curve?$AA@ 0008d170     libeay32:ec_err.obj
 0002:0001c18c       ??_C@_0BG@NIJIDFMF@ec_GFp_nist_field_sqr?$AA@ 0008d18c     libeay32:ec_err.obj
 0002:0001c1a4       ??_C@_0BG@LLBGICGK@ec_GFp_nist_field_mul?$AA@ 0008d1a4     libeay32:ec_err.obj
 0002:0001c1bc       ??_C@_0CN@IJAIDOCA@ec_GFp_nistp521_point_get_affine@ 0008d1bc     libeay32:ec_err.obj
 0002:0001c1ec       ??_C@_0BL@HENFHPJA@ec_GFp_nistp521_points_mul?$AA@ 0008d1ec     libeay32:ec_err.obj
 0002:0001c208       ??_C@_0CA@CIHPIMLA@ec_GFp_nistp521_group_set_curve?$AA@ 0008d208     libeay32:ec_err.obj
 0002:0001c228       ??_C@_0CN@JJPHEEFL@ec_GFp_nistp256_point_get_affine@ 0008d228     libeay32:ec_err.obj
 0002:0001c258       ??_C@_0BL@PHGKNMBC@ec_GFp_nistp256_points_mul?$AA@ 0008d258     libeay32:ec_err.obj
 0002:0001c274       ??_C@_0CA@GCCLKLAM@ec_GFp_nistp256_group_set_curve?$AA@ 0008d274     libeay32:ec_err.obj
 0002:0001c294       ??_C@_0CN@DMKNIHGM@ec_GFp_nistp224_point_get_affine@ 0008d294     libeay32:ec_err.obj
 0002:0001c2c4       ??_C@_0BL@PCPLMDJJ@ec_GFp_nistp224_points_mul?$AA@ 0008d2c4     libeay32:ec_err.obj
 0002:0001c2e0       ??_C@_0CA@CNMBELME@ec_GFp_nistp224_group_set_curve?$AA@ 0008d2e0     libeay32:ec_err.obj
 0002:0001c300       ??_C@_0CA@DHAFKAHK@EC_GFP_MONT_GROUP_SET_CURVE_GFP?$AA@ 0008d300     libeay32:ec_err.obj
 0002:0001c320       ??_C@_0BM@GNHNLMD@ec_GFp_mont_group_set_curve?$AA@ 0008d320     libeay32:ec_err.obj
 0002:0001c33c       ??_C@_0BG@MCAMNCKO@ec_GFp_mont_field_sqr?$AA@ 0008d33c     libeay32:ec_err.obj
 0002:0001c354       ??_C@_0BN@OCMPOINJ@ec_GFp_mont_field_set_to_one?$AA@ 0008d354     libeay32:ec_err.obj
 0002:0001c374       ??_C@_0BG@KBICGFAB@ec_GFp_mont_field_mul?$AA@ 0008d374     libeay32:ec_err.obj
 0002:0001c38c       ??_C@_0BJ@PGEBCHNN@ec_GFp_mont_field_encode?$AA@ 0008d38c     libeay32:ec_err.obj
 0002:0001c3a8       ??_C@_0BJ@DKPBNMKK@ec_GFp_mont_field_decode?$AA@ 0008d3a8     libeay32:ec_err.obj
 0002:0001c3c4       ??_C@_0CK@EMOLEAE@ec_GF2m_simple_set_compressed_co@ 0008d3c4     libeay32:ec_err.obj
 0002:0001c3f0       ??_C@_0CM@PJCEGJBI@ec_GF2m_simple_point_set_affine_@ 0008d3f0     libeay32:ec_err.obj
 0002:0001c41c       ??_C@_0CM@PIAKEOMH@ec_GF2m_simple_point_get_affine_@ 0008d41c     libeay32:ec_err.obj
 0002:0001c448       ??_C@_0BJ@BCDOEDMD@ec_GF2m_simple_point2oct?$AA@ 0008d448     libeay32:ec_err.obj
 0002:0001c464       ??_C@_0BJ@FHMFEIGI@ec_GF2m_simple_oct2point?$AA@ 0008d464     libeay32:ec_err.obj
 0002:0001c480       ??_C@_0BP@LKAGFPMG@ec_GF2m_simple_group_set_curve?$AA@ 0008d480     libeay32:ec_err.obj
 0002:0001c4a0       ??_C@_0CI@HLAFKCG@ec_GF2m_simple_group_check_discr@ 0008d4a0     libeay32:ec_err.obj
 0002:0001c4c8       ??_C@_0CC@ICBKMHKB@EC_GF2M_MONTGOMERY_POINT_MULTIPL@ 0008d4c8     libeay32:ec_err.obj
 0002:0001c4ec       ??_C@_0BE@IGKCIBBP@EC_EX_DATA_set_data?$AA@ 0008d4ec     libeay32:ec_err.obj
 0002:0001c500       ??_C@_0BL@HBOBKPAK@EC_ASN1_PKPARAMETERS2GROUP?$AA@ 0008d500     libeay32:ec_err.obj
 0002:0001c51c       ??_C@_0BJ@GDKAGOMP@EC_ASN1_PARAMETERS2GROUP?$AA@ 0008d51c     libeay32:ec_err.obj
 0002:0001c538       ??_C@_0BL@CHLBAFFP@EC_ASN1_GROUP2PKPARAMETERS?$AA@ 0008d538     libeay32:ec_err.obj
 0002:0001c554       ??_C@_0BJ@OBNMEFJL@EC_ASN1_GROUP2PARAMETERS?$AA@ 0008d554     libeay32:ec_err.obj
 0002:0001c570       ??_C@_0BG@DBLOBDEO@EC_ASN1_GROUP2FIELDID?$AA@ 0008d570     libeay32:ec_err.obj
 0002:0001c588       ??_C@_0BE@MCAODDGE@EC_ASN1_GROUP2CURVE?$AA@ 0008d588     libeay32:ec_err.obj
 0002:0001c59c       ??_C@_0BB@HJLHKBLC@ECP_NIST_MOD_521?$AA@ 0008d59c     libeay32:ec_err.obj
 0002:0001c5b0       ??_C@_0BB@KOGOBJEJ@ECP_NIST_MOD_256?$AA@ 0008d5b0     libeay32:ec_err.obj
 0002:0001c5c4       ??_C@_0BB@JJBHGNEO@ECP_NIST_MOD_224?$AA@ 0008d5c4     libeay32:ec_err.obj
 0002:0001c5d8       ??_C@_0BB@NBKNIKMH@ECP_NIST_MOD_192?$AA@ 0008d5d8     libeay32:ec_err.obj
 0002:0001c5ec       ??_C@_0BI@PBKJPLGO@ECPKParameters_print_fp?$AA@ 0008d5ec     libeay32:ec_err.obj
 0002:0001c604       ??_C@_0BF@EIEGNLJB@ECPKParameters_print?$AA@ 0008d604     libeay32:ec_err.obj
 0002:0001c61c       ??_C@_0BG@IABNBFJJ@ECParameters_print_fp?$AA@ 0008d61c     libeay32:ec_err.obj
 0002:0001c634       ??_C@_0BD@KEAOIMB@ECParameters_print?$AA@ 0008d634     libeay32:ec_err.obj
 0002:0001c648       ??_C@_0BB@BEIICLPB@ECKEY_TYPE2PARAM?$AA@ 0008d648     libeay32:ec_err.obj
 0002:0001c65c       ??_C@_0BB@NHJCOGGG@ECKEY_PUB_ENCODE?$AA@ 0008d65c     libeay32:ec_err.obj
 0002:0001c670       ??_C@_0BB@BLCCBNBB@ECKEY_PUB_DECODE?$AA@ 0008d670     libeay32:ec_err.obj
 0002:0001c684       ??_C@_0BC@BEKBNPBE@ECKEY_PRIV_ENCODE?$AA@ 0008d684     libeay32:ec_err.obj
 0002:0001c698       ??_C@_0BC@NIBBCEGD@ECKEY_PRIV_DECODE?$AA@ 0008d698     libeay32:ec_err.obj
 0002:0001c6ac       ??_C@_0BD@KKLENDIA@ECKEY_PARAM_DECODE?$AA@ 0008d6ac     libeay32:ec_err.obj
 0002:0001c6c0       ??_C@_0BB@MPLEGNDM@ECKEY_PARAM2TYPE?$AA@ 0008d6c0     libeay32:ec_err.obj
 0002:0001c6d4       ??_C@_0BA@GLMHNHNL@DO_EC_KEY_PRINT?$AA@ 0008d6d4     libeay32:ec_err.obj
 0002:0001c6e4       ??_C@_0BB@OCGALHMG@d2i_ECPrivateKey?$AA@ 0008d6e4     libeay32:ec_err.obj
 0002:0001c6f8       ??_C@_0BD@GMAHPMNO@d2i_ECPKParameters?$AA@ 0008d6f8     libeay32:ec_err.obj
 0002:0001c70c       ??_C@_0BB@IHNDOJLJ@d2i_ECParameters?$AA@ 0008d70c     libeay32:ec_err.obj
 0002:0001c720       ??_C@_0N@DCDCJEGB@COMPUTE_WNAF?$AA@ 0008d720     libeay32:ec_err.obj
 0002:0001c730       ??_C@_0M@DFJLABBI@BN_TO_FELEM?$AA@ 0008d730     libeay32:ec_err.obj
 0002:0001c73c       ??_C@_0BD@GGOPPIG@zlib?5not?5supported?$AA@ 0008d73c     libeay32:comp_err.obj
 0002:0001c750       ??_C@_0BD@DEBFKLFN@zlib?5inflate?5error?$AA@ 0008d750     libeay32:comp_err.obj
 0002:0001c764       ??_C@_0BD@GECGGEKF@zlib?5deflate?5error?$AA@ 0008d764     libeay32:comp_err.obj
 0002:0001c778       ??_C@_0P@PANALKMF@BIO_ZLIB_WRITE?$AA@ 0008d778     libeay32:comp_err.obj
 0002:0001c788       ??_C@_0O@JIGAJHDA@BIO_ZLIB_READ?$AA@ 0008d788     libeay32:comp_err.obj
 0002:0001c798       ??_C@_0N@MFFBFEDL@BIO_ZLIB_NEW?$AA@ 0008d798     libeay32:comp_err.obj
 0002:0001c7a8       ??_C@_0P@ENKEMCPH@BIO_ZLIB_FLUSH?$AA@ 0008d7a8     libeay32:comp_err.obj
 0002:0001c7b8       ??_C@_0BL@GHFOLNLN@no?5dynlock?5create?5callback?$AA@ 0008d7b8     libeay32:cpt_err.obj
 0002:0001c7d4       ??_C@_0BI@HFMBHDCA@fips?5mode?5not?5supported?$AA@ 0008d7d4     libeay32:cpt_err.obj
 0002:0001c7ec       ??_C@_0BA@NPGJKDBD@INT_NEW_EX_DATA?$AA@ 0008d7ec     libeay32:cpt_err.obj
 0002:0001c7fc       ??_C@_0BB@EOLKIEIJ@INT_FREE_EX_DATA?$AA@ 0008d7fc     libeay32:cpt_err.obj
 0002:0001c810       ??_C@_0BA@HJHEJEMA@INT_DUP_EX_DATA?$AA@ 0008d810     libeay32:cpt_err.obj
 0002:0001c820       ??_C@_0O@HNLOFNHK@FIPS_mode_set?$AA@ 0008d820     libeay32:cpt_err.obj
 0002:0001c830       ??_C@_0O@MGHCLFMH@DEF_GET_CLASS?$AA@ 0008d830     libeay32:cpt_err.obj
 0002:0001c840       ??_C@_0O@LHHGGGNF@DEF_ADD_INDEX?$AA@ 0008d840     libeay32:cpt_err.obj
 0002:0001c850       ??_C@_0BD@NOOFBIMD@CRYPTO_set_ex_data?$AA@ 0008d850     libeay32:cpt_err.obj
 0002:0001c864       ??_C@_0BG@MHMFFADP@CRYPTO_get_new_lockid?$AA@ 0008d864     libeay32:cpt_err.obj
 0002:0001c87c       ??_C@_0BJ@CCOEIIFC@CRYPTO_get_new_dynlockid?$AA@ 0008d87c     libeay32:cpt_err.obj
 0002:0001c898       ??_C@_0BI@MHIJLMOF@CRYPTO_get_ex_new_index?$AA@ 0008d898     libeay32:cpt_err.obj
 0002:0001c8b0       ??_C@_0BG@NAOLEILH@variable?5has?5no?5value?$AA@ 0008d8b0     libeay32:conf_err.obj
 0002:0001c8c8       ??_C@_0BE@KOBCLJNN@unknown?5module?5name?$AA@ 0008d8c8     libeay32:conf_err.obj
 0002:0001c8dc       ??_C@_0BN@CFCNACBC@unable?5to?5create?5new?5section?$AA@ 0008d8dc     libeay32:conf_err.obj
 0002:0001c8fc       ??_C@_08JEIPHCP@no?5value?$AA@ 0008d8fc     libeay32:conf_err.obj
 0002:0001c908       ??_C@_0L@LDHPJCAE@no?5section?$AA@ 0008d908     libeay32:conf_err.obj
 0002:0001c914       ??_C@_0CA@NLBFLDPJ@no?5conf?5or?5environment?5variable?$AA@ 0008d914     libeay32:conf_err.obj
 0002:0001c934       ??_C@_07OJNHGLOG@no?5conf?$AA@ 0008d934     libeay32:conf_err.obj
 0002:0001c93c       ??_C@_0P@ECIPDLAO@no?5close?5brace?$AA@ 0008d93c     libeay32:conf_err.obj
 0002:0001c94c       ??_C@_0BM@JOLMIONN@module?5initialization?5error?$AA@ 0008d94c     libeay32:conf_err.obj
 0002:0001c968       ??_C@_0BG@OKCBACKF@missing?5init?5function?$AA@ 0008d968     libeay32:conf_err.obj
 0002:0001c980       ??_C@_0BI@KJPGAHFP@missing?5finish?5function?$AA@ 0008d980     libeay32:conf_err.obj
 0002:0001c998       ??_C@_0BD@CENOJJDH@missing?5equal?5sign?$AA@ 0008d998     libeay32:conf_err.obj
 0002:0001c9ac       ??_C@_0BN@LNHOFFHB@missing?5close?5square?5bracket?$AA@ 0008d9ac     libeay32:conf_err.obj
 0002:0001c9cc       ??_C@_0BE@ONKINGND@list?5cannot?5be?5null?$AA@ 0008d9cc     libeay32:conf_err.obj
 0002:0001c9e0       ??_C@_0BC@MMAHEKMC@error?5loading?5dso?$AA@ 0008d9e0     libeay32:conf_err.obj
 0002:0001c9f4       ??_C@_08BBDGILDN@STR_COPY?$AA@ 0008d9f4     libeay32:conf_err.obj
 0002:0001ca00       ??_C@_09JEJJGJM@NCONF_new?$AA@ 0008da00     libeay32:conf_err.obj
 0002:0001ca0c       ??_C@_0O@PJAMGPBO@NCONF_load_fp?$AA@ 0008da0c     libeay32:conf_err.obj
 0002:0001ca1c       ??_C@_0P@IEAGEJMM@NCONF_load_bio?$AA@ 0008da1c     libeay32:conf_err.obj
 0002:0001ca2c       ??_C@_0L@PFPHFEJM@NCONF_load?$AA@ 0008da2c     libeay32:conf_err.obj
 0002:0001ca38       ??_C@_0BB@OFIAOKID@NCONF_get_string?$AA@ 0008da38     libeay32:conf_err.obj
 0002:0001ca4c       ??_C@_0BC@INLNGICP@NCONF_get_section?$AA@ 0008da4c     libeay32:conf_err.obj
 0002:0001ca60       ??_C@_0BD@FFHIPMOB@NCONF_get_number_e?$AA@ 0008da60     libeay32:conf_err.obj
 0002:0001ca74       ??_C@_0BB@CGIEEKIP@NCONF_get_number?$AA@ 0008da74     libeay32:conf_err.obj
 0002:0001ca88       ??_C@_0O@LOFEGBC@NCONF_dump_fp?$AA@ 0008da88     libeay32:conf_err.obj
 0002:0001ca98       ??_C@_0P@INECOMMO@NCONF_dump_bio?$AA@ 0008da98     libeay32:conf_err.obj
 0002:0001caa8       ??_C@_0L@HLFJHMEO@MODULE_RUN?$AA@ 0008daa8     libeay32:conf_err.obj
 0002:0001cab4       ??_C@_0BA@DFFKJEMO@MODULE_LOAD_DSO?$AA@ 0008dab4     libeay32:conf_err.obj
 0002:0001cac4       ??_C@_0M@NKKPMNDD@MODULE_INIT?$AA@ 0008dac4     libeay32:conf_err.obj
 0002:0001cad0       ??_C@_0N@GOMHLHAF@DEF_LOAD_BIO?$AA@ 0008dad0     libeay32:conf_err.obj
 0002:0001cae0       ??_C@_08JKMPBPGH@DEF_LOAD?$AA@ 0008dae0     libeay32:conf_err.obj
 0002:0001caec       ??_C@_0BA@EMPHLGPL@CONF_parse_list?$AA@ 0008daec     libeay32:conf_err.obj
 0002:0001cafc       ??_C@_0BC@FCDKCHEN@CONF_modules_load?$AA@ 0008dafc     libeay32:conf_err.obj
 0002:0001cb10       ??_C@_0N@KNOBPCCK@CONF_load_fp?$AA@ 0008db10     libeay32:conf_err.obj
 0002:0001cb20       ??_C@_0O@KFOGFAOE@CONF_load_bio?$AA@ 0008db20     libeay32:conf_err.obj
 0002:0001cb30       ??_C@_09PJMELPOP@CONF_load?$AA@ 0008db30     libeay32:conf_err.obj
 0002:0001cb3c       ??_C@_0N@FPAINLCG@CONF_dump_fp?$AA@ 0008db3c     libeay32:conf_err.obj
 0002:0001cb4c       ??_C@_0L@OIMFIJMM@wrong?5type?$AA@ 0008db4c     libeay32:asn1_err.obj
 0002:0001cb58       ??_C@_09FHDDBMMO@wrong?5tag?$AA@ 0008db58     libeay32:asn1_err.obj
 0002:0001cb64       ??_C@_0BG@NPKECJFG@wrong?5public?5key?5type?$AA@ 0008db64     libeay32:asn1_err.obj
 0002:0001cb7c       ??_C@_0BM@ONPEBOBM@unsupported?5public?5key?5type?$AA@ 0008db7c     libeay32:asn1_err.obj
 0002:0001cb98       ??_C@_0CB@JCOCHIMG@unsupported?5encryption?5algorithm@ 0008db98     libeay32:asn1_err.obj
 0002:0001cbbc       ??_C@_0BD@ECLJDLBJ@unsupported?5cipher?$AA@ 0008dbbc     libeay32:asn1_err.obj
 0002:0001cbd0       ??_C@_0CA@KHOGLJGI@unsupported?5any?5defined?5by?5type?$AA@ 0008dbd0     libeay32:asn1_err.obj
 0002:0001cbf0       ??_C@_0O@OOPMEED@unkown?5format?$AA@ 0008dbf0     libeay32:asn1_err.obj
 0002:0001cc00       ??_C@_0M@NDAIKBNL@unknown?5tag?$AA@ 0008dc00     libeay32:asn1_err.obj
 0002:0001cc0c       ??_C@_0BM@FGDBMFBO@unknown?5signature?5algorithm?$AA@ 0008dc0c     libeay32:asn1_err.obj
 0002:0001cc28       ??_C@_0BI@HEKKKILC@unknown?5public?5key?5type?$AA@ 0008dc28     libeay32:asn1_err.obj
 0002:0001cc40       ??_C@_0BE@IIDOFNCB@unknown?5object?5type?$AA@ 0008dc40     libeay32:asn1_err.obj
 0002:0001cc54       ??_C@_0CB@FPJIEFKF@unknown?5message?5digest?5algorithm@ 0008dc54     libeay32:asn1_err.obj
 0002:0001cc78       ??_C@_0P@JBFKBJMG@unknown?5format?$AA@ 0008dc78     libeay32:asn1_err.obj
 0002:0001cc88       ??_C@_0CA@KFOGBPLD@universalstring?5is?5wrong?5length?$AA@ 0008dc88     libeay32:asn1_err.obj
 0002:0001cca8       ??_C@_0P@GFLKNBFP@unexpected?5eoc?$AA@ 0008dca8     libeay32:asn1_err.obj
 0002:0001ccb8       ??_C@_0CB@OFDMIBCA@unable?5to?5decode?5rsa?5private?5key@ 0008dcb8     libeay32:asn1_err.obj
 0002:0001ccdc       ??_C@_0BJ@FGOOGDNL@unable?5to?5decode?5rsa?5key?$AA@ 0008dcdc     libeay32:asn1_err.obj
 0002:0001ccf8       ??_C@_0BF@EOIFAKLF@type?5not?5constructed?$AA@ 0008dcf8     libeay32:asn1_err.obj
 0002:0001cd10       ??_C@_08JAFCJEPG@too?5long?$AA@ 0008dd10     libeay32:asn1_err.obj
 0002:0001cd1c       ??_C@_0BG@FIHEIAJO@time?5not?5ascii?5format?$AA@ 0008dd1c     libeay32:asn1_err.obj
 0002:0001cd34       ??_C@_0DE@FHLPPGDD@the?5asn1?5object?5identifier?5is?5no@ 0008dd34     libeay32:asn1_err.obj
 0002:0001cd68       ??_C@_0BD@FKIMNJNM@tag?5value?5too?5high?$AA@ 0008dd68     libeay32:asn1_err.obj
 0002:0001cd7c       ??_C@_0BB@EJOCOHKH@string?5too?5short?$AA@ 0008dd7c     libeay32:asn1_err.obj
 0002:0001cd90       ??_C@_0BA@JFNIOLAK@string?5too?5long?$AA@ 0008dd90     libeay32:asn1_err.obj
 0002:0001cda0       ??_C@_0BI@ILHKAN@streaming?5not?5supported?$AA@ 0008dda0     libeay32:asn1_err.obj
 0002:0001cdb8       ??_C@_0L@DIDEMPO@short?5line?$AA@ 0008ddb8     libeay32:asn1_err.obj
 0002:0001cdc4       ??_C@_0BN@IFEEBMGE@sequence?5or?5set?5needs?5config?$AA@ 0008ddc4     libeay32:asn1_err.obj
 0002:0001cde4       ??_C@_0BJ@OILHCOMM@sequence?5not?5constructed?$AA@ 0008dde4     libeay32:asn1_err.obj
 0002:0001ce00       ??_C@_0BJ@LFBNHHNL@sequence?5length?5mismatch?$AA@ 0008de00     libeay32:asn1_err.obj
 0002:0001ce1c       ??_C@_0BI@GOIIMJKA@second?5number?5too?5large?$AA@ 0008de1c     libeay32:asn1_err.obj
 0002:0001ce34       ??_C@_0BL@KPMAFJEI@private?5key?5header?5missing?$AA@ 0008de34     libeay32:asn1_err.obj
 0002:0001ce50       ??_C@_0BE@GONLLLGK@odd?5number?5of?5chars?$AA@ 0008de50     libeay32:asn1_err.obj
 0002:0001ce64       ??_C@_0BI@KCMPJCA@object?5not?5ascii?5format?$AA@ 0008de64     libeay32:asn1_err.obj
 0002:0001ce7c       ??_C@_0BF@CCHOLFBJ@null?5is?5wrong?5length?$AA@ 0008de7c     libeay32:asn1_err.obj
 0002:0001ce94       ??_C@_0BI@DFIHABJJ@no?5matching?5choice?5type?$AA@ 0008de94     libeay32:asn1_err.obj
 0002:0001ceac       ??_C@_0BA@NBOKDEIF@not?5enough?5data?$AA@ 0008deac     libeay32:asn1_err.obj
 0002:0001cebc       ??_C@_0BB@MGCBBDEB@not?5ascii?5format?$AA@ 0008debc     libeay32:asn1_err.obj
 0002:0001ced0       ??_C@_0BD@MNEEEEPB@non?5hex?5characters?$AA@ 0008ded0     libeay32:asn1_err.obj
 0002:0001cee4       ??_C@_0BD@IJCHMKNH@nested?5asn1?5string?$AA@ 0008dee4     libeay32:asn1_err.obj
 0002:0001cef8       ??_C@_0BC@FJKJBBMN@mstring?5wrong?5tag?$AA@ 0008def8     libeay32:asn1_err.obj
 0002:0001cf0c       ??_C@_0BG@HBALPIGP@mstring?5not?5universal?$AA@ 0008df0c     libeay32:asn1_err.obj
 0002:0001cf24       ??_C@_0BG@OJFAFJNH@missing?5second?5number?$AA@ 0008df24     libeay32:asn1_err.obj
 0002:0001cf3c       ??_C@_0M@MKABCMG@missing?5eoc?$AA@ 0008df3c     libeay32:asn1_err.obj
 0002:0001cf48       ??_C@_0L@IJFCOOII@list?5error?$AA@ 0008df48     libeay32:asn1_err.obj
 0002:0001cf54       ??_C@_0N@MAMJKBIE@length?5error?$AA@ 0008df54     libeay32:asn1_err.obj
 0002:0001cf64       ??_C@_0N@MBEIJJJI@iv?5too?5large?$AA@ 0008df64     libeay32:asn1_err.obj
 0002:0001cf74       ??_C@_0BD@CADAIHCD@invalid?5utf8string?$AA@ 0008df74     libeay32:asn1_err.obj
 0002:0001cf88       ??_C@_0BP@NLLGLGJG@invalid?5universalstring?5length?$AA@ 0008df88     libeay32:asn1_err.obj
 0002:0001cfa8       ??_C@_0BE@PJIGHIDK@invalid?5time?5format?$AA@ 0008dfa8     libeay32:asn1_err.obj
 0002:0001cfbc       ??_C@_0BC@JCCFGDFH@invalid?5separator?$AA@ 0008dfbc     libeay32:asn1_err.obj
 0002:0001cfd0       ??_C@_0BI@EPBGLAAG@invalid?5object?5encoding?$AA@ 0008dfd0     libeay32:asn1_err.obj
 0002:0001cfe8       ??_C@_0BB@HBLKNPLB@invalid?5modifier?$AA@ 0008dfe8     libeay32:asn1_err.obj
 0002:0001cffc       ??_C@_0O@KPBDNCBI@invalid?5digit?$AA@ 0008dffc     libeay32:asn1_err.obj
 0002:0001d00c       ??_C@_0BJ@DGKAOOKA@invalid?5bmpstring?5length?$AA@ 0008e00c     libeay32:asn1_err.obj
 0002:0001d028       ??_C@_0BL@JBPGNNHP@integer?5too?5large?5for?5long?$AA@ 0008e028     libeay32:asn1_err.obj
 0002:0001d044       ??_C@_0BJ@IOJNPFPJ@integer?5not?5ascii?5format?$AA@ 0008e044     libeay32:asn1_err.obj
 0002:0001d060       ??_C@_0BD@FBIAEBKG@illegal?5time?5value?$AA@ 0008e060     libeay32:asn1_err.obj
 0002:0001d074       ??_C@_0BD@KMIMMNBH@illegal?5tagged?5any?$AA@ 0008e074     libeay32:asn1_err.obj
 0002:0001d088       ??_C@_0CB@JCNOHDMC@illegal?5options?5on?5item?5template@ 0008e088     libeay32:asn1_err.obj
 0002:0001d0ac       ??_C@_0BF@JJCOPKAM@illegal?5optional?5any?$AA@ 0008e0ac     libeay32:asn1_err.obj
 0002:0001d0c4       ??_C@_0P@HMGBAHDF@illegal?5object?$AA@ 0008e0c4     libeay32:asn1_err.obj
 0002:0001d0d4       ??_C@_0BD@CIHPLDOH@illegal?5null?5value?$AA@ 0008e0d4     libeay32:asn1_err.obj
 0002:0001d0e8       ??_C@_0N@KECKGDAL@illegal?5null?$AA@ 0008e0e8     libeay32:asn1_err.obj
 0002:0001d0f8       ??_C@_0BH@NHBAOIGA@illegal?5nested?5tagging?$AA@ 0008e0f8     libeay32:asn1_err.obj
 0002:0001d110       ??_C@_0BA@OBFDOAFI@illegal?5integer?$AA@ 0008e110     libeay32:asn1_err.obj
 0002:0001d120       ??_C@_0BF@HBCDAMIA@illegal?5implicit?5tag?$AA@ 0008e120     libeay32:asn1_err.obj
 0002:0001d138       ??_C@_0M@KIEAGAOM@illegal?5hex?$AA@ 0008e138     libeay32:asn1_err.obj
 0002:0001d144       ??_C@_0P@MDMHHBPK@illegal?5format?$AA@ 0008e144     libeay32:asn1_err.obj
 0002:0001d154       ??_C@_0BD@NEHNCJDJ@illegal?5characters?$AA@ 0008e154     libeay32:asn1_err.obj
 0002:0001d168       ??_C@_0BA@DFDIFKJJ@illegal?5boolean?$AA@ 0008e168     libeay32:asn1_err.obj
 0002:0001d178       ??_C@_0BJ@PIGABEGD@illegal?5bitstring?5format?$AA@ 0008e178     libeay32:asn1_err.obj
 0002:0001d194       ??_C@_0BA@CHHBAPMA@header?5too?5long?$AA@ 0008e194     libeay32:asn1_err.obj
 0002:0001d1a4       ??_C@_0BE@LDHAAJPI@first?5num?5too?5large?$AA@ 0008e1a4     libeay32:asn1_err.obj
 0002:0001d1b8       ??_C@_0O@CLCAFBLA@field?5missing?$AA@ 0008e1b8     libeay32:asn1_err.obj
 0002:0001d1c8       ??_C@_0BN@FKHNFGAN@explicit?5tag?5not?5constructed?$AA@ 0008e1c8     libeay32:asn1_err.obj
 0002:0001d1e8       ??_C@_0BJ@GCMFJMFA@explicit?5length?5mismatch?$AA@ 0008e1e8     libeay32:asn1_err.obj
 0002:0001d204       ??_C@_0BB@JKCOMHFA@expecting?5a?5time?$AA@ 0008e204     libeay32:asn1_err.obj
 0002:0001d218       ??_C@_0BE@BDJOEMIP@expecting?5a?5boolean?$AA@ 0008e218     libeay32:asn1_err.obj
 0002:0001d22c       ??_C@_0BE@OOABJJEB@expecting?5an?5object?$AA@ 0008e22c     libeay32:asn1_err.obj
 0002:0001d240       ??_C@_0BF@LGKJDFOD@expecting?5an?5integer?$AA@ 0008e240     libeay32:asn1_err.obj
 0002:0001d258       ??_C@_0BM@FOGNMFHP@error?5setting?5cipher?5params?$AA@ 0008e258     libeay32:asn1_err.obj
 0002:0001d274       ??_C@_0BK@DGGLLBPO@error?5parsing?5set?5element?$AA@ 0008e274     libeay32:asn1_err.obj
 0002:0001d290       ??_C@_0BG@ILOBFDMI@error?5loading?5section?$AA@ 0008e290     libeay32:asn1_err.obj
 0002:0001d2a8       ??_C@_0BD@MEBNHBIA@error?5getting?5time?$AA@ 0008e2a8     libeay32:asn1_err.obj
 0002:0001d2bc       ??_C@_0CC@LHIFMNG@digest?5and?5key?5type?5not?5supporte@ 0008e2bc     libeay32:asn1_err.obj
 0002:0001d2e0       ??_C@_0P@PBNPDGCA@depth?5exceeded?$AA@ 0008e2e0     libeay32:asn1_err.obj
 0002:0001d2f0       ??_C@_0P@JLNKKAF@decoding?5error?$AA@ 0008e2f0     libeay32:asn1_err.obj
 0002:0001d300       ??_C@_0O@BCDMJPKL@data?5is?5wrong?$AA@ 0008e300     libeay32:asn1_err.obj
 0002:0001d310       ??_C@_0BI@MAIKFKBM@context?5not?5initialised?$AA@ 0008e310     libeay32:asn1_err.obj
 0002:0001d328       ??_C@_0BI@BIBDEEPC@boolean?5is?5wrong?5length?$AA@ 0008e328     libeay32:asn1_err.obj
 0002:0001d340       ??_C@_06OMLIINFC@bn?5lib?$AA@ 0008e340     libeay32:asn1_err.obj
 0002:0001d348       ??_C@_0BK@ENMPILCE@bmpstring?5is?5wrong?5length?$AA@ 0008e348     libeay32:asn1_err.obj
 0002:0001d364       ??_C@_07PAICMJPF@bad?5tag?$AA@ 0008e364     libeay32:asn1_err.obj
 0002:0001d36c       ??_C@_0BC@CABCLHEJ@bad?5password?5read?$AA@ 0008e36c     libeay32:asn1_err.obj
 0002:0001d380       ??_C@_0BC@HBIHOFOK@bad?5object?5header?$AA@ 0008e380     libeay32:asn1_err.obj
 0002:0001d394       ??_C@_09BKPOMKBM@bad?5class?$AA@ 0008e394     libeay32:asn1_err.obj
 0002:0001d3a0       ??_C@_09GMPDBPNM@aux?5error?$AA@ 0008e3a0     libeay32:asn1_err.obj
 0002:0001d3ac       ??_C@_0BF@GKKBDHBB@asn1?5sig?5parse?5error?$AA@ 0008e3ac     libeay32:asn1_err.obj
 0002:0001d3c4       ??_C@_0BB@IDLMABIH@asn1?5parse?5error?$AA@ 0008e3c4     libeay32:asn1_err.obj
 0002:0001d3d8       ??_C@_0O@BJDBCOJG@adding?5object?$AA@ 0008e3d8     libeay32:asn1_err.obj
 0002:0001d3e8       ??_C@_0O@FLJODBAL@X509_PKEY_new?$AA@ 0008e3e8     libeay32:asn1_err.obj
 0002:0001d3f8       ??_C@_08NEGEFFLN@X509_NEW?$AA@ 0008e3f8     libeay32:asn1_err.obj
 0002:0001d404       ??_C@_0BB@PPJFHHNK@X509_NAME_EX_NEW?$AA@ 0008e404     libeay32:asn1_err.obj
 0002:0001d418       ??_C@_0BB@BFNHNGLE@X509_NAME_EX_D2I?$AA@ 0008e418     libeay32:asn1_err.obj
 0002:0001d42c       ??_C@_0BB@EOIAJBFO@X509_NAME_ENCODE?$AA@ 0008e42c     libeay32:asn1_err.obj
 0002:0001d440       ??_C@_0O@PHHKDAFO@X509_INFO_new?$AA@ 0008e440     libeay32:asn1_err.obj
 0002:0001d450       ??_C@_0BG@JPBFPNPM@X509_CRL_add0_revoked?$AA@ 0008e450     libeay32:asn1_err.obj
 0002:0001d468       ??_C@_0O@HBIKGBAK@X509_CINF_NEW?$AA@ 0008e468     libeay32:asn1_err.obj
 0002:0001d478       ??_C@_0BA@OILCEEFJ@SMIME_read_ASN1?$AA@ 0008e478     libeay32:asn1_err.obj
 0002:0001d488       ??_C@_0BB@BKACEBCB@PKCS5_pbkdf2_set?$AA@ 0008e488     libeay32:asn1_err.obj
 0002:0001d49c       ??_C@_0BF@OBLJKNIN@PKCS5_pbe_set0_algor?$AA@ 0008e49c     libeay32:asn1_err.obj
 0002:0001d4b4       ??_C@_0O@PIFNMKLH@PKCS5_pbe_set?$AA@ 0008e4b4     libeay32:asn1_err.obj
 0002:0001d4c4       ??_C@_0BC@MOMACCIG@PKCS5_pbe2_set_iv?$AA@ 0008e4c4     libeay32:asn1_err.obj
 0002:0001d4d8       ??_C@_0O@GFIOGLLN@PARSE_TAGGING?$AA@ 0008e4d8     libeay32:asn1_err.obj
 0002:0001d4e8       ??_C@_0BA@CHDDCHHF@OID_MODULE_INIT?$AA@ 0008e4e8     libeay32:asn1_err.obj
 0002:0001d4f8       ??_C@_08OCDCJFII@LONG_C2I?$AA@ 0008e4f8     libeay32:asn1_err.obj
 0002:0001d504       ??_C@_0P@ONPLPJGI@i2d_RSA_PUBKEY?$AA@ 0008e504     libeay32:asn1_err.obj
 0002:0001d514       ??_C@_0M@JMAEMJEO@i2d_RSA_NET?$AA@ 0008e514     libeay32:asn1_err.obj
 0002:0001d520       ??_C@_0O@HLJNBGGC@i2d_PublicKey?$AA@ 0008e520     libeay32:asn1_err.obj
 0002:0001d530       ??_C@_0P@NGNEJIKC@i2d_PrivateKey?$AA@ 0008e530     libeay32:asn1_err.obj
 0002:0001d540       ??_C@_0O@LEOKMPDM@i2d_EC_PUBKEY?$AA@ 0008e540     libeay32:asn1_err.obj
 0002:0001d550       ??_C@_0P@KLLIPHOA@i2d_DSA_PUBKEY?$AA@ 0008e550     libeay32:asn1_err.obj
 0002:0001d560       ??_C@_0O@FFBCHNNJ@I2D_ASN1_TIME?$AA@ 0008e560     libeay32:asn1_err.obj
 0002:0001d570       ??_C@_0N@CLMCOPEP@i2d_ASN1_SET?$AA@ 0008e570     libeay32:asn1_err.obj
 0002:0001d580       ??_C@_0BE@HGMPHCKG@i2d_ASN1_bio_stream?$AA@ 0008e580     libeay32:asn1_err.obj
 0002:0001d594       ??_C@_0O@GAAIFCCL@d2i_X509_PKEY?$AA@ 0008e594     libeay32:asn1_err.obj
 0002:0001d5a4       ??_C@_0O@PJBLDFKN@D2I_X509_CINF?$AA@ 0008e5a4     libeay32:asn1_err.obj
 0002:0001d5b4       ??_C@_08JEFCIDGB@D2I_X509?$AA@ 0008e5b4     libeay32:asn1_err.obj
 0002:0001d5c0       ??_C@_0O@PKNCGLPC@D2I_RSA_NET_2?$AA@ 0008e5c0     libeay32:asn1_err.obj
 0002:0001d5d0       ??_C@_0M@PHFFEDBA@d2i_RSA_NET?$AA@ 0008e5d0     libeay32:asn1_err.obj
 0002:0001d5dc       ??_C@_0O@FCMIGHNH@d2i_PublicKey?$AA@ 0008e5dc     libeay32:asn1_err.obj
 0002:0001d5ec       ??_C@_0P@GNPGIKNA@d2i_PrivateKey?$AA@ 0008e5ec     libeay32:asn1_err.obj
 0002:0001d5fc       ??_C@_0BD@ICAMCAJL@D2I_NETSCAPE_RSA_2?$AA@ 0008e5fc     libeay32:asn1_err.obj
 0002:0001d610       ??_C@_0BB@DAKIIIBF@d2i_Netscape_RSA?$AA@ 0008e610     libeay32:asn1_err.obj
 0002:0001d624       ??_C@_0BD@LICMAJCE@d2i_AutoPrivateKey?$AA@ 0008e624     libeay32:asn1_err.obj
 0002:0001d638       ??_C@_0BB@LLLJDJLB@D2I_ASN1_UTCTIME?$AA@ 0008e638     libeay32:asn1_err.obj
 0002:0001d64c       ??_C@_0BC@FCANIOOH@d2i_ASN1_UINTEGER?$AA@ 0008e64c     libeay32:asn1_err.obj
 0002:0001d660       ??_C@_0BE@KEADNCBD@d2i_ASN1_type_bytes?$AA@ 0008e660     libeay32:asn1_err.obj
 0002:0001d674       ??_C@_0N@KHHKMCDG@d2i_ASN1_SET?$AA@ 0008e674     libeay32:asn1_err.obj
 0002:0001d684       ??_C@_0BA@LJAFIEM@d2i_ASN1_OBJECT?$AA@ 0008e684     libeay32:asn1_err.obj
 0002:0001d694       ??_C@_0BB@PLBPPAFJ@D2I_ASN1_INTEGER?$AA@ 0008e694     libeay32:asn1_err.obj
 0002:0001d6a8       ??_C@_0BA@JENCNIJP@D2I_ASN1_HEADER?$AA@ 0008e6a8     libeay32:asn1_err.obj
 0002:0001d6b8       ??_C@_0BJ@FOGLHODI@D2I_ASN1_GENERALIZEDTIME?$AA@ 0008e6b8     libeay32:asn1_err.obj
 0002:0001d6d4       ??_C@_0P@LNLNJINM@d2i_ASN1_bytes?$AA@ 0008e6d4     libeay32:asn1_err.obj
 0002:0001d6e4       ??_C@_0BB@IJBCEGPM@d2i_ASN1_BOOLEAN?$AA@ 0008e6e4     libeay32:asn1_err.obj
 0002:0001d6f8       ??_C@_0BE@KOGEEPAO@D2I_ASN1_BIT_STRING?$AA@ 0008e6f8     libeay32:asn1_err.obj
 0002:0001d70c       ??_C@_0N@PPLGMNKG@COLLECT_DATA?$AA@ 0008e70c     libeay32:asn1_err.obj
 0002:0001d71c       ??_C@_0BA@PGGJKADJ@c2i_ASN1_OBJECT?$AA@ 0008e71c     libeay32:asn1_err.obj
 0002:0001d72c       ??_C@_0BB@HNOLIAHG@c2i_ASN1_INTEGER?$AA@ 0008e72c     libeay32:asn1_err.obj
 0002:0001d740       ??_C@_0BE@IJKABKG@c2i_ASN1_BIT_STRING?$AA@ 0008e740     libeay32:asn1_err.obj
 0002:0001d754       ??_C@_0BD@HOPLIKO@BN_to_ASN1_INTEGER?$AA@ 0008e754     libeay32:asn1_err.obj
 0002:0001d768       ??_C@_0BG@JOMKFIC@BN_to_ASN1_ENUMERATED?$AA@ 0008e768     libeay32:asn1_err.obj
 0002:0001d780       ??_C@_09MBGLCMPO@BITSTR_CB?$AA@ 0008e780     libeay32:asn1_err.obj
 0002:0001d78c       ??_C@_0N@HGEFAOJE@BIO_new_NDEF?$AA@ 0008e78c     libeay32:asn1_err.obj
 0002:0001d79c       ??_C@_0P@DEMKDLLB@B64_WRITE_ASN1?$AA@ 0008e79c     libeay32:asn1_err.obj
 0002:0001d7ac       ??_C@_0O@FEFLOMME@B64_READ_ASN1?$AA@ 0008e7ac     libeay32:asn1_err.obj
 0002:0001d7bc       ??_C@_0M@FLJFHODB@ASN1_verify?$AA@ 0008e7bc     libeay32:asn1_err.obj
 0002:0001d7c8       ??_C@_0BB@IOFLGDHP@ASN1_UTCTIME_set?$AA@ 0008e7c8     libeay32:asn1_err.obj
 0002:0001d7dc       ??_C@_0BB@KBMIKJID@ASN1_UTCTIME_adj?$AA@ 0008e7dc     libeay32:asn1_err.obj
 0002:0001d7f0       ??_C@_0BD@PPGFNCOC@ASN1_unpack_string?$AA@ 0008e7f0     libeay32:asn1_err.obj
 0002:0001d804       ??_C@_0BK@BAIAADBG@ASN1_TYPE_get_octetstring?$AA@ 0008e804     libeay32:asn1_err.obj
 0002:0001d820       ??_C@_0BO@BBFILFPI@ASN1_TYPE_get_int_octetstring?$AA@ 0008e820     libeay32:asn1_err.obj
 0002:0001d840       ??_C@_0O@JLLIECHM@ASN1_TIME_set?$AA@ 0008e840     libeay32:asn1_err.obj
 0002:0001d850       ??_C@_0O@LECLIIIA@ASN1_TIME_adj?$AA@ 0008e850     libeay32:asn1_err.obj
 0002:0001d860       ??_C@_0BI@IBDIODGE@ASN1_TEMPLATE_NOEXP_D2I?$AA@ 0008e860     libeay32:asn1_err.obj
 0002:0001d878       ??_C@_0BC@MAPIMCN@ASN1_TEMPLATE_NEW?$AA@ 0008e878     libeay32:asn1_err.obj
 0002:0001d88c       ??_C@_0BF@KIABBLMP@ASN1_TEMPLATE_EX_D2I?$AA@ 0008e88c     libeay32:asn1_err.obj
 0002:0001d8a4       ??_C@_0BF@PEOOGBEK@ASN1_STRING_type_new?$AA@ 0008e8a4     libeay32:asn1_err.obj
 0002:0001d8bc       ??_C@_0BG@HPBLJLKM@ASN1_STRING_TABLE_add?$AA@ 0008e8bc     libeay32:asn1_err.obj
 0002:0001d8d4       ??_C@_0BA@OJKOPFKM@ASN1_STRING_set?$AA@ 0008e8d4     libeay32:asn1_err.obj
 0002:0001d8e4       ??_C@_0O@MDHEIEJD@ASN1_STR2TYPE?$AA@ 0008e8e4     libeay32:asn1_err.obj
 0002:0001d8f4       ??_C@_09KHLDPLKF@ASN1_sign?$AA@ 0008e8f4     libeay32:asn1_err.obj
 0002:0001d900       ??_C@_0BA@BDDKOFAM@ASN1_seq_unpack?$AA@ 0008e900     libeay32:asn1_err.obj
 0002:0001d910       ??_C@_0O@GOCJGBDJ@ASN1_seq_pack?$AA@ 0008e910     libeay32:asn1_err.obj
 0002:0001d920       ??_C@_0BD@LCDDBKEK@ASN1_PKCS5_PBE_SET?$AA@ 0008e920     libeay32:asn1_err.obj
 0002:0001d934       ??_C@_0O@JDMEBLGB@ASN1_PCTX_new?$AA@ 0008e934     libeay32:asn1_err.obj
 0002:0001d944       ??_C@_0BB@PMAOEIM@ASN1_pack_string?$AA@ 0008e944     libeay32:asn1_err.obj
 0002:0001d958       ??_C@_0BB@IAPBHFJD@ASN1_OUTPUT_DATA?$AA@ 0008e958     libeay32:asn1_err.obj
 0002:0001d96c       ??_C@_0BA@EKIOGKFN@ASN1_OBJECT_new?$AA@ 0008e96c     libeay32:asn1_err.obj
 0002:0001d97c       ??_C@_0BE@MAJEFFDP@ASN1_mbstring_ncopy?$AA@ 0008e97c     libeay32:asn1_err.obj
 0002:0001d990       ??_C@_0BB@HPDEMCFL@ASN1_item_verify?$AA@ 0008e990     libeay32:asn1_err.obj
 0002:0001d9a4       ??_C@_0BB@OFFAOBLC@ASN1_item_unpack?$AA@ 0008e9a4     libeay32:asn1_err.obj
 0002:0001d9b8       ??_C@_0BD@DOHFNFJI@ASN1_item_sign_ctx?$AA@ 0008e9b8     libeay32:asn1_err.obj
 0002:0001d9cc       ??_C@_0P@GCFCEBPI@ASN1_item_sign?$AA@ 0008e9cc     libeay32:asn1_err.obj
 0002:0001d9dc       ??_C@_0P@JKDIEPFO@ASN1_item_pack?$AA@ 0008e9dc     libeay32:asn1_err.obj
 0002:0001d9ec       ??_C@_0BB@BEALGICF@ASN1_item_i2d_fp?$AA@ 0008e9ec     libeay32:asn1_err.obj
 0002:0001da00       ??_C@_0BC@DFOAKHOP@ASN1_item_i2d_bio?$AA@ 0008ea00     libeay32:asn1_err.obj
 0002:0001da14       ??_C@_0BB@NCKAJAHC@ASN1_ITEM_EX_D2I?$AA@ 0008ea14     libeay32:asn1_err.obj
 0002:0001da28       ??_C@_0BJ@GMGFBPBH@ASN1_ITEM_EX_COMBINE_NEW?$AA@ 0008ea28     libeay32:asn1_err.obj
 0002:0001da44       ??_C@_0O@PICHNKKH@ASN1_item_dup?$AA@ 0008ea44     libeay32:asn1_err.obj
 0002:0001da54       ??_C@_0BB@INEMMNFE@ASN1_item_d2i_fp?$AA@ 0008ea54     libeay32:asn1_err.obj
 0002:0001da68       ??_C@_0BD@EHPGDINP@ASN1_INTEGER_to_BN?$AA@ 0008ea68     libeay32:asn1_err.obj
 0002:0001da7c       ??_C@_0BB@INGPPNJI@ASN1_INTEGER_set?$AA@ 0008ea7c     libeay32:asn1_err.obj
 0002:0001da90       ??_C@_0M@DAKKNEEP@ASN1_i2d_fp?$AA@ 0008ea90     libeay32:asn1_err.obj
 0002:0001da9c       ??_C@_0N@JIKDIOBF@ASN1_i2d_bio?$AA@ 0008ea9c     libeay32:asn1_err.obj
 0002:0001daac       ??_C@_0BA@HHOEOBLP@ASN1_HEADER_NEW?$AA@ 0008eaac     libeay32:asn1_err.obj
 0002:0001dabc       ??_C@_0BA@JLIGACBL@ASN1_get_object?$AA@ 0008eabc     libeay32:asn1_err.obj
 0002:0001dacc       ??_C@_0BB@KDPFLPEI@ASN1_generate_v3?$AA@ 0008eacc     libeay32:asn1_err.obj
 0002:0001dae0       ??_C@_0BJ@KHKMKKCA@ASN1_GENERALIZEDTIME_set?$AA@ 0008eae0     libeay32:asn1_err.obj
 0002:0001dafc       ??_C@_0BJ@IIDPGANM@ASN1_GENERALIZEDTIME_adj?$AA@ 0008eafc     libeay32:asn1_err.obj
 0002:0001db18       ??_C@_0O@NNCENJDM@ASN1_FIND_END?$AA@ 0008eb18     libeay32:asn1_err.obj
 0002:0001db28       ??_C@_0M@DINHMBPN@ASN1_EX_C2I?$AA@ 0008eb28     libeay32:asn1_err.obj
 0002:0001db34       ??_C@_0BG@DAFILAFG@ASN1_ENUMERATED_to_BN?$AA@ 0008eb34     libeay32:asn1_err.obj
 0002:0001db4c       ??_C@_0BE@IJNOKPHE@ASN1_ENUMERATED_set?$AA@ 0008eb4c     libeay32:asn1_err.obj
 0002:0001db60       ??_C@_08KDKGDJBP@ASN1_dup?$AA@ 0008eb60     libeay32:asn1_err.obj
 0002:0001db6c       ??_C@_0M@JJPCPNMI@ASN1_DO_ADB?$AA@ 0008eb6c     libeay32:asn1_err.obj
 0002:0001db78       ??_C@_0M@JBIDILDB@ASN1_digest?$AA@ 0008eb78     libeay32:asn1_err.obj
 0002:0001db84       ??_C@_0BC@HGCNEDND@ASN1_D2I_READ_BIO?$AA@ 0008eb84     libeay32:asn1_err.obj
 0002:0001db98       ??_C@_0M@KJONHBDO@ASN1_d2i_fp?$AA@ 0008eb98     libeay32:asn1_err.obj
 0002:0001dba4       ??_C@_0BG@BGPEICDG@ASN1_D2I_EX_PRIMITIVE?$AA@ 0008eba4     libeay32:asn1_err.obj
 0002:0001dbbc       ??_C@_0N@IFJIJAOA@ASN1_COLLECT?$AA@ 0008ebbc     libeay32:asn1_err.obj
 0002:0001dbcc       ??_C@_0BH@GHEGGMCL@ASN1_COLLATE_PRIMITIVE?$AA@ 0008ebcc     libeay32:asn1_err.obj
 0002:0001dbe4       ??_C@_0BA@FMGKINFP@ASN1_CHECK_TLEN?$AA@ 0008ebe4     libeay32:asn1_err.obj
 0002:0001dbf4       ??_C@_07OHDJOKAP@ASN1_CB?$AA@ 0008ebf4     libeay32:asn1_err.obj
 0002:0001dbfc       ??_C@_0BI@BKJIJOJH@ASN1_BIT_STRING_set_bit?$AA@ 0008ebfc     libeay32:asn1_err.obj
 0002:0001dc14       ??_C@_0L@GHOFBHJM@APPEND_EXP?$AA@ 0008ec14     libeay32:asn1_err.obj
 0002:0001dc20       ??_C@_0BA@HHEJCDFM@a2i_ASN1_STRING?$AA@ 0008ec20     libeay32:asn1_err.obj
 0002:0001dc30       ??_C@_0BB@KJNHBALB@a2i_ASN1_INTEGER?$AA@ 0008ec30     libeay32:asn1_err.obj
 0002:0001dc44       ??_C@_0BE@FAEKMPBO@a2i_ASN1_ENUMERATED?$AA@ 0008ec44     libeay32:asn1_err.obj
 0002:0001dc58       ??_C@_0BA@MGDDPFAB@a2d_ASN1_OBJECT?$AA@ 0008ec58     libeay32:asn1_err.obj
 0002:0001dc68       ??_C@_0BC@LGGDOKM@wrong?5lookup?5type?$AA@ 0008ec68     libeay32:x509_err.obj
 0002:0001dc7c       ??_C@_0BG@BLGKMDGK@unsupported?5algorithm?$AA@ 0008ec7c     libeay32:x509_err.obj
 0002:0001dc94       ??_C@_0BB@MKMAIEDB@unknown?5trust?5id?$AA@ 0008ec94     libeay32:x509_err.obj
 0002:0001dca8       ??_C@_0BD@OMLBEGJA@unknown?5purpose?5id?$AA@ 0008eca8     libeay32:x509_err.obj
 0002:0001dcbc       ??_C@_0BB@DOJEMIBI@unknown?5key?5type?$AA@ 0008ecbc     libeay32:x509_err.obj
 0002:0001dcd0       ??_C@_0BP@NPEJCEFK@unable?5to?5get?5certs?5public?5key?$AA@ 0008ecd0     libeay32:x509_err.obj
 0002:0001dcf0       ??_C@_0CD@IFPIKENM@unable?5to?5find?5parameters?5in?5cha@ 0008ecf0     libeay32:x509_err.obj
 0002:0001dd14       ??_C@_0N@HBABGHDD@should?5retry?$AA@ 0008ed14     libeay32:x509_err.obj
 0002:0001dd24       ??_C@_0BI@NFEHIHA@public?5key?5encode?5error?$AA@ 0008ed24     libeay32:x509_err.obj
 0002:0001dd3c       ??_C@_0BI@KBFAAFPL@public?5key?5decode?5error?$AA@ 0008ed3c     libeay32:x509_err.obj
 0002:0001dd54       ??_C@_0BN@FFJPEMJE@no?5cert?5set?5for?5us?5to?5verify?$AA@ 0008ed54     libeay32:x509_err.obj
 0002:0001dd74       ??_C@_0BF@DJGECKGG@method?5not?5supported?$AA@ 0008ed74     libeay32:x509_err.obj
 0002:0001dd8c       ??_C@_0BB@NCCHLMLI@loading?5defaults?$AA@ 0008ed8c     libeay32:x509_err.obj
 0002:0001dda0       ??_C@_0BB@EOGOJDLC@loading?5cert?5dir?$AA@ 0008eda0     libeay32:x509_err.obj
 0002:0001ddb4       ??_C@_0BE@OFOHOJCA@key?5values?5mismatch?$AA@ 0008edb4     libeay32:x509_err.obj
 0002:0001ddc8       ??_C@_0BC@KHIFLHIK@key?5type?5mismatch?$AA@ 0008edc8     libeay32:x509_err.obj
 0002:0001dddc       ??_C@_0O@FAFEMPKC@invalid?5trust?$AA@ 0008eddc     libeay32:x509_err.obj
 0002:0001ddec       ??_C@_0BD@EICHIIFO@invalid?5field?5name?$AA@ 0008edec     libeay32:x509_err.obj
 0002:0001de00       ??_C@_0BC@BHJBNJAG@invalid?5directory?$AA@ 0008ee00     libeay32:x509_err.obj
 0002:0001de14       ??_C@_0N@BPKBFJKI@err?5asn1?5lib?$AA@ 0008ee14     libeay32:x509_err.obj
 0002:0001de24       ??_C@_0BL@PBNJDLDJ@cert?5already?5in?5hash?5table?$AA@ 0008ee24     libeay32:x509_err.obj
 0002:0001de40       ??_C@_0BC@JOEACAAF@cant?5check?5dh?5key?$AA@ 0008ee40     libeay32:x509_err.obj
 0002:0001de54       ??_C@_0BE@KBNKALIF@base64?5decode?5error?$AA@ 0008ee54     libeay32:x509_err.obj
 0002:0001de68       ??_C@_0BC@ICNCOGNN@bad?5x509?5filetype?$AA@ 0008ee68     libeay32:x509_err.obj
 0002:0001de7c       ??_C@_0BB@ECODCNHD@X509_verify_cert?$AA@ 0008ee7c     libeay32:x509_err.obj
 0002:0001de90       ??_C@_0P@JBMPNPNG@X509_TRUST_set?$AA@ 0008ee90     libeay32:x509_err.obj
 0002:0001dea0       ??_C@_0P@CANPDIKE@X509_TRUST_add?$AA@ 0008eea0     libeay32:x509_err.obj
 0002:0001deb0       ??_C@_0BB@NLPDCJDM@X509_to_X509_REQ?$AA@ 0008eeb0     libeay32:x509_err.obj
 0002:0001dec4       ??_C@_0BP@KJILIOLI@X509_STORE_CTX_purpose_inherit?$AA@ 0008eec4     libeay32:x509_err.obj
 0002:0001dee4       ??_C@_0BD@NAAKLPIL@X509_STORE_CTX_new?$AA@ 0008eee4     libeay32:x509_err.obj
 0002:0001def8       ??_C@_0BE@ECHADJIO@X509_STORE_CTX_init?$AA@ 0008eef8     libeay32:x509_err.obj
 0002:0001df0c       ??_C@_0BL@BBMOOAME@X509_STORE_CTX_get1_issuer?$AA@ 0008ef0c     libeay32:x509_err.obj
 0002:0001df28       ??_C@_0BD@PCLHBOJG@X509_STORE_add_crl?$AA@ 0008ef28     libeay32:x509_err.obj
 0002:0001df3c       ??_C@_0BE@IJLLNMMB@X509_STORE_add_cert?$AA@ 0008ef3c     libeay32:x509_err.obj
 0002:0001df50       ??_C@_0BB@DHKMDCNJ@X509_REQ_to_X509?$AA@ 0008ef50     libeay32:x509_err.obj
 0002:0001df64       ??_C@_0BC@BCPDEBLL@X509_REQ_print_fp?$AA@ 0008ef64     libeay32:x509_err.obj
 0002:0001df78       ??_C@_0BC@NIGMHFOK@X509_REQ_print_ex?$AA@ 0008ef78     libeay32:x509_err.obj
 0002:0001df8c       ??_C@_0BL@BBAELMEH@X509_REQ_check_private_key?$AA@ 0008ef8c     libeay32:x509_err.obj
 0002:0001dfa8       ??_C@_0BA@GKNPBOHH@X509_PUBKEY_set?$AA@ 0008efa8     libeay32:x509_err.obj
 0002:0001dfb8       ??_C@_0BA@LFKENOLP@X509_PUBKEY_get?$AA@ 0008efb8     libeay32:x509_err.obj
 0002:0001dfc8       ??_C@_0BB@FBMLCAMI@X509_print_ex_fp?$AA@ 0008efc8     libeay32:x509_err.obj
 0002:0001dfdc       ??_C@_0BA@JLIECJBK@X509_NAME_print?$AA@ 0008efdc     libeay32:x509_err.obj
 0002:0001dfec       ??_C@_0BC@CMIEJJP@X509_NAME_oneline?$AA@ 0008efec     libeay32:x509_err.obj
 0002:0001e000       ??_C@_0BL@LBCOMPFN@X509_NAME_ENTRY_set_object?$AA@ 0008f000     libeay32:x509_err.obj
 0002:0001e01c       ??_C@_0BO@OEKCNPAD@X509_NAME_ENTRY_create_by_txt?$AA@ 0008f01c     libeay32:x509_err.obj
 0002:0001e03c       ??_C@_0BO@IBNLHOJC@X509_NAME_ENTRY_create_by_NID?$AA@ 0008f03c     libeay32:x509_err.obj
 0002:0001e05c       ??_C@_0BE@BBPAOGFF@X509_NAME_add_entry?$AA@ 0008f05c     libeay32:x509_err.obj
 0002:0001e070       ??_C@_0BD@INIDJHGH@X509_load_crl_file?$AA@ 0008f070     libeay32:x509_err.obj
 0002:0001e084       ??_C@_0BE@DONBIDEA@X509_load_cert_file?$AA@ 0008f084     libeay32:x509_err.obj
 0002:0001e098       ??_C@_0BI@OGJJMPCK@X509_load_cert_crl_file?$AA@ 0008f098     libeay32:x509_err.obj
 0002:0001e0b0       ??_C@_0BL@MNBNHJHC@X509_get_pubkey_parameters?$AA@ 0008f0b0     libeay32:x509_err.obj
 0002:0001e0cc       ??_C@_0BN@PKALOJGD@X509_EXTENSION_create_by_OBJ?$AA@ 0008f0cc     libeay32:x509_err.obj
 0002:0001e0ec       ??_C@_0BN@NAGBEMGJ@X509_EXTENSION_create_by_NID?$AA@ 0008f0ec     libeay32:x509_err.obj
 0002:0001e10c       ??_C@_0BC@GGIALDFL@X509_CRL_print_fp?$AA@ 0008f10c     libeay32:x509_err.obj
 0002:0001e120       ??_C@_0BH@NDKJLKDD@X509_check_private_key?$AA@ 0008f120     libeay32:x509_err.obj
 0002:0001e138       ??_C@_0BJ@IBAEDLOI@X509_ATTRIBUTE_set1_data?$AA@ 0008f138     libeay32:x509_err.obj
 0002:0001e154       ??_C@_0BJ@JDGBBMO@X509_ATTRIBUTE_get0_data?$AA@ 0008f154     libeay32:x509_err.obj
 0002:0001e170       ??_C@_0BN@BBEGJLKP@X509_ATTRIBUTE_create_by_txt?$AA@ 0008f170     libeay32:x509_err.obj
 0002:0001e190       ??_C@_0BN@FOFFJPDE@X509_ATTRIBUTE_create_by_OBJ?$AA@ 0008f190     libeay32:x509_err.obj
 0002:0001e1b0       ??_C@_0BN@HEDPDKDO@X509_ATTRIBUTE_create_by_NID?$AA@ 0008f1b0     libeay32:x509_err.obj
 0002:0001e1d0       ??_C@_0P@KHNPGPEM@X509v3_add_ext?$AA@ 0008f1d0     libeay32:x509_err.obj
 0002:0001e1e0       ??_C@_0BB@FBCHBIJK@X509at_add1_attr?$AA@ 0008f1e0     libeay32:x509_err.obj
 0002:0001e1f4       ??_C@_0BJ@KPNMIPMN@NETSCAPE_SPKI_b64_encode?$AA@ 0008f1f4     libeay32:x509_err.obj
 0002:0001e210       ??_C@_0BJ@GDGMHELK@NETSCAPE_SPKI_b64_decode?$AA@ 0008f210     libeay32:x509_err.obj
 0002:0001e22c       ??_C@_0BE@GHOMHOGE@GET_CERT_BY_SUBJECT?$AA@ 0008f22c     libeay32:x509_err.obj
 0002:0001e240       ??_C@_08INAAGCJL@DIR_CTRL?$AA@ 0008f240     libeay32:x509_err.obj
 0002:0001e24c       ??_C@_0N@HLJBNGNN@CHECK_POLICY?$AA@ 0008f24c     libeay32:x509_err.obj
 0002:0001e25c       ??_C@_0N@HLEKGBLM@BY_FILE_CTRL?$AA@ 0008f25c     libeay32:x509_err.obj
 0002:0001e26c       ??_C@_0N@HBLPJFKJ@ADD_CERT_DIR?$AA@ 0008f26c     libeay32:x509_err.obj
 0002:0001e27c       ??_C@_0BJ@IPDNKHNA@parameter?5encoding?5error?$AA@ 0008f27c     libeay32:dsa_err.obj
 0002:0001e298       ??_C@_0BE@NIODNBMA@non?5fips?5dsa?5method?$AA@ 0008f298     libeay32:dsa_err.obj
 0002:0001e2ac       ??_C@_0BC@MALNKACF@modulus?5too?5large?$AA@ 0008f2ac     libeay32:dsa_err.obj
 0002:0001e2c0       ??_C@_08CFCABLFO@bn?5error?$AA@ 0008f2c0     libeay32:dsa_err.obj
 0002:0001e2cc       ??_C@_0BA@EKELKIMH@bn?5decode?5error?$AA@ 0008f2cc     libeay32:dsa_err.obj
 0002:0001e2dc       ??_C@_0M@GGMKMBAH@bad?5q?5value?$AA@ 0008f2dc     libeay32:dsa_err.obj
 0002:0001e2e8       ??_C@_06JBNHANLM@SIG_CB?$AA@ 0008f2e8     libeay32:dsa_err.obj
 0002:0001e2f0       ??_C@_0BA@IJFHDLPP@PKEY_DSA_KEYGEN?$AA@ 0008f2f0     libeay32:dsa_err.obj
 0002:0001e300       ??_C@_0O@JPJMLPFD@PKEY_DSA_CTRL?$AA@ 0008f300     libeay32:dsa_err.obj
 0002:0001e310       ??_C@_0BE@IEPLBFML@OLD_DSA_PRIV_DECODE?$AA@ 0008f310     libeay32:dsa_err.obj
 0002:0001e324       ??_C@_0M@OMFGMGFG@i2d_DSA_SIG?$AA@ 0008f324     libeay32:dsa_err.obj
 0002:0001e330       ??_C@_0L@EFDPOKOI@DSA_verify?$AA@ 0008f330     libeay32:dsa_err.obj
 0002:0001e33c       ??_C@_0O@FINEBGNM@DSA_SIG_PRINT?$AA@ 0008f33c     libeay32:dsa_err.obj
 0002:0001e34c       ??_C@_0M@NNDPCMII@DSA_SIG_new?$AA@ 0008f34c     libeay32:dsa_err.obj
 0002:0001e358       ??_C@_0P@DKMFDODF@DSA_sign_setup?$AA@ 0008f358     libeay32:dsa_err.obj
 0002:0001e368       ??_C@_08BADPDAIK@DSA_sign?$AA@ 0008f368     libeay32:dsa_err.obj
 0002:0001e374       ??_C@_0P@EDAMBOLM@DSA_PUB_ENCODE?$AA@ 0008f374     libeay32:dsa_err.obj
 0002:0001e384       ??_C@_0P@IPLMOFML@DSA_PUB_DECODE?$AA@ 0008f384     libeay32:dsa_err.obj
 0002:0001e394       ??_C@_0BA@HCDDHKCG@DSA_PRIV_ENCODE?$AA@ 0008f394     libeay32:dsa_err.obj
 0002:0001e3a4       ??_C@_0BA@LOIDIBFB@DSA_PRIV_DECODE?$AA@ 0008f3a4     libeay32:dsa_err.obj
 0002:0001e3b4       ??_C@_0N@FHNMHEON@DSA_print_fp?$AA@ 0008f3b4     libeay32:dsa_err.obj
 0002:0001e3c4       ??_C@_0BB@GCAFBAKF@DSA_PARAM_DECODE?$AA@ 0008f3c4     libeay32:dsa_err.obj
 0002:0001e3d8       ??_C@_0P@DCBPLEPO@DSA_new_method?$AA@ 0008f3d8     libeay32:dsa_err.obj
 0002:0001e3e8       ??_C@_0BL@DJBIHDLO@DSA_generate_parameters_ex?$AA@ 0008f3e8     libeay32:dsa_err.obj
 0002:0001e404       ??_C@_0BB@GJMCJIMO@DSA_generate_key?$AA@ 0008f404     libeay32:dsa_err.obj
 0002:0001e418       ??_C@_0O@PFFLHJPG@DSA_do_verify?$AA@ 0008f418     libeay32:dsa_err.obj
 0002:0001e428       ??_C@_0M@BALNHNHG@DSA_do_sign?$AA@ 0008f428     libeay32:dsa_err.obj
 0002:0001e434       ??_C@_0BD@IOGFPALM@DSAparams_print_fp?$AA@ 0008f434     libeay32:dsa_err.obj
 0002:0001e448       ??_C@_0BA@KGFLHLGF@DSAparams_print?$AA@ 0008f448     libeay32:dsa_err.obj
 0002:0001e458       ??_C@_0N@MELIHJBG@DO_DSA_PRINT?$AA@ 0008f458     libeay32:dsa_err.obj
 0002:0001e468       ??_C@_0M@IHAHEMAI@d2i_DSA_SIG?$AA@ 0008f468     libeay32:dsa_err.obj
 0002:0001e474       ??_C@_0BL@CLLIPDJK@unsupported?5key?5components?$AA@ 0008f474     libeay32:pem_err.obj
 0002:0001e490       ??_C@_0BH@MFJKMGEH@unsupported?5encryption?$AA@ 0008f490     libeay32:pem_err.obj
 0002:0001e4a8       ??_C@_0N@BPCBMEGI@short?5header?$AA@ 0008f4a8     libeay32:pem_err.obj
 0002:0001e4b8       ??_C@_08HMALDALC@read?5key?$AA@ 0008f4b8     libeay32:pem_err.obj
 0002:0001e4c4       ??_C@_0O@OAPPJFJD@pvk?5too?5short?$AA@ 0008f4c4     libeay32:pem_err.obj
 0002:0001e4d4       ??_C@_0BD@DMFCDEBJ@pvk?5data?5too?5short?$AA@ 0008f4d4     libeay32:pem_err.obj
 0002:0001e4e8       ??_C@_0BC@BIPPFHLM@public?5key?5no?5rsa?$AA@ 0008f4e8     libeay32:pem_err.obj
 0002:0001e4fc       ??_C@_0BK@CGJEFKNB@problems?5getting?5password?$AA@ 0008f4fc     libeay32:pem_err.obj
 0002:0001e518       ??_C@_0O@DKBLDABL@no?5start?5line?$AA@ 0008f518     libeay32:pem_err.obj
 0002:0001e528       ??_C@_0O@CLGKLHJP@not?5proc?5type?$AA@ 0008f528     libeay32:pem_err.obj
 0002:0001e538       ??_C@_0O@BJICLJJL@not?5encrypted?$AA@ 0008f538     libeay32:pem_err.obj
 0002:0001e548       ??_C@_0N@KJIDIIOD@not?5dek?5info?$AA@ 0008f548     libeay32:pem_err.obj
 0002:0001e558       ??_C@_0BC@MBNBFBPC@keyblob?5too?5short?$AA@ 0008f558     libeay32:pem_err.obj
 0002:0001e56c       ??_C@_0BL@PPCIIBKB@keyblob?5header?5parse?5error?$AA@ 0008f56c     libeay32:pem_err.obj
 0002:0001e588       ??_C@_0BE@HFKFNLMC@inconsistent?5header?$AA@ 0008f588     libeay32:pem_err.obj
 0002:0001e59c       ??_C@_0BK@ENINHDOJ@expecting?5public?5key?5blob?$AA@ 0008f59c     libeay32:pem_err.obj
 0002:0001e5b8       ??_C@_0BL@EIEIICDL@expecting?5private?5key?5blob?$AA@ 0008f5b8     libeay32:pem_err.obj
 0002:0001e5d4       ??_C@_0BN@CDIOJAJE@error?5converting?5private?5key?$AA@ 0008f5d4     libeay32:pem_err.obj
 0002:0001e5f4       ??_C@_0P@HLGONDJI@cipher?5is?5null?$AA@ 0008f5f4     libeay32:pem_err.obj
 0002:0001e604       ??_C@_0BC@BHJBCHGF@bio?5write?5failure?$AA@ 0008f604     libeay32:pem_err.obj
 0002:0001e618       ??_C@_0BD@MFHMFAKA@bad?5version?5number?$AA@ 0008f618     libeay32:pem_err.obj
 0002:0001e62c       ??_C@_0BB@BCJFFBLF@bad?5magic?5number?$AA@ 0008f62c     libeay32:pem_err.obj
 0002:0001e640       ??_C@_0N@CABOMBAE@bad?5iv?5chars?$AA@ 0008f640     libeay32:pem_err.obj
 0002:0001e650       ??_C@_0N@GJGMFAMK@bad?5end?5line?$AA@ 0008f650     libeay32:pem_err.obj
 0002:0001e660       ??_C@_0M@CCMJMLK@bad?5decrypt?$AA@ 0008f660     libeay32:pem_err.obj
 0002:0001e66c       ??_C@_0BC@FIJDAKN@bad?5base64?5decode?$AA@ 0008f66c     libeay32:pem_err.obj
 0002:0001e680       ??_C@_0BI@DHEEHMMN@PEM_X509_INFO_write_bio?$AA@ 0008f680     libeay32:pem_err.obj
 0002:0001e698       ??_C@_0BH@POEFLIJP@PEM_X509_INFO_read_bio?$AA@ 0008f698     libeay32:pem_err.obj
 0002:0001e6b0       ??_C@_0BD@DEKDGILE@PEM_X509_INFO_read?$AA@ 0008f6b0     libeay32:pem_err.obj
 0002:0001e6c4       ??_C@_0BF@NOILBCKA@PEM_WRITE_PRIVATEKEY?$AA@ 0008f6c4     libeay32:pem_err.obj
 0002:0001e6dc       ??_C@_0O@CHBCLEEH@PEM_write_bio?$AA@ 0008f6dc     libeay32:pem_err.obj
 0002:0001e6ec       ??_C@_09MOAIHANK@PEM_write?$AA@ 0008f6ec     libeay32:pem_err.obj
 0002:0001e6f8       ??_C@_0O@FJKEJNIO@PEM_SignFinal?$AA@ 0008f6f8     libeay32:pem_err.obj
 0002:0001e708       ??_C@_0N@HGOGKII@PEM_SealInit?$AA@ 0008f708     libeay32:pem_err.obj
 0002:0001e718       ??_C@_0O@OOGAHGDE@PEM_SealFinal?$AA@ 0008f718     libeay32:pem_err.obj
 0002:0001e728       ??_C@_0BE@FKKHCPGB@PEM_READ_PRIVATEKEY?$AA@ 0008f728     libeay32:pem_err.obj
 0002:0001e73c       ??_C@_0BI@MIECOFDA@PEM_READ_BIO_PRIVATEKEY?$AA@ 0008f73c     libeay32:pem_err.obj
 0002:0001e754       ??_C@_0BI@IEHAIIOA@PEM_read_bio_Parameters?$AA@ 0008f754     libeay32:pem_err.obj
 0002:0001e76c       ??_C@_0N@HCPHGIAF@PEM_read_bio?$AA@ 0008f76c     libeay32:pem_err.obj
 0002:0001e77c       ??_C@_08BFLDHDBP@PEM_read?$AA@ 0008f77c     libeay32:pem_err.obj
 0002:0001e788       ??_C@_0M@ELMMDKMC@PEM_PK8PKEY?$AA@ 0008f788     libeay32:pem_err.obj
 0002:0001e794       ??_C@_0BI@EHMJGDHN@PEM_get_EVP_CIPHER_INFO?$AA@ 0008f794     libeay32:pem_err.obj
 0002:0001e7ac       ??_C@_0CA@LGAAOEPD@PEM_F_PEM_WRITE_PKCS8PRIVATEKEY?$AA@ 0008f7ac     libeay32:pem_err.obj
 0002:0001e7cc       ??_C@_0O@JINEELIJ@PEM_do_header?$AA@ 0008f7cc     libeay32:pem_err.obj
 0002:0001e7dc       ??_C@_0BB@HPAACPJ@PEM_def_callback?$AA@ 0008f7dc     libeay32:pem_err.obj
 0002:0001e7f0       ??_C@_0BD@OMDPFNGK@PEM_ASN1_write_bio?$AA@ 0008f7f0     libeay32:pem_err.obj
 0002:0001e804       ??_C@_0P@IAMHDFGD@PEM_ASN1_write?$AA@ 0008f804     libeay32:pem_err.obj
 0002:0001e814       ??_C@_0BC@DOKNMJLF@PEM_ASN1_read_bio?$AA@ 0008f814     libeay32:pem_err.obj
 0002:0001e828       ??_C@_0O@NOHFJOPN@PEM_ASN1_read?$AA@ 0008f828     libeay32:pem_err.obj
 0002:0001e838       ??_C@_07DPBPIGIN@LOAD_IV?$AA@ 0008f838     libeay32:pem_err.obj
 0002:0001e840       ??_C@_0M@MHJNPCIP@i2b_PVK_bio?$AA@ 0008f840     libeay32:pem_err.obj
 0002:0001e84c       ??_C@_07NLJBHFDI@I2B_PVK?$AA@ 0008f84c     libeay32:pem_err.obj
 0002:0001e854       ??_C@_0O@BJHOEGAF@DO_PVK_HEADER?$AA@ 0008f854     libeay32:pem_err.obj
 0002:0001e864       ??_C@_0M@BNIBCFCG@DO_PVK_BODY?$AA@ 0008f864     libeay32:pem_err.obj
 0002:0001e870       ??_C@_0O@NDAGLHK@DO_PK8PKEY_FP?$AA@ 0008f870     libeay32:pem_err.obj
 0002:0001e880       ??_C@_0L@KCJOBILA@DO_PK8PKEY?$AA@ 0008f880     libeay32:pem_err.obj
 0002:0001e88c       ??_C@_0P@OFONBJGL@DO_BLOB_HEADER?$AA@ 0008f88c     libeay32:pem_err.obj
 0002:0001e89c       ??_C@_0L@MPFEPBJC@DO_B2I_BIO?$AA@ 0008f89c     libeay32:pem_err.obj
 0002:0001e8a8       ??_C@_06KBNDMEEM@DO_B2I?$AA@ 0008f8a8     libeay32:pem_err.obj
 0002:0001e8b0       ??_C@_0BH@EPJFGPLK@d2i_PKCS8PrivateKey_fp?$AA@ 0008f8b0     libeay32:pem_err.obj
 0002:0001e8c8       ??_C@_0BI@FFALLHDN@d2i_PKCS8PrivateKey_bio?$AA@ 0008f8c8     libeay32:pem_err.obj
 0002:0001e8e0       ??_C@_0BB@HHBHKOOO@CHECK_BITLEN_RSA?$AA@ 0008f8e0     libeay32:pem_err.obj
 0002:0001e8f4       ??_C@_0BB@CGFKGKN@CHECK_BITLEN_DSA?$AA@ 0008f8f4     libeay32:pem_err.obj
 0002:0001e908       ??_C@_07LKBBHLEH@B2I_RSA?$AA@ 0008f908     libeay32:pem_err.obj
 0002:0001e910       ??_C@_0M@EOOPKNHG@b2i_PVK_bio?$AA@ 0008f910     libeay32:pem_err.obj
 0002:0001e91c       ??_C@_07LHJHADNH@B2I_DSS?$AA@ 0008f91c     libeay32:pem_err.obj
 0002:0001e924       ??_C@_0L@ODBGAEPJ@OBJ_nid2sn?$AA@ 0008f924     libeay32:obj_err.obj
 0002:0001e930       ??_C@_0M@EIEFMONC@OBJ_nid2obj?$AA@ 0008f930     libeay32:obj_err.obj
 0002:0001e93c       ??_C@_0L@PEGMOALE@OBJ_nid2ln?$AA@ 0008f93c     libeay32:obj_err.obj
 0002:0001e948       ??_C@_0BD@EBGMNDBO@OBJ_NAME_new_index?$AA@ 0008f948     libeay32:obj_err.obj
 0002:0001e95c       ??_C@_07GEDFFGIO@OBJ_dup?$AA@ 0008f95c     libeay32:obj_err.obj
 0002:0001e964       ??_C@_0L@OJLDNBND@OBJ_create?$AA@ 0008f964     libeay32:obj_err.obj
 0002:0001e970       ??_C@_0P@PNBAKKGP@OBJ_add_object?$AA@ 0008f970     libeay32:obj_err.obj
 0002:0001e980       ??_C@_0M@PMIFCMGN@BUF_strndup?$AA@ 0008f980     libeay32:buf_err.obj
 0002:0001e98c       ??_C@_0L@GDIPLNAB@BUF_strdup?$AA@ 0008f98c     libeay32:buf_err.obj
 0002:0001e998       ??_C@_0M@DHGBDCFJ@BUF_MEM_new?$AA@ 0008f998     libeay32:buf_err.obj
 0002:0001e9a4       ??_C@_0BD@IAEPNGDK@BUF_MEM_grow_clean?$AA@ 0008f9a4     libeay32:buf_err.obj
 0002:0001e9b8       ??_C@_0N@KABFJIMM@BUF_MEM_grow?$AA@ 0008f9b8     libeay32:buf_err.obj
 0002:0001e9c8       ??_C@_0L@HOFEILPP@BUF_memdup?$AA@ 0008f9c8     libeay32:buf_err.obj
 0002:0001e9d4       ??_C@_0BJ@GMMEOCIA@wrong?5final?5block?5length?$AA@ 0008f9d4     libeay32:evp_err.obj
 0002:0001e9f0       ??_C@_0BG@HNPLFI@unsupported?5salt?5type?$AA@ 0008f9f0     libeay32:evp_err.obj
 0002:0001ea08       ??_C@_0CC@DLEFGHNG@unsupported?5private?5key?5algorith@ 0008fa08     libeay32:evp_err.obj
 0002:0001ea2c       ??_C@_0BA@KAOPPHHA@unsupported?5prf?$AA@ 0008fa2c     libeay32:evp_err.obj
 0002:0001ea3c       ??_C@_0BF@JJLLLINI@unsupported?5key?5size?$AA@ 0008fa3c     libeay32:evp_err.obj
 0002:0001ea54       ??_C@_0CE@LAMCIFFJ@unsupported?5key?5derivation?5funct@ 0008fa54     libeay32:evp_err.obj
 0002:0001ea78       ??_C@_0BG@HOCGGEGP@unsupported?5keylength?$AA@ 0008fa78     libeay32:evp_err.obj
 0002:0001ea90       ??_C@_0BM@HIBGCGNH@unsuported?5number?5of?5rounds?$AA@ 0008fa90     libeay32:evp_err.obj
 0002:0001eaac       ??_C@_0BG@FAIBJLPO@unknown?5pbe?5algorithm?$AA@ 0008faac     libeay32:evp_err.obj
 0002:0001eac4       ??_C@_0P@KCIKKMPB@unknown?5digest?$AA@ 0008fac4     libeay32:evp_err.obj
 0002:0001ead4       ??_C@_09OJDLMMBJ@too?5large?$AA@ 0008fad4     libeay32:evp_err.obj
 0002:0001eae0       ??_C@_0BD@MMPLJMCH@public?5key?5not?5rsa?$AA@ 0008fae0     libeay32:evp_err.obj
 0002:0001eaf4       ??_C@_0BJ@FKCOBHOL@private?5key?5encode?5error?$AA@ 0008faf4     libeay32:evp_err.obj
 0002:0001eb10       ??_C@_0BJ@PGCKGKGA@private?5key?5decode?5error?$AA@ 0008fb10     libeay32:evp_err.obj
 0002:0001eb2c       ??_C@_0BK@DPIDMHCF@pkcs8?5unknown?5broken?5type?$AA@ 0008fb2c     libeay32:evp_err.obj
 0002:0001eb48       ??_C@_0BJ@LOKHPOOE@operaton?5not?5initialized?$AA@ 0008fb48     libeay32:evp_err.obj
 0002:0001eb64       ??_C@_0CJ@FDIBODBP@operation?5not?5supported?5for?5this@ 0008fb64     libeay32:evp_err.obj
 0002:0001eb90       ??_C@_0BO@JCHGAODK@no?5verify?5function?5configured?$AA@ 0008fb90     libeay32:evp_err.obj
 0002:0001ebb0       ??_C@_0BM@MKFHONFA@no?5sign?5function?5configured?$AA@ 0008fbb0     libeay32:evp_err.obj
 0002:0001ebcc       ??_C@_0BB@ODHHEDOG@no?5operation?5set?$AA@ 0008fbcc     libeay32:evp_err.obj
 0002:0001ebe0       ??_C@_0L@PBOBDIJK@no?5key?5set?$AA@ 0008fbe0     libeay32:evp_err.obj
 0002:0001ebec       ??_C@_0BC@LCMEIJMC@no?5dsa?5parameters?$AA@ 0008fbec     libeay32:evp_err.obj
 0002:0001ec00       ??_C@_0O@GNLJHFJN@no?5cipher?5set?$AA@ 0008fc00     libeay32:evp_err.obj
 0002:0001ec10       ??_C@_0BH@NFDMIJPE@message?5digest?5is?5null?$AA@ 0008fc10     libeay32:evp_err.obj
 0002:0001ec28       ??_C@_0P@OKANNIHB@keygen?5failure?$AA@ 0008fc28     libeay32:evp_err.obj
 0002:0001ec38       ??_C@_0BC@ECMLAGML@invalid?5operation?$AA@ 0008fc38     libeay32:evp_err.obj
 0002:0001ec4c       ??_C@_0BC@EPKPKIBM@invalid?5fips?5mode?$AA@ 0008fc4c     libeay32:evp_err.obj
 0002:0001ec60       ??_C@_0P@BHAJJOEL@invalid?5digest?$AA@ 0008fc60     libeay32:evp_err.obj
 0002:0001ec70       ??_C@_0BG@FEDNMCDD@input?5not?5initialized?$AA@ 0008fc70     libeay32:evp_err.obj
 0002:0001ec88       ??_C@_0BF@BLPPFHJN@initialization?5error?$AA@ 0008fc88     libeay32:evp_err.obj
 0002:0001eca0       ??_C@_0BD@CPNEAEMK@expecting?5a?5ec?5key?$AA@ 0008fca0     libeay32:evp_err.obj
 0002:0001ecb4       ??_C@_0BG@HCFIIKBE@expecting?5a?5ecdsa?5key?$AA@ 0008fcb4     libeay32:evp_err.obj
 0002:0001eccc       ??_C@_0BE@DANDDMPD@expecting?5a?5dsa?5key?$AA@ 0008fccc     libeay32:evp_err.obj
 0002:0001ece0       ??_C@_0BD@ODGEPPLN@expecting?5a?5dh?5key?$AA@ 0008fce0     libeay32:evp_err.obj
 0002:0001ecf4       ??_C@_0BF@PLFLMHPC@expecting?5an?5rsa?5key?$AA@ 0008fcf4     libeay32:evp_err.obj
 0002:0001ed0c       ??_C@_0BJ@OKDOIMO@evp?5pbe?5cipherinit?5error?$AA@ 0008fd0c     libeay32:evp_err.obj
 0002:0001ed28       ??_C@_0BI@GOPCKPEG@error?5setting?5fips?5mode?$AA@ 0008fd28     libeay32:evp_err.obj
 0002:0001ed40       ??_C@_0BC@NHLCEGII@disabled?5for?5fips?$AA@ 0008fd40     libeay32:evp_err.obj
 0002:0001ed54       ??_C@_0BF@GPPMHNBE@different?5parameters?$AA@ 0008fd54     libeay32:evp_err.obj
 0002:0001ed6c       ??_C@_0BE@KPACBDBO@different?5key?5types?$AA@ 0008fd6c     libeay32:evp_err.obj
 0002:0001ed80       ??_C@_0CC@CACKLKH@data?5not?5multiple?5of?5block?5lengt@ 0008fd80     libeay32:evp_err.obj
 0002:0001eda4       ??_C@_0BP@HNCHOJGH@ctrl?5operation?5not?5implemented?$AA@ 0008fda4     libeay32:evp_err.obj
 0002:0001edc4       ??_C@_0BF@HEOEPAFD@ctrl?5not?5implemented?$AA@ 0008fdc4     libeay32:evp_err.obj
 0002:0001eddc       ??_C@_0BG@GAFLOAPP@command?5not?5supported?$AA@ 0008fddc     libeay32:evp_err.obj
 0002:0001edf4       ??_C@_0BH@NKJMBAMK@cipher?5parameter?5error?$AA@ 0008fdf4     libeay32:evp_err.obj
 0002:0001ee0c       ??_C@_0BK@KFELEBBK@camellia?5key?5setup?5failed?$AA@ 0008fe0c     libeay32:evp_err.obj
 0002:0001ee28       ??_C@_0BA@MGOHMGOK@bn?5pubkey?5error?$AA@ 0008fe28     libeay32:evp_err.obj
 0002:0001ee38       ??_C@_0P@IOHAFLFI@bad?5key?5length?$AA@ 0008fe38     libeay32:evp_err.obj
 0002:0001ee48       ??_C@_0BB@PEINPMDG@bad?5block?5length?$AA@ 0008fe48     libeay32:evp_err.obj
 0002:0001ee5c       ??_C@_08MEGCJFEA@asn1?5lib?$AA@ 0008fe5c     libeay32:evp_err.obj
 0002:0001ee68       ??_C@_0BF@JJHFFCED@aes?5key?5setup?5failed?$AA@ 0008fe68     libeay32:evp_err.obj
 0002:0001ee80       ??_C@_0BE@IOOKKMBD@aes?5iv?5setup?5failed?$AA@ 0008fe80     libeay32:evp_err.obj
 0002:0001ee94       ??_C@_08INALDHMD@RC5_CTRL?$AA@ 0008fe94     libeay32:evp_err.obj
 0002:0001eea0       ??_C@_0BC@MNOALPJL@RC2_MAGIC_TO_METH?$AA@ 0008fea0     libeay32:evp_err.obj
 0002:0001eeb4       ??_C@_0O@CKODOHEG@PKEY_SET_TYPE?$AA@ 0008feb4     libeay32:evp_err.obj
 0002:0001eec4       ??_C@_0BB@PCHIINPO@PKCS8_set_broken?$AA@ 0008fec4     libeay32:evp_err.obj
 0002:0001eed8       ??_C@_0BJ@IFPKEILH@PKCS5_V2_PBKDF2_KEYIVGEN?$AA@ 0008fed8     libeay32:evp_err.obj
 0002:0001eef4       ??_C@_0BG@DEAJDLGC@PKCS5_v2_PBE_keyivgen?$AA@ 0008fef4     libeay32:evp_err.obj
 0002:0001ef0c       ??_C@_0BD@BCPAFJOG@PKCS5_PBE_keyivgen?$AA@ 0008ff0c     libeay32:evp_err.obj
 0002:0001ef20       ??_C@_0M@GCLMFPBB@INT_CTX_NEW?$AA@ 0008ff20     libeay32:evp_err.obj
 0002:0001ef2c       ??_C@_0N@ICAPKKKM@HMAC_Init_ex?$AA@ 0008ff2c     libeay32:evp_err.obj
 0002:0001ef3c       ??_C@_0BB@EEFMLAEP@FIPS_MD_CTX_COPY?$AA@ 0008ff3c     libeay32:evp_err.obj
 0002:0001ef50       ??_C@_0BA@NKKAHEFL@FIPS_DIGESTINIT?$AA@ 0008ff50     libeay32:evp_err.obj
 0002:0001ef60       ??_C@_0BP@BHEFJLJO@FIPS_CIPHER_CTX_SET_KEY_LENGTH?$AA@ 0008ff60     libeay32:evp_err.obj
 0002:0001ef80       ??_C@_0BF@NFPKJHPD@FIPS_CIPHER_CTX_CTRL?$AA@ 0008ff80     libeay32:evp_err.obj
 0002:0001ef98       ??_C@_0BF@GGNDHFBH@FIPS_CIPHER_CTX_COPY?$AA@ 0008ff98     libeay32:evp_err.obj
 0002:0001efb0       ??_C@_0BA@HCGIBBFI@FIPS_CIPHERINIT?$AA@ 0008ffb0     libeay32:evp_err.obj
 0002:0001efc0       ??_C@_0BA@GLLLOEJG@EVP_VerifyFinal?$AA@ 0008ffc0     libeay32:evp_err.obj
 0002:0001efd0       ??_C@_0O@CAMPOJIJ@EVP_SignFinal?$AA@ 0008ffd0     libeay32:evp_err.obj
 0002:0001efe0       ??_C@_0N@KINHBLCG@EVP_RIJNDAEL?$AA@ 0008ffe0     libeay32:evp_err.obj
 0002:0001eff0       ??_C@_0BN@MDHBFHEI@EVP_PKEY_verify_recover_init?$AA@ 0008fff0     libeay32:evp_err.obj
 0002:0001f010       ??_C@_0BI@JFLFDOB@EVP_PKEY_verify_recover?$AA@ 00090010     libeay32:evp_err.obj
 0002:0001f028       ??_C@_0BF@PDPMCIFG@EVP_PKEY_verify_init?$AA@ 00090028     libeay32:evp_err.obj
 0002:0001f040       ??_C@_0BA@KBJNJNKI@EVP_PKEY_verify?$AA@ 00090040     libeay32:evp_err.obj
 0002:0001f050       ??_C@_0BD@PIOCCDMM@EVP_PKEY_sign_init?$AA@ 00090050     libeay32:evp_err.obj
 0002:0001f064       ??_C@_0O@BEINPMKB@EVP_PKEY_sign?$AA@ 00090064     libeay32:evp_err.obj
 0002:0001f074       ??_C@_0BH@OKHDFNDA@EVP_PKEY_paramgen_init?$AA@ 00090074     libeay32:evp_err.obj
 0002:0001f08c       ??_C@_0BC@IBBHNDMH@EVP_PKEY_paramgen?$AA@ 0009008c     libeay32:evp_err.obj
 0002:0001f0a0       ??_C@_0N@MHABMGDE@EVP_PKEY_new?$AA@ 000900a0     libeay32:evp_err.obj
 0002:0001f0b0       ??_C@_0BF@HNJPEBIC@EVP_PKEY_keygen_init?$AA@ 000900b0     libeay32:evp_err.obj
 0002:0001f0c8       ??_C@_0BA@DHFOBMEL@EVP_PKEY_keygen?$AA@ 000900c8     libeay32:evp_err.obj
 0002:0001f0d8       ??_C@_0BC@IMEMINHC@EVP_PKEY_get1_RSA?$AA@ 000900d8     libeay32:evp_err.obj
 0002:0001f0ec       ??_C@_0BF@IJHAKIDN@EVP_PKEY_get1_EC_KEY?$AA@ 000900ec     libeay32:evp_err.obj
 0002:0001f104       ??_C@_0BE@LEFNNDP@EVP_PKEY_GET1_ECDSA?$AA@ 00090104     libeay32:evp_err.obj
 0002:0001f118       ??_C@_0BC@PJDOIFDB@EVP_PKEY_get1_DSA?$AA@ 00090118     libeay32:evp_err.obj
 0002:0001f12c       ??_C@_0BB@CPLHOEAA@EVP_PKEY_get1_DH?$AA@ 0009012c     libeay32:evp_err.obj
 0002:0001f140       ??_C@_0BF@MKBOMPDM@EVP_PKEY_encrypt_old?$AA@ 00090140     libeay32:evp_err.obj
 0002:0001f158       ??_C@_0BG@EJGHHAMC@EVP_PKEY_encrypt_init?$AA@ 00090158     libeay32:evp_err.obj
 0002:0001f170       ??_C@_0BB@LLNNGDGM@EVP_PKEY_encrypt?$AA@ 00090170     libeay32:evp_err.obj
 0002:0001f184       ??_C@_0BJ@CECPMDDP@EVP_PKEY_derive_set_peer?$AA@ 00090184     libeay32:evp_err.obj
 0002:0001f1a0       ??_C@_0BF@MPBKJMKE@EVP_PKEY_derive_init?$AA@ 000901a0     libeay32:evp_err.obj
 0002:0001f1b8       ??_C@_0BA@KLINOOGC@EVP_PKEY_derive?$AA@ 000901b8     libeay32:evp_err.obj
 0002:0001f1c8       ??_C@_0BF@HCJKAEBH@EVP_PKEY_decrypt_old?$AA@ 000901c8     libeay32:evp_err.obj
 0002:0001f1e0       ??_C@_0BG@OFGDANEJ@EVP_PKEY_decrypt_init?$AA@ 000901e0     libeay32:evp_err.obj
 0002:0001f1f8       ??_C@_0BB@HFHADHAI@EVP_PKEY_decrypt?$AA@ 000901f8     libeay32:evp_err.obj
 0002:0001f20c       ??_C@_0BB@BPOPGGNH@EVP_PKEY_CTX_dup?$AA@ 0009020c     libeay32:evp_err.obj
 0002:0001f220       ??_C@_0BG@IHCGKNFK@EVP_PKEY_CTX_ctrl_str?$AA@ 00090220     libeay32:evp_err.obj
 0002:0001f238       ??_C@_0BC@NIPIODKB@EVP_PKEY_CTX_ctrl?$AA@ 00090238     libeay32:evp_err.obj
 0002:0001f24c       ??_C@_0BJ@PGNHNKFL@EVP_PKEY_copy_parameters?$AA@ 0009024c     libeay32:evp_err.obj
 0002:0001f268       ??_C@_0BG@JJKNEENC@EVP_PKEY2PKCS8_broken?$AA@ 00090268     libeay32:evp_err.obj
 0002:0001f280       ??_C@_0BG@LDGBPHID@EVP_PKCS82PKEY_BROKEN?$AA@ 00090280     libeay32:evp_err.obj
 0002:0001f298       ??_C@_0P@NALOFFAP@EVP_PKCS82PKEY?$AA@ 00090298     libeay32:evp_err.obj
 0002:0001f2a8       ??_C@_0BD@IMFOLFNB@EVP_PBE_CipherInit?$AA@ 000902a8     libeay32:evp_err.obj
 0002:0001f2bc       ??_C@_0BF@MFFOGHAM@EVP_PBE_alg_add_type?$AA@ 000902bc     libeay32:evp_err.obj
 0002:0001f2d4       ??_C@_0BA@LHOGICEL@EVP_PBE_alg_add?$AA@ 000902d4     libeay32:evp_err.obj
 0002:0001f2e4       ??_C@_0N@HHIKMCLD@EVP_OpenInit?$AA@ 000902e4     libeay32:evp_err.obj
 0002:0001f2f4       ??_C@_0M@OOKKIKHO@EVP_MD_size?$AA@ 000902f4     libeay32:evp_err.obj
 0002:0001f300       ??_C@_0BD@OOMFHFKA@EVP_MD_CTX_copy_ex?$AA@ 00090300     libeay32:evp_err.obj
 0002:0001f314       ??_C@_0BE@EADDKHIK@EVP_EncryptFinal_ex?$AA@ 00090314     libeay32:evp_err.obj
 0002:0001f328       ??_C@_0BC@NBJFCNLO@EVP_DigestInit_ex?$AA@ 00090328     libeay32:evp_err.obj
 0002:0001f33c       ??_C@_0BE@DAKPJAOF@EVP_DecryptFinal_ex?$AA@ 0009033c     libeay32:evp_err.obj
 0002:0001f350       ??_C@_0BO@LEIONLOF@EVP_CIPHER_CTX_set_key_length?$AA@ 00090350     libeay32:evp_err.obj
 0002:0001f370       ??_C@_0BE@PBKBIICA@EVP_CIPHER_CTX_ctrl?$AA@ 00090370     libeay32:evp_err.obj
 0002:0001f384       ??_C@_0BE@ECIIGKME@EVP_CIPHER_CTX_copy?$AA@ 00090384     libeay32:evp_err.obj
 0002:0001f398       ??_C@_0BC@FOOGEGCP@EVP_CipherInit_ex?$AA@ 00090398     libeay32:evp_err.obj
 0002:0001f3ac       ??_C@_0BB@KFLGPIAK@ECKEY_PKEY2PKCS8?$AA@ 000903ac     libeay32:evp_err.obj
 0002:0001f3c0       ??_C@_0BB@IBEKDJPK@ECDSA_PKEY2PKCS8?$AA@ 000903c0     libeay32:evp_err.obj
 0002:0001f3d4       ??_C@_0P@DBCIAANA@DSA_PKEY2PKCS8?$AA@ 000903d4     libeay32:evp_err.obj
 0002:0001f3e4       ??_C@_0O@EFMKNPDB@DSAPKEY2PKCS8?$AA@ 000903e4     libeay32:evp_err.obj
 0002:0001f3f4       ??_C@_0P@GNOJHNOK@DO_SIGVER_INIT?$AA@ 000903f4     libeay32:evp_err.obj
 0002:0001f404       ??_C@_08BIAFNOBD@D2I_PKEY?$AA@ 00090404     libeay32:evp_err.obj
 0002:0001f410       ??_C@_09KEJNODOG@CMAC_INIT?$AA@ 00090410     libeay32:evp_err.obj
 0002:0001f41c       ??_C@_0BC@JBPLKLIN@CAMELLIA_INIT_KEY?$AA@ 0009041c     libeay32:evp_err.obj
 0002:0001f430       ??_C@_0BA@EIFHEKIO@ALG_MODULE_INIT?$AA@ 00090430     libeay32:evp_err.obj
 0002:0001f440       ??_C@_0P@BEBJCGPN@AES_XTS_CIPHER?$AA@ 00090440     libeay32:evp_err.obj
 0002:0001f450       ??_C@_07KNBKDFMO@AES_XTS?$AA@ 00090450     libeay32:evp_err.obj
 0002:0001f458       ??_C@_0N@HCMHGGIL@AES_INIT_KEY?$AA@ 00090458     libeay32:evp_err.obj
 0002:0001f468       ??_C@_0BB@KJGGIEDD@AESNI_XTS_CIPHER?$AA@ 00090468     libeay32:evp_err.obj
 0002:0001f47c       ??_C@_0P@PFOKDBDH@AESNI_INIT_KEY?$AA@ 0009047c     libeay32:evp_err.obj
 0002:0001f48c       ??_C@_0BD@CLOJELDD@key?5size?5too?5small?$AA@ 0009048c     libeay32:dh_err.obj
 0002:0001f4a0       ??_C@_0BD@NPJGJJNC@invalid?5public?5key?$AA@ 000904a0     libeay32:dh_err.obj
 0002:0001f4b4       ??_C@_0O@FMBNEOHL@bad?5generator?$AA@ 000904b4     libeay32:dh_err.obj
 0002:0001f4c4       ??_C@_0P@OONACJM@PKEY_DH_KEYGEN?$AA@ 000904c4     libeay32:dh_err.obj
 0002:0001f4d4       ??_C@_0P@JCDOPALF@PKEY_DH_DERIVE?$AA@ 000904d4     libeay32:dh_err.obj
 0002:0001f4e4       ??_C@_0BE@OEKEKGDH@GENERATE_PARAMETERS?$AA@ 000904e4     libeay32:dh_err.obj
 0002:0001f4f8       ??_C@_0N@LOPKMDIL@GENERATE_KEY?$AA@ 000904f8     libeay32:dh_err.obj
 0002:0001f508       ??_C@_0M@BKOJCMIP@DO_DH_PRINT?$AA@ 00090508     libeay32:dh_err.obj
 0002:0001f514       ??_C@_0O@IBAJOGMG@DH_PUB_ENCODE?$AA@ 00090514     libeay32:dh_err.obj
 0002:0001f524       ??_C@_0O@ENLJBNLB@DH_PUB_DECODE?$AA@ 00090524     libeay32:dh_err.obj
 0002:0001f534       ??_C@_0P@MCCBOHPM@DH_PRIV_ENCODE?$AA@ 00090534     libeay32:dh_err.obj
 0002:0001f544       ??_C@_0P@OJBBMIL@DH_PRIV_DECODE?$AA@ 00090544     libeay32:dh_err.obj
 0002:0001f554       ??_C@_0BA@ELDDJPC@DH_PARAM_DECODE?$AA@ 00090554     libeay32:dh_err.obj
 0002:0001f564       ??_C@_0O@PABKEMIE@DH_new_method?$AA@ 00090564     libeay32:dh_err.obj
 0002:0001f574       ??_C@_0BK@LEHNHMII@DH_generate_parameters_ex?$AA@ 00090574     libeay32:dh_err.obj
 0002:0001f590       ??_C@_0BA@PHELBJJ@DH_generate_key?$AA@ 00090590     libeay32:dh_err.obj
 0002:0001f5a0       ??_C@_0P@DOMAGPNP@DH_compute_key?$AA@ 000905a0     libeay32:dh_err.obj
 0002:0001f5b0       ??_C@_0BF@BNFPPOCD@DH_BUILTIN_GENPARAMS?$AA@ 000905b0     libeay32:dh_err.obj
 0002:0001f5c8       ??_C@_0BC@DJCNMFPF@DHparams_print_fp?$AA@ 000905c8     libeay32:dh_err.obj
 0002:0001f5dc       ??_C@_0M@OBMGPJBG@COMPUTE_KEY?$AA@ 000905dc     libeay32:dh_err.obj
 0002:0001f5e8       ??_C@_0BH@BMPGLKME@wrong?5signature?5length?$AA@ 000905e8     libeay32:rsa_err.obj
 0002:0001f600       ??_C@_0O@LAEBBFFA@value?5missing?$AA@ 00090600     libeay32:rsa_err.obj
 0002:0001f610       ??_C@_0BL@NFPHCDHM@unsupported?5signature?5type?$AA@ 00090610     libeay32:rsa_err.obj
 0002:0001f62c       ??_C@_0BL@LLKOMKEH@unsupported?5mask?5parameter?$AA@ 0009062c     libeay32:rsa_err.obj
 0002:0001f648       ??_C@_0BL@BEBLEDFG@unsupported?5mask?5algorithm?$AA@ 00090648     libeay32:rsa_err.obj
 0002:0001f664       ??_C@_0BD@IOMBGLMN@unknown?5pss?5digest?$AA@ 00090664     libeay32:rsa_err.obj
 0002:0001f678       ??_C@_0BF@PMKFBMAN@unknown?5padding?5type?$AA@ 00090678     libeay32:rsa_err.obj
 0002:0001f690       ??_C@_0BE@GKBFEOFH@unknown?5mask?5digest?$AA@ 00090690     libeay32:rsa_err.obj
 0002:0001f6a4       ??_C@_0BH@FNFJOEPG@unknown?5algorithm?5type?$AA@ 000906a4     libeay32:rsa_err.obj
 0002:0001f6bc       ??_C@_0BG@LCCLIBDD@sslv3?5rollback?5attack?$AA@ 000906bc     libeay32:rsa_err.obj
 0002:0001f6d4       ??_C@_0BM@NMIBMGCO@salt?5length?5recovery?5failed?$AA@ 000906d4     libeay32:rsa_err.obj
 0002:0001f6f0       ??_C@_0BJ@GBKHEAEB@salt?5length?5check?5failed?$AA@ 000906f0     libeay32:rsa_err.obj
 0002:0001f70c       ??_C@_0BN@NCCKMPPH@rsa?5operations?5not?5supported?$AA@ 0009070c     libeay32:rsa_err.obj
 0002:0001f72c       ??_C@_0M@IAJBGGOK@q?5not?5prime?$AA@ 0009072c     libeay32:rsa_err.obj
 0002:0001f738       ??_C@_0M@BLDECKIF@p?5not?5prime?$AA@ 00090738     libeay32:rsa_err.obj
 0002:0001f744       ??_C@_0BF@INPMJCDD@padding?5check?5failed?$AA@ 00090744     libeay32:rsa_err.obj
 0002:0001f75c       ??_C@_0CD@IMIHDNGM@operation?5not?5allowed?5in?5fips?5mo@ 0009075c     libeay32:rsa_err.obj
 0002:0001f780       ??_C@_0BE@EOPELEIO@oaep?5decoding?5error?$AA@ 00090780     libeay32:rsa_err.obj
 0002:0001f794       ??_C@_0BF@HDECBJIA@n?5does?5not?5equal?5p?5q?$AA@ 00090794     libeay32:rsa_err.obj
 0002:0001f7ac       ??_C@_0BK@GGMKFEM@null?5before?5block?5missing?$AA@ 000907ac     libeay32:rsa_err.obj
 0002:0001f7c8       ??_C@_0BD@JKKNAJDI@no?5public?5exponent?$AA@ 000907c8     libeay32:rsa_err.obj
 0002:0001f7dc       ??_C@_0BE@JOKANPEI@non?5fips?5rsa?5method?$AA@ 000907dc     libeay32:rsa_err.obj
 0002:0001f7f0       ??_C@_0BD@FKBIBGMM@last?5octet?5invalid?$AA@ 000907f0     libeay32:rsa_err.obj
 0002:0001f804       ??_C@_0BG@DEDKEMGA@iqmp?5not?5inverse?5of?5q?$AA@ 00090804     libeay32:rsa_err.obj
 0002:0001f81c       ??_C@_0BE@DPIBPLCJ@invalid?5x931?5digest?$AA@ 0009081c     libeay32:rsa_err.obj
 0002:0001f830       ??_C@_0BA@ODEFPDHP@invalid?5trailer?$AA@ 00090830     libeay32:rsa_err.obj
 0002:0001f840       ??_C@_0BE@FAHIJHPF@invalid?5salt?5length?$AA@ 00090840     libeay32:rsa_err.obj
 0002:0001f854       ??_C@_0BE@DPJFANO@invalid?5pss?5saltlen?$AA@ 00090854     libeay32:rsa_err.obj
 0002:0001f868       ??_C@_0BH@ODMONKNF@invalid?5pss?5parameters?$AA@ 00090868     libeay32:rsa_err.obj
 0002:0001f880       ??_C@_0BF@KDMBBEMK@invalid?5padding?5mode?$AA@ 00090880     libeay32:rsa_err.obj
 0002:0001f898       ??_C@_0BA@JFFKNHBD@invalid?5padding?$AA@ 00090898     libeay32:rsa_err.obj
 0002:0001f8a8       ??_C@_0BA@GDHINNEO@invalid?5mgf1?5md?$AA@ 000908a8     libeay32:rsa_err.obj
 0002:0001f8b8       ??_C@_0BH@EKFCLFAD@invalid?5message?5length?$AA@ 000908b8     libeay32:rsa_err.obj
 0002:0001f8d0       ??_C@_0BA@EPNDMLGL@invalid?5keybits?$AA@ 000908d0     libeay32:rsa_err.obj
 0002:0001f8e0       ??_C@_0P@NOGGNOMF@invalid?5header?$AA@ 000908e0     libeay32:rsa_err.obj
 0002:0001f8f0       ??_C@_0BG@DCMIKGHM@invalid?5digest?5length?$AA@ 000908f0     libeay32:rsa_err.obj
 0002:0001f908       ??_C@_0CE@PNNJELPM@illegal?5or?5unsupported?5padding?5m@ 00090908     libeay32:rsa_err.obj
 0002:0001f92c       ??_C@_0BE@NOENCFCG@first?5octet?5invalid?$AA@ 0009092c     libeay32:rsa_err.obj
 0002:0001f940       ??_C@_0BH@NCGBLFLB@d?5e?5not?5congruent?5to?51?$AA@ 00090940     libeay32:rsa_err.obj
 0002:0001f958       ??_C@_0BI@DHGHJHEG@dmq1?5not?5congruent?5to?5d?$AA@ 00090958     libeay32:rsa_err.obj
 0002:0001f970       ??_C@_0BI@CAEPPDIG@dmp1?5not?5congruent?5to?5d?$AA@ 00090970     libeay32:rsa_err.obj
 0002:0001f988       ??_C@_0BL@JJIEEIJC@digest?5too?5big?5for?5rsa?5key?$AA@ 00090988     libeay32:rsa_err.obj
 0002:0001f9a4       ??_C@_0BM@JHCGOKFN@data?5too?5small?5for?5key?5size?$AA@ 000909a4     libeay32:rsa_err.obj
 0002:0001f9c0       ??_C@_0P@ODJPKBGD@data?5too?5small?$AA@ 000909c0     libeay32:rsa_err.obj
 0002:0001f9d0       ??_C@_0BL@NKECKCIM@data?5too?5large?5for?5modulus?$AA@ 000909d0     libeay32:rsa_err.obj
 0002:0001f9ec       ??_C@_0P@ELNEFAPF@data?5too?5large?$AA@ 000909ec     libeay32:rsa_err.obj
 0002:0001f9fc       ??_C@_0BK@IFDNCIJ@data?5greater?5than?5mod?5len?$AA@ 000909fc     libeay32:rsa_err.obj
 0002:0001fa18       ??_C@_0BF@CPFAMEOF@block?5type?5is?5not?502?$AA@ 00090a18     libeay32:rsa_err.obj
 0002:0001fa30       ??_C@_0BF@EHNJHCG@block?5type?5is?5not?501?$AA@ 00090a30     libeay32:rsa_err.obj
 0002:0001fa48       ??_C@_0BD@NMJFBDLM@bad?5pad?5byte?5count?$AA@ 00090a48     libeay32:rsa_err.obj
 0002:0001fa5c       ??_C@_0BJ@NJEIMCLK@bad?5fixed?5header?5decrypt?$AA@ 00090a5c     libeay32:rsa_err.obj
 0002:0001fa78       ??_C@_0M@JODLPONG@bad?5e?5value?$AA@ 00090a78     libeay32:rsa_err.obj
 0002:0001fa84       ??_C@_0BD@CGPAGFLI@algorithm?5mismatch?$AA@ 00090a84     libeay32:rsa_err.obj
 0002:0001fa98       ??_C@_0BK@CEFEDGHB@RSA_verify_PKCS1_PSS_mgf1?$AA@ 00090a98     libeay32:rsa_err.obj
 0002:0001fab4       ??_C@_0BF@IGJEFDEP@RSA_verify_PKCS1_PSS?$AA@ 00090ab4     libeay32:rsa_err.obj
 0002:0001facc       ??_C@_0BN@EFLGKFKB@RSA_verify_ASN1_OCTET_STRING?$AA@ 00090acc     libeay32:rsa_err.obj
 0002:0001faec       ??_C@_0L@DHMOEGA@RSA_verify?$AA@ 00090aec     libeay32:rsa_err.obj
 0002:0001faf8       ??_C@_0BL@CNIEBPPN@RSA_sign_ASN1_OCTET_STRING?$AA@ 00090af8     libeay32:rsa_err.obj
 0002:0001fb14       ??_C@_08MPOFALHB@RSA_sign?$AA@ 00090b14     libeay32:rsa_err.obj
 0002:0001fb20       ??_C@_0BD@BJFMCAGF@RSA_setup_blinding?$AA@ 00090b20     libeay32:rsa_err.obj
 0002:0001fb34       ??_C@_0P@OJCEKOHG@RSA_PUB_DECODE?$AA@ 00090b34     libeay32:rsa_err.obj
 0002:0001fb44       ??_C@_0BD@DNFCKLEJ@RSA_public_encrypt?$AA@ 00090b44     libeay32:rsa_err.obj
 0002:0001fb58       ??_C@_0BD@PDPPPPCN@RSA_public_decrypt?$AA@ 00090b58     libeay32:rsa_err.obj
 0002:0001fb6c       ??_C@_0BA@MHIFCNFM@RSA_PRIV_ENCODE?$AA@ 00090b6c     libeay32:rsa_err.obj
 0002:0001fb7c       ??_C@_0BA@LDFNGCL@RSA_PRIV_DECODE?$AA@ 00090b7c     libeay32:rsa_err.obj
 0002:0001fb8c       ??_C@_0BE@KCOGGGIC@RSA_private_encrypt?$AA@ 00090b8c     libeay32:rsa_err.obj
 0002:0001fba0       ??_C@_0BE@GMELDCOG@RSA_private_decrypt?$AA@ 00090ba0     libeay32:rsa_err.obj
 0002:0001fbb4       ??_C@_0N@EDDOANOK@RSA_print_fp?$AA@ 00090bb4     libeay32:rsa_err.obj
 0002:0001fbc4       ??_C@_09BNOFLLFN@RSA_print?$AA@ 00090bc4     libeay32:rsa_err.obj
 0002:0001fbd0       ??_C@_0BH@HNEKADOE@RSA_padding_check_X931?$AA@ 00090bd0     libeay32:rsa_err.obj
 0002:0001fbe8       ??_C@_0BJ@KGLGCBIK@RSA_padding_check_SSLv23?$AA@ 00090be8     libeay32:rsa_err.obj
 0002:0001fc04       ??_C@_0BP@NOENDBAC@RSA_padding_check_PKCS1_type_2?$AA@ 00090c04     libeay32:rsa_err.obj
 0002:0001fc24       ??_C@_0BP@PFGAGCMB@RSA_padding_check_PKCS1_type_1?$AA@ 00090c24     libeay32:rsa_err.obj
 0002:0001fc44       ??_C@_0BN@IOMKEGJG@RSA_padding_check_PKCS1_OAEP?$AA@ 00090c44     libeay32:rsa_err.obj
 0002:0001fc64       ??_C@_0BH@HPODLAP@RSA_padding_check_none?$AA@ 00090c64     libeay32:rsa_err.obj
 0002:0001fc7c       ??_C@_0BF@EIOFIDKM@RSA_padding_add_X931?$AA@ 00090c7c     libeay32:rsa_err.obj
 0002:0001fc94       ??_C@_0BH@HDKOFCAI@RSA_padding_add_SSLv23?$AA@ 00090c94     libeay32:rsa_err.obj
 0002:0001fcac       ??_C@_0BN@CNKIJGGF@RSA_padding_add_PKCS1_type_2?$AA@ 00090cac     libeay32:rsa_err.obj
 0002:0001fccc       ??_C@_0BN@GIFMFKG@RSA_padding_add_PKCS1_type_1?$AA@ 00090ccc     libeay32:rsa_err.obj
 0002:0001fcec       ??_C@_0BP@EAMMIKJG@RSA_padding_add_PKCS1_PSS_mgf1?$AA@ 00090cec     libeay32:rsa_err.obj
 0002:0001fd0c       ??_C@_0BK@OBENMGDB@RSA_padding_add_PKCS1_PSS?$AA@ 00090d0c     libeay32:rsa_err.obj
 0002:0001fd28       ??_C@_0BL@OLIPFACN@RSA_padding_add_PKCS1_OAEP?$AA@ 00090d28     libeay32:rsa_err.obj
 0002:0001fd44       ??_C@_0BF@DCFBLLEH@RSA_padding_add_none?$AA@ 00090d44     libeay32:rsa_err.obj
 0002:0001fd5c       ??_C@_0BI@OOBCANGE@RSA_NULL_PUBLIC_ENCRYPT?$AA@ 00090d5c     libeay32:rsa_err.obj
 0002:0001fd74       ??_C@_0BI@CALPFJAA@RSA_NULL_PUBLIC_DECRYPT?$AA@ 00090d74     libeay32:rsa_err.obj
 0002:0001fd8c       ??_C@_0BJ@LPMCNPIA@RSA_NULL_PRIVATE_ENCRYPT?$AA@ 00090d8c     libeay32:rsa_err.obj
 0002:0001fda8       ??_C@_0BJ@HBGPILOE@RSA_NULL_PRIVATE_DECRYPT?$AA@ 00090da8     libeay32:rsa_err.obj
 0002:0001fdc4       ??_C@_0BB@HDGNLFN@RSA_NULL_MOD_EXP?$AA@ 00090dc4     libeay32:rsa_err.obj
 0002:0001fdd8       ??_C@_08LPADNPHO@RSA_NULL?$AA@ 00090dd8     libeay32:rsa_err.obj
 0002:0001fde4       ??_C@_0P@FEIHPPED@RSA_new_method?$AA@ 00090de4     libeay32:rsa_err.obj
 0002:0001fdf4       ??_C@_0BA@JIOKLGDH@RSA_memory_lock?$AA@ 00090df4     libeay32:rsa_err.obj
 0002:0001fe04       ??_C@_0BA@CLMBBCBN@RSA_ITEM_VERIFY?$AA@ 00090e04     libeay32:rsa_err.obj
 0002:0001fe14       ??_C@_0BE@JLCMLJM@RSA_generate_key_ex?$AA@ 00090e14     libeay32:rsa_err.obj
 0002:0001fe28       ??_C@_0BB@NJKHLGLL@RSA_generate_key?$AA@ 00090e28     libeay32:rsa_err.obj
 0002:0001fe3c       ??_C@_0BH@LNLHMMLN@RSA_EAY_PUBLIC_ENCRYPT?$AA@ 00090e3c     libeay32:rsa_err.obj
 0002:0001fe54       ??_C@_0BH@HDBKJINJ@RSA_EAY_PUBLIC_DECRYPT?$AA@ 00090e54     libeay32:rsa_err.obj
 0002:0001fe6c       ??_C@_0BI@EAJOBADB@RSA_EAY_PRIVATE_ENCRYPT?$AA@ 00090e6c     libeay32:rsa_err.obj
 0002:0001fe84       ??_C@_0BI@IODDEEFF@RSA_EAY_PRIVATE_DECRYPT?$AA@ 00090e84     libeay32:rsa_err.obj
 0002:0001fe9c       ??_C@_0O@GHGJHIFH@RSA_check_key?$AA@ 00090e9c     libeay32:rsa_err.obj
 0002:0001feac       ??_C@_0BD@CBDKPIGP@RSA_BUILTIN_KEYGEN?$AA@ 00090eac     libeay32:rsa_err.obj
 0002:0001fec0       ??_C@_0BH@FFOJNJJB@PKEY_RSA_VERIFYRECOVER?$AA@ 00090ec0     libeay32:rsa_err.obj
 0002:0001fed8       ??_C@_0BA@FJNHLEJE@PKEY_RSA_VERIFY?$AA@ 00090ed8     libeay32:rsa_err.obj
 0002:0001fee8       ??_C@_0O@KKAOJPHB@PKEY_RSA_SIGN?$AA@ 00090ee8     libeay32:rsa_err.obj
 0002:0001fef8       ??_C@_0BC@DONPGKEJ@PKEY_RSA_CTRL_STR?$AA@ 00090ef8     libeay32:rsa_err.obj
 0002:0001ff0c       ??_C@_0O@EAEGIEKI@PKEY_RSA_CTRL?$AA@ 00090f0c     libeay32:rsa_err.obj
 0002:0001ff1c       ??_C@_0BE@DBENECLB@OLD_RSA_PRIV_DECODE?$AA@ 00090f1c     libeay32:rsa_err.obj
 0002:0001ff30       ??_C@_0M@IECFMAGM@MEMORY_LOCK?$AA@ 00090f30     libeay32:rsa_err.obj
 0002:0001ff3c       ??_C@_0P@KHENOEA@INT_RSA_VERIFY?$AA@ 00090f3c     libeay32:rsa_err.obj
 0002:0001ff4c       ??_C@_0N@OOAIIILJ@DO_RSA_PRINT?$AA@ 00090f4c     libeay32:rsa_err.obj
 0002:0001ff5c       ??_C@_0BB@ODOKNOAB@CHECK_PADDING_MD?$AA@ 00090f5c     libeay32:rsa_err.obj
 0002:0001ff70       ??_C@_0BN@FMADIABH@too?5many?5temporary?5variables?$AA@ 00090f70     libeay32:bn_err.obj
 0002:0001ff90       ??_C@_0BE@OPCNEJGC@too?5many?5iterations?$AA@ 00090f90     libeay32:bn_err.obj
 0002:0001ffa4       ??_C@_0P@ICPCEPDP@p?5is?5not?5prime?$AA@ 00090fa4     libeay32:bn_err.obj
 0002:0001ffb4       ??_C@_0M@OMKNCEPO@no?5solution?$AA@ 00090fb4     libeay32:bn_err.obj
 0002:0001ffc0       ??_C@_0L@CDEIJFEG@no?5inverse?$AA@ 00090fc0     libeay32:bn_err.obj
 0002:0001ffcc       ??_C@_0N@NDJIBCN@not?5a?5square?$AA@ 00090fcc     libeay32:bn_err.obj
 0002:0001ffdc       ??_C@_0O@GOKDDJMP@invalid?5range?$AA@ 00090fdc     libeay32:bn_err.obj
 0002:0001ffec       ??_C@_0P@BHAFPBHF@invalid?5length?$AA@ 00090fec     libeay32:bn_err.obj
 0002:0001fffc       ??_C@_0BC@JDEDLNHC@input?5not?5reduced?$AA@ 00090ffc     libeay32:bn_err.obj
 0002:00020010       ??_C@_0BN@BKAHLPJH@expand?5on?5static?5bignum?5data?$AA@ 00091010     libeay32:bn_err.obj
 0002:00020030       ??_C@_0P@PPHOEKAA@encoding?5error?$AA@ 00091030     libeay32:bn_err.obj
 0002:00020040       ??_C@_0M@BLFJLCCH@div?5by?5zero?$AA@ 00091040     libeay32:bn_err.obj
 0002:0002004c       ??_C@_0BJ@OJGGDJF@called?5with?5even?5modulus?$AA@ 0009104c     libeay32:bn_err.obj
 0002:00020068       ??_C@_0BA@GFLMOMGJ@bignum?5too?5long?$AA@ 00091068     libeay32:bn_err.obj
 0002:00020078       ??_C@_0P@CGNJGONO@bad?5reciprocal?$AA@ 00091078     libeay32:bn_err.obj
 0002:00020088       ??_C@_0N@DINPDMFF@arg2?5lt?5arg3?$AA@ 00091088     libeay32:bn_err.obj
 0002:00020098       ??_C@_07FFMAJCFD@BN_usub?$AA@ 00091098     libeay32:bn_err.obj
 0002:000200a0       ??_C@_0O@GGLCDEBH@BN_rand_range?$AA@ 000910a0     libeay32:bn_err.obj
 0002:000200b0       ??_C@_07FLNJDKEA@BN_rand?$AA@ 000910b0     libeay32:bn_err.obj
 0002:000200b8       ??_C@_06MLINBBBN@BN_new?$AA@ 000910b8     libeay32:bn_err.obj
 0002:000200c0       ??_C@_09IDACCFHO@BN_mpi2bn?$AA@ 000910c0     libeay32:bn_err.obj
 0002:000200cc       ??_C@_0M@MDECKEMJ@BN_mod_sqrt?$AA@ 000910cc     libeay32:bn_err.obj
 0002:000200d8       ??_C@_0BG@BPLEAIGL@BN_mod_mul_reciprocal?$AA@ 000910d8     libeay32:bn_err.obj
 0002:000200f0       ??_C@_0BE@HCGJNJDH@BN_mod_lshift_quick?$AA@ 000910f0     libeay32:bn_err.obj
 0002:00020104       ??_C@_0BJ@GNNEGKDJ@BN_mod_inverse_no_branch?$AA@ 00091104     libeay32:bn_err.obj
 0002:00020120       ??_C@_0P@PJDAOIEB@BN_mod_inverse?$AA@ 00091120     libeay32:bn_err.obj
 0002:00020130       ??_C@_0BC@IAKJJHKD@BN_mod_exp_simple?$AA@ 00091130     libeay32:bn_err.obj
 0002:00020144       ??_C@_0BA@MFDDJGKA@BN_mod_exp_recp?$AA@ 00091144     libeay32:bn_err.obj
 0002:00020154       ??_C@_0BF@NHOGELCA@BN_mod_exp_mont_word?$AA@ 00091154     libeay32:bn_err.obj
 0002:0002016c       ??_C@_0BK@MLKANOIE@BN_mod_exp_mont_consttime?$AA@ 0009116c     libeay32:bn_err.obj
 0002:00020188       ??_C@_0BA@CEIKCAMA@BN_mod_exp_mont?$AA@ 00091188     libeay32:bn_err.obj
 0002:00020198       ??_C@_0BB@KAANGNEC@BN_mod_exp2_mont?$AA@ 00091198     libeay32:bn_err.obj
 0002:000201ac       ??_C@_0BB@COMHDKLD@BN_GF2m_mod_sqrt?$AA@ 000911ac     libeay32:bn_err.obj
 0002:000201c0       ??_C@_0BA@CEFPIHFI@BN_GF2m_mod_sqr?$AA@ 000911c0     libeay32:bn_err.obj
 0002:000201d0       ??_C@_0BL@JJDJOBHG@BN_GF2m_mod_solve_quad_arr?$AA@ 000911d0     libeay32:bn_err.obj
 0002:000201ec       ??_C@_0BH@EFEHBMGJ@BN_GF2m_mod_solve_quad?$AA@ 000911ec     libeay32:bn_err.obj
 0002:00020204       ??_C@_0BA@EHNBDAPH@BN_GF2m_mod_mul?$AA@ 00091204     libeay32:bn_err.obj
 0002:00020214       ??_C@_0BA@GMMKNGBG@BN_GF2m_mod_exp?$AA@ 00091214     libeay32:bn_err.obj
 0002:00020224       ??_C@_0M@HLNBKHPC@BN_GF2m_mod?$AA@ 00091224     libeay32:bn_err.obj
 0002:00020230       ??_C@_0BD@EECAEFPD@BN_EXPAND_INTERNAL?$AA@ 00091230     libeay32:bn_err.obj
 0002:00020244       ??_C@_0L@GPKOAPJM@bn_expand2?$AA@ 00091244     libeay32:bn_err.obj
 0002:00020250       ??_C@_06EHDDDAPI@BN_exp?$AA@ 00091250     libeay32:bn_err.obj
 0002:00020258       ??_C@_0M@MCFMHDMJ@BN_div_recp?$AA@ 00091258     libeay32:bn_err.obj
 0002:00020264       ??_C@_0BB@FFIOCBDM@BN_div_no_branch?$AA@ 00091264     libeay32:bn_err.obj
 0002:00020278       ??_C@_06LEDBDJFM@BN_div?$AA@ 00091278     libeay32:bn_err.obj
 0002:00020280       ??_C@_0N@IHLKEKP@BN_CTX_start?$AA@ 00091280     libeay32:bn_err.obj
 0002:00020290       ??_C@_0L@OIEJOLGJ@BN_CTX_new?$AA@ 00091290     libeay32:bn_err.obj
 0002:0002029c       ??_C@_0L@LOGMPHCA@BN_CTX_get?$AA@ 0009129c     libeay32:bn_err.obj
 0002:000202a8       ??_C@_09LODCIEDC@BN_bn2hex?$AA@ 000912a8     libeay32:bn_err.obj
 0002:000202b4       ??_C@_09FNNCPABA@BN_bn2dec?$AA@ 000912b4     libeay32:bn_err.obj
 0002:000202c0       ??_C@_0BD@IEOEBKMM@BN_BLINDING_update?$AA@ 000912c0     libeay32:bn_err.obj
 0002:000202d4       ??_C@_0BA@NFFODEFF@BN_BLINDING_new?$AA@ 000912d4     libeay32:bn_err.obj
 0002:000202e4       ??_C@_0BG@KNPDOBDE@BN_BLINDING_invert_ex?$AA@ 000912e4     libeay32:bn_err.obj
 0002:000202fc       ??_C@_0BJ@OIJBBKAP@BN_BLINDING_create_param?$AA@ 000912fc     libeay32:bn_err.obj
 0002:00020318       ??_C@_0BH@GHOHGGBP@BN_BLINDING_convert_ex?$AA@ 00091318     libeay32:bn_err.obj
 0002:00020330       ??_C@_06LDPKGPF@BNRAND?$AA@ 00091330     libeay32:bn_err.obj
 0002:00020338       ??_C@_0EM@LKCJBLMG@d?3?2wm653wehh?2platform?2mvv210?2src@ 00091338     libeay32:bn_recp.obj
 0002:00020388       ??_C@_0EL@EPOPJPNF@d?3?2wm653wehh?2platform?2mvv210?2src@ 00091388     libeay32:bn_gcd.obj
 0002:000203f8       ??_C@_0EM@FGPLHJJK@d?3?2wm653wehh?2platform?2mvv210?2src@ 000913f8     libeay32:bn_sqrt.obj
 0002:000204e8       ??_C@_0EN@MFLMOEJL@d?3?2wm653wehh?2platform?2mvv210?2src@ 000914e8     libeay32:ecp_nist.obj
 0002:00020538       ??_C@_0FC@LCBCBJII@d?3?2wm653wehh?2platform?2mvv210?2src@ 00091538     libeay32:eng_table.obj
 0002:00020590       ??_C@_0EP@HIMPJABG@d?3?2wm653wehh?2platform?2mvv210?2src@ 00091590     libeay32:pmeth_lib.obj
 0002:000205e0       ??_C@_06IJPNAHC@digest?$AA@ 000915e0     libeay32:pmeth_lib.obj
 0002:000205e8       ??_C@_0EM@DLBKEKNP@d?3?2wm653wehh?2platform?2mvv210?2src@ 000915e8     libeay32:digest.obj
 0002:00020634       ??_C@_0CI@KPJFNDOF@ctx?9?$DOdigest?9?$DOmd_size?5?$DM?$DN?5EVP_MAX_@ 00091634     libeay32:digest.obj
 0002:00020ca0       cmac_asn1_meth             00091ca0     libeay32:cm_ameth.obj
 0002:00020d0c       ??_C@_0BE@GBIGMENL@OpenSSL?5CMAC?5method?$AA@ 00091d0c     libeay32:cm_ameth.obj
 0002:00020d20       hmac_asn1_meth             00091d20     libeay32:hm_ameth.obj
 0002:00020d8c       ??_C@_0BE@BABEGANF@OpenSSL?5HMAC?5method?$AA@ 00091d8c     libeay32:hm_ameth.obj
 0002:00020da0       ??_C@_0EP@LPMJCFIA@d?3?2wm653wehh?2platform?2mvv210?2src@ 00091da0     libeay32:hm_ameth.obj
 0002:00020df0       eckey_asn1_meth            00091df0     libeay32:ec_ameth.obj
 0002:00020e5c       ??_C@_0BF@DKDIFOGG@OpenSSL?5EC?5algorithm?$AA@ 00091e5c     libeay32:ec_ameth.obj
 0002:00020e74       ??_C@_02KNLLHFAA@EC?$AA@   00091e74     libeay32:ec_ameth.obj
 0002:00020e78       ??_C@_0EN@OGHGAGHH@d?3?2wm653wehh?2platform?2mvv210?2src@ 00091e78     libeay32:ec_ameth.obj
 0002:00020ec8       ??_C@_05FJHKEHEO@pub?3?5?$AA@ 00091ec8     libeay32:ec_ameth.obj
 0002:00020ed0       ??_C@_05PFPGJCCA@priv?3?$AA@ 00091ed0     libeay32:ec_ameth.obj
 0002:00020ed8       ??_C@_0O@OPPPNLCD@?$CFs?3?5?$CI?$CFd?5bit?$CJ?6?$AA@ 00091ed8     libeay32:ec_ameth.obj
 0002:00020ee8       ??_C@_0BB@DMDKLH@ECDSA?9Parameters?$AA@ 00091ee8     libeay32:ec_ameth.obj
 0002:00020efc       ??_C@_0L@FMJMEKAC@Public?9Key?$AA@ 00091efc     libeay32:ec_ameth.obj
 0002:00020f08       ??_C@_0M@CJKOCIEC@Private?9Key?$AA@ 00091f08     libeay32:ec_ameth.obj
 0002:00020f18       dsa_asn1_meths             00091f18     libeay32:dsa_ameth.obj
 0002:00021134       ??_C@_0BD@IBKHKBJA@OpenSSL?5DSA?5method?$AA@ 00092134     libeay32:dsa_ameth.obj
 0002:00021148       ??_C@_0EP@BEDNKKJD@d?3?2wm653wehh?2platform?2mvv210?2src@ 00092148     libeay32:dsa_ameth.obj
 0002:00021198       ??_C@_05LKAKAJND@G?3?5?5?5?$AA@ 00092198     libeay32:dsa_ameth.obj
 0002:000211a0       ??_C@_05GPIFOIFF@Q?3?5?5?5?$AA@ 000921a0     libeay32:dsa_ameth.obj
 0002:000211a8       ??_C@_05KENJDLPA@P?3?5?5?5?$AA@ 000921a8     libeay32:dsa_ameth.obj
 0002:000211b0       ??_C@_0P@LAFOADJN@DSA?9Parameters?$AA@ 000921b0     libeay32:dsa_ameth.obj
 0002:000211c0       ??_C@_05CFOBEMGI@s?3?5?5?5?$AA@ 000921c0     libeay32:dsa_ameth.obj
 0002:000211c8       ??_C@_05OOLNJPMN@r?3?5?5?5?$AA@ 000921c8     libeay32:dsa_ameth.obj
 0002:000211d0       dh_asn1_meth               000921d0     libeay32:dh_ameth.obj
 0002:0002123c       ??_C@_0BJ@OPGBMMOB@OpenSSL?5PKCS?$CD3?5DH?5method?$AA@ 0009223c     libeay32:dh_ameth.obj
 0002:00021258       ??_C@_02EPINMGPM@DH?$AA@   00092258     libeay32:dh_ameth.obj
 0002:00021260       ??_C@_0EN@KFNOHMJF@d?3?2wm653wehh?2platform?2mvv210?2src@ 00092260     libeay32:dh_ameth.obj
 0002:000212b0       ??_C@_0CF@KKPEILHE@recommended?9private?9length?3?5?$CFd?5b@ 000922b0     libeay32:dh_ameth.obj
 0002:000212d8       ??_C@_0L@HDGHCIJF@generator?3?$AA@ 000922d8     libeay32:dh_ameth.obj
 0002:000212e4       ??_C@_06POMKLBDA@prime?3?$AA@ 000922e4     libeay32:dh_ameth.obj
 0002:000212ec       ??_C@_0M@BCALNHOD@public?9key?3?$AA@ 000922ec     libeay32:dh_ameth.obj
 0002:000212f8       ??_C@_0N@MPONDEBM@private?9key?3?$AA@ 000922f8     libeay32:dh_ameth.obj
 0002:00021308       ??_C@_0BF@HJBOBPFM@PKCS?$CD3?5DH?5Parameters?$AA@ 00092308     libeay32:dh_ameth.obj
 0002:00021320       ??_C@_0BF@NEOAIGKI@PKCS?$CD3?5DH?5Public?9Key?$AA@ 00092320     libeay32:dh_ameth.obj
 0002:00021338       ??_C@_0BG@BPCFBOHI@PKCS?$CD3?5DH?5Private?9Key?$AA@ 00092338     libeay32:dh_ameth.obj
 0002:00021350       rsa_asn1_meths             00092350     libeay32:rsa_ameth.obj
 0002:00021428       ??_C@_0BD@MHOEKPBI@OpenSSL?5RSA?5method?$AA@ 00092428     libeay32:rsa_ameth.obj
 0002:00021440       ??_C@_0EP@ECKOLFPF@d?3?2wm653wehh?2platform?2mvv210?2src@ 00092440     libeay32:rsa_ameth.obj
 0002:00021490       ??_C@_0N@GNAMJPHF@coefficient?3?$AA@ 00092490     libeay32:rsa_ameth.obj
 0002:000214a0       ??_C@_0L@OKKEHIPG@exponent2?3?$AA@ 000924a0     libeay32:rsa_ameth.obj
 0002:000214ac       ??_C@_0L@OIOCMGKP@exponent1?3?$AA@ 000924ac     libeay32:rsa_ameth.obj
 0002:000214b8       ??_C@_07NJNHFNM@prime2?3?$AA@ 000924b8     libeay32:rsa_ameth.obj
 0002:000214c0       ??_C@_07PNLMLIF@prime1?3?$AA@ 000924c0     libeay32:rsa_ameth.obj
 0002:000214c8       ??_C@_0BB@NFOLHHHJ@privateExponent?3?$AA@ 000924c8     libeay32:rsa_ameth.obj
 0002:000214dc       ??_C@_08GIMLILAA@Modulus?3?$AA@ 000924dc     libeay32:rsa_ameth.obj
 0002:000214e8       ??_C@_09DALHJPOO@Exponent?3?$AA@ 000924e8     libeay32:rsa_ameth.obj
 0002:000214f4       ??_C@_0BG@HAJOCCOP@Public?9Key?3?5?$CI?$CFd?5bit?$CJ?6?$AA@ 000924f4     libeay32:rsa_ameth.obj
 0002:0002150c       ??_C@_08OKDKAJKD@modulus?3?$AA@ 0009250c     libeay32:rsa_ameth.obj
 0002:00021518       ??_C@_0BA@FAAMOFHC@publicExponent?3?$AA@ 00092518     libeay32:rsa_ameth.obj
 0002:00021528       ??_C@_0BH@JHLDJION@Private?9Key?3?5?$CI?$CFd?5bit?$CJ?6?$AA@ 00092528     libeay32:rsa_ameth.obj
 0002:00021540       ??_C@_0P@DDPOEOJA@0xbc?5?$CIdefault?$CJ?$AA@ 00092540     libeay32:rsa_ameth.obj
 0002:00021550       ??_C@_0BA@LIMPMLCB@Trailer?5Field?3?5?$AA@ 00092550     libeay32:rsa_ameth.obj
 0002:00021560       ??_C@_0N@LMKHLINK@20?5?$CIdefault?$CJ?$AA@ 00092560     libeay32:rsa_ameth.obj
 0002:00021570       ??_C@_0O@KKNIODBM@Salt?5Length?3?5?$AA@ 00092570     libeay32:rsa_ameth.obj
 0002:00021580       ??_C@_0BJ@NNFOENLD@mgf1?5with?5sha1?5?$CIdefault?$CJ?$AA@ 00092580     libeay32:rsa_ameth.obj
 0002:0002159c       ??_C@_07DNODLGKM@INVALID?$AA@ 0009259c     libeay32:rsa_ameth.obj
 0002:000215a4       ??_C@_06BIDGLIKJ@?5with?5?$AA@ 000925a4     libeay32:rsa_ameth.obj
 0002:000215ac       ??_C@_0BB@HEAMLCPA@Mask?5Algorithm?3?5?$AA@ 000925ac     libeay32:rsa_ameth.obj
 0002:000215c0       ??_C@_0P@ODEAMLKF@sha1?5?$CIdefault?$CJ?$AA@ 000925c0     libeay32:rsa_ameth.obj
 0002:000215d0       ??_C@_0BB@PMMDHLKH@Hash?5Algorithm?3?5?$AA@ 000925d0     libeay32:rsa_ameth.obj
 0002:000215e4       ??_C@_0BL@KMBKPBGM@?5?$CIINVALID?5PSS?5PARAMETERS?$CJ?6?$AA@ 000925e4     libeay32:rsa_ameth.obj
 0002:00021600       cmac_pkey_meth             00092600     libeay32:cm_pmeth.obj
 0002:0002166c       ??_C@_06BHJHKMJC@hexkey?$AA@ 0009266c     libeay32:cm_pmeth.obj
 0002:00021674       ??_C@_06KDGDAFPH@cipher?$AA@ 00092674     libeay32:cm_pmeth.obj
 0002:0002167c       ??_C@_03ICHNJLJF@key?$AA@  0009267c     libeay32:cm_pmeth.obj
 0002:00021680       hmac_pkey_meth             00092680     libeay32:hm_pmeth.obj
 0002:000216f0       ??_C@_0EP@PNIBEDF@d?3?2wm653wehh?2platform?2mvv210?2src@ 000926f0     libeay32:hm_pmeth.obj
 0002:00021740       ec_pkey_meth               00092740     libeay32:ec_pmeth.obj
 0002:000217b0       ??_C@_0EN@FGGHDHMC@d?3?2wm653wehh?2platform?2mvv210?2src@ 000927b0     libeay32:ec_pmeth.obj
 0002:00021800       ??_C@_0BC@BLCJLNNM@ec_paramgen_curve?$AA@ 00092800     libeay32:ec_pmeth.obj
 0002:00021818       dsa_pkey_meth              00092818     libeay32:dsa_pmeth.obj
 0002:00021888       ??_C@_0EP@KECMJLCG@d?3?2wm653wehh?2platform?2mvv210?2src@ 00092888     libeay32:dsa_pmeth.obj
 0002:000218d8       ??_C@_0BA@HDLNDIMK@dsa_paramgen_md?$AA@ 000928d8     libeay32:dsa_pmeth.obj
 0002:000218e8       ??_C@_0BE@JHBKDNPA@dsa_paramgen_q_bits?$AA@ 000928e8     libeay32:dsa_pmeth.obj
 0002:000218fc       ??_C@_0BC@DOMHFBFC@dsa_paramgen_bits?$AA@ 000928fc     libeay32:dsa_pmeth.obj
 0002:00021910       dh_pkey_meth               00092910     libeay32:dh_pmeth.obj
 0002:00021980       ??_C@_0EN@BFMPENCA@d?3?2wm653wehh?2platform?2mvv210?2src@ 00092980     libeay32:dh_pmeth.obj
 0002:000219d0       ??_C@_0BG@POLEFOHA@dh_paramgen_generator?$AA@ 000929d0     libeay32:dh_pmeth.obj
 0002:000219e8       ??_C@_0BG@LEMCDPBI@dh_paramgen_prime_len?$AA@ 000929e8     libeay32:dh_pmeth.obj
 0002:00021a00       rsa_pkey_meth              00092a00     libeay32:rsa_pmeth.obj
 0002:00021a70       ??_C@_0EP@PCLPIEEA@d?3?2wm653wehh?2platform?2mvv210?2src@ 00092a70     libeay32:rsa_pmeth.obj
 0002:00021ac0       ??_C@_0BC@DMECNPFD@rsa_keygen_pubexp?$AA@ 00092ac0     libeay32:rsa_pmeth.obj
 0002:00021ad4       ??_C@_0BA@GFPKPLAF@rsa_keygen_bits?$AA@ 00092ad4     libeay32:rsa_pmeth.obj
 0002:00021ae4       ??_C@_0BA@CIHMEEHB@rsa_pss_saltlen?$AA@ 00092ae4     libeay32:rsa_pmeth.obj
 0002:00021af4       ??_C@_04JNCMEILM@x931?$AA@ 00092af4     libeay32:rsa_pmeth.obj
 0002:00021afc       ??_C@_04EIGNDHKO@oeap?$AA@ 00092afc     libeay32:rsa_pmeth.obj
 0002:00021b04       ??_C@_04CGFJFPFD@none?$AA@ 00092b04     libeay32:rsa_pmeth.obj
 0002:00021b0c       ??_C@_06PDLHKEJK@sslv23?$AA@ 00092b0c     libeay32:rsa_pmeth.obj
 0002:00021b14       ??_C@_0BB@BILFEOKG@rsa_padding_mode?$AA@ 00092b14     libeay32:rsa_pmeth.obj
 0002:00021b28       ??_C@_0EL@PAPNDPGN@d?3?2wm653wehh?2platform?2mvv210?2src@ 00092b28     libeay32:p_lib.obj
 0002:00021b78       ??_C@_0FC@GLILKHMO@d?3?2wm653wehh?2platform?2mvv210?2src@ 00092b78     libeay32:tb_digest.obj
 0002:00021bd0       ??_C@_0EN@HNCBNDLA@d?3?2wm653wehh?2platform?2mvv210?2src@ 00092bd0     libeay32:evp_lib.obj
 0002:00021c20       ??_C@_0BD@LHHAEAAJ@l?5?$DM?$DN?5sizeof?$CIc?9?$DOiv?$CJ?$AA@ 00092c20     libeay32:evp_lib.obj
 0002:00021c34       ??_C@_0BD@CKKMELBK@j?5?$DM?$DN?5sizeof?$CIc?9?$DOiv?$CJ?$AA@ 00092c34     libeay32:evp_lib.obj
 0002:00021c48       ??_C@_0EO@NHOCECJL@d?3?2wm653wehh?2platform?2mvv210?2src@ 00092c48     libeay32:rsa_sign.obj
 0002:00021c98       ??_C@_0DF@DGNAAHIE@signature?5has?5problems?0?5re?9make?5@ 00092c98     libeay32:rsa_sign.obj
 0002:00021cd0       SHA1_version               00092cd0     libeay32:sha1dgst.obj
 0002:00021cf8       SHA256_version             00092cf8     libeay32:sha256.obj
 0002:00021e28       SHA512_version             00092e28     libeay32:sha512.obj
 0002:000220d8       ??_C@_0EL@CJHJHLOJ@d?3?2wm653wehh?2platform?2mvv210?2src@ 000930d8     libeay32:cmac.obj
 0002:00022440       ??_C@_0N@KHICOJGI@ASN1_SET_ANY?$AA@ 00093440     libeay32:tasn_typ.obj
 0002:00022450       ??_C@_0BC@COPGMDLD@ASN1_SEQUENCE_ANY?$AA@ 00093450     libeay32:tasn_typ.obj
 0002:00022464       ??_C@_0BH@HEBAELGA@ASN1_OCTET_STRING_NDEF?$AA@ 00093464     libeay32:tasn_typ.obj
 0002:0002247c       ??_C@_0O@JKANHMPI@ASN1_FBOOLEAN?$AA@ 0009347c     libeay32:tasn_typ.obj
 0002:0002248c       ??_C@_0O@BIDLBGAP@ASN1_TBOOLEAN?$AA@ 0009348c     libeay32:tasn_typ.obj
 0002:0002249c       ??_C@_0N@HMAPMMGF@ASN1_BOOLEAN?$AA@ 0009349c     libeay32:tasn_typ.obj
 0002:000224ac       ??_C@_0BA@CBHCBCAE@DIRECTORYSTRING?$AA@ 000934ac     libeay32:tasn_typ.obj
 0002:000224bc       ??_C@_0M@FANFDIEE@DISPLAYTEXT?$AA@ 000934bc     libeay32:tasn_typ.obj
 0002:000224c8       ??_C@_0P@NDKOCAEJ@ASN1_PRINTABLE?$AA@ 000934c8     libeay32:tasn_typ.obj
 0002:000224d8       ??_C@_0O@NJFCFMGE@ASN1_SEQUENCE?$AA@ 000934d8     libeay32:tasn_typ.obj
 0002:000224e8       ??_C@_08FIDCPDIJ@ASN1_ANY?$AA@ 000934e8     libeay32:tasn_typ.obj
 0002:000224f4       ??_C@_0P@CHICPHIN@ASN1_BMPSTRING?$AA@ 000934f4     libeay32:tasn_typ.obj
 0002:00022504       ??_C@_0BF@DMDDFBNJ@ASN1_UNIVERSALSTRING?$AA@ 00093504     libeay32:tasn_typ.obj
 0002:0002251c       ??_C@_0BD@HMMCNBGD@ASN1_VISIBLESTRING?$AA@ 0009351c     libeay32:tasn_typ.obj
 0002:00022530       ??_C@_0BF@MPJFOIHC@ASN1_GENERALIZEDTIME?$AA@ 00093530     libeay32:tasn_typ.obj
 0002:00022548       ??_C@_0N@OIMCLPEM@ASN1_UTCTIME?$AA@ 00093548     libeay32:tasn_typ.obj
 0002:00022558       ??_C@_0BD@EMMGLGMD@ASN1_GENERALSTRING?$AA@ 00093558     libeay32:tasn_typ.obj
 0002:0002256c       ??_C@_0P@KBFNFBLB@ASN1_IA5STRING?$AA@ 0009356c     libeay32:tasn_typ.obj
 0002:0002257c       ??_C@_0P@GDIFPLAP@ASN1_T61STRING?$AA@ 0009357c     libeay32:tasn_typ.obj
 0002:0002258c       ??_C@_0BF@CPDMNKCA@ASN1_PRINTABLESTRING?$AA@ 0009358c     libeay32:tasn_typ.obj
 0002:000225a4       ??_C@_0BA@LEPDCAOC@ASN1_UTF8STRING?$AA@ 000935a4     libeay32:tasn_typ.obj
 0002:000225b4       ??_C@_0M@BJNOJGBL@ASN1_OBJECT?$AA@ 000935b4     libeay32:tasn_typ.obj
 0002:000225c0       ??_C@_09NHFFCPKK@ASN1_NULL?$AA@ 000935c0     libeay32:tasn_typ.obj
 0002:000225cc       ??_C@_0BC@PEBEKNCO@ASN1_OCTET_STRING?$AA@ 000935cc     libeay32:tasn_typ.obj
 0002:000225e0       ??_C@_0BA@LJHGDIKH@ASN1_BIT_STRING?$AA@ 000935e0     libeay32:tasn_typ.obj
 0002:000225f0       ??_C@_0BA@CLGIIAJD@ASN1_ENUMERATED?$AA@ 000935f0     libeay32:tasn_typ.obj
 0002:00022600       ??_C@_0N@KIGEHGKE@ASN1_INTEGER?$AA@ 00093600     libeay32:tasn_typ.obj
 0002:00022990       ??_C@_0O@DFJMHGOP@EC_PRIVATEKEY?$AA@ 00093990     libeay32:ec_asn1.obj
 0002:000229a0       ??_C@_09IDENFCJL@publicKey?$AA@ 000939a0     libeay32:ec_asn1.obj
 0002:000229ac       ??_C@_0L@HHPOFMCB@parameters?$AA@ 000939ac     libeay32:ec_asn1.obj
 0002:000229b8       ??_C@_0L@BCENACFO@privateKey?$AA@ 000939b8     libeay32:ec_asn1.obj
 0002:000229c4       ??_C@_0P@PBBIGPFJ@ECPKPARAMETERS?$AA@ 000939c4     libeay32:ec_asn1.obj
 0002:000229d4       ??_C@_0BD@HOIIAPI@value?4implicitlyCA?$AA@ 000939d4     libeay32:ec_asn1.obj
 0002:000229e8       ??_C@_0BB@KOECJJJ@value?4parameters?$AA@ 000939e8     libeay32:ec_asn1.obj
 0002:000229fc       ??_C@_0BC@JEJHGDNN@value?4named_curve?$AA@ 000939fc     libeay32:ec_asn1.obj
 0002:00022a10       ??_C@_0N@ECDPFONH@ECPARAMETERS?$AA@ 00093a10     libeay32:ec_asn1.obj
 0002:00022a20       ??_C@_08DKFAOMDI@cofactor?$AA@ 00093a20     libeay32:ec_asn1.obj
 0002:00022a2c       ??_C@_05NDNMCCJH@order?$AA@ 00093a2c     libeay32:ec_asn1.obj
 0002:00022a34       ??_C@_04BHIIPFEC@base?$AA@ 00093a34     libeay32:ec_asn1.obj
 0002:00022a3c       ??_C@_05HIKPKPAA@curve?$AA@ 00093a3c     libeay32:ec_asn1.obj
 0002:00022a44       ??_C@_07MJJGNICD@fieldID?$AA@ 00093a44     libeay32:ec_asn1.obj
 0002:00022a4c       ??_C@_07CPCPJPKL@version?$AA@ 00093a4c     libeay32:ec_asn1.obj
 0002:00022a54       ??_C@_0M@BHDPNPCK@X9_62_CURVE?$AA@ 00093a54     libeay32:ec_asn1.obj
 0002:00022a60       ??_C@_04MENKDCKE@seed?$AA@ 00093a60     libeay32:ec_asn1.obj
 0002:00022a68       ??_C@_0O@PGPIAKKH@X9_62_FIELDID?$AA@ 00093a68     libeay32:ec_asn1.obj
 0002:00022a78       ??_C@_09OAOLGAOM@fieldType?$AA@ 00093a78     libeay32:ec_asn1.obj
 0002:00022a84       ??_C@_0L@NLMAKEBL@p?4char_two?$AA@ 00093a84     libeay32:ec_asn1.obj
 0002:00022a90       ??_C@_07DPJEDCLB@p?4prime?$AA@ 00093a90     libeay32:ec_asn1.obj
 0002:00022a98       ??_C@_0BJ@CCODLOLO@X9_62_CHARACTERISTIC_TWO?$AA@ 00093a98     libeay32:ec_asn1.obj
 0002:00022ab4       ??_C@_04GPMDFGEJ@type?$AA@ 00093ab4     libeay32:ec_asn1.obj
 0002:00022abc       ??_C@_01GOHFPIOK@m?$AA@    00093abc     libeay32:ec_asn1.obj
 0002:00022ac0       ??_C@_09DMGLCKOJ@p?4ppBasis?$AA@ 00093ac0     libeay32:ec_asn1.obj
 0002:00022acc       ??_C@_09LICBCEBD@p?4tpBasis?$AA@ 00093acc     libeay32:ec_asn1.obj
 0002:00022ad8       ??_C@_09KOBBOOPN@p?4onBasis?$AA@ 00093ad8     libeay32:ec_asn1.obj
 0002:00022ae4       ??_C@_07PBHIMFBE@p?4other?$AA@ 00093ae4     libeay32:ec_asn1.obj
 0002:00022aec       ??_C@_0BC@NPDMPFCL@X9_62_PENTANOMIAL?$AA@ 00093aec     libeay32:ec_asn1.obj
 0002:00022b00       ??_C@_02LAFHGHBM@k3?$AA@   00093b00     libeay32:ec_asn1.obj
 0002:00022b04       ??_C@_02KJEMFGFN@k2?$AA@   00093b04     libeay32:ec_asn1.obj
 0002:00022b08       ??_C@_02ICGBAFJO@k1?$AA@   00093b08     libeay32:ec_asn1.obj
 0002:00022b10       ??_C@_0EM@BCOHHMGC@d?3?2wm653wehh?2platform?2mvv210?2src@ 00093b10     libeay32:ec_asn1.obj
 0002:00022b60       ??_C@_0EL@FFHGPJNM@d?3?2wm653wehh?2platform?2mvv210?2src@ 00093b60     libeay32:ec_key.obj
 0002:00022c08       ??_C@_0M@INJPOKDH@X509_PUBKEY?$AA@ 00093c08     libeay32:x_pubkey.obj
 0002:00022c14       ??_C@_0L@PJCANJEE@public_key?$AA@ 00093c14     libeay32:x_pubkey.obj
 0002:00022c20       ??_C@_05CJCEEADM@algor?$AA@ 00093c20     libeay32:x_pubkey.obj
 0002:00022c28       ??_C@_0EP@OKMPOBJE@d?3?2wm653wehh?2platform?2mvv210?2src@ 00093c28     libeay32:x_pubkey.obj
 0002:00022cec       ??_C@_0M@MMOLGLEG@X509_ALGORS?$AA@ 00093cec     libeay32:x_algor.obj
 0002:00022cf8       ??_C@_0L@BNOBMJFK@algorithms?$AA@ 00093cf8     libeay32:x_algor.obj
 0002:00022d04       ??_C@_0L@BFHONDPK@X509_ALGOR?$AA@ 00093d04     libeay32:x_algor.obj
 0002:00022d10       ??_C@_09DAGAJHIH@parameter?$AA@ 00093d10     libeay32:x_algor.obj
 0002:00022da8       ??_C@_0BE@LDIFBBLG@PKCS8_PRIV_KEY_INFO?$AA@ 00093da8     libeay32:p8_pkey.obj
 0002:00022dbc       ??_C@_0L@HNMJPKNA@attributes?$AA@ 00093dbc     libeay32:p8_pkey.obj
 0002:00022dc8       ??_C@_04JMMJFDFL@pkey?$AA@ 00093dc8     libeay32:p8_pkey.obj
 0002:00022dd0       ??_C@_07PLCMOKAM@pkeyalg?$AA@ 00093dd0     libeay32:p8_pkey.obj
 0002:00022dd8       ECDSA_version              00093dd8     libeay32:ecs_lib.obj
 0002:00022e08       ??_C@_0EP@HDBDKLOP@d?3?2wm653wehh?2platform?2mvv210?2src@ 00093e08     libeay32:ecs_lib.obj
 0002:00022e58       ??_C@_0BE@FPCNHCIJ@Generator?5?$CIhybrid?$CJ?3?$AA@ 00093e58     libeay32:eck_prn.obj
 0002:00022e6c       ??_C@_0BK@DOCPEENO@Generator?5?$CIuncompressed?$CJ?3?$AA@ 00093e6c     libeay32:eck_prn.obj
 0002:00022e88       ??_C@_0BI@DFFFIKFB@Generator?5?$CIcompressed?$CJ?3?$AA@ 00093e88     libeay32:eck_prn.obj
 0002:00022ea0       ??_C@_06LEJCPMLM@?$CF02x?$CFs?$AA@ 00093ea0     libeay32:eck_prn.obj
 0002:00022ea8       ??_C@_01JLIPDDHJ@?3?$AA@   00093ea8     libeay32:eck_prn.obj
 0002:00022eb0       ??_C@_0EM@FLNGOIDD@d?3?2wm653wehh?2platform?2mvv210?2src@ 00093eb0     libeay32:eck_prn.obj
 0002:00022efc       ??_C@_05PDHKGGIM@Seed?3?$AA@ 00093efc     libeay32:eck_prn.obj
 0002:00022f04       ??_C@_0L@IEMHODML@Cofactor?3?5?$AA@ 00093f04     libeay32:eck_prn.obj
 0002:00022f10       ??_C@_07KOGOKIFH@Order?3?5?$AA@ 00093f10     libeay32:eck_prn.obj
 0002:00022f18       ??_C@_05OKMHJIGA@B?3?5?5?5?$AA@ 00093f18     libeay32:eck_prn.obj
 0002:00022f20       ??_C@_05GMFDOKMO@A?3?5?5?5?$AA@ 00093f20     libeay32:eck_prn.obj
 0002:00022f28       ??_C@_06DBHHIIKM@Prime?3?$AA@ 00093f28     libeay32:eck_prn.obj
 0002:00022f30       ??_C@_0M@JDIPGLHE@Polynomial?3?$AA@ 00093f30     libeay32:eck_prn.obj
 0002:00022f3c       ??_C@_0BA@ENMKKION@Basis?5Type?3?5?$CFs?6?$AA@ 00093f3c     libeay32:eck_prn.obj
 0002:00022f4c       ??_C@_0BA@KNKNOIFH@Field?5Type?3?5?$CFs?6?$AA@ 00093f4c     libeay32:eck_prn.obj
 0002:00022f5c       ??_C@_0N@JOFLCJFF@ASN1?5OID?3?5?$CFs?$AA@ 00093f5c     libeay32:eck_prn.obj
 0002:00022f6c       ??_C@_04HDOCAJNK@?$CFs?$CFs?$AA@ 00093f6c     libeay32:t_pkey.obj
 0002:00022f74       ??_C@_0M@IBLDKCHK@?5?$CINegative?$CJ?$AA@ 00093f74     libeay32:t_pkey.obj
 0002:00022f80       ??_C@_0BE@KHLFKPFC@?$CFs?5?$CFs?$CFlu?5?$CI?$CFs0x?$CFlx?$CJ?6?$AA@ 00093f80     libeay32:t_pkey.obj
 0002:00022f94       ??_C@_05NJJIPCOC@?$CFs?50?6?$AA@ 00093f94     libeay32:t_pkey.obj
 0002:00022fa0       ??_C@_0EN@IAKMHMJK@d?3?2wm653wehh?2platform?2mvv210?2src@ 00093fa0     libeay32:ec_print.obj
 0002:00022ff0       ??_C@_0EP@EBOHPFGP@d?3?2wm653wehh?2platform?2mvv210?2src@ 00093ff0     libeay32:pk7_lib.obj
 0002:00023220       ??_C@_0EM@PJNFBCEL@d?3?2wm653wehh?2platform?2mvv210?2src@ 00094220     libeay32:cms_sd.obj
 0002:0002326c       DSA_version                0009426c     libeay32:dsa_lib.obj
 0002:00023298       ??_C@_0EN@HPPIDPIC@d?3?2wm653wehh?2platform?2mvv210?2src@ 00094298     libeay32:dsa_lib.obj
 0002:000232e8       ??_C@_0EM@IJKLDGFG@d?3?2wm653wehh?2platform?2mvv210?2src@ 000942e8     libeay32:a_int.obj
 0002:00023578       ??_C@_08CCPALKOP@priv_key?$AA@ 00094578     libeay32:dsa_asn1.obj
 0002:00023584       ??_C@_07CLGEADLH@pub_key?$AA@ 00094584     libeay32:dsa_asn1.obj
 0002:0002358c       ??_C@_01JEJKBAGA@g?$AA@    0009458c     libeay32:dsa_asn1.obj
 0002:00023590       ??_C@_01IIACKFLH@q?$AA@    00094590     libeay32:dsa_asn1.obj
 0002:00023594       ??_C@_01JBBJJEPG@p?$AA@    00094594     libeay32:dsa_asn1.obj
 0002:00023598       ??_C@_07ECLLFBLJ@DSA_SIG?$AA@ 00094598     libeay32:dsa_asn1.obj
 0002:000235a0       ??_C@_01LKDEMHDF@s?$AA@    000945a0     libeay32:dsa_asn1.obj
 0002:000235a8       ??_C@_0EO@DLELNGDB@d?3?2wm653wehh?2platform?2mvv210?2src@ 000945a8     libeay32:dsa_asn1.obj
 0002:000235f8       ??_C@_03MKABNOCG@Dec?$AA@  000945f8     libeay32:t_x509.obj
 0002:000235fc       ??_C@_03JPJOFNIA@Nov?$AA@  000945fc     libeay32:t_x509.obj
 0002:00023600       ??_C@_03BMAOKBAD@Oct?$AA@  00094600     libeay32:t_x509.obj
 0002:00023604       ??_C@_03GGCAPAJC@Sep?$AA@  00094604     libeay32:t_x509.obj
 0002:00023608       ??_C@_03IFJFEIGA@Aug?$AA@  00094608     libeay32:t_x509.obj
 0002:0002360c       ??_C@_03LBGABGKK@Jul?$AA@  0009460c     libeay32:t_x509.obj
 0002:00023610       ??_C@_03IDFGHECI@Jun?$AA@  00094610     libeay32:t_x509.obj
 0002:00023614       ??_C@_03CNMDKL@May?$AA@    00094614     libeay32:t_x509.obj
 0002:00023618       ??_C@_03LEOLGMJP@Apr?$AA@  00094618     libeay32:t_x509.obj
 0002:0002361c       ??_C@_03ODNJBKGA@Mar?$AA@  0009461c     libeay32:t_x509.obj
 0002:00023620       ??_C@_03HJBDCHOM@Feb?$AA@  00094620     libeay32:t_x509.obj
 0002:00023624       ??_C@_03JIHJHPIE@Jan?$AA@  00094624     libeay32:t_x509.obj
 0002:00023628       ??_C@_0EN@JFBJIANP@d?3?2wm653wehh?2platform?2mvv210?2src@ 00094628     libeay32:t_x509.obj
 0002:00023678       ??_C@_0P@FGACABCD@Bad?5time?5value?$AA@ 00094678     libeay32:t_x509.obj
 0002:00023688       ??_C@_0BP@OGIOIJMK@?$CFs?5?$CF2d?5?$CF02d?3?$CF02d?3?$CF02d?$CF?4?$CKs?5?$CFd?$CFs?$AA@ 00094688     libeay32:t_x509.obj
 0002:000236a8       ??_C@_04FIEKMBKB@?5GMT?$AA@ 000946a8     libeay32:t_x509.obj
 0002:000236b0       ??_C@_02KEGNLNML@?0?5?$AA@ 000946b0     libeay32:t_x509.obj
 0002:000236b8       ??_C@_0EO@PHDJAHKO@d?3?2wm653wehh?2platform?2mvv210?2src@ 000946b8     libeay32:dsa_sign.obj
 0002:00023708       DH_version                 00094708     libeay32:dh_lib.obj
 0002:00023740       ??_C@_0EL@PIAODHMF@d?3?2wm653wehh?2platform?2mvv210?2src@ 00094740     libeay32:dh_lib.obj
 0002:000237fc       ??_C@_06IJDLPEM@length?$AA@ 000947fc     libeay32:dh_asn1.obj
 0002:00023804       ??_C@_0BC@MGHKLCAP@OpenSSL?5DH?5Method?$AA@ 00094804     libeay32:dh_key.obj
 0002:00023818       ??_C@_0EL@KHODDKOC@d?3?2wm653wehh?2platform?2mvv210?2src@ 00094818     libeay32:dh_key.obj
 0002:00023a1c       ??_C@_0P@PJJHDFJB@RSA_PSS_PARAMS?$AA@ 00094a1c     libeay32:rsa_asn1.obj
 0002:00023a2c       ??_C@_0N@KGDDKMLA@trailerField?$AA@ 00094a2c     libeay32:rsa_asn1.obj
 0002:00023a3c       ??_C@_0L@PKGNFOCE@saltLength?$AA@ 00094a3c     libeay32:rsa_asn1.obj
 0002:00023a48       ??_C@_0BB@KKPGFJED@maskGenAlgorithm?$AA@ 00094a48     libeay32:rsa_asn1.obj
 0002:00023a5c       ??_C@_0O@DHJLLKEK@hashAlgorithm?$AA@ 00094a5c     libeay32:rsa_asn1.obj
 0002:00023a6c       ??_C@_04BBEMPLKC@iqmp?$AA@ 00094a6c     libeay32:rsa_asn1.obj
 0002:00023a74       ??_C@_04PENPDGE@dmq1?$AA@  00094a74     libeay32:rsa_asn1.obj
 0002:00023a7c       ??_C@_04OIPJJFD@dmp1?$AA@  00094a7c     libeay32:rsa_asn1.obj
 0002:00023a84       ??_C@_01LPLHEDKD@d?$AA@    00094a84     libeay32:rsa_asn1.obj
 0002:00023a88       ??_C@_01KGKMHCOC@e?$AA@    00094a88     libeay32:rsa_asn1.obj
 0002:00023a8c       ??_C@_01EFFIKLCJ@n?$AA@    00094a8c     libeay32:rsa_asn1.obj
 0002:00023a90       ??_C@_0EO@DEEJNAGE@d?3?2wm653wehh?2platform?2mvv210?2src@ 00094a90     libeay32:rsa_crpt.obj
 0002:00023ae0       RSA_version                00094ae0     libeay32:rsa_lib.obj
 0002:00023b08       ??_C@_0EN@MLDILJPH@d?3?2wm653wehh?2platform?2mvv210?2src@ 00094b08     libeay32:rsa_lib.obj
 0002:00023b58       ??_C@_02JPPHBJLD@?2?6?$AA@ 00094b58     libeay32:f_int.obj
 0002:00023b5c       ??_C@_02PLJDPFIO@00?$AA@   00094b5c     libeay32:f_int.obj
 0002:00023b60       ??_C@_0EN@EGODLFJH@d?3?2wm653wehh?2platform?2mvv210?2src@ 00094b60     libeay32:cms_env.obj
 0002:00023bb0       ??_C@_0EO@ENFGJDHG@d?3?2wm653wehh?2platform?2mvv210?2src@ 00094bb0     libeay32:m_sigver.obj
 0002:00023c00       ??_C@_0EP@ECCLNLMM@d?3?2wm653wehh?2platform?2mvv210?2src@ 00094c00     libeay32:asn_pack.obj
 0002:00023c68       ??_C@_0EP@DFJOCJBM@d?3?2wm653wehh?2platform?2mvv210?2src@ 00094c68     libeay32:v3_utl.obj
 0002:00023cb8       ??_C@_05MAJJAKPI@FALSE?$AA@ 00094cb8     libeay32:v3_utl.obj
 0002:00023cc0       ??_C@_04HCDDPBNL@TRUE?$AA@ 00094cc0     libeay32:v3_utl.obj
 0002:00023cc8       ??_C@_07BDICHDDB@?0value?3?$AA@ 00094cc8     libeay32:v3_utl.obj
 0002:00023cd0       ??_C@_06FONLLLNC@?0name?3?$AA@ 00094cd0     libeay32:v3_utl.obj
 0002:00023cd8       ??_C@_08PCLJGJAL@section?3?$AA@ 00094cd8     libeay32:v3_utl.obj
 0002:00023ce4       ??_C@_02KAJCLHKP@no?$AA@   00094ce4     libeay32:v3_utl.obj
 0002:00023ce8       ??_C@_02NFLNFON@NO?$AA@    00094ce8     libeay32:v3_utl.obj
 0002:00023cec       ??_C@_01NANMIPIL@N?$AA@    00094cec     libeay32:v3_utl.obj
 0002:00023cf0       ??_C@_05LAPONLG@false?$AA@ 00094cf0     libeay32:v3_utl.obj
 0002:00023cf8       ??_C@_03ICICOMAL@yes?$AA@  00094cf8     libeay32:v3_utl.obj
 0002:00023cfc       ??_C@_03IPHJCBHH@YES?$AA@  00094cfc     libeay32:v3_utl.obj
 0002:00023d00       ??_C@_01EANLCPLP@y?$AA@    00094d00     libeay32:v3_utl.obj
 0002:00023d04       ??_C@_01NFFPALBN@Y?$AA@    00094d04     libeay32:v3_utl.obj
 0002:00023d08       ??_C@_04LOAJBDKD@true?$AA@ 00094d08     libeay32:v3_utl.obj
 0002:00023d10       ??_C@_0M@PCENNPGA@?$CFd?4?$CFd?4?$CFd?4?$CFd?$AA@ 00094d10     libeay32:v3_utl.obj
 0002:00023d1c       ??_C@_0CF@JFAAPJDH@len?$DO?$DN0?5?$CG?$CG?5len?$DM?$DN?$CIint?$CJsizeof?$CIctx?9?$DO@ 00094d1c     libeay32:hmac.obj
 0002:00023d44       ??_C@_0BL@OKHNPHMK@j?5?$DM?$DN?5?$CIint?$CJsizeof?$CIctx?9?$DOkey?$CJ?$AA@ 00094d44     libeay32:hmac.obj
 0002:00023d60       ??_C@_0EL@FKOMILBN@d?3?2wm653wehh?2platform?2mvv210?2src@ 00094d60     libeay32:hmac.obj
 0002:00023db0       ??_C@_0EL@BNOPJFLP@d?3?2wm653wehh?2platform?2mvv210?2src@ 00094db0     libeay32:dh_gen.obj
 0002:00023e08       ??_C@_0EN@HNNJMEMO@d?3?2wm653wehh?2platform?2mvv210?2src@ 00094e08     libeay32:rsa_pss.obj
 0002:00023e58       ??_C@_0EO@IHJGGIGJ@d?3?2wm653wehh?2platform?2mvv210?2src@ 00094e58     libeay32:rsa_x931.obj
 0002:00023ea8       ??_C@_0EO@KJLCAEHF@d?3?2wm653wehh?2platform?2mvv210?2src@ 00094ea8     libeay32:rsa_saos.obj
 0002:00023ef8       ??_C@_0EN@CONJBLIN@d?3?2wm653wehh?2platform?2mvv210?2src@ 00094ef8     libeay32:rsa_gen.obj
 0002:00023fd0       ??_C@_06IEOJBDIK@object?$AA@ 00094fd0     libeay32:x_attrib.obj
 0002:00023fd8       ??_C@_0P@IBKNNFL@X509_ATTRIBUTE?$AA@ 00094fd8     libeay32:x_attrib.obj
 0002:00023fe8       ??_C@_0N@MCAEPLPL@value?4single?$AA@ 00094fe8     libeay32:x_attrib.obj
 0002:00023ff8       ??_C@_09MPCDAIAO@value?4set?$AA@ 00094ff8     libeay32:x_attrib.obj
 0002:000241b0       ??_C@_0EN@ODDCBIPI@d?3?2wm653wehh?2platform?2mvv210?2src@ 000951b0     libeay32:evp_pbe.obj
 0002:00024200       ??_C@_05DLJFLBDA@TYPE?$DN?$AA@ 00095200     libeay32:evp_pbe.obj
 0002:00024208       ??_C@_0EP@KDEOOFHE@d?3?2wm653wehh?2platform?2mvv210?2src@ 00095208     libeay32:evp_asn1.obj
 0002:0002429c       ??_C@_08DFMPDBMK@X509_SIG?$AA@ 0009529c     libeay32:x_sig.obj
 0002:000242a8       EVP_version                000952a8     libeay32:evp_enc.obj
 0002:000242d0       ??_C@_0EN@FALCDJAN@d?3?2wm653wehh?2platform?2mvv210?2src@ 000952d0     libeay32:evp_enc.obj
 0002:00024320       ??_C@_0BM@NOPGEACO@bl?5?$DM?$DN?5?$CIint?$CJsizeof?$CIctx?9?$DObuf?$CJ?$AA@ 00095320     libeay32:evp_enc.obj
 0002:0002433c       ??_C@_0BF@NLHGELBH@b?5?$DM?$DN?5sizeof?5ctx?9?$DObuf?$AA@ 0009533c     libeay32:evp_enc.obj
 0002:00024354       ??_C@_0BH@JPOFFCDO@b?5?$DM?$DN?5sizeof?5ctx?9?$DOfinal?$AA@ 00095354     libeay32:evp_enc.obj
 0002:0002436c       ??_C@_0DG@IKOHIL@EVP_CIPHER_CTX_iv_length?$CIctx?$CJ?5?$DM?$DN@ 0009536c     libeay32:evp_enc.obj
 0002:000243a8       ??_C@_0FO@KIBMBINE@ctx?9?$DOcipher?9?$DOblock_size?5?$DN?$DN?51?5?$HM?$HM?5@ 000953a8     libeay32:evp_enc.obj
 0002:00024488       ??_C@_0EP@IJPFBBNM@d?3?2wm653wehh?2platform?2mvv210?2src@ 00095488     libeay32:tasn_dec.obj
 0002:000244d8       ??_C@_05GCCLHHOK@Type?$DN?$AA@ 000954d8     libeay32:tasn_dec.obj
 0002:000244e0       ??_C@_07NHKPEHKF@?0?5Type?$DN?$AA@ 000954e0     libeay32:tasn_dec.obj
 0002:000244e8       ??_C@_06GPKHKFJE@Field?$DN?$AA@ 000954e8     libeay32:tasn_dec.obj
 0002:000244f0       ??_C@_0EP@DFHJPDGI@d?3?2wm653wehh?2platform?2mvv210?2src@ 000954f0     libeay32:tasn_enc.obj
 0002:00024540       ??_C@_0EP@PHBFPCHC@d?3?2wm653wehh?2platform?2mvv210?2src@ 00095540     libeay32:tasn_new.obj
 0002:000245c8       ??_C@_05HIGAPBOG@ZLONG?$AA@ 000955c8     libeay32:x_long.obj
 0002:000245d0       ??_C@_04KCJFIMMJ@LONG?$AA@ 000955d0     libeay32:x_long.obj
 0002:000245d8       ??_C@_0EN@OBFIOJLM@d?3?2wm653wehh?2platform?2mvv210?2src@ 000955d8     libeay32:x_long.obj
 0002:00024628       ??_C@_04PEDNGLFL@?$CFld?6?$AA@ 00095628     libeay32:x_long.obj
 0002:00024630       ??_C@_0EP@PHFMEFHI@d?3?2wm653wehh?2platform?2mvv210?2src@ 00095630     libeay32:a_bitstr.obj
 0002:00024680       ??_C@_0EM@KNGHBEEM@d?3?2wm653wehh?2platform?2mvv210?2src@ 00095680     libeay32:a_dup.obj
 0002:000246cc       ??_C@_0BF@DJKLHCAL@OpenSSL?5ECDSA?5method?$AA@ 000956cc     libeay32:ecs_ossl.obj
 0002:000246e8       ??_C@_0FA@PJGMNPFB@d?3?2wm653wehh?2platform?2mvv210?2src@ 000956e8     libeay32:ecs_ossl.obj
 0002:00024ce8       ??_C@_0BC@DLHIINOH@PKCS7_ATTR_VERIFY?$AA@ 00095ce8     libeay32:pk7_asn1.obj
 0002:00024cfc       ??_C@_0BA@IJMFEGLH@PKCS7_ATTR_SIGN?$AA@ 00095cfc     libeay32:pk7_asn1.obj
 0002:00024d0c       ??_C@_0BB@ODHHPICH@PKCS7_ATTRIBUTES?$AA@ 00095d0c     libeay32:pk7_asn1.obj
 0002:00024d20       ??_C@_0N@NAILNAH@PKCS7_DIGEST?$AA@ 00095d20     libeay32:pk7_asn1.obj
 0002:00024d30       ??_C@_02EBCANADN@md?$AA@   00095d30     libeay32:pk7_asn1.obj
 0002:00024d34       ??_C@_0O@GIFGHKGC@PKCS7_ENCRYPT?$AA@ 00095d34     libeay32:pk7_asn1.obj
 0002:00024d44       ??_C@_0BE@LMHBPFDD@PKCS7_SIGN_ENVELOPE?$AA@ 00095d44     libeay32:pk7_asn1.obj
 0002:00024d58       ??_C@_0BC@INKEDPEG@PKCS7_ENC_CONTENT?$AA@ 00095d58     libeay32:pk7_asn1.obj
 0002:00024d6c       ??_C@_0N@IEAAACJL@content_type?$AA@ 00095d6c     libeay32:pk7_asn1.obj
 0002:00024d7c       ??_C@_0BB@MGPEFENK@PKCS7_RECIP_INFO?$AA@ 00095d7c     libeay32:pk7_asn1.obj
 0002:00024d90       ??_C@_07LBLKCHGJ@enc_key?$AA@ 00095d90     libeay32:pk7_asn1.obj
 0002:00024d98       ??_C@_0O@ODFHHMFC@key_enc_algor?$AA@ 00095d98     libeay32:pk7_asn1.obj
 0002:00024da8       ??_C@_0P@KCJMJLOD@PKCS7_ENVELOPE?$AA@ 00095da8     libeay32:pk7_asn1.obj
 0002:00024db8       ??_C@_08ENNDKKOI@enc_data?$AA@ 00095db8     libeay32:pk7_asn1.obj
 0002:00024dc4       ??_C@_0O@HGJALPPJ@recipientinfo?$AA@ 00095dc4     libeay32:pk7_asn1.obj
 0002:00024dd4       ??_C@_0BI@POAIONGK@PKCS7_ISSUER_AND_SERIAL?$AA@ 00095dd4     libeay32:pk7_asn1.obj
 0002:00024dec       ??_C@_06KCELPKEE@serial?$AA@ 00095dec     libeay32:pk7_asn1.obj
 0002:00024df4       ??_C@_06EAINIONG@issuer?$AA@ 00095df4     libeay32:pk7_asn1.obj
 0002:00024dfc       ??_C@_0BC@BFFCPPDG@PKCS7_SIGNER_INFO?$AA@ 00095dfc     libeay32:pk7_asn1.obj
 0002:00024e10       ??_C@_0M@NNBFAOJK@unauth_attr?$AA@ 00095e10     libeay32:pk7_asn1.obj
 0002:00024e1c       ??_C@_0L@PJDBOMFC@enc_digest?$AA@ 00095e1c     libeay32:pk7_asn1.obj
 0002:00024e28       ??_C@_0P@KLFHBHJD@digest_enc_alg?$AA@ 00095e28     libeay32:pk7_asn1.obj
 0002:00024e38       ??_C@_09PLABOLFJ@auth_attr?$AA@ 00095e38     libeay32:pk7_asn1.obj
 0002:00024e44       ??_C@_0L@OGBFEEJI@digest_alg?$AA@ 00095e44     libeay32:pk7_asn1.obj
 0002:00024e50       ??_C@_0BC@PMGLGNPO@issuer_and_serial?$AA@ 00095e50     libeay32:pk7_asn1.obj
 0002:00024e64       ??_C@_0N@CKBJFFNF@PKCS7_SIGNED?$AA@ 00095e64     libeay32:pk7_asn1.obj
 0002:00024e74       ??_C@_0M@KEDNAHBP@signer_info?$AA@ 00095e74     libeay32:pk7_asn1.obj
 0002:00024e80       ??_C@_03GJBFOAJL@crl?$AA@  00095e80     libeay32:pk7_asn1.obj
 0002:00024e84       ??_C@_04PHJBACIC@cert?$AA@ 00095e84     libeay32:pk7_asn1.obj
 0002:00024e8c       ??_C@_08ODCIAOPM@contents?$AA@ 00095e8c     libeay32:pk7_asn1.obj
 0002:00024e98       ??_C@_07MPDKKGPO@md_algs?$AA@ 00095e98     libeay32:pk7_asn1.obj
 0002:00024ea0       ??_C@_05BKMMPIPN@PKCS7?$AA@ 00095ea0     libeay32:pk7_asn1.obj
 0002:00024ea8       ??_C@_0M@IDEHBFAL@d?4encrypted?$AA@ 00095ea8     libeay32:pk7_asn1.obj
 0002:00024eb4       ??_C@_08JOIJLLGO@d?4digest?$AA@ 00095eb4     libeay32:pk7_asn1.obj
 0002:00024ec0       ??_C@_0BH@FHPJHCLF@d?4signed_and_enveloped?$AA@ 00095ec0     libeay32:pk7_asn1.obj
 0002:00024ed8       ??_C@_0M@CLKMIMCI@d?4enveloped?$AA@ 00095ed8     libeay32:pk7_asn1.obj
 0002:00024ee4       ??_C@_06GOHGJFCL@d?4sign?$AA@ 00095ee4     libeay32:pk7_asn1.obj
 0002:00024eec       ??_C@_06OAPKPHLA@d?4data?$AA@ 00095eec     libeay32:pk7_asn1.obj
 0002:00024ef4       ??_C@_07JIJPKMF@d?4other?$AA@ 00095ef4     libeay32:pk7_asn1.obj
 0002:00025070       ??_C@_07OBHFIHGJ@sig_alg?$AA@ 00096070     libeay32:x_x509.obj
 0002:00025078       ??_C@_09NKDPGBBA@cert_info?$AA@ 00096078     libeay32:x_x509.obj
 0002:00025084       ??_C@_09LCJGKABB@X509_CINF?$AA@ 00096084     libeay32:x_x509.obj
 0002:00025090       ??_C@_0L@ICCCPLKC@extensions?$AA@ 00096090     libeay32:x_x509.obj
 0002:0002509c       ??_C@_0L@JMFHLKAL@subjectUID?$AA@ 0009609c     libeay32:x_x509.obj
 0002:000250a8       ??_C@_09KIIAMAEE@issuerUID?$AA@ 000960a8     libeay32:x_x509.obj
 0002:000250b4       ??_C@_07JNNGEGGO@subject?$AA@ 000960b4     libeay32:x_x509.obj
 0002:000250bc       ??_C@_08GCHKOCBP@validity?$AA@ 000960bc     libeay32:x_x509.obj
 0002:000250c8       ??_C@_09CMIIOJHF@signature?$AA@ 000960c8     libeay32:x_x509.obj
 0002:00025264       ??_C@_08JGFBPDAP@X509_CRL?$AA@ 00096264     libeay32:x_crl.obj
 0002:00025270       ??_C@_0O@IMOAEKCP@X509_CRL_INFO?$AA@ 00096270     libeay32:x_crl.obj
 0002:00025280       ??_C@_07MIJFAMBD@revoked?$AA@ 00096280     libeay32:x_crl.obj
 0002:00025288       ??_C@_0L@BMOABHOK@nextUpdate?$AA@ 00096288     libeay32:x_crl.obj
 0002:00025294       ??_C@_0L@MPDCJAIM@lastUpdate?$AA@ 00096294     libeay32:x_crl.obj
 0002:000252a0       ??_C@_0N@JBPKOADN@X509_REVOKED?$AA@ 000962a0     libeay32:x_crl.obj
 0002:000252b0       ??_C@_0P@HBDMPDNI@revocationDate?$AA@ 000962b0     libeay32:x_crl.obj
 0002:000252c0       ??_C@_0EM@HLHJDKMD@d?3?2wm653wehh?2platform?2mvv210?2src@ 000962c0     libeay32:x_crl.obj
 0002:00025350       x509_name_ff               00096350     libeay32:x_name.obj
 0002:000253e8       ??_C@_09KGNJKBNF@X509_NAME?$AA@ 000963e8     libeay32:x_name.obj
 0002:000253f4       ??_C@_0BD@FDNDONGH@X509_NAME_INTERNAL?$AA@ 000963f4     libeay32:x_name.obj
 0002:00025408       ??_C@_04FABLJDN@Name?$AA@  00096408     libeay32:x_name.obj
 0002:00025410       ??_C@_0BC@GJMCELDI@X509_NAME_ENTRIES?$AA@ 00096410     libeay32:x_name.obj
 0002:00025424       ??_C@_04IEOKPFHO@RDNS?$AA@ 00096424     libeay32:x_name.obj
 0002:0002542c       ??_C@_0BA@KEPIIMOE@X509_NAME_ENTRY?$AA@ 0009642c     libeay32:x_name.obj
 0002:0002543c       ??_C@_05MFEJDJP@value?$AA@ 0009643c     libeay32:x_name.obj
 0002:00025448       ??_C@_0EN@KBGECLLO@d?3?2wm653wehh?2platform?2mvv210?2src@ 00096448     libeay32:x_name.obj
 0002:00026274       ??_C@_0M@GJHAMFIP@CMS_Receipt?$AA@ 00097274     libeay32:cms_asn1.obj
 0002:00026280       ??_C@_0BJ@OPFDHHHB@originatorSignatureValue?$AA@ 00097280     libeay32:cms_asn1.obj
 0002:0002629c       ??_C@_0BD@KOFKAGLC@CMS_ReceiptRequest?$AA@ 0009729c     libeay32:cms_asn1.obj
 0002:000262b0       ??_C@_0L@BBBJMFCF@receiptsTo?$AA@ 000972b0     libeay32:cms_asn1.obj
 0002:000262bc       ??_C@_0N@CIHGCFJG@receiptsFrom?$AA@ 000972bc     libeay32:cms_asn1.obj
 0002:000262cc       ??_C@_0BI@BHIBPADG@signedContentIdentifier?$AA@ 000972cc     libeay32:cms_asn1.obj
 0002:000262e4       ??_C@_0BB@JKAAKCKP@CMS_ReceiptsFrom?$AA@ 000972e4     libeay32:cms_asn1.obj
 0002:000262f8       ??_C@_0O@ECMNNMJA@d?4receiptList?$AA@ 000972f8     libeay32:cms_asn1.obj
 0002:00026308       ??_C@_0BB@DENHEDOF@d?4allOrFirstTier?$AA@ 00097308     libeay32:cms_asn1.obj
 0002:0002631c       ??_C@_0BG@NLALJKHJ@CMS_Attributes_Verify?$AA@ 0009731c     libeay32:cms_asn1.obj
 0002:00026334       ??_C@_0BE@PAHMALPK@CMS_Attributes_Sign?$AA@ 00097334     libeay32:cms_asn1.obj
 0002:00026348       ??_C@_0P@KAJKPCJH@CMS_ATTRIBUTES?$AA@ 00097348     libeay32:cms_asn1.obj
 0002:00026358       ??_C@_0BA@ECDDPOHH@CMS_ContentInfo?$AA@ 00097358     libeay32:cms_asn1.obj
 0002:00026368       ??_C@_0BB@NELCELCK@d?4compressedData?$AA@ 00097368     libeay32:cms_asn1.obj
 0002:0002637c       ??_C@_0BE@NPCJHPOJ@d?4authenticatedData?$AA@ 0009737c     libeay32:cms_asn1.obj
 0002:00026390       ??_C@_0BA@HJCBJEH@d?4encryptedData?$AA@ 00097390     libeay32:cms_asn1.obj
 0002:000263a0       ??_C@_0P@HJCJOBOP@d?4digestedData?$AA@ 000973a0     libeay32:cms_asn1.obj
 0002:000263b0       ??_C@_0BA@CCFAJLBF@d?4envelopedData?$AA@ 000973b0     libeay32:cms_asn1.obj
 0002:000263c0       ??_C@_0N@DDIMJOHE@d?4signedData?$AA@ 000973c0     libeay32:cms_asn1.obj
 0002:000263d0       ??_C@_0BD@IAIGGNCI@CMS_CompressedData?$AA@ 000973d0     libeay32:cms_asn1.obj
 0002:000263e4       ??_C@_0BF@PNIPCJJ@compressionAlgorithm?$AA@ 000973e4     libeay32:cms_asn1.obj
 0002:000263fc       ??_C@_0BG@DOMHNMEC@CMS_AuthenticatedData?$AA@ 000973fc     libeay32:cms_asn1.obj
 0002:00026414       ??_C@_0M@FBFPDIHA@unauthAttrs?$AA@ 00097414     libeay32:cms_asn1.obj
 0002:00026420       ??_C@_03BADCJGEO@mac?$AA@  00097420     libeay32:cms_asn1.obj
 0002:00026424       ??_C@_09HHELNNLD@authAttrs?$AA@ 00097424     libeay32:cms_asn1.obj
 0002:00026430       ??_C@_0N@PGIFJMM@macAlgorithm?$AA@ 00097430     libeay32:cms_asn1.obj
 0002:00026440       ??_C@_0BC@ONODDCLB@CMS_EncryptedData?$AA@ 00097440     libeay32:cms_asn1.obj
 0002:00026454       ??_C@_0BB@NNEFCOGL@CMS_DigestedData?$AA@ 00097454     libeay32:cms_asn1.obj
 0002:00026468       ??_C@_0BC@MICBLAOD@CMS_EnvelopedData?$AA@ 00097468     libeay32:cms_asn1.obj
 0002:0002647c       ??_C@_0BB@JCNJKAMK@unprotectedAttrs?$AA@ 0009747c     libeay32:cms_asn1.obj
 0002:00026490       ??_C@_0BF@OHLPJHAO@encryptedContentInfo?$AA@ 00097490     libeay32:cms_asn1.obj
 0002:000264a8       ??_C@_0P@MHKJPFAE@recipientInfos?$AA@ 000974a8     libeay32:cms_asn1.obj
 0002:000264b8       ??_C@_0P@HMLDCEHI@originatorInfo?$AA@ 000974b8     libeay32:cms_asn1.obj
 0002:000264c8       ??_C@_0BC@OIOGGOHC@CMS_RecipientInfo?$AA@ 000974c8     libeay32:cms_asn1.obj
 0002:000264dc       ??_C@_05CDKGAJPA@d?4ori?$AA@ 000974dc     libeay32:cms_asn1.obj
 0002:000264e4       ??_C@_06MMLMDIAL@d?4pwri?$AA@ 000974e4     libeay32:cms_asn1.obj
 0002:000264ec       ??_C@_07GNHCNHGA@d?4kekri?$AA@ 000974ec     libeay32:cms_asn1.obj
 0002:000264f4       ??_C@_06KOPOJGNL@d?4kari?$AA@ 000974f4     libeay32:cms_asn1.obj
 0002:000264fc       ??_C@_06MJDJDBHG@d?4ktri?$AA@ 000974fc     libeay32:cms_asn1.obj
 0002:00026504       ??_C@_0BH@ELFPNLNE@CMS_OtherRecipientInfo?$AA@ 00097504     libeay32:cms_asn1.obj
 0002:0002651c       ??_C@_08CPLCPCAK@oriValue?$AA@ 0009751c     libeay32:cms_asn1.obj
 0002:00026528       ??_C@_07FAMFHMLO@oriType?$AA@ 00097528     libeay32:cms_asn1.obj
 0002:00026530       ??_C@_0BK@KBPCOALF@CMS_PasswordRecipientInfo?$AA@ 00097530     libeay32:cms_asn1.obj
 0002:0002654c       ??_C@_0BH@OGDBOKG@keyDerivationAlgorithm?$AA@ 0009754c     libeay32:cms_asn1.obj
 0002:00026564       ??_C@_0BF@NBHFGDNK@CMS_KEKRecipientInfo?$AA@ 00097564     libeay32:cms_asn1.obj
 0002:0002657c       ??_C@_05NHGMHHPG@kekid?$AA@ 0009757c     libeay32:cms_asn1.obj
 0002:00026584       ??_C@_0BC@MBEMIKEG@CMS_KEKIdentifier?$AA@ 00097584     libeay32:cms_asn1.obj
 0002:00026598       ??_C@_0O@NFJHJHKH@keyIdentifier?$AA@ 00097598     libeay32:cms_asn1.obj
 0002:000265a8       ??_C@_0BK@FMJLFKK@CMS_KeyAgreeRecipientInfo?$AA@ 000975a8     libeay32:cms_asn1.obj
 0002:000265c4       ??_C@_0BH@PJIHPFGD@recipientEncryptedKeys?$AA@ 000975c4     libeay32:cms_asn1.obj
 0002:000265dc       ??_C@_03BGILEBGG@ukm?$AA@  000975dc     libeay32:cms_asn1.obj
 0002:000265e0       ??_C@_0L@LNFLHOFG@originator?$AA@ 000975e0     libeay32:cms_asn1.obj
 0002:000265ec       ??_C@_0BO@EGGGKLC@CMS_OriginatorIdentifierOrKey?$AA@ 000975ec     libeay32:cms_asn1.obj
 0002:0002660c       ??_C@_0BA@GMAGEPIK@d?4originatorKey?$AA@ 0009760c     libeay32:cms_asn1.obj
 0002:0002661c       ??_C@_0BI@BANGJHOF@CMS_OriginatorPublicKey?$AA@ 0009761c     libeay32:cms_asn1.obj
 0002:00026634       ??_C@_0BK@PEPAIBDP@CMS_RecipientEncryptedKey?$AA@ 00097634     libeay32:cms_asn1.obj
 0002:00026650       ??_C@_0CA@LLLOPIGI@CMS_KeyAgreeRecipientIdentifier?$AA@ 00097650     libeay32:cms_asn1.obj
 0002:00026670       ??_C@_08NDNCHPPH@d?4rKeyId?$AA@ 00097670     libeay32:cms_asn1.obj
 0002:0002667c       ??_C@_0BL@KIFNEPBG@CMS_RecipientKeyIdentifier?$AA@ 0009767c     libeay32:cms_asn1.obj
 0002:00026698       ??_C@_05BGEKGIIP@other?$AA@ 00097698     libeay32:cms_asn1.obj
 0002:000266a0       ??_C@_04JNIHBGGH@date?$AA@ 000976a0     libeay32:cms_asn1.obj
 0002:000266a8       ??_C@_0BG@MPKMCLOF@CMS_OtherKeyAttribute?$AA@ 000976a8     libeay32:cms_asn1.obj
 0002:000266c0       ??_C@_07CNMADOPK@keyAttr?$AA@ 000976c0     libeay32:cms_asn1.obj
 0002:000266c8       ??_C@_09FBOICBLA@keyAttrId?$AA@ 000976c8     libeay32:cms_asn1.obj
 0002:000266d4       ??_C@_0BK@JKNAJMBM@CMS_KeyTransRecipientInfo?$AA@ 000976d4     libeay32:cms_asn1.obj
 0002:000266f0       ??_C@_0N@DJLGIBLA@encryptedKey?$AA@ 000976f0     libeay32:cms_asn1.obj
 0002:00026700       ??_C@_0BH@NBKKPKMP@keyEncryptionAlgorithm?$AA@ 00097700     libeay32:cms_asn1.obj
 0002:00026718       ??_C@_03FJBKBGPI@rid?$AA@  00097718     libeay32:cms_asn1.obj
 0002:0002671c       ??_C@_0BJ@IHPALOIM@CMS_EncryptedContentInfo?$AA@ 0009771c     libeay32:cms_asn1.obj
 0002:00026738       ??_C@_0BB@HAOJNDCF@encryptedContent?$AA@ 00097738     libeay32:cms_asn1.obj
 0002:0002674c       ??_C@_0BL@JFGGCGJK@contentEncryptionAlgorithm?$AA@ 0009774c     libeay32:cms_asn1.obj
 0002:00026768       ??_C@_0BD@BOLANDH@CMS_OriginatorInfo?$AA@ 00097768     libeay32:cms_asn1.obj
 0002:0002677c       ??_C@_0P@IFJHOEIE@CMS_SignedData?$AA@ 0009777c     libeay32:cms_asn1.obj
 0002:0002678c       ??_C@_0M@OPIAHELE@signerInfos?$AA@ 0009778c     libeay32:cms_asn1.obj
 0002:00026798       ??_C@_04GDKGHFBJ@crls?$AA@ 00097798     libeay32:cms_asn1.obj
 0002:000267a0       ??_C@_0N@NGKEHKOM@certificates?$AA@ 000977a0     libeay32:cms_asn1.obj
 0002:000267b0       ??_C@_0BB@EFFJPOAL@encapContentInfo?$AA@ 000977b0     libeay32:cms_asn1.obj
 0002:000267c4       ??_C@_0BB@CMPBPEDI@digestAlgorithms?$AA@ 000977c4     libeay32:cms_asn1.obj
 0002:000267d8       ??_C@_0BJ@MJACOINL@CMS_RevocationInfoChoice?$AA@ 000977d8     libeay32:cms_asn1.obj
 0002:000267f4       ??_C@_05BEAHECAN@d?4crl?$AA@ 000977f4     libeay32:cms_asn1.obj
 0002:000267fc       ??_C@_0BO@ONAFHMMC@CMS_OtherRevocationInfoFormat?$AA@ 000977fc     libeay32:cms_asn1.obj
 0002:0002681c       ??_C@_0N@MOBLFMFA@otherRevInfo?$AA@ 0009781c     libeay32:cms_asn1.obj
 0002:0002682c       ??_C@_0BD@HLCFDNLB@otherRevInfoFormat?$AA@ 0009782c     libeay32:cms_asn1.obj
 0002:00026840       ??_C@_0P@HBMKILHF@CMS_SignerInfo?$AA@ 00097840     libeay32:cms_asn1.obj
 0002:00026850       ??_C@_0O@PDNEMLFH@unsignedAttrs?$AA@ 00097850     libeay32:cms_asn1.obj
 0002:00026860       ??_C@_0BD@CBMBFDMH@signatureAlgorithm?$AA@ 00097860     libeay32:cms_asn1.obj
 0002:00026874       ??_C@_0M@MDGDHPDJ@signedAttrs?$AA@ 00097874     libeay32:cms_asn1.obj
 0002:00026880       ??_C@_0BA@OBGGJDDI@digestAlgorithm?$AA@ 00097880     libeay32:cms_asn1.obj
 0002:00026890       ??_C@_03OBKGHBJN@sid?$AA@  00097890     libeay32:cms_asn1.obj
 0002:00026894       ??_C@_0BM@FGCJFMKP@CMS_EncapsulatedContentInfo?$AA@ 00097894     libeay32:cms_asn1.obj
 0002:000268b0       ??_C@_08OOKAKDHE@eContent?$AA@ 000978b0     libeay32:cms_asn1.obj
 0002:000268bc       ??_C@_0N@EBAJNGML@eContentType?$AA@ 000978bc     libeay32:cms_asn1.obj
 0002:000268cc       ??_C@_0BF@HIKDPBH@CMS_SignerIdentifier?$AA@ 000978cc     libeay32:cms_asn1.obj
 0002:000268e4       ??_C@_0BH@LJLJDHKP@d?4subjectKeyIdentifier?$AA@ 000978e4     libeay32:cms_asn1.obj
 0002:000268fc       ??_C@_0BI@DNGDMGHK@d?4issuerAndSerialNumber?$AA@ 000978fc     libeay32:cms_asn1.obj
 0002:00026914       ??_C@_0BH@CFNIJMB@CMS_CertificateChoices?$AA@ 00097914     libeay32:cms_asn1.obj
 0002:0002692c       ??_C@_0N@FODDOFO@d?4v2AttrCert?$AA@ 0009792c     libeay32:cms_asn1.obj
 0002:0002693c       ??_C@_0N@OONEIFFN@d?4v1AttrCert?$AA@ 0009793c     libeay32:cms_asn1.obj
 0002:0002694c       ??_C@_0BG@NLAONGA@d?4extendedCertificate?$AA@ 0009794c     libeay32:cms_asn1.obj
 0002:00026964       ??_C@_0O@MNFCNMPJ@d?4certificate?$AA@ 00097964     libeay32:cms_asn1.obj
 0002:00026974       ??_C@_0BL@CACJFKMB@CMS_OtherCertificateFormat?$AA@ 00097974     libeay32:cms_asn1.obj
 0002:00026990       ??_C@_09CDBALEP@otherCert?$AA@ 00097990     libeay32:cms_asn1.obj
 0002:0002699c       ??_C@_0BA@FEKMLOFK@otherCertFormat?$AA@ 0009799c     libeay32:cms_asn1.obj
 0002:000269ac       ??_C@_0BK@GLMHLHML@CMS_IssuerAndSerialNumber?$AA@ 000979ac     libeay32:cms_asn1.obj
 0002:000269f4       ??_C@_0O@MABGKINF@timestampsign?$AA@ 000979f4     libeay32:v3_purp.obj
 0002:00026a04       ??_C@_0BD@HLGKGIIB@Time?5Stamp?5signing?$AA@ 00097a04     libeay32:v3_purp.obj
 0002:00026a18       ??_C@_0L@IMHCEJBK@ocsphelper?$AA@ 00097a18     libeay32:v3_purp.obj
 0002:00026a24       ??_C@_0M@NEPIMEJA@OCSP?5helper?$AA@ 00097a24     libeay32:v3_purp.obj
 0002:00026a30       ??_C@_03OBJFJEBA@any?$AA@  00097a30     libeay32:v3_purp.obj
 0002:00026a34       ??_C@_0M@NMNFLNDB@Any?5Purpose?$AA@ 00097a34     libeay32:v3_purp.obj
 0002:00026a40       ??_C@_07IOMCDAPH@crlsign?$AA@ 00097a40     libeay32:v3_purp.obj
 0002:00026a48       ??_C@_0M@MEKLJHLA@CRL?5signing?$AA@ 00097a48     libeay32:v3_purp.obj
 0002:00026a54       ??_C@_0N@BPFJELMP@smimeencrypt?$AA@ 00097a54     libeay32:v3_purp.obj
 0002:00026a64       ??_C@_0BC@DOGNOPGC@S?1MIME?5encryption?$AA@ 00097a64     libeay32:v3_purp.obj
 0002:00026a78       ??_C@_09JPGBHOKH@smimesign?$AA@ 00097a78     libeay32:v3_purp.obj
 0002:00026a84       ??_C@_0P@LNDEBCCO@S?1MIME?5signing?$AA@ 00097a84     libeay32:v3_purp.obj
 0002:00026a94       ??_C@_0M@GKHHMMAE@nssslserver?$AA@ 00097a94     libeay32:v3_purp.obj
 0002:00026aa0       ??_C@_0BE@BPEJPGJG@Netscape?5SSL?5server?$AA@ 00097aa0     libeay32:v3_purp.obj
 0002:00026ab4       ??_C@_09FEILOJPJ@sslserver?$AA@ 00097ab4     libeay32:v3_purp.obj
 0002:00026ac0       ??_C@_0L@PNDNFADH@SSL?5server?$AA@ 00097ac0     libeay32:v3_purp.obj
 0002:00026acc       ??_C@_09BLMJDCHK@sslclient?$AA@ 00097acc     libeay32:v3_purp.obj
 0002:00026ad8       ??_C@_0L@LCHPILLE@SSL?5client?$AA@ 00097ad8     libeay32:v3_purp.obj
 0002:00026ae8       ??_C@_0FA@EPMAEJOB@d?3?2wm653wehh?2platform?2mvv210?2src@ 00097ae8     libeay32:v3_purp.obj
 0002:00026b54       ??_C@_09DHMKJJNA@ASN1_TIME?$AA@ 00097b54     libeay32:a_time.obj
 0002:00026b60       ??_C@_0EN@IOPKJOHJ@d?3?2wm653wehh?2platform?2mvv210?2src@ 00097b60     libeay32:a_time.obj
 0002:00026bb0       X509_version               00097bb0     libeay32:x509_vfy.obj
 0002:00026bdc       ??_C@_07DLHCIBDH@default?$AA@ 00097bdc     libeay32:x509_vfy.obj
 0002:00026be8       ??_C@_0EN@MLHPIIH@d?3?2wm653wehh?2platform?2mvv210?2src@ 00097be8     libeay32:cms_lib.obj
 0002:00026c38       ??_C@_0EM@MHADPNEH@d?3?2wm653wehh?2platform?2mvv210?2src@ 00097c38     libeay32:p_sign.obj
 0002:00026c88       ??_C@_0EO@MKGDCJCA@d?3?2wm653wehh?2platform?2mvv210?2src@ 00097c88     libeay32:dsa_ossl.obj
 0002:00026d14       ??_C@_06CHOIGJDB@BIGNUM?$AA@ 00097d14     libeay32:x_bignum.obj
 0002:00026d30       ??_C@_0EP@ELMNNBNC@d?3?2wm653wehh?2platform?2mvv210?2src@ 00097d30     libeay32:x509_obj.obj
 0002:00026d80       ??_C@_0N@MJCHLFGM@NO?5X509_NAME?$AA@ 00097d80     libeay32:x509_obj.obj
 0002:00026d90       ??_C@_08DGFAABGD@?$DMEMPTY?$DO?6?$AA@ 00097d90     libeay32:v3_prn.obj
 0002:00026d9c       ??_C@_03HIJPJGOM@?$CF?$CKs?$AA@ 00097d9c     libeay32:v3_prn.obj
 0002:00026da0       ??_C@_08CBBMEOFB@critical?$AA@ 00097da0     libeay32:v3_prn.obj
 0002:00026dac       ??_C@_07GOIIHCND@?$CF?$CKs?$CFs?3?6?$AA@ 00097dac     libeay32:v3_prn.obj
 0002:00026e70       ??_C@_02HDBGODGB@?2?2?$AA@ 00097e70     libeay32:a_strex.obj
 0002:00026e74       ??_C@_05JJPGCIKH@?2?$CF02X?$AA@ 00097e74     libeay32:a_strex.obj
 0002:00026e7c       ??_C@_01KICIPPFI@?2?$AA@   00097e7c     libeay32:a_strex.obj
 0002:00026e80       ??_C@_07FDBPKGOC@?2U?$CF04lX?$AA@ 00097e80     libeay32:a_strex.obj
 0002:00026e88       ??_C@_07IOFGAIHD@?2W?$CF08lX?$AA@ 00097e88     libeay32:a_strex.obj
 0002:00026e90       ??_C@_0EO@POPABNG@d?3?2wm653wehh?2platform?2mvv210?2src@ 00097e90     libeay32:a_strex.obj
 0002:00026ee0       ??_C@_01IPJKGB@?$CD?$AA@   00097ee0     libeay32:a_strex.obj
 0002:00026ee4       ??_C@_01BJJEKLCA@?$CC?$AA@ 00097ee4     libeay32:a_strex.obj
 0002:00026ee8       ??_C@_01NEMOKFLO@?$DN?$AA@ 00097ee8     libeay32:a_strex.obj
 0002:00026eec       ??_C@_03MHLONNLM@?5?$DN?5?$AA@ 00097eec     libeay32:a_strex.obj
 0002:00026ef0       ??_C@_01IHBHIGKO@?0?$AA@   00097ef0     libeay32:a_strex.obj
 0002:00026ef4       ??_C@_01MIFGBAGJ@?$CL?$AA@ 00097ef4     libeay32:a_strex.obj
 0002:00026ef8       ??_C@_02LNAEAIDO@?$DL?5?$AA@ 00097ef8     libeay32:a_strex.obj
 0002:00026efc       ??_C@_03NPBFACHO@?5?$CL?5?$AA@ 00097efc     libeay32:a_strex.obj
 0002:00026f08       ??_C@_0EN@CHOOKOEN@d?3?2wm653wehh?2platform?2mvv210?2src@ 00097f08     libeay32:bn_blind.obj
 0002:00026f58       ??_C@_0BI@NFPKAKEA@Eric?5Young?8s?5PKCS?$CD1?5RSA?$AA@ 00097f58     libeay32:rsa_eay.obj
 0002:00026f70       ??_C@_0EN@FLFPHDGA@d?3?2wm653wehh?2platform?2mvv210?2src@ 00097f70     libeay32:rsa_eay.obj
 0002:00026fc8       ??_C@_0EN@CBCEBCDK@d?3?2wm653wehh?2platform?2mvv210?2src@ 00097fc8     libeay32:cms_enc.obj
 0002:00027018       ??_C@_0EO@PHNCOBFO@d?3?2wm653wehh?2platform?2mvv210?2src@ 00098018     libeay32:pmeth_fn.obj
 0002:00027070       AES_version                00098070     libeay32:aes_misc.obj
 0002:00027098       ??_C@_0EO@LKMDOFNL@d?3?2wm653wehh?2platform?2mvv210?2src@ 00098098     libeay32:cms_pwri.obj
 0002:000270e8       ??_C@_0EN@MHHCMNBH@d?3?2wm653wehh?2platform?2mvv210?2src@ 000980e8     libeay32:a_enum.obj
 0002:00027138       ??_C@_0EP@KFOAJJMD@d?3?2wm653wehh?2platform?2mvv210?2src@ 00098138     libeay32:x509name.obj
 0002:00027188       ??_C@_05DFCJAACA@name?$DN?$AA@ 00098188     libeay32:x509name.obj
 0002:00027204       v3_sinfo                   00098204     libeay32:v3_info.obj
 0002:0002723c       v3_info                    0009823c     libeay32:v3_info.obj
 0002:00027274       ??_C@_0BG@PFEKCAHJ@AUTHORITY_INFO_ACCESS?$AA@ 00098274     libeay32:v3_info.obj
 0002:0002728c       ??_C@_0N@CJKIBDLK@GeneralNames?$AA@ 0009828c     libeay32:v3_info.obj
 0002:0002729c       ??_C@_0BD@IKHCEBLA@ACCESS_DESCRIPTION?$AA@ 0009829c     libeay32:v3_info.obj
 0002:000272b0       ??_C@_08CBBFJFMD@location?$AA@ 000982b0     libeay32:v3_info.obj
 0002:000272bc       ??_C@_06GABBCIBA@method?$AA@ 000982bc     libeay32:v3_info.obj
 0002:000272c4       ??_C@_03NLJIHOMM@?5?9?5?$AA@ 000982c4     libeay32:v3_info.obj
 0002:000272c8       ??_C@_0FA@EJINBECP@d?3?2wm653wehh?2platform?2mvv210?2src@ 000982c8     libeay32:v3_info.obj
 0002:00027318       ??_C@_06KFEJCPI@value?$DN?$AA@ 00098318     libeay32:v3_info.obj
 0002:00027320       ??_C@_0EP@JMDNBNIF@d?3?2wm653wehh?2platform?2mvv210?2src@ 00098320     libeay32:conf_mod.obj
 0002:00027370       ??_C@_01KMDKNFGN@?1?$AA@   00098370     libeay32:conf_mod.obj
 0002:00027504       ??_C@_0O@NFAAPMIG@GENERAL_NAMES?$AA@ 00098504     libeay32:v3_genn.obj
 0002:00027514       ??_C@_0N@JCNPGCGM@GENERAL_NAME?$AA@ 00098514     libeay32:v3_genn.obj
 0002:00027524       ??_C@_0P@KIENIEMD@d?4registeredID?$AA@ 00098524     libeay32:v3_genn.obj
 0002:00027534       ??_C@_0M@PANAALJB@d?4iPAddress?$AA@ 00098534     libeay32:v3_genn.obj
 0002:00027540       ??_C@_0BM@CMCMADCA@d?4uniformResourceIdentifier?$AA@ 00098540     libeay32:v3_genn.obj
 0002:0002755c       ??_C@_0P@OBCPPLOL@d?4ediPartyName?$AA@ 0009855c     libeay32:v3_genn.obj
 0002:0002756c       ??_C@_0BA@JLDFBFLN@d?4directoryName?$AA@ 0009856c     libeay32:v3_genn.obj
 0002:0002757c       ??_C@_0O@NKHOODFK@d?4x400Address?$AA@ 0009857c     libeay32:v3_genn.obj
 0002:0002758c       ??_C@_09HIBJABFB@d?4dNSName?$AA@ 0009858c     libeay32:v3_genn.obj
 0002:00027598       ??_C@_0N@MMCCMIPN@d?4rfc822Name?$AA@ 00098598     libeay32:v3_genn.obj
 0002:000275a8       ??_C@_0M@FGIBMCEL@d?4otherName?$AA@ 000985a8     libeay32:v3_genn.obj
 0002:000275b4       ??_C@_0N@GEILLNKP@EDIPARTYNAME?$AA@ 000985b4     libeay32:v3_genn.obj
 0002:000275c4       ??_C@_09EHIHAIPF@partyName?$AA@ 000985c4     libeay32:v3_genn.obj
 0002:000275d0       ??_C@_0N@KBFEHHDO@nameAssigner?$AA@ 000985d0     libeay32:v3_genn.obj
 0002:000275e0       ??_C@_09MAFAINAH@OTHERNAME?$AA@ 000985e0     libeay32:v3_genn.obj
 0002:000275ec       ??_C@_07EEDOJOAA@type_id?$AA@ 000985ec     libeay32:v3_genn.obj
 0002:0002767c       ??_C@_0BA@JCMMJNEE@X509_EXTENSIONS?$AA@ 0009867c     libeay32:x_exten.obj
 0002:0002768c       ??_C@_09KMFOEAAA@Extension?$AA@ 0009868c     libeay32:x_exten.obj
 0002:00027698       ??_C@_0P@OMHBNPIC@X509_EXTENSION?$AA@ 00098698     libeay32:x_exten.obj
 0002:000276ec       ??_C@_09FLJPBFIA@ECDSA_SIG?$AA@ 000986ec     libeay32:ecs_asn1.obj
 0002:000276f8       ECDH_version               000986f8     libeay32:ech_lib.obj
 0002:00027720       ??_C@_0EO@JGKBLENE@d?3?2wm653wehh?2platform?2mvv210?2src@ 00098720     libeay32:ech_lib.obj
 0002:00027770       ??_C@_0EO@FBMJEFIA@d?3?2wm653wehh?2platform?2mvv210?2src@ 00098770     libeay32:rsa_oaep.obj
 0002:000277c0       ??_C@_0BF@JMOFLBJO@keylen?5?$DM?$DN?5sizeof?5key?$AA@ 000987c0     libeay32:p5_crpt2.obj
 0002:000277d8       ??_C@_0EO@DONPFFAH@d?3?2wm653wehh?2platform?2mvv210?2src@ 000987d8     libeay32:p5_crpt2.obj
 0002:00027828       ??_C@_0FB@IJLBCKEP@d?3?2wm653wehh?2platform?2mvv210?2src@ 00098828     libeay32:p12_crpt.obj
 0002:0002787c       ??_C@_0CD@HMFJNEFL@EVP_CIPHER_iv_length?$CIcipher?$CJ?5?$DM?$DN?5@ 0009887c     libeay32:p5_crpt.obj
 0002:000278a0       ??_C@_0DF@FHOHFFEB@EVP_CIPHER_key_length?$CIcipher?$CJ?5?$DM?$DN@ 000988a0     libeay32:p5_crpt.obj
 0002:000278d8       ??_C@_0EN@DFHCIHFJ@d?3?2wm653wehh?2platform?2mvv210?2src@ 000988d8     libeay32:p5_crpt.obj
 0002:00027928       ??_C@_0FC@NLMGEGGH@d?3?2wm653wehh?2platform?2mvv210?2src@ 00098928     libeay32:tb_cipher.obj
 0002:00027980       ??_C@_0EP@DLKDJLKC@d?3?2wm653wehh?2platform?2mvv210?2src@ 00098980     libeay32:buffer.obj
 0002:000279d0       ??_C@_0EP@EEJMGOIG@d?3?2wm653wehh?2platform?2mvv210?2src@ 000989d0     libeay32:tasn_utl.obj
 0002:00027a20       ??_C@_0FA@NNAIMOGG@d?3?2wm653wehh?2platform?2mvv210?2src@ 00098a20     libeay32:pk7_doit.obj
 0002:00027a70       ??_C@_0M@FCFDJGIC@?$CF?$CKs?$DMEMPTY?$DO?6?$AA@ 00098a70     libeay32:tasn_prn.obj
 0002:00027a7c       ??_C@_08POLPFBMC@SEQUENCE?$AA@ 00098a7c     libeay32:tasn_prn.obj
 0002:00027a88       ??_C@_03KPIFFHNE@SET?$AA@  00098a88     libeay32:tasn_prn.obj
 0002:00027ad0       ??_C@_08OPPGEJIL@X509_VAL?$AA@ 00098ad0     libeay32:x_val.obj
 0002:00027adc       ??_C@_08PJIFIJBI@notAfter?$AA@ 00098adc     libeay32:x_val.obj
 0002:00027ae8       ??_C@_09MJPOMOII@notBefore?$AA@ 00098ae8     libeay32:x_val.obj
 0002:00027b54       v3_name_constraints        00098b54     libeay32:v3_ncons.obj
 0002:00027bc8       ??_C@_0BB@MLLJAFMN@NAME_CONSTRAINTS?$AA@ 00098bc8     libeay32:v3_ncons.obj
 0002:00027bdc       ??_C@_0BB@HLFEMJKE@excludedSubtrees?$AA@ 00098bdc     libeay32:v3_ncons.obj
 0002:00027bf0       ??_C@_0BC@FACFJLFB@permittedSubtrees?$AA@ 00098bf0     libeay32:v3_ncons.obj
 0002:00027c04       ??_C@_0BA@ECMIFHDE@GENERAL_SUBTREE?$AA@ 00098c04     libeay32:v3_ncons.obj
 0002:00027c14       ??_C@_07MEIENILC@maximum?$AA@ 00098c14     libeay32:v3_ncons.obj
 0002:00027c1c       ??_C@_07CCOEHHFD@minimum?$AA@ 00098c1c     libeay32:v3_ncons.obj
 0002:00027c28       ??_C@_0FB@NFBAFBGE@d?3?2wm653wehh?2platform?2mvv210?2src@ 00098c28     libeay32:v3_ncons.obj
 0002:00027c7c       ??_C@_08HPCEJEEF@excluded?$AA@ 00098c7c     libeay32:v3_ncons.obj
 0002:00027c88       ??_C@_09HAKFOFAM@permitted?$AA@ 00098c88     libeay32:v3_ncons.obj
 0002:00027c94       ??_C@_0BF@JMMIKJMP@IP?5Address?3?$DMinvalid?$DO?$AA@ 00098c94     libeay32:v3_ncons.obj
 0002:00027cac       ??_C@_02EMFKHFLK@?$CFX?$AA@ 00098cac     libeay32:v3_ncons.obj
 0002:00027cb0       ??_C@_0BI@IFNIGPEJ@?$CFd?4?$CFd?4?$CFd?4?$CFd?1?$CFd?4?$CFd?4?$CFd?4?$CFd?$AA@ 00098cb0     libeay32:v3_ncons.obj
 0002:00027cc8       ??_C@_03HBLCMHJN@IP?3?$AA@ 00098cc8     libeay32:v3_ncons.obj
 0002:00027ccc       ??_C@_09DPPIOGNM@Permitted?$AA@ 00098ccc     libeay32:v3_ncons.obj
 0002:00027cd8       ??_C@_08PNNFBGOG@Excluded?$AA@ 00098cd8     libeay32:v3_ncons.obj
 0002:00027dac       v3_idp                     00098dac     libeay32:v3_crld.obj
 0002:00027de4       v3_freshest_crl            00098de4     libeay32:v3_crld.obj
 0002:00027e1c       v3_crld                    00098e1c     libeay32:v3_crld.obj
 0002:00027f80       ??_C@_0BD@ENBCPHJ@ISSUING_DIST_POINT?$AA@ 00098f80     libeay32:v3_crld.obj
 0002:00027f94       ??_C@_08DBIINPPL@onlyattr?$AA@ 00098f94     libeay32:v3_crld.obj
 0002:00027fa0       ??_C@_0M@BECDICJC@indirectCRL?$AA@ 00098fa0     libeay32:v3_crld.obj
 0002:00027fac       ??_C@_0BA@FNMBIJDN@onlysomereasons?$AA@ 00098fac     libeay32:v3_crld.obj
 0002:00027fbc       ??_C@_06PMNIEKCA@onlyCA?$AA@ 00098fbc     libeay32:v3_crld.obj
 0002:00027fc4       ??_C@_08CENLBPEH@onlyuser?$AA@ 00098fc4     libeay32:v3_crld.obj
 0002:00027fd0       ??_C@_0BA@BBHAIMOE@CRL_DIST_POINTS?$AA@ 00098fd0     libeay32:v3_crld.obj
 0002:00027fe0       ??_C@_0BG@CHNNADAE@CRLDistributionPoints?$AA@ 00098fe0     libeay32:v3_crld.obj
 0002:00027ff8       ??_C@_0L@ELIKPJIH@DIST_POINT?$AA@ 00098ff8     libeay32:v3_crld.obj
 0002:00028004       ??_C@_09GJHADLCP@CRLissuer?$AA@ 00099004     libeay32:v3_crld.obj
 0002:00028010       ??_C@_07PFOCLIJD@reasons?$AA@ 00099010     libeay32:v3_crld.obj
 0002:00028018       ??_C@_09FBDFGJDL@distpoint?$AA@ 00099018     libeay32:v3_crld.obj
 0002:00028024       ??_C@_0BA@MLHIPLLG@DIST_POINT_NAME?$AA@ 00099024     libeay32:v3_crld.obj
 0002:00028034       ??_C@_0BC@JDMJBKME@name?4relativename?$AA@ 00099034     libeay32:v3_crld.obj
 0002:00028048       ??_C@_0O@HJHJCLAE@name?4fullname?$AA@ 00099048     libeay32:v3_crld.obj
 0002:00028058       ??_C@_0N@LOIIODKP@AACompromise?$AA@ 00099058     libeay32:v3_crld.obj
 0002:00028068       ??_C@_0O@PAGOKAK@AA?5Compromise?$AA@ 00099068     libeay32:v3_crld.obj
 0002:00028078       ??_C@_0BD@PBLGJKCE@privilegeWithdrawn?$AA@ 00099078     libeay32:v3_crld.obj
 0002:0002808c       ??_C@_0BE@FJCCMGMM@Privilege?5Withdrawn?$AA@ 0009908c     libeay32:v3_crld.obj
 0002:000280a0       ??_C@_0BA@FBHLCNLK@certificateHold?$AA@ 000990a0     libeay32:v3_crld.obj
 0002:000280b0       ??_C@_0BB@IPDHDNJD@Certificate?5Hold?$AA@ 000990b0     libeay32:v3_crld.obj
 0002:000280c4       ??_C@_0BF@IGJCOPF@cessationOfOperation?$AA@ 000990c4     libeay32:v3_crld.obj
 0002:000280dc       ??_C@_0BH@OLCOAMGF@Cessation?5Of?5Operation?$AA@ 000990dc     libeay32:v3_crld.obj
 0002:000280f4       ??_C@_0L@NHCKNIFL@superseded?$AA@ 000990f4     libeay32:v3_crld.obj
 0002:00028100       ??_C@_0L@FBLGFHIM@Superseded?$AA@ 00099100     libeay32:v3_crld.obj
 0002:0002810c       ??_C@_0BD@BNOFAJLL@affiliationChanged?$AA@ 0009910c     libeay32:v3_crld.obj
 0002:00028120       ??_C@_0BE@EECEIFAP@Affiliation?5Changed?$AA@ 00099120     libeay32:v3_crld.obj
 0002:00028134       ??_C@_0N@NONEFGOE@CACompromise?$AA@ 00099134     libeay32:v3_crld.obj
 0002:00028144       ??_C@_0O@OOGICOKH@CA?5Compromise?$AA@ 00099144     libeay32:v3_crld.obj
 0002:00028154       ??_C@_0O@MCEAAJLH@keyCompromise?$AA@ 00099154     libeay32:v3_crld.obj
 0002:00028164       ??_C@_0P@JENDIECI@Key?5Compromise?$AA@ 00099164     libeay32:v3_crld.obj
 0002:00028174       ??_C@_06OJAIHGIC@unused?$AA@ 00099174     libeay32:v3_crld.obj
 0002:0002817c       ??_C@_06CGLFEPBO@Unused?$AA@ 0009917c     libeay32:v3_crld.obj
 0002:00028188       ??_C@_0FA@EFIBGCB@d?3?2wm653wehh?2platform?2mvv210?2src@ 00099188     libeay32:v3_crld.obj
 0002:000281d8       ??_C@_0L@NHIBCNGO@?$CF?$CKs?$CFs?3?6?$CF?$CKs?$AA@ 000991d8     libeay32:v3_crld.obj
 0002:000281e4       ??_C@_0BG@GIOHENJJ@?$CF?$CKsRelative?5Name?3?6?$CF?$CKs?$AA@ 000991e4     libeay32:v3_crld.obj
 0002:000281fc       ??_C@_0P@DKAHDIGH@?$CF?$CKsFull?5Name?3?6?$AA@ 000991fc     libeay32:v3_crld.obj
 0002:0002820c       ??_C@_0CA@IIIJNMJM@?$CF?$CKsOnly?5Attribute?5Certificates?6?$AA@ 0009920c     libeay32:v3_crld.obj
 0002:0002822c       ??_C@_0BC@JDEOGEEL@Only?5Some?5Reasons?$AA@ 0009922c     libeay32:v3_crld.obj
 0002:00028240       ??_C@_0BB@FLBIDOKD@?$CF?$CKsIndirect?5CRL?6?$AA@ 00099240     libeay32:v3_crld.obj
 0002:00028254       ??_C@_0BJ@GKBBKMLO@?$CF?$CKsOnly?5CA?5Certificates?6?$AA@ 00099254     libeay32:v3_crld.obj
 0002:00028270       ??_C@_0BL@FLJCHEKF@?$CF?$CKsOnly?5User?5Certificates?6?$AA@ 00099270     libeay32:v3_crld.obj
 0002:0002828c       ??_C@_0BA@NBJIBLNE@?$CF?$CKsCRL?5Issuer?3?6?$AA@ 0009928c     libeay32:v3_crld.obj
 0002:0002829c       ??_C@_07MJENKMF@Reasons?$AA@ 0009929c     libeay32:v3_crld.obj
 0002:000282a4       ??_C@_0N@LGEOMMHB@relativename?$AA@ 000992a4     libeay32:v3_crld.obj
 0002:000282b4       ??_C@_08BMACPLOA@fullname?$AA@ 000992b4     libeay32:v3_crld.obj
 0002:000282c0       ??_C@_06PPFMJOEO@onlyAA?$AA@ 000992c0     libeay32:v3_crld.obj
 0002:00028320       ??_C@_0BA@OPHCNPAP@AUTHORITY_KEYID?$AA@ 00099320     libeay32:v3_akeya.obj
 0002:00028330       ??_C@_05CNHMOIOC@keyid?$AA@ 00099330     libeay32:v3_akeya.obj
 0002:000283fc       ??_C@_0P@BDECDGPA@X509_CERT_PAIR?$AA@ 000993fc     libeay32:x_x509a.obj
 0002:0002840c       ??_C@_07KOIEOCCE@reverse?$AA@ 0009940c     libeay32:x_x509a.obj
 0002:00028414       ??_C@_07CJMBKHEI@forward?$AA@ 00099414     libeay32:x_x509a.obj
 0002:0002841c       ??_C@_0O@LJIIOIG@X509_CERT_AUX?$AA@ 0009941c     libeay32:x_x509a.obj
 0002:0002842c       ??_C@_05NKHOCLEE@alias?$AA@ 0009942c     libeay32:x_x509a.obj
 0002:00028434       ??_C@_06JPOFNODM@reject?$AA@ 00099434     libeay32:x_x509a.obj
 0002:0002843c       ??_C@_05BMJJJIHB@trust?$AA@ 0009943c     libeay32:x_x509a.obj
 0002:00028448       ??_C@_0EP@FNGDBEGO@d?3?2wm653wehh?2platform?2mvv210?2src@ 00099448     libeay32:a_verify.obj
 0002:000284e8       ??_C@_0EM@EIEBKGJ@d?3?2wm653wehh?2platform?2mvv210?2src@ 000994e8     libeay32:cms_io.obj
 0002:000285bc       ??_C@_0BK@PILNOGHK@PROXY_CERT_INFO_EXTENSION?$AA@ 000995bc     libeay32:v3_pcia.obj
 0002:000285d8       ??_C@_0M@KKFBCGOG@proxyPolicy?$AA@ 000995d8     libeay32:v3_pcia.obj
 0002:000285e4       ??_C@_0BH@JBGKCLHC@pcPathLengthConstraint?$AA@ 000995e4     libeay32:v3_pcia.obj
 0002:000285fc       ??_C@_0N@CLKEFBDI@PROXY_POLICY?$AA@ 000995fc     libeay32:v3_pcia.obj
 0002:0002860c       ??_C@_06NJNJNICG@policy?$AA@ 0009960c     libeay32:v3_pcia.obj
 0002:00028614       ??_C@_0P@BLMEJDMO@policyLanguage?$AA@ 00099614     libeay32:v3_pcia.obj
 0002:00028668       v3_bcons                   00099668     libeay32:v3_bcons.obj
 0002:000286a0       ??_C@_0BC@PKPCGCD@BASIC_CONSTRAINTS?$AA@ 000996a0     libeay32:v3_bcons.obj
 0002:000286b4       ??_C@_07OGCPICFF@pathlen?$AA@ 000996b4     libeay32:v3_bcons.obj
 0002:000286bc       ??_C@_02DGMJAJHC@ca?$AA@   000996bc     libeay32:v3_bcons.obj
 0002:000286c0       ??_C@_02JLAAGLDA@CA?$AA@   000996c0     libeay32:v3_bcons.obj
 0002:000286c8       ??_C@_0FB@ICLPEECL@d?3?2wm653wehh?2platform?2mvv210?2src@ 000996c8     libeay32:v3_bcons.obj
 0002:00028764       ??_C@_0BK@EMDNDBLP@?$CF04d?$CF02d?$CF02d?$CF02d?$CF02d?$CF02dZ?$AA@ 00099764     libeay32:a_gentm.obj
 0002:00028780       ??_C@_0EO@HIOEHCAC@d?3?2wm653wehh?2platform?2mvv210?2src@ 00099780     libeay32:a_gentm.obj
 0002:00028810       ??_C@_0BK@PMAAGDOP@?$CF02d?$CF02d?$CF02d?$CF02d?$CF02d?$CF02dZ?$AA@ 00099810     libeay32:a_utctm.obj
 0002:00028830       ??_C@_0EO@DLENMAPA@d?3?2wm653wehh?2platform?2mvv210?2src@ 00099830     libeay32:a_utctm.obj
 0002:00028880       ??_C@_0EP@COKBPCCM@d?3?2wm653wehh?2platform?2mvv210?2src@ 00099880     libeay32:x509_att.obj
 0002:000288d0       ??_C@_0L@CFEJKCOD@TSA?5server?$AA@ 000998d0     libeay32:x509_trs.obj
 0002:000288dc       ??_C@_0N@CAJJAOJD@OCSP?5request?$AA@ 000998dc     libeay32:x509_trs.obj
 0002:000288ec       ??_C@_0P@JHCOMJOI@OCSP?5responder?$AA@ 000998ec     libeay32:x509_trs.obj
 0002:000288fc       ??_C@_0O@EEPBMPKP@Object?5Signer?$AA@ 000998fc     libeay32:x509_trs.obj
 0002:0002890c       ??_C@_0N@OEEPKGPL@S?1MIME?5email?$AA@ 0009990c     libeay32:x509_trs.obj
 0002:0002891c       ??_C@_0L@DCIAGJKL@SSL?5Server?$AA@ 0009991c     libeay32:x509_trs.obj
 0002:00028928       ??_C@_0L@HNMCLCCI@SSL?5Client?$AA@ 00099928     libeay32:x509_trs.obj
 0002:00028934       ??_C@_0L@JNOGJJCA@compatible?$AA@ 00099934     libeay32:x509_trs.obj
 0002:000289e0       ??_C@_0L@MDHNNNKP@ssl_server?$AA@ 000999e0     libeay32:x509_vpm.obj
 0002:000289ec       ??_C@_0L@IMDPAGCM@ssl_client?$AA@ 000999ec     libeay32:x509_vpm.obj
 0002:000289f8       ??_C@_0L@GGDBHMO@smime_sign?$AA@ 000999f8     libeay32:x509_vpm.obj
 0002:00028a04       ??_C@_0P@ONGHGJEC@message?5digest?$AA@ 00099a04     libeay32:bio_md.obj
 0002:00028a14       ??_C@_0O@DIEIKEFB@memory?5buffer?$AA@ 00099a14     libeay32:bss_mem.obj
 0002:00028a28       ??_C@_0EN@IFBMAPDF@d?3?2wm653wehh?2platform?2mvv210?2src@ 00099a28     libeay32:bss_mem.obj
 0002:00028a78       ??_C@_0EM@CLBFFJNJ@d?3?2wm653wehh?2platform?2mvv210?2src@ 00099a78     libeay32:cms_dd.obj
 0002:00028ac8       ??_C@_0EM@LBEFNFCH@d?3?2wm653wehh?2platform?2mvv210?2src@ 00099ac8     libeay32:bn_exp2.obj
 0002:00028b9c       ??_C@_09BIBABMFN@BMPSTRING?$AA@ 00099b9c     libeay32:asn1_par.obj
 0002:00028ba8       ??_C@_09FGHEBGDO@?$DMASN1?529?$DO?$AA@ 00099ba8     libeay32:asn1_par.obj
 0002:00028bb4       ??_C@_0BA@EJHHDALK@UNIVERSALSTRING?$AA@ 00099bb4     libeay32:asn1_par.obj
 0002:00028bc4       ??_C@_0O@DKDEPFLO@GENERALSTRING?$AA@ 00099bc4     libeay32:asn1_par.obj
 0002:00028bd4       ??_C@_0O@KDAJCBO@VISIBLESTRING?$AA@ 00099bd4     libeay32:asn1_par.obj
 0002:00028be4       ??_C@_0O@MABADFB@GRAPHICSTRING?$AA@ 00099be4     libeay32:asn1_par.obj
 0002:00028bf4       ??_C@_0BA@LKNBIJBB@GENERALIZEDTIME?$AA@ 00099bf4     libeay32:asn1_par.obj
 0002:00028c04       ??_C@_07HIOLDDN@UTCTIME?$AA@ 00099c04     libeay32:asn1_par.obj
 0002:00028c0c       ??_C@_09JOMPLKGB@IA5STRING?$AA@ 00099c0c     libeay32:asn1_par.obj
 0002:00028c18       ??_C@_0P@LNAMNBEL@VIDEOTEXSTRING?$AA@ 00099c18     libeay32:asn1_par.obj
 0002:00028c28       ??_C@_09FMBHBANP@T61STRING?$AA@ 00099c28     libeay32:asn1_par.obj
 0002:00028c34       ??_C@_0BA@FKHILLED@PRINTABLESTRING?$AA@ 00099c34     libeay32:asn1_par.obj
 0002:00028c44       ??_C@_0O@DFADMOGA@NUMERICSTRING?$AA@ 00099c44     libeay32:asn1_par.obj
 0002:00028c54       ??_C@_09ENNLEALE@?$DMASN1?515?$DO?$AA@ 00099c54     libeay32:asn1_par.obj
 0002:00028c60       ??_C@_09EMBJCKID@?$DMASN1?514?$DO?$AA@ 00099c60     libeay32:asn1_par.obj
 0002:00028c6c       ??_C@_09EJFGDMAG@?$DMASN1?513?$DO?$AA@ 00099c6c     libeay32:asn1_par.obj
 0002:00028c78       ??_C@_0L@DCBPGANN@UTF8STRING?$AA@ 00099c78     libeay32:asn1_par.obj
 0002:00028c84       ??_C@_09EKNCOIGI@?$DMASN1?511?$DO?$AA@ 00099c84     libeay32:asn1_par.obj
 0002:00028c90       ??_C@_0L@KNIEMAKM@ENUMERATED?$AA@ 00099c90     libeay32:asn1_par.obj
 0002:00028c9c       ??_C@_04PKFANLLI@REAL?$AA@ 00099c9c     libeay32:asn1_par.obj
 0002:00028ca4       ??_C@_08JHLDEHEK@EXTERNAL?$AA@ 00099ca4     libeay32:asn1_par.obj
 0002:00028cb0       ??_C@_0BC@HDOCNDIH@OBJECT?5DESCRIPTOR?$AA@ 00099cb0     libeay32:asn1_par.obj
 0002:00028cc4       ??_C@_06IAMCMNFI@OBJECT?$AA@ 00099cc4     libeay32:asn1_par.obj
 0002:00028ccc       ??_C@_0N@KPGGMDFC@OCTET?5STRING?$AA@ 00099ccc     libeay32:asn1_par.obj
 0002:00028cdc       ??_C@_0L@EKOKPLKE@BIT?5STRING?$AA@ 00099cdc     libeay32:asn1_par.obj
 0002:00028ce8       ??_C@_07EHCIHKNF@INTEGER?$AA@ 00099ce8     libeay32:asn1_par.obj
 0002:00028cf0       ??_C@_07JDEDMABE@BOOLEAN?$AA@ 00099cf0     libeay32:asn1_par.obj
 0002:00028cf8       ??_C@_03NCODFONH@EOC?$AA@  00099cf8     libeay32:asn1_par.obj
 0002:00028cfc       ??_C@_09GPGAJHPD@?$CIunknown?$CJ?$AA@ 00099cfc     libeay32:asn1_par.obj
 0002:00028d08       ??_C@_0M@PCEPOGPN@?8?$CI?$CJ?$CL?0?9?4?1?3?$DN?$DP?$AA@ 00099d08     libeay32:a_mbstr.obj
 0002:00028d14       ??_C@_08EOPONIBF@maxsize?$DN?$AA@ 00099d14     libeay32:a_mbstr.obj
 0002:00028d20       ??_C@_03JALODAI@?$CFld?$AA@ 00099d20     libeay32:a_mbstr.obj
 0002:00028d24       ??_C@_08JJBFGKFE@minsize?$DN?$AA@ 00099d24     libeay32:a_mbstr.obj
 0002:00028d30       ??_C@_0EO@JLLBAGMI@d?3?2wm653wehh?2platform?2mvv210?2src@ 00099d30     libeay32:a_mbstr.obj
 0002:00028d80       ??_C@_0EN@BMFEIIDL@d?3?2wm653wehh?2platform?2mvv210?2src@ 00099d80     libeay32:rsa_pk1.obj
 0002:00028dd0       ??_C@_0EN@PDDHPBKJ@d?3?2wm653wehh?2platform?2mvv210?2src@ 00099dd0     libeay32:rsa_ssl.obj
 0002:00028e20       ??_C@_0EO@NNKDLJPI@d?3?2wm653wehh?2platform?2mvv210?2src@ 00099e20     libeay32:rsa_none.obj
 0002:00028e70       ??_C@_0EN@GEIMIMFD@d?3?2wm653wehh?2platform?2mvv210?2src@ 00099e70     libeay32:bio_enc.obj
 0002:0002b098       ??_C@_0M@DPMJHKGH@PBKDF2PARAM?$AA@ 0009c098     libeay32:p5_pbev2.obj
 0002:0002b0a4       ??_C@_03NBFGPAGA@prf?$AA@  0009c0a4     libeay32:p5_pbev2.obj
 0002:0002b0a8       ??_C@_09PKJJLJJD@keylength?$AA@ 0009c0a8     libeay32:p5_pbev2.obj
 0002:0002b0b4       ??_C@_04BKLHDIKK@iter?$AA@ 0009c0b4     libeay32:p5_pbev2.obj
 0002:0002b0bc       ??_C@_04OKLIMCN@salt?$AA@  0009c0bc     libeay32:p5_pbev2.obj
 0002:0002b0c4       ??_C@_09DHBCCKCK@PBE2PARAM?$AA@ 0009c0c4     libeay32:p5_pbev2.obj
 0002:0002b0d0       ??_C@_0L@HBBFMHKN@encryption?$AA@ 0009c0d0     libeay32:p5_pbev2.obj
 0002:0002b0dc       ??_C@_07KEPFKPDN@keyfunc?$AA@ 0009c0dc     libeay32:p5_pbev2.obj
 0002:0002b268       v3_alt                     0009c268     libeay32:v3_alt.obj
 0002:0002b310       ??_C@_0O@KAIENCPE@Registered?5ID?$AA@ 0009c310     libeay32:v3_alt.obj
 0002:0002b320       ??_C@_09DPMBDOD@?$DMinvalid?$DO?$AA@ 0009c320     libeay32:v3_alt.obj
 0002:0002b32c       ??_C@_0L@NGHMMCPJ@IP?5Address?$AA@ 0009c32c     libeay32:v3_alt.obj
 0002:0002b338       ??_C@_07FDBCPIKC@DirName?$AA@ 0009c338     libeay32:v3_alt.obj
 0002:0002b340       ??_C@_03GMOLNBOB@URI?$AA@  0009c340     libeay32:v3_alt.obj
 0002:0002b344       ??_C@_03CBFPEBNE@DNS?$AA@  0009c344     libeay32:v3_alt.obj
 0002:0002b348       ??_C@_05HKHCDHCL@email?$AA@ 0009c348     libeay32:v3_alt.obj
 0002:0002b350       ??_C@_0N@EEELPIKD@EdiPartyName?$AA@ 0009c350     libeay32:v3_alt.obj
 0002:0002b360       ??_C@_08EBDOEGJI@X400Name?$AA@ 0009c360     libeay32:v3_alt.obj
 0002:0002b36c       ??_C@_0O@NHCJKCDC@?$DMunsupported?$DO?$AA@ 0009c36c     libeay32:v3_alt.obj
 0002:0002b37c       ??_C@_09PAKBLAPA@othername?$AA@ 0009c37c     libeay32:v3_alt.obj
 0002:0002b388       ??_C@_03NMJGLHB@?3?$CFX?$AA@ 0009c388     libeay32:v3_alt.obj
 0002:0002b38c       ??_C@_0BH@OAMIHBGI@IP?5Address?3?$CFd?4?$CFd?4?$CFd?4?$CFd?$AA@ 0009c38c     libeay32:v3_alt.obj
 0002:0002b3a4       ??_C@_09JDCPLDLD@DirName?3?5?$AA@ 0009c3a4     libeay32:v3_alt.obj
 0002:0002b3b0       ??_C@_06KCNJMDKO@URI?3?$CFs?$AA@ 0009c3b0     libeay32:v3_alt.obj
 0002:0002b3b8       ??_C@_06DNDEBJBH@DNS?3?$CFs?$AA@ 0009c3b8     libeay32:v3_alt.obj
 0002:0002b3c0       ??_C@_08LPBGKPKE@email?3?$CFs?$AA@ 0009c3c0     libeay32:v3_alt.obj
 0002:0002b3cc       ??_C@_0BL@HEOLJEB@EdiPartyName?3?$DMunsupported?$DO?$AA@ 0009c3cc     libeay32:v3_alt.obj
 0002:0002b3e8       ??_C@_0BH@HDOLFIDG@X400Name?3?$DMunsupported?$DO?$AA@ 0009c3e8     libeay32:v3_alt.obj
 0002:0002b400       ??_C@_0BI@PGFKPDEJ@othername?3?$DMunsupported?$DO?$AA@ 0009c400     libeay32:v3_alt.obj
 0002:0002b418       ??_C@_0EP@GIOEMKKC@d?3?2wm653wehh?2platform?2mvv210?2src@ 0009c418     libeay32:v3_alt.obj
 0002:0002b468       ??_C@_08LNPIPPMM@section?$DN?$AA@ 0009c468     libeay32:v3_alt.obj
 0002:0002b474       ??_C@_09DBGAJPPE@otherName?$AA@ 0009c474     libeay32:v3_alt.obj
 0002:0002b480       ??_C@_07KKGEJKPE@dirName?$AA@ 0009c480     libeay32:v3_alt.obj
 0002:0002b488       ??_C@_02MFEOMNPG@IP?$AA@   0009c488     libeay32:v3_alt.obj
 0002:0002b48c       ??_C@_03FEOBNLIE@RID?$AA@  0009c48c     libeay32:v3_alt.obj
 0002:0002b490       ??_C@_04COAGEIMF@copy?$AA@ 0009c490     libeay32:v3_alt.obj
 0002:0002b498       ??_C@_04HDMMNHEL@move?$AA@ 0009c498     libeay32:v3_alt.obj
 0002:0002b4a0       ??_C@_0EN@IDEDPOKO@d?3?2wm653wehh?2platform?2mvv210?2src@ 0009c4a0     libeay32:dso_lib.obj
 0002:0002b4f0       CONF_version               0009c4f0     libeay32:conf_lib.obj
 0002:0002b518       ??_C@_0EP@PNEKGEFM@d?3?2wm653wehh?2platform?2mvv210?2src@ 0009c518     libeay32:conf_lib.obj
 0002:0002b568       ??_C@_06NGDKEHGB@?5name?$DN?$AA@ 0009c568     libeay32:conf_lib.obj
 0002:0002b570       ??_C@_06BDPCGOPM@group?$DN?$AA@ 0009c570     libeay32:conf_lib.obj
 0002:0002b578       ??_C@_02JDPG@rb?$AA@       0009c578     libeay32:conf_lib.obj
 0002:0002b57c       v3_inhibit_anyp            0009c57c     libeay32:v3_int.obj
 0002:0002b5b4       v3_delta_crl               0009c5b4     libeay32:v3_int.obj
 0002:0002b5ec       v3_crl_num                 0009c5ec     libeay32:v3_int.obj
 0002:0002b698       v3_policy_mappings         0009c698     libeay32:v3_pmaps.obj
 0002:0002b6d0       ??_C@_0BA@DHPBCFFC@POLICY_MAPPINGS?$AA@ 0009c6d0     libeay32:v3_pmaps.obj
 0002:0002b6e0       ??_C@_0P@NLHMKCKF@POLICY_MAPPING?$AA@ 0009c6e0     libeay32:v3_pmaps.obj
 0002:0002b6f0       ??_C@_0BE@FFIKMOKF@subjectDomainPolicy?$AA@ 0009c6f0     libeay32:v3_pmaps.obj
 0002:0002b704       ??_C@_0BD@JILOPHFL@issuerDomainPolicy?$AA@ 0009c704     libeay32:v3_pmaps.obj
 0002:0002b718       ??_C@_0FB@JMEEBLD@d?3?2wm653wehh?2platform?2mvv210?2src@ 0009c718     libeay32:v3_pmaps.obj
 0002:0002b76c       v3_pci                     0009c76c     libeay32:v3_pci.obj
 0002:0002b7a4       ??_C@_0BE@HDJEDONA@?$CF?$CKsPolicy?5Text?3?5?$CFs?6?$AA@ 0009c7a4     libeay32:v3_pci.obj
 0002:0002b7b8       ??_C@_0BF@CGHJNACM@?$CF?$CKsPolicy?5Language?3?5?$AA@ 0009c7b8     libeay32:v3_pci.obj
 0002:0002b7d0       ??_C@_08MAJEGHKB@infinite?$AA@ 0009c7d0     libeay32:v3_pci.obj
 0002:0002b7dc       ??_C@_0BM@BMCPHDD@?$CF?$CKsPath?5Length?5Constraint?3?5?$AA@ 0009c7dc     libeay32:v3_pci.obj
 0002:0002b7f8       ??_C@_05FHIGHPDA@text?3?$AA@ 0009c7f8     libeay32:v3_pci.obj
 0002:0002b800       ??_C@_05BOPHDICO@file?3?$AA@ 0009c800     libeay32:v3_pci.obj
 0002:0002b808       ??_C@_04ODCMNEMO@hex?3?$AA@ 0009c808     libeay32:v3_pci.obj
 0002:0002b810       ??_C@_0EP@IAENADAP@d?3?2wm653wehh?2platform?2mvv210?2src@ 0009c810     libeay32:v3_pci.obj
 0002:0002b860       ??_C@_08JGCCIMAA@language?$AA@ 0009c860     libeay32:v3_pci.obj
 0002:0002b86c       v3_ocsp_serviceloc         0009c86c     libeay32:v3_ocsp.obj
 0002:0002b8a4       v3_ocsp_nocheck            0009c8a4     libeay32:v3_ocsp.obj
 0002:0002b8dc       v3_ocsp_nonce              0009c8dc     libeay32:v3_ocsp.obj
 0002:0002b914       v3_crl_hold                0009c914     libeay32:v3_ocsp.obj
 0002:0002b94c       v3_crl_invdate             0009c94c     libeay32:v3_ocsp.obj
 0002:0002b984       v3_ocsp_acutoff            0009c984     libeay32:v3_ocsp.obj
 0002:0002b9bc       v3_ocsp_crlid              0009c9bc     libeay32:v3_ocsp.obj
 0002:0002b9f4       ??_C@_0N@IBJOMEDL@?$CF?$CKscrlTime?3?5?$AA@ 0009c9f4     libeay32:v3_ocsp.obj
 0002:0002ba04       ??_C@_0M@MLCMBODE@?$CF?$CKscrlNum?3?5?$AA@ 0009ca04     libeay32:v3_ocsp.obj
 0002:0002ba10       ??_C@_0M@KIKBFHBJ@?$CF?$CKscrlUrl?3?5?$AA@ 0009ca10     libeay32:v3_ocsp.obj
 0002:0002ba20       ??_C@_0FA@DGLJGNPA@d?3?2wm653wehh?2platform?2mvv210?2src@ 0009ca20     libeay32:v3_ocsp.obj
 0002:0002ba70       ??_C@_04NFEJKGEM@?6?$CF?$CKs?$AA@ 0009ca70     libeay32:v3_ocsp.obj
 0002:0002ba78       ??_C@_0M@IHOINNJF@?$CF?$CKsIssuer?3?5?$AA@ 0009ca78     libeay32:v3_ocsp.obj
 0002:0002bac8       v3_policy_constraints      0009cac8     libeay32:v3_pcons.obj
 0002:0002bb00       ??_C@_0BD@MMPNIEIJ@POLICY_CONSTRAINTS?$AA@ 0009cb00     libeay32:v3_pcons.obj
 0002:0002bb14       ??_C@_0BF@MOMLJGAL@inhibitPolicyMapping?$AA@ 0009cb14     libeay32:v3_pcons.obj
 0002:0002bb2c       ??_C@_0BG@HGJBEKFE@requireExplicitPolicy?$AA@ 0009cb2c     libeay32:v3_pcons.obj
 0002:0002bb44       ??_C@_0BI@HNCHDEDI@Require?5Explicit?5Policy?$AA@ 0009cb44     libeay32:v3_pcons.obj
 0002:0002bb5c       ??_C@_0BH@HMKHOMED@Inhibit?5Policy?5Mapping?$AA@ 0009cb5c     libeay32:v3_pcons.obj
 0002:0002bb78       ??_C@_0FB@LMCBHCHN@d?3?2wm653wehh?2platform?2mvv210?2src@ 0009cb78     libeay32:v3_pcons.obj
 0002:0002bbfc       v3_ocsp_accresp            0009cbfc     libeay32:v3_extku.obj
 0002:0002bc34       v3_ext_ku                  0009cc34     libeay32:v3_extku.obj
 0002:0002bc6c       ??_C@_0BD@CKAGEBEF@EXTENDED_KEY_USAGE?$AA@ 0009cc6c     libeay32:v3_extku.obj
 0002:0002bc80       ??_C@_0FB@GJDJKHPC@d?3?2wm653wehh?2platform?2mvv210?2src@ 0009cc80     libeay32:v3_extku.obj
 0002:0002bd5c       v3_sxnet                   0009cd5c     libeay32:v3_sxnet.obj
 0002:0002bd94       ??_C@_05BPAJFIHK@SXNET?$AA@ 0009cd94     libeay32:v3_sxnet.obj
 0002:0002bd9c       ??_C@_03NDFJNBKD@ids?$AA@  0009cd9c     libeay32:v3_sxnet.obj
 0002:0002bda0       ??_C@_07FLDOGLPN@SXNETID?$AA@ 0009cda0     libeay32:v3_sxnet.obj
 0002:0002bda8       ??_C@_04CCHAHKJA@user?$AA@ 0009cda8     libeay32:v3_sxnet.obj
 0002:0002bdb0       ??_C@_04LDDJGOBB@zone?$AA@ 0009cdb0     libeay32:v3_sxnet.obj
 0002:0002bdb8       ??_C@_0BF@NMLBNADB@?6?$CF?$CKsZone?3?5?$CFs?0?5User?3?5?$AA@ 0009cdb8     libeay32:v3_sxnet.obj
 0002:0002bdd0       ??_C@_0BI@GOEPAKBG@?$CF?$CKsVersion?3?5?$CFld?5?$CI0x?$CFlX?$CJ?$AA@ 0009cdd0     libeay32:v3_sxnet.obj
 0002:0002bde8       ??_C@_0FB@HGCMGHKH@d?3?2wm653wehh?2platform?2mvv210?2src@ 0009cde8     libeay32:v3_sxnet.obj
 0002:0002be3c       v3_crl_reason              0009ce3c     libeay32:v3_enum.obj
 0002:0002be74       ??_C@_0O@BILLKPKO@removeFromCRL?$AA@ 0009ce74     libeay32:v3_enum.obj
 0002:0002be84       ??_C@_0BA@GLPEKBIK@Remove?5From?5CRL?$AA@ 0009ce84     libeay32:v3_enum.obj
 0002:0002be94       ??_C@_0M@MFMDLEDN@unspecified?$AA@ 0009ce94     libeay32:v3_enum.obj
 0002:0002bea0       ??_C@_0M@NNPCGPMF@Unspecified?$AA@ 0009cea0     libeay32:v3_enum.obj
 0002:0002beac       v3_akey_id                 0009ceac     libeay32:v3_akey.obj
 0002:0002bee8       ??_C@_0FA@BIHNLJGI@d?3?2wm653wehh?2platform?2mvv210?2src@ 0009cee8     libeay32:v3_akey.obj
 0002:0002bf38       ??_C@_06KHDOHNKC@always?$AA@ 0009cf38     libeay32:v3_akey.obj
 0002:0002c0e0       v3_cpols                   0009d0e0     libeay32:v3_cpols.obj
 0002:0002c118       ??_C@_09DFHLGOKA@NOTICEREF?$AA@ 0009d118     libeay32:v3_cpols.obj
 0002:0002c124       ??_C@_09CFGHNILC@noticenos?$AA@ 0009d124     libeay32:v3_cpols.obj
 0002:0002c130       ??_C@_0N@HEIPMDAG@organization?$AA@ 0009d130     libeay32:v3_cpols.obj
 0002:0002c140       ??_C@_0L@HCNDPADF@USERNOTICE?$AA@ 0009d140     libeay32:v3_cpols.obj
 0002:0002c14c       ??_C@_07MHGINJOA@exptext?$AA@ 0009d14c     libeay32:v3_cpols.obj
 0002:0002c154       ??_C@_09FIKFDFH@noticeref?$AA@ 0009d154     libeay32:v3_cpols.obj
 0002:0002c160       ??_C@_0P@POBJIHLD@POLICYQUALINFO?$AA@ 0009d160     libeay32:v3_cpols.obj
 0002:0002c170       ??_C@_07LEEILOKB@pqualid?$AA@ 0009d170     libeay32:v3_cpols.obj
 0002:0002c178       ??_C@_0N@JPAHANFF@d?4usernotice?$AA@ 0009d178     libeay32:v3_cpols.obj
 0002:0002c188       ??_C@_08EECALGEF@d?4cpsuri?$AA@ 0009d188     libeay32:v3_cpols.obj
 0002:0002c194       ??_C@_0L@POLPGHJK@POLICYINFO?$AA@ 0009d194     libeay32:v3_cpols.obj
 0002:0002c1a0       ??_C@_0L@HMNGMMJI@qualifiers?$AA@ 0009d1a0     libeay32:v3_cpols.obj
 0002:0002c1ac       ??_C@_08NEBFOBH@policyid?$AA@ 0009d1ac     libeay32:v3_cpols.obj
 0002:0002c1b8       ??_C@_0BE@GJBJOOCP@CERTIFICATEPOLICIES?$AA@ 0009d1b8     libeay32:v3_cpols.obj
 0002:0002c1d0       ??_C@_0FB@GCODJBIG@d?3?2wm653wehh?2platform?2mvv210?2src@ 0009d1d0     libeay32:v3_cpols.obj
 0002:0002c224       ??_C@_0BG@IHHCDAMH@?$CF?$CKsExplicit?5Text?3?5?$CFs?6?$AA@ 0009d224     libeay32:v3_cpols.obj
 0002:0002c23c       ??_C@_0O@EFHNHHDA@?$CF?$CKsNumber?$CFs?3?5?$AA@ 0009d23c     libeay32:v3_cpols.obj
 0002:0002c24c       ??_C@_0BF@OCNFPJOG@?$CF?$CKsOrganization?3?5?$CFs?6?$AA@ 0009d24c     libeay32:v3_cpols.obj
 0002:0002c264       ??_C@_0O@OKDALMJE@noticeNumbers?$AA@ 0009d264     libeay32:v3_cpols.obj
 0002:0002c274       ??_C@_0N@EALKMFB@explicitText?$AA@ 0009d274     libeay32:v3_cpols.obj
 0002:0002c284       ??_C@_0M@ICGFCJNO@?$CF?$CKsCPS?3?5?$CFs?6?$AA@ 0009d284     libeay32:v3_cpols.obj
 0002:0002c290       ??_C@_0BB@MMPKKFLI@?$CF?$CKsUser?5Notice?3?6?$AA@ 0009d290     libeay32:v3_cpols.obj
 0002:0002c2a4       ??_C@_0BH@CHOAEJEJ@?$CF?$CKsUnknown?5Qualifier?3?5?$AA@ 0009d2a4     libeay32:v3_cpols.obj
 0002:0002c2bc       ??_C@_0M@BBFMFBLN@?$CF?$CKsPolicy?3?5?$AA@ 0009d2bc     libeay32:v3_cpols.obj
 0002:0002c2c8       ??_C@_0L@LADHLIJ@userNotice?$AA@ 0009d2c8     libeay32:v3_cpols.obj
 0002:0002c2d4       ??_C@_03KKDAPHBH@CPS?$AA@  0009d2d4     libeay32:v3_cpols.obj
 0002:0002c2d8       ??_C@_0BB@FIJMMMGE@policyIdentifier?$AA@ 0009d2d8     libeay32:v3_cpols.obj
 0002:0002c2ec       ??_C@_06MIFIGELF@ia5org?$AA@ 0009d2ec     libeay32:v3_cpols.obj
 0002:0002c338       v3_pkey_usage_period       0009d338     libeay32:v3_pku.obj
 0002:0002c370       ??_C@_0BC@CCOKACDM@PKEY_USAGE_PERIOD?$AA@ 0009d370     libeay32:v3_pku.obj
 0002:0002c384       ??_C@_0M@FCHJLIHE@Not?5After?3?5?$AA@ 0009d384     libeay32:v3_pku.obj
 0002:0002c390       ??_C@_0N@KGLJEEMK@Not?5Before?3?5?$AA@ 0009d390     libeay32:v3_pku.obj
 0002:0002c3a0       v3_key_usage               0009d3a0     libeay32:v3_bitst.obj
 0002:0002c3d8       v3_nscert                  0009d3d8     libeay32:v3_bitst.obj
 0002:0002c410       ??_C@_0N@LIFHMFCO@decipherOnly?$AA@ 0009d410     libeay32:v3_bitst.obj
 0002:0002c420       ??_C@_0O@FKBAPCEG@Decipher?5Only?$AA@ 0009d420     libeay32:v3_bitst.obj
 0002:0002c430       ??_C@_0N@BEFDLIKF@encipherOnly?$AA@ 0009d430     libeay32:v3_bitst.obj
 0002:0002c440       ??_C@_0O@CANGKMJD@Encipher?5Only?$AA@ 0009d440     libeay32:v3_bitst.obj
 0002:0002c450       ??_C@_07IHBCCDFJ@cRLSign?$AA@ 0009d450     libeay32:v3_bitst.obj
 0002:0002c458       ??_C@_08OCJGKMAN@CRL?5Sign?$AA@ 0009d458     libeay32:v3_bitst.obj
 0002:0002c464       ??_C@_0M@ONBOOMGI@keyCertSign?$AA@ 0009d464     libeay32:v3_bitst.obj
 0002:0002c470       ??_C@_0BB@ELNGMDLH@Certificate?5Sign?$AA@ 0009d470     libeay32:v3_bitst.obj
 0002:0002c484       ??_C@_0N@GONHKOEO@keyAgreement?$AA@ 0009d484     libeay32:v3_bitst.obj
 0002:0002c494       ??_C@_0O@EOJOBCHL@Key?5Agreement?$AA@ 0009d494     libeay32:v3_bitst.obj
 0002:0002c4a4       ??_C@_0BB@LBKKKIGO@dataEncipherment?$AA@ 0009d4a4     libeay32:v3_bitst.obj
 0002:0002c4b8       ??_C@_0BC@GNPIAJLP@Data?5Encipherment?$AA@ 0009d4b8     libeay32:v3_bitst.obj
 0002:0002c4cc       ??_C@_0BA@MINCLOJG@keyEncipherment?$AA@ 0009d4cc     libeay32:v3_bitst.obj
 0002:0002c4dc       ??_C@_0BB@KNACIBEN@Key?5Encipherment?$AA@ 0009d4dc     libeay32:v3_bitst.obj
 0002:0002c4f0       ??_C@_0P@GPCNPOGO@nonRepudiation?$AA@ 0009d4f0     libeay32:v3_bitst.obj
 0002:0002c500       ??_C@_0BA@DJCGBBAI@Non?5Repudiation?$AA@ 0009d500     libeay32:v3_bitst.obj
 0002:0002c510       ??_C@_0BB@MFKHIIOM@digitalSignature?$AA@ 0009d510     libeay32:v3_bitst.obj
 0002:0002c524       ??_C@_0BC@DPKEIPIO@Digital?5Signature?$AA@ 0009d524     libeay32:v3_bitst.obj
 0002:0002c538       ??_C@_05JLEIJNEE@objCA?$AA@ 0009d538     libeay32:v3_bitst.obj
 0002:0002c540       ??_C@_0BC@FAMHGMHB@Object?5Signing?5CA?$AA@ 0009d540     libeay32:v3_bitst.obj
 0002:0002c554       ??_C@_07FFHDGPMJ@emailCA?$AA@ 0009d554     libeay32:v3_bitst.obj
 0002:0002c55c       ??_C@_09GIEMCMEO@S?1MIME?5CA?$AA@ 0009d55c     libeay32:v3_bitst.obj
 0002:0002c568       ??_C@_05JHLHLOEK@sslCA?$AA@ 0009d568     libeay32:v3_bitst.obj
 0002:0002c570       ??_C@_06FMDLPOFJ@SSL?5CA?$AA@ 0009d570     libeay32:v3_bitst.obj
 0002:0002c578       ??_C@_08FINKBBAF@reserved?$AA@ 0009d578     libeay32:v3_bitst.obj
 0002:0002c584       ??_C@_07GIOKFKGL@objsign?$AA@ 0009d584     libeay32:v3_bitst.obj
 0002:0002c58c       ??_C@_0P@DDHLFHHK@Object?5Signing?$AA@ 0009d58c     libeay32:v3_bitst.obj
 0002:0002c59c       ??_C@_06HJHJCKIO@server?$AA@ 0009d59c     libeay32:v3_bitst.obj
 0002:0002c5a4       ??_C@_06DGDLPBAN@client?$AA@ 0009d5a4     libeay32:v3_bitst.obj
 0002:0002c5b0       ??_C@_0FB@EKHJICLH@d?3?2wm653wehh?2platform?2mvv210?2src@ 0009d5b0     libeay32:v3_bitst.obj
 0002:0002c604       v3_skey_id                 0009d604     libeay32:v3_skey.obj
 0002:0002c640       ??_C@_0FA@OIDMDEIP@d?3?2wm653wehh?2platform?2mvv210?2src@ 0009d640     libeay32:v3_skey.obj
 0002:0002c690       ??_C@_04OIJGJDKO@hash?$AA@ 0009d690     libeay32:v3_skey.obj
 0002:0002c698       v3_ns_ia5_list             0009d698     libeay32:v3_ia5.obj
 0002:0002c858       ??_C@_0EP@FPIPLDCG@d?3?2wm653wehh?2platform?2mvv210?2src@ 0009d858     libeay32:v3_ia5.obj
 0002:0002c8a8       ??_C@_0FA@GLNJJMIP@d?3?2wm653wehh?2platform?2mvv210?2src@ 0009d8a8     libeay32:v3_conf.obj
 0002:0002c9f0       ??_C@_08JIPBBKBM@X509_REQ?$AA@ 0009d9f0     libeay32:x_req.obj
 0002:0002c9fc       ??_C@_08JILJKJG@req_info?$AA@ 0009d9fc     libeay32:x_req.obj
 0002:0002ca08       ??_C@_0O@EHCMNJCB@X509_REQ_INFO?$AA@ 0009da08     libeay32:x_req.obj
 0002:0002ca18       ??_C@_06GKCAPDID@pubkey?$AA@ 0009da18     libeay32:x_req.obj
 0002:0002ca20       ??_C@_0BE@LILBBPKE@OpenSSL?5ECDH?5method?$AA@ 0009da20     libeay32:ech_ossl.obj
 0002:0002ca38       ??_C@_0EP@EIICIEGK@d?3?2wm653wehh?2platform?2mvv210?2src@ 0009da38     libeay32:ech_ossl.obj
 0002:0002cad0       ??_C@_08CKLJFNPB@PBEPARAM?$AA@ 0009dad0     libeay32:p5_pbe.obj
 0002:0002cae0       ??_C@_0FA@NBNNIDCA@d?3?2wm653wehh?2platform?2mvv210?2src@ 0009dae0     libeay32:p12_key.obj
 0002:0002cb30       ??_C@_0FA@FLDKBPHG@d?3?2wm653wehh?2platform?2mvv210?2src@ 0009db30     libeay32:pk7_attr.obj
 0002:0002cc1c       ??_C@_0O@DBIGEIKO@NETSCAPE_SPKI?$AA@ 0009dc1c     libeay32:x_spki.obj
 0002:0002cc2c       ??_C@_09JJGBLAHB@sig_algor?$AA@ 0009dc2c     libeay32:x_spki.obj
 0002:0002cc38       ??_C@_05NBLLCIIN@spkac?$AA@ 0009dc38     libeay32:x_spki.obj
 0002:0002cc40       ??_C@_0P@OEBIEFNJ@NETSCAPE_SPKAC?$AA@ 0009dc40     libeay32:x_spki.obj
 0002:0002cc50       ??_C@_09DBEGHIJJ@challenge?$AA@ 0009dc50     libeay32:x_spki.obj
 0002:0002cc5c       MD5_version                0009dc5c     libeay32:md5_dgst.obj
 0002:0002cc98       PEM_version                0009dc98     libeay32:pem_lib.obj
 0002:0002cf0c       ??_C@_06DPGELLJH@FORMAT?$AA@ 0009df0c     libeay32:asn1_gen.obj
 0002:0002cf14       ??_C@_04HPGCGPG@FORM?$AA@  0009df14     libeay32:asn1_gen.obj
 0002:0002cf1c       ??_C@_07JHDNPBBM@BITWRAP?$AA@ 0009df1c     libeay32:asn1_gen.obj
 0002:0002cf24       ??_C@_07OAIMKKNN@SETWRAP?$AA@ 0009df24     libeay32:asn1_gen.obj
 0002:0002cf2c       ??_C@_07LAEBDLGO@SEQWRAP?$AA@ 0009df2c     libeay32:asn1_gen.obj
 0002:0002cf34       ??_C@_07KIEILLID@OCTWRAP?$AA@ 0009df34     libeay32:asn1_gen.obj
 0002:0002cf3c       ??_C@_08PPMOEJGF@IMPLICIT?$AA@ 0009df3c     libeay32:asn1_gen.obj
 0002:0002cf48       ??_C@_03PKFOHEJD@IMP?$AA@  0009df48     libeay32:asn1_gen.obj
 0002:0002cf4c       ??_C@_08CNKBIFDO@EXPLICIT?$AA@ 0009df4c     libeay32:asn1_gen.obj
 0002:0002cf58       ??_C@_03KKGFKKLA@EXP?$AA@  0009df58     libeay32:asn1_gen.obj
 0002:0002cf5c       ??_C@_03NCPCKDJB@SEQ?$AA@  0009df5c     libeay32:asn1_gen.obj
 0002:0002cf60       ??_C@_07DBOJJFHC@NUMERIC?$AA@ 0009df60     libeay32:asn1_gen.obj
 0002:0002cf68       ??_C@_06GBOJAPHH@GENSTR?$AA@ 0009df68     libeay32:asn1_gen.obj
 0002:0002cf70       ??_C@_0O@OIKLOOAP@GeneralString?$AA@ 0009df70     libeay32:asn1_gen.obj
 0002:0002cf80       ??_C@_0O@GENPGMAM@TELETEXSTRING?$AA@ 0009df80     libeay32:asn1_gen.obj
 0002:0002cf90       ??_C@_03HMGPCGIG@T61?$AA@  0009df90     libeay32:asn1_gen.obj
 0002:0002cf94       ??_C@_09OMDMMLJJ@PRINTABLE?$AA@ 0009df94     libeay32:asn1_gen.obj
 0002:0002cfa0       ??_C@_07MCGNPFEO@VISIBLE?$AA@ 0009dfa0     libeay32:asn1_gen.obj
 0002:0002cfa8       ??_C@_03CNFPPDJC@BMP?$AA@  0009dfa8     libeay32:asn1_gen.obj
 0002:0002cfac       ??_C@_0L@PJIJIHJD@UTF8String?$AA@ 0009dfac     libeay32:asn1_gen.obj
 0002:0002cfb8       ??_C@_04OOMJJNCF@UTF8?$AA@ 0009dfb8     libeay32:asn1_gen.obj
 0002:0002cfc0       ??_C@_03OLMOBCBF@IA5?$AA@  0009dfc0     libeay32:asn1_gen.obj
 0002:0002cfc4       ??_C@_04CBEPCLMK@UNIV?$AA@ 0009dfc4     libeay32:asn1_gen.obj
 0002:0002cfcc       ??_C@_09MBLGEDKL@BITSTRING?$AA@ 0009dfcc     libeay32:asn1_gen.obj
 0002:0002cfd8       ??_C@_06GOEDGPII@BITSTR?$AA@ 0009dfd8     libeay32:asn1_gen.obj
 0002:0002cfe0       ??_C@_0M@JIDALIGG@OCTETSTRING?$AA@ 0009dfe0     libeay32:asn1_gen.obj
 0002:0002cfec       ??_C@_03LBMHMDEB@OCT?$AA@  0009dfec     libeay32:asn1_gen.obj
 0002:0002cff0       ??_C@_07EECHABMP@GENTIME?$AA@ 0009dff0     libeay32:asn1_gen.obj
 0002:0002cff8       ??_C@_03JCIJEFNJ@UTC?$AA@  0009dff8     libeay32:asn1_gen.obj
 0002:0002cffc       ??_C@_03PGJCFEMG@OID?$AA@  0009dffc     libeay32:asn1_gen.obj
 0002:0002d000       ??_C@_04PNKFCNMG@ENUM?$AA@ 0009e000     libeay32:asn1_gen.obj
 0002:0002d008       ??_C@_03JMHEAPMO@INT?$AA@  0009e008     libeay32:asn1_gen.obj
 0002:0002d00c       ??_C@_04PPJDIBFE@BOOL?$AA@ 0009e00c     libeay32:asn1_gen.obj
 0002:0002d014       ??_C@_05NALEHOPE@Char?$DN?$AA@ 0009e014     libeay32:asn1_gen.obj
 0002:0002d020       ??_C@_0EP@NAHIMGLP@d?3?2wm653wehh?2platform?2mvv210?2src@ 0009e020     libeay32:asn1_gen.obj
 0002:0002d070       ??_C@_07HMNLDFAL@BITLIST?$AA@ 0009e070     libeay32:asn1_gen.obj
 0002:0002d078       ??_C@_03IECIMIEG@HEX?$AA@  0009e078     libeay32:asn1_gen.obj
 0002:0002d07c       ??_C@_05CCNLIHFO@ASCII?$AA@ 0009e07c     libeay32:asn1_gen.obj
 0002:0002d084       ??_C@_04JBGFELJA@tag?$DN?$AA@ 0009e084     libeay32:asn1_gen.obj
 0002:0002d08c       ??_C@_07IOGEOOAA@string?$DN?$AA@ 0009e08c     libeay32:asn1_gen.obj
 0002:0002d094       ??_C@_05LKMDHMJN@WIN32?$AA@ 0009e094     libeay32:conf_def.obj
 0002:0002d09c       ??_C@_0BA@EEIGDPJJ@OpenSSL?5default?$AA@ 0009e09c     libeay32:conf_def.obj
 0002:0002d0ac       CONF_def_version           0009e0ac     libeay32:conf_def.obj
 0002:0002d0d8       ??_C@_0EP@FLILJMGH@d?3?2wm653wehh?2platform?2mvv210?2src@ 0009e0d8     libeay32:conf_def.obj
 0002:0002d128       ??_C@_07PNLMPOMH@?$FL?$FL?$CFs?$FN?$FN?6?$AA@ 0009e128     libeay32:conf_def.obj
 0002:0002d130       ??_C@_0M@CLCLGKAH@?$FL?$CFs?$FN?5?$CFs?$DN?$CFs?6?$AA@ 0009e130     libeay32:conf_def.obj
 0002:0002d13c       ??_C@_05KFEICJBI@line?5?$AA@ 0009e13c     libeay32:conf_def.obj
 0002:0002d144       ??_C@_03OEJENCPE@ENV?$AA@  0009e144     libeay32:conf_api.obj
 0002:0002d148       ??_C@_0L@BFMFELMC@vv?5?$DN?$DN?5NULL?$AA@ 0009e148     libeay32:conf_api.obj
 0002:0002d158       ??_C@_0EP@PLCFAFHA@d?3?2wm653wehh?2platform?2mvv210?2src@ 0009e158     libeay32:conf_api.obj
 0002:0002d6d4       ??_C@_0BA@JLGHGCLL@OCSP_SERVICELOC?$AA@ 0009e6d4     libeay32:ocsp_asn.obj
 0002:0002d6e4       ??_C@_07PAIKCKMF@locator?$AA@ 0009e6e4     libeay32:ocsp_asn.obj
 0002:0002d6ec       ??_C@_0L@JOKCDHBA@OCSP_CRLID?$AA@ 0009e6ec     libeay32:ocsp_asn.obj
 0002:0002d6f8       ??_C@_07BDEAJPPO@crlTime?$AA@ 0009e6f8     libeay32:ocsp_asn.obj
 0002:0002d700       ??_C@_06DLEHNACA@crlNum?$AA@ 0009e700     libeay32:ocsp_asn.obj
 0002:0002d708       ??_C@_06KAALCHHK@crlUrl?$AA@ 0009e708     libeay32:ocsp_asn.obj
 0002:0002d710       ??_C@_0P@CPCDLAO@OCSP_BASICRESP?$AA@ 0009e710     libeay32:ocsp_asn.obj
 0002:0002d720       ??_C@_0BA@OOPOFNLG@tbsResponseData?$AA@ 0009e720     libeay32:ocsp_asn.obj
 0002:0002d730       ??_C@_0O@GNAMNHBK@OCSP_RESPDATA?$AA@ 0009e730     libeay32:ocsp_asn.obj
 0002:0002d740       ??_C@_0BD@LEANHDON@responseExtensions?$AA@ 0009e740     libeay32:ocsp_asn.obj
 0002:0002d754       ??_C@_09NKKOBILA@responses?$AA@ 0009e754     libeay32:ocsp_asn.obj
 0002:0002d760       ??_C@_0L@KADAOIGF@producedAt?$AA@ 0009e760     libeay32:ocsp_asn.obj
 0002:0002d76c       ??_C@_0M@CPBMKBOK@responderId?$AA@ 0009e76c     libeay32:ocsp_asn.obj
 0002:0002d778       ??_C@_0BA@CEMENBMB@OCSP_SINGLERESP?$AA@ 0009e778     libeay32:ocsp_asn.obj
 0002:0002d788       ??_C@_0BB@BHCHCCEI@singleExtensions?$AA@ 0009e788     libeay32:ocsp_asn.obj
 0002:0002d79c       ??_C@_0L@BEDJFPDO@thisUpdate?$AA@ 0009e79c     libeay32:ocsp_asn.obj
 0002:0002d7a8       ??_C@_0L@IGGFAGC@certStatus?$AA@ 0009e7a8     libeay32:ocsp_asn.obj
 0002:0002d7b4       ??_C@_06JJGBHEJI@certId?$AA@ 0009e7b4     libeay32:ocsp_asn.obj
 0002:0002d7bc       ??_C@_0BA@JBJHLNOJ@OCSP_CERTSTATUS?$AA@ 0009e7bc     libeay32:ocsp_asn.obj
 0002:0002d7cc       ??_C@_0O@ICNBHFHN@value?4unknown?$AA@ 0009e7cc     libeay32:ocsp_asn.obj
 0002:0002d7dc       ??_C@_0O@GCBEBIKI@value?4revoked?$AA@ 0009e7dc     libeay32:ocsp_asn.obj
 0002:0002d7ec       ??_C@_0L@MEIDNBL@value?4good?$AA@ 0009e7ec     libeay32:ocsp_asn.obj
 0002:0002d7f8       ??_C@_0BB@CFNKINIP@OCSP_REVOKEDINFO?$AA@ 0009e7f8     libeay32:ocsp_asn.obj
 0002:0002d80c       ??_C@_0BB@JHENKMOK@revocationReason?$AA@ 0009e80c     libeay32:ocsp_asn.obj
 0002:0002d820       ??_C@_0P@MHJPNEEK@revocationTime?$AA@ 0009e820     libeay32:ocsp_asn.obj
 0002:0002d830       ??_C@_0M@JBDPBGBO@OCSP_RESPID?$AA@ 0009e830     libeay32:ocsp_asn.obj
 0002:0002d83c       ??_C@_0M@OFGLOCKB@value?4byKey?$AA@ 0009e83c     libeay32:ocsp_asn.obj
 0002:0002d848       ??_C@_0N@OFBDHEPF@value?4byName?$AA@ 0009e848     libeay32:ocsp_asn.obj
 0002:0002d858       ??_C@_0O@CDJMCFNM@OCSP_RESPONSE?$AA@ 0009e858     libeay32:ocsp_asn.obj
 0002:0002d868       ??_C@_0O@MMHCFEHM@responseBytes?$AA@ 0009e868     libeay32:ocsp_asn.obj
 0002:0002d878       ??_C@_0P@GEHCLFGI@responseStatus?$AA@ 0009e878     libeay32:ocsp_asn.obj
 0002:0002d888       ??_C@_0P@ONFJGMLI@OCSP_RESPBYTES?$AA@ 0009e888     libeay32:ocsp_asn.obj
 0002:0002d898       ??_C@_08HKMEAON@response?$AA@ 0009e898     libeay32:ocsp_asn.obj
 0002:0002d8a4       ??_C@_0N@FPIGADMM@responseType?$AA@ 0009e8a4     libeay32:ocsp_asn.obj
 0002:0002d8b4       ??_C@_0N@PCNOLOBD@OCSP_REQUEST?$AA@ 0009e8b4     libeay32:ocsp_asn.obj
 0002:0002d8c4       ??_C@_0BC@GKDKILGO@optionalSignature?$AA@ 0009e8c4     libeay32:ocsp_asn.obj
 0002:0002d8d8       ??_C@_0L@OIGCAPNH@tbsRequest?$AA@ 0009e8d8     libeay32:ocsp_asn.obj
 0002:0002d8e4       ??_C@_0N@DDBEOJJA@OCSP_REQINFO?$AA@ 0009e8e4     libeay32:ocsp_asn.obj
 0002:0002d8f4       ??_C@_0BC@CPAMEDLH@requestExtensions?$AA@ 0009e8f4     libeay32:ocsp_asn.obj
 0002:0002d908       ??_C@_0M@NNJGDIDJ@requestList?$AA@ 0009e908     libeay32:ocsp_asn.obj
 0002:0002d914       ??_C@_0O@NHDBCFOA@requestorName?$AA@ 0009e914     libeay32:ocsp_asn.obj
 0002:0002d924       ??_C@_0M@IGPHKOAK@OCSP_ONEREQ?$AA@ 0009e924     libeay32:ocsp_asn.obj
 0002:0002d930       ??_C@_0BI@PPJDGJOP@singleRequestExtensions?$AA@ 0009e930     libeay32:ocsp_asn.obj
 0002:0002d948       ??_C@_07GCNFCODJ@reqCert?$AA@ 0009e948     libeay32:ocsp_asn.obj
 0002:0002d950       ??_C@_0M@OCJEDPID@OCSP_CERTID?$AA@ 0009e950     libeay32:ocsp_asn.obj
 0002:0002d95c       ??_C@_0O@KPBFDKHB@issuerKeyHash?$AA@ 0009e95c     libeay32:ocsp_asn.obj
 0002:0002d96c       ??_C@_0P@EKEFMOEP@issuerNameHash?$AA@ 0009e96c     libeay32:ocsp_asn.obj
 0002:0002d97c       ??_C@_0P@OIPGPNII@OCSP_SIGNATURE?$AA@ 0009e97c     libeay32:ocsp_asn.obj
 0002:0002d98c       ??_C@_05HFDFJDL@certs?$AA@ 0009e98c     libeay32:ocsp_asn.obj
 0002:0002d998       ??_C@_0FA@NCEGPJFE@d?3?2wm653wehh?2platform?2mvv210?2src@ 0009e998     libeay32:p12_utl.obj
 0002:0002dab0       ??_C@_0CK@NJACHFBA@ctx?9?$DOlength?5?$DM?$DN?5?$CIint?$CJsizeof?$CIctx?9?$DO@ 0009eab0     libeay32:encode.obj
 0002:0002dae0       ??_C@_0EM@EJBFCLJI@d?3?2wm653wehh?2platform?2mvv210?2src@ 0009eae0     libeay32:encode.obj
 0002:0002db2c       ??_C@_0BP@KGJPJK@n?5?$DM?5?$CIint?$CJsizeof?$CIctx?9?$DOenc_data?$CJ?$AA@ 0009eb2c     libeay32:encode.obj
 0002:0002db4c       ??_C@_04GABBLIPF@asn1?$AA@ 0009eb4c     libeay32:bio_asn1.obj
 0002:0002db58       ??_C@_0EP@CPKJKHDC@d?3?2wm653wehh?2platform?2mvv210?2src@ 0009eb58     libeay32:bio_asn1.obj
 0002:0002dba8       ??_C@_0BM@FIMHHPDL@ctx?9?$DObuflen?5?$DM?$DN?5ctx?9?$DObufsize?$AA@ 0009eba8     libeay32:bio_asn1.obj
 0002:0002dbc4       ??_C@_0BA@CNEIDKOH@base64?5encoding?$AA@ 0009ebc4     libeay32:bio_b64.obj
 0002:0002dbd8       ??_C@_0EN@CHDAAPPK@d?3?2wm653wehh?2platform?2mvv210?2src@ 0009ebd8     libeay32:bio_b64.obj
 0002:0002dc28       ??_C@_0CH@JADBFJCL@ctx?9?$DObuf_off?$CLi?5?$DM?5?$CIint?$CJsizeof?$CIctx@ 0009ec28     libeay32:bio_b64.obj
 0002:0002dc50       ??_C@_0BN@FPMDFEFM@ctx?9?$DObuf_len?5?$DO?$DN?5ctx?9?$DObuf_off?$AA@ 0009ec50     libeay32:bio_b64.obj
 0002:0002dc70       ??_C@_0BC@BEKEPBME@ctx?9?$DOtmp_len?5?$DM?$DN?53?$AA@ 0009ec70     libeay32:bio_b64.obj
 0002:0002dc84       ??_C@_0CG@NALBBCEM@ctx?9?$DObuf_off?5?$DM?$DN?5?$CIint?$CJsizeof?$CIctx?9@ 0009ec84     libeay32:bio_b64.obj
 0002:0002dcac       ??_C@_06NOLCFJLD@i?5?$DM?$DN?5n?$AA@ 0009ecac     libeay32:bio_b64.obj
 0002:0002dcb4       ??_C@_0CG@LFOFKIIN@ctx?9?$DObuf_len?5?$DM?$DN?5?$CIint?$CJsizeof?$CIctx?9@ 0009ecb4     libeay32:bio_b64.obj
 0002:0002dcdc       ??_C@_0CF@ELLFOHKP@ctx?9?$DObuf_off?5?$DM?5?$CIint?$CJsizeof?$CIctx?9?$DO@ 0009ecdc     libeay32:bio_b64.obj
 0002:0002dd04       ??_C@_06HOHPNJLC@buffer?$AA@ 0009ed04     libeay32:bf_buff.obj
 0002:0002dd10       ??_C@_0EN@HLACMGKH@d?3?2wm653wehh?2platform?2mvv210?2src@ 0009ed10     libeay32:bf_buff.obj
 0002:0002dd60       ??_C@_0CG@ELPNGFCJ@OpenSSL?5?8win32?8?5shared?5library?5m@ 0009ed60     libeay32:dso_win32.obj
 0002:0002dd88       ??_C@_01PKGAHCOL@?$CJ?$AA@ 0009ed88     libeay32:dso_win32.obj
 0002:0002dd8c       ??_C@_09CCCHLKJP@filename?$CI?$AA@ 0009ed8c     libeay32:dso_win32.obj
 0002:0002dd98       ??_C@_0EP@KLFAEIED@d?3?2wm653wehh?2platform?2mvv210?2src@ 0009ed98     libeay32:dso_win32.obj
 0002:0002dde8       ??_C@_08MFAHALLH@symname?$CI?$AA@ 0009ede8     libeay32:dso_win32.obj
 0002:0002ddf4       ??_C@_06DAJAKOAL@?$CFs?4dll?$AA@ 0009edf4     libeay32:dso_win32.obj
 0002:0002ddfc       ??_C@_0BI@GJJDGJIM@CloseToolhelp32Snapshot?$AA@ 0009edfc     libeay32:dso_win32.obj
 0002:0002de14       ??_C@_0O@CNMFJJGO@Module32First?$AA@ 0009ee14     libeay32:dso_win32.obj
 0002:0002de24       ??_C@_0N@KIGOLBLC@Module32Next?$AA@ 0009ee24     libeay32:dso_win32.obj
 0002:0002de34       ??_C@_0BJ@JEFKDHMD@CreateToolhelp32Snapshot?$AA@ 0009ee34     libeay32:dso_win32.obj
 0002:0002de50       ??_C@_1BK@NKALKHPI@?$AAT?$AAO?$AAO?$AAL?$AAH?$AAE?$AAL?$AAP?$AA?4?$AAD?$AAL?$AAL?$AA?$AA@ 0009ee50     libeay32:dso_win32.obj
 0002:0002e158       ??_C@_0BB@BIPBIGGF@PKCS12_AUTHSAFES?$AA@ 0009f158     libeay32:p12_asn.obj
 0002:0002e16c       ??_C@_0BA@MCGBLIFE@PKCS12_SAFEBAGS?$AA@ 0009f16c     libeay32:p12_asn.obj
 0002:0002e17c       ??_C@_06CEIPPJF@attrib?$AA@ 0009f17c     libeay32:p12_asn.obj
 0002:0002e184       ??_C@_0P@EECFPDPC@PKCS12_SAFEBAG?$AA@ 0009f184     libeay32:p12_asn.obj
 0002:0002e194       ??_C@_09EBGANBLK@value?4bag?$AA@ 0009f194     libeay32:p12_asn.obj
 0002:0002e1a0       ??_C@_0M@NFMGHALF@value?4safes?$AA@ 0009f1a0     libeay32:p12_asn.obj
 0002:0002e1ac       ??_C@_0P@FIADCDOI@value?4shkeybag?$AA@ 0009f1ac     libeay32:p12_asn.obj
 0002:0002e1bc       ??_C@_0N@DOAHKDFI@value?4keybag?$AA@ 0009f1bc     libeay32:p12_asn.obj
 0002:0002e1cc       ??_C@_0M@BNPBMADO@PKCS12_BAGS?$AA@ 0009f1cc     libeay32:p12_asn.obj
 0002:0002e1d8       ??_C@_0P@OEFHMPFE@value?4sdsicert?$AA@ 0009f1d8     libeay32:p12_asn.obj
 0002:0002e1e8       ??_C@_0O@KKFHCJNP@value?4x509crl?$AA@ 0009f1e8     libeay32:p12_asn.obj
 0002:0002e1f8       ??_C@_0P@IGODMFMC@value?4x509cert?$AA@ 0009f1f8     libeay32:p12_asn.obj
 0002:0002e208       ??_C@_0M@PABGOMNF@value?4other?$AA@ 0009f208     libeay32:p12_asn.obj
 0002:0002e214       ??_C@_0BA@LPMCLHLH@PKCS12_MAC_DATA?$AA@ 0009f214     libeay32:p12_asn.obj
 0002:0002e224       ??_C@_05DMLMEGOG@dinfo?$AA@ 0009f224     libeay32:p12_asn.obj
 0002:0002e22c       ??_C@_06CKOLGKJK@PKCS12?$AA@ 0009f22c     libeay32:p12_asn.obj
 0002:0002e234       ??_C@_09HFIAEJAG@authsafes?$AA@ 0009f234     libeay32:p12_asn.obj
 0002:0002e240       ??_C@_0BP@JCDKFDNH@OpenSSL?5default?5user?5interface?$AA@ 0009f240     libeay32:ui_openssl.obj
 0002:0002e260       ??_C@_0EP@FLBPENKO@d?3?2wm653wehh?2platform?2mvv210?2src@ 0009f260     libeay32:ui_openssl.obj
 0002:0002e2b0       ??_C@_03EPNNLCDK@con?$AA@  0009f2b0     libeay32:ui_openssl.obj
 0002:0002e2b4       ??_C@_0BA@GANIJHKH@Verify?5failure?6?$AA@ 0009f2b4     libeay32:ui_openssl.obj
 0002:0002e2c4       ??_C@_0P@IOLEFIHN@Verifying?5?9?5?$CFs?$AA@ 0009f2c4     libeay32:ui_openssl.obj
 0002:0002e2d4       ??_C@_08EDHMEBNP@December?$AA@ 0009f2d4     wcecompatex:time.obj
 0002:0002e2e0       ??_C@_08HCHEGEOA@November?$AA@ 0009f2e0     wcecompatex:time.obj
 0002:0002e2ec       ??_C@_07JJNFCEND@October?$AA@ 0009f2ec     wcecompatex:time.obj
 0002:0002e2f4       ??_C@_09BHHEALKD@September?$AA@ 0009f2f4     wcecompatex:time.obj
 0002:0002e300       ??_C@_06LBBHFDDG@August?$AA@ 0009f300     wcecompatex:time.obj
 0002:0002e308       ??_C@_04MIEPOIFP@July?$AA@ 0009f308     wcecompatex:time.obj
 0002:0002e310       ??_C@_04CNLMGBGM@June?$AA@ 0009f310     wcecompatex:time.obj
 0002:0002e318       ??_C@_05DMJDNLEJ@April?$AA@ 0009f318     wcecompatex:time.obj
 0002:0002e320       ??_C@_05HPCKOFNC@March?$AA@ 0009f320     wcecompatex:time.obj
 0002:0002e328       ??_C@_08GNJGEPFN@February?$AA@ 0009f328     wcecompatex:time.obj
 0002:0002e334       ??_C@_07CGJPFGJA@January?$AA@ 0009f334     wcecompatex:time.obj
 0002:0002e33c       ??_C@_08INBOOONO@Saturday?$AA@ 0009f33c     wcecompatex:time.obj
 0002:0002e348       ??_C@_06JECMNKMI@Friday?$AA@ 0009f348     wcecompatex:time.obj
 0002:0002e350       ??_C@_08HACCIKIA@Thursday?$AA@ 0009f350     wcecompatex:time.obj
 0002:0002e35c       ??_C@_09DLIGFAKA@Wednesday?$AA@ 0009f35c     wcecompatex:time.obj
 0002:0002e368       ??_C@_07BAAGCFCM@Tuesday?$AA@ 0009f368     wcecompatex:time.obj
 0002:0002e370       ??_C@_06JLEDEDGH@Monday?$AA@ 0009f370     wcecompatex:time.obj
 0002:0002e378       ??_C@_06OOPIFAJ@Sunday?$AA@ 0009f378     wcecompatex:time.obj
 0002:0002e380       ??_C@_03FEFJNEK@Sat?$AA@   0009f380     wcecompatex:time.obj
 0002:0002e384       ??_C@_03IDIOELNC@Fri?$AA@  0009f384     wcecompatex:time.obj
 0002:0002e388       ??_C@_03IOFIKPDN@Thu?$AA@  0009f388     wcecompatex:time.obj
 0002:0002e38c       ??_C@_03MHOMLAJA@Wed?$AA@  0009f38c     wcecompatex:time.obj
 0002:0002e390       ??_C@_03NAGEINEP@Tue?$AA@  0009f390     wcecompatex:time.obj
 0002:0002e394       ??_C@_03PDAGKDH@Mon?$AA@   0009f394     wcecompatex:time.obj
 0002:0002e398       ??_C@_03KOEHGMDN@Sun?$AA@  0009f398     wcecompatex:time.obj
 0002:0002e3a4       ??_C@_0BG@KLEAJEFJ@Illegal?5byte?5sequence?$AA@ 0009f3a4     wcecompatex:string_extras.obj
 0002:0002e3bc       ??_C@_0BE@ICMCHPHH@Directory?5not?5empty?$AA@ 0009f3bc     wcecompatex:string_extras.obj
 0002:0002e3d0       ??_C@_0BJ@IHEHINLI@Function?5not?5implemented?$AA@ 0009f3d0     wcecompatex:string_extras.obj
 0002:0002e3ec       ??_C@_0BD@CLHBCGPB@No?5locks?5available?$AA@ 0009f3ec     wcecompatex:string_extras.obj
 0002:0002e400       ??_C@_0BC@BEDIHIDK@Filename?5too?5long?$AA@ 0009f400     wcecompatex:string_extras.obj
 0002:0002e414       ??_C@_0BK@JAEBMJJM@Resource?5deadlock?5avoided?$AA@ 0009f414     wcecompatex:string_extras.obj
 0002:0002e430       ??_C@_0BB@FCBJFCAJ@Result?5too?5large?$AA@ 0009f430     wcecompatex:string_extras.obj
 0002:0002e444       ??_C@_0N@MMJPGLJK@Domain?5error?$AA@ 0009f444     wcecompatex:string_extras.obj
 0002:0002e454       ??_C@_0M@LHEPIIOM@Broken?5pipe?$AA@ 0009f454     wcecompatex:string_extras.obj
 0002:0002e460       ??_C@_0P@PKCJJLLM@Too?5many?5links?$AA@ 0009f460     wcecompatex:string_extras.obj
 0002:0002e470       ??_C@_0BG@DDBFNKBH@Read?9only?5file?5system?$AA@ 0009f470     wcecompatex:string_extras.obj
 0002:0002e488       ??_C@_0N@FEHLOILP@Invalid?5seek?$AA@ 0009f488     wcecompatex:string_extras.obj
 0002:0002e498       ??_C@_0BI@FEALHKLD@No?5space?5left?5on?5device?$AA@ 0009f498     wcecompatex:string_extras.obj
 0002:0002e4b0       ??_C@_0P@LFMMIPAE@File?5too?5large?$AA@ 0009f4b0     wcecompatex:string_extras.obj
 0002:0002e4c0       ??_C@_0CE@ONOKNLPF@Inappropriate?5I?1O?5control?5operat@ 0009f4c0     wcecompatex:string_extras.obj
 0002:0002e4e4       ??_C@_0BE@INBJMKGG@Too?5many?5open?5files?$AA@ 0009f4e4     wcecompatex:string_extras.obj
 0002:0002e4f8       ??_C@_0BO@IIFBODJE@Too?5many?5open?5files?5in?5system?$AA@ 0009f4f8     wcecompatex:string_extras.obj
 0002:0002e518       ??_C@_0BB@HMGGCEBG@Invalid?5argument?$AA@ 0009f518     wcecompatex:string_extras.obj
 0002:0002e52c       ??_C@_0P@NDHGCGKE@Is?5a?5directory?$AA@ 0009f52c     wcecompatex:string_extras.obj
 0002:0002e53c       ??_C@_0BA@CJBACOOL@Not?5a?5directory?$AA@ 0009f53c     wcecompatex:string_extras.obj
 0002:0002e54c       ??_C@_0P@NLEIANHE@No?5such?5device?$AA@ 0009f54c     wcecompatex:string_extras.obj
 0002:0002e55c       ??_C@_0O@OAMDNOCP@Improper?5link?$AA@ 0009f55c     wcecompatex:string_extras.obj
 0002:0002e56c       ??_C@_0M@NAAJNNGH@File?5exists?$AA@ 0009f56c     wcecompatex:string_extras.obj
 0002:0002e578       ??_C@_0BI@PDLELJEJ@Device?5or?5resource?5busy?$AA@ 0009f578     wcecompatex:string_extras.obj
 0002:0002e590       ??_C@_0O@NIPGCINC@Unknown?5error?$AA@ 0009f590     wcecompatex:string_extras.obj
 0002:0002e5a0       ??_C@_0M@LOEHLCJD@Bad?5address?$AA@ 0009f5a0     wcecompatex:string_extras.obj
 0002:0002e5ac       ??_C@_0BC@HFNFNKAI@Permission?5denied?$AA@ 0009f5ac     wcecompatex:string_extras.obj
 0002:0002e5c0       ??_C@_0BC@BAKIAKOF@Not?5enough?5memory?$AA@ 0009f5c0     wcecompatex:string_extras.obj
 0002:0002e5d4       ??_C@_0CB@EPFKGNAK@Resource?5temporarily?5unavailable@ 0009f5d4     wcecompatex:string_extras.obj
 0002:0002e5f8       ??_C@_0BD@LOHELEP@No?5child?5processes?$AA@ 0009f5f8     wcecompatex:string_extras.obj
 0002:0002e60c       ??_C@_0BE@NFGDDCEF@Bad?5file?5descriptor?$AA@ 0009f60c     wcecompatex:string_extras.obj
 0002:0002e620       ??_C@_0BC@HKPNECK@Exec?5format?5error?$AA@ 0009f620     wcecompatex:string_extras.obj
 0002:0002e634       ??_C@_0BC@MFFGCDFL@Arg?5list?5too?5long?$AA@ 0009f634     wcecompatex:string_extras.obj
 0002:0002e648       ??_C@_0BK@DPKMCKJ@No?5such?5device?5or?5address?$AA@ 0009f648     wcecompatex:string_extras.obj
 0002:0002e664       ??_C@_09FIANMNHE@I?1O?5error?$AA@ 0009f664     wcecompatex:string_extras.obj
 0002:0002e670       ??_C@_0BI@EAGLFFDI@Interrupted?5system?5call?$AA@ 0009f670     wcecompatex:string_extras.obj
 0002:0002e688       ??_C@_0BA@FKIAIBGA@No?5such?5process?$AA@ 0009f688     wcecompatex:string_extras.obj
 0002:0002e698       ??_C@_0BK@FMDHKPNF@No?5such?5file?5or?5directory?$AA@ 0009f698     wcecompatex:string_extras.obj
 0002:0002e6b4       ??_C@_0BI@BJFCGOHL@Operation?5not?5permitted?$AA@ 0009f6b4     wcecompatex:string_extras.obj
 0002:0002e6cc       ??_C@_08INEPGKHH@No?5error?$AA@ 0009f6cc     wcecompatex:string_extras.obj
 0002:0002e6ec       __IMPORT_DESCRIPTOR_COREDLL 0009f6ec     coredll:COREDLL.dll
 0002:0002e700       __NULL_IMPORT_DESCRIPTOR   0009f700     coredll:COREDLL.dll
 0003:00000000       __imp_fflush               000a0000     coredll:COREDLL.dll
 0003:00000004       __imp_fprintf              000a0004     coredll:COREDLL.dll
 0003:00000008       __imp__getstdfilex         000a0008     coredll:COREDLL.dll
 0003:0000000c       __imp_puts                 000a000c     coredll:COREDLL.dll
 0003:00000010       __imp_strcmp               000a0010     coredll:COREDLL.dll
 0003:00000014       __imp_memcpy               000a0014     coredll:COREDLL.dll
 0003:00000018       __imp_memset               000a0018     coredll:COREDLL.dll
 0003:0000001c       __imp_strlen               000a001c     coredll:COREDLL.dll
 0003:00000020       __imp___rt_udiv            000a0020     coredll:COREDLL.dll
 0003:00000024       __imp__isctype             000a0024     coredll:COREDLL.dll
 0003:00000028       __imp_free                 000a0028     coredll:COREDLL.dll
 0003:0000002c       __imp_realloc              000a002c     coredll:COREDLL.dll
 0003:00000030       __imp_malloc               000a0030     coredll:COREDLL.dll
 0003:00000034       __imp_strcpy               000a0034     coredll:COREDLL.dll
 0003:00000038       __imp_memcmp               000a0038     coredll:COREDLL.dll
 0003:0000003c       __imp_strncpy              000a003c     coredll:COREDLL.dll
 0003:00000040       __imp_strchr               000a0040     coredll:COREDLL.dll
 0003:00000044       __imp_memchr               000a0044     coredll:COREDLL.dll
 0003:00000048       __imp___rt_udiv64by64      000a0048     coredll:COREDLL.dll
 0003:0000004c       __imp___ltd                000a004c     coredll:COREDLL.dll
 0003:00000050       __imp___negd               000a0050     coredll:COREDLL.dll
 0003:00000054       __imp___muld               000a0054     coredll:COREDLL.dll
 0003:00000058       __imp___dtoi               000a0058     coredll:COREDLL.dll
 0003:0000005c       __imp___itod               000a005c     coredll:COREDLL.dll
 0003:00000060       __imp___subd               000a0060     coredll:COREDLL.dll
 0003:00000064       __imp___ged                000a0064     coredll:COREDLL.dll
 0003:00000068       __imp___rt_urem64by64      000a0068     coredll:COREDLL.dll
 0003:0000006c       __imp_MessageBoxW          000a006c     coredll:COREDLL.dll
 0003:00000070       __imp__vsnwprintf          000a0070     coredll:COREDLL.dll
 0003:00000074       __imp_MultiByteToWideChar  000a0074     coredll:COREDLL.dll
 0003:00000078       __imp_fclose               000a0078     coredll:COREDLL.dll
 0003:0000007c       __imp_GetLastError         000a007c     coredll:COREDLL.dll
 0003:00000080       __imp_ferror               000a0080     coredll:COREDLL.dll
 0003:00000084       __imp_fread                000a0084     coredll:COREDLL.dll
 0003:00000088       __imp_fwrite               000a0088     coredll:COREDLL.dll
 0003:0000008c       __imp__setmode             000a008c     coredll:COREDLL.dll
 0003:00000090       __imp__fileno              000a0090     coredll:COREDLL.dll
 0003:00000094       __imp_fopen                000a0094     coredll:COREDLL.dll
 0003:00000098       __imp_fseek                000a0098     coredll:COREDLL.dll
 0003:0000009c       __imp_ftell                000a009c     coredll:COREDLL.dll
 0003:000000a0       __imp_feof                 000a00a0     coredll:COREDLL.dll
 0003:000000a4       __imp_strcat               000a00a4     coredll:COREDLL.dll
 0003:000000a8       __imp_fgets                000a00a8     coredll:COREDLL.dll
 0003:000000ac       __imp__wfopen              000a00ac     coredll:COREDLL.dll
 0003:000000b0       __imp___rt_sdiv            000a00b0     coredll:COREDLL.dll
 0003:000000b4       __imp_qsort                000a00b4     coredll:COREDLL.dll
 0003:000000b8       __imp__strnicmp            000a00b8     coredll:COREDLL.dll
 0003:000000bc       __imp___addd               000a00bc     coredll:COREDLL.dll
 0003:000000c0       __imp_GetTickCount         000a00c0     coredll:COREDLL.dll
 0003:000000c4       __imp_QueryPerformanceCounter 000a00c4     coredll:COREDLL.dll
 0003:000000c8       __imp_GlobalMemoryStatus   000a00c8     coredll:COREDLL.dll
 0003:000000cc       __imp_CryptReleaseContext  000a00cc     coredll:COREDLL.dll
 0003:000000d0       __imp_CryptGenRandom       000a00d0     coredll:COREDLL.dll
 0003:000000d4       __imp_CryptAcquireContextW 000a00d4     coredll:COREDLL.dll
 0003:000000d8       __imp_GetVersionExW        000a00d8     coredll:COREDLL.dll
 0003:000000dc       __imp_atoi                 000a00dc     coredll:COREDLL.dll
 0003:000000e0       __imp_tolower              000a00e0     coredll:COREDLL.dll
 0003:000000e4       __imp_strncmp              000a00e4     coredll:COREDLL.dll
 0003:000000e8       __imp_sscanf               000a00e8     coredll:COREDLL.dll
 0003:000000ec       __imp_strrchr              000a00ec     coredll:COREDLL.dll
 0003:000000f0       __imp__stricmp             000a00f0     coredll:COREDLL.dll
 0003:000000f4       __imp_memmove              000a00f4     coredll:COREDLL.dll
 0003:000000f8       __imp_strtoul              000a00f8     coredll:COREDLL.dll
 0003:000000fc       __imp_LoadLibraryW         000a00fc     coredll:COREDLL.dll
 0003:00000100       __imp_SetLastError         000a0100     coredll:COREDLL.dll
 0003:00000104       __imp_FreeLibrary          000a0104     coredll:COREDLL.dll
 0003:00000108       __imp_GetProcAddressA      000a0108     coredll:COREDLL.dll
 0003:0000010c       __imp_sprintf              000a010c     coredll:COREDLL.dll
 0003:00000110       __imp_strstr               000a0110     coredll:COREDLL.dll
 0003:00000114       __imp_WideCharToMultiByte  000a0114     coredll:COREDLL.dll
 0003:00000118       __imp_fputs                000a0118     coredll:COREDLL.dll
 0003:0000011c       __imp_SystemTimeToFileTime 000a011c     coredll:COREDLL.dll
 0003:00000120       __imp_GetSystemTime        000a0120     coredll:COREDLL.dll
 0003:00000124       __imp_GetTimeZoneInformation 000a0124     coredll:COREDLL.dll
 0003:00000128       __imp_FileTimeToSystemTime 000a0128     coredll:COREDLL.dll
 0003:0000012c       __imp_FileTimeToLocalFileTime 000a012c     coredll:COREDLL.dll
 0003:00000130       __imp_LocalFree            000a0130     coredll:COREDLL.dll
 0003:00000134       __imp__XcptFilter          000a0134     coredll:COREDLL.dll
 0003:00000138       __imp___C_specific_handler 000a0138     coredll:COREDLL.dll
 0003:0000013c       __imp_FindFirstFileW       000a013c     coredll:COREDLL.dll
 0003:00000140       __imp_FindClose            000a0140     coredll:COREDLL.dll
 0003:00000144       __imp_FindNextFileW        000a0144     coredll:COREDLL.dll
 0003:00000148       __imp_GetModuleFileNameW   000a0148     coredll:COREDLL.dll
 0003:0000014c       \177COREDLL_NULL_THUNK_DATA 000a014c     coredll:COREDLL.dll
 0003:00000150       __xc_a                     000a0150     corelibc:crt0init.obj
 0003:00000154       __xc_z                     000a0154     corelibc:crt0init.obj
 0003:00000158       __xi_a                     000a0158     corelibc:crt0init.obj
 0003:0000015c       __xi_z                     000a015c     corelibc:crt0init.obj
 0003:00000160       __xp_a                     000a0160     corelibc:crt0init.obj
 0003:00000164       __xp_z                     000a0164     corelibc:crt0init.obj
 0003:00000168       __xt_a                     000a0168     corelibc:crt0init.obj
 0003:0000016c       __xt_z                     000a016c     corelibc:crt0init.obj
 0003:0000046c       rand_ssleay_meth           000a046c     libeay32:md_rand.obj
 0003:000042e0       default_pctx               000a42e0     libeay32:tasn_prn.obj
 0003:00004c00       ?messages@@3PAPADA         000a4c00     wcecompatex:string_extras.obj
 0003:00004ef8       obj_cleanup_defer          000a4ef8     libeay32:obj_dat.obj
 0003:000065c0       cleanse_ctr                000a65c0     libeay32:mem_clr.obj
 0003:000065c8       OPENSSL_NONPIC_relocated   000a65c8     libeay32:cryptlib.obj
 0003:00006a7c       app_pkey_methods           000a6a7c     libeay32:pmeth_lib.obj
 0003:00006c74       _environ                   000a6c74     wcecompatex:env.obj
 0003:00006c78       _wenviron                  000a6c78     wcecompatex:env.obj
 0003:00006c7c       ?num_env_vars@@3HA         000a6c7c     wcecompatex:env.obj
 0003:00006cc0       errno                      000a6cc0     wcecompatex:errno.obj
 0003:00006cc4       ?_timezone@@3HA            000a6cc4     wcecompatex:timeb.obj
 0003:00006cc8       ?altzone@@3HA              000a6cc8     wcecompatex:timeb.obj
 0003:00006ccc       ?timezone@@3HA             000a6ccc     wcecompatex:timeb.obj
 0003:00006cd0       sigx_app                   000a6cd0     <common>
 0003:00006cd4       sig_app                    000a6cd4     <common>
 0003:00006cd8       __onexitend                000a6cd8     <common>
 0003:00006cdc       __onexitbegin              000a6cdc     <common>
 0003:00006ce0       _exitflag                  000a6ce0     <common>

 entry point at        0001:0005e948

 Static symbols

 0001:00000000       group_order_tests          00011000 f   ectest.obj
 0001:00000644       prime_field_tests          00011644 f   ectest.obj
 0001:00004418       char2_field_tests          00015418 f   ectest.obj
 0001:00008ed8       internal_curve_test        00019ed8 f   ectest.obj
 0001:00009170       BN_POOL_get                0001a170 f   libeay32:bn_ctx.obj
 0001:00009720       bn_expand_internal         0001a720 f   libeay32:bn_lib.obj
 0001:0000c064       print_fp                   0001d064 f   libeay32:err_prn.obj
 0001:0000c0d4       bnrand                     0001d0d4 f   libeay32:bn_rand.obj
 0001:0000c33c       bn_rand_range              0001d33c f   libeay32:bn_rand.obj
 0001:0000c9c8       witness                    0001d9c8 f   libeay32:bn_prime.obj
 0001:0000cad4       probable_prime_dh          0001dad4 f   libeay32:bn_prime.obj
 0001:0000cbf8       probable_prime_dh_safe     0001dbf8 f   libeay32:bn_prime.obj
 0001:0000f634       default_malloc_ex          00020634 f   libeay32:mem.obj
 0001:0000f654       default_realloc_ex         00020654 f   libeay32:mem.obj
 0001:0000f674       default_malloc_locked_ex   00020674 f   libeay32:mem.obj
 0001:0000fc98       sn_cmp_BSEARCH_CMP_FN      00020c98 f   libeay32:obj_dat.obj
 0001:0000fcc4       ln_cmp_BSEARCH_CMP_FN      00020cc4 f   libeay32:obj_dat.obj
 0001:0000ffa0       obj_cmp_BSEARCH_CMP_FN     00020fa0 f   libeay32:obj_dat.obj
 0001:00010708       ec_group_new_from_data     00021708 f   libeay32:ec_curve.obj
 0001:00010c34       app_info_free              00021c34 f   libeay32:mem_dbg.obj
 0001:00010e98       mem_LHASH_COMP             00021e98 f   libeay32:mem_dbg.obj
 0001:00010ea8       mem_LHASH_HASH             00021ea8 f   libeay32:mem_dbg.obj
 0001:00010edc       app_info_LHASH_COMP        00021edc f   libeay32:mem_dbg.obj
 0001:00010eec       app_info_LHASH_HASH        00021eec f   libeay32:mem_dbg.obj
 0001:00010f24       pop_info                   00021f24 f   libeay32:mem_dbg.obj
 0001:000113c4       print_leak_doall_arg       000223c4 f   libeay32:mem_dbg.obj
 0001:00011604       print_leak_LHASH_DOALL_ARG 00022604 f   libeay32:mem_dbg.obj
 0001:0001179c       err_fns_check              0002279c f   libeay32:err.obj
 0001:00011804       err_string_data_LHASH_HASH 00022804 f   libeay32:err.obj
 0001:00011850       err_string_data_LHASH_COMP 00022850 f   libeay32:err.obj
 0001:00011860       int_err_get                00022860 f   libeay32:err.obj
 0001:0001190c       int_err_del                0002290c f   libeay32:err.obj
 0001:00011968       int_err_get_item           00022968 f   libeay32:err.obj
 0001:000119ec       int_err_set_item           000229ec f   libeay32:err.obj
 0001:00011a6c       int_err_del_item           00022a6c f   libeay32:err.obj
 0001:00011af0       err_state_LHASH_HASH       00022af0 f   libeay32:err.obj
 0001:00011b08       err_state_LHASH_COMP       00022b08 f   libeay32:err.obj
 0001:00011b18       int_thread_get             00022b18 f   libeay32:err.obj
 0001:00011bd0       int_thread_release         00022bd0 f   libeay32:err.obj
 0001:00011c2c       int_thread_get_item        00022c2c f   libeay32:err.obj
 0001:00011cd0       int_thread_set_item        00022cd0 f   libeay32:err.obj
 0001:00011d74       int_err_get_next_lib       00022d74 f   libeay32:err.obj
 0001:00011dcc       ERR_STATE_free             00022dcc f   libeay32:err.obj
 0001:00011e24       err_load_strings           00022e24 f   libeay32:err.obj
 0001:0001238c       int_thread_del_item        0002338c f   libeay32:err.obj
 0001:00012778       get_error_values           00023778 f   libeay32:err.obj
 0001:00012a98       impl_check                 00023a98 f   libeay32:ex_data.obj
 0001:00012aec       ex_class_item_LHASH_HASH   00023aec f   libeay32:ex_data.obj
 0001:00012af4       ex_class_item_LHASH_COMP   00023af4 f   libeay32:ex_data.obj
 0001:00012b04       ex_data_check              00023b04 f   libeay32:ex_data.obj
 0001:00012b80       def_cleanup_util_cb        00023b80 f   libeay32:ex_data.obj
 0001:00012b90       def_cleanup_cb             00023b90 f   libeay32:ex_data.obj
 0001:00012bb8       def_get_class              00023bb8 f   libeay32:ex_data.obj
 0001:00012cb4       def_add_index              00023cb4 f   libeay32:ex_data.obj
 0001:00012de8       int_new_class              00023de8 f   libeay32:ex_data.obj
 0001:00012e40       int_cleanup                00023e40 f   libeay32:ex_data.obj
 0001:00012e94       int_get_new_index          00023e94 f   libeay32:ex_data.obj
 0001:000130c8       int_new_ex_data            000240c8 f   libeay32:ex_data.obj
 0001:00013244       int_dup_ex_data            00024244 f   libeay32:ex_data.obj
 0001:000133ec       int_free_ex_data           000243ec f   libeay32:ex_data.obj
 0001:00013644       engine_cleanup_cb_free     00024644 f   libeay32:eng_lib.obj
 0001:0001395c       ec_pre_comp_dup            0002495c f   libeay32:ec_mult.obj
 0001:00013998       ec_pre_comp_free           00024998 f   libeay32:ec_mult.obj
 0001:00013a14       ec_pre_comp_clear_free     00024a14 f   libeay32:ec_mult.obj
 0001:00013aa8       compute_wNAF               00024aa8 f   libeay32:ec_mult.obj
 0001:00015010       roundv                     00026010 f   libeay32:b_print.obj
 0001:000150a0       doapr_outch                000260a0 f   libeay32:b_print.obj
 0001:00015194       fmtstr                     00026194 f   libeay32:b_print.obj
 0001:000152c4       fmtint                     000262c4 f   libeay32:b_print.obj
 0001:00015604       fmtfp                      00026604 f   libeay32:b_print.obj
 0001:00015af4       _dopr                      00026af4 f   libeay32:b_print.obj
 0001:000171fc       file_new                   000281fc f   libeay32:bss_file.obj
 0001:00017218       file_free                  00028218 f   libeay32:bss_file.obj
 0001:00017274       file_read                  00028274 f   libeay32:bss_file.obj
 0001:00017314       file_write                 00028314 f   libeay32:bss_file.obj
 0001:00017360       file_ctrl                  00028360 f   libeay32:bss_file.obj
 0001:000175f4       file_gets                  000285f4 f   libeay32:bss_file.obj
 0001:00017648       file_puts                  00028648 f   libeay32:bss_file.obj
 0001:00017fb4       MOD_EXP_CTIME_COPY_FROM_PREBUF 00028fb4 f   libeay32:bn_exp.obj
 0001:000198b0       BN_from_montgomery_word    0002a8b0 f   libeay32:bn_mont.obj
 0001:0001db10       gf2m_Mdouble               0002eb10 f   libeay32:ec2_mult.obj
 0001:0001dc6c       gf2m_Madd                  0002ec6c f   libeay32:ec2_mult.obj
 0001:0001dde4       gf2m_Mxy                   0002ede4 f   libeay32:ec2_mult.obj
 0001:0001e190       ec_GF2m_montgomery_point_multiply 0002f190 f   libeay32:ec2_mult.obj
 0001:0001e72c       bn_GF2m_mul_1x1            0002f72c f   libeay32:bn_gf2m.obj
 0001:0001fd20       expand                     00030d20 f   libeay32:lhash.obj
 0001:0001fe58       contract                   00030e58 f   libeay32:lhash.obj
 0001:0001ff50       getrn                      00030f50 f   libeay32:lhash.obj
 0001:00020e74       asn1_get_length            00031e74 f   libeay32:asn1_lib.obj
 0001:00021960       internal_find              00032960 f   libeay32:stack.obj
 0001:00021b3c       look_str_cb                00032b3c f   libeay32:tb_asnmth.obj
 0001:00022044       ssleay_rand_cleanup        00033044 f   libeay32:md_rand.obj
 0001:000220ac       ssleay_rand_add            000330ac f   libeay32:md_rand.obj
 0001:00022444       ssleay_rand_seed           00033444 f   libeay32:md_rand.obj
 0001:00022484       ssleay_rand_bytes          00033484 f   libeay32:md_rand.obj
 0001:000228c0       ssleay_rand_nopseudo_bytes 000338c0 f   libeay32:md_rand.obj
 0001:000228d4       ssleay_rand_pseudo_bytes   000338d4 f   libeay32:md_rand.obj
 0001:000228e8       ssleay_rand_status         000338e8 f   libeay32:md_rand.obj
 0001:00023710       euclid                     00034710 f   libeay32:bn_gcd.obj
 0001:0002383c       BN_mod_inverse_no_branch   0003483c f   libeay32:bn_gcd.obj
 0001:000251f8       int_cb_LHASH_DOALL_ARG     000361f8 f   libeay32:eng_table.obj
 0001:00025258       ameth_cmp_BSEARCH_CMP_FN   00036258 f   libeay32:ameth_lib.obj
 0001:00025500       pmeth_cmp_BSEARCH_CMP_FN   00036500 f   libeay32:pmeth_lib.obj
 0001:000260ac       init                       000370ac f   libeay32:m_sha1.obj
 0001:000260c0       update                     000370c0 f   libeay32:m_sha1.obj
 0001:000260d4       final                      000370d4 f   libeay32:m_sha1.obj
 0001:000260fc       init224                    000370fc f   libeay32:m_sha1.obj
 0001:00026110       init256                    00037110 f   libeay32:m_sha1.obj
 0001:00026124       update256                  00037124 f   libeay32:m_sha1.obj
 0001:00026138       final256                   00037138 f   libeay32:m_sha1.obj
 0001:00026154       init384                    00037154 f   libeay32:m_sha1.obj
 0001:00026168       init512                    00037168 f   libeay32:m_sha1.obj
 0001:0002617c       update512                  0003717c f   libeay32:m_sha1.obj
 0001:00026190       final512                   00037190 f   libeay32:m_sha1.obj
 0001:000261ac       readtimer                  000371ac f   libeay32:rand_win.obj
 0001:0002633c       nist_cp_bn_0               0003733c f   libeay32:bn_nist.obj
 0001:0002761c       cmac_size                  0003861c f   libeay32:cm_ameth.obj
 0001:00027624       cmac_key_free              00038624 f   libeay32:cm_ameth.obj
 0001:00027640       hmac_size                  00038640 f   libeay32:hm_ameth.obj
 0001:00027648       hmac_key_free              00038648 f   libeay32:hm_ameth.obj
 0001:0002767c       hmac_pkey_ctrl             0003867c f   libeay32:hm_ameth.obj
 0001:00027694       old_hmac_decode            00038694 f   libeay32:hm_ameth.obj
 0001:000276f4       old_hmac_encode            000386f4 f   libeay32:hm_ameth.obj
 0001:00027764       eckey_param2type           00038764 f   libeay32:ec_ameth.obj
 0001:0002784c       eckey_pub_encode           0003884c f   libeay32:ec_ameth.obj
 0001:00027950       eckey_type2param           00038950 f   libeay32:ec_ameth.obj
 0001:00027a5c       eckey_pub_decode           00038a5c f   libeay32:ec_ameth.obj
 0001:00027b58       eckey_pub_cmp              00038b58 f   libeay32:ec_ameth.obj
 0001:00027bc0       eckey_priv_decode          00038bc0 f   libeay32:ec_ameth.obj
 0001:00027de8       eckey_priv_encode          00038de8 f   libeay32:ec_ameth.obj
 0001:00027f80       int_ec_size                00038f80 f   libeay32:ec_ameth.obj
 0001:00027f94       ec_bits                    00038f94 f   libeay32:ec_ameth.obj
 0001:00027ff0       ec_missing_parameters      00038ff0 f   libeay32:ec_ameth.obj
 0001:00028014       ec_copy_parameters         00039014 f   libeay32:ec_ameth.obj
 0001:00028064       ec_cmp_parameters          00039064 f   libeay32:ec_ameth.obj
 0001:000280a8       int_ec_free                000390a8 f   libeay32:ec_ameth.obj
 0001:000280bc       do_EC_KEY_print            000390bc f   libeay32:ec_ameth.obj
 0001:00028350       eckey_param_decode         00039350 f   libeay32:ec_ameth.obj
 0001:000283b4       eckey_param_encode         000393b4 f   libeay32:ec_ameth.obj
 0001:000283c8       eckey_param_print          000393c8 f   libeay32:ec_ameth.obj
 0001:000283e0       eckey_pub_print            000393e0 f   libeay32:ec_ameth.obj
 0001:000283f8       eckey_priv_print           000393f8 f   libeay32:ec_ameth.obj
 0001:00028410       old_ec_priv_decode         00039410 f   libeay32:ec_ameth.obj
 0001:00028478       old_ec_priv_encode         00039478 f   libeay32:ec_ameth.obj
 0001:0002848c       ec_pkey_ctrl               0003948c f   libeay32:ec_ameth.obj
 0001:000285e0       dsa_pub_decode             000395e0 f   libeay32:dsa_ameth.obj
 0001:0002878c       dsa_pub_encode             0003978c f   libeay32:dsa_ameth.obj
 0001:000288c8       dsa_priv_decode            000398c8 f   libeay32:dsa_ameth.obj
 0001:00028bb4       dsa_priv_encode            00039bb4 f   libeay32:dsa_ameth.obj
 0001:00028d0c       int_dsa_size               00039d0c f   libeay32:dsa_ameth.obj
 0001:00028d20       dsa_bits                   00039d20 f   libeay32:dsa_ameth.obj
 0001:00028d38       dsa_missing_parameters     00039d38 f   libeay32:dsa_ameth.obj
 0001:00028d68       dsa_copy_parameters        00039d68 f   libeay32:dsa_ameth.obj
 0001:00028e1c       dsa_cmp_parameters         00039e1c f   libeay32:dsa_ameth.obj
 0001:00028e90       dsa_pub_cmp                00039e90 f   libeay32:dsa_ameth.obj
 0001:00028ec0       int_dsa_free               00039ec0 f   libeay32:dsa_ameth.obj
 0001:00028ed4       do_dsa_print               00039ed4 f   libeay32:dsa_ameth.obj
 0001:0002915c       dsa_param_decode           0003a15c f   libeay32:dsa_ameth.obj
 0001:000291c0       dsa_param_encode           0003a1c0 f   libeay32:dsa_ameth.obj
 0001:000291d4       dsa_param_print            0003a1d4 f   libeay32:dsa_ameth.obj
 0001:000291ec       dsa_pub_print              0003a1ec f   libeay32:dsa_ameth.obj
 0001:00029204       dsa_priv_print             0003a204 f   libeay32:dsa_ameth.obj
 0001:0002921c       old_dsa_priv_decode        0003a21c f   libeay32:dsa_ameth.obj
 0001:00029284       old_dsa_priv_encode        0003a284 f   libeay32:dsa_ameth.obj
 0001:00029298       dsa_sig_print              0003a298 f   libeay32:dsa_ameth.obj
 0001:00029428       dsa_pkey_ctrl              0003a428 f   libeay32:dsa_ameth.obj
 0001:0002957c       int_dh_free                0003a57c f   libeay32:dh_ameth.obj
 0001:00029590       dh_pub_decode              0003a590 f   libeay32:dh_ameth.obj
 0001:00029700       dh_pub_encode              0003a700 f   libeay32:dh_ameth.obj
 0001:00029814       dh_priv_decode             0003a814 f   libeay32:dh_ameth.obj
 0001:00029948       dh_priv_encode             0003a948 f   libeay32:dh_ameth.obj
 0001:00029a94       dh_param_decode            0003aa94 f   libeay32:dh_ameth.obj
 0001:00029af8       dh_param_encode            0003aaf8 f   libeay32:dh_ameth.obj
 0001:00029b0c       do_dh_print                0003ab0c f   libeay32:dh_ameth.obj
 0001:00029d98       int_dh_size                0003ad98 f   libeay32:dh_ameth.obj
 0001:00029dac       dh_bits                    0003adac f   libeay32:dh_ameth.obj
 0001:00029dc4       dh_cmp_parameters          0003adc4 f   libeay32:dh_ameth.obj
 0001:00029e1c       dh_copy_parameters         0003ae1c f   libeay32:dh_ameth.obj
 0001:00029ea0       dh_missing_parameters      0003aea0 f   libeay32:dh_ameth.obj
 0001:00029ec0       dh_pub_cmp                 0003aec0 f   libeay32:dh_ameth.obj
 0001:00029f0c       dh_param_print             0003af0c f   libeay32:dh_ameth.obj
 0001:00029f30       dh_public_print            0003af30 f   libeay32:dh_ameth.obj
 0001:00029f54       dh_private_print           0003af54 f   libeay32:dh_ameth.obj
 0001:00029f78       rsa_pub_encode             0003af78 f   libeay32:rsa_ameth.obj
 0001:00029ff0       rsa_pub_decode             0003aff0 f   libeay32:rsa_ameth.obj
 0001:0002a080       rsa_pub_cmp                0003b080 f   libeay32:rsa_ameth.obj
 0001:0002a0d8       old_rsa_priv_decode        0003b0d8 f   libeay32:rsa_ameth.obj
 0001:0002a13c       old_rsa_priv_encode        0003b13c f   libeay32:rsa_ameth.obj
 0001:0002a150       rsa_priv_encode            0003b150 f   libeay32:rsa_ameth.obj
 0001:0002a210       rsa_priv_decode            0003b210 f   libeay32:rsa_ameth.obj
 0001:0002a25c       int_rsa_size               0003b25c f   libeay32:rsa_ameth.obj
 0001:0002a270       rsa_bits                   0003b270 f   libeay32:rsa_ameth.obj
 0001:0002a288       int_rsa_free               0003b288 f   libeay32:rsa_ameth.obj
 0001:0002a29c       do_rsa_print               0003b29c f   libeay32:rsa_ameth.obj
 0001:0002a638       rsa_pub_print              0003b638 f   libeay32:rsa_ameth.obj
 0001:0002a650       rsa_priv_print             0003b650 f   libeay32:rsa_ameth.obj
 0001:0002a668       rsa_pss_decode             0003b668 f   libeay32:rsa_ameth.obj
 0001:0002a730       rsa_pss_param_print        0003b730 f   libeay32:rsa_ameth.obj
 0001:0002a984       rsa_sig_print              0003b984 f   libeay32:rsa_ameth.obj
 0001:0002aa4c       rsa_pkey_ctrl              0003ba4c f   libeay32:rsa_ameth.obj
 0001:0002ab3c       rsa_item_verify            0003bb3c f   libeay32:rsa_ameth.obj
 0001:0002ae0c       rsa_item_sign              0003be0c f   libeay32:rsa_ameth.obj
 0001:0002b0d4       pkey_cmac_init             0003c0d4 f   libeay32:cm_pmeth.obj
 0001:0002b104       pkey_cmac_copy             0003c104 f   libeay32:cm_pmeth.obj
 0001:0002b148       pkey_cmac_cleanup          0003c148 f   libeay32:cm_pmeth.obj
 0001:0002b15c       pkey_cmac_keygen           0003c15c f   libeay32:cm_pmeth.obj
 0001:0002b1bc       int_update                 0003c1bc f   libeay32:cm_pmeth.obj
 0001:0002b1e4       cmac_signctx_init          0003c1e4 f   libeay32:cm_pmeth.obj
 0001:0002b210       cmac_signctx               0003c210 f   libeay32:cm_pmeth.obj
 0001:0002b224       pkey_cmac_ctrl             0003c224 f   libeay32:cm_pmeth.obj
 0001:0002b2f8       pkey_cmac_ctrl_str         0003c2f8 f   libeay32:cm_pmeth.obj
 0001:0002b408       pkey_hmac_init             0003c408 f   libeay32:hm_pmeth.obj
 0001:0002b46c       pkey_hmac_copy             0003c46c f   libeay32:hm_pmeth.obj
 0001:0002b4f4       pkey_hmac_cleanup          0003c4f4 f   libeay32:hm_pmeth.obj
 0001:0002b540       pkey_hmac_keygen           0003c540 f   libeay32:hm_pmeth.obj
 0001:0002b594       int_update                 0003c594 f   libeay32:hm_pmeth.obj
 0001:0002b5c0       hmac_signctx_init          0003c5c0 f   libeay32:hm_pmeth.obj
 0001:0002b600       hmac_signctx               0003c600 f   libeay32:hm_pmeth.obj
 0001:0002b670       pkey_hmac_ctrl             0003c670 f   libeay32:hm_pmeth.obj
 0001:0002b708       pkey_hmac_ctrl_str         0003c708 f   libeay32:hm_pmeth.obj
 0001:0002b7c8       pkey_ec_init               0003c7c8 f   libeay32:ec_pmeth.obj
 0001:0002b80c       pkey_ec_copy               0003c80c f   libeay32:ec_pmeth.obj
 0001:0002b86c       pkey_ec_cleanup            0003c86c f   libeay32:ec_pmeth.obj
 0001:0002b89c       pkey_ec_sign               0003c89c f   libeay32:ec_pmeth.obj
 0001:0002b960       pkey_ec_verify             0003c960 f   libeay32:ec_pmeth.obj
 0001:0002b9c0       pkey_ec_derive             0003c9c0 f   libeay32:ec_pmeth.obj
 0001:0002ba88       pkey_ec_ctrl               0003ca88 f   libeay32:ec_pmeth.obj
 0001:0002bbd4       pkey_ec_ctrl_str           0003cbd4 f   libeay32:ec_pmeth.obj
 0001:0002bc80       pkey_ec_paramgen           0003cc80 f   libeay32:ec_pmeth.obj
 0001:0002bd14       pkey_ec_keygen             0003cd14 f   libeay32:ec_pmeth.obj
 0001:0002bda8       pkey_dsa_init              0003cda8 f   libeay32:dsa_pmeth.obj
 0001:0002be10       pkey_dsa_copy              0003ce10 f   libeay32:dsa_pmeth.obj
 0001:0002be64       pkey_dsa_cleanup           0003ce64 f   libeay32:dsa_pmeth.obj
 0001:0002be80       pkey_dsa_sign              0003ce80 f   libeay32:dsa_pmeth.obj
 0001:0002bef4       pkey_dsa_verify            0003cef4 f   libeay32:dsa_pmeth.obj
 0001:0002bf54       pkey_dsa_ctrl              0003cf54 f   libeay32:dsa_pmeth.obj
 0001:0002c14c       pkey_dsa_ctrl_str          0003d14c f   libeay32:dsa_pmeth.obj
 0001:0002c254       pkey_dsa_paramgen          0003d254 f   libeay32:dsa_pmeth.obj
 0001:0002c2fc       pkey_dsa_keygen            0003d2fc f   libeay32:dsa_pmeth.obj
 0001:0002c390       pkey_dh_init               0003d390 f   libeay32:dh_pmeth.obj
 0001:0002c3f0       pkey_dh_copy               0003d3f0 f   libeay32:dh_pmeth.obj
 0001:0002c43c       pkey_dh_cleanup            0003d43c f   libeay32:dh_pmeth.obj
 0001:0002c458       pkey_dh_ctrl               0003d458 f   libeay32:dh_pmeth.obj
 0001:0002c4ac       pkey_dh_ctrl_str           0003d4ac f   libeay32:dh_pmeth.obj
 0001:0002c568       pkey_dh_paramgen           0003d568 f   libeay32:dh_pmeth.obj
 0001:0002c5f4       pkey_dh_keygen             0003d5f4 f   libeay32:dh_pmeth.obj
 0001:0002c684       pkey_dh_derive             0003d684 f   libeay32:dh_pmeth.obj
 0001:0002c700       pkey_rsa_init              0003d700 f   libeay32:rsa_pmeth.obj
 0001:0002c778       pkey_rsa_copy              0003d778 f   libeay32:rsa_pmeth.obj
 0001:0002c7e8       setup_tbuf                 0003d7e8 f   libeay32:rsa_pmeth.obj
 0001:0002c834       pkey_rsa_cleanup           0003d834 f   libeay32:rsa_pmeth.obj
 0001:0002c874       pkey_rsa_sign              0003d874 f   libeay32:rsa_pmeth.obj
 0001:0002ca5c       pkey_rsa_verifyrecover     0003da5c f   libeay32:rsa_pmeth.obj
 0001:0002cc10       pkey_rsa_verify            0003dc10 f   libeay32:rsa_pmeth.obj
 0001:0002cd88       pkey_rsa_encrypt           0003dd88 f   libeay32:rsa_pmeth.obj
 0001:0002cdd4       pkey_rsa_decrypt           0003ddd4 f   libeay32:rsa_pmeth.obj
 0001:0002ce20       check_padding_md           0003de20 f   libeay32:rsa_pmeth.obj
 0001:0002ceb0       pkey_rsa_ctrl              0003deb0 f   libeay32:rsa_pmeth.obj
 0001:0002d1f0       pkey_rsa_ctrl_str          0003e1f0 f   libeay32:rsa_pmeth.obj
 0001:0002d468       pkey_rsa_keygen            0003e468 f   libeay32:rsa_pmeth.obj
 0001:0002d798       pkey_set_type              0003e798 f   libeay32:p_lib.obj
 0001:0002e508       sha1_block_data_order      0003f508 f   libeay32:sha1dgst.obj
 0001:0002ebdc       sha256_block_data_order    0003fbdc f   libeay32:sha256.obj
 0001:0002f36c       sha512_block_data_order    0004036c f   libeay32:sha512.obj
 0001:000308d8       X9_62_CHARACTERISTIC_TWO_adb 000418d8 f   libeay32:ec_asn1.obj
 0001:000308f0       X9_62_FIELDID_adb          000418f0 f   libeay32:ec_asn1.obj
 0001:0003092c       ec_asn1_group2fieldid      0004192c f   libeay32:ec_asn1.obj
 0001:00030ca0       ec_asn1_group2curve        00041ca0 f   libeay32:ec_asn1.obj
 0001:00031088       ec_asn1_group2parameters   00042088 f   libeay32:ec_asn1.obj
 0001:0003141c       ec_asn1_group2pkparameters 0004241c f   libeay32:ec_asn1.obj
 0001:0003151c       ec_asn1_parameters2group   0004251c f   libeay32:ec_asn1.obj
 0001:00031d18       ec_asn1_pkparameters2group 00042d18 f   libeay32:ec_asn1.obj
 0001:00032d7c       pubkey_cb                  00043d7c f   libeay32:x_pubkey.obj
 0001:000331b8       pkey_cb                    000441b8 f   libeay32:p8_pkey.obj
 0001:00033350       ecdsa_data_new             00044350 f   libeay32:ecs_lib.obj
 0001:00033444       ecdsa_data_dup             00044444 f   libeay32:ecs_lib.obj
 0001:00033464       ecdsa_data_free            00044464 f   libeay32:ecs_lib.obj
 0001:000335dc       print_bin                  000445dc f   libeay32:eck_prn.obj
 0001:000341e4       sig_cmp_BSEARCH_CMP_FN     000451e4 f   libeay32:obj_xref.obj
 0001:000341f4       sigx_cmp_BSEARCH_CMP_FN    000451f4 f   libeay32:obj_xref.obj
 0001:00034364       cms_get0_signed            00045364 f   libeay32:cms_sd.obj
 0001:000343b8       cms_sd_set_version         000453b8 f   libeay32:cms_sd.obj
 0001:00034874       cms_SignerInfo_content_sign 00045874 f   libeay32:cms_sd.obj
 0001:000355e4       sig_cb                     000465e4 f   libeay32:dsa_asn1.obj
 0001:00035678       dsa_cb                     00046678 f   libeay32:dsa_asn1.obj
 0001:00036104       dh_cb                      00047104 f   libeay32:dh_asn1.obj
 0001:000361d4       generate_key               000471d4 f   libeay32:dh_key.obj
 0001:000363ec       compute_key                000473ec f   libeay32:dh_key.obj
 0001:000365a4       dh_bn_mod_exp              000475a4 f   libeay32:dh_key.obj
 0001:0003662c       dh_init                    0004762c f   libeay32:dh_key.obj
 0001:00036644       dh_finish                  00047644 f   libeay32:dh_key.obj
 0001:00036664       rsa_cb                     00047664 f   libeay32:rsa_asn1.obj
 0001:00036848       rsa_get_public_exp         00047848 f   libeay32:rsa_crpt.obj
 0001:00036ff0       cms_RecipientInfo_ktri_encrypt 00047ff0 f   libeay32:cms_env.obj
 0001:0003717c       cms_RecipientInfo_kekri_encrypt 0004817c f   libeay32:cms_env.obj
 0001:00037434       do_sigver_init             00048434 f   libeay32:m_sigver.obj
 0001:00037f34       strip_spaces               00048f34 f   libeay32:v3_utl.obj
 0001:000382ac       ipv4_from_asc              000492ac f   libeay32:v3_utl.obj
 0001:0003864c       ipv6_cb                    0004964c f   libeay32:v3_utl.obj
 0001:0003875c       ipv6_from_asc              0004975c f   libeay32:v3_utl.obj
 0001:000398d0       trans_cb                   0004a8d0 f   libeay32:pmeth_gn.obj
 0001:00039920       dsa_builtin_keygen         0004a920 f   libeay32:dsa_key.obj
 0001:00039a88       dh_builtin_genparams       0004aa88 f   libeay32:dh_gen.obj
 0001:0003a954       rsa_builtin_keygen         0004b954 f   libeay32:rsa_gen.obj
 0001:0003b044       obj_name_LHASH_HASH        0004c044 f   libeay32:o_names.obj
 0001:0003b0a4       obj_name_LHASH_COMP        0004c0a4 f   libeay32:o_names.obj
 0001:0003b22c       pbe2_cmp_BSEARCH_CMP_FN    0004c22c f   libeay32:evp_pbe.obj
 0001:0003c894       asn1_check_tlen            0004d894 f   libeay32:tasn_dec.obj
 0001:0003ca94       asn1_template_ex_d2i       0004da94 f   libeay32:tasn_dec.obj
 0001:0003ccb0       asn1_find_end              0004dcb0 f   libeay32:tasn_dec.obj
 0001:0003ce04       asn1_collect               0004de04 f   libeay32:tasn_dec.obj
 0001:0003d060       asn1_d2i_ex_primitive      0004e060 f   libeay32:tasn_dec.obj
 0001:0003de28       asn1_template_noexp_d2i    0004ee28 f   libeay32:tasn_dec.obj
 0001:0003e244       asn1_template_ex_i2d       0004f244 f   libeay32:tasn_enc.obj
 0001:0003e564       der_cmp                    0004f564 f   libeay32:tasn_enc.obj
 0001:0003e784       asn1_i2d_ex_primitive      0004f784 f   libeay32:tasn_enc.obj
 0001:0003ec5c       asn1_set_seq_out           0004fc5c f   libeay32:tasn_enc.obj
 0001:0003eea4       asn1_item_flags_i2d        0004fea4 f   libeay32:tasn_enc.obj
 0001:0003f098       asn1_item_ex_combine_new   00050098 f   libeay32:tasn_new.obj
 0001:0003f378       asn1_item_clear            00050378 f   libeay32:tasn_new.obj
 0001:0003f6c8       asn1_item_combine_free     000506c8 f   libeay32:tasn_fre.obj
 0001:0003fa44       long_new                   00050a44 f   libeay32:x_long.obj
 0001:0003fa58       long_free                  00050a58 f   libeay32:x_long.obj
 0001:0003fa64       long_i2c                   00050a64 f   libeay32:x_long.obj
 0001:0003fb1c       long_c2i                   00050b1c f   libeay32:x_long.obj
 0001:0003fc10       long_print                 00050c10 f   libeay32:x_long.obj
 0001:000400d0       ecdsa_sign_setup           000510d0 f   libeay32:ecs_ossl.obj
 0001:000404b8       ecdsa_do_sign              000514b8 f   libeay32:ecs_ossl.obj
 0001:000408a0       ecdsa_do_verify            000518a0 f   libeay32:ecs_ossl.obj
 0001:00040dac       PKCS7_adb                  00051dac f   libeay32:pk7_asn1.obj
 0001:00040db8       pk7_cb                     00051db8 f   libeay32:pk7_asn1.obj
 0001:00040e54       si_cb                      00051e54 f   libeay32:pk7_asn1.obj
 0001:00040e98       ri_cb                      00051e98 f   libeay32:pk7_asn1.obj
 0001:00040f0c       x509_cb                    00051f0c f   libeay32:x_x509.obj
 0001:00041038       crl_set_issuers            00052038 f   libeay32:x_crl.obj
 0001:000411c4       setup_idp                  000521c4 f   libeay32:x_crl.obj
 0001:000412c8       X509_REVOKED_cmp           000522c8 f   libeay32:x_crl.obj
 0001:000412e8       def_crl_verify             000522e8 f   libeay32:x_crl.obj
 0001:0004131c       def_crl_lookup             0005231c f   libeay32:x_crl.obj
 0001:000414a8       crl_inf_cb                 000524a8 f   libeay32:x_crl.obj
 0001:000414e4       crl_cb                     000524e4 f   libeay32:x_crl.obj
 0001:000418f8       x509_name_ex_new           000528f8 f   libeay32:x_name.obj
 0001:000419ac       x509_name_ex_free          000529ac f   libeay32:x_name.obj
 0001:00041a04       local_sk_X509_NAME_ENTRY_free 00052a04 f   libeay32:x_name.obj
 0001:00041a14       local_sk_X509_NAME_ENTRY_pop_free 00052a14 f   libeay32:x_name.obj
 0001:00041a2c       x509_name_encode           00052a2c f   libeay32:x_name.obj
 0001:00041b94       x509_name_ex_print         00052b94 f   libeay32:x_name.obj
 0001:00041bc0       asn1_string_canon          00052bc0 f   libeay32:x_name.obj
 0001:00041d2c       i2d_name_canon             00052d2c f   libeay32:x_name.obj
 0001:00041db8       x509_name_canon            00052db8 f   libeay32:x_name.obj
 0001:00041f3c       x509_name_ex_d2i           00052f3c f   libeay32:x_name.obj
 0001:000420f8       x509_name_ex_i2d           000530f8 f   libeay32:x_name.obj
 0001:000421a4       cms_si_cb                  000531a4 f   libeay32:cms_asn1.obj
 0001:000422b8       cms_ri_cb                  000532b8 f   libeay32:cms_asn1.obj
 0001:00042388       CMS_ContentInfo_adb        00053388 f   libeay32:cms_asn1.obj
 0001:00042394       cms_cb                     00053394 f   libeay32:cms_asn1.obj
 0001:000424dc       nid_cmp_BSEARCH_CMP_FN     000534dc f   libeay32:v3_purp.obj
 0001:00042548       setup_crldp                00053548 f   libeay32:v3_purp.obj
 0001:0004267c       x509v3_cache_extensions    0005367c f   libeay32:v3_purp.obj
 0001:00042b60       check_ca                   00053b60 f   libeay32:v3_purp.obj
 0001:00042bc8       check_purpose_ssl_client   00053bc8 f   libeay32:v3_purp.obj
 0001:00042c58       check_purpose_ssl_server   00053c58 f   libeay32:v3_purp.obj
 0001:00042ce8       check_purpose_ns_ssl_server 00053ce8 f   libeay32:v3_purp.obj
 0001:00042d28       purpose_smime              00053d28 f   libeay32:v3_purp.obj
 0001:00042db4       check_purpose_smime_sign   00053db4 f   libeay32:v3_purp.obj
 0001:00042dfc       check_purpose_smime_encrypt 00053dfc f   libeay32:v3_purp.obj
 0001:00042e44       check_purpose_crl_sign     00053e44 f   libeay32:v3_purp.obj
 0001:00042e98       ocsp_helper                00053e98 f   libeay32:v3_purp.obj
 0001:00042ec0       check_purpose_timestamp_sign 00053ec0 f   libeay32:v3_purp.obj
 0001:00042f5c       no_check                   00053f5c f   libeay32:v3_purp.obj
 0001:00043964       dsa_do_sign                00054964 f   libeay32:dsa_ossl.obj
 0001:00043bb4       dsa_sign_setup             00054bb4 f   libeay32:dsa_ossl.obj
 0001:00043e50       dsa_do_verify              00054e50 f   libeay32:dsa_ossl.obj
 0001:00044168       dsa_init                   00055168 f   libeay32:dsa_ossl.obj
 0001:00044180       dsa_finish                 00055180 f   libeay32:dsa_ossl.obj
 0001:000441dc       bn_new                     000551dc f   libeay32:x_bignum.obj
 0001:00044204       bn_free                    00055204 f   libeay32:x_bignum.obj
 0001:00044240       bn_i2c                     00055240 f   libeay32:x_bignum.obj
 0001:000442b0       bn_c2i                     000552b0 f   libeay32:x_bignum.obj
 0001:000446dc       send_bio_chars             000556dc f   libeay32:a_strex.obj
 0001:0004470c       do_esc_char                0005570c f   libeay32:a_strex.obj
 0001:000448f8       do_buf                     000558f8 f   libeay32:a_strex.obj
 0001:00044aa4       do_hex_dump                00055aa4 f   libeay32:a_strex.obj
 0001:00044b30       do_dump                    00055b30 f   libeay32:a_strex.obj
 0001:00044c1c       do_print_ex                00055c1c f   libeay32:a_strex.obj
 0001:00044dec       do_indent                  00055dec f   libeay32:a_strex.obj
 0001:00044e4c       do_name_ex                 00055e4c f   libeay32:a_strex.obj
 0001:00045920       RSA_eay_public_encrypt     00056920 f   libeay32:rsa_eay.obj
 0001:00045c70       rsa_get_blinding           00056c70 f   libeay32:rsa_eay.obj
 0001:00045de0       rsa_blinding_convert       00056de0 f   libeay32:rsa_eay.obj
 0001:00045e68       RSA_eay_private_encrypt    00056e68 f   libeay32:rsa_eay.obj
 0001:000462d4       RSA_eay_private_decrypt    000572d4 f   libeay32:rsa_eay.obj
 0001:00046744       RSA_eay_public_decrypt     00057744 f   libeay32:rsa_eay.obj
 0001:00046abc       RSA_eay_mod_exp            00057abc f   libeay32:rsa_eay.obj
 0001:000470d8       RSA_eay_init               000580d8 f   libeay32:rsa_eay.obj
 0001:000470f0       RSA_eay_finish             000580f0 f   libeay32:rsa_eay.obj
 0001:00047af0       kek_unwrap_key             00058af0 f   libeay32:cms_pwri.obj
 0001:00047c74       kek_wrap_key               00058c74 f   libeay32:cms_pwri.obj
 0001:00048888       i2v_AUTHORITY_INFO_ACCESS  00059888 f   libeay32:v3_info.obj
 0001:000489c4       v2i_AUTHORITY_INFO_ACCESS  000599c4 f   libeay32:v3_info.obj
 0001:00048e3c       ext_cmp_BSEARCH_CMP_FN     00059e3c f   libeay32:v3_lib.obj
 0001:000490d0       ecdh_data_new              0005a0d0 f   libeay32:ech_lib.obj
 0001:000491c4       ecdh_data_dup              0005a1c4 f   libeay32:ech_lib.obj
 0001:000491e4       ecdh_data_free             0005a1e4 f   libeay32:ech_lib.obj
 0001:0004aa2c       PKCS7_get_octet_string     0005ba2c f   libeay32:pk7_doit.obj
 0001:0004aa8c       PKCS7_bio_add_digest       0005ba8c f   libeay32:pk7_doit.obj
 0001:0004ab80       pkcs7_encode_rinfo         0005bb80 f   libeay32:pk7_doit.obj
 0001:0004b140       PKCS7_find_digest          0005c140 f   libeay32:pk7_doit.obj
 0001:0004b3c4       get_attribute              0005c3c4 f   libeay32:pk7_doit.obj
 0001:0004b46c       add_attribute              0005c46c f   libeay32:pk7_doit.obj
 0001:0004b588       do_pkcs7_signed_attrib     0005c588 f   libeay32:pk7_doit.obj
 0001:0004baf4       v2i_NAME_CONSTRAINTS       0005caf4 f   libeay32:v3_ncons.obj
 0001:0004bca8       do_i2r_name_constraints    0005cca8 f   libeay32:v3_ncons.obj
 0001:0004be58       i2r_NAME_CONSTRAINTS       0005ce58 f   libeay32:v3_ncons.obj
 0001:0004bef8       gnames_from_sectname       0005cef8 f   libeay32:v3_crld.obj
 0001:0004bfac       set_reasons                0005cfac f   libeay32:v3_crld.obj
 0001:0004c0b4       print_reasons              0005d0b4 f   libeay32:v3_crld.obj
 0001:0004c18c       dpn_cb                     0005d18c f   libeay32:v3_crld.obj
 0001:0004c248       print_gens                 0005d248 f   libeay32:v3_crld.obj
 0001:0004c2d0       print_distpoint            0005d2d0 f   libeay32:v3_crld.obj
 0001:0004c378       i2r_idp                    0005d378 f   libeay32:v3_crld.obj
 0001:0004c4a8       i2r_crldp                  0005d4a8 f   libeay32:v3_crld.obj
 0001:0004c63c       set_dist_point_name        0005d63c f   libeay32:v3_crld.obj
 0001:0004c828       crldp_from_section         0005d828 f   libeay32:v3_crld.obj
 0001:0004c914       v2i_crld                   0005d914 f   libeay32:v3_crld.obj
 0001:0004cad4       v2i_idp                    0005dad4 f   libeay32:v3_crld.obj
 0001:0004d00c       init                       0005e00c f   libeay32:m_md5.obj
 0001:0004d020       update                     0005e020 f   libeay32:m_md5.obj
 0001:0004d034       final                      0005e034 f   libeay32:m_md5.obj
 0001:0004d290       i2v_BASIC_CONSTRAINTS      0005e290 f   libeay32:v3_bcons.obj
 0001:0004d2d4       v2i_BASIC_CONSTRAINTS      0005e2d4 f   libeay32:v3_bcons.obj
 0001:0004da68       julian_to_date             0005ea68 f   libeay32:o_time.obj
 0001:0004e2ac       trust_compat               0005f2ac f   libeay32:x509_trs.obj
 0001:0004e2e0       obj_trust                  0005f2e0 f   libeay32:x509_trs.obj
 0001:0004e3b0       trust_1oidany              0005f3b0 f   libeay32:x509_trs.obj
 0001:0004e41c       trust_1oid                 0005f41c f   libeay32:x509_trs.obj
 0001:0004e454       md_new                     0005f454 f   libeay32:bio_md.obj
 0001:0004e488       md_free                    0005f488 f   libeay32:bio_md.obj
 0001:0004e4c0       md_read                    0005f4c0 f   libeay32:bio_md.obj
 0001:0004e550       md_write                   0005f550 f   libeay32:bio_md.obj
 0001:0004e600       md_ctrl                    0005f600 f   libeay32:bio_md.obj
 0001:0004e74c       md_callback_ctrl           0005f74c f   libeay32:bio_md.obj
 0001:0004e774       md_gets                    0005f774 f   libeay32:bio_md.obj
 0001:0004e850       mem_new                    0005f850 f   libeay32:bss_mem.obj
 0001:0004e88c       mem_free                   0005f88c f   libeay32:bss_mem.obj
 0001:0004e8e8       mem_read                   0005f8e8 f   libeay32:bss_mem.obj
 0001:0004e99c       mem_write                  0005f99c f   libeay32:bss_mem.obj
 0001:0004ea54       mem_ctrl                   0005fa54 f   libeay32:bss_mem.obj
 0001:0004eb94       mem_gets                   0005fb94 f   libeay32:bss_mem.obj
 0001:0004ec20       mem_puts                   0005fc20 f   libeay32:bss_mem.obj
 0001:0004ec58       null_new                   0005fc58 f   libeay32:bss_null.obj
 0001:0004ec74       null_free                  0005fc74 f   libeay32:bss_null.obj
 0001:0004ec84       null_read                  0005fc84 f   libeay32:bss_null.obj
 0001:0004ec8c       null_write                 0005fc8c f   libeay32:bss_null.obj
 0001:0004ec94       null_ctrl                  0005fc94 f   libeay32:bss_null.obj
 0001:0004ecd4       null_gets                  0005fcd4 f   libeay32:bss_null.obj
 0001:0004ecdc       null_puts                  0005fcdc f   libeay32:bss_null.obj
 0001:0004fa28       traverse_string            00060a28 f   libeay32:a_mbstr.obj
 0001:0004fb28       in_utf8                    00060b28 f   libeay32:a_mbstr.obj
 0001:0004fb3c       out_utf8                   00060b3c f   libeay32:a_mbstr.obj
 0001:0004fb70       cpy_asc                    00060b70 f   libeay32:a_mbstr.obj
 0001:0004fb90       cpy_bmp                    00060b90 f   libeay32:a_mbstr.obj
 0001:0004fbc0       cpy_univ                   00060bc0 f   libeay32:a_mbstr.obj
 0001:0004fc00       cpy_utf8                   00060c00 f   libeay32:a_mbstr.obj
 0001:0004fc34       type_str                   00060c34 f   libeay32:a_mbstr.obj
 0001:00050940       enc_new                    00061940 f   libeay32:bio_enc.obj
 0001:000509ac       enc_free                   000619ac f   libeay32:bio_enc.obj
 0001:00050a00       enc_read                   00061a00 f   libeay32:bio_enc.obj
 0001:00050ba0       enc_write                  00061ba0 f   libeay32:bio_enc.obj
 0001:00050ce8       enc_ctrl                   00061ce8 f   libeay32:bio_enc.obj
 0001:00050ee4       enc_callback_ctrl          00061ee4 f   libeay32:bio_enc.obj
 0001:00051dd8       table_cmp_BSEARCH_CMP_FN   00062dd8 f   libeay32:a_strnid.obj
 0001:0005229c       copy_issuer                0006329c f   libeay32:v3_alt.obj
 0001:000523cc       copy_email                 000633cc f   libeay32:v3_alt.obj
 0001:00052560       do_othername               00063560 f   libeay32:v3_alt.obj
 0001:0005263c       do_dirname                 0006363c f   libeay32:v3_alt.obj
 0001:00052b98       v2i_issuer_alt             00063b98 f   libeay32:v3_alt.obj
 0001:00052cbc       v2i_subject_alt            00063cbc f   libeay32:v3_alt.obj
 0001:00053240       s2i_asn1_int               00064240 f   libeay32:v3_int.obj
 0001:00053284       i2v_POLICY_MAPPINGS        00064284 f   libeay32:v3_pmaps.obj
 0001:00053310       v2i_POLICY_MAPPINGS        00064310 f   libeay32:v3_pmaps.obj
 0001:000534f0       i2r_pci                    000644f0 f   libeay32:v3_pci.obj
 0001:000535d0       process_pci_value          000645d0 f   libeay32:v3_pci.obj
 0001:00053d00       r2i_pci                    00064d00 f   libeay32:v3_pci.obj
 0001:00054048       i2r_ocsp_crlid             00065048 f   libeay32:v3_ocsp.obj
 0001:00054180       i2r_ocsp_acutoff           00065180 f   libeay32:v3_ocsp.obj
 0001:000541e0       i2r_object                 000651e0 f   libeay32:v3_ocsp.obj
 0001:00054240       ocsp_nonce_new             00065240 f   libeay32:v3_ocsp.obj
 0001:00054250       i2d_ocsp_nonce             00065250 f   libeay32:v3_ocsp.obj
 0001:0005428c       d2i_ocsp_nonce             0006528c f   libeay32:v3_ocsp.obj
 0001:00054340       ocsp_nonce_free            00065340 f   libeay32:v3_ocsp.obj
 0001:00054350       i2r_ocsp_nonce             00065350 f   libeay32:v3_ocsp.obj
 0001:000543b4       i2r_ocsp_nocheck           000653b4 f   libeay32:v3_ocsp.obj
 0001:000543bc       s2i_ocsp_nocheck           000653bc f   libeay32:v3_ocsp.obj
 0001:000543cc       i2r_ocsp_serviceloc        000653cc f   libeay32:v3_ocsp.obj
 0001:000544dc       i2v_POLICY_CONSTRAINTS     000654dc f   libeay32:v3_pcons.obj
 0001:00054520       v2i_POLICY_CONSTRAINTS     00065520 f   libeay32:v3_pcons.obj
 0001:0005469c       i2v_EXTENDED_KEY_USAGE     0006569c f   libeay32:v3_extku.obj
 0001:00054714       v2i_EXTENDED_KEY_USAGE     00065714 f   libeay32:v3_extku.obj
 0001:00054848       sxnet_i2r                  00065848 f   libeay32:v3_sxnet.obj
 0001:00054b9c       sxnet_v2i                  00065b9c f   libeay32:v3_sxnet.obj
 0001:00054c78       i2v_AUTHORITY_KEYID        00065c78 f   libeay32:v3_akey.obj
 0001:00054d30       v2i_AUTHORITY_KEYID        00065d30 f   libeay32:v3_akey.obj
 0001:00055040       POLICYQUALINFO_adb         00066040 f   libeay32:v3_cpols.obj
 0001:00055088       nref_nos                   00066088 f   libeay32:v3_cpols.obj
 0001:00055164       notice_section             00066164 f   libeay32:v3_cpols.obj
 0001:00055448       print_qualifiers           00066448 f   libeay32:v3_cpols.obj
 0001:00055638       policy_section             00066638 f   libeay32:v3_cpols.obj
 0001:000559a4       i2r_certpol                000669a4 f   libeay32:v3_cpols.obj
 0001:00055a48       r2i_certpol                00066a48 f   libeay32:v3_cpols.obj
 0001:00055d1c       i2r_PKEY_USAGE_PERIOD      00066d1c f   libeay32:v3_pku.obj
 0001:00056050       s2i_skey_id                00067050 f   libeay32:v3_skey.obj
 0001:000561d4       i2s_ASN1_IA5STRING         000671d4 f   libeay32:v3_ia5.obj
 0001:0005625c       s2i_ASN1_IA5STRING         0006725c f   libeay32:v3_ia5.obj
 0001:00056390       nconf_get_string           00067390 f   libeay32:v3_conf.obj
 0001:000563a0       nconf_get_section          000673a0 f   libeay32:v3_conf.obj
 0001:000563b0       conf_lhash_get_string      000673b0 f   libeay32:v3_conf.obj
 0001:000563c0       conf_lhash_get_section     000673c0 f   libeay32:v3_conf.obj
 0001:000563d0       rinf_cb                    000673d0 f   libeay32:x_req.obj
 0001:0005641c       ecdh_compute_key           0006741c f   libeay32:ech_ossl.obj
 0001:00057de8       parse_tagging              00068de8 f   libeay32:asn1_gen.obj
 0001:00057f28       append_exp                 00068f28 f   libeay32:asn1_gen.obj
 0001:00058004       bitstr_cb                  00069004 f   libeay32:asn1_gen.obj
 0001:000580d0       asn1_cb                    000690d0 f   libeay32:asn1_gen.obj
 0001:00058518       asn1_str2type              00069518 f   libeay32:asn1_gen.obj
 0001:00058d34       asn1_multi                 00069d34 f   libeay32:asn1_gen.obj
 0001:00058e94       def_create                 00069e94 f   libeay32:conf_def.obj
 0001:00058ee8       def_init_default           00069ee8 f   libeay32:conf_def.obj
 0001:00058f10       def_init_WIN32             00069f10 f   libeay32:conf_def.obj
 0001:00058f38       def_destroy_data           00069f38 f   libeay32:conf_def.obj
 0001:00058f5c       str_copy                   00069f5c f   libeay32:conf_def.obj
 0001:00059308       dump_value_LHASH_DOALL_ARG 0006a308 f   libeay32:conf_def.obj
 0001:0005935c       def_dump                   0006a35c f   libeay32:conf_def.obj
 0001:00059380       def_is_number              0006a380 f   libeay32:conf_def.obj
 0001:00059398       def_to_int                 0006a398 f   libeay32:conf_def.obj
 0001:000593a0       def_destroy                0006a3a0 f   libeay32:conf_def.obj
 0001:000593d4       clear_comments             0006a3d4 f   libeay32:conf_def.obj
 0001:00059520       def_load_bio               0006a520 f   libeay32:conf_def.obj
 0001:00059d58       def_load                   0006ad58 f   libeay32:conf_def.obj
 0001:00059fa0       conf_value_LHASH_HASH      0006afa0 f   libeay32:conf_api.obj
 0001:00059fc8       conf_value_LHASH_COMP      0006afc8 f   libeay32:conf_api.obj
 0001:0005a16c       value_free_hash_LHASH_DOALL_ARG 0006b16c f   libeay32:conf_api.obj
 0001:0005a190       value_free_stack_LHASH_DOALL 0006b190 f   libeay32:conf_api.obj
 0001:0005aac8       asn1_bio_free              0006bac8 f   libeay32:bio_asn1.obj
 0001:0005ab18       asn1_bio_flush_ex          0006bb18 f   libeay32:bio_asn1.obj
 0001:0005abbc       asn1_bio_read              0006bbbc f   libeay32:bio_asn1.obj
 0001:0005abe4       asn1_bio_gets              0006bbe4 f   libeay32:bio_asn1.obj
 0001:0005ac0c       asn1_bio_callback_ctrl     0006bc0c f   libeay32:bio_asn1.obj
 0001:0005ac34       asn1_bio_ctrl              0006bc34 f   libeay32:bio_asn1.obj
 0001:0005addc       asn1_bio_new               0006bddc f   libeay32:bio_asn1.obj
 0001:0005ae78       asn1_bio_write             0006be78 f   libeay32:bio_asn1.obj
 0001:0005b0ac       asn1_bio_puts              0006c0ac f   libeay32:bio_asn1.obj
 0001:0005b0d8       b64_new                    0006c0d8 f   libeay32:bio_b64.obj
 0001:0005b148       b64_free                   0006c148 f   libeay32:bio_b64.obj
 0001:0005b180       b64_read                   0006c180 f   libeay32:bio_b64.obj
 0001:0005b624       b64_write                  0006c624 f   libeay32:bio_b64.obj
 0001:0005ba64       b64_ctrl                   0006ca64 f   libeay32:bio_b64.obj
 0001:0005bc7c       b64_callback_ctrl          0006cc7c f   libeay32:bio_b64.obj
 0001:0005bca4       b64_puts                   0006cca4 f   libeay32:bio_b64.obj
 0001:0005bcd0       buffer_new                 0006ccd0 f   libeay32:bf_buff.obj
 0001:0005bd84       buffer_free                0006cd84 f   libeay32:bf_buff.obj
 0001:0005bde0       buffer_read                0006cde0 f   libeay32:bf_buff.obj
 0001:0005bf20       buffer_write               0006cf20 f   libeay32:bf_buff.obj
 0001:0005c0e0       buffer_ctrl                0006d0e0 f   libeay32:bf_buff.obj
 0001:0005c4b8       buffer_callback_ctrl       0006d4b8 f   libeay32:bf_buff.obj
 0001:0005c4e0       buffer_gets                0006d4e0 f   libeay32:bf_buff.obj
 0001:0005c5e8       buffer_puts                0006d5e8 f   libeay32:bf_buff.obj
 0001:0005c614       LoadLibraryA               0006d614 f   libeay32:dso_win32.obj
 0001:0005c6b4       win32_load                 0006d6b4 f   libeay32:dso_win32.obj
 0001:0005c7f0       win32_unload               0006d7f0 f   libeay32:dso_win32.obj
 0001:0005c8c4       win32_bind_var             0006d8c4 f   libeay32:dso_win32.obj
 0001:0005c9d8       win32_bind_func            0006d9d8 f   libeay32:dso_win32.obj
 0001:0005caec       win32_splitter             0006daec f   libeay32:dso_win32.obj
 0001:0005cd20       win32_name_converter       0006dd20 f   libeay32:dso_win32.obj
 0001:0005ce08       win32_pathbyaddr           0006de08 f   libeay32:dso_win32.obj
 0001:0005d030       win32_globallookup         0006e030 f   libeay32:dso_win32.obj
 0001:0005d1c8       win32_joiner               0006e1c8 f   libeay32:dso_win32.obj
 0001:0005d500       win32_merger               0006e500 f   libeay32:dso_win32.obj
 0001:0005d748       PKCS12_BAGS_adb            0006e748 f   libeay32:p12_asn.obj
 0001:0005d760       PKCS12_SAFEBAG_adb         0006e760 f   libeay32:p12_asn.obj
 0001:0005d81c       write_string               0006e81c f   libeay32:ui_openssl.obj
 0001:0005d864       open_console               0006e864 f   libeay32:ui_openssl.obj
 0001:0005d8f0       close_console              0006e8f0 f   libeay32:ui_openssl.obj
 0001:0005d954       read_string                0006e954 f   libeay32:ui_openssl.obj
 0001:0005dae8       cmp64                      0006eae8 f   wcecompatex:time.obj
 0001:0005db34       topBit                     0006eb34 f   wcecompatex:time.obj
 0001:0005dcc0       div64                      0006ecc0 f   wcecompatex:time.obj
 0001:0005e80c       doexit                     0006f80c f   corelibc:crt0dat.obj
 0001:0005e9e0       ?getCmdLineArg@@YA?AW4ArgType@@PAPA_WPA_WHPAURedirArg@@PA_N@Z 0006f9e0 f   wcecompatex:args.obj
 0001:0005ed0c       ?qsort_stricmp@@YAHPBX0@Z  0006fd0c f   wcecompatex:args.obj
