 enginetest

 Timestamp is 511c9aec (Thu Feb 14 17:06:04 2013)

 Preferred load address is 00010000

 Start         Length     Name                   Class
 0001:00000000 000567f0H .text                   CODE
 0002:00000000 0002c985H .rdata                  DATA
 0002:0002c988 00000014H .xdata                  DATA
 0002:0002c99c 00000014H .idata$2                DATA
 0002:0002c9b0 00000014H .idata$3                DATA
 0002:0002c9c4 00000150H .idata$4                DATA
 0002:0002cb14 0000000cH .idata$6                DATA
 0002:0002cb20 00000000H .edata                  DATA
 0003:00000000 00000150H .idata$5                DATA
 0003:00000150 00000004H .CRT$XCA                DATA
 0003:00000154 00000004H .CRT$XCZ                DATA
 0003:00000158 00000004H .CRT$XIA                DATA
 0003:0000015c 00000004H .CRT$XIZ                DATA
 0003:00000160 00000004H .CRT$XPA                DATA
 0003:00000164 00000004H .CRT$XPZ                DATA
 0003:00000168 00000004H .CRT$XTA                DATA
 0003:0000016c 00000004H .CRT$XTZ                DATA
 0003:00000170 00004b40H .data                   DATA
 0003:00004cc0 00002021H .bss                    DATA
 0004:00000000 00003768H .pdata                  DATA

  Address         Publics by Value              Rva+Base     Lib:Object

 0000:00000000       ___safe_se_handler_count   00000000     <absolute>
 0000:00000000       ___safe_se_handler_table   00000000     <absolute>
 0001:00000080       main                       00011080 f   enginetest.obj
 0001:00000620       ENGINE_new                 00011620 f   libeay32:eng_lib.obj
 0001:000006a0       engine_free_util           000116a0 f   libeay32:eng_lib.obj
 0001:00000760       ENGINE_free                00011760 f   libeay32:eng_lib.obj
 0001:00000774       engine_cleanup_add_last    00011774 f   libeay32:eng_lib.obj
 0001:000007f4       ENGINE_cleanup             000117f4 f   libeay32:eng_lib.obj
 0001:00000830       ENGINE_set_id              00011830 f   libeay32:eng_lib.obj
 0001:0000087c       ENGINE_set_name            0001187c f   libeay32:eng_lib.obj
 0001:000008c8       ENGINE_get_id              000118c8 f   libeay32:eng_lib.obj
 0001:000008d0       ENGINE_get_name            000118d0 f   libeay32:eng_lib.obj
 0001:000009bc       ENGINE_get_first           000119bc f   libeay32:eng_list.obj
 0001:00000a14       ENGINE_get_next            00011a14 f   libeay32:eng_list.obj
 0001:00000aa0       ENGINE_remove              00011aa0 f   libeay32:eng_list.obj
 0001:00000ccc       ENGINE_add                 00011ccc f   libeay32:eng_list.obj
 0001:00000de8       CRYPTO_mem_ctrl            00011de8 f   libeay32:mem_dbg.obj
 0001:00000f5c       CRYPTO_is_mem_check_on     00011f5c f   libeay32:mem_dbg.obj
 0001:00000ff0       CRYPTO_dbg_set_options     00011ff0 f   libeay32:mem_dbg.obj
 0001:00001000       CRYPTO_dbg_get_options     00012000 f   libeay32:mem_dbg.obj
 0001:0000113c       CRYPTO_push_info_          0001213c f   libeay32:mem_dbg.obj
 0001:0000120c       CRYPTO_pop_info            0001220c f   libeay32:mem_dbg.obj
 0001:0000124c       CRYPTO_dbg_malloc          0001224c f   libeay32:mem_dbg.obj
 0001:000013e4       CRYPTO_dbg_free            000123e4 f   libeay32:mem_dbg.obj
 0001:00001494       CRYPTO_dbg_realloc         00012494 f   libeay32:mem_dbg.obj
 0001:0000178c       CRYPTO_mem_leaks           0001278c f   libeay32:mem_dbg.obj
 0001:000018a8       CRYPTO_mem_leaks_fp        000128a8 f   libeay32:mem_dbg.obj
 0001:00001ff8       ERR_free_strings           00012ff8 f   libeay32:err.obj
 0001:00002020       ERR_lib_error_string       00013020 f   libeay32:err.obj
 0001:00002070       ERR_func_error_string      00013070 f   libeay32:err.obj
 0001:000020cc       ERR_reason_error_string    000130cc f   libeay32:err.obj
 0001:00002150       ERR_remove_thread_state    00013150 f   libeay32:err.obj
 0001:000021a4       ERR_get_state              000131a4 f   libeay32:err.obj
 0001:000022a4       ERR_set_error_data         000132a4 f   libeay32:err.obj
 0001:000022f8       ERR_add_error_vdata        000132f8 f   libeay32:err.obj
 0001:000023cc       ERR_set_mark               000133cc f   libeay32:err.obj
 0001:0000240c       ERR_pop_to_mark            0001340c f   libeay32:err.obj
 0001:000025dc       ERR_load_ERR_strings       000135dc f   libeay32:err.obj
 0001:0000276c       ERR_load_strings           0001376c f   libeay32:err.obj
 0001:00002790       ERR_put_error              00013790 f   libeay32:err.obj
 0001:00002884       ERR_clear_error            00013884 f   libeay32:err.obj
 0001:00002a4c       ERR_error_string_n         00013a4c f   libeay32:err.obj
 0001:00002b8c       ERR_add_error_data         00013b8c f   libeay32:err.obj
 0001:00002bac       ERR_get_error_line_data    00013bac f   libeay32:err.obj
 0001:00002be4       ERR_peek_last_error        00013be4 f   libeay32:err.obj
 0001:00003058       CRYPTO_cleanup_all_ex_data 00014058 f   libeay32:ex_data.obj
 0001:0000308c       CRYPTO_new_ex_data         0001408c f   libeay32:ex_data.obj
 0001:000030d8       CRYPTO_free_ex_data        000140d8 f   libeay32:ex_data.obj
 0001:00003124       CRYPTO_set_ex_data         00014124 f   libeay32:ex_data.obj
 0001:000031f8       CRYPTO_get_ex_data         000141f8 f   libeay32:ex_data.obj
 0001:000036e8       ERR_print_errors_cb        000146e8 f   libeay32:err_prn.obj
 0001:0000382c       ERR_print_errors_fp        0001482c f   libeay32:err_prn.obj
 0001:000038a8       CRYPTO_set_mem_debug_functions 000148a8 f   libeay32:mem.obj
 0001:000038f8       CRYPTO_free_locked         000148f8 f   libeay32:mem.obj
 0001:00003954       CRYPTO_malloc              00014954 f   libeay32:mem.obj
 0001:00003a34       CRYPTO_realloc             00014a34 f   libeay32:mem.obj
 0001:00003b1c       CRYPTO_realloc_clean       00014b1c f   libeay32:mem.obj
 0001:00003c40       CRYPTO_free                00014c40 f   libeay32:mem.obj
 0001:00003c9c       CRYPTO_set_mem_debug_options 00014c9c f   libeay32:mem.obj
 0001:00003cc0       BUF_strlcpy                00014cc0 f   libeay32:buf_str.obj
 0001:00003d10       BUF_strlcat                00014d10 f   libeay32:buf_str.obj
 0001:00003d4c       BUF_strndup                00014d4c f   libeay32:buf_str.obj
 0001:00003dc0       BUF_strdup                 00014dc0 f   libeay32:buf_str.obj
 0001:00003df0       ERR_load_crypto_strings    00014df0 f   libeay32:err_all.obj
 0001:00003e6c       ENGINE_get_pkey_asn1_meth_engine 00014e6c f   libeay32:tb_asnmth.obj
 0001:00003e88       engine_pkey_asn1_meths_free 00014e88 f   libeay32:tb_asnmth.obj
 0001:00003fc4       ENGINE_pkey_asn1_find_str  00014fc4 f   libeay32:tb_asnmth.obj
 0001:00004064       ENGINE_get_pkey_asn1_meth  00015064 f   libeay32:tb_asnmth.obj
 0001:000040c8       ENGINE_get_pkey_meth_engine 000150c8 f   libeay32:tb_pkmeth.obj
 0001:000040e4       engine_pkey_meths_free     000150e4 f   libeay32:tb_pkmeth.obj
 0001:00004164       ENGINE_get_pkey_meth       00015164 f   libeay32:tb_pkmeth.obj
 0001:000041c8       CRYPTO_destroy_dynlockid   000151c8 f   libeay32:cryptlib.obj
 0001:000042cc       CRYPTO_get_dynlock_value   000152cc f   libeay32:cryptlib.obj
 0001:00004368       CRYPTO_THREADID_current    00015368 f   libeay32:cryptlib.obj
 0001:000043e4       CRYPTO_THREADID_cmp        000153e4 f   libeay32:cryptlib.obj
 0001:000043f8       CRYPTO_THREADID_cpy        000153f8 f   libeay32:cryptlib.obj
 0001:0000440c       CRYPTO_THREADID_hash       0001540c f   libeay32:cryptlib.obj
 0001:00004414       OPENSSL_showfatal          00015414 f   libeay32:cryptlib.obj
 0001:0000459c       OpenSSLDie                 0001559c f   libeay32:cryptlib.obj
 0001:000045d0       CRYPTO_memcmp              000155d0 f   libeay32:cryptlib.obj
 0001:0000460c       CRYPTO_lock                0001560c f   libeay32:cryptlib.obj
 0001:000046d8       CRYPTO_add_lock            000156d8 f   libeay32:cryptlib.obj
 0001:00004764       sk_set_cmp_func            00015764 f   libeay32:stack.obj
 0001:00004780       sk_new                     00015780 f   libeay32:stack.obj
 0001:00004808       sk_insert                  00015808 f   libeay32:stack.obj
 0001:000048e0       sk_delete                  000158e0 f   libeay32:stack.obj
 0001:0000494c       sk_push                    0001594c f   libeay32:stack.obj
 0001:00004960       sk_pop                     00015960 f   libeay32:stack.obj
 0001:00004994       sk_free                    00015994 f   libeay32:stack.obj
 0001:000049c0       sk_num                     000159c0 f   libeay32:stack.obj
 0001:000049d0       sk_value                   000159d0 f   libeay32:stack.obj
 0001:000049fc       sk_set                     000159fc f   libeay32:stack.obj
 0001:00004a30       sk_sort                    00015a30 f   libeay32:stack.obj
 0001:00004a6c       sk_is_sorted               00015a6c f   libeay32:stack.obj
 0001:00004a7c       sk_new_null                00015a7c f   libeay32:stack.obj
 0001:00004a90       sk_delete_ptr              00015a90 f   libeay32:stack.obj
 0001:00004ba4       sk_find                    00015ba4 f   libeay32:stack.obj
 0001:00004bb8       sk_pop_free                00015bb8 f   libeay32:stack.obj
 0001:00004c20       RAND_set_rand_method       00015c20 f   libeay32:rand_lib.obj
 0001:00004c58       RAND_get_rand_method       00015c58 f   libeay32:rand_lib.obj
 0001:00004cc0       RAND_seed                  00015cc0 f   libeay32:rand_lib.obj
 0001:00004cf4       RAND_add                   00015cf4 f   libeay32:rand_lib.obj
 0001:00004d38       RAND_bytes                 00015d38 f   libeay32:rand_lib.obj
 0001:00004d80       RAND_pseudo_bytes          00015d80 f   libeay32:rand_lib.obj
 0001:00004dc8       RAND_status                00015dc8 f   libeay32:rand_lib.obj
 0001:00004e00       lh_free                    00015e00 f   libeay32:lhash.obj
 0001:00004e68       lh_doall                   00015e68 f   libeay32:lhash.obj
 0001:00004ebc       lh_doall_arg               00015ebc f   libeay32:lhash.obj
 0001:00005220       lh_strhash                 00016220 f   libeay32:lhash.obj
 0001:0000528c       lh_num_items               0001628c f   libeay32:lhash.obj
 0001:0000529c       lh_new                     0001629c f   libeay32:lhash.obj
 0001:00005398       lh_insert                  00016398 f   libeay32:lhash.obj
 0001:0000547c       lh_delete                  0001647c f   libeay32:lhash.obj
 0001:00005528       lh_retrieve                00016528 f   libeay32:lhash.obj
 0001:00005578       BIO_set                    00016578 f   libeay32:bio_lib.obj
 0001:00005618       BIO_free                   00016618 f   libeay32:bio_lib.obj
 0001:000056dc       BIO_clear_flags            000166dc f   libeay32:bio_lib.obj
 0001:000056ec       BIO_test_flags             000166ec f   libeay32:bio_lib.obj
 0001:000056f8       BIO_set_flags              000166f8 f   libeay32:bio_lib.obj
 0001:00005708       BIO_read                   00016708 f   libeay32:bio_lib.obj
 0001:00005838       BIO_write                  00016838 f   libeay32:bio_lib.obj
 0001:0000596c       BIO_puts                   0001696c f   libeay32:bio_lib.obj
 0001:00005a94       BIO_gets                   00016a94 f   libeay32:bio_lib.obj
 0001:00005bbc       BIO_indent                 00016bbc f   libeay32:bio_lib.obj
 0001:00005c18       BIO_ctrl                   00016c18 f   libeay32:bio_lib.obj
 0001:00005d14       BIO_callback_ctrl          00016d14 f   libeay32:bio_lib.obj
 0001:00005e18       BIO_push                   00016e18 f   libeay32:bio_lib.obj
 0001:00005e6c       BIO_find_type              00016e6c f   libeay32:bio_lib.obj
 0001:00005eb4       BIO_next                   00016eb4 f   libeay32:bio_lib.obj
 0001:00005ec4       BIO_free_all               00016ec4 f   libeay32:bio_lib.obj
 0001:00005ef8       BIO_copy_next_retry        00016ef8 f   libeay32:bio_lib.obj
 0001:00005f1c       BIO_new                    00016f1c f   libeay32:bio_lib.obj
 0001:00005f94       BIO_int_ctrl               00016f94 f   libeay32:bio_lib.obj
 0001:00007050       BIO_vprintf                00018050 f   libeay32:b_print.obj
 0001:00007118       BIO_vsnprintf              00018118 f   libeay32:b_print.obj
 0001:0000717c       BIO_printf                 0001817c f   libeay32:b_print.obj
 0001:0000719c       BIO_snprintf               0001819c f   libeay32:b_print.obj
 0001:000071bc       BIO_s_file                 000181bc f   libeay32:bss_file.obj
 0001:00007640       BIO_new_file               00018640 f   libeay32:bss_file.obj
 0001:00007890       OPENSSL_init               00018890 f   libeay32:o_init.obj
 0001:000078ac       OPENSSL_cleanse            000188ac f   libeay32:mem_clr.obj
 0001:00007908       ERR_load_CMS_strings       00018908 f   libeay32:cms_err.obj
 0001:00007944       ERR_load_UI_strings        00018944 f   libeay32:ui_err.obj
 0001:00007980       ERR_load_OCSP_strings      00018980 f   libeay32:ocsp_err.obj
 0001:000079bc       ERR_load_ENGINE_strings    000189bc f   libeay32:eng_err.obj
 0001:000079f8       ERR_load_TS_strings        000189f8 f   libeay32:ts_err.obj
 0001:00007a34       ERR_load_DSO_strings       00018a34 f   libeay32:dso_err.obj
 0001:00007a70       ERR_load_RAND_strings      00018a70 f   libeay32:rand_err.obj
 0001:00007aac       ERR_load_PKCS12_strings    00018aac f   libeay32:pk12err.obj
 0001:00007ae8       ERR_load_X509V3_strings    00018ae8 f   libeay32:v3err.obj
 0001:00007b24       ERR_load_PKCS7_strings     00018b24 f   libeay32:pkcs7err.obj
 0001:00007b60       ERR_load_BIO_strings       00018b60 f   libeay32:bio_err.obj
 0001:00007b9c       ERR_load_ECDH_strings      00018b9c f   libeay32:ech_err.obj
 0001:00007bd8       ERR_load_ECDSA_strings     00018bd8 f   libeay32:ecs_err.obj
 0001:00007c14       ERR_load_EC_strings        00018c14 f   libeay32:ec_err.obj
 0001:00007c50       ERR_load_COMP_strings      00018c50 f   libeay32:comp_err.obj
 0001:00007c8c       ERR_load_CRYPTO_strings    00018c8c f   libeay32:cpt_err.obj
 0001:00007cc8       ERR_load_CONF_strings      00018cc8 f   libeay32:conf_err.obj
 0001:00007d04       ERR_load_ASN1_strings      00018d04 f   libeay32:asn1_err.obj
 0001:00007d40       ERR_load_X509_strings      00018d40 f   libeay32:x509_err.obj
 0001:00007d7c       ERR_load_DSA_strings       00018d7c f   libeay32:dsa_err.obj
 0001:00007db8       ERR_load_PEM_strings       00018db8 f   libeay32:pem_err.obj
 0001:00007df4       ERR_load_OBJ_strings       00018df4 f   libeay32:obj_err.obj
 0001:00007e30       ERR_load_BUF_strings       00018e30 f   libeay32:buf_err.obj
 0001:00007e70       ERR_load_EVP_strings       00018e70 f   libeay32:evp_err.obj
 0001:00007eac       ERR_load_DH_strings        00018eac f   libeay32:dh_err.obj
 0001:00007ee8       ERR_load_RSA_strings       00018ee8 f   libeay32:rsa_err.obj
 0001:00007f24       ERR_load_BN_strings        00018f24 f   libeay32:bn_err.obj
 0001:00007f60       engine_table_select        00018f60 f   libeay32:eng_table.obj
 0001:000080ec       engine_table_doall         000190ec f   libeay32:eng_table.obj
 0001:00008138       EVP_PKEY_asn1_get_count    00019138 f   libeay32:ameth_lib.obj
 0001:00008168       EVP_PKEY_asn1_get0         00019168 f   libeay32:ameth_lib.obj
 0001:000081b0       EVP_PKEY_asn1_find         000191b0 f   libeay32:ameth_lib.obj
 0001:00008298       EVP_PKEY_asn1_find_str     00019298 f   libeay32:ameth_lib.obj
 0001:00008380       EVP_PKEY_asn1_free         00019380 f   libeay32:ameth_lib.obj
 0001:000083e0       EVP_PKEY_meth_find         000193e0 f   libeay32:pmeth_lib.obj
 0001:00008478       EVP_PKEY_meth_free         00019478 f   libeay32:pmeth_lib.obj
 0001:00008494       EVP_PKEY_CTX_free          00019494 f   libeay32:pmeth_lib.obj
 0001:000084fc       EVP_PKEY_CTX_ctrl          000194fc f   libeay32:pmeth_lib.obj
 0001:00008620       EVP_PKEY_CTX_get0_pkey     00019620 f   libeay32:pmeth_lib.obj
 0001:00008628       EVP_PKEY_CTX_new           00019628 f   libeay32:pmeth_lib.obj
 0001:000087a4       EVP_PKEY_CTX_dup           000197a4 f   libeay32:pmeth_lib.obj
 0001:0000893c       OBJ_nid2obj                0001993c f   libeay32:obj_dat.obj
 0001:00008a1c       OBJ_nid2sn                 00019a1c f   libeay32:obj_dat.obj
 0001:00008b00       OBJ_nid2ln                 00019b00 f   libeay32:obj_dat.obj
 0001:00008c28       OBJ_bsearch_ex_            00019c28 f   libeay32:obj_dat.obj
 0001:00008d0c       OBJ_bsearch_               00019d0c f   libeay32:obj_dat.obj
 0001:00008d34       OBJ_obj2nid                00019d34 f   libeay32:obj_dat.obj
 0001:00008dfc       OBJ_obj2txt                00019dfc f   libeay32:obj_dat.obj
 0001:000090fc       OBJ_ln2nid                 0001a0fc f   libeay32:obj_dat.obj
 0001:000091ac       OBJ_sn2nid                 0001a1ac f   libeay32:obj_dat.obj
 0001:0000925c       OBJ_txt2obj                0001a25c f   libeay32:obj_dat.obj
 0001:00009350       engine_unlocked_init       0001a350 f   libeay32:eng_init.obj
 0001:000093a8       engine_unlocked_finish     0001a3a8 f   libeay32:eng_init.obj
 0001:0000946c       ENGINE_init                0001a46c f   libeay32:eng_init.obj
 0001:000094e8       ENGINE_finish              0001a4e8 f   libeay32:eng_init.obj
 0001:0000958c       RAND_SSLeay                0001a58c f   libeay32:md_rand.obj
 0001:00009f94       ENGINE_get_default_RAND    0001af94 f   libeay32:tb_rand.obj
 0001:00009fb0       ENGINE_get_RAND            0001afb0 f   libeay32:tb_rand.obj
 0001:0000fecc       EVP_PKEY_bits              00020ecc f   libeay32:p_lib.obj
 0001:0000ff0c       EVP_PKEY_size              00020f0c f   libeay32:p_lib.obj
 0001:0000ff4c       EVP_PKEY_missing_parameters 00020f4c f   libeay32:p_lib.obj
 0001:0000ff84       EVP_PKEY_new               00020f84 f   libeay32:p_lib.obj
 0001:00010000       EVP_PKEY_type              00021000 f   libeay32:p_lib.obj
 0001:0001003c       EVP_PKEY_id                0002103c f   libeay32:p_lib.obj
 0001:00010044       EVP_PKEY_get_default_digest_nid 00021044 f   libeay32:p_lib.obj
 0001:00010088       EVP_PKEY_copy_parameters   00021088 f   libeay32:p_lib.obj
 0001:00010274       EVP_PKEY_set_type          00021274 f   libeay32:p_lib.obj
 0001:0001028c       EVP_PKEY_assign            0002128c f   libeay32:p_lib.obj
 0001:000102c4       EVP_PKEY_free              000212c4 f   libeay32:p_lib.obj
 0001:00010370       EVP_get_cipherbyname       00021370 f   libeay32:names.obj
 0001:00010384       EVP_get_digestbyname       00021384 f   libeay32:names.obj
 0001:00010398       a2d_ASN1_OBJECT            00021398 f   libeay32:a_object.obj
 0001:00010770       i2t_ASN1_OBJECT            00021770 f   libeay32:a_object.obj
 0001:00010784       i2a_ASN1_OBJECT            00021784 f   libeay32:a_object.obj
 0001:00010860       ASN1_OBJECT_new            00021860 f   libeay32:a_object.obj
 0001:000108dc       ASN1_OBJECT_free           000218dc f   libeay32:a_object.obj
 0001:0001095c       c2i_ASN1_OBJECT            0002195c f   libeay32:a_object.obj
 0001:00010af0       d2i_ASN1_OBJECT            00021af0 f   libeay32:a_object.obj
 0001:00010b90       OBJ_dup                    00021b90 f   libeay32:obj_lib.obj
 0001:00010d30       OBJ_cmp                    00021d30 f   libeay32:obj_lib.obj
 0001:00010d5c       BN_bn2dec                  00021d5c f   libeay32:bn_print.obj
 0001:00010f48       BN_hex2bn                  00021f48 f   libeay32:bn_print.obj
 0001:000110d8       BN_dec2bn                  000220d8 f   libeay32:bn_print.obj
 0001:0001126c       BN_asc2bn                  0002226c f   libeay32:bn_print.obj
 0001:000112ec       BN_value_one               000222ec f   libeay32:bn_lib.obj
 0001:000112f8       BN_num_bits_word           000222f8 f   libeay32:bn_lib.obj
 0001:0001133c       BN_num_bits                0002233c f   libeay32:bn_lib.obj
 0001:00011370       BN_clear_free              00022370 f   libeay32:bn_lib.obj
 0001:000113c8       BN_free                    000223c8 f   libeay32:bn_lib.obj
 0001:00011420       BN_init                    00022420 f   libeay32:bn_lib.obj
 0001:00011438       BN_new                     00022438 f   libeay32:bn_lib.obj
 0001:000115fc       bn_expand2                 000225fc f   libeay32:bn_lib.obj
 0001:00011648       BN_copy                    00022648 f   libeay32:bn_lib.obj
 0001:00011710       BN_set_word                00022710 f   libeay32:bn_lib.obj
 0001:00011768       BN_bin2bn                  00022768 f   libeay32:bn_lib.obj
 0001:00011864       BN_bn2bin                  00022864 f   libeay32:bn_lib.obj
 0001:000118c0       BN_ucmp                    000228c0 f   libeay32:bn_lib.obj
 0001:0001192c       BN_cmp                     0002292c f   libeay32:bn_lib.obj
 0001:000119f4       BN_set_bit                 000229f4 f   libeay32:bn_lib.obj
 0001:00011a90       BN_is_bit_set              00022a90 f   libeay32:bn_lib.obj
 0001:00011ad0       BN_mask_bits               00022ad0 f   libeay32:bn_lib.obj
 0001:00011b68       BN_set_negative            00022b68 f   libeay32:bn_lib.obj
 0001:00011b88       BN_dup                     00022b88 f   libeay32:bn_lib.obj
 0001:00011bcc       BN_mod_word                00022bcc f   libeay32:bn_word.obj
 0001:00011c30       BN_div_word                00022c30 f   libeay32:bn_word.obj
 0001:00011cf8       BN_add_word                00022cf8 f   libeay32:bn_word.obj
 0001:00011e04       BN_sub_word                00022e04 f   libeay32:bn_word.obj
 0001:00011f08       BN_mul_word                00022f08 f   libeay32:bn_word.obj
 0001:00011f94       BN_lshift1                 00022f94 f   libeay32:bn_shift.obj
 0001:00012068       BN_rshift1                 00023068 f   libeay32:bn_shift.obj
 0001:00012144       BN_lshift                  00023144 f   libeay32:bn_shift.obj
 0001:00012270       BN_rshift                  00023270 f   libeay32:bn_shift.obj
 0001:00012444       ASN1_put_eoc               00023444 f   libeay32:asn1_lib.obj
 0001:00012464       ASN1_object_size           00023464 f   libeay32:asn1_lib.obj
 0001:000124b4       ASN1_STRING_set            000234b4 f   libeay32:asn1_lib.obj
 0001:000125a4       ASN1_STRING_set0           000235a4 f   libeay32:asn1_lib.obj
 0001:000125d4       ASN1_STRING_type_new       000235d4 f   libeay32:asn1_lib.obj
 0001:00012640       ASN1_STRING_free           00023640 f   libeay32:asn1_lib.obj
 0001:00012674       ASN1_STRING_cmp            00023674 f   libeay32:asn1_lib.obj
 0001:000126b4       ASN1_get_object            000236b4 f   libeay32:asn1_lib.obj
 0001:0001280c       ASN1_put_object            0002380c f   libeay32:asn1_lib.obj
 0001:00012920       ASN1_STRING_copy           00023920 f   libeay32:asn1_lib.obj
 0001:0001296c       ASN1_STRING_new            0002396c f   libeay32:asn1_lib.obj
 0001:00012980       ASN1_STRING_dup            00023980 f   libeay32:asn1_lib.obj
 0001:000129c8       EVP_MD_CTX_init            000239c8 f   libeay32:digest.obj
 0001:000129e0       EVP_MD_CTX_create          000239e0 f   libeay32:digest.obj
 0001:00012a18       EVP_DigestInit_ex          00023a18 f   libeay32:digest.obj
 0001:00012c30       EVP_DigestUpdate           00023c30 f   libeay32:digest.obj
 0001:00012c48       EVP_DigestFinal_ex         00023c48 f   libeay32:digest.obj
 0001:00012cf4       EVP_MD_CTX_cleanup         00023cf4 f   libeay32:digest.obj
 0001:00012dc0       EVP_MD_CTX_copy_ex         00023dc0 f   libeay32:digest.obj
 0001:00012f70       EVP_Digest                 00023f70 f   libeay32:digest.obj
 0001:00013014       EVP_MD_CTX_destroy         00024014 f   libeay32:digest.obj
 0001:00013030       EVP_MD_CTX_copy            00024030 f   libeay32:digest.obj
 0001:000130a0       EVP_sha1                   000240a0 f   libeay32:m_sha1.obj
 0001:000131d8       RAND_poll                  000241d8 f   libeay32:rand_win.obj
 0001:000132b0       CMAC_CTX_new               000242b0 f   libeay32:cmac.obj
 0001:000132f0       CMAC_CTX_cleanup           000242f0 f   libeay32:cmac.obj
 0001:0001333c       CMAC_CTX_free              0002433c f   libeay32:cmac.obj
 0001:00013358       CMAC_CTX_copy              00024358 f   libeay32:cmac.obj
 0001:000133e8       CMAC_Init                  000243e8 f   libeay32:cmac.obj
 0001:00013664       CMAC_Update                00024664 f   libeay32:cmac.obj
 0001:00013748       CMAC_Final                 00024748 f   libeay32:cmac.obj
 0001:00013848       ASN1_INTEGER_it            00024848 f   libeay32:tasn_typ.obj
 0001:00013854       d2i_ASN1_INTEGER           00024854 f   libeay32:tasn_typ.obj
 0001:0001386c       i2d_ASN1_INTEGER           0002486c f   libeay32:tasn_typ.obj
 0001:00013884       ASN1_INTEGER_new           00024884 f   libeay32:tasn_typ.obj
 0001:0001389c       ASN1_INTEGER_free          0002489c f   libeay32:tasn_typ.obj
 0001:000138b4       ASN1_ENUMERATED_it         000248b4 f   libeay32:tasn_typ.obj
 0001:000138c0       ASN1_ENUMERATED_free       000248c0 f   libeay32:tasn_typ.obj
 0001:000138d8       ASN1_BIT_STRING_it         000248d8 f   libeay32:tasn_typ.obj
 0001:000138e4       ASN1_BIT_STRING_new        000248e4 f   libeay32:tasn_typ.obj
 0001:000138fc       ASN1_BIT_STRING_free       000248fc f   libeay32:tasn_typ.obj
 0001:00013914       ASN1_OCTET_STRING_it       00024914 f   libeay32:tasn_typ.obj
 0001:00013920       i2d_ASN1_OCTET_STRING      00024920 f   libeay32:tasn_typ.obj
 0001:00013938       ASN1_OCTET_STRING_new      00024938 f   libeay32:tasn_typ.obj
 0001:00013950       ASN1_OCTET_STRING_free     00024950 f   libeay32:tasn_typ.obj
 0001:00013968       ASN1_NULL_it               00024968 f   libeay32:tasn_typ.obj
 0001:00013974       ASN1_NULL_new              00024974 f   libeay32:tasn_typ.obj
 0001:0001398c       ASN1_OBJECT_it             0002498c f   libeay32:tasn_typ.obj
 0001:00013998       ASN1_UTF8STRING_it         00024998 f   libeay32:tasn_typ.obj
 0001:000139a4       ASN1_IA5STRING_it          000249a4 f   libeay32:tasn_typ.obj
 0001:000139b0       ASN1_GENERALIZEDTIME_it    000249b0 f   libeay32:tasn_typ.obj
 0001:000139bc       ASN1_ANY_it                000249bc f   libeay32:tasn_typ.obj
 0001:000139c8       ASN1_SEQUENCE_it           000249c8 f   libeay32:tasn_typ.obj
 0001:000139d4       d2i_ASN1_TYPE              000249d4 f   libeay32:tasn_typ.obj
 0001:000139ec       i2d_ASN1_TYPE              000249ec f   libeay32:tasn_typ.obj
 0001:00013a04       ASN1_TYPE_new              00024a04 f   libeay32:tasn_typ.obj
 0001:00013a1c       ASN1_TYPE_free             00024a1c f   libeay32:tasn_typ.obj
 0001:00013a34       ASN1_PRINTABLE_it          00024a34 f   libeay32:tasn_typ.obj
 0001:00013a40       DISPLAYTEXT_it             00024a40 f   libeay32:tasn_typ.obj
 0001:00013a4c       DIRECTORYSTRING_it         00024a4c f   libeay32:tasn_typ.obj
 0001:00013a58       ASN1_BOOLEAN_it            00024a58 f   libeay32:tasn_typ.obj
 0001:00013a64       ASN1_FBOOLEAN_it           00024a64 f   libeay32:tasn_typ.obj
 0001:00013a70       ASN1_OCTET_STRING_NDEF_it  00024a70 f   libeay32:tasn_typ.obj
 0001:00013a7c       d2i_ASN1_SEQUENCE_ANY      00024a7c f   libeay32:tasn_typ.obj
 0001:00013a94       i2d_ASN1_SEQUENCE_ANY      00024a94 f   libeay32:tasn_typ.obj
 0001:00013aac       i2d_ASN1_SET_ANY           00024aac f   libeay32:tasn_typ.obj
 0001:00013ac4       ASN1_OCTET_STRING_dup      00024ac4 f   libeay32:a_octet.obj
 0001:00013ad4       ASN1_OCTET_STRING_set      00024ad4 f   libeay32:a_octet.obj
 0001:00013ae4       EC_GROUP_get_basis_type    00024ae4 f   libeay32:ec_asn1.obj
 0001:00013b5c       EC_GROUP_get_trinomial_basis 00024b5c f   libeay32:ec_asn1.obj
 0001:00013bf0       EC_GROUP_get_pentanomial_basis 00024bf0 f   libeay32:ec_asn1.obj
 0001:00013cbc       X9_62_PENTANOMIAL_it       00024cbc f   libeay32:ec_asn1.obj
 0001:00013cd4       X9_62_CHARACTERISTIC_TWO_it 00024cd4 f   libeay32:ec_asn1.obj
 0001:00013cec       X9_62_FIELDID_it           00024cec f   libeay32:ec_asn1.obj
 0001:00013cf8       X9_62_CURVE_it             00024cf8 f   libeay32:ec_asn1.obj
 0001:00013d04       ECPARAMETERS_it            00024d04 f   libeay32:ec_asn1.obj
 0001:00013d10       ECPKPARAMETERS_it          00024d10 f   libeay32:ec_asn1.obj
 0001:00015210       d2i_ECPKParameters         00026210 f   libeay32:ec_asn1.obj
 0001:000152dc       i2d_ECPKParameters         000262dc f   libeay32:ec_asn1.obj
 0001:00015380       d2i_ECPrivateKey           00026380 f   libeay32:ec_asn1.obj
 0001:0001563c       i2d_ECPrivateKey           0002663c f   libeay32:ec_asn1.obj
 0001:000159c0       i2d_ECParameters           000269c0 f   libeay32:ec_asn1.obj
 0001:00015a10       d2i_ECParameters           00026a10 f   libeay32:ec_asn1.obj
 0001:00015af4       o2i_ECPublicKey            00026af4 f   libeay32:ec_asn1.obj
 0001:00015c08       i2o_ECPublicKey            00026c08 f   libeay32:ec_asn1.obj
 0001:00015d4c       EC_GROUP_new               00026d4c f   libeay32:ec_lib.obj
 0001:00015e4c       EC_GROUP_method_of         00026e4c f   libeay32:ec_lib.obj
 0001:00015e54       EC_METHOD_get_field_type   00026e54 f   libeay32:ec_lib.obj
 0001:00015e5c       EC_GROUP_get0_generator    00026e5c f   libeay32:ec_lib.obj
 0001:00015e64       EC_GROUP_get_order         00026e64 f   libeay32:ec_lib.obj
 0001:00015e98       EC_GROUP_get_cofactor      00026e98 f   libeay32:ec_lib.obj
 0001:00015ed0       EC_GROUP_set_curve_name    00026ed0 f   libeay32:ec_lib.obj
 0001:00015ed8       EC_GROUP_get_curve_name    00026ed8 f   libeay32:ec_lib.obj
 0001:00015ee0       EC_GROUP_set_asn1_flag     00026ee0 f   libeay32:ec_lib.obj
 0001:00015ee8       EC_GROUP_get_asn1_flag     00026ee8 f   libeay32:ec_lib.obj
 0001:00015ef0       EC_GROUP_set_point_conversion_form 00026ef0 f   libeay32:ec_lib.obj
 0001:00015ef8       EC_GROUP_get_point_conversion_form 00026ef8 f   libeay32:ec_lib.obj
 0001:00015f00       EC_GROUP_set_seed          00026f00 f   libeay32:ec_lib.obj
 0001:00015f8c       EC_GROUP_get0_seed         00026f8c f   libeay32:ec_lib.obj
 0001:00015f94       EC_GROUP_get_seed_len      00026f94 f   libeay32:ec_lib.obj
 0001:00015f9c       EC_GROUP_set_curve_GFp     00026f9c f   libeay32:ec_lib.obj
 0001:00016004       EC_GROUP_get_curve_GFp     00027004 f   libeay32:ec_lib.obj
 0001:0001606c       EC_GROUP_set_curve_GF2m    0002706c f   libeay32:ec_lib.obj
 0001:000160d4       EC_GROUP_get_curve_GF2m    000270d4 f   libeay32:ec_lib.obj
 0001:00016138       EC_GROUP_get_degree        00027138 f   libeay32:ec_lib.obj
 0001:00016190       EC_EX_DATA_set_data        00027190 f   libeay32:ec_lib.obj
 0001:0001626c       EC_EX_DATA_get_data        0002726c f   libeay32:ec_lib.obj
 0001:000162c0       EC_EX_DATA_free_data       000272c0 f   libeay32:ec_lib.obj
 0001:00016348       EC_EX_DATA_free_all_data   00027348 f   libeay32:ec_lib.obj
 0001:00016398       EC_EX_DATA_clear_free_all_data 00027398 f   libeay32:ec_lib.obj
 0001:000163e8       EC_POINT_new               000273e8 f   libeay32:ec_lib.obj
 0001:000164c8       EC_POINT_free              000274c8 f   libeay32:ec_lib.obj
 0001:000164fc       EC_POINT_clear_free        000274fc f   libeay32:ec_lib.obj
 0001:00016558       EC_POINT_copy              00027558 f   libeay32:ec_lib.obj
 0001:000165ec       EC_POINT_dup               000275ec f   libeay32:ec_lib.obj
 0001:00016634       EC_POINT_set_to_infinity   00027634 f   libeay32:ec_lib.obj
 0001:000166c0       EC_POINT_set_Jprojective_coordinates_GFp 000276c0 f   libeay32:ec_lib.obj
 0001:00016774       EC_POINT_set_affine_coordinates_GFp 00027774 f   libeay32:ec_lib.obj
 0001:00016814       EC_POINT_set_affine_coordinates_GF2m 00027814 f   libeay32:ec_lib.obj
 0001:000168b8       EC_POINT_get_affine_coordinates_GFp 000278b8 f   libeay32:ec_lib.obj
 0001:0001695c       EC_POINT_get_affine_coordinates_GF2m 0002795c f   libeay32:ec_lib.obj
 0001:000169fc       EC_POINT_add               000279fc f   libeay32:ec_lib.obj
 0001:00016ab8       EC_POINT_dbl               00027ab8 f   libeay32:ec_lib.obj
 0001:00016b58       EC_POINT_invert            00027b58 f   libeay32:ec_lib.obj
 0001:00016be4       EC_POINT_is_at_infinity    00027be4 f   libeay32:ec_lib.obj
 0001:00016c6c       EC_POINT_is_on_curve       00027c6c f   libeay32:ec_lib.obj
 0001:00016cf4       EC_POINT_cmp               00027cf4 f   libeay32:ec_lib.obj
 0001:00016d94       EC_POINT_make_affine       00027d94 f   libeay32:ec_lib.obj
 0001:00016e1c       EC_POINTs_make_affine      00027e1c f   libeay32:ec_lib.obj
 0001:00016ee4       EC_POINTs_mul              00027ee4 f   libeay32:ec_lib.obj
 0001:00016f60       EC_POINT_mul               00027f60 f   libeay32:ec_lib.obj
 0001:00016fb4       EC_GROUP_have_precompute_mult 00027fb4 f   libeay32:ec_lib.obj
 0001:00016ffc       EC_GROUP_free              00027ffc f   libeay32:ec_lib.obj
 0001:00017068       EC_GROUP_clear_free        00028068 f   libeay32:ec_lib.obj
 0001:0001710c       EC_GROUP_copy              0002810c f   libeay32:ec_lib.obj
 0001:00017320       EC_GROUP_dup               00028320 f   libeay32:ec_lib.obj
 0001:00017368       EC_GROUP_set_generator     00028368 f   libeay32:ec_lib.obj
 0001:00017448       EC_GROUP_cmp               00028448 f   libeay32:ec_lib.obj
 0001:000176b4       EC_KEY_new                 000286b4 f   libeay32:ec_key.obj
 0001:00017738       EC_KEY_free                00028738 f   libeay32:ec_key.obj
 0001:000177c8       EC_KEY_generate_key        000287c8 f   libeay32:ec_key.obj
 0001:00017924       EC_KEY_get0_group          00028924 f   libeay32:ec_key.obj
 0001:0001792c       EC_KEY_set_group           0002892c f   libeay32:ec_key.obj
 0001:0001796c       EC_KEY_get0_private_key    0002896c f   libeay32:ec_key.obj
 0001:00017974       EC_KEY_get0_public_key     00028974 f   libeay32:ec_key.obj
 0001:0001797c       EC_KEY_set_public_key      0002897c f   libeay32:ec_key.obj
 0001:000179c0       EC_KEY_get_enc_flags       000289c0 f   libeay32:ec_key.obj
 0001:000179c8       EC_KEY_set_enc_flags       000289c8 f   libeay32:ec_key.obj
 0001:000179d0       EC_KEY_get_conv_form       000289d0 f   libeay32:ec_key.obj
 0001:000179d8       EC_KEY_get_key_method_data 000289d8 f   libeay32:ec_key.obj
 0001:00017a44       EC_KEY_insert_key_method_data 00028a44 f   libeay32:ec_key.obj
 0001:00017af4       X509_PUBKEY_it             00028af4 f   libeay32:x_pubkey.obj
 0001:00017b00       X509_PUBKEY_get            00028b00 f   libeay32:x_pubkey.obj
 0001:00017cb0       X509_PUBKEY_set0_param     00028cb0 f   libeay32:x_pubkey.obj
 0001:00017d30       X509_PUBKEY_get0_param     00028d30 f   libeay32:x_pubkey.obj
 0001:000181b0       EC_GROUP_new_by_curve_name 000291b0 f   libeay32:ec_curve.obj
 0001:0001825c       X509_ALGOR_it              0002925c f   libeay32:x_algor.obj
 0001:00018268       d2i_X509_ALGOR             00029268 f   libeay32:x_algor.obj
 0001:00018280       X509_ALGOR_new             00029280 f   libeay32:x_algor.obj
 0001:00018298       X509_ALGOR_free            00029298 f   libeay32:x_algor.obj
 0001:000182b0       X509_ALGOR_set0            000292b0 f   libeay32:x_algor.obj
 0001:00018358       X509_ALGOR_get0            00029358 f   libeay32:x_algor.obj
 0001:000183ac       X509_ALGOR_set_md          000293ac f   libeay32:x_algor.obj
 0001:00018428       PKCS8_PRIV_KEY_INFO_it     00029428 f   libeay32:p8_pkey.obj
 0001:00018434       PKCS8_pkey_set0            00029434 f   libeay32:p8_pkey.obj
 0001:000184e4       PKCS8_pkey_get0            000294e4 f   libeay32:p8_pkey.obj
 0001:000186dc       ecdsa_check                000296dc f   libeay32:ecs_lib.obj
 0001:00018758       ECDSA_size                 00029758 f   libeay32:ecs_lib.obj
 0001:000188ec       BN_CTX_new                 000298ec f   libeay32:bn_ctx.obj
 0001:00018974       BN_CTX_free                00029974 f   libeay32:bn_ctx.obj
 0001:000189f0       BN_CTX_start               000299f0 f   libeay32:bn_ctx.obj
 0001:00018ae0       BN_CTX_end                 00029ae0 f   libeay32:bn_ctx.obj
 0001:00018b70       BN_CTX_get                 00029b70 f   libeay32:bn_ctx.obj
 0001:00018d44       ECPKParameters_print       00029d44 f   libeay32:eck_prn.obj
 0001:0001932c       ASN1_bn_print              0002a32c f   libeay32:t_pkey.obj
 0001:00019520       EC_POINT_point2bn          0002a520 f   libeay32:ec_print.obj
 0001:000195cc       PKCS7_ctrl                 0002a5cc f   libeay32:pk7_lib.obj
 0001:000196f0       PKCS7_SIGNER_INFO_get0_algs 0002a6f0 f   libeay32:pk7_lib.obj
 0001:00019720       PKCS7_RECIP_INFO_get0_alg  0002a720 f   libeay32:pk7_lib.obj
 0001:00019730       PKCS7_stream               0002a730 f   libeay32:pk7_lib.obj
 0001:00019840       OBJ_find_sigid_algs        0002a840 f   libeay32:obj_xref.obj
 0001:000198e0       OBJ_find_sigid_by_algs     0002a8e0 f   libeay32:obj_xref.obj
 0001:00019b5c       CMS_SignerInfo_get0_algs   0002ab5c f   libeay32:cms_sd.obj
 0001:00019b9c       CMS_SignerInfo_sign        0002ab9c f   libeay32:cms_sd.obj
 0001:00019de8       cms_SignedData_init_bio    0002ade8 f   libeay32:cms_sd.obj
 0001:0001a04c       cms_SignedData_final       0002b04c f   libeay32:cms_sd.obj
 0001:0001a0dc       DSA_new_method             0002b0dc f   libeay32:dsa_lib.obj
 0001:0001a28c       DSA_free                   0002b28c f   libeay32:dsa_lib.obj
 0001:0001a380       DSA_size                   0002b380 f   libeay32:dsa_lib.obj
 0001:0001a3e4       DSA_new                    0002b3e4 f   libeay32:dsa_lib.obj
 0001:0001a3f8       ASN1_INTEGER_cmp           0002b3f8 f   libeay32:a_int.obj
 0001:0001a440       i2c_ASN1_INTEGER           0002b440 f   libeay32:a_int.obj
 0001:0001a594       c2i_ASN1_INTEGER           0002b594 f   libeay32:a_int.obj
 0001:0001a758       d2i_ASN1_UINTEGER          0002b758 f   libeay32:a_int.obj
 0001:0001a8c8       ASN1_INTEGER_set           0002b8c8 f   libeay32:a_int.obj
 0001:0001a9d0       ASN1_INTEGER_get           0002b9d0 f   libeay32:a_int.obj
 0001:0001aa64       BN_to_ASN1_INTEGER         0002ba64 f   libeay32:a_int.obj
 0001:0001ab8c       ASN1_INTEGER_to_BN         0002bb8c f   libeay32:a_int.obj
 0001:0001ac80       d2i_DSA_SIG                0002bc80 f   libeay32:dsa_asn1.obj
 0001:0001acf4       d2i_DSAPrivateKey          0002bcf4 f   libeay32:dsa_asn1.obj
 0001:0001ad0c       i2d_DSAPrivateKey          0002bd0c f   libeay32:dsa_asn1.obj
 0001:0001ad24       d2i_DSAparams              0002bd24 f   libeay32:dsa_asn1.obj
 0001:0001ad3c       i2d_DSAparams              0002bd3c f   libeay32:dsa_asn1.obj
 0001:0001ad54       dsa_pub_internal_it        0002bd54 f   libeay32:dsa_asn1.obj
 0001:0001ad60       i2d_DSAPublicKey           0002bd60 f   libeay32:dsa_asn1.obj
 0001:0001ad78       DSA_sign                   0002bd78 f   libeay32:dsa_asn1.obj
 0001:0001adf8       DSA_verify                 0002bdf8 f   libeay32:dsa_asn1.obj
 0001:0001ae78       BN_mod_exp_recp            0002be78 f   libeay32:bn_exp.obj
 0001:0001b284       BN_mod_exp_mont_consttime  0002c284 f   libeay32:bn_exp.obj
 0001:0001b828       BN_mod_exp_mont_word       0002c828 f   libeay32:bn_exp.obj
 0001:0001bc48       BN_mod_exp_mont            0002cc48 f   libeay32:bn_exp.obj
 0001:0001c0a8       BN_mod_exp                 0002d0a8 f   libeay32:bn_exp.obj
 0001:0001c168       X509_signature_dump        0002d168 f   libeay32:t_x509.obj
 0001:0001c254       ASN1_STRING_print          0002d254 f   libeay32:t_x509.obj
 0001:0001c328       ASN1_GENERALIZEDTIME_print 0002d328 f   libeay32:t_x509.obj
 0001:0001c544       X509_NAME_print            0002d544 f   libeay32:t_x509.obj
 0001:0001c674       DSA_do_sign                0002d674 f   libeay32:dsa_sign.obj
 0001:0001c690       DSA_sign_setup             0002d690 f   libeay32:dsa_sign.obj
 0001:0001c6ac       DSA_SIG_new                0002d6ac f   libeay32:dsa_sign.obj
 0001:0001c6e4       DSA_SIG_free               0002d6e4 f   libeay32:dsa_sign.obj
 0001:0001c720       DH_new_method              0002d720 f   libeay32:dh_lib.obj
 0001:0001c8d8       DH_free                    0002d8d8 f   libeay32:dh_lib.obj
 0001:0001c9dc       DH_size                    0002d9dc f   libeay32:dh_lib.obj
 0001:0001ca00       DH_new                     0002da00 f   libeay32:dh_lib.obj
 0001:0001ca70       d2i_DHparams               0002da70 f   libeay32:dh_asn1.obj
 0001:0001ca88       i2d_DHparams               0002da88 f   libeay32:dh_asn1.obj
 0001:0001caa0       DH_generate_key            0002daa0 f   libeay32:dh_key.obj
 0001:0001cabc       DH_compute_key             0002dabc f   libeay32:dh_key.obj
 0001:0001cad8       DH_OpenSSL                 0002dad8 f   libeay32:dh_key.obj
 0001:0001cfd0       RSA_PSS_PARAMS_it          0002dfd0 f   libeay32:rsa_asn1.obj
 0001:0001cfdc       d2i_RSA_PSS_PARAMS         0002dfdc f   libeay32:rsa_asn1.obj
 0001:0001cff4       RSA_PSS_PARAMS_new         0002dff4 f   libeay32:rsa_asn1.obj
 0001:0001d00c       RSA_PSS_PARAMS_free        0002e00c f   libeay32:rsa_asn1.obj
 0001:0001d024       d2i_RSAPrivateKey          0002e024 f   libeay32:rsa_asn1.obj
 0001:0001d03c       i2d_RSAPrivateKey          0002e03c f   libeay32:rsa_asn1.obj
 0001:0001d054       d2i_RSAPublicKey           0002e054 f   libeay32:rsa_asn1.obj
 0001:0001d06c       i2d_RSAPublicKey           0002e06c f   libeay32:rsa_asn1.obj
 0001:0001d084       RSA_size                   0002e084 f   libeay32:rsa_crpt.obj
 0001:0001d0a8       RSA_public_encrypt         0002e0a8 f   libeay32:rsa_crpt.obj
 0001:0001d0d4       RSA_private_encrypt        0002e0d4 f   libeay32:rsa_crpt.obj
 0001:0001d100       RSA_private_decrypt        0002e100 f   libeay32:rsa_crpt.obj
 0001:0001d12c       RSA_public_decrypt         0002e12c f   libeay32:rsa_crpt.obj
 0001:0001d23c       RSA_setup_blinding         0002e23c f   libeay32:rsa_crpt.obj
 0001:0001d410       RSA_new_method             0002e410 f   libeay32:rsa_lib.obj
 0001:0001d5f4       RSA_free                   0002e5f4 f   libeay32:rsa_lib.obj
 0001:0001d728       RSA_new                    0002e728 f   libeay32:rsa_lib.obj
 0001:0001d73c       i2a_ASN1_INTEGER           0002e73c f   libeay32:f_int.obj
 0001:0001d884       CMS_RecipientInfo_ktri_get0_algs 0002e884 f   libeay32:cms_env.obj
 0001:0001dbe0       cms_EnvelopedData_init_bio 0002ebe0 f   libeay32:cms_env.obj
 0001:0001dec0       EVP_DigestSignInit         0002eec0 f   libeay32:m_sigver.obj
 0001:0001dee8       EVP_DigestVerifyInit       0002eee8 f   libeay32:m_sigver.obj
 0001:0001df10       EVP_DigestSignFinal        0002ef10 f   libeay32:m_sigver.obj
 0001:0001e050       EVP_DigestVerifyFinal      0002f050 f   libeay32:m_sigver.obj
 0001:0001e124       ASN1_item_pack             0002f124 f   libeay32:asn_pack.obj
 0001:0001e214       EVP_CIPHER_CTX_block_size  0002f214 f   libeay32:evp_lib.obj
 0001:0001e220       EVP_Cipher                 0002f220 f   libeay32:evp_lib.obj
 0001:0001e23c       EVP_CIPHER_CTX_cipher      0002f23c f   libeay32:evp_lib.obj
 0001:0001e244       EVP_CIPHER_CTX_flags       0002f244 f   libeay32:evp_lib.obj
 0001:0001e250       EVP_CIPHER_iv_length       0002f250 f   libeay32:evp_lib.obj
 0001:0001e258       EVP_CIPHER_CTX_iv_length   0002f258 f   libeay32:evp_lib.obj
 0001:0001e264       EVP_CIPHER_key_length      0002f264 f   libeay32:evp_lib.obj
 0001:0001e26c       EVP_CIPHER_CTX_key_length  0002f26c f   libeay32:evp_lib.obj
 0001:0001e274       EVP_MD_block_size          0002f274 f   libeay32:evp_lib.obj
 0001:0001e27c       EVP_MD_type                0002f27c f   libeay32:evp_lib.obj
 0001:0001e284       EVP_MD_pkey_type           0002f284 f   libeay32:evp_lib.obj
 0001:0001e28c       EVP_MD_size                0002f28c f   libeay32:evp_lib.obj
 0001:0001e2d8       EVP_MD_CTX_md              0002f2d8 f   libeay32:evp_lib.obj
 0001:0001e2e8       EVP_MD_CTX_set_flags       0002f2e8 f   libeay32:evp_lib.obj
 0001:0001e2f8       EVP_MD_CTX_clear_flags     0002f2f8 f   libeay32:evp_lib.obj
 0001:0001e308       EVP_MD_CTX_test_flags      0002f308 f   libeay32:evp_lib.obj
 0001:0001e314       EVP_CIPHER_get_asn1_iv     0002f314 f   libeay32:evp_lib.obj
 0001:0001e38c       EVP_CIPHER_set_asn1_iv     0002f38c f   libeay32:evp_lib.obj
 0001:0001e3dc       EVP_CIPHER_type            0002f3dc f   libeay32:evp_lib.obj
 0001:0001e50c       EVP_CIPHER_param_to_asn1   0002f50c f   libeay32:evp_lib.obj
 0001:0001e554       EVP_CIPHER_asn1_to_param   0002f554 f   libeay32:evp_lib.obj
 0001:0001e59c       X509V3_add_value           0002f59c f   libeay32:v3_utl.obj
 0001:0001e694       X509V3_add_value_uchar     0002f694 f   libeay32:v3_utl.obj
 0001:0001e6a4       X509V3_conf_free           0002f6a4 f   libeay32:v3_utl.obj
 0001:0001e6f0       X509V3_add_value_bool      0002f6f0 f   libeay32:v3_utl.obj
 0001:0001e714       i2s_ASN1_ENUMERATED        0002f714 f   libeay32:v3_utl.obj
 0001:0001e784       i2s_ASN1_INTEGER           0002f784 f   libeay32:v3_utl.obj
 0001:0001e7f4       s2i_ASN1_INTEGER           0002f7f4 f   libeay32:v3_utl.obj
 0001:0001e944       X509V3_add_value_int       0002f944 f   libeay32:v3_utl.obj
 0001:0001e998       X509V3_get_value_bool      0002f998 f   libeay32:v3_utl.obj
 0001:0001eb54       X509V3_get_value_int       0002fb54 f   libeay32:v3_utl.obj
 0001:0001ec68       hex_to_string              0002fc68 f   libeay32:v3_utl.obj
 0001:0001ed28       string_to_hex              0002fd28 f   libeay32:v3_utl.obj
 0001:0001eef0       name_cmp                   0002fef0 f   libeay32:v3_utl.obj
 0001:0001efd4       X509V3_NAME_from_section   0002ffd4 f   libeay32:v3_utl.obj
 0001:0001f0bc       X509V3_parse_list          000300bc f   libeay32:v3_utl.obj
 0001:0001f52c       a2i_ipadd                  0003052c f   libeay32:v3_utl.obj
 0001:0001f590       a2i_IPADDRESS              00030590 f   libeay32:v3_utl.obj
 0001:0001f5ec       a2i_IPADDRESS_NC           000305ec f   libeay32:v3_utl.obj
 0001:0001f6b8       HMAC_Init_ex               000306b8 f   libeay32:hmac.obj
 0001:0001f8b0       HMAC_Update                000308b0 f   libeay32:hmac.obj
 0001:0001f8c4       HMAC_Final                 000308c4 f   libeay32:hmac.obj
 0001:0001f94c       HMAC_CTX_init              0003094c f   libeay32:hmac.obj
 0001:0001f974       HMAC_CTX_copy              00030974 f   libeay32:hmac.obj
 0001:0001f9f4       HMAC_CTX_cleanup           000309f4 f   libeay32:hmac.obj
 0001:0001fa2c       HMAC_CTX_set_flags         00030a2c f   libeay32:hmac.obj
 0001:0001fa60       HMAC_Init                  00030a60 f   libeay32:hmac.obj
 0001:0001fac4       HMAC                       00030ac4 f   libeay32:hmac.obj
 0001:0001fb70       ECDSA_do_sign_ex           00030b70 f   libeay32:ecs_sign.obj
 0001:0001fbd0       ECDSA_sign_ex              00030bd0 f   libeay32:ecs_sign.obj
 0001:0001fc58       ECDSA_sign_setup           00030c58 f   libeay32:ecs_sign.obj
 0001:0001fca8       ECDSA_sign                 00030ca8 f   libeay32:ecs_sign.obj
 0001:0001fcdc       ECDSA_do_verify            00030cdc f   libeay32:ecs_vrf.obj
 0001:0001fd30       ECDSA_verify               00030d30 f   libeay32:ecs_vrf.obj
 0001:0001fda8       ECDH_compute_key           00030da8 f   libeay32:ech_key.obj
 0001:0001fe08       dsa_builtin_paramgen       00030e08 f   libeay32:dsa_gen.obj
 0001:0002059c       evp_pkey_set_cb_translate  0003159c f   libeay32:pmeth_gn.obj
 0001:000206f0       DSA_generate_key           000316f0 f   libeay32:dsa_key.obj
 0001:00020904       DH_generate_parameters_ex  00031904 f   libeay32:dh_gen.obj
 0001:00020934       RSA_verify_PKCS1_PSS_mgf1  00031934 f   libeay32:rsa_pss.obj
 0001:00020e64       RSA_padding_add_PKCS1_PSS_mgf1 00031e64 f   libeay32:rsa_pss.obj
 0001:000212b8       RSA_sign                   000322b8 f   libeay32:rsa_sign.obj
 0001:000214fc       int_rsa_verify             000324fc f   libeay32:rsa_sign.obj
 0001:000218e8       RSA_verify                 000328e8 f   libeay32:rsa_sign.obj
 0001:00021960       RSA_padding_add_X931       00032960 f   libeay32:rsa_x931.obj
 0001:00021a0c       RSA_padding_check_X931     00032a0c f   libeay32:rsa_x931.obj
 0001:00021b34       RSA_X931_hash_id           00032b34 f   libeay32:rsa_x931.obj
 0001:00021b84       RSA_sign_ASN1_OCTET_STRING 00032b84 f   libeay32:rsa_saos.obj
 0001:0002224c       RSA_generate_key_ex        0003324c f   libeay32:rsa_gen.obj
 0001:0002227c       X509_ATTRIBUTE_SET_it      0003327c f   libeay32:x_attrib.obj
 0001:00022288       X509_ATTRIBUTE_it          00033288 f   libeay32:x_attrib.obj
 0001:00022294       X509_ATTRIBUTE_new         00033294 f   libeay32:x_attrib.obj
 0001:000222ac       X509_ATTRIBUTE_free        000332ac f   libeay32:x_attrib.obj
 0001:000222c4       X509_ATTRIBUTE_dup         000332c4 f   libeay32:x_attrib.obj
 0001:000222e0       X509_ATTRIBUTE_create      000332e0 f   libeay32:x_attrib.obj
 0001:0002245c       OBJ_NAME_init              0003345c f   libeay32:o_names.obj
 0001:000224c4       OBJ_NAME_get               000334c4 f   libeay32:o_names.obj
 0001:00022594       EVP_PBE_find               00033594 f   libeay32:evp_pbe.obj
 0001:00022658       EVP_PBE_CipherInit         00033658 f   libeay32:evp_pbe.obj
 0001:00022810       bn_mul_add_words           00033810 f   libeay32:bn_asm.obj
 0001:00022868       bn_mul_words               00033868 f   libeay32:bn_asm.obj
 0001:000228b4       bn_sqr_words               000338b4 f   libeay32:bn_asm.obj
 0001:000228e0       bn_div_words               000338e0 f   libeay32:bn_asm.obj
 0001:00022910       bn_add_words               00033910 f   libeay32:bn_asm.obj
 0001:00022964       bn_sub_words               00033964 f   libeay32:bn_asm.obj
 0001:000229c4       ENGINE_get_digest_engine   000339c4 f   libeay32:tb_digest.obj
 0001:000229e0       ENGINE_get_digest          000339e0 f   libeay32:tb_digest.obj
 0001:00022a44       SHA1_Init                  00033a44 f   libeay32:sha1dgst.obj
 0001:00022dfc       SHA1_Update                00033dfc f   libeay32:sha1dgst.obj
 0001:00022f04       SHA1_Final                 00033f04 f   libeay32:sha1dgst.obj
 0001:00023074       SHA224_Init                00034074 f   libeay32:sha256.obj
 0001:000230f4       SHA256_Init                000340f4 f   libeay32:sha256.obj
 0001:00023494       SHA256_Update              00034494 f   libeay32:sha256.obj
 0001:0002359c       SHA256_Final               0003459c f   libeay32:sha256.obj
 0001:00023724       SHA384_Init                00034724 f   libeay32:sha512.obj
 0001:00023814       SHA512_Init                00034814 f   libeay32:sha512.obj
 0001:000240dc       SHA512_Final               000350dc f   libeay32:sha512.obj
 0001:00024308       SHA512_Update              00035308 f   libeay32:sha512.obj
 0001:00024458       EVP_CIPHER_CTX_init        00035458 f   libeay32:evp_enc.obj
 0001:00024470       EVP_EncryptUpdate          00035470 f   libeay32:evp_enc.obj
 0001:00024660       EVP_EncryptFinal_ex        00035660 f   libeay32:evp_enc.obj
 0001:0002478c       EVP_DecryptUpdate          0003578c f   libeay32:evp_enc.obj
 0001:00024908       EVP_DecryptFinal_ex        00035908 f   libeay32:evp_enc.obj
 0001:00024ae0       EVP_CIPHER_CTX_cleanup     00035ae0 f   libeay32:evp_enc.obj
 0001:00024b6c       EVP_CIPHER_CTX_set_padding 00035b6c f   libeay32:evp_enc.obj
 0001:00024b88       EVP_CIPHER_CTX_ctrl        00035b88 f   libeay32:evp_enc.obj
 0001:00024c38       EVP_CIPHER_CTX_rand_key    00035c38 f   libeay32:evp_enc.obj
 0001:00024c8c       EVP_CIPHER_CTX_copy        00035c8c f   libeay32:evp_enc.obj
 0001:00024ddc       EVP_CipherInit_ex          00035ddc f   libeay32:evp_enc.obj
 0001:0002513c       EVP_CipherUpdate           0003613c f   libeay32:evp_enc.obj
 0001:00025180       EVP_CipherFinal_ex         00036180 f   libeay32:evp_enc.obj
 0001:000251a8       EVP_EncryptInit_ex         000361a8 f   libeay32:evp_enc.obj
 0001:000251d0       EVP_DecryptInit_ex         000361d0 f   libeay32:evp_enc.obj
 0001:000251f8       EVP_CIPHER_CTX_set_key_length 000361f8 f   libeay32:evp_enc.obj
 0001:00025280       ASN1_tag2bit               00036280 f   libeay32:tasn_dec.obj
 0001:00025298       asn1_ex_c2i                00036298 f   libeay32:tasn_dec.obj
 0001:00026170       ASN1_item_ex_d2i           00037170 f   libeay32:tasn_dec.obj
 0001:00026f44       ASN1_item_d2i              00037f44 f   libeay32:tasn_dec.obj
 0001:000272f4       asn1_ex_i2c                000382f4 f   libeay32:tasn_enc.obj
 0001:000275e0       ASN1_item_ex_i2d           000385e0 f   libeay32:tasn_enc.obj
 0001:00027cb8       ASN1_item_i2d              00038cb8 f   libeay32:tasn_enc.obj
 0001:00027ccc       ASN1_primitive_new         00038ccc f   libeay32:tasn_new.obj
 0001:00028208       ASN1_item_ex_new           00039208 f   libeay32:tasn_new.obj
 0001:0002821c       ASN1_template_new          0003921c f   libeay32:tasn_new.obj
 0001:000282f4       ASN1_item_new              000392f4 f   libeay32:tasn_new.obj
 0001:0002832c       ASN1_primitive_free        0003932c f   libeay32:tasn_fre.obj
 0001:000286a0       ASN1_template_free         000396a0 f   libeay32:tasn_fre.obj
 0001:00028754       ASN1_item_free             00039754 f   libeay32:tasn_fre.obj
 0001:00028774       ASN1_item_ex_free          00039774 f   libeay32:tasn_fre.obj
 0001:00028788       LONG_it                    00039788 f   libeay32:x_long.obj
 0001:00028794       ZLONG_it                   00039794 f   libeay32:x_long.obj
 0001:00028988       ec_GF2m_simple_group_init  00039988 f   libeay32:ec2_smpl.obj
 0001:000289b4       ec_GF2m_simple_group_finish 000399b4 f   libeay32:ec2_smpl.obj
 0001:000289dc       ec_GF2m_simple_group_clear_finish 000399dc f   libeay32:ec2_smpl.obj
 0001:00028a24       ec_GF2m_simple_group_copy  00039a24 f   libeay32:ec2_smpl.obj
 0001:00028b70       ec_GF2m_simple_group_set_curve 00039b70 f   libeay32:ec2_smpl.obj
 0001:00028ce0       ec_GF2m_simple_group_get_curve 00039ce0 f   libeay32:ec2_smpl.obj
 0001:00028d5c       ec_GF2m_simple_group_get_degree 00039d5c f   libeay32:ec2_smpl.obj
 0001:00028d74       ec_GF2m_simple_group_check_discriminant 00039d74 f   libeay32:ec2_smpl.obj
 0001:00028e28       ec_GF2m_simple_point_init  00039e28 f   libeay32:ec2_smpl.obj
 0001:00028e54       ec_GF2m_simple_point_finish 00039e54 f   libeay32:ec2_smpl.obj
 0001:00028e7c       ec_GF2m_simple_point_clear_finish 00039e7c f   libeay32:ec2_smpl.obj
 0001:00028eac       ec_GF2m_simple_point_copy  00039eac f   libeay32:ec2_smpl.obj
 0001:00028f14       ec_GF2m_simple_point_set_to_infinity 00039f14 f   libeay32:ec2_smpl.obj
 0001:00028f3c       ec_GF2m_simple_point_set_affine_coordinates 00039f3c f   libeay32:ec2_smpl.obj
 0001:00029008       ec_GF2m_simple_point_get_affine_coordinates 0003a008 f   libeay32:ec2_smpl.obj
 0001:000290f8       ec_GF2m_simple_add         0003a0f8 f   libeay32:ec2_smpl.obj
 0001:000294fc       ec_GF2m_simple_dbl         0003a4fc f   libeay32:ec2_smpl.obj
 0001:00029520       ec_GF2m_simple_invert      0003a520 f   libeay32:ec2_smpl.obj
 0001:0002958c       ec_GF2m_simple_is_at_infinity 0003a58c f   libeay32:ec2_smpl.obj
 0001:000295a0       ec_GF2m_simple_is_on_curve 0003a5a0 f   libeay32:ec2_smpl.obj
 0001:00029730       ec_GF2m_simple_cmp         0003a730 f   libeay32:ec2_smpl.obj
 0001:000298bc       ec_GF2m_simple_make_affine 0003a8bc f   libeay32:ec2_smpl.obj
 0001:000299c0       ec_GF2m_simple_points_make_affine 0003a9c0 f   libeay32:ec2_smpl.obj
 0001:00029a28       ec_GF2m_simple_field_mul   0003aa28 f   libeay32:ec2_smpl.obj
 0001:00029a64       ec_GF2m_simple_field_sqr   0003aa64 f   libeay32:ec2_smpl.obj
 0001:00029a88       ec_GF2m_simple_field_div   0003aa88 f   libeay32:ec2_smpl.obj
 0001:00029ac4       EC_GF2m_simple_method      0003aac4 f   libeay32:ec2_smpl.obj
 0001:00029ad0       ASN1_BIT_STRING_set        0003aad0 f   libeay32:a_bitstr.obj
 0001:00029ae0       i2c_ASN1_BIT_STRING        0003aae0 f   libeay32:a_bitstr.obj
 0001:00029be4       c2i_ASN1_BIT_STRING        0003abe4 f   libeay32:a_bitstr.obj
 0001:00029d28       ASN1_BIT_STRING_set_bit    0003ad28 f   libeay32:a_bitstr.obj
 0001:00029e78       ASN1_BIT_STRING_get_bit    0003ae78 f   libeay32:a_bitstr.obj
 0001:00029ed4       EC_POINT_set_compressed_coordinates_GFp 0003aed4 f   libeay32:ec_oct.obj
 0001:00029fcc       EC_POINT_set_compressed_coordinates_GF2m 0003afcc f   libeay32:ec_oct.obj
 0001:0002a0c4       EC_POINT_point2oct         0003b0c4 f   libeay32:ec_oct.obj
 0001:0002a1d4       EC_POINT_oct2point         0003b1d4 f   libeay32:ec_oct.obj
 0001:0002a2cc       EC_GROUP_new_curve_GFp     0003b2cc f   libeay32:ec_cvt.obj
 0001:0002a398       EC_GROUP_new_curve_GF2m    0003b398 f   libeay32:ec_cvt.obj
 0001:0002a80c       ec_wNAF_mul                0003b80c f   libeay32:ec_mult.obj
 0001:0002b3b4       ec_wNAF_precompute_mult    0003c3b4 f   libeay32:ec_mult.obj
 0001:0002b8c0       ec_wNAF_have_precompute_mult 0003c8c0 f   libeay32:ec_mult.obj
 0001:0002bb04       BN_rand                    0003cb04 f   libeay32:bn_rand.obj
 0001:0002bb34       BN_pseudo_rand             0003cb34 f   libeay32:bn_rand.obj
 0001:0002bd4c       BN_rand_range              0003cd4c f   libeay32:bn_rand.obj
 0001:0002bd68       BN_pseudo_rand_range       0003cd68 f   libeay32:bn_rand.obj
 0001:0002bd84       ASN1_item_dup              0003cd84 f   libeay32:a_dup.obj
 0001:0002be18       ASN1_TYPE_get              0003ce18 f   libeay32:a_type.obj
 0001:0002be3c       ASN1_TYPE_set              0003ce3c f   libeay32:a_type.obj
 0001:0002bea8       ASN1_TYPE_set1             0003cea8 f   libeay32:a_type.obj
 0001:0002bf1c       ECDSA_OpenSSL              0003cf1c f   libeay32:ecs_ossl.obj
 0001:0002cbe0       ENGINE_get_default_ECDSA   0003dbe0 f   libeay32:tb_ecdsa.obj
 0001:0002cbfc       ENGINE_get_ECDSA           0003dbfc f   libeay32:tb_ecdsa.obj
 0001:0002cc94       PKCS7_it                   0003dc94 f   libeay32:pk7_asn1.obj
 0001:0002cca0       PKCS7_SIGNED_it            0003dca0 f   libeay32:pk7_asn1.obj
 0001:0002cccc       PKCS7_SIGNER_INFO_it       0003dccc f   libeay32:pk7_asn1.obj
 0001:0002ccd8       PKCS7_ISSUER_AND_SERIAL_it 0003dcd8 f   libeay32:pk7_asn1.obj
 0001:0002cce4       PKCS7_ENVELOPE_it          0003dce4 f   libeay32:pk7_asn1.obj
 0001:0002cd10       PKCS7_RECIP_INFO_it        0003dd10 f   libeay32:pk7_asn1.obj
 0001:0002cd1c       PKCS7_ENC_CONTENT_it       0003dd1c f   libeay32:pk7_asn1.obj
 0001:0002cd28       PKCS7_SIGN_ENVELOPE_it     0003dd28 f   libeay32:pk7_asn1.obj
 0001:0002cd34       PKCS7_ENCRYPT_it           0003dd34 f   libeay32:pk7_asn1.obj
 0001:0002cd40       PKCS7_DIGEST_it            0003dd40 f   libeay32:pk7_asn1.obj
 0001:0002cd4c       PKCS7_ATTR_SIGN_it         0003dd4c f   libeay32:pk7_asn1.obj
 0001:0002cd58       X509_CINF_it               0003dd58 f   libeay32:x_x509.obj
 0001:0002ce54       X509_it                    0003de54 f   libeay32:x_x509.obj
 0001:0002ce60       X509_free                  0003de60 f   libeay32:x_x509.obj
 0001:0002ce78       X509_REVOKED_it            0003de78 f   libeay32:x_crl.obj
 0001:0002ce84       X509_CRL_INFO_it           0003de84 f   libeay32:x_crl.obj
 0001:0002d114       X509_CRL_it                0003e114 f   libeay32:x_crl.obj
 0001:0002d594       X509_get_issuer_name       0003e594 f   libeay32:x509_cmp.obj
 0001:0002d5a0       X509_get_subject_name      0003e5a0 f   libeay32:x509_cmp.obj
 0001:0002d5ac       X509_get_serialNumber      0003e5ac f   libeay32:x509_cmp.obj
 0001:0002d5b8       X509_NAME_cmp              0003e5b8 f   libeay32:x509_cmp.obj
 0001:0002d648       X509_get_pubkey            0003e648 f   libeay32:x509_cmp.obj
 0001:0002d67c       X509_NAME_ENTRY_it         0003e67c f   libeay32:x_name.obj
 0001:0002d688       X509_NAME_ENTRY_new        0003e688 f   libeay32:x_name.obj
 0001:0002d6a0       X509_NAME_ENTRY_free       0003e6a0 f   libeay32:x_name.obj
 0001:0002d6b8       X509_NAME_ENTRY_dup        0003e6b8 f   libeay32:x_name.obj
 0001:0002d6d4       X509_NAME_ENTRIES_it       0003e6d4 f   libeay32:x_name.obj
 0001:0002d6e0       X509_NAME_it               0003e6e0 f   libeay32:x_name.obj
 0001:0002d6ec       i2d_X509_NAME              0003e6ec f   libeay32:x_name.obj
 0001:0002d704       X509_NAME_new              0003e704 f   libeay32:x_name.obj
 0001:0002d71c       X509_NAME_free             0003e71c f   libeay32:x_name.obj
 0001:0002d734       X509_NAME_dup              0003e734 f   libeay32:x_name.obj
 0001:0002dfc0       CMS_IssuerAndSerialNumber_it 0003efc0 f   libeay32:cms_asn1.obj
 0001:0002dfcc       CMS_OtherCertificateFormat_it 0003efcc f   libeay32:cms_asn1.obj
 0001:0002dfd8       CMS_CertificateChoices_it  0003efd8 f   libeay32:cms_asn1.obj
 0001:0002dfe4       CMS_SignerIdentifier_it    0003efe4 f   libeay32:cms_asn1.obj
 0001:0002dff0       CMS_EncapsulatedContentInfo_it 0003eff0 f   libeay32:cms_asn1.obj
 0001:0002e038       CMS_SignerInfo_it          0003f038 f   libeay32:cms_asn1.obj
 0001:0002e044       CMS_OtherRevocationInfoFormat_it 0003f044 f   libeay32:cms_asn1.obj
 0001:0002e050       CMS_RevocationInfoChoice_it 0003f050 f   libeay32:cms_asn1.obj
 0001:0002e05c       CMS_SignedData_it          0003f05c f   libeay32:cms_asn1.obj
 0001:0002e068       CMS_OriginatorInfo_it      0003f068 f   libeay32:cms_asn1.obj
 0001:0002e074       CMS_EncryptedContentInfo_it 0003f074 f   libeay32:cms_asn1.obj
 0001:0002e080       CMS_KeyTransRecipientInfo_it 0003f080 f   libeay32:cms_asn1.obj
 0001:0002e08c       CMS_OtherKeyAttribute_it   0003f08c f   libeay32:cms_asn1.obj
 0001:0002e098       CMS_RecipientKeyIdentifier_it 0003f098 f   libeay32:cms_asn1.obj
 0001:0002e0a4       CMS_KeyAgreeRecipientIdentifier_it 0003f0a4 f   libeay32:cms_asn1.obj
 0001:0002e0b0       CMS_RecipientEncryptedKey_it 0003f0b0 f   libeay32:cms_asn1.obj
 0001:0002e0bc       CMS_OriginatorPublicKey_it 0003f0bc f   libeay32:cms_asn1.obj
 0001:0002e0c8       CMS_OriginatorIdentifierOrKey_it 0003f0c8 f   libeay32:cms_asn1.obj
 0001:0002e0d4       CMS_KeyAgreeRecipientInfo_it 0003f0d4 f   libeay32:cms_asn1.obj
 0001:0002e0e0       CMS_KEKIdentifier_it       0003f0e0 f   libeay32:cms_asn1.obj
 0001:0002e0ec       CMS_KEKRecipientInfo_it    0003f0ec f   libeay32:cms_asn1.obj
 0001:0002e0f8       CMS_PasswordRecipientInfo_it 0003f0f8 f   libeay32:cms_asn1.obj
 0001:0002e104       CMS_OtherRecipientInfo_it  0003f104 f   libeay32:cms_asn1.obj
 0001:0002e198       CMS_RecipientInfo_it       0003f198 f   libeay32:cms_asn1.obj
 0001:0002e1a4       CMS_EnvelopedData_it       0003f1a4 f   libeay32:cms_asn1.obj
 0001:0002e1b0       CMS_DigestedData_it        0003f1b0 f   libeay32:cms_asn1.obj
 0001:0002e1bc       CMS_EncryptedData_it       0003f1bc f   libeay32:cms_asn1.obj
 0001:0002e1c8       CMS_AuthenticatedData_it   0003f1c8 f   libeay32:cms_asn1.obj
 0001:0002e1d4       CMS_CompressedData_it      0003f1d4 f   libeay32:cms_asn1.obj
 0001:0002e278       CMS_Attributes_Sign_it     0003f278 f   libeay32:cms_asn1.obj
 0001:0002e284       CMS_ReceiptsFrom_it        0003f284 f   libeay32:cms_asn1.obj
 0001:0002e290       X509_PURPOSE_get0          0003f290 f   libeay32:v3_purp.obj
 0001:0002e2dc       X509_PURPOSE_get_by_id     0003f2dc f   libeay32:v3_purp.obj
 0001:0002e344       X509_supported_extension   0003f344 f   libeay32:v3_purp.obj
 0001:0002edbc       X509_check_purpose         0003fdbc f   libeay32:v3_purp.obj
 0001:0002ee54       ASN1_TIME_it               0003fe54 f   libeay32:a_time.obj
 0001:0002ee60       ASN1_TIME_free             0003fe60 f   libeay32:a_time.obj
 0001:0002ee78       ASN1_TIME_adj              0003fe78 f   libeay32:a_time.obj
 0001:0002ef48       ASN1_TIME_check            0003ff48 f   libeay32:a_time.obj
 0001:0002ef84       CMS_signed_get_attr_count  0003ff84 f   libeay32:cms_att.obj
 0001:0002ef98       CMS_signed_get_attr_by_NID 0003ff98 f   libeay32:cms_att.obj
 0001:0002efac       CMS_signed_add1_attr_by_NID 0003ffac f   libeay32:cms_att.obj
 0001:0002efdc       X509_time_adj_ex           0003ffdc f   libeay32:x509_vfy.obj
 0001:0002f078       X509_gmtime_adj            00040078 f   libeay32:x509_vfy.obj
 0001:0002f094       CMS_get0_content           00040094 f   libeay32:cms_lib.obj
 0001:0002f184       cms_DigestAlgorithm_init_bio 00040184 f   libeay32:cms_lib.obj
 0001:0002f24c       cms_DigestAlgorithm_find_ctx 0004024c f   libeay32:cms_lib.obj
 0001:0002f31c       cms_content_bio            0004031c f   libeay32:cms_lib.obj
 0001:0002f378       CMS_dataInit               00040378 f   libeay32:cms_lib.obj
 0001:0002f47c       CMS_dataFinal              0004047c f   libeay32:cms_lib.obj
 0001:0002f5e4       EVP_SignFinal              000405e4 f   libeay32:p_sign.obj
 0001:0002f7b0       DSA_OpenSSL                000407b0 f   libeay32:dsa_ossl.obj
 0001:0002fff8       ENGINE_get_default_DSA     00040ff8 f   libeay32:tb_dsa.obj
 0001:00030014       ENGINE_get_DSA             00041014 f   libeay32:tb_dsa.obj
 0001:0003001c       BIGNUM_it                  0004101c f   libeay32:x_bignum.obj
 0001:00030028       CBIGNUM_it                 00041028 f   libeay32:x_bignum.obj
 0001:00030168       DSA_do_verify              00041168 f   libeay32:dsa_vrf.obj
 0001:00030184       bn_mul_normal              00041184 f   libeay32:bn_mul.obj
 0001:00030294       BN_mul                     00041294 f   libeay32:bn_mul.obj
 0001:000303b4       bn_sqr_normal              000413b4 f   libeay32:bn_sqr.obj
 0001:000304a0       BN_sqr                     000414a0 f   libeay32:bn_sqr.obj
 0001:000305d8       BN_RECP_CTX_init           000415d8 f   libeay32:bn_recp.obj
 0001:00030600       BN_RECP_CTX_free           00041600 f   libeay32:bn_recp.obj
 0001:00030634       BN_RECP_CTX_set            00041634 f   libeay32:bn_recp.obj
 0001:00030680       BN_reciprocal              00041680 f   libeay32:bn_recp.obj
 0001:00030700       BN_div_recp                00041700 f   libeay32:bn_recp.obj
 0001:0003095c       BN_mod_mul_reciprocal      0004195c f   libeay32:bn_recp.obj
 0001:00030a08       BN_nnmod                   00041a08 f   libeay32:bn_mod.obj
 0001:00030a88       BN_mod_add                 00041a88 f   libeay32:bn_mod.obj
 0001:00030ac4       BN_mod_add_quick           00041ac4 f   libeay32:bn_mod.obj
 0001:00030b1c       BN_mod_sub_quick           00041b1c f   libeay32:bn_mod.obj
 0001:00030b6c       BN_mod_mul                 00041b6c f   libeay32:bn_mod.obj
 0001:00030bfc       BN_mod_sqr                 00041bfc f   libeay32:bn_mod.obj
 0001:00030c40       BN_mod_lshift1_quick       00041c40 f   libeay32:bn_mod.obj
 0001:00030c98       BN_mod_lshift_quick        00041c98 f   libeay32:bn_mod.obj
 0001:00031030       BN_from_montgomery         00042030 f   libeay32:bn_mont.obj
 0001:0003109c       BN_MONT_CTX_init           0004209c f   libeay32:bn_mont.obj
 0001:000310d4       BN_MONT_CTX_free           000420d4 f   libeay32:bn_mont.obj
 0001:00031110       BN_MONT_CTX_set            00042110 f   libeay32:bn_mont.obj
 0001:000312d8       BN_MONT_CTX_copy           000422d8 f   libeay32:bn_mont.obj
 0001:00031354       BN_mod_mul_montgomery      00042354 f   libeay32:bn_mont.obj
 0001:000313e0       BN_MONT_CTX_new            000423e0 f   libeay32:bn_mont.obj
 0001:00031424       BN_MONT_CTX_set_locked     00042424 f   libeay32:bn_mont.obj
 0001:000314fc       BN_div                     000424fc f   libeay32:bn_div.obj
 0001:00031ab0       X509_NAME_oneline          00042ab0 f   libeay32:x509_obj.obj
 0001:00032968       X509_NAME_print_ex         00043968 f   libeay32:a_strex.obj
 0001:000329ac       ASN1_STRING_to_UTF8        000439ac f   libeay32:a_strex.obj
 0001:00032a3c       ENGINE_get_default_DH      00043a3c f   libeay32:tb_dh.obj
 0001:00032a58       ENGINE_get_DH              00043a58 f   libeay32:tb_dh.obj
 0001:00032a60       DH_check_pub_key           00043a60 f   libeay32:dh_check.obj
 0001:00032afc       BN_BLINDING_free           00043afc f   libeay32:bn_blind.obj
 0001:00032b58       BN_BLINDING_invert_ex      00043b58 f   libeay32:bn_blind.obj
 0001:00032bdc       BN_BLINDING_thread_id      00043bdc f   libeay32:bn_blind.obj
 0001:00032be4       BN_BLINDING_new            00043be4 f   libeay32:bn_blind.obj
 0001:00032cd8       BN_BLINDING_create_param   00043cd8 f   libeay32:bn_blind.obj
 0001:00032eb4       BN_BLINDING_update         00043eb4 f   libeay32:bn_blind.obj
 0001:00032fc8       BN_BLINDING_convert_ex     00043fc8 f   libeay32:bn_blind.obj
 0001:000334f8       BN_gcd                     000444f8 f   libeay32:bn_gcd.obj
 0001:000335cc       BN_mod_inverse             000445cc f   libeay32:bn_gcd.obj
 0001:00033c40       BN_uadd                    00044c40 f   libeay32:bn_add.obj
 0001:00033d3c       BN_usub                    00044d3c f   libeay32:bn_add.obj
 0001:00033ee4       BN_sub                     00044ee4 f   libeay32:bn_add.obj
 0001:00033fdc       BN_add                     00044fdc f   libeay32:bn_add.obj
 0001:00034090       RSA_PKCS1_SSLeay           00045090 f   libeay32:rsa_eay.obj
 0001:000358b0       ENGINE_get_default_RSA     000468b0 f   libeay32:tb_rsa.obj
 0001:000358cc       ENGINE_get_RSA             000468cc f   libeay32:tb_rsa.obj
 0001:000358d4       cms_EncryptedContent_init_bio 000468d4 f   libeay32:cms_enc.obj
 0001:00035c94       cms_EncryptedData_init_bio 00046c94 f   libeay32:cms_enc.obj
 0001:00035cc4       EVP_PKEY_sign_init         00046cc4 f   libeay32:pmeth_fn.obj
 0001:00035d54       EVP_PKEY_sign              00046d54 f   libeay32:pmeth_fn.obj
 0001:00035e68       EVP_PKEY_verify_init       00046e68 f   libeay32:pmeth_fn.obj
 0001:00035ef8       EVP_PKEY_verify            00046ef8 f   libeay32:pmeth_fn.obj
 0001:00035f9c       EVP_PKEY_encrypt_init      00046f9c f   libeay32:pmeth_fn.obj
 0001:0003602c       EVP_PKEY_encrypt           0004702c f   libeay32:pmeth_fn.obj
 0001:00036140       AES_wrap_key               00047140 f   libeay32:aes_wrap.obj
 0001:0003625c       AES_set_encrypt_key        0004725c f   libeay32:aes_misc.obj
 0001:000364ec       cms_RecipientInfo_pwri_crypt 000474ec f   libeay32:cms_pwri.obj
 0001:0003685c       ASN1_TYPE_set_octetstring  0004785c f   libeay32:evp_asn1.obj
 0001:000368bc       ASN1_TYPE_get_octetstring  000478bc f   libeay32:evp_asn1.obj
 0001:00036930       ASN1_ENUMERATED_get        00047930 f   libeay32:a_enum.obj
 0001:000369c4       ASN1_ENUMERATED_to_BN      000479c4 f   libeay32:a_enum.obj
 0001:00036a38       X509_NAME_entry_count      00047a38 f   libeay32:x509name.obj
 0001:00036a5c       X509_NAME_get_index_by_OBJ 00047a5c f   libeay32:x509name.obj
 0001:00036ac8       X509_NAME_get_entry        00047ac8 f   libeay32:x509name.obj
 0001:00036b10       X509_NAME_delete_entry     00047b10 f   libeay32:x509name.obj
 0001:00036be4       X509_NAME_add_entry        00047be4 f   libeay32:x509name.obj
 0001:00036d50       X509_NAME_ENTRY_set_object 00047d50 f   libeay32:x509name.obj
 0001:00036dc4       X509_NAME_ENTRY_set_data   00047dc4 f   libeay32:x509name.obj
 0001:00036ea4       X509_NAME_ENTRY_get_object 00047ea4 f   libeay32:x509name.obj
 0001:00036eb4       X509_NAME_ENTRY_get_data   00047eb4 f   libeay32:x509name.obj
 0001:00036ec4       X509_NAME_get_index_by_NID 00047ec4 f   libeay32:x509name.obj
 0001:00036f00       X509_NAME_ENTRY_create_by_OBJ 00047f00 f   libeay32:x509name.obj
 0001:00036fac       X509_NAME_ENTRY_create_by_txt 00047fac f   libeay32:x509name.obj
 0001:00037050       X509_NAME_add_entry_by_txt 00048050 f   libeay32:x509name.obj
 0001:000370a8       ACCESS_DESCRIPTION_it      000480a8 f   libeay32:v3_info.obj
 0001:000370b4       ACCESS_DESCRIPTION_free    000480b4 f   libeay32:v3_info.obj
 0001:000370cc       AUTHORITY_INFO_ACCESS_it   000480cc f   libeay32:v3_info.obj
 0001:00037420       X509_CRL_get_ext_d2i       00048420 f   libeay32:x509_ext.obj
 0001:00037438       X509_get_ext_count         00048438 f   libeay32:x509_ext.obj
 0001:00037450       X509_get_ext_by_NID        00048450 f   libeay32:x509_ext.obj
 0001:00037468       X509_get_ext               00048468 f   libeay32:x509_ext.obj
 0001:00037480       X509_get_ext_d2i           00048480 f   libeay32:x509_ext.obj
 0001:00037498       X509_REVOKED_get_ext_d2i   00048498 f   libeay32:x509_ext.obj
 0001:000374ac       CONF_parse_list            000484ac f   libeay32:conf_mod.obj
 0001:000375d8       OTHERNAME_it               000485d8 f   libeay32:v3_genn.obj
 0001:000375e4       OTHERNAME_new              000485e4 f   libeay32:v3_genn.obj
 0001:000375fc       EDIPARTYNAME_it            000485fc f   libeay32:v3_genn.obj
 0001:00037608       GENERAL_NAME_it            00048608 f   libeay32:v3_genn.obj
 0001:00037614       GENERAL_NAME_new           00048614 f   libeay32:v3_genn.obj
 0001:0003762c       GENERAL_NAME_free          0004862c f   libeay32:v3_genn.obj
 0001:00037644       GENERAL_NAMES_it           00048644 f   libeay32:v3_genn.obj
 0001:00037650       GENERAL_NAMES_new          00048650 f   libeay32:v3_genn.obj
 0001:00037668       GENERAL_NAMES_free         00048668 f   libeay32:v3_genn.obj
 0001:00037680       X509_EXTENSION_it          00048680 f   libeay32:x_exten.obj
 0001:000376a4       X509V3_EXT_get_nid         000486a4 f   libeay32:v3_lib.obj
 0001:00037734       X509V3_EXT_d2i             00048734 f   libeay32:v3_lib.obj
 0001:000377c4       X509V3_get_d2i             000487c4 f   libeay32:v3_lib.obj
 0001:000378c0       d2i_ECDSA_SIG              000488c0 f   libeay32:ecs_asn1.obj
 0001:000378d8       i2d_ECDSA_SIG              000488d8 f   libeay32:ecs_asn1.obj
 0001:000378f0       ECDSA_SIG_new              000488f0 f   libeay32:ecs_asn1.obj
 0001:00037908       ECDSA_SIG_free             00048908 f   libeay32:ecs_asn1.obj
 0001:00037a78       ecdh_check                 00048a78 f   libeay32:ech_lib.obj
 0001:00037af4       BN_GENCB_call              00048af4 f   libeay32:bn_prime.obj
 0001:00037f58       BN_is_prime_fasttest_ex    00048f58 f   libeay32:bn_prime.obj
 0001:0003834c       BN_generate_prime_ex       0004934c f   libeay32:bn_prime.obj
 0001:000386b4       PKCS1_MGF1                 000496b4 f   libeay32:rsa_oaep.obj
 0001:000387dc       RSA_padding_add_PKCS1_OAEP 000497dc f   libeay32:rsa_oaep.obj
 0001:000389d4       RSA_padding_check_PKCS1_OAEP 000499d4 f   libeay32:rsa_oaep.obj
 0001:00038c44       X509_SIG_it                00049c44 f   libeay32:x_sig.obj
 0001:00038c50       d2i_X509_SIG               00049c50 f   libeay32:x_sig.obj
 0001:00038c68       i2d_X509_SIG               00049c68 f   libeay32:x_sig.obj
 0001:00038c80       X509_SIG_free              00049c80 f   libeay32:x_sig.obj
 0001:00038c98       PKCS5_PBKDF2_HMAC          00049c98 f   libeay32:p5_crpt2.obj
 0001:00038e60       PKCS5_v2_PBKDF2_keyivgen   00049e60 f   libeay32:p5_crpt2.obj
 0001:00039100       PKCS5_v2_PBE_keyivgen      0004a100 f   libeay32:p5_crpt2.obj
 0001:000392bc       PKCS12_PBE_keyivgen        0004a2bc f   libeay32:p12_crpt.obj
 0001:000394b0       PKCS5_PBE_keyivgen         0004a4b0 f   libeay32:p5_crpt.obj
 0001:00039768       ENGINE_get_cipher_engine   0004a768 f   libeay32:tb_cipher.obj
 0001:00039784       ENGINE_get_cipher          0004a784 f   libeay32:tb_cipher.obj
 0001:000397e8       BUF_MEM_new                0004a7e8 f   libeay32:buffer.obj
 0001:0003984c       BUF_MEM_free               0004a84c f   libeay32:buffer.obj
 0001:0003988c       BUF_MEM_grow               0004a88c f   libeay32:buffer.obj
 0001:00039994       BUF_MEM_grow_clean         0004a994 f   libeay32:buffer.obj
 0001:00039ab0       asn1_get_choice_selector   0004aab0 f   libeay32:tasn_utl.obj
 0001:00039ac0       asn1_set_choice_selector   0004aac0 f   libeay32:tasn_utl.obj
 0001:00039adc       asn1_do_lock               0004aadc f   libeay32:tasn_utl.obj
 0001:00039b60       asn1_enc_init              0004ab60 f   libeay32:tasn_utl.obj
 0001:00039bb8       asn1_enc_free              0004abb8 f   libeay32:tasn_utl.obj
 0001:00039c2c       asn1_enc_save              0004ac2c f   libeay32:tasn_utl.obj
 0001:00039cd8       asn1_enc_restore           0004acd8 f   libeay32:tasn_utl.obj
 0001:00039d80       asn1_get_field_ptr         0004ad80 f   libeay32:tasn_utl.obj
 0001:00039d98       asn1_do_adb                0004ad98 f   libeay32:tasn_utl.obj
 0001:0003a810       ec_GF2m_simple_mul         0004b810 f   libeay32:ec2_mult.obj
 0001:0003aa8c       ec_GF2m_precompute_mult    0004ba8c f   libeay32:ec2_mult.obj
 0001:0003aa9c       ec_GF2m_have_precompute_mult 0004ba9c f   libeay32:ec2_mult.obj
 0001:0003ac44       BN_GF2m_add                0004bc44 f   libeay32:bn_gf2m.obj
 0001:0003ad38       BN_GF2m_mod_arr            0004bd38 f   libeay32:bn_gf2m.obj
 0001:0003afb0       BN_GF2m_mod_sqr_arr        0004bfb0 f   libeay32:bn_gf2m.obj
 0001:0003b138       BN_GF2m_poly2arr           0004c138 f   libeay32:bn_gf2m.obj
 0001:0003b1dc       BN_GF2m_mod                0004c1dc f   libeay32:bn_gf2m.obj
 0001:0003b258       BN_GF2m_mod_mul_arr        0004c258 f   libeay32:bn_gf2m.obj
 0001:0003b4a8       BN_GF2m_mod_mul            0004c4a8 f   libeay32:bn_gf2m.obj
 0001:0003b56c       BN_GF2m_mod_inv            0004c56c f   libeay32:bn_gf2m.obj
 0001:0003b9ac       BN_GF2m_mod_div            0004c9ac f   libeay32:bn_gf2m.obj
 0001:0003ba38       BN_GF2m_mod_exp_arr        0004ca38 f   libeay32:bn_gf2m.obj
 0001:0003bb70       BN_GF2m_mod_sqrt_arr       0004cb70 f   libeay32:bn_gf2m.obj
 0001:0003bc0c       BN_GF2m_mod_solve_quad_arr 0004cc0c f   libeay32:bn_gf2m.obj
 0001:0003bf6c       ec_GF2m_simple_set_compressed_coordinates 0004cf6c f   libeay32:ec2_oct.obj
 0001:0003c200       ec_GF2m_simple_point2oct   0004d200 f   libeay32:ec2_oct.obj
 0001:0003c5a4       ec_GF2m_simple_oct2point   0004d5a4 f   libeay32:ec2_oct.obj
 0001:0003c950       ec_GFp_simple_set_compressed_coordinates 0004d950 f   libeay32:ecp_oct.obj
 0001:0003cd9c       ec_GFp_simple_point2oct    0004dd9c f   libeay32:ecp_oct.obj
 0001:0003d10c       ec_GFp_simple_oct2point    0004e10c f   libeay32:ecp_oct.obj
 0001:0003d47c       ec_GFp_mont_group_init     0004e47c f   libeay32:ecp_mont.obj
 0001:0003d49c       ec_GFp_mont_group_finish   0004e49c f   libeay32:ecp_mont.obj
 0001:0003d4e8       ec_GFp_mont_group_clear_finish 0004e4e8 f   libeay32:ecp_mont.obj
 0001:0003d534       ec_GFp_mont_group_copy     0004e534 f   libeay32:ecp_mont.obj
 0001:0003d604       ec_GFp_mont_group_set_curve 0004e604 f   libeay32:ecp_mont.obj
 0001:0003d764       ec_GFp_mont_field_mul      0004e764 f   libeay32:ecp_mont.obj
 0001:0003d7d4       ec_GFp_mont_field_sqr      0004e7d4 f   libeay32:ecp_mont.obj
 0001:0003d840       ec_GFp_mont_field_encode   0004e840 f   libeay32:ecp_mont.obj
 0001:0003d8b0       ec_GFp_mont_field_decode   0004e8b0 f   libeay32:ecp_mont.obj
 0001:0003d910       ec_GFp_mont_field_set_to_one 0004e910 f   libeay32:ecp_mont.obj
 0001:0003d974       EC_GFp_mont_method         0004e974 f   libeay32:ecp_mont.obj
 0001:0003d980       ec_GFp_nist_group_copy     0004e980 f   libeay32:ecp_nist.obj
 0001:0003d99c       ec_GFp_nist_group_set_curve 0004e99c f   libeay32:ecp_nist.obj
 0001:0003dae8       ec_GFp_nist_field_mul      0004eae8 f   libeay32:ecp_nist.obj
 0001:0003dbc4       ec_GFp_nist_field_sqr      0004ebc4 f   libeay32:ecp_nist.obj
 0001:0003dc90       EC_GFp_nist_method         0004ec90 f   libeay32:ecp_nist.obj
 0001:0003df50       PKCS7_dataInit             0004ef50 f   libeay32:pk7_doit.obj
 0001:0003e474       PKCS7_SIGNER_INFO_sign     0004f474 f   libeay32:pk7_doit.obj
 0001:0003e7e4       PKCS7_add_signed_attribute 0004f7e4 f   libeay32:pk7_doit.obj
 0001:0003e8fc       PKCS7_dataFinal            0004f8fc f   libeay32:pk7_doit.obj
 0001:0003ed28       X509_VAL_it                0004fd28 f   libeay32:x_val.obj
 0001:0003ed34       GENERAL_SUBTREE_it         0004fd34 f   libeay32:v3_ncons.obj
 0001:0003ed40       NAME_CONSTRAINTS_it        0004fd40 f   libeay32:v3_ncons.obj
 0001:0003ed4c       NAME_CONSTRAINTS_free      0004fd4c f   libeay32:v3_ncons.obj
 0001:0003f124       policy_cache_free          00050124 f   libeay32:pcy_cache.obj
 0001:0003f440       DIST_POINT_NAME_it         00050440 f   libeay32:v3_crld.obj
 0001:0003f44c       DIST_POINT_it              0005044c f   libeay32:v3_crld.obj
 0001:0003f458       DIST_POINT_free            00050458 f   libeay32:v3_crld.obj
 0001:0003f470       CRL_DIST_POINTS_it         00050470 f   libeay32:v3_crld.obj
 0001:0003f47c       CRL_DIST_POINTS_free       0005047c f   libeay32:v3_crld.obj
 0001:0003f494       ISSUING_DIST_POINT_it      00050494 f   libeay32:v3_crld.obj
 0001:0003f4a0       ISSUING_DIST_POINT_free    000504a0 f   libeay32:v3_crld.obj
 0001:0003f7e8       DIST_POINT_set_dpname      000507e8 f   libeay32:v3_crld.obj
 0001:0003ff10       AUTHORITY_KEYID_it         00050f10 f   libeay32:v3_akeya.obj
 0001:0003ff1c       AUTHORITY_KEYID_new        00050f1c f   libeay32:v3_akeya.obj
 0001:0003ff34       AUTHORITY_KEYID_free       00050f34 f   libeay32:v3_akeya.obj
 0001:0003ff4c       X509_CERT_AUX_free         00050f4c f   libeay32:x_x509a.obj
 0001:0003ff64       ASN1_item_verify           00050f64 f   libeay32:a_verify.obj
 0001:00040204       X509_digest                00051204 f   libeay32:x_all.obj
 0001:00040240       X509_CRL_digest            00051240 f   libeay32:x_all.obj
 0001:000402c0       CMS_stream                 000512c0 f   libeay32:cms_io.obj
 0001:0004035c       X509v3_get_ext_count       0005135c f   libeay32:x509_v3.obj
 0001:0004037c       X509v3_get_ext_by_OBJ      0005137c f   libeay32:x509_v3.obj
 0001:000403e0       X509v3_get_ext             000513e0 f   libeay32:x509_v3.obj
 0001:00040428       X509_EXTENSION_get_object  00051428 f   libeay32:x509_v3.obj
 0001:00040438       X509_EXTENSION_get_critical 00051438 f   libeay32:x509_v3.obj
 0001:00040458       X509v3_get_ext_by_NID      00051458 f   libeay32:x509_v3.obj
 0001:00040494       PROXY_POLICY_it            00051494 f   libeay32:v3_pcia.obj
 0001:000404a0       PROXY_CERT_INFO_EXTENSION_it 000514a0 f   libeay32:v3_pcia.obj
 0001:000404ac       PROXY_CERT_INFO_EXTENSION_new 000514ac f   libeay32:v3_pcia.obj
 0001:000404c4       PROXY_CERT_INFO_EXTENSION_free 000514c4 f   libeay32:v3_pcia.obj
 0001:000404dc       BASIC_CONSTRAINTS_it       000514dc f   libeay32:v3_bcons.obj
 0001:000404e8       BASIC_CONSTRAINTS_free     000514e8 f   libeay32:v3_bcons.obj
 0001:0004068c       ASN1_GENERALIZEDTIME_check 0005168c f   libeay32:a_gentm.obj
 0001:00040868       ASN1_GENERALIZEDTIME_adj   00051868 f   libeay32:a_gentm.obj
 0001:000409ac       ASN1_UTCTIME_check         000519ac f   libeay32:a_utctm.obj
 0001:00040b38       ASN1_UTCTIME_adj           00051b38 f   libeay32:a_utctm.obj
 0001:00040ca8       OPENSSL_gmtime             00051ca8 f   libeay32:o_time.obj
 0001:00040e20       OPENSSL_gmtime_adj         00051e20 f   libeay32:o_time.obj
 0001:00041038       X509at_get_attr_count      00052038 f   libeay32:x509_att.obj
 0001:00041048       X509at_get_attr_by_OBJ     00052048 f   libeay32:x509_att.obj
 0001:000410ac       X509at_add1_attr           000520ac f   libeay32:x509_att.obj
 0001:00041180       X509_ATTRIBUTE_set1_object 00052180 f   libeay32:x509_att.obj
 0001:000411c4       X509_ATTRIBUTE_set1_data   000521c4 f   libeay32:x509_att.obj
 0001:00041338       X509at_get_attr_by_NID     00052338 f   libeay32:x509_att.obj
 0001:00041374       X509_ATTRIBUTE_create_by_OBJ 00052374 f   libeay32:x509_att.obj
 0001:00041448       X509_ATTRIBUTE_create_by_NID 00052448 f   libeay32:x509_att.obj
 0001:000414cc       X509at_add1_attr_by_NID    000524cc f   libeay32:x509_att.obj
 0001:000416b8       BIO_f_md                   000526b8 f   libeay32:bio_md.obj
 0001:00041a24       BIO_s_mem                  00052a24 f   libeay32:bss_mem.obj
 0001:00041a30       BIO_new_mem_buf            00052a30 f   libeay32:bss_mem.obj
 0001:00041ebc       BIO_s_null                 00052ebc f   libeay32:bss_null.obj
 0001:00041f70       cms_DigestedData_init_bio  00052f70 f   libeay32:cms_dd.obj
 0001:00041f88       cms_DigestedData_do_final  00052f88 f   libeay32:cms_dd.obj
 0001:00042088       BN_mod_exp2_mont           00053088 f   libeay32:bn_exp2.obj
 0001:0004273c       ASN1_tag2str               0005373c f   libeay32:asn1_par.obj
 0001:0004277c       UTF8_getc                  0005377c f   libeay32:a_utf8.obj
 0001:00042a80       UTF8_putc                  00053a80 f   libeay32:a_utf8.obj
 0001:00042f6c       ASN1_mbstring_ncopy        00053f6c f   libeay32:a_mbstr.obj
 0001:0004345c       ASN1_mbstring_copy         0005445c f   libeay32:a_mbstr.obj
 0001:00043488       RSA_padding_add_PKCS1_type_1 00054488 f   libeay32:rsa_pk1.obj
 0001:0004351c       RSA_padding_check_PKCS1_type_1 0005451c f   libeay32:rsa_pk1.obj
 0001:00043664       RSA_padding_add_PKCS1_type_2 00054664 f   libeay32:rsa_pk1.obj
 0001:0004373c       RSA_padding_check_PKCS1_type_2 0005473c f   libeay32:rsa_pk1.obj
 0001:00043850       RSA_padding_add_SSLv23     00054850 f   libeay32:rsa_ssl.obj
 0001:00043938       RSA_padding_check_SSLv23   00054938 f   libeay32:rsa_ssl.obj
 0001:00043aa8       RSA_padding_add_none       00054aa8 f   libeay32:rsa_none.obj
 0001:00043b28       RSA_padding_check_none     00054b28 f   libeay32:rsa_none.obj
 0001:00043ba4       BIO_f_cipher               00054ba4 f   libeay32:bio_enc.obj
 0001:0004417c       private_AES_set_encrypt_key 0005517c f   libeay32:aes_core.obj
 0001:00044760       AES_encrypt                00055760 f   libeay32:aes_core.obj
 0001:00044ee4       d2i_PBE2PARAM              00055ee4 f   libeay32:p5_pbev2.obj
 0001:00044efc       PBE2PARAM_free             00055efc f   libeay32:p5_pbev2.obj
 0001:00044f14       d2i_PBKDF2PARAM            00055f14 f   libeay32:p5_pbev2.obj
 0001:00044f2c       PBKDF2PARAM_free           00055f2c f   libeay32:p5_pbev2.obj
 0001:00044f44       ASN1_PRINTABLE_type        00055f44 f   libeay32:a_print.obj
 0001:00045058       ASN1_STRING_TABLE_get      00056058 f   libeay32:a_strnid.obj
 0001:000450d4       ASN1_STRING_set_by_NID     000560d4 f   libeay32:a_strnid.obj
 0001:00045194       i2v_GENERAL_NAME           00056194 f   libeay32:v3_alt.obj
 0001:00045364       GENERAL_NAME_print         00056364 f   libeay32:v3_alt.obj
 0001:00045968       i2v_GENERAL_NAMES          00056968 f   libeay32:v3_alt.obj
 0001:000459dc       a2i_GENERAL_NAME           000569dc f   libeay32:v3_alt.obj
 0001:00045c64       v2i_GENERAL_NAME_ex        00056c64 f   libeay32:v3_alt.obj
 0001:00045dd8       v2i_GENERAL_NAME           00056dd8 f   libeay32:v3_alt.obj
 0001:00046094       v2i_GENERAL_NAMES          00057094 f   libeay32:v3_alt.obj
 0001:00046164       DSO_convert_filename       00057164 f   libeay32:dso_lib.obj
 0001:000462a4       CONF_set_nconf             000572a4 f   libeay32:conf_lib.obj
 0001:000462e8       NCONF_get_section          000572e8 f   libeay32:conf_lib.obj
 0001:00046364       NCONF_get_string           00057364 f   libeay32:conf_lib.obj
 0001:000463fc       CONF_get_section           000573fc f   libeay32:conf_lib.obj
 0001:00046438       CONF_get_string            00057438 f   libeay32:conf_lib.obj
 0001:0004647c       CONF_free                  0005747c f   libeay32:conf_lib.obj
 0001:000464c4       POLICY_MAPPING_it          000574c4 f   libeay32:v3_pmaps.obj
 0001:000464d0       POLICY_MAPPINGS_it         000574d0 f   libeay32:v3_pmaps.obj
 0001:000464dc       POLICY_MAPPING_free        000574dc f   libeay32:v3_pmaps.obj
 0001:00047740       POLICY_CONSTRAINTS_it      00058740 f   libeay32:v3_pcons.obj
 0001:00047900       EXTENDED_KEY_USAGE_it      00058900 f   libeay32:v3_extku.obj
 0001:00047aa0       SXNETID_it                 00058aa0 f   libeay32:v3_sxnet.obj
 0001:00047aac       SXNET_it                   00058aac f   libeay32:v3_sxnet.obj
 0001:00047b88       SXNET_get_id_INTEGER       00058b88 f   libeay32:v3_sxnet.obj
 0001:00047bf8       SXNET_add_id_INTEGER       00058bf8 f   libeay32:v3_sxnet.obj
 0001:00047da0       SXNET_add_id_asc           00058da0 f   libeay32:v3_sxnet.obj
 0001:00047e8c       i2s_ASN1_ENUMERATED_TABLE  00058e8c f   libeay32:v3_enum.obj
 0001:00048280       CERTIFICATEPOLICIES_it     00059280 f   libeay32:v3_cpols.obj
 0001:0004828c       POLICYINFO_it              0005928c f   libeay32:v3_cpols.obj
 0001:00048298       POLICYINFO_free            00059298 f   libeay32:v3_cpols.obj
 0001:000482bc       POLICYQUALINFO_it          000592bc f   libeay32:v3_cpols.obj
 0001:000482c8       POLICYQUALINFO_free        000592c8 f   libeay32:v3_cpols.obj
 0001:000482e0       USERNOTICE_it              000592e0 f   libeay32:v3_cpols.obj
 0001:000482ec       NOTICEREF_it               000592ec f   libeay32:v3_cpols.obj
 0001:00048f80       PKEY_USAGE_PERIOD_it       00059f80 f   libeay32:v3_pku.obj
 0001:0004903c       i2v_ASN1_BIT_STRING        0005a03c f   libeay32:v3_bitst.obj
 0001:000490a0       v2i_ASN1_BIT_STRING        0005a0a0 f   libeay32:v3_bitst.obj
 0001:00049220       i2s_ASN1_OCTET_STRING      0005a220 f   libeay32:v3_skey.obj
 0001:0004923c       s2i_ASN1_OCTET_STRING      0005a23c f   libeay32:v3_skey.obj
 0001:00049568       X509V3_get_section         0005a568 f   libeay32:v3_conf.obj
 0001:000495d8       X509V3_section_free        0005a5d8 f   libeay32:v3_conf.obj
 0001:00049674       X509_REQ_INFO_it           0005a674 f   libeay32:x_req.obj
 0001:00049680       ECDH_OpenSSL               0005a680 f   libeay32:ech_ossl.obj
 0001:000499d8       ENGINE_get_default_ECDH    0005a9d8 f   libeay32:tb_ecdh.obj
 0001:000499f4       ENGINE_get_ECDH            0005a9f4 f   libeay32:tb_ecdh.obj
 0001:000499fc       d2i_PBEPARAM               0005a9fc f   libeay32:p5_pbe.obj
 0001:00049a14       PBEPARAM_free              0005aa14 f   libeay32:p5_pbe.obj
 0001:00049a2c       PKCS12_key_gen_uni         0005aa2c f   libeay32:p12_key.obj
 0001:00049f2c       PKCS12_key_gen_asc         0005af2c f   libeay32:p12_key.obj
 0001:0004a004       BN_kronecker               0005b004 f   libeay32:bn_kron.obj
 0001:0004a2b8       BN_mod_sqrt                0005b2b8 f   libeay32:bn_sqrt.obj
 0001:0004aac8       ec_GFp_simple_group_init   0005bac8 f   libeay32:ecp_smpl.obj
 0001:0004aafc       ec_GFp_simple_group_finish 0005bafc f   libeay32:ecp_smpl.obj
 0001:0004ab24       ec_GFp_simple_group_clear_finish 0005bb24 f   libeay32:ecp_smpl.obj
 0001:0004ab4c       ec_GFp_simple_group_copy   0005bb4c f   libeay32:ecp_smpl.obj
 0001:0004abb4       ec_GFp_simple_group_set_curve 0005bbb4 f   libeay32:ecp_smpl.obj
 0001:0004ad80       ec_GFp_simple_group_get_curve 0005bd80 f   libeay32:ecp_smpl.obj
 0001:0004aeb0       ec_GFp_simple_group_get_degree 0005beb0 f   libeay32:ecp_smpl.obj
 0001:0004aec4       ec_GFp_simple_group_check_discriminant 0005bec4 f   libeay32:ecp_smpl.obj
 0001:0004b0e8       ec_GFp_simple_point_init   0005c0e8 f   libeay32:ecp_smpl.obj
 0001:0004b11c       ec_GFp_simple_point_finish 0005c11c f   libeay32:ecp_smpl.obj
 0001:0004b144       ec_GFp_simple_point_clear_finish 0005c144 f   libeay32:ecp_smpl.obj
 0001:0004b174       ec_GFp_simple_point_copy   0005c174 f   libeay32:ecp_smpl.obj
 0001:0004b1dc       ec_GFp_simple_point_set_to_infinity 0005c1dc f   libeay32:ecp_smpl.obj
 0001:0004b204       ec_GFp_simple_set_Jprojective_coordinates_GFp 0005c204 f   libeay32:ecp_smpl.obj
 0001:0004b3b4       ec_GFp_simple_get_Jprojective_coordinates_GFp 0005c3b4 f   libeay32:ecp_smpl.obj
 0001:0004b504       ec_GFp_simple_point_set_affine_coordinates 0005c504 f   libeay32:ecp_smpl.obj
 0001:0004b584       ec_GFp_simple_point_get_affine_coordinates 0005c584 f   libeay32:ecp_smpl.obj
 0001:0004b8c0       ec_GFp_simple_add          0005c8c0 f   libeay32:ecp_smpl.obj
 0001:0004bed0       ec_GFp_simple_dbl          0005ced0 f   libeay32:ecp_smpl.obj
 0001:0004c3a8       ec_GFp_simple_invert       0005d3a8 f   libeay32:ecp_smpl.obj
 0001:0004c3f0       ec_GFp_simple_is_at_infinity 0005d3f0 f   libeay32:ecp_smpl.obj
 0001:0004c404       ec_GFp_simple_is_on_curve  0005d404 f   libeay32:ecp_smpl.obj
 0001:0004c744       ec_GFp_simple_cmp          0005d744 f   libeay32:ecp_smpl.obj
 0001:0004ca28       ec_GFp_simple_make_affine  0005da28 f   libeay32:ecp_smpl.obj
 0001:0004cb44       ec_GFp_simple_points_make_affine 0005db44 f   libeay32:ecp_smpl.obj
 0001:0004d044       ec_GFp_simple_field_mul    0005e044 f   libeay32:ecp_smpl.obj
 0001:0004d080       ec_GFp_simple_field_sqr    0005e080 f   libeay32:ecp_smpl.obj
 0001:0004d0a4       BN_get0_nist_prime_192     0005e0a4 f   libeay32:bn_nist.obj
 0001:0004d0b0       BN_get0_nist_prime_224     0005e0b0 f   libeay32:bn_nist.obj
 0001:0004d0bc       BN_get0_nist_prime_256     0005e0bc f   libeay32:bn_nist.obj
 0001:0004d0c8       BN_get0_nist_prime_384     0005e0c8 f   libeay32:bn_nist.obj
 0001:0004d0d4       BN_get0_nist_prime_521     0005e0d4 f   libeay32:bn_nist.obj
 0001:0004d130       BN_nist_mod_192            0005e130 f   libeay32:bn_nist.obj
 0001:0004d3f8       BN_nist_mod_224            0005e3f8 f   libeay32:bn_nist.obj
 0001:0004d75c       BN_nist_mod_256            0005e75c f   libeay32:bn_nist.obj
 0001:0004dc18       BN_nist_mod_384            0005ec18 f   libeay32:bn_nist.obj
 0001:0004e1dc       BN_nist_mod_521            0005f1dc f   libeay32:bn_nist.obj
 0001:0004e3c0       PKCS7_add0_attrib_signing_time 0005f3c0 f   libeay32:pk7_attr.obj
 0001:0004e430       PKCS7_add1_attrib_digest   0005f430 f   libeay32:pk7_attr.obj
 0001:0004e49c       policy_data_free           0005f49c f   libeay32:pcy_data.obj
 0001:0004e4e4       NETSCAPE_SPKAC_it          0005f4e4 f   libeay32:x_spki.obj
 0001:0004e4f0       ASN1_item_digest           0005f4f0 f   libeay32:a_digest.obj
 0001:0004e570       MD5_Init                   0005f570 f   libeay32:md5_dgst.obj
 0001:0004e5c0       md5_block_data_order       0005f5c0 f   libeay32:md5_dgst.obj
 0001:0004f1bc       MD5_Update                 000601bc f   libeay32:md5_dgst.obj
 0001:0004f2c4       MD5_Final                  000602c4 f   libeay32:md5_dgst.obj
 0001:00050084       ASN1_generate_v3           00061084 f   libeay32:asn1_gen.obj
 0001:000504b4       NCONF_default              000614b4 f   libeay32:conf_def.obj
 0001:00051434       _CONF_get_section          00062434 f   libeay32:conf_api.obj
 0001:0005147c       _CONF_get_section_values   0006247c f   libeay32:conf_api.obj
 0001:0005149c       _CONF_add_string           0006249c f   libeay32:conf_api.obj
 0001:00051514       _CONF_get_string           00062514 f   libeay32:conf_api.obj
 0001:00051678       _CONF_new_data             00062678 f   libeay32:conf_api.obj
 0001:000516c8       _CONF_new_section          000626c8 f   libeay32:conf_api.obj
 0001:00051838       _CONF_free_data            00062838 f   libeay32:conf_api.obj
 0001:0005188c       OCSP_SIGNATURE_it          0006288c f   libeay32:ocsp_asn.obj
 0001:00051898       OCSP_CERTID_it             00062898 f   libeay32:ocsp_asn.obj
 0001:000518a4       OCSP_ONEREQ_it             000628a4 f   libeay32:ocsp_asn.obj
 0001:000518b0       OCSP_REQINFO_it            000628b0 f   libeay32:ocsp_asn.obj
 0001:000518bc       OCSP_RESPBYTES_it          000628bc f   libeay32:ocsp_asn.obj
 0001:000518c8       OCSP_RESPID_it             000628c8 f   libeay32:ocsp_asn.obj
 0001:000518d4       OCSP_REVOKEDINFO_it        000628d4 f   libeay32:ocsp_asn.obj
 0001:000518e0       OCSP_CERTSTATUS_it         000628e0 f   libeay32:ocsp_asn.obj
 0001:000518ec       OCSP_SINGLERESP_it         000628ec f   libeay32:ocsp_asn.obj
 0001:000518f8       OCSP_RESPDATA_it           000628f8 f   libeay32:ocsp_asn.obj
 0001:00051904       OCSP_CRLID_it              00062904 f   libeay32:ocsp_asn.obj
 0001:00051910       OCSP_SERVICELOC_it         00062910 f   libeay32:ocsp_asn.obj
 0001:0005191c       i2a_ASN1_STRING            0006291c f   libeay32:f_string.obj
 0001:00051a38       OPENSSL_asc2uni            00062a38 f   libeay32:p12_utl.obj
 0001:00051ad8       EVP_EncodeInit             00062ad8 f   libeay32:encode.obj
 0001:00051af0       EVP_EncodeBlock            00062af0 f   libeay32:encode.obj
 0001:00051bd0       EVP_DecodeInit             00062bd0 f   libeay32:encode.obj
 0001:00051bec       EVP_DecodeBlock            00062bec f   libeay32:encode.obj
 0001:00051d10       EVP_EncodeUpdate           00062d10 f   libeay32:encode.obj
 0001:00051e3c       EVP_EncodeFinal            00062e3c f   libeay32:encode.obj
 0001:00051e90       EVP_DecodeUpdate           00062e90 f   libeay32:encode.obj
 0001:00054d68       PKCS12_MAC_DATA_it         00065d68 f   libeay32:p12_asn.obj
 0001:00054d80       PKCS12_BAGS_it             00065d80 f   libeay32:p12_asn.obj
 0001:00054d98       PKCS12_SAFEBAG_it          00065d98 f   libeay32:p12_asn.obj
 0001:00054da4       UI_get_string_type         00065da4 f   libeay32:ui_lib.obj
 0001:00054db4       UI_get_input_flags         00065db4 f   libeay32:ui_lib.obj
 0001:00054dc4       UI_get0_output_string      00065dc4 f   libeay32:ui_lib.obj
 0001:00054dd4       UI_get0_action_string      00065dd4 f   libeay32:ui_lib.obj
 0001:00054e00       UI_get0_result_string      00065e00 f   libeay32:ui_lib.obj
 0001:00054e24       UI_get0_test_string        00065e24 f   libeay32:ui_lib.obj
 0001:00055090       getenv                     00066090 f   wcecompatex:env.obj
 0001:0005545c       w32_filetime_to_time_t     0006645c f   wcecompatex:time.obj
 0001:000554fc       time                       000664fc f   wcecompatex:time.obj
 0001:00055560       dayOfYear                  00066560 f   wcecompatex:time.obj
 0001:00055634       localtime                  00066634 f   wcecompatex:time.obj
 0001:0005575c       gmtime                     0006675c f   wcecompatex:time.obj
 0001:0005581c       strerror                   0006681c f   wcecompatex:string_extras.obj
 0001:00055840       raise                      00066840 f   wcecompatex:signal.obj
 0001:00055848       ?unicode2ascii@@YAXPB_WPAD@Z 00066848 f   wcecompatex:ts_string.obj
 0001:0005589c       ?ascii2unicode@@YAXPBDPA_WH@Z 0006689c f   wcecompatex:ts_string.obj
 0001:0005593c       ?unicode2ascii@@YAXPB_WPADH@Z 0006693c f   wcecompatex:ts_string.obj
 0001:000559cc       printf                     000669cc f   coredll:COREDLL.dll
 0001:000559dc       fflush                     000669dc f   coredll:COREDLL.dll
 0001:000559ec       _getstdfilex               000669ec f   coredll:COREDLL.dll
 0001:000559fc       sprintf                    000669fc f   coredll:COREDLL.dll
 0001:00055a0c       memset                     00066a0c f   coredll:COREDLL.dll
 0001:00055a1c       strcmp                     00066a1c f   coredll:COREDLL.dll
 0001:00055a2c       memcpy                     00066a2c f   coredll:COREDLL.dll
 0001:00055a3c       strlen                     00066a3c f   coredll:COREDLL.dll
 0001:00055a4c       strncpy                    00066a4c f   coredll:COREDLL.dll
 0001:00055a5c       strchr                     00066a5c f   coredll:COREDLL.dll
 0001:00055a6c       free                       00066a6c f   coredll:COREDLL.dll
 0001:00055a7c       realloc                    00066a7c f   coredll:COREDLL.dll
 0001:00055a8c       malloc                     00066a8c f   coredll:COREDLL.dll
 0001:00055a9c       strcpy                     00066a9c f   coredll:COREDLL.dll
 0001:00055aac       _strnicmp                  00066aac f   coredll:COREDLL.dll
 0001:00055abc       memcmp                     00066abc f   coredll:COREDLL.dll
 0001:00055acc       MessageBoxW                00066acc f   coredll:COREDLL.dll
 0001:00055adc       _vsnwprintf                00066adc f   coredll:COREDLL.dll
 0001:00055aec       MultiByteToWideChar        00066aec f   coredll:COREDLL.dll
 0001:00055afc       qsort                      00066afc f   coredll:COREDLL.dll
 0001:00055b0c       _isctype                   00066b0c f   coredll:COREDLL.dll
 0001:00055b1c       fclose                     00066b1c f   coredll:COREDLL.dll
 0001:00055b2c       GetLastError               00066b2c f   coredll:COREDLL.dll
 0001:00055b3c       ferror                     00066b3c f   coredll:COREDLL.dll
 0001:00055b4c       fread                      00066b4c f   coredll:COREDLL.dll
 0001:00055b5c       fwrite                     00066b5c f   coredll:COREDLL.dll
 0001:00055b6c       _setmode                   00066b6c f   coredll:COREDLL.dll
 0001:00055b7c       _fileno                    00066b7c f   coredll:COREDLL.dll
 0001:00055b8c       fopen                      00066b8c f   coredll:COREDLL.dll
 0001:00055b9c       fseek                      00066b9c f   coredll:COREDLL.dll
 0001:00055bac       ftell                      00066bac f   coredll:COREDLL.dll
 0001:00055bbc       feof                       00066bbc f   coredll:COREDLL.dll
 0001:00055bcc       strcat                     00066bcc f   coredll:COREDLL.dll
 0001:00055bdc       fgets                      00066bdc f   coredll:COREDLL.dll
 0001:00055bec       _wfopen                    00066bec f   coredll:COREDLL.dll
 0001:00055bfc       memchr                     00066bfc f   coredll:COREDLL.dll
 0001:00055c0c       atoi                       00066c0c f   coredll:COREDLL.dll
 0001:00055c1c       GetTickCount               00066c1c f   coredll:COREDLL.dll
 0001:00055c2c       QueryPerformanceCounter    00066c2c f   coredll:COREDLL.dll
 0001:00055c3c       GlobalMemoryStatus         00066c3c f   coredll:COREDLL.dll
 0001:00055c4c       CryptReleaseContext        00066c4c f   coredll:COREDLL.dll
 0001:00055c5c       CryptGenRandom             00066c5c f   coredll:COREDLL.dll
 0001:00055c6c       CryptAcquireContextW       00066c6c f   coredll:COREDLL.dll
 0001:00055c7c       GetVersionExW              00066c7c f   coredll:COREDLL.dll
 0001:00055c8c       tolower                    00066c8c f   coredll:COREDLL.dll
 0001:00055c9c       strncmp                    00066c9c f   coredll:COREDLL.dll
 0001:00055cac       sscanf                     00066cac f   coredll:COREDLL.dll
 0001:00055cbc       fprintf                    00066cbc f   coredll:COREDLL.dll
 0001:00055ccc       strrchr                    00066ccc f   coredll:COREDLL.dll
 0001:00055cdc       _stricmp                   00066cdc f   coredll:COREDLL.dll
 0001:00055cec       memmove                    00066cec f   coredll:COREDLL.dll
 0001:00055cfc       strtoul                    00066cfc f   coredll:COREDLL.dll
 0001:00055d0c       LoadLibraryW               00066d0c f   coredll:COREDLL.dll
 0001:00055d1c       SetLastError               00066d1c f   coredll:COREDLL.dll
 0001:00055d2c       FreeLibrary                00066d2c f   coredll:COREDLL.dll
 0001:00055d3c       GetProcAddressA            00066d3c f   coredll:COREDLL.dll
 0001:00055d4c       strstr                     00066d4c f   coredll:COREDLL.dll
 0001:00055d5c       WideCharToMultiByte        00066d5c f   coredll:COREDLL.dll
 0001:00055d6c       fputs                      00066d6c f   coredll:COREDLL.dll
 0001:00055d7c       SystemTimeToFileTime       00066d7c f   coredll:COREDLL.dll
 0001:00055d8c       GetSystemTime              00066d8c f   coredll:COREDLL.dll
 0001:00055d9c       GetTimeZoneInformation     00066d9c f   coredll:COREDLL.dll
 0001:00055dac       FileTimeToSystemTime       00066dac f   coredll:COREDLL.dll
 0001:00055dbc       FileTimeToLocalFileTime    00066dbc f   coredll:COREDLL.dll
 0001:00055dd4       WinMainCRTStartup          00066dd4 f   corelibc:pegwmain.obj
 0001:00055e48       _cinit                     00066e48 f   corelibc:crt0dat.obj
 0001:00055fb8       exit                       00066fb8 f   corelibc:crt0dat.obj
 0001:00055fd0       _exit                      00066fd0 f   corelibc:crt0dat.obj
 0001:00055fe8       WinMain                    00066fe8 f   wcecompatex:winmain.obj
 0001:00056344       ?processCmdLine@@YAHPA_WPAPAPAD@Z 00067344 f   wcecompatex:args.obj
 0001:00056780       _XcptFilter                00067780 f   coredll:COREDLL.dll
 0001:00056790       __C_specific_handler       00067790 f   coredll:COREDLL.dll
 0001:000567a0       LocalFree                  000677a0 f   coredll:COREDLL.dll
 0001:000567b0       FindFirstFileW             000677b0 f   coredll:COREDLL.dll
 0001:000567c0       FindClose                  000677c0 f   coredll:COREDLL.dll
 0001:000567d0       FindNextFileW              000677d0 f   coredll:COREDLL.dll
 0001:000567e0       GetModuleFileNameW         000677e0 f   coredll:COREDLL.dll
 0002:00000000       ??_C@_0N@OMAOKKPA@end?5of?5list?6?$AA@ 00068000     enginetest.obj
 0002:00000010       ??_C@_0CD@EKMBKKCM@engine?5?$CFi?0?5id?5?$DN?5?$CC?$CFs?$CC?0?5name?5?$DN?5?$CC?$CFs@ 00068010     enginetest.obj
 0002:00000034       ??_C@_0CA@JFDFDMPA@listing?5available?5engine?5types?6?$AA@ 00068034     enginetest.obj
 0002:00000054       ??_C@_0CI@JANMNMAO@Couldn?8t?5set?5up?5test?5ENGINE?5stru@ 00068054     enginetest.obj
 0002:0000007c       ??_C@_0CL@PAONKDDK@Couldn?8t?5add?5and?5remove?5to?5an?5em@ 0006807c     enginetest.obj
 0002:000000a8       ??_C@_0BK@ODGJCNFO@?6Tests?5completed?5happily?6?$AA@ 000680a8     enginetest.obj
 0002:000000c4       ??_C@_0BB@PJKHOIPL@?6Remove?5failed?$CB?6?$AA@ 000680c4     enginetest.obj
 0002:000000d8       ??_C@_0CG@DCMKMODO@?6About?5to?5empty?5the?5engine?9type?5@ 000680d8     enginetest.obj
 0002:00000100       ??_C@_0CA@FGLOCELO@?6Adding?5stopped?5at?5?$CFi?0?5?$CI?$CFs?0?$CFs?$CJ?6?$AA@ 00068100     enginetest.obj
 0002:00000120       ??_C@_01LFCBOECM@?4?$AA@   00068120     enginetest.obj
 0002:00000128       ??_C@_0FF@JFPHBBJA@Couldn?8t?5create?5block?5of?5ENGINE?5@ 00068128     enginetest.obj
 0002:00000180       ??_C@_04JDACCJGP@id?$CFi?$AA@ 00068180     enginetest.obj
 0002:00000188       ??_C@_0BE@BBHPGHFG@Fake?5engine?5type?5?$CFi?$AA@ 00068188     enginetest.obj
 0002:0000019c       ??_C@_0DC@NPOAAAFJ@Successfully?5added?5and?5removed?5t@ 0006819c     enginetest.obj
 0002:000001d0       ??_C@_0CH@KGLGCADM@About?5to?5beef?5up?5the?5engine?9type@ 000681d0     enginetest.obj
 0002:000001f8       ??_C@_0DJ@CEDEPIOD@Remove?5failed?$CBi?5?9?5probably?5no?5ha@ 000681f8     enginetest.obj
 0002:00000234       ??_C@_0BO@PGOOINBI@Remove?5that?5should?5fail?5did?4?6?$AA@ 00068234     enginetest.obj
 0002:00000254       ??_C@_0CJ@ECHIOHJD@Remove?5?$CKshould?$CK?5have?5failed?5but?5@ 00068254     enginetest.obj
 0002:00000280       ??_C@_0BL@OBOICMLD@Add?5that?5should?5fail?5did?4?6?$AA@ 00068280     enginetest.obj
 0002:0000029c       ??_C@_0CG@NDNKPKMI@Add?5?$CKshould?$CK?5have?5failed?5but?5did@ 0006829c     enginetest.obj
 0002:000002c4       ??_C@_0BA@OONPINEK@Remove?5failed?$CB?6?$AA@ 000682c4     enginetest.obj
 0002:000002d4       ??_C@_0N@GAECICGG@Add?5failed?$CB?6?$AA@ 000682d4     enginetest.obj
 0002:000002e4       ??_C@_0BI@GMKOKB@?6enginetest?5beginning?6?6?$AA@ 000682e4     enginetest.obj
 0002:000002fc       ??_C@_0BB@KNKOBOFN@Fourth?5test?5item?$AA@ 000682fc     enginetest.obj
 0002:00000310       ??_C@_08CGFJLEGJ@test_id3?$AA@ 00068310     enginetest.obj
 0002:0000031c       ??_C@_0BA@ONECGAIJ@Third?5test?5item?$AA@ 0006831c     enginetest.obj
 0002:0000032c       ??_C@_08DPECIFCI@test_id2?$AA@ 0006832c     enginetest.obj
 0002:00000338       ??_C@_0BB@IGGAFLHH@Second?5test?5item?$AA@ 00068338     enginetest.obj
 0002:0000034c       ??_C@_08BEGPNGOL@test_id1?$AA@ 0006834c     enginetest.obj
 0002:00000358       ??_C@_0BA@MNDKJDGE@First?5test?5item?$AA@ 00068358     enginetest.obj
 0002:00000368       ??_C@_08NHEOHKK@test_id0?$AA@ 00068368     enginetest.obj
 0002:00000374       ??_C@_03MCADLMAF@off?$AA@  00068374     enginetest.obj
 0002:00000378       ??_C@_0BF@CKJKJIOH@OPENSSL_DEBUG_MEMORY?$AA@ 00068378     enginetest.obj
 0002:00000390       ??_C@_0FA@DONMMNBK@d?3?2wm653wehh?2platform?2mvv210?2src@ 00068390     libeay32:eng_lib.obj
 0002:000003e0       ??_C@_0FB@DCPOFCLE@d?3?2wm653wehh?2platform?2mvv210?2src@ 000683e0     libeay32:eng_list.obj
 0002:00000438       ??_C@_0EJ@DIAKMCGH@d?3?2wm653wehh?2platform?2mvv210?2src@ 00068438     libeay32:mem_dbg.obj
 0002:00000484       ??_C@_02MBJIFMOJ@?$CC?6?$AA@ 00068484     libeay32:mem_dbg.obj
 0002:00000488       ??_C@_0CG@LFPKBHEM@?5thread?$DN?$CFlu?0?5file?$DN?$CFs?0?5line?$DN?$CFd?0?5i@ 00068488     libeay32:mem_dbg.obj
 0002:000004b0       ??_C@_0BK@MHANPPFK@number?$DN?$CFd?0?5address?$DN?$CF08lX?6?$AA@ 000684b0     libeay32:mem_dbg.obj
 0002:000004cc       ??_C@_0N@BAIEKLOK@thread?$DN?$CFlu?0?5?$AA@ 000684cc     libeay32:mem_dbg.obj
 0002:000004dc       ??_C@_0BI@OFHOPHMO@?$CF5lu?5file?$DN?$CFs?0?5line?$DN?$CFd?0?5?$AA@ 000684dc     libeay32:mem_dbg.obj
 0002:000004f4       ??_C@_0BC@MALIEGMD@?$FL?$CF02d?3?$CF02d?3?$CF02d?$FN?5?$AA@ 000684f4     libeay32:mem_dbg.obj
 0002:00000508       ??_C@_0BP@JOECODN@?$CFld?5bytes?5leaked?5in?5?$CFd?5chunks?6?$AA@ 00068508     libeay32:mem_dbg.obj
 0002:00000554       ??_C@_0DE@JBNNAKOP@called?5a?5function?5that?5was?5disab@ 00068554     libeay32:err.obj
 0002:00000588       ??_C@_0P@LPIEGNHB@internal?5error?$AA@ 00068588     libeay32:err.obj
 0002:00000598       ??_C@_0BI@MMHLKOF@passed?5a?5null?5parameter?$AA@ 00068598     libeay32:err.obj
 0002:000005b0       ??_C@_0CG@JFIACAPA@called?5a?5function?5you?5should?5not@ 000685b0     libeay32:err.obj
 0002:000005d8       ??_C@_0P@BOLAOBGL@malloc?5failure?$AA@ 000685d8     libeay32:err.obj
 0002:000005e8       ??_C@_05FAMCFOJB@fatal?$AA@ 000685e8     libeay32:err.obj
 0002:000005f0       ??_C@_0BB@LLCBNOLO@missing?5asn1?5eos?$AA@ 000685f0     libeay32:err.obj
 0002:00000604       ??_C@_0BF@JKEELALH@asn1?5length?5mismatch?$AA@ 00068604     libeay32:err.obj
 0002:0000061c       ??_C@_0BL@PKJJDDDF@expecting?5an?5asn1?5sequence?$AA@ 0006861c     libeay32:err.obj
 0002:00000638       ??_C@_0BJ@KHBMOGBI@bad?5get?5asn1?5object?5call?$AA@ 00068638     libeay32:err.obj
 0002:00000654       ??_C@_0BH@LJENPHMF@bad?5asn1?5object?5header?$AA@ 00068654     libeay32:err.obj
 0002:0000066c       ??_C@_0BC@JPACPGKL@nested?5asn1?5error?$AA@ 0006866c     libeay32:err.obj
 0002:00000680       ??_C@_06JPOPAJEJ@TS?5lib?$AA@ 00068680     libeay32:err.obj
 0002:00000688       ??_C@_08BIAIHGB@OCSP?5lib?$AA@ 00068688     libeay32:err.obj
 0002:00000694       ??_C@_0L@NEGIHAGL@ENGINE?5lib?$AA@ 00068694     libeay32:err.obj
 0002:000006a0       ??_C@_07HLMFDJCH@DSO?5lib?$AA@ 000686a0     libeay32:err.obj
 0002:000006a8       ??_C@_08IAGEJILJ@RAND?5lib?$AA@ 000686a8     libeay32:err.obj
 0002:000006b4       ??_C@_0L@FBHADCPC@PKCS12?5lib?$AA@ 000686b4     libeay32:err.obj
 0002:000006c0       ??_C@_0L@OHLIEDB@X509V3?5lib?$AA@ 000686c0     libeay32:err.obj
 0002:000006cc       ??_C@_09PFAKBDBP@PKCS7?5lib?$AA@ 000686cc     libeay32:err.obj
 0002:000006d8       ??_C@_07HOAEPDCA@BIO?5lib?$AA@ 000686d8     libeay32:err.obj
 0002:000006e0       ??_C@_07ILCPHDLL@SSL?5lib?$AA@ 000686e0     libeay32:err.obj
 0002:000006e8       ??_C@_06FNJAJMKI@EC?5lib?$AA@ 000686e8     libeay32:err.obj
 0002:000006f0       ??_C@_0L@GEIMIIEL@CRYPTO?5lib?$AA@ 000686f0     libeay32:err.obj
 0002:000006fc       ??_C@_08GDJNHNLC@CONF?5lib?$AA@ 000686fc     libeay32:err.obj
 0002:00000708       ??_C@_08HAFIEMCJ@ASN1?5lib?$AA@ 00068708     libeay32:err.obj
 0002:00000714       ??_C@_08DGLLDICE@X509?5lib?$AA@ 00068714     libeay32:err.obj
 0002:00000720       ??_C@_07EBMPFIFH@DSA?5lib?$AA@ 00068720     libeay32:err.obj
 0002:00000728       ??_C@_07MKPCAOAJ@PEM?5lib?$AA@ 00068728     libeay32:err.obj
 0002:00000730       ??_C@_07LHMLCDLI@OBJ?5lib?$AA@ 00068730     libeay32:err.obj
 0002:00000738       ??_C@_07PJHFFEFC@BUF?5lib?$AA@ 00068738     libeay32:err.obj
 0002:00000740       ??_C@_07BHNHKGFA@EVP?5lib?$AA@ 00068740     libeay32:err.obj
 0002:00000748       ??_C@_06JBCAGHNP@DH?5lib?$AA@ 00068748     libeay32:err.obj
 0002:00000750       ??_C@_07PLBLGAPL@RSA?5lib?$AA@ 00068750     libeay32:err.obj
 0002:00000758       ??_C@_06CEKJLBPI@BN?5lib?$AA@ 00068758     libeay32:err.obj
 0002:00000760       ??_C@_0L@NFMIFFDK@system?5lib?$AA@ 00068760     libeay32:err.obj
 0002:0000076c       ??_C@_05FHPOAJDB@fread?$AA@ 0006876c     libeay32:err.obj
 0002:00000774       ??_C@_07OPAOJOOA@opendir?$AA@ 00068774     libeay32:err.obj
 0002:0000077c       ??_C@_0L@LNCNEFCG@WSAstartup?$AA@ 0006877c     libeay32:err.obj
 0002:00000788       ??_C@_06MPKMECK@accept?$AA@ 00068788     libeay32:err.obj
 0002:00000790       ??_C@_06OODDLKLE@listen?$AA@ 00068790     libeay32:err.obj
 0002:00000798       ??_C@_04NPNJNMMP@bind?$AA@ 00068798     libeay32:err.obj
 0002:000007a0       ??_C@_0M@PBPOCKDG@ioctlsocket?$AA@ 000687a0     libeay32:err.obj
 0002:000007ac       ??_C@_06HBELJPBO@socket?$AA@ 000687ac     libeay32:err.obj
 0002:000007b4       ??_C@_0O@NKLJGHIL@getservbyname?$AA@ 000687b4     libeay32:err.obj
 0002:000007c4       ??_C@_07KAIBNCHO@connect?$AA@ 000687c4     libeay32:err.obj
 0002:000007cc       ??_C@_05FFKPLNPJ@fopen?$AA@ 000687cc     libeay32:err.obj
 0002:000007d4       ??_C@_0O@PBJMEGGG@HMAC?5routines?$AA@ 000687d4     libeay32:err.obj
 0002:000007e4       ??_C@_0N@MKJBFBO@CMS?5routines?$AA@ 000687e4     libeay32:err.obj
 0002:000007f4       ??_C@_0O@MDPFBMCI@FIPS?5routines?$AA@ 000687f4     libeay32:err.obj
 0002:00000804       ??_C@_0O@LJIADBLP@OCSP?5routines?$AA@ 00068804     libeay32:err.obj
 0002:00000814       ??_C@_0BA@MMHCJFKD@engine?5routines?$AA@ 00068814     libeay32:err.obj
 0002:00000824       ??_C@_0BE@IMHDPIMO@time?5stamp?5routines?$AA@ 00068824     libeay32:err.obj
 0002:00000838       ??_C@_0BF@BDHLAIEM@DSO?5support?5routines?$AA@ 00068838     libeay32:err.obj
 0002:00000850       ??_C@_0BI@GMPKPCPG@random?5number?5generator?$AA@ 00068850     libeay32:err.obj
 0002:00000868       ??_C@_0BA@KPFPMFD@PKCS12?5routines?$AA@ 00068868     libeay32:err.obj
 0002:00000878       ??_C@_0BB@LKDEPKLM@X509?5V3?5routines?$AA@ 00068878     libeay32:err.obj
 0002:0000088c       ??_C@_0P@FBDCKDAN@PKCS7?5routines?$AA@ 0006888c     libeay32:err.obj
 0002:0000089c       ??_C@_0N@HGNFKBOI@BIO?5routines?$AA@ 0006889c     libeay32:err.obj
 0002:000008ac       ??_C@_0N@GAIJLNCL@SSL?5routines?$AA@ 000688ac     libeay32:err.obj
 0002:000008bc       ??_C@_0BI@NNCFPCDI@elliptic?5curve?5routines?$AA@ 000688bc     libeay32:err.obj
 0002:000008d4       ??_C@_0BK@GOIAPJCF@common?5libcrypto?5routines?$AA@ 000688d4     libeay32:err.obj
 0002:000008f0       ??_C@_0BM@FNIFPKKP@configuration?5file?5routines?$AA@ 000688f0     libeay32:err.obj
 0002:0000090c       ??_C@_0BH@OKMDKJBH@asn1?5encoding?5routines?$AA@ 0006890c     libeay32:err.obj
 0002:00000924       ??_C@_0BK@MLDIFNOG@x509?5certificate?5routines?$AA@ 00068924     libeay32:err.obj
 0002:00000940       ??_C@_0N@EPLKEPHE@dsa?5routines?$AA@ 00068940     libeay32:err.obj
 0002:00000950       ??_C@_0N@PPOIEGDJ@PEM?5routines?$AA@ 00068950     libeay32:err.obj
 0002:00000960       ??_C@_0BL@GAJLDLEG@object?5identifier?5routines?$AA@ 00068960     libeay32:err.obj
 0002:0000097c       ??_C@_0BH@GHBGFOKA@memory?5buffer?5routines?$AA@ 0006897c     libeay32:err.obj
 0002:00000994       ??_C@_0BK@KCBHLAIJ@digital?5envelope?5routines?$AA@ 00068994     libeay32:err.obj
 0002:000009b0       ??_C@_0BI@BELEOFAM@Diffie?9Hellman?5routines?$AA@ 000689b0     libeay32:err.obj
 0002:000009c8       ??_C@_0N@FLFIDGHD@rsa?5routines?$AA@ 000689c8     libeay32:err.obj
 0002:000009d8       ??_C@_0BA@BALAMMCD@bignum?5routines?$AA@ 000689d8     libeay32:err.obj
 0002:000009e8       ??_C@_0P@KJHLNCML@system?5library?$AA@ 000689e8     libeay32:err.obj
 0002:000009f8       ??_C@_0BA@JLJAKIKL@unknown?5library?$AA@ 000689f8     libeay32:err.obj
 0002:00000a08       ??_C@_0EJ@LLHEHHLL@d?3?2wm653wehh?2platform?2mvv210?2src@ 00068a08     libeay32:err.obj
 0002:00000a54       ??_C@_0BE@CGMKPIME@int_err_get?5?$CIerr?4c?$CJ?$AA@ 00068a54     libeay32:err.obj
 0002:00000a68       ??_C@_0BH@KBGLDIDO@int_thread_get?5?$CIerr?4c?$CJ?$AA@ 00068a68     libeay32:err.obj
 0002:00000a80       ??_C@_07CIFAGBMG@unknown?$AA@ 00068a80     libeay32:err.obj
 0002:00000a88       ??_C@_02JDNIPIGD@NA?$AA@   00068a88     libeay32:err.obj
 0002:00000a8b       ??_C@_00CNPNBAHC@?$AA@     00068a8b     libeay32:err.obj
 0002:00000a8c       ??_C@_0BF@IKLBHEFA@error?3?$CF08lX?3?$CFs?3?$CFs?3?$CFs?$AA@ 00068a8c     libeay32:err.obj
 0002:00000aa4       ??_C@_0M@MNMDFDLE@reason?$CI?$CFlu?$CJ?$AA@ 00068aa4     libeay32:err.obj
 0002:00000ab0       ??_C@_09IANFNLBB@func?$CI?$CFlu?$CJ?$AA@ 00068ab0     libeay32:err.obj
 0002:00000abc       ??_C@_08PFHOCFHJ@lib?$CI?$CFlu?$CJ?$AA@ 00068abc     libeay32:err.obj
 0002:00000ac8       ??_C@_0EJ@IBNICOFA@d?3?2wm653wehh?2platform?2mvv210?2src@ 00068ac8     libeay32:ex_data.obj
 0002:00000b14       ??_C@_0BB@KDJGCOOH@?$CFlu?3?$CFs?3?$CFs?3?$CFd?3?$CFs?6?$AA@ 00068b14     libeay32:err_prn.obj
 0002:00000b28       ??_C@_02DKCKIIND@?$CFs?$AA@ 00068b28     libeay32:err_prn.obj
 0002:00000b30       ??_C@_0FA@OIJOADBF@d?3?2wm653wehh?2platform?2mvv210?2src@ 00068b30     libeay32:buf_str.obj
 0002:00000b80       ??_C@_0FC@BNEDDMOL@d?3?2wm653wehh?2platform?2mvv210?2src@ 00068b80     libeay32:tb_asnmth.obj
 0002:00000bd8       ??_C@_0FC@NEBNNILH@d?3?2wm653wehh?2platform?2mvv210?2src@ 00068bd8     libeay32:tb_pkmeth.obj
 0002:00000cdc       ??_C@_05NEEKIFMD@fips2?$AA@ 00068cdc     libeay32:cryptlib.obj
 0002:00000ce4       ??_C@_04DJGCHAOD@fips?$AA@ 00068ce4     libeay32:cryptlib.obj
 0002:00000cec       ??_C@_04OLDKMDKP@comp?$AA@ 00068cec     libeay32:cryptlib.obj
 0002:00000cf4       ??_C@_05ODGDKDLF@store?$AA@ 00068cf4     libeay32:cryptlib.obj
 0002:00000cfc       ??_C@_0M@FNJFEIGB@ec_pre_comp?$AA@ 00068cfc     libeay32:cryptlib.obj
 0002:00000d08       ??_C@_02LAJDHPIK@bn?$AA@   00068d08     libeay32:cryptlib.obj
 0002:00000d0c       ??_C@_04KDGGCKGB@ecdh?$AA@ 00068d0c     libeay32:cryptlib.obj
 0002:00000d14       ??_C@_02HCBHEC@ec?$AA@     00068d14     libeay32:cryptlib.obj
 0002:00000d18       ??_C@_05FGIDCBJD@ecdsa?$AA@ 00068d18     libeay32:cryptlib.obj
 0002:00000d20       ??_C@_02OGLLFMLI@ui?$AA@   00068d20     libeay32:cryptlib.obj
 0002:00000d24       ??_C@_06LOBMEHPF@engine?$AA@ 00068d24     libeay32:cryptlib.obj
 0002:00000d2c       ??_C@_07HGGNMPAJ@dynlock?$AA@ 00068d2c     libeay32:cryptlib.obj
 0002:00000d34       ??_C@_03NOCNOBNG@dso?$AA@  00068d34     libeay32:cryptlib.obj
 0002:00000d38       ??_C@_0O@PMFKBDME@debug_malloc2?$AA@ 00068d38     libeay32:cryptlib.obj
 0002:00000d48       ??_C@_02OCEEKELO@dh?$AA@   00068d48     libeay32:cryptlib.obj
 0002:00000d4c       ??_C@_0N@BGAJKBNF@RSA_blinding?$AA@ 00068d4c     libeay32:cryptlib.obj
 0002:00000d5c       ??_C@_07OMHHFDME@readdir?$AA@ 00068d5c     libeay32:cryptlib.obj
 0002:00000d64       ??_C@_0O@BFBCKHPD@gethostbyname?$AA@ 00068d64     libeay32:cryptlib.obj
 0002:00000d74       ??_C@_03OHAMFFNA@BIO?$AA@  00068d74     libeay32:cryptlib.obj
 0002:00000d78       ??_C@_0N@CLEMOJNL@debug_malloc?$AA@ 00068d78     libeay32:cryptlib.obj
 0002:00000d88       ??_C@_05NFNCBLNG@rand2?$AA@ 00068d88     libeay32:cryptlib.obj
 0002:00000d90       ??_C@_04HKINGDKC@rand?$AA@ 00068d90     libeay32:cryptlib.obj
 0002:00000d98       ??_C@_0L@NKBFNPDB@ssl_method?$AA@ 00068d98     libeay32:cryptlib.obj
 0002:00000da4       ??_C@_03DIMONNDD@ssl?$AA@  00068da4     libeay32:cryptlib.obj
 0002:00000da8       ??_C@_0O@LOCLBOHA@ssl_sess_cert?$AA@ 00068da8     libeay32:cryptlib.obj
 0002:00000db8       ??_C@_0M@OAEAFGMD@ssl_session?$AA@ 00068db8     libeay32:cryptlib.obj
 0002:00000dc4       ??_C@_08INIFBEOB@ssl_cert?$AA@ 00068dc4     libeay32:cryptlib.obj
 0002:00000dd0       ??_C@_07DNHKIAPH@ssl_ctx?$AA@ 00068dd0     libeay32:cryptlib.obj
 0002:00000dd8       ??_C@_0L@JCDDFIOK@x509_store?$AA@ 00068dd8     libeay32:cryptlib.obj
 0002:00000de4       ??_C@_08NBJJIGBN@evp_pkey?$AA@ 00068de4     libeay32:cryptlib.obj
 0002:00000df0       ??_C@_03DFNMMEBL@rsa?$AA@  00068df0     libeay32:cryptlib.obj
 0002:00000df4       ??_C@_03EAKOMMFI@dsa?$AA@  00068df4     libeay32:cryptlib.obj
 0002:00000df8       ??_C@_08BHPLFFMD@x509_req?$AA@ 00068df8     libeay32:cryptlib.obj
 0002:00000e04       ??_C@_08BJFLLMNA@x509_crl?$AA@ 00068e04     libeay32:cryptlib.obj
 0002:00000e10       ??_C@_09HNLHIFBP@x509_pkey?$AA@ 00068e10     libeay32:cryptlib.obj
 0002:00000e1c       ??_C@_09DJEHILFA@x509_info?$AA@ 00068e1c     libeay32:cryptlib.obj
 0002:00000e28       ??_C@_04BNGFMDFF@x509?$AA@ 00068e28     libeay32:cryptlib.obj
 0002:00000e30       ??_C@_07OALPHBKG@ex_data?$AA@ 00068e30     libeay32:cryptlib.obj
 0002:00000e38       ??_C@_03JIDPIAJI@err?$AA@  00068e38     libeay32:cryptlib.obj
 0002:00000e3c       ??_C@_09OGFJIAEE@?$DM?$DMERROR?$DO?$DO?$AA@ 00068e3c     libeay32:cryptlib.obj
 0002:00000e48       ??_C@_0EK@JACEKOIE@d?3?2wm653wehh?2platform?2mvv210?2src@ 00068e48     libeay32:cryptlib.obj
 0002:00000e94       ??_C@_1BO@DCCMIJEM@?$AAO?$AAp?$AAe?$AAn?$AAS?$AAS?$AAL?$AA?3?$AA?5?$AAF?$AAA?$AAT?$AAA?$AAL?$AA?$AA@ 00068e94     libeay32:cryptlib.obj
 0002:00000eb4       ??_C@_1BE@NLCFDLCA@?$AAn?$AAo?$AA?5?$AAs?$AAt?$AAa?$AAc?$AAk?$AA?$DP?$AA?$AA@ 00068eb4     libeay32:cryptlib.obj
 0002:00000ec8       ??_C@_0DG@JJAMFCAP@?$CFs?$CI?$CFd?$CJ?3?5OpenSSL?5internal?5error?0?5@ 00068ec8     libeay32:cryptlib.obj
 0002:00000f00       ??_C@_0BA@LPBALOME@pointer?5?$CB?$DN?5NULL?$AA@ 00068f00     libeay32:cryptlib.obj
 0002:00000f10       STACK_version              00068f10     libeay32:stack.obj
 0002:00000f40       ??_C@_0EN@GOCHBJJG@d?3?2wm653wehh?2platform?2mvv210?2src@ 00068f40     libeay32:stack.obj
 0002:00000f90       lh_version                 00068f90     libeay32:lhash.obj
 0002:00000fc0       ??_C@_0EN@ECMNBMLE@d?3?2wm653wehh?2platform?2mvv210?2src@ 00068fc0     libeay32:lhash.obj
 0002:00001010       ??_C@_0EN@MBCJMNEM@d?3?2wm653wehh?2platform?2mvv210?2src@ 00069010     libeay32:bio_lib.obj
 0002:00001060       ??_C@_01CLKCMJKC@?5?$AA@   00069060     libeay32:bio_lib.obj
 0002:00001068       ??_C@_0EN@GMEKCP@d?3?2wm653wehh?2platform?2mvv210?2src@ 00069068     libeay32:b_print.obj
 0002:000010b8       ??_C@_06CBHGEMFM@?$DMNULL?$DO?$AA@ 000690b8     libeay32:b_print.obj
 0002:000010c0       ??_C@_0BB@JCEFLFJE@0123456789abcdef?$AA@ 000690c0     libeay32:b_print.obj
 0002:000010d4       ??_C@_0BB@JGGOGLEG@0123456789ABCDEF?$AA@ 000690d4     libeay32:b_print.obj
 0002:000010e8       ??_C@_02MDDDDAID@0x?$AA@   000690e8     libeay32:b_print.obj
 0002:000010ec       ??_C@_01GBGANLPD@0?$AA@    000690ec     libeay32:b_print.obj
 0002:000010f0       ??_C@_07DKNGGOEP@doapr?$CI?$CJ?$AA@ 000690f0     libeay32:b_print.obj
 0002:000010f8       ??_C@_0N@JAGKAFD@FILE?5pointer?$AA@ 000690f8     libeay32:bss_file.obj
 0002:00001108       ??_C@_0EO@GEBEJMNG@d?3?2wm653wehh?2platform?2mvv210?2src@ 00069108     libeay32:bss_file.obj
 0002:00001158       ??_C@_02HJPKOJGD@?8?$CJ?$AA@ 00069158     libeay32:bss_file.obj
 0002:0000115c       ??_C@_03IMMLKIF@?8?0?8?$AA@ 0006915c     libeay32:bss_file.obj
 0002:00001160       ??_C@_07JMDFGFFH@fopen?$CI?8?$AA@ 00069160     libeay32:bss_file.obj
 0002:00001168       ??_C@_01PFHFFBPC@t?$AA@    00069168     libeay32:bss_file.obj
 0002:0000116c       ??_C@_01OJONOECF@b?$AA@    0006916c     libeay32:bss_file.obj
 0002:00001170       ??_C@_01KDCPPGHE@r?$AA@    00069170     libeay32:bss_file.obj
 0002:00001174       ??_C@_01NOFIACDB@w?$AA@    00069174     libeay32:bss_file.obj
 0002:00001178       ??_C@_02CBLLGHLK@r?$CL?$AA@ 00069178     libeay32:bss_file.obj
 0002:0000117c       ??_C@_01MCMALHOG@a?$AA@    0006917c     libeay32:bss_file.obj
 0002:00001180       ??_C@_02DPNLHKJD@a?$CL?$AA@ 00069180     libeay32:bss_file.obj
 0002:00001184       ??_C@_0L@NNLHLDBF@wrap?5error?$AA@ 00069184     libeay32:cms_err.obj
 0002:00001190       ??_C@_0BF@BPGKPNEB@verification?5failure?$AA@ 00069190     libeay32:cms_err.obj
 0002:000011a8       ??_C@_0P@OLMHDACD@unwrap?5failure?$AA@ 000691a8     libeay32:cms_err.obj
 0002:000011b8       ??_C@_0N@NPPMDEPK@unwrap?5error?$AA@ 000691b8     libeay32:cms_err.obj
 0002:000011c8       ??_C@_0BB@HCAFPPCK@unsupported?5type?$AA@ 000691c8     libeay32:cms_err.obj
 0002:000011dc       ??_C@_0BO@DFLIHPDC@unsupported?5recpientinfo?5type?$AA@ 000691dc     libeay32:cms_err.obj
 0002:000011fc       ??_C@_0BL@JINAKJM@unsupported?5recipient?5type?$AA@ 000691fc     libeay32:cms_err.obj
 0002:00001218       ??_C@_0CF@JJHJPPBK@unsupported?5key?5encryption?5algor@ 00069218     libeay32:cms_err.obj
 0002:00001240       ??_C@_0BK@GCOIGPEN@unsupported?5kek?5algorithm?$AA@ 00069240     libeay32:cms_err.obj
 0002:0000125c       ??_C@_0BJ@KNOCCCPA@unsupported?5content?5type?$AA@ 0006925c     libeay32:cms_err.obj
 0002:00001278       ??_C@_0CC@EGPPFAKP@unsupported?5compression?5algorith@ 00069278     libeay32:cms_err.obj
 0002:0000129c       ??_C@_0L@GEAKBAPK@unknown?5id?$AA@ 0006929c     libeay32:cms_err.obj
 0002:000012a8       ??_C@_0BI@GDMEEIDA@unknown?5digest?5algorihm?$AA@ 000692a8     libeay32:cms_err.obj
 0002:000012c0       ??_C@_0P@JHGHJHE@unknown?5cipher?$AA@ 000692c0     libeay32:cms_err.obj
 0002:000012d0       ??_C@_0BL@EPBMKCGE@unable?5to?5finalize?5context?$AA@ 000692d0     libeay32:cms_err.obj
 0002:000012ec       ??_C@_0BI@MICOMFLM@type?5not?5enveloped?5data?$AA@ 000692ec     libeay32:cms_err.obj
 0002:00001304       ??_C@_0BI@ENGODHOG@type?5not?5encrypted?5data?$AA@ 00069304     libeay32:cms_err.obj
 0002:0000131c       ??_C@_0BH@PNMANIDN@type?5not?5digested?5data?$AA@ 0006931c     libeay32:cms_err.obj
 0002:00001334       ??_C@_0O@OIKFLGPK@type?5not?5data?$AA@ 00069334     libeay32:cms_err.obj
 0002:00001344       ??_C@_0BJ@LKLHJNJG@type?5not?5compressed?5data?$AA@ 00069344     libeay32:cms_err.obj
 0002:00001360       ??_C@_0BB@KLHMPIEH@store?5init?5error?$AA@ 00069360     libeay32:cms_err.obj
 0002:00001374       ??_C@_0BB@KEMFLAGG@smime?5text?5error?$AA@ 00069374     libeay32:cms_err.obj
 0002:00001388       ??_C@_0BA@KIAFIMOL@signfinal?5error?$AA@ 00069388     libeay32:cms_err.obj
 0002:00001398       ??_C@_0BN@LFDDONEE@signer?5certificate?5not?5found?$AA@ 00069398     libeay32:cms_err.obj
 0002:000013b8       ??_C@_0BA@EMGFGLHJ@recipient?5error?$AA@ 000693b8     libeay32:cms_err.obj
 0002:000013c8       ??_C@_0BF@LECBOCPG@receipt?5decode?5error?$AA@ 000693c8     libeay32:cms_err.obj
 0002:000013e0       ??_C@_0CH@PMPAELAG@private?5key?5does?5not?5match?5certi@ 000693e0     libeay32:cms_err.obj
 0002:00001408       ??_C@_0L@GEFKNGMC@no?5signers?$AA@ 00069408     libeay32:cms_err.obj
 0002:00001414       ??_C@_0BD@MOCPMAMA@no?5receipt?5request?$AA@ 00069414     libeay32:cms_err.obj
 0002:00001428       ??_C@_0O@EOGKGIEL@no?5public?5key?$AA@ 00069428     libeay32:cms_err.obj
 0002:00001438       ??_C@_0P@DEBHAAB@no?5private?5key?$AA@ 00069438     libeay32:cms_err.obj
 0002:00001448       ??_C@_0M@LLPPIJG@no?5password?$AA@ 00069448     libeay32:cms_err.obj
 0002:00001454       ??_C@_0BA@OPCNALIK@no?5msgsigdigest?$AA@ 00069454     libeay32:cms_err.obj
 0002:00001464       ??_C@_0BG@JPMMLKD@no?5matching?5signature?$AA@ 00069464     libeay32:cms_err.obj
 0002:0000147c       ??_C@_0BG@HOBMPGL@no?5matching?5recipient?$AA@ 0006947c     libeay32:cms_err.obj
 0002:00001494       ??_C@_0BD@PLEMHKD@no?5matching?5digest?$AA@ 00069494     libeay32:cms_err.obj
 0002:000014a8       ??_C@_0P@KFGEHDGK@no?5key?5or?5cert?$AA@ 000694a8     libeay32:cms_err.obj
 0002:000014b8       ??_C@_06NNLPDOME@no?5key?$AA@ 000694b8     libeay32:cms_err.obj
 0002:000014c0       ??_C@_0O@MFHBBAJO@no?5digest?5set?$AA@ 000694c0     libeay32:cms_err.obj
 0002:000014d0       ??_C@_0BC@GDBMALNO@no?5default?5digest?$AA@ 000694d0     libeay32:cms_err.obj
 0002:000014e4       ??_C@_0BA@FPKKDFNC@no?5content?5type?$AA@ 000694e4     libeay32:cms_err.obj
 0002:000014f4       ??_C@_0L@CMBDMAOL@no?5content?$AA@ 000694f4     libeay32:cms_err.obj
 0002:00001500       ??_C@_09GIAHKKBP@no?5cipher?$AA@ 00069500     libeay32:cms_err.obj
 0002:0000150c       ??_C@_0CA@FDMFGJMC@not?5supported?5for?5this?5key?5type?$AA@ 0006950c     libeay32:cms_err.obj
 0002:0000152c       ??_C@_08HHGHOGEE@not?5pwri?$AA@ 0006952c     libeay32:cms_err.obj
 0002:00001538       ??_C@_0BC@FCIJIHJO@not?5key?5transport?$AA@ 00069538     libeay32:cms_err.obj
 0002:0000154c       ??_C@_07FHACAFGF@not?5kek?$AA@ 0006954c     libeay32:cms_err.obj
 0002:00001554       ??_C@_0BD@HIIHKPFA@not?5encrypted?5data?$AA@ 00069554     libeay32:cms_err.obj
 0002:00001568       ??_C@_0BF@DPOIIODH@not?5a?5signed?5receipt?$AA@ 00069568     libeay32:cms_err.obj
 0002:00001580       ??_C@_0BA@BHDOODOM@need?5one?5signer?$AA@ 00069580     libeay32:cms_err.obj
 0002:00001590       ??_C@_0BK@NAHJMMPF@msgsigdigest?5wrong?5length?$AA@ 00069590     libeay32:cms_err.obj
 0002:000015ac       ??_C@_0CC@EFEFGHFB@msgsigdigest?5verification?5failur@ 000695ac     libeay32:cms_err.obj
 0002:000015d0       ??_C@_0BD@HNLNAPHC@msgsigdigest?5error?$AA@ 000695d0     libeay32:cms_err.obj
 0002:000015e4       ??_C@_0BL@DGDMJPMD@messagedigest?5wrong?5length?$AA@ 000695e4     libeay32:cms_err.obj
 0002:00001600       ??_C@_0CF@DEFLCFJL@messagedigest?5attribute?5wrong?5le@ 00069600     libeay32:cms_err.obj
 0002:00001628       ??_C@_0BC@NFJILDHC@md?5bio?5init?5error?$AA@ 00069628     libeay32:cms_err.obj
 0002:0000163c       ??_C@_0BD@ECABCPMG@invalid?5key?5length?$AA@ 0006963c     libeay32:cms_err.obj
 0002:00001650       ??_C@_0CB@KFOHGPLF@invalid?5key?5encryption?5parameter@ 00069650     libeay32:cms_err.obj
 0002:00001674       ??_C@_0BN@JNGACGBD@invalid?5encrypted?5key?5length?$AA@ 00069674     libeay32:cms_err.obj
 0002:00001694       ??_C@_0BM@MKIGGLBJ@error?5setting?5recipientinfo?$AA@ 00069694     libeay32:cms_err.obj
 0002:000016b0       ??_C@_0BC@GBDDBCFF@error?5setting?5key?$AA@ 000696b0     libeay32:cms_err.obj
 0002:000016c4       ??_C@_0CG@KKAHAFIL@error?5reading?5messagedigest?5attr@ 000696c4     libeay32:cms_err.obj
 0002:000016ec       ??_C@_0BJ@KOCDEKNH@error?5getting?5public?5key?$AA@ 000696ec     libeay32:cms_err.obj
 0002:00001708       ??_C@_0N@KPANJIHN@digest?5error?$AA@ 00069708     libeay32:cms_err.obj
 0002:00001718       ??_C@_0O@IKMKDME@decrypt?5error?$AA@ 00069718     libeay32:cms_err.obj
 0002:00001728       ??_C@_0N@NAPIGBMI@ctrl?5failure?$AA@ 00069728     libeay32:cms_err.obj
 0002:00001738       ??_C@_0L@HANPCOML@ctrl?5error?$AA@ 00069738     libeay32:cms_err.obj
 0002:00001744       ??_C@_0BF@CBLCHNCH@content?5verify?5error?$AA@ 00069744     libeay32:cms_err.obj
 0002:0000175c       ??_C@_0BN@IBDMPLNJ@content?5type?5not?5signed?5data?$AA@ 0006975c     libeay32:cms_err.obj
 0002:0000177c       ??_C@_0CA@NNDPBEED@content?5type?5not?5enveloped?5data?$AA@ 0006977c     libeay32:cms_err.obj
 0002:0000179c       ??_C@_0CB@JHKAGDMK@content?5type?5not?5compressed?5data@ 0006979c     libeay32:cms_err.obj
 0002:000017c0       ??_C@_0BG@DOJFGBAA@content?5type?5mismatch?$AA@ 000697c0     libeay32:cms_err.obj
 0002:000017d8       ??_C@_0BC@JJDDEPPC@content?5not?5found?$AA@ 000697d8     libeay32:cms_err.obj
 0002:000017ec       ??_C@_0BL@HAKJOONM@contentidentifier?5mismatch?$AA@ 000697ec     libeay32:cms_err.obj
 0002:00001808       ??_C@_07DJCELLB@cms?5lib?$AA@ 00069808     libeay32:cms_err.obj
 0002:00001810       ??_C@_0BE@HDNIFGNJ@cms?5datafinal?5error?$AA@ 00069810     libeay32:cms_err.obj
 0002:00001824       ??_C@_0CG@NJEMBNPF@cipher?5parameter?5initialisation?5@ 00069824     libeay32:cms_err.obj
 0002:0000184c       ??_C@_0BM@CDGMNLKF@cipher?5initialisation?5error?$AA@ 0006984c     libeay32:cms_err.obj
 0002:00001868       ??_C@_0BJ@PLMONNLI@certificate?5verify?5error?$AA@ 00069868     libeay32:cms_err.obj
 0002:00001884       ??_C@_0BJ@DDNKEBDF@certificate?5has?5no?5keyid?$AA@ 00069884     libeay32:cms_err.obj
 0002:000018a0       ??_C@_0BM@GPNDEIAC@certificate?5already?5present?$AA@ 000698a0     libeay32:cms_err.obj
 0002:000018bc       ??_C@_0BB@FNKCEDFO@add?5signer?5error?$AA@ 000698bc     libeay32:cms_err.obj
 0002:000018d0       ??_C@_0L@NHFFCEMH@CMS_verify?$AA@ 000698d0     libeay32:cms_err.obj
 0002:000018dc       ??_C@_0P@OPDEFJDG@CMS_uncompress?$AA@ 000698dc     libeay32:cms_err.obj
 0002:000018ec       ??_C@_0L@CMNAKEDG@CMS_stream?$AA@ 000698ec     libeay32:cms_err.obj
 0002:000018f8       ??_C@_0BB@OJKJBGPA@CMS_sign_receipt?$AA@ 000698f8     libeay32:cms_err.obj
 0002:0000190c       ??_C@_0BO@GDPNOCCN@CMS_SignerInfo_verify_content?$AA@ 0006990c     libeay32:cms_err.obj
 0002:0000192c       ??_C@_0BL@HPPJGHNG@CMS_SIGNERINFO_VERIFY_CERT?$AA@ 0006992c     libeay32:cms_err.obj
 0002:00001948       ??_C@_0BG@JGBNMIIN@CMS_SignerInfo_verify?$AA@ 00069948     libeay32:cms_err.obj
 0002:00001960       ??_C@_0BE@BCBEAGJM@CMS_SignerInfo_sign?$AA@ 00069960     libeay32:cms_err.obj
 0002:00001974       ??_C@_0BM@HLKOHAIJ@CMS_SIGNERINFO_CONTENT_SIGN?$AA@ 00069974     libeay32:cms_err.obj
 0002:00001990       ??_C@_0BF@HLPFDGMI@CMS_SIGNED_DATA_INIT?$AA@ 00069990     libeay32:cms_err.obj
 0002:000019a8       ??_C@_08ONCOPDLN@CMS_sign?$AA@ 000699a8     libeay32:cms_err.obj
 0002:000019b4       ??_C@_0BB@GNCOKBPO@CMS_set_detached?$AA@ 000699b4     libeay32:cms_err.obj
 0002:000019c8       ??_C@_0BK@KNGIIIB@cms_set1_SignerIdentifier?$AA@ 000699c8     libeay32:cms_err.obj
 0002:000019e4       ??_C@_0BM@CLJEMDDE@CMS_RecipientInfo_set0_pkey?$AA@ 000699e4     libeay32:cms_err.obj
 0002:00001a00       ??_C@_0CA@BPDHKOPM@CMS_RecipientInfo_set0_password?$AA@ 00069a00     libeay32:cms_err.obj
 0002:00001a20       ??_C@_0BL@GCLBMPOL@CMS_RecipientInfo_set0_key?$AA@ 00069a20     libeay32:cms_err.obj
 0002:00001a3c       ??_C@_0BN@EIBMMFBI@cms_RecipientInfo_pwri_crypt?$AA@ 00069a3c     libeay32:cms_err.obj
 0002:00001a5c       ??_C@_0CG@MDGMCNHP@CMS_RecipientInfo_ktri_get0_sign@ 00069a5c     libeay32:cms_err.obj
 0002:00001a84       ??_C@_0CB@MAJAJIJB@CMS_RecipientInfo_ktri_get0_algs@ 00069a84     libeay32:cms_err.obj
 0002:00001aa8       ??_C@_0BP@OAMIJOBO@CMS_RECIPIENTINFO_KTRI_ENCRYPT?$AA@ 00069aa8     libeay32:cms_err.obj
 0002:00001ac8       ??_C@_0BP@COGFMKHK@CMS_RECIPIENTINFO_KTRI_DECRYPT?$AA@ 00069ac8     libeay32:cms_err.obj
 0002:00001ae8       ??_C@_0CA@OHEFBGJP@CMS_RecipientInfo_ktri_cert_cmp?$AA@ 00069ae8     libeay32:cms_err.obj
 0002:00001b08       ??_C@_0BP@FEAOKEHC@CMS_RecipientInfo_kekri_id_cmp?$AA@ 00069b08     libeay32:cms_err.obj
 0002:00001b28       ??_C@_0CA@FHDOEBKK@CMS_RecipientInfo_kekri_get0_id?$AA@ 00069b28     libeay32:cms_err.obj
 0002:00001b48       ??_C@_0CA@LLHHMFLP@CMS_RECIPIENTINFO_KEKRI_ENCRYPT?$AA@ 00069b48     libeay32:cms_err.obj
 0002:00001b68       ??_C@_0CA@HFNKJBNL@CMS_RECIPIENTINFO_KEKRI_DECRYPT?$AA@ 00069b68     libeay32:cms_err.obj
 0002:00001b88       ??_C@_0BK@MJGGGDJP@CMS_RecipientInfo_decrypt?$AA@ 00069b88     libeay32:cms_err.obj
 0002:00001ba4       ??_C@_0BD@PJPKFFBN@cms_Receipt_verify?$AA@ 00069ba4     libeay32:cms_err.obj
 0002:00001bb8       ??_C@_0BL@JEBFMOJM@CMS_ReceiptRequest_create0?$AA@ 00069bb8     libeay32:cms_err.obj
 0002:00001bd4       ??_C@_0BG@NAKGFLPL@cms_msgSigDigest_add1?$AA@ 00069bd4     libeay32:cms_err.obj
 0002:00001bec       ??_C@_0BA@OPINNJHK@CMS_GET0_SIGNED?$AA@ 00069bec     libeay32:cms_err.obj
 0002:00001bfc       ??_C@_0BM@GGKLNKH@CMS_GET0_REVOCATION_CHOICES?$AA@ 00069bfc     libeay32:cms_err.obj
 0002:00001c18       ??_C@_0BD@IMILPDEA@cms_get0_enveloped?$AA@ 00069c18     libeay32:cms_err.obj
 0002:00001c2c       ??_C@_0BH@ELAGGFNC@CMS_GET0_ECONTENT_TYPE?$AA@ 00069c2c     libeay32:cms_err.obj
 0002:00001c44       ??_C@_0BB@KBMFHBNJ@CMS_get0_content?$AA@ 00069c44     libeay32:cms_err.obj
 0002:00001c58       ??_C@_0BN@JHKBLBCL@CMS_GET0_CERTIFICATE_CHOICES?$AA@ 00069c58     libeay32:cms_err.obj
 0002:00001c78       ??_C@_09FJDKFOPG@CMS_final?$AA@ 00069c78     libeay32:cms_err.obj
 0002:00001c84       ??_C@_0BI@LGKNJDCK@CMS_ENVELOPED_DATA_INIT?$AA@ 00069c84     libeay32:cms_err.obj
 0002:00001c9c       ??_C@_0BL@LPACJDLI@cms_EnvelopedData_init_bio?$AA@ 00069c9c     libeay32:cms_err.obj
 0002:00001cb8       ??_C@_0BJ@IOFCEDEP@CMS_EnvelopedData_create?$AA@ 00069cb8     libeay32:cms_err.obj
 0002:00001cd4       ??_C@_0BL@CINLHLFO@CMS_EncryptedData_set1_key?$AA@ 00069cd4     libeay32:cms_err.obj
 0002:00001cf0       ??_C@_0BK@IPLKOKCP@CMS_EncryptedData_encrypt?$AA@ 00069cf0     libeay32:cms_err.obj
 0002:00001d0c       ??_C@_0BK@EBBHLOEL@CMS_EncryptedData_decrypt?$AA@ 00069d0c     libeay32:cms_err.obj
 0002:00001d28       ??_C@_0BO@KJGCMDOC@cms_EncryptedContent_init_bio?$AA@ 00069d28     libeay32:cms_err.obj
 0002:00001d48       ??_C@_0M@GGKGNHBM@CMS_encrypt?$AA@ 00069d48     libeay32:cms_err.obj
 0002:00001d54       ??_C@_0BD@GFELKJAN@cms_encode_Receipt?$AA@ 00069d54     libeay32:cms_err.obj
 0002:00001d68       ??_C@_0BC@EBOECHMN@CMS_digest_verify?$AA@ 00069d68     libeay32:cms_err.obj
 0002:00001d7c       ??_C@_0BK@MPJJOAPG@cms_DigestedData_do_final?$AA@ 00069d7c     libeay32:cms_err.obj
 0002:00001d98       ??_C@_0BN@GKJNEGCL@cms_DigestAlgorithm_init_bio?$AA@ 00069d98     libeay32:cms_err.obj
 0002:00001db8       ??_C@_0BN@NAFBGPCG@cms_DigestAlgorithm_find_ctx?$AA@ 00069db8     libeay32:cms_err.obj
 0002:00001dd8       ??_C@_0BG@NGGHLDM@CMS_decrypt_set1_pkey?$AA@ 00069dd8     libeay32:cms_err.obj
 0002:00001df0       ??_C@_0BK@OFEJCPHJ@CMS_decrypt_set1_password?$AA@ 00069df0     libeay32:cms_err.obj
 0002:00001e0c       ??_C@_0BF@EJDJGLNL@CMS_decrypt_set1_key?$AA@ 00069e0c     libeay32:cms_err.obj
 0002:00001e24       ??_C@_0M@KIALIDHI@CMS_decrypt?$AA@ 00069e24     libeay32:cms_err.obj
 0002:00001e30       ??_C@_0N@LDENDKPJ@CMS_dataInit?$AA@ 00069e30     libeay32:cms_err.obj
 0002:00001e40       ??_C@_0O@MJNGBEMO@CMS_dataFinal?$AA@ 00069e40     libeay32:cms_err.obj
 0002:00001e50       ??_C@_08GDKCJBCG@CMS_data?$AA@ 00069e50     libeay32:cms_err.obj
 0002:00001e5c       ??_C@_0BH@LEEPHKHL@CMS_COPY_MESSAGEDIGEST?$AA@ 00069e5c     libeay32:cms_err.obj
 0002:00001e74       ??_C@_0BB@MGOOAMEI@CMS_COPY_CONTENT?$AA@ 00069e74     libeay32:cms_err.obj
 0002:00001e88       ??_C@_0BM@PPBOOFHN@cms_CompressedData_init_bio?$AA@ 00069e88     libeay32:cms_err.obj
 0002:00001ea4       ??_C@_0BK@LDGCLEIM@cms_CompressedData_create?$AA@ 00069ea4     libeay32:cms_err.obj
 0002:00001ec0       ??_C@_0N@KHGKPDNG@CMS_compress?$AA@ 00069ec0     libeay32:cms_err.obj
 0002:00001ed0       ??_C@_0BF@DHEFJKJH@CMS_ADD1_SIGNINGTIME?$AA@ 00069ed0     libeay32:cms_err.obj
 0002:00001ee8       ??_C@_0BA@DIKIAKAL@CMS_add1_signer?$AA@ 00069ee8     libeay32:cms_err.obj
 0002:00001ef8       ??_C@_0BI@ECOCMKIO@CMS_add1_recipient_cert?$AA@ 00069ef8     libeay32:cms_err.obj
 0002:00001f10       ??_C@_0BI@LKJJACNE@CMS_add1_ReceiptRequest?$AA@ 00069f10     libeay32:cms_err.obj
 0002:00001f28       ??_C@_0BM@CONIGCIH@CMS_add0_recipient_password?$AA@ 00069f28     libeay32:cms_err.obj
 0002:00001f44       ??_C@_0BH@IPBCDHLJ@CMS_add0_recipient_key?$AA@ 00069f44     libeay32:cms_err.obj
 0002:00001f5c       ??_C@_0O@LJGCAAGO@CMS_add0_cert?$AA@ 00069f5c     libeay32:cms_err.obj
 0002:00001f6c       ??_C@_0O@DNEAIJDG@CHECK_CONTENT?$AA@ 00069f6c     libeay32:cms_err.obj
 0002:00001f7c       ??_C@_0BI@HFFBAJKF@unknown?5control?5command?$AA@ 00069f7c     libeay32:ui_err.obj
 0002:00001f94       ??_C@_0BB@NEPBJBGF@result?5too?5small?$AA@ 00069f94     libeay32:ui_err.obj
 0002:00001fa8       ??_C@_0BB@HMLKGAPD@result?5too?5large?$AA@ 00069fa8     libeay32:ui_err.obj
 0002:00001fbc       ??_C@_0BB@HMMNCLKL@no?5result?5buffer?$AA@ 00069fbc     libeay32:ui_err.obj
 0002:00001fd0       ??_C@_0BA@CHEBNBMB@index?5too?5small?$AA@ 00069fd0     libeay32:ui_err.obj
 0002:00001fe0       ??_C@_0BA@IPAKCAFH@index?5too?5large?$AA@ 00069fe0     libeay32:ui_err.obj
 0002:00001ff0       ??_C@_0CA@MODCIDDB@common?5ok?5and?5cancel?5characters?$AA@ 00069ff0     libeay32:ui_err.obj
 0002:00002010       ??_C@_0O@EDJPOOGP@UI_set_result?$AA@ 0006a010     libeay32:ui_err.obj
 0002:00002020       ??_C@_0O@NGDBEIBL@UI_new_method?$AA@ 0006a020     libeay32:ui_err.obj
 0002:00002030       ??_C@_0P@LPDIOMBP@UI_get0_result?$AA@ 0006a030     libeay32:ui_err.obj
 0002:00002040       ??_C@_0BF@CLNOBEOL@UI_dup_verify_string?$AA@ 0006a040     libeay32:ui_err.obj
 0002:00002058       ??_C@_0BE@EKGBGIID@UI_dup_input_string?$AA@ 0006a058     libeay32:ui_err.obj
 0002:0000206c       ??_C@_0BF@POGJGJNM@UI_dup_input_boolean?$AA@ 0006a06c     libeay32:ui_err.obj
 0002:00002084       ??_C@_0BD@BDJEJKHN@UI_dup_info_string?$AA@ 0006a084     libeay32:ui_err.obj
 0002:00002098       ??_C@_0BE@MCDDKAGP@UI_dup_error_string?$AA@ 0006a098     libeay32:ui_err.obj
 0002:000020ac       ??_C@_07PKCPFHP@UI_ctrl?$AA@ 0006a0ac     libeay32:ui_err.obj
 0002:000020b4       ??_C@_0BI@OAGFBGFA@GENERAL_ALLOCATE_STRING?$AA@ 0006a0b4     libeay32:ui_err.obj
 0002:000020cc       ??_C@_0BI@GHJBOEFM@GENERAL_ALLOCATE_PROMPT?$AA@ 0006a0cc     libeay32:ui_err.obj
 0002:000020e4       ??_C@_0BJ@HEJNMKGO@GENERAL_ALLOCATE_BOOLEAN?$AA@ 0006a0e4     libeay32:ui_err.obj
 0002:00002100       ??_C@_0BP@PEMBCGCF@unsupported?5requestorname?5type?$AA@ 0006a100     libeay32:ocsp_err.obj
 0002:00002120       ??_C@_0M@MJJCBEFL@unknown?5nid?$AA@ 0006a120     libeay32:ocsp_err.obj
 0002:0000212c       ??_C@_0BH@HCJHEFDL@unknown?5message?5digest?$AA@ 0006a12c     libeay32:ocsp_err.obj
 0002:00002144       ??_C@_0P@GGIDMBBF@status?5too?5old?$AA@ 0006a144     libeay32:ocsp_err.obj
 0002:00002154       ??_C@_0BF@IGIMLKNE@status?5not?5yet?5valid?$AA@ 0006a154     libeay32:ocsp_err.obj
 0002:0000216c       ??_C@_0P@HOCKGMFL@status?5expired?$AA@ 0006a16c     libeay32:ocsp_err.obj
 0002:0000217c       ??_C@_0BC@FNMJPDOC@signature?5failure?$AA@ 0006a17c     libeay32:ocsp_err.obj
 0002:00002190       ??_C@_0BD@GNOPIANF@server?5write?5error?$AA@ 0006a190     libeay32:ocsp_err.obj
 0002:000021a4       ??_C@_0BM@PELFIJJH@server?5response?5parse?5error?$AA@ 0006a1a4     libeay32:ocsp_err.obj
 0002:000021c0       ??_C@_0BG@HMMPALGI@server?5response?5error?$AA@ 0006a1c0     libeay32:ocsp_err.obj
 0002:000021d8       ??_C@_0BC@IPNNFNEJ@server?5read?5error?$AA@ 0006a1d8     libeay32:ocsp_err.obj
 0002:000021ec       ??_C@_0BE@FPFBADPC@root?5ca?5not?5trusted?$AA@ 0006a1ec     libeay32:ocsp_err.obj
 0002:00002200       ??_C@_0CF@EOACFMGE@response?5contains?5no?5revocation?5@ 0006a200     libeay32:ocsp_err.obj
 0002:00002228       ??_C@_0BD@NCDAPJKO@request?5not?5signed?$AA@ 0006a228     libeay32:ocsp_err.obj
 0002:0000223c       ??_C@_0BA@KBOGMBML@no?5revoked?5time?$AA@ 0006a23c     libeay32:ocsp_err.obj
 0002:0000224c       ??_C@_0BB@GBCEEOG@no?5response?5data?$AA@ 0006a24c     libeay32:ocsp_err.obj
 0002:00002260       ??_C@_0BJ@PFPLJIP@no?5certificates?5in?5chain?$AA@ 0006a260     libeay32:ocsp_err.obj
 0002:0000227c       ??_C@_0BD@BKKPMAGI@not?5basic?5response?$AA@ 0006a27c     libeay32:ocsp_err.obj
 0002:00002290       ??_C@_0BN@MIEFPHNI@nextupdate?5before?5thisupdate?$AA@ 0006a290     libeay32:ocsp_err.obj
 0002:000022b0       ??_C@_0BK@CFIMGAGI@missing?5ocspsigning?5usage?$AA@ 0006a2b0     libeay32:ocsp_err.obj
 0002:000022cc       ??_C@_0BC@FBBBNNOE@error?5parsing?5url?$AA@ 0006a2cc     libeay32:ocsp_err.obj
 0002:000022e0       ??_C@_0BK@GDOEKJHF@error?5in?5thisupdate?5field?$AA@ 0006a2e0     libeay32:ocsp_err.obj
 0002:000022fc       ??_C@_0BK@NHIHEDGP@error?5in?5nextupdate?5field?$AA@ 0006a2fc     libeay32:ocsp_err.obj
 0002:00002318       ??_C@_0L@DDPIMMLP@digest?5err?$AA@ 0006a318     libeay32:ocsp_err.obj
 0002:00002324       ??_C@_08MPEBFEBH@bad?5data?$AA@ 0006a324     libeay32:ocsp_err.obj
 0002:00002330       ??_C@_0P@EJFIFBBI@REQUEST_VERIFY?$AA@ 0006a330     libeay32:ocsp_err.obj
 0002:00002340       ??_C@_0BB@PKOGPKEC@PARSE_HTTP_LINE1?$AA@ 0006a340     libeay32:ocsp_err.obj
 0002:00002354       ??_C@_0BC@EKOLHKDB@OCSP_sendreq_nbio?$AA@ 0006a354     libeay32:ocsp_err.obj
 0002:00002368       ??_C@_0BB@PJALPLHC@OCSP_sendreq_bio?$AA@ 0006a368     libeay32:ocsp_err.obj
 0002:0000237c       ??_C@_0BJ@PJFNFKOP@OCSP_response_get1_basic?$AA@ 0006a37c     libeay32:ocsp_err.obj
 0002:00002398       ??_C@_0BE@OFJONHDE@OCSP_request_verify?$AA@ 0006a398     libeay32:ocsp_err.obj
 0002:000023ac       ??_C@_0BC@BOKGIJKF@OCSP_request_sign?$AA@ 0006a3ac     libeay32:ocsp_err.obj
 0002:000023c0       ??_C@_0P@EGPIPMGP@OCSP_parse_url?$AA@ 0006a3c0     libeay32:ocsp_err.obj
 0002:000023d0       ??_C@_0BE@JIKJHJDO@OCSP_MATCH_ISSUERID?$AA@ 0006a3d0     libeay32:ocsp_err.obj
 0002:000023e4       ??_C@_0BE@MFKONAMO@OCSP_check_validity?$AA@ 0006a3e4     libeay32:ocsp_err.obj
 0002:000023f8       ??_C@_0BC@NGBDAEFF@OCSP_CHECK_ISSUER?$AA@ 0006a3f8     libeay32:ocsp_err.obj
 0002:0000240c       ??_C@_0P@DDGGJONL@OCSP_CHECK_IDS?$AA@ 0006a40c     libeay32:ocsp_err.obj
 0002:0000241c       ??_C@_0BF@KOGHHGND@OCSP_CHECK_DELEGATED?$AA@ 0006a41c     libeay32:ocsp_err.obj
 0002:00002434       ??_C@_0BB@FDFOGFMH@OCSP_cert_id_new?$AA@ 0006a434     libeay32:ocsp_err.obj
 0002:00002448       ??_C@_0BC@BKMFDAMH@OCSP_basic_verify?$AA@ 0006a448     libeay32:ocsp_err.obj
 0002:0000245c       ??_C@_0BA@ENHCHJFD@OCSP_basic_sign?$AA@ 0006a45c     libeay32:ocsp_err.obj
 0002:0000246c       ??_C@_0BH@GOAFBKBP@OCSP_basic_add1_status?$AA@ 0006a46c     libeay32:ocsp_err.obj
 0002:00002484       ??_C@_0P@MGFFHJND@D2I_OCSP_NONCE?$AA@ 0006a484     libeay32:ocsp_err.obj
 0002:00002494       ??_C@_0BD@NPDGBE@ASN1_STRING_encode?$AA@ 0006a494     libeay32:ocsp_err.obj
 0002:000024a8       ??_C@_0BI@GMELFAKF@version?5incompatibility?$AA@ 0006a4a8     libeay32:eng_err.obj
 0002:000024c0       ??_C@_0CA@OGBEJDPN@unimplemented?5public?5key?5method?$AA@ 0006a4c0     libeay32:eng_err.obj
 0002:000024e0       ??_C@_0BF@FHAJCIB@unimplemented?5digest?$AA@ 0006a4e0     libeay32:eng_err.obj
 0002:000024f8       ??_C@_0BF@KOIMEHAE@unimplemented?5cipher?$AA@ 0006a4f8     libeay32:eng_err.obj
 0002:00002510       ??_C@_0BE@ICGIJGPJ@rsa?5not?5implemented?$AA@ 0006a510     libeay32:eng_err.obj
 0002:00002524       ??_C@_0BD@OBEDCEHC@provide?5parameters?$AA@ 0006a524     libeay32:eng_err.obj
 0002:00002538       ??_C@_0BD@BAMGBJCH@no?5unload?5function?$AA@ 0006a538     libeay32:eng_err.obj
 0002:0000254c       ??_C@_0P@MKGFOFPM@no?5such?5engine?$AA@ 0006a54c     libeay32:eng_err.obj
 0002:0000255c       ??_C@_0N@GNFMHGFB@no?5reference?$AA@ 0006a55c     libeay32:eng_err.obj
 0002:0000256c       ??_C@_0BB@MEBKLLLP@no?5load?5function?$AA@ 0006a56c     libeay32:eng_err.obj
 0002:00002580       ??_C@_08FPGGDHDD@no?5index?$AA@ 0006a580     libeay32:eng_err.obj
 0002:0000258c       ??_C@_0BE@IBINMIII@no?5control?5function?$AA@ 0006a58c     libeay32:eng_err.obj
 0002:000025a0       ??_C@_0L@ICAFOIA@not?5loaded?$AA@ 0006a5a0     libeay32:eng_err.obj
 0002:000025ac       ??_C@_0BA@FEBOOGFB@not?5initialised?$AA@ 0006a5ac     libeay32:eng_err.obj
 0002:000025bc       ??_C@_0P@JNPPPLLF@invalid?5string?$AA@ 0006a5bc     libeay32:eng_err.obj
 0002:000025cc       ??_C@_0BD@HIPFLJCP@invalid?5init?5value?$AA@ 0006a5cc     libeay32:eng_err.obj
 0002:000025e0       ??_C@_0BD@PPGEIBJN@invalid?5cmd?5number?$AA@ 0006a5e0     libeay32:eng_err.obj
 0002:000025f4       ??_C@_0BB@CNFOOOPK@invalid?5cmd?5name?$AA@ 0006a5f4     libeay32:eng_err.obj
 0002:00002608       ??_C@_0BB@FCMFBGOM@invalid?5argument?$AA@ 0006a608     libeay32:eng_err.obj
 0002:0000261c       ??_C@_0BE@OKODLAII@internal?5list?5error?$AA@ 0006a61c     libeay32:eng_err.obj
 0002:00002630       ??_C@_0M@MLCJFCMN@init?5failed?$AA@ 0006a630     libeay32:eng_err.obj
 0002:0000263c       ??_C@_0BH@HIGAMGCJ@?8id?8?5or?5?8name?8?5missing?$AA@ 0006a63c     libeay32:eng_err.obj
 0002:00002654       ??_C@_0CB@LBPHDELA@could?5not?5obtain?5hardware?5handle@ 0006a654     libeay32:eng_err.obj
 0002:00002678       ??_C@_0O@LLOFKFAE@finish?5failed?$AA@ 0006a678     libeay32:eng_err.obj
 0002:00002688       ??_C@_0BK@OJHFAKGP@failed?5loading?5public?5key?$AA@ 0006a688     libeay32:eng_err.obj
 0002:000026a4       ??_C@_0BL@DPOFILLC@failed?5loading?5private?5key?$AA@ 0006a6a4     libeay32:eng_err.obj
 0002:000026c0       ??_C@_0BF@NFOFDGOH@engine?5section?5error?$AA@ 0006a6c0     libeay32:eng_err.obj
 0002:000026d8       ??_C@_0BK@OKABGIGB@engine?5is?5not?5in?5the?5list?$AA@ 0006a6d8     libeay32:eng_err.obj
 0002:000026f4       ??_C@_0BL@PJMIFLBC@engine?5configuration?5error?$AA@ 0006a6f4     libeay32:eng_err.obj
 0002:00002710       ??_C@_0BG@OGKPDNLL@engines?5section?5error?$AA@ 0006a710     libeay32:eng_err.obj
 0002:00002728       ??_C@_0O@BBPECCFC@dso?5not?5found?$AA@ 0006a728     libeay32:eng_err.obj
 0002:00002738       ??_C@_0M@OADBIJHF@DSO?5failure?$AA@ 0006a738     libeay32:eng_err.obj
 0002:00002744       ??_C@_0BE@OGINKAAJ@dsa?5not?5implemented?$AA@ 0006a744     libeay32:eng_err.obj
 0002:00002758       ??_C@_0BD@PDMGEBAD@dh?5not?5implemented?$AA@ 0006a758     libeay32:eng_err.obj
 0002:0000276c       ??_C@_0BN@NJGGMLOG@ctrl?5command?5not?5implemented?$AA@ 0006a76c     libeay32:eng_err.obj
 0002:0000278c       ??_C@_0BG@FIAJIFFO@conflicting?5engine?5id?$AA@ 0006a78c     libeay32:eng_err.obj
 0002:000027a4       ??_C@_0BH@KAPFONCA@command?5takes?5no?5input?$AA@ 0006a7a4     libeay32:eng_err.obj
 0002:000027bc       ??_C@_0BE@CMOMGKCM@command?5takes?5input?$AA@ 0006a7bc     libeay32:eng_err.obj
 0002:000027d0       ??_C@_0BD@DHLDGNIM@cmd?5not?5executable?$AA@ 0006a7d0     libeay32:eng_err.obj
 0002:000027e4       ??_C@_0BJ@MLKFDHJB@argument?5is?5not?5a?5number?$AA@ 0006a7e4     libeay32:eng_err.obj
 0002:00002800       ??_C@_0P@BJJHFGDF@already?5loaded?$AA@ 0006a800     libeay32:eng_err.obj
 0002:00002810       ??_C@_0M@KPAPOBEL@LOG_MESSAGE?$AA@ 0006a810     libeay32:eng_err.obj
 0002:0000281c       ??_C@_0BH@NKOABKBJ@INT_ENGINE_MODULE_INIT?$AA@ 0006a81c     libeay32:eng_err.obj
 0002:00002834       ??_C@_0BF@KHKGEEDA@INT_ENGINE_CONFIGURE?$AA@ 0006a834     libeay32:eng_err.obj
 0002:0000284c       ??_C@_0BA@NBOMGPDI@INT_CTRL_HELPER?$AA@ 0006a84c     libeay32:eng_err.obj
 0002:0000285c       ??_C@_0O@GOAHGMDB@ENGINE_up_ref?$AA@ 0006a85c     libeay32:eng_err.obj
 0002:0000286c       ??_C@_0BH@LANMBLCP@ENGINE_UNLOCKED_FINISH?$AA@ 0006a86c     libeay32:eng_err.obj
 0002:00002884       ??_C@_0BC@NNKOFPO@ENGINE_UNLOAD_KEY?$AA@ 0006a884     libeay32:eng_err.obj
 0002:00002898       ??_C@_0BG@HEPKCBPA@ENGINE_TABLE_REGISTER?$AA@ 0006a898     libeay32:eng_err.obj
 0002:000028b0       ??_C@_0BA@BBCLHLE@ENGINE_set_name?$AA@ 0006a8b0     libeay32:eng_err.obj
 0002:000028c0       ??_C@_0O@IBKJDIDD@ENGINE_set_id?$AA@ 0006a8c0     libeay32:eng_err.obj
 0002:000028d0       ??_C@_0BI@PCMFCKOJ@ENGINE_SET_DEFAULT_TYPE?$AA@ 0006a8d0     libeay32:eng_err.obj
 0002:000028e8       ??_C@_0BK@CMIADBNF@ENGINE_set_default_string?$AA@ 0006a8e8     libeay32:eng_err.obj
 0002:00002904       ??_C@_0O@LEGEOLNJ@ENGINE_remove?$AA@ 0006a904     libeay32:eng_err.obj
 0002:00002914       ??_C@_0L@DLEMNAIO@ENGINE_new?$AA@ 0006a914     libeay32:eng_err.obj
 0002:00002920       ??_C@_0BM@OANOBGKF@ENGINE_load_ssl_client_cert?$AA@ 0006a920     libeay32:eng_err.obj
 0002:0000293c       ??_C@_0BH@DNGJCACJ@ENGINE_load_public_key?$AA@ 0006a93c     libeay32:eng_err.obj
 0002:00002954       ??_C@_0BI@CBHILLDH@ENGINE_load_private_key?$AA@ 0006a954     libeay32:eng_err.obj
 0002:0000296c       ??_C@_0BD@LDGPIDHA@ENGINE_LIST_REMOVE?$AA@ 0006a96c     libeay32:eng_err.obj
 0002:00002980       ??_C@_0BA@LJOOGOPL@ENGINE_LIST_ADD?$AA@ 0006a980     libeay32:eng_err.obj
 0002:00002990       ??_C@_0M@DCPBILGO@ENGINE_init?$AA@ 0006a990     libeay32:eng_err.obj
 0002:0000299c       ??_C@_0BA@CLOGFHB@ENGINE_get_prev?$AA@ 0006a99c     libeay32:eng_err.obj
 0002:000029ac       ??_C@_0BF@KNMJNENJ@ENGINE_get_pkey_meth?$AA@ 0006a9ac     libeay32:eng_err.obj
 0002:000029c4       ??_C@_0BK@FIIKCJLD@ENGINE_get_pkey_asn1_meth?$AA@ 0006a9c4     libeay32:eng_err.obj
 0002:000029e0       ??_C@_0BA@DGGIHBBF@ENGINE_get_next?$AA@ 0006a9e0     libeay32:eng_err.obj
 0002:000029f0       ??_C@_0BC@NEPEFELB@ENGINE_get_digest?$AA@ 0006a9f0     libeay32:eng_err.obj
 0002:00002a04       ??_C@_0BI@JGJMJEFL@ENGINE_GET_DEFAULT_TYPE?$AA@ 0006aa04     libeay32:eng_err.obj
 0002:00002a1c       ??_C@_0BC@HPAIIBDE@ENGINE_get_cipher?$AA@ 0006aa1c     libeay32:eng_err.obj
 0002:00002a30       ??_C@_0BB@PJHBNDMO@ENGINE_FREE_UTIL?$AA@ 0006aa30     libeay32:eng_err.obj
 0002:00002a44       ??_C@_0O@IBJJAKNF@ENGINE_finish?$AA@ 0006aa44     libeay32:eng_err.obj
 0002:00002a54       ??_C@_0BH@IEMBPIBJ@ENGINE_ctrl_cmd_string?$AA@ 0006aa54     libeay32:eng_err.obj
 0002:00002a6c       ??_C@_0BA@NDKOOMLF@ENGINE_ctrl_cmd?$AA@ 0006aa6c     libeay32:eng_err.obj
 0002:00002a7c       ??_C@_0M@NFINPAPM@ENGINE_ctrl?$AA@ 0006aa7c     libeay32:eng_err.obj
 0002:00002a88       ??_C@_0BJ@HKGBPGOI@ENGINE_cmd_is_executable?$AA@ 0006aa88     libeay32:eng_err.obj
 0002:00002aa4       ??_C@_0N@NCBADPHI@ENGINE_by_id?$AA@ 0006aaa4     libeay32:eng_err.obj
 0002:00002ab4       ??_C@_0L@DACOLHN@ENGINE_add?$AA@ 0006aab4     libeay32:eng_err.obj
 0002:00002ac0       ??_C@_0BF@CMDFGLLL@DYNAMIC_SET_DATA_CTX?$AA@ 0006aac0     libeay32:eng_err.obj
 0002:00002ad8       ??_C@_0N@PDCGAECP@DYNAMIC_LOAD?$AA@ 0006aad8     libeay32:eng_err.obj
 0002:00002ae8       ??_C@_0BF@FIILKHPH@DYNAMIC_GET_DATA_CTX?$AA@ 0006aae8     libeay32:eng_err.obj
 0002:00002b00       ??_C@_0N@CANHNEEB@DYNAMIC_CTRL?$AA@ 0006ab00     libeay32:eng_err.obj
 0002:00002b10       ??_C@_0BD@ONLLMKAC@wrong?5content?5type?$AA@ 0006ab10     libeay32:ts_err.obj
 0002:00002b24       ??_C@_0BE@GIHMIKOK@unsupported?5version?$AA@ 0006ab24     libeay32:ts_err.obj
 0002:00002b38       ??_C@_0BJ@EEKKMNJN@unsupported?5md?5algorithm?$AA@ 0006ab38     libeay32:ts_err.obj
 0002:00002b54       ??_C@_0BE@BGDLMDPE@unacceptable?5policy?$AA@ 0006ab54     libeay32:ts_err.obj
 0002:00002b68       ??_C@_0M@DAAFFGJ@ts?5datasign?$AA@ 0006ab68     libeay32:ts_err.obj
 0002:00002b74       ??_C@_0BF@DKJELPOK@tst?5info?5setup?5error?$AA@ 0006ab74     libeay32:ts_err.obj
 0002:00002b8c       ??_C@_0O@HGLDNJNA@tsa?5untrusted?$AA@ 0006ab8c     libeay32:ts_err.obj
 0002:00002b9c       ??_C@_0BC@JCDOLPAM@tsa?5name?5mismatch?$AA@ 0006ab9c     libeay32:ts_err.obj
 0002:00002bb0       ??_C@_0O@PFJGPIJM@token?5present?$AA@ 0006abb0     libeay32:ts_err.obj
 0002:00002bc0       ??_C@_0BC@ECEKKIAN@token?5not?5present?$AA@ 0006abc0     libeay32:ts_err.obj
 0002:00002bd4       ??_C@_0BD@LIIGNAIL@time?5syscall?5error?$AA@ 0006abd4     libeay32:ts_err.obj
 0002:00002be8       ??_C@_0BJ@IMMKNIA@there?5must?5be?5one?5signer?$AA@ 0006abe8     libeay32:ts_err.obj
 0002:00002c04       ??_C@_0BF@HELKGHLI@response?5setup?5error?$AA@ 0006ac04     libeay32:ts_err.obj
 0002:00002c1c       ??_C@_0BA@MMPMGIJA@policy?5mismatch?$AA@ 0006ac1c     libeay32:ts_err.obj
 0002:00002c2c       ??_C@_0BM@OPFHKDNL@pkcs7?5to?5ts?5tst?5info?5failed?$AA@ 0006ac2c     libeay32:ts_err.obj
 0002:00002c48       ??_C@_0BM@HMEEBAGP@pkcs7?5add?5signed?5attr?5error?$AA@ 0006ac48     libeay32:ts_err.obj
 0002:00002c64       ??_C@_0BK@HFMOMPGJ@pkcs7?5add?5signature?5error?$AA@ 0006ac64     libeay32:ts_err.obj
 0002:00002c80       ??_C@_0BE@HKGKNPBO@no?5time?5stamp?5token?$AA@ 0006ac80     libeay32:ts_err.obj
 0002:00002c94       ??_C@_0BD@OIKCHNFI@nonce?5not?5returned?$AA@ 0006ac94     libeay32:ts_err.obj
 0002:00002ca8       ??_C@_0P@DEPHDNFM@nonce?5mismatch?$AA@ 0006aca8     libeay32:ts_err.obj
 0002:00002cb8       ??_C@_0BJ@NEMHGAK@message?5imprint?5mismatch?$AA@ 0006acb8     libeay32:ts_err.obj
 0002:00002cd4       ??_C@_0CD@JMDGIOD@invalid?5signer?5certificate?5purpo@ 0006acd4     libeay32:ts_err.obj
 0002:00002cf8       ??_C@_0BF@IPGLAOPL@invalid?5null?5pointer?$AA@ 0006acf8     libeay32:ts_err.obj
 0002:00002d10       ??_C@_0BO@LOJEHLMB@ess?5signing?5certificate?5error?$AA@ 0006ad10     libeay32:ts_err.obj
 0002:00002d30       ??_C@_0BL@IDONJCGG@ess?5add?5signing?5cert?5error?$AA@ 0006ad30     libeay32:ts_err.obj
 0002:00002d4c       ??_C@_0BB@BGNKKBKP@detached?5content?$AA@ 0006ad4c     libeay32:ts_err.obj
 0002:00002d60       ??_C@_0BH@PGKJHEIC@d2i?5ts?5resp?5int?5failed?$AA@ 0006ad60     libeay32:ts_err.obj
 0002:00002d78       ??_C@_0BD@EOEPMDF@could?5not?5set?5time?$AA@ 0006ad78     libeay32:ts_err.obj
 0002:00002d8c       ??_C@_0BF@JADDABHG@could?5not?5set?5engine?$AA@ 0006ad8c     libeay32:ts_err.obj
 0002:00002da4       ??_C@_08FJGJNBDN@bad?5type?$AA@ 0006ada4     libeay32:ts_err.obj
 0002:00002db0       ??_C@_0P@KJFPELCC@bad?5pkcs7?5type?$AA@ 0006adb0     libeay32:ts_err.obj
 0002:00002dc0       ??_C@_0BC@PMKDCJPB@TS_VERIFY_CTX_new?$AA@ 0006adc0     libeay32:ts_err.obj
 0002:00002dd4       ??_C@_0P@EEMBONBH@TS_VERIFY_CERT?$AA@ 0006add4     libeay32:ts_err.obj
 0002:00002de4       ??_C@_09MPGCPGED@TS_VERIFY?$AA@ 0006ade4     libeay32:ts_err.obj
 0002:00002df0       ??_C@_0BE@FJAAKDDK@TS_TST_INFO_set_tsa?$AA@ 0006adf0     libeay32:ts_err.obj
 0002:00002e04       ??_C@_0BF@OIGBAIGM@TS_TST_INFO_set_time?$AA@ 0006ae04     libeay32:ts_err.obj
 0002:00002e1c       ??_C@_0BH@FNMNIAFK@TS_TST_INFO_set_serial?$AA@ 0006ae1c     libeay32:ts_err.obj
 0002:00002e34       ??_C@_0BK@JIGEGHPI@TS_TST_INFO_set_policy_id?$AA@ 0006ae34     libeay32:ts_err.obj
 0002:00002e50       ??_C@_0BG@GHFDNEJI@TS_TST_INFO_set_nonce?$AA@ 0006ae50     libeay32:ts_err.obj
 0002:00002e68       ??_C@_0BM@IEMIMIPL@TS_TST_INFO_set_msg_imprint?$AA@ 0006ae68     libeay32:ts_err.obj
 0002:00002e84       ??_C@_0BJ@DNEONPJA@TS_TST_INFO_set_accuracy?$AA@ 0006ae84     libeay32:ts_err.obj
 0002:00002ea0       ??_C@_0BF@OIPDEICC@TS_RESP_verify_token?$AA@ 0006aea0     libeay32:ts_err.obj
 0002:00002eb8       ??_C@_0BJ@MPIGMHBH@TS_RESP_verify_signature?$AA@ 0006aeb8     libeay32:ts_err.obj
 0002:00002ed4       ??_C@_0N@DHNLKJGL@TS_RESP_SIGN?$AA@ 0006aed4     libeay32:ts_err.obj
 0002:00002ee4       ??_C@_0BF@GIGAKHCL@TS_RESP_set_tst_info?$AA@ 0006aee4     libeay32:ts_err.obj
 0002:00002efc       ??_C@_0BI@PAICHCKE@TS_RESP_set_status_info?$AA@ 0006aefc     libeay32:ts_err.obj
 0002:00002f14       ??_C@_0CD@CANHJHD@TS_RESP_SET_GENTIME_WITH_PRECISI@ 0006af14     libeay32:ts_err.obj
 0002:00002f38       ??_C@_0BD@FBFLPBEA@TS_RESP_GET_POLICY?$AA@ 0006af38     libeay32:ts_err.obj
 0002:00002f4c       ??_C@_0BM@CPPAEEJK@TS_RESP_CTX_set_status_info?$AA@ 0006af4c     libeay32:ts_err.obj
 0002:00002f68       ??_C@_0BM@ILAGBAPH@TS_RESP_CTX_set_signer_cert?$AA@ 0006af68     libeay32:ts_err.obj
 0002:00002f84       ??_C@_0BL@MIMGPLHO@TS_RESP_CTX_set_def_policy?$AA@ 0006af84     libeay32:ts_err.obj
 0002:00002fa0       ??_C@_0BG@OAIBOLBJ@TS_RESP_CTX_set_certs?$AA@ 0006afa0     libeay32:ts_err.obj
 0002:00002fb8       ??_C@_0BJ@NMDIGKEA@TS_RESP_CTX_set_accuracy?$AA@ 0006afb8     libeay32:ts_err.obj
 0002:00002fd4       ??_C@_0BA@KGPIMJJ@TS_RESP_CTX_new?$AA@ 0006afd4     libeay32:ts_err.obj
 0002:00002fe4       ??_C@_0BH@LJMGBPDF@TS_RESP_CTX_add_policy?$AA@ 0006afe4     libeay32:ts_err.obj
 0002:00002ffc       ??_C@_0BD@HAFNIPMB@TS_RESP_CTX_add_md?$AA@ 0006affc     libeay32:ts_err.obj
 0002:00003010       ??_C@_0BN@CABIECM@TS_RESP_CTX_add_failure_info?$AA@ 0006b010     libeay32:ts_err.obj
 0002:00003030       ??_C@_0BI@KGLLIOBM@TS_RESP_CREATE_TST_INFO?$AA@ 0006b030     libeay32:ts_err.obj
 0002:00003048       ??_C@_0BI@DECHCDBG@TS_RESP_create_response?$AA@ 0006b048     libeay32:ts_err.obj
 0002:00003060       ??_C@_0BF@PKANHDDJ@TS_REQ_set_policy_id?$AA@ 0006b060     libeay32:ts_err.obj
 0002:00003078       ??_C@_0BB@EIKDIEGN@TS_REQ_set_nonce?$AA@ 0006b078     libeay32:ts_err.obj
 0002:0000308c       ??_C@_0BH@EMPDJIOA@TS_REQ_set_msg_imprint?$AA@ 0006b08c     libeay32:ts_err.obj
 0002:000030a4       ??_C@_0BI@BMLOACLP@TS_MSG_IMPRINT_set_algo?$AA@ 0006b0a4     libeay32:ts_err.obj
 0002:000030bc       ??_C@_0BD@KIAIHHOF@TS_GET_STATUS_TEXT?$AA@ 0006b0bc     libeay32:ts_err.obj
 0002:000030d0       ??_C@_0BL@KPDHBLEH@TS_CONF_set_default_engine?$AA@ 0006b0d0     libeay32:ts_err.obj
 0002:000030ec       ??_C@_0BD@KALPCPNC@TS_COMPUTE_IMPRINT?$AA@ 0006b0ec     libeay32:ts_err.obj
 0002:00003100       ??_C@_0BF@DCHLKMIF@TS_CHECK_STATUS_INFO?$AA@ 0006b100     libeay32:ts_err.obj
 0002:00003118       ??_C@_0BH@KBPIGHCA@TS_CHECK_SIGNING_CERTS?$AA@ 0006b118     libeay32:ts_err.obj
 0002:00003130       ??_C@_0BA@GKENKOMJ@TS_CHECK_POLICY?$AA@ 0006b130     libeay32:ts_err.obj
 0002:00003140       ??_C@_0BA@LGLDGOGG@TS_CHECK_NONCES?$AA@ 0006b140     libeay32:ts_err.obj
 0002:00003150       ??_C@_0BC@NNCCIAGM@TS_CHECK_IMPRINTS?$AA@ 0006b150     libeay32:ts_err.obj
 0002:00003164       ??_C@_0BI@HCHFFCAB@TS_ACCURACY_set_seconds?$AA@ 0006b164     libeay32:ts_err.obj
 0002:0000317c       ??_C@_0BH@GLDDCJIE@TS_ACCURACY_set_millis?$AA@ 0006b17c     libeay32:ts_err.obj
 0002:00003194       ??_C@_0BH@FNCIOCEL@TS_ACCURACY_set_micros?$AA@ 0006b194     libeay32:ts_err.obj
 0002:000031ac       ??_C@_0BF@NEHHPIJO@PKCS7_to_TS_TST_INFO?$AA@ 0006b1ac     libeay32:ts_err.obj
 0002:000031c4       ??_C@_0BJ@FPCBNLKF@INT_TS_RESP_VERIFY_TOKEN?$AA@ 0006b1c4     libeay32:ts_err.obj
 0002:000031e0       ??_C@_0BK@JMEMFCFA@ESS_SIGNING_CERT_NEW_INIT?$AA@ 0006b1e0     libeay32:ts_err.obj
 0002:000031fc       ??_C@_0BF@COCNPBNI@ESS_CERT_ID_NEW_INIT?$AA@ 0006b1fc     libeay32:ts_err.obj
 0002:00003214       ??_C@_0BF@GFPKILJC@ESS_ADD_SIGNING_CERT?$AA@ 0006b214     libeay32:ts_err.obj
 0002:0000322c       ??_C@_0M@COMIPLAF@DEF_TIME_CB?$AA@ 0006b22c     libeay32:ts_err.obj
 0002:00003238       ??_C@_0O@JIKHDFOB@DEF_SERIAL_CB?$AA@ 0006b238     libeay32:ts_err.obj
 0002:00003248       ??_C@_0M@FLLAHAAK@d2i_TS_RESP?$AA@ 0006b248     libeay32:ts_err.obj
 0002:00003254       ??_C@_0BM@LHLEOIGK@functionality?5not?5supported?$AA@ 0006b254     libeay32:dso_err.obj
 0002:00003270       ??_C@_0CE@FOMJAKIK@could?5not?5unload?5the?5shared?5libr@ 0006b270     libeay32:dso_err.obj
 0002:00003294       ??_C@_0CM@JGGNADOB@could?5not?5bind?5to?5the?5requested?5@ 0006b294     libeay32:dso_err.obj
 0002:000032c0       ??_C@_0BP@PIEGKEEJ@the?5meth_data?5stack?5is?5corrupt?$AA@ 0006b2c0     libeay32:dso_err.obj
 0002:000032e0       ??_C@_0BE@NIHPFFEI@set?5filename?5failed?$AA@ 0006b2e0     libeay32:dso_err.obj
 0002:000032f4       ??_C@_0CG@BNDBJOHD@a?5null?5shared?5library?5handle?5was@ 0006b2f4     libeay32:dso_err.obj
 0002:0000331c       ??_C@_0BG@DMKAPHFP@no?5file?5specification?$AA@ 0006b31c     libeay32:dso_err.obj
 0002:00003334       ??_C@_0M@MANHICLF@no?5filename?$AA@ 0006b334     libeay32:dso_err.obj
 0002:00003340       ??_C@_0BI@CMDMEMFB@name?5translation?5failed?$AA@ 0006b340     libeay32:dso_err.obj
 0002:00003358       ??_C@_0CC@FFDOFDDH@could?5not?5load?5the?5shared?5librar@ 0006b358     libeay32:dso_err.obj
 0002:0000337c       ??_C@_0BG@NKEINIBP@incorrect?5file?5syntax?$AA@ 0006b37c     libeay32:dso_err.obj
 0002:00003394       ??_C@_0BP@OLOPAJM@cleanup?5method?5function?5failed?$AA@ 0006b394     libeay32:dso_err.obj
 0002:000033b4       ??_C@_0BB@PBMBADNF@filename?5too?5big?$AA@ 0006b3b4     libeay32:dso_err.obj
 0002:000033c8       ??_C@_07MBLPHJFH@failure?$AA@ 0006b3c8     libeay32:dso_err.obj
 0002:000033d0       ??_C@_0BF@PAMEGLNL@empty?5file?5structure?$AA@ 0006b3d0     libeay32:dso_err.obj
 0002:000033e8       ??_C@_0BD@BHBOFNOP@dso?5already?5loaded?$AA@ 0006b3e8     libeay32:dso_err.obj
 0002:000033fc       ??_C@_0BH@OOCPFGMG@control?5command?5failed?$AA@ 0006b3fc     libeay32:dso_err.obj
 0002:00003414       ??_C@_0N@FNAFDKAA@WIN32_UNLOAD?$AA@ 0006b414     libeay32:dso_err.obj
 0002:00003424       ??_C@_0P@MLLACKJ@WIN32_SPLITTER?$AA@ 0006b424     libeay32:dso_err.obj
 0002:00003434       ??_C@_0BB@NMILAIHE@WIN32_PATHBYADDR?$AA@ 0006b434     libeay32:dso_err.obj
 0002:00003448       ??_C@_0BF@KDGOAHDK@WIN32_NAME_CONVERTER?$AA@ 0006b448     libeay32:dso_err.obj
 0002:00003460       ??_C@_0N@GCAGAEGN@WIN32_MERGER?$AA@ 0006b460     libeay32:dso_err.obj
 0002:00003470       ??_C@_0L@MDFNLIFJ@WIN32_LOAD?$AA@ 0006b470     libeay32:dso_err.obj
 0002:0000347c       ??_C@_0N@GMACPAJM@WIN32_JOINER?$AA@ 0006b47c     libeay32:dso_err.obj
 0002:0000348c       ??_C@_0BI@IBLPJFIL@WIN32_GLOBALLOOKUP_FUNC?$AA@ 0006b48c     libeay32:dso_err.obj
 0002:000034a4       ??_C@_0BD@EGNJAOD@WIN32_GLOBALLOOKUP?$AA@ 0006b4a4     libeay32:dso_err.obj
 0002:000034b8       ??_C@_0P@CFCFCNCK@WIN32_BIND_VAR?$AA@ 0006b4b8     libeay32:dso_err.obj
 0002:000034c8       ??_C@_0BA@KKGNPNGD@WIN32_BIND_FUNC?$AA@ 0006b4c8     libeay32:dso_err.obj
 0002:000034d8       ??_C@_0L@FHGIHEGE@VMS_UNLOAD?$AA@ 0006b4d8     libeay32:dso_err.obj
 0002:000034e4       ??_C@_0L@GIGLEKAJ@VMS_MERGER?$AA@ 0006b4e4     libeay32:dso_err.obj
 0002:000034f0       ??_C@_08POPKNNEM@VMS_LOAD?$AA@ 0006b4f0     libeay32:dso_err.obj
 0002:000034fc       ??_C@_0N@FNGBOJBH@VMS_BIND_SYM?$AA@ 0006b4fc     libeay32:dso_err.obj
 0002:0000350c       ??_C@_0L@DOJGKPLN@PATHBYADDR?$AA@ 0006b50c     libeay32:dso_err.obj
 0002:00003518       ??_C@_0BD@IKENGPMB@GLOBAL_LOOKUP_FUNC?$AA@ 0006b518     libeay32:dso_err.obj
 0002:0000352c       ??_C@_0L@JOFLDDCD@DSO_up_ref?$AA@ 0006b52c     libeay32:dso_err.obj
 0002:00003538       ??_C@_0BH@HJLMMDGG@DSO_set_name_converter?$AA@ 0006b538     libeay32:dso_err.obj
 0002:00003550       ??_C@_0BB@KOOHGFJP@DSO_set_filename?$AA@ 0006b550     libeay32:dso_err.obj
 0002:00003564       ??_C@_0P@PLFANOCN@DSO_pathbyaddr?$AA@ 0006b564     libeay32:dso_err.obj
 0002:00003574       ??_C@_0P@MIPJLIEO@DSO_new_method?$AA@ 0006b574     libeay32:dso_err.obj
 0002:00003584       ??_C@_09JEEHMKBG@DSO_merge?$AA@ 0006b584     libeay32:dso_err.obj
 0002:00003590       ??_C@_08HJLJIAGA@DSO_load?$AA@ 0006b590     libeay32:dso_err.obj
 0002:0000359c       ??_C@_0BC@FCGODICD@DSO_global_lookup?$AA@ 0006b59c     libeay32:dso_err.obj
 0002:000035b0       ??_C@_0BI@BHCPJBAG@DSO_get_loaded_filename?$AA@ 0006b5b0     libeay32:dso_err.obj
 0002:000035c8       ??_C@_0BB@NKFJKJND@DSO_get_filename?$AA@ 0006b5c8     libeay32:dso_err.obj
 0002:000035dc       ??_C@_08IPGIIOBO@DSO_free?$AA@ 0006b5dc     libeay32:dso_err.obj
 0002:000035e8       ??_C@_08KKEIFAAO@DSO_ctrl?$AA@ 0006b5e8     libeay32:dso_err.obj
 0002:000035f4       ??_C@_0BF@LACAGLOM@DSO_convert_filename?$AA@ 0006b5f4     libeay32:dso_err.obj
 0002:0000360c       ??_C@_0N@JOCDIPCP@DSO_bind_var?$AA@ 0006b60c     libeay32:dso_err.obj
 0002:0000361c       ??_C@_0O@EPDICLOM@DSO_bind_func?$AA@ 0006b61c     libeay32:dso_err.obj
 0002:0000362c       ??_C@_09MAACBMPD@DL_UNLOAD?$AA@ 0006b62c     libeay32:dso_err.obj
 0002:00003638       ??_C@_0BC@EKHEMLCM@DL_NAME_CONVERTER?$AA@ 0006b638     libeay32:dso_err.obj
 0002:0000364c       ??_C@_09PPABCCJO@DL_MERGER?$AA@ 0006b64c     libeay32:dso_err.obj
 0002:00003658       ??_C@_07PCEANJHL@DL_LOAD?$AA@ 0006b658     libeay32:dso_err.obj
 0002:00003660       ??_C@_0M@MILJIHKO@DL_BIND_VAR?$AA@ 0006b660     libeay32:dso_err.obj
 0002:0000366c       ??_C@_0N@EAFFCGPA@DL_BIND_FUNC?$AA@ 0006b66c     libeay32:dso_err.obj
 0002:0000367c       ??_C@_0N@JGHGNDBI@DLFCN_UNLOAD?$AA@ 0006b67c     libeay32:dso_err.obj
 0002:0000368c       ??_C@_0BF@IJHLGIMF@DLFCN_NAME_CONVERTER?$AA@ 0006b68c     libeay32:dso_err.obj
 0002:000036a4       ??_C@_0N@KJHFONHF@DLFCN_MERGER?$AA@ 0006b6a4     libeay32:dso_err.obj
 0002:000036b4       ??_C@_0L@COCAFIAA@DLFCN_LOAD?$AA@ 0006b6b4     libeay32:dso_err.obj
 0002:000036c0       ??_C@_0P@HOOICENM@DLFCN_BIND_VAR?$AA@ 0006b6c0     libeay32:dso_err.obj
 0002:000036d0       ??_C@_0BA@POOIGHED@DLFCN_BIND_FUNC?$AA@ 0006b6d0     libeay32:dso_err.obj
 0002:000036e0       ??_C@_0M@KIIDFIHP@BEOS_UNLOAD?$AA@ 0006b6e0     libeay32:dso_err.obj
 0002:000036ec       ??_C@_0BE@ICAKPBCC@BEOS_NAME_CONVERTER?$AA@ 0006b6ec     libeay32:dso_err.obj
 0002:00003700       ??_C@_09LGFOAPMA@BEOS_LOAD?$AA@ 0006b700     libeay32:dso_err.obj
 0002:0000370c       ??_C@_0O@CODOLNOB@BEOS_BIND_VAR?$AA@ 0006b70c     libeay32:dso_err.obj
 0002:0000371c       ??_C@_0P@KGNAPNML@BEOS_BIND_FUNC?$AA@ 0006b71c     libeay32:dso_err.obj
 0002:0000372c       ??_C@_0BA@PGDKLOAF@PRNG?5not?5seeded?$AA@ 0006b72c     libeay32:rand_err.obj
 0002:0000373c       ??_C@_0BK@DNJBBHNJ@no?5fips?5random?5method?5set?$AA@ 0006b73c     libeay32:rand_err.obj
 0002:00003758       ??_C@_0BJ@EEMAPNFK@error?5instantiating?5drbg?$AA@ 0006b758     libeay32:rand_err.obj
 0002:00003774       ??_C@_0BI@FBCLCKDG@error?5initialising?5drbg?$AA@ 0006b774     libeay32:rand_err.obj
 0002:0000378c       ??_C@_0BC@HICMDCDB@SSLEAY_RAND_BYTES?$AA@ 0006b78c     libeay32:rand_err.obj
 0002:000037a0       ??_C@_0P@NOHKHPEN@RAND_init_fips?$AA@ 0006b7a0     libeay32:rand_err.obj
 0002:000037b0       ??_C@_0BF@CAFGGGED@RAND_get_rand_method?$AA@ 0006b7b0     libeay32:rand_err.obj
 0002:000037c8       ??_C@_0BI@EEIECHAF@unsupported?5pkcs12?5mode?$AA@ 0006b7c8     libeay32:pk12err.obj
 0002:000037e0       ??_C@_0BJ@OKONMLMC@unknown?5digest?5algorithm?$AA@ 0006b7e0     libeay32:pk12err.obj
 0002:000037fc       ??_C@_0BH@KFJJFPGN@pkcs12?5pbe?5crypt?5error?$AA@ 0006b7fc     libeay32:pk12err.obj
 0002:00003814       ??_C@_0BJ@BKJAONNI@pkcs12?5cipherfinal?5error?$AA@ 0006b814     libeay32:pk12err.obj
 0002:00003830       ??_C@_0BO@BBFFHMLJ@pkcs12?5algor?5cipherinit?5error?$AA@ 0006b830     libeay32:pk12err.obj
 0002:00003850       ??_C@_0M@BJIBBOFC@parse?5error?$AA@ 0006b850     libeay32:pk12err.obj
 0002:0000385c       ??_C@_0BD@GOKMGMNC@mac?5verify?5failure?$AA@ 0006b85c     libeay32:pk12err.obj
 0002:00003870       ??_C@_0BB@GIFNFEPC@mac?5verify?5error?$AA@ 0006b870     libeay32:pk12err.obj
 0002:00003884       ??_C@_0BF@JMCFJAMN@mac?5string?5set?5error?$AA@ 0006b884     libeay32:pk12err.obj
 0002:0000389c       ??_C@_0BA@ILPLLEEK@mac?5setup?5error?$AA@ 0006b89c     libeay32:pk12err.obj
 0002:000038ac       ??_C@_0BF@NKGPIEMN@mac?5generation?5error?$AA@ 0006b8ac     libeay32:pk12err.obj
 0002:000038c4       ??_C@_0L@HOOIALKD@mac?5absent?$AA@ 0006b8c4     libeay32:pk12err.obj
 0002:000038d0       ??_C@_0O@KKIOONMM@key?5gen?5error?$AA@ 0006b8d0     libeay32:pk12err.obj
 0002:000038e0       ??_C@_0N@FPIKEAMH@iv?5gen?5error?$AA@ 0006b8e0     libeay32:pk12err.obj
 0002:000038f0       ??_C@_0BM@HJIDLEHH@invalid?5null?5pkcs12?5pointer?$AA@ 0006b8f0     libeay32:pk12err.obj
 0002:0000390c       ??_C@_0BG@HMFEKIEC@invalid?5null?5argument?$AA@ 0006b90c     libeay32:pk12err.obj
 0002:00003924       ??_C@_0CC@OLHMBGOD@error?5setting?5encrypted?5data?5typ@ 0006b924     libeay32:pk12err.obj
 0002:00003948       ??_C@_0O@HCGKPNBB@encrypt?5error?$AA@ 0006b948     libeay32:pk12err.obj
 0002:00003958       ??_C@_0N@NJEIFFDB@encode?5error?$AA@ 0006b958     libeay32:pk12err.obj
 0002:00003968       ??_C@_0N@HFEMCILK@decode?5error?$AA@ 0006b968     libeay32:pk12err.obj
 0002:00003978       ??_C@_0BG@NAJKFFBP@content?5type?5not?5data?$AA@ 0006b978     libeay32:pk12err.obj
 0002:00003990       ??_C@_0BE@DIFPEDMB@cant?5pack?5structure?$AA@ 0006b990     libeay32:pk12err.obj
 0002:000039a4       ??_C@_0O@GEAAJNGL@PKCS8_encrypt?$AA@ 0006b9a4     libeay32:pk12err.obj
 0002:000039b4       ??_C@_0BD@PNOACOKG@PKCS8_add_keyusage?$AA@ 0006b9b4     libeay32:pk12err.obj
 0002:000039c8       ??_C@_0BC@ODGOFFJK@PKCS12_verify_mac?$AA@ 0006b9c8     libeay32:pk12err.obj
 0002:000039dc       ??_C@_0BF@PGHHFMGC@PKCS12_unpack_p7data?$AA@ 0006b9dc     libeay32:pk12err.obj
 0002:000039f4       ??_C@_0BI@LFBOHEJ@PKCS12_unpack_authsafes?$AA@ 0006b9f4     libeay32:pk12err.obj
 0002:00003a0c       ??_C@_0P@NELHLNIA@PKCS12_set_mac?$AA@ 0006ba0c     libeay32:pk12err.obj
 0002:00003a1c       ??_C@_0BB@KDNNBMPN@PKCS12_setup_mac?$AA@ 0006ba1c     libeay32:pk12err.obj
 0002:00003a30       ??_C@_0BE@IOEGDAJO@PKCS12_PBE_keyivgen?$AA@ 0006ba30     libeay32:pk12err.obj
 0002:00003a44       ??_C@_0BB@IMFIILMJ@PKCS12_pbe_crypt?$AA@ 0006ba44     libeay32:pk12err.obj
 0002:00003a58       ??_C@_0N@KODNLEFI@PKCS12_parse?$AA@ 0006ba58     libeay32:pk12err.obj
 0002:00003a68       ??_C@_0BG@GJBJGPGL@PKCS12_pack_p7encdata?$AA@ 0006ba68     libeay32:pk12err.obj
 0002:00003a80       ??_C@_0BD@CKGFANON@PKCS12_pack_p7data?$AA@ 0006ba80     libeay32:pk12err.obj
 0002:00003a94       ??_C@_0P@OJLKIJPG@PKCS12_newpass?$AA@ 0006ba94     libeay32:pk12err.obj
 0002:00003aa4       ??_C@_0BF@NOJGELOL@PKCS12_MAKE_SHKEYBAG?$AA@ 0006baa4     libeay32:pk12err.obj
 0002:00003abc       ??_C@_0BD@NGAACKBP@PKCS12_MAKE_KEYBAG?$AA@ 0006babc     libeay32:pk12err.obj
 0002:00003ad0       ??_C@_0BD@DMMKPAAN@PKCS12_key_gen_uni?$AA@ 0006bad0     libeay32:pk12err.obj
 0002:00003ae4       ??_C@_0BD@NKAOIGM@PKCS12_key_gen_asc?$AA@ 0006bae4     libeay32:pk12err.obj
 0002:00003af8       ??_C@_0BJ@KMABOEKC@PKCS12_item_pack_safebag?$AA@ 0006baf8     libeay32:pk12err.obj
 0002:00003b14       ??_C@_0BI@HHFDKLOA@PKCS12_item_i2d_encrypt?$AA@ 0006bb14     libeay32:pk12err.obj
 0002:00003b2c       ??_C@_0BI@DMGNLMLF@PKCS12_item_decrypt_d2i?$AA@ 0006bb2c     libeay32:pk12err.obj
 0002:00003b44       ??_C@_0M@LLKHLIMM@PKCS12_init?$AA@ 0006bb44     libeay32:pk12err.obj
 0002:00003b50       ??_C@_0P@IOALKDKM@PKCS12_gen_mac?$AA@ 0006bb50     libeay32:pk12err.obj
 0002:00003b60       ??_C@_0O@JLNEJADH@PKCS12_create?$AA@ 0006bb60     libeay32:pk12err.obj
 0002:00003b70       ??_C@_0BG@MCOKGJI@PKCS12_add_localkeyid?$AA@ 0006bb70     libeay32:pk12err.obj
 0002:00003b88       ??_C@_0BM@DMPHEEM@PKCS12_add_friendlyname_uni?$AA@ 0006bb88     libeay32:pk12err.obj
 0002:00003ba4       ??_C@_0BM@DCKFGMCN@PKCS12_add_friendlyname_asc?$AA@ 0006bba4     libeay32:pk12err.obj
 0002:00003bc0       ??_C@_0BI@NGMPLJFF@PKCS12_ADD_FRIENDLYNAME?$AA@ 0006bbc0     libeay32:pk12err.obj
 0002:00003bd8       ??_C@_0L@BEIACDCD@PARSE_BAGS?$AA@ 0006bbd8     libeay32:pk12err.obj
 0002:00003be4       ??_C@_09HDBNGMFC@PARSE_BAG?$AA@ 0006bbe4     libeay32:pk12err.obj
 0002:00003bf0       ??_C@_0O@JHPAMHAH@user?5too?5long?$AA@ 0006bbf0     libeay32:v3err.obj
 0002:00003c00       ??_C@_0BD@HBMBLBA@unsupported?5option?$AA@ 0006bc00     libeay32:v3err.obj
 0002:00003c14       ??_C@_0P@EMNDFJHN@unknown?5option?$AA@ 0006bc14     libeay32:v3err.obj
 0002:00003c24       ??_C@_0BH@BCAACBGI@unknown?5extension?5name?$AA@ 0006bc24     libeay32:v3err.obj
 0002:00003c3c       ??_C@_0BC@OOCHDELC@unknown?5extension?$AA@ 0006bc3c     libeay32:v3err.obj
 0002:00003c50       ??_C@_0BM@MKJMMAIK@unknown?5bit?5string?5argument?$AA@ 0006bc50     libeay32:v3err.obj
 0002:00003c6c       ??_C@_0BL@OBFDCJAP@unable?5to?5get?5issuer?5keyid?$AA@ 0006bc6c     libeay32:v3err.obj
 0002:00003c88       ??_C@_0BN@CHFBOPOP@unable?5to?5get?5issuer?5details?$AA@ 0006bc88     libeay32:v3err.obj
 0002:00003ca8       ??_C@_0BC@JNLKMDNP@section?5not?5found?$AA@ 0006bca8     libeay32:v3err.obj
 0002:00003cbc       ??_C@_0CO@JHHDKONF@policy?5when?5proxy?5language?5requi@ 0006bcbc     libeay32:v3err.obj
 0002:00003cec       ??_C@_0CG@MJOKMEM@policy?5syntax?5not?5currently?5supp@ 0006bcec     libeay32:v3err.obj
 0002:00003d14       ??_C@_0CD@BBDANIPI@policy?5path?5length?5already?5defin@ 0006bd14     libeay32:v3err.obj
 0002:00003d38       ??_C@_0BD@NEDBFMDL@policy?5path?5length?$AA@ 0006bd38     libeay32:v3err.obj
 0002:00003d4c       ??_C@_0CA@CPCFNOPI@policy?5language?5already?5defined?$AA@ 0006bd4c     libeay32:v3err.obj
 0002:00003d6c       ??_C@_0BA@MOGEPHBJ@othername?5error?$AA@ 0006bd6c     libeay32:v3err.obj
 0002:00003d7c       ??_C@_0BG@NMPNHAKE@operation?5not?5defined?$AA@ 0006bd7c     libeay32:v3err.obj
 0002:00003d94       ??_C@_0BF@KKPHKHFI@odd?5number?5of?5digits?$AA@ 0006bd94     libeay32:v3err.obj
 0002:00003dac       ??_C@_0BD@MBNAEAHJ@no?5subject?5details?$AA@ 0006bdac     libeay32:v3err.obj
 0002:00003dc0       ??_C@_0CG@OJBEOHLI@no?5proxy?5cert?5policy?5language?5de@ 0006bdc0     libeay32:v3err.obj
 0002:00003de8       ??_C@_0BF@GMFLKLFH@no?5policy?5identifier?$AA@ 0006bde8     libeay32:v3err.obj
 0002:00003e00       ??_C@_0BC@DGDOEGNM@no?5issuer?5details?$AA@ 0006be00     libeay32:v3err.obj
 0002:00003e14       ??_C@_0BG@BJHMFLGH@no?5issuer?5certificate?$AA@ 0006be14     libeay32:v3err.obj
 0002:00003e2c       ??_C@_0BD@GBCDPHMB@no?5config?5database?$AA@ 0006be2c     libeay32:v3err.obj
 0002:00003e40       ??_C@_0BO@NPHFIDLK@need?5organization?5and?5numbers?$AA@ 0006be40     libeay32:v3err.obj
 0002:00003e60       ??_C@_0O@EGLIOGHL@missing?5value?$AA@ 0006be60     libeay32:v3err.obj
 0002:00003e70       ??_C@_0BE@OKJPOHGC@issuer?5decode?5error?$AA@ 0006be70     libeay32:v3err.obj
 0002:00003e84       ??_C@_0P@OAAEFEAJ@invalid?5syntax?$AA@ 0006be84     libeay32:v3err.obj
 0002:00003e94       ??_C@_0BA@ECHPICKH@invalid?5section?$AA@ 0006be94     libeay32:v3err.obj
 0002:00003ea4       ??_C@_0N@FIBHOIMG@invalid?5safi?$AA@ 0006bea4     libeay32:v3err.obj
 0002:00003eb4       ??_C@_0BA@EFIHLCHH@invalid?5purpose?$AA@ 0006beb4     libeay32:v3err.obj
 0002:00003ec4       ??_C@_0BN@HOHNAMND@invalid?5proxy?5policy?5setting?$AA@ 0006bec4     libeay32:v3err.obj
 0002:00003ee4       ??_C@_0BK@EAPNGJJJ@invalid?5policy?5identifier?$AA@ 0006bee4     libeay32:v3err.obj
 0002:00003f00       ??_C@_0P@PJFAGLMH@invalid?5option?$AA@ 0006bf00     libeay32:v3err.obj
 0002:00003f10       ??_C@_0BK@NLNHJCIF@invalid?5object?5identifier?$AA@ 0006bf10     libeay32:v3err.obj
 0002:00003f2c       ??_C@_0BA@LGPBNKEG@invalid?5numbers?$AA@ 0006bf2c     libeay32:v3err.obj
 0002:00003f3c       ??_C@_0P@FOPLFLLJ@invalid?5number?$AA@ 0006bf3c     libeay32:v3err.obj
 0002:00003f4c       ??_C@_0BD@GLEJLJGC@invalid?5null?5value?$AA@ 0006bf4c     libeay32:v3err.obj
 0002:00003f60       ??_C@_0BC@EKAKHKC@invalid?5null?5name?$AA@ 0006bf60     libeay32:v3err.obj
 0002:00003f74       ??_C@_0N@GAIHBLBI@invalid?5name?$AA@ 0006bf74     libeay32:v3err.obj
 0002:00003f84       ??_C@_0BC@LAJKDMCB@invalid?5ipaddress?$AA@ 0006bf84     libeay32:v3err.obj
 0002:00003f98       ??_C@_0BE@EJNBIJCH@invalid?5inheritance?$AA@ 0006bf98     libeay32:v3err.obj
 0002:00003fac       ??_C@_0BJ@ECCGDIOM@invalid?5extension?5string?$AA@ 0006bfac     libeay32:v3err.obj
 0002:00003fc8       ??_C@_0BH@CJLEFGHB@invalid?5boolean?5string?$AA@ 0006bfc8     libeay32:v3err.obj
 0002:00003fe0       ??_C@_0BA@GIFFGEAD@invalid?5asrange?$AA@ 0006bfe0     libeay32:v3err.obj
 0002:00003ff0       ??_C@_0BB@MMCPCDHP@invalid?5asnumber?$AA@ 0006bff0     libeay32:v3err.obj
 0002:00004004       ??_C@_0BG@HKLEIIMK@invalid?5multiple?5rdns?$AA@ 0006c004     libeay32:v3err.obj
 0002:0000401c       ??_C@_0BM@GFPPDKKF@incorrect?5policy?5syntax?5tag?$AA@ 0006c01c     libeay32:v3err.obj
 0002:00004038       ??_C@_0BC@NGJFBKFK@illegal?5hex?5digit?$AA@ 0006c038     libeay32:v3err.obj
 0002:0000404c       ??_C@_0BI@JDFDJJBE@illegal?5empty?5extension?$AA@ 0006c04c     libeay32:v3err.obj
 0002:00004064       ??_C@_0BG@HAAPENCJ@extension?5value?5error?$AA@ 0006c064     libeay32:v3err.obj
 0002:0000407c       ??_C@_0CA@OIICHEJO@extension?5setting?5not?5supported?$AA@ 0006c07c     libeay32:v3err.obj
 0002:0000409c       ??_C@_0BE@PDPAEMIJ@extension?5not?5found?$AA@ 0006c09c     libeay32:v3err.obj
 0002:000040b0       ??_C@_0BF@NELDGAFP@extension?5name?5error?$AA@ 0006c0b0     libeay32:v3err.obj
 0002:000040c8       ??_C@_0BB@NMKOJBMO@extension?5exists?$AA@ 0006c0c8     libeay32:v3err.obj
 0002:000040dc       ??_C@_0BI@FPOKMAM@expected?5a?5section?5name?$AA@ 0006c0dc     libeay32:v3err.obj
 0002:000040f4       ??_C@_0BD@OJDPENBP@error?5in?5extension?$AA@ 0006c0f4     libeay32:v3err.obj
 0002:00004108       ??_C@_0BJ@PFLAAICM@error?5creating?5extension?$AA@ 0006c108     libeay32:v3err.obj
 0002:00004124       ??_C@_0BG@BJAKBIPP@error?5converting?5zone?$AA@ 0006c124     libeay32:v3err.obj
 0002:0000413c       ??_C@_0BC@CAFGAOAM@duplicate?5zone?5id?$AA@ 0006c13c     libeay32:v3err.obj
 0002:00004150       ??_C@_0BG@OJEPNJEI@distpoint?5already?5set?$AA@ 0006c150     libeay32:v3err.obj
 0002:00004168       ??_C@_0O@HIKALICP@dirname?5error?$AA@ 0006c168     libeay32:v3err.obj
 0002:00004178       ??_C@_0BJ@FNPACNBP@bn?5to?5asn1?5integer?5error?$AA@ 0006c178     libeay32:v3err.obj
 0002:00004194       ??_C@_0BA@CINBMAOD@bn?5dec2bn?5error?$AA@ 0006c194     libeay32:v3err.obj
 0002:000041a4       ??_C@_0L@LMGGIPFB@bad?5object?$AA@ 0006c1a4     libeay32:v3err.obj
 0002:000041b0       ??_C@_0P@HHIOGPLO@bad?5ip?5address?$AA@ 0006c1b0     libeay32:v3err.obj
 0002:000041c0       ??_C@_0BB@HHDJLLEN@X509_PURPOSE_set?$AA@ 0006c1c0     libeay32:v3err.obj
 0002:000041d4       ??_C@_0BB@MGCJFMDP@X509_PURPOSE_add?$AA@ 0006c1d4     libeay32:v3err.obj
 0002:000041e8       ??_C@_0BC@KJEMBDOE@X509V3_parse_list?$AA@ 0006c1e8     libeay32:v3err.obj
 0002:000041fc       ??_C@_0BG@MGIBIFAD@X509V3_get_value_bool?$AA@ 0006c1fc     libeay32:v3err.obj
 0002:00004214       ??_C@_0BC@DJANGIBG@X509V3_get_string?$AA@ 0006c214     libeay32:v3err.obj
 0002:00004228       ??_C@_0BD@NAEICGG@X509V3_get_section?$AA@ 0006c228     libeay32:v3err.obj
 0002:0000423c       ??_C@_0BB@LCMAPPDO@X509V3_EXT_nconf?$AA@ 0006c23c     libeay32:v3err.obj
 0002:00004250       ??_C@_0P@EKNPOBED@X509V3_EXT_i2d?$AA@ 0006c250     libeay32:v3err.obj
 0002:00004260       ??_C@_0BA@KCHIEJOC@X509V3_EXT_conf?$AA@ 0006c260     libeay32:v3err.obj
 0002:00004270       ??_C@_0BF@MMADKDDK@X509V3_EXT_add_alias?$AA@ 0006c270     libeay32:v3err.obj
 0002:00004288       ??_C@_0P@OHFKJLKO@X509V3_EXT_add?$AA@ 0006c288     libeay32:v3err.obj
 0002:00004298       ??_C@_0BB@FBAFPAF@X509V3_add_value?$AA@ 0006c298     libeay32:v3err.obj
 0002:000042ac       ??_C@_0BA@CDLAKIAK@X509V3_add1_i2d?$AA@ 0006c2ac     libeay32:v3err.obj
 0002:000042bc       ??_C@_0BF@CFAPJAED@V3_GENERIC_EXTENSION?$AA@ 0006c2bc     libeay32:v3err.obj
 0002:000042d4       ??_C@_0BP@FCHOOCEO@V3_ADDR_VALIDATE_PATH_INTERNAL?$AA@ 0006c2d4     libeay32:v3err.obj
 0002:000042f4       ??_C@_0BA@DHKCKDL@V2I_SUBJECT_ALT?$AA@ 0006c2f4     libeay32:v3err.obj
 0002:00004304       ??_C@_0BE@KOLIPFC@V2I_POLICY_MAPPINGS?$AA@ 0006c304     libeay32:v3err.obj
 0002:00004318       ??_C@_0BH@GFHHCJKN@V2I_POLICY_CONSTRAINTS?$AA@ 0006c318     libeay32:v3err.obj
 0002:00004330       ??_C@_0BF@MLIEBPGH@V2I_NAME_CONSTRAINTS?$AA@ 0006c330     libeay32:v3err.obj
 0002:00004348       ??_C@_0P@HKPGPAFL@V2I_ISSUER_ALT?$AA@ 0006c348     libeay32:v3err.obj
 0002:00004358       ??_C@_0BB@GHEBMKIK@V2I_IPADDRBLOCKS?$AA@ 0006c358     libeay32:v3err.obj
 0002:0000436c       ??_C@_07IPEIACON@V2I_IDP?$AA@ 0006c36c     libeay32:v3err.obj
 0002:00004374       ??_C@_0BE@EAFOFDEM@v2i_GENERAL_NAME_ex?$AA@ 0006c374     libeay32:v3err.obj
 0002:00004388       ??_C@_0BC@HHFBPNHH@v2i_GENERAL_NAMES?$AA@ 0006c388     libeay32:v3err.obj
 0002:0000439c       ??_C@_0BH@IDIMOMGB@V2I_EXTENDED_KEY_USAGE?$AA@ 0006c39c     libeay32:v3err.obj
 0002:000043b4       ??_C@_08GANPBGDA@V2I_CRLD?$AA@ 0006c3b4     libeay32:v3err.obj
 0002:000043c0       ??_C@_0BG@DJKMFBMP@V2I_BASIC_CONSTRAINTS?$AA@ 0006c3c0     libeay32:v3err.obj
 0002:000043d8       ??_C@_0BE@NCGIHFAP@V2I_AUTHORITY_KEYID?$AA@ 0006c3d8     libeay32:v3err.obj
 0002:000043ec       ??_C@_0BK@NMMKGGHG@V2I_AUTHORITY_INFO_ACCESS?$AA@ 0006c3ec     libeay32:v3err.obj
 0002:00004408       ??_C@_0BE@MDNGHKJM@v2i_ASN1_BIT_STRING?$AA@ 0006c408     libeay32:v3err.obj
 0002:0000441c       ??_C@_0BC@NFHLLIFI@V2I_ASIDENTIFIERS?$AA@ 0006c41c     libeay32:v3err.obj
 0002:00004430       ??_C@_0BD@NOFPGMLA@SXNET_get_id_ulong?$AA@ 0006c430     libeay32:v3err.obj
 0002:00004444       ??_C@_0BB@DCAEMBDN@SXNET_get_id_asc?$AA@ 0006c444     libeay32:v3err.obj
 0002:00004458       ??_C@_0BD@ELOJDLMJ@SXNET_add_id_ulong?$AA@ 0006c458     libeay32:v3err.obj
 0002:0000446c       ??_C@_0BF@KHDBJGPF@SXNET_add_id_INTEGER?$AA@ 0006c46c     libeay32:v3err.obj
 0002:00004484       ??_C@_0BB@JJLDCCDB@SXNET_add_id_asc?$AA@ 0006c484     libeay32:v3err.obj
 0002:00004498       ??_C@_0O@FGGLLMNC@string_to_hex?$AA@ 0006c498     libeay32:v3err.obj
 0002:000044a8       ??_C@_0BE@DCBADICH@SET_DIST_POINT_NAME?$AA@ 0006c4a8     libeay32:v3err.obj
 0002:000044bc       ??_C@_0M@PPIOCBAF@S2I_SKEY_ID?$AA@ 0006c4bc     libeay32:v3err.obj
 0002:000044c8       ??_C@_0BB@JOCKIPFF@S2I_ASN1_SKEY_ID?$AA@ 0006c4c8     libeay32:v3err.obj
 0002:000044dc       ??_C@_0BG@BLPNOPMK@s2i_ASN1_OCTET_STRING?$AA@ 0006c4dc     libeay32:v3err.obj
 0002:000044f4       ??_C@_0BB@GKLKBJAL@s2i_ASN1_INTEGER?$AA@ 0006c4f4     libeay32:v3err.obj
 0002:00004508       ??_C@_0BD@FNOIALGO@S2I_ASN1_IA5STRING?$AA@ 0006c508     libeay32:v3err.obj
 0002:0000451c       ??_C@_07LIFMKLJP@R2I_PCI?$AA@ 0006c51c     libeay32:v3err.obj
 0002:00004524       ??_C@_0M@DKNLDHGC@R2I_CERTPOL?$AA@ 0006c524     libeay32:v3err.obj
 0002:00004530       ??_C@_0BC@MLBEAOC@PROCESS_PCI_VALUE?$AA@ 0006c530     libeay32:v3err.obj
 0002:00004544       ??_C@_0P@OGMAKCCE@POLICY_SECTION?$AA@ 0006c544     libeay32:v3err.obj
 0002:00004554       ??_C@_08PMEPMHKO@NREF_NOS?$AA@ 0006c554     libeay32:v3err.obj
 0002:00004560       ??_C@_0P@JMEHDBMP@NOTICE_SECTION?$AA@ 0006c560     libeay32:v3err.obj
 0002:00004570       ??_C@_0BK@GHAMBPGA@I2V_AUTHORITY_INFO_ACCESS?$AA@ 0006c570     libeay32:v3err.obj
 0002:0000458c       ??_C@_0BB@GMKKLNHG@i2s_ASN1_INTEGER?$AA@ 0006c58c     libeay32:v3err.obj
 0002:000045a0       ??_C@_0BD@BGMCGNDE@I2S_ASN1_IA5STRING?$AA@ 0006c5a0     libeay32:v3err.obj
 0002:000045b4       ??_C@_0BE@PBLHIADL@i2s_ASN1_ENUMERATED?$AA@ 0006c5b4     libeay32:v3err.obj
 0002:000045c8       ??_C@_0O@FLJILPHC@hex_to_string?$AA@ 0006c5c8     libeay32:v3err.obj
 0002:000045d8       ??_C@_0BF@HALJGMFL@GNAMES_FROM_SECTNAME?$AA@ 0006c5d8     libeay32:v3err.obj
 0002:000045f0       ??_C@_0BI@PNFOPHFO@DO_I2V_NAME_CONSTRAINTS?$AA@ 0006c5f0     libeay32:v3err.obj
 0002:00004608       ??_C@_0N@KELHEBGM@DO_EXT_NCONF?$AA@ 0006c608     libeay32:v3err.obj
 0002:00004618       ??_C@_0L@DJEOCDBO@DO_EXT_I2D?$AA@ 0006c618     libeay32:v3err.obj
 0002:00004624       ??_C@_0M@ICGHHOPF@DO_EXT_CONF?$AA@ 0006c624     libeay32:v3err.obj
 0002:00004630       ??_C@_0L@DMJGNPBG@DO_DIRNAME?$AA@ 0006c630     libeay32:v3err.obj
 0002:0000463c       ??_C@_0M@ELLBFBDD@COPY_ISSUER?$AA@ 0006c63c     libeay32:v3err.obj
 0002:00004648       ??_C@_0L@KGBMNDCM@COPY_EMAIL?$AA@ 0006c648     libeay32:v3err.obj
 0002:00004654       ??_C@_0CA@PCJPNFHG@ASIDENTIFIERCHOICE_IS_CANONICAL?$AA@ 0006c654     libeay32:v3err.obj
 0002:00004674       ??_C@_0BM@FNMHINEI@ASIDENTIFIERCHOICE_CANONIZE?$AA@ 0006c674     libeay32:v3err.obj
 0002:00004690       ??_C@_0BB@DFAKAIBN@A2I_GENERAL_NAME?$AA@ 0006c690     libeay32:v3err.obj
 0002:000046a4       ??_C@_0BB@LMNDDHAO@wrong?5pkcs7?5type?$AA@ 0006c6a4     libeay32:pkcs7err.obj
 0002:000046b8       ??_C@_0BI@BDKIDJNG@unsupported?5cipher?5type?$AA@ 0006c6b8     libeay32:pkcs7err.obj
 0002:000046d0       ??_C@_0BC@BDMDPLFD@unknown?5operation?$AA@ 0006c6d0     libeay32:pkcs7err.obj
 0002:000046e4       ??_C@_0BE@FDMIMEPA@unknown?5digest?5type?$AA@ 0006c6e4     libeay32:pkcs7err.obj
 0002:000046f8       ??_C@_0BO@BPGCPEON@unable?5to?5find?5message?5digest?$AA@ 0006c6f8     libeay32:pkcs7err.obj
 0002:00004718       ??_C@_0BH@GGBACGPO@unable?5to?5find?5mem?5bio?$AA@ 0006c718     libeay32:pkcs7err.obj
 0002:00004730       ??_C@_0BL@MPEBNJMM@unable?5to?5find?5certificate?$AA@ 0006c730     libeay32:pkcs7err.obj
 0002:0000474c       ??_C@_0BG@HLPLMCAK@sig?5invalid?5mime?5type?$AA@ 0006c74c     libeay32:pkcs7err.obj
 0002:00004764       ??_C@_0CI@MODCEPNI@signing?5not?5supported?5for?5this?5k@ 0006c764     libeay32:pkcs7err.obj
 0002:0000478c       ??_C@_0BF@NKHMFGHO@signing?5ctrl?5failure?$AA@ 0006c78c     libeay32:pkcs7err.obj
 0002:000047a4       ??_C@_0BG@GDEPAMKB@pkcs7?5sig?5parse?5error?$AA@ 0006c7a4     libeay32:pkcs7err.obj
 0002:000047bc       ??_C@_0BC@HAIFOMAN@pkcs7?5parse?5error?$AA@ 0006c7bc     libeay32:pkcs7err.obj
 0002:000047d0       ??_C@_0P@MLIPMLPL@pkcs7?5datasign?$AA@ 0006c7d0     libeay32:pkcs7err.obj
 0002:000047e0       ??_C@_0BG@DENNOOLH@pkcs7?5datafinal?5error?$AA@ 0006c7e0     libeay32:pkcs7err.obj
 0002:000047f8       ??_C@_0BA@MGKDBLGL@pkcs7?5datafinal?$AA@ 0006c7f8     libeay32:pkcs7err.obj
 0002:00004808       ??_C@_0BH@HILILNFK@pkcs7?5add?5signer?5error?$AA@ 0006c808     libeay32:pkcs7err.obj
 0002:00004820       ??_C@_0CF@KFDJAIAE@operation?5not?5supported?5on?5this?5@ 0006c820     libeay32:pkcs7err.obj
 0002:00004848       ??_C@_0BE@PKDDELLH@no?5sig?5content?5type?$AA@ 0006c848     libeay32:pkcs7err.obj
 0002:0000485c       ??_C@_0BG@KJOJDMCP@no?5signatures?5on?5data?$AA@ 0006c85c     libeay32:pkcs7err.obj
 0002:00004874       ??_C@_0BJ@HNAOANNO@no?5recipient?5matches?5key?$AA@ 0006c874     libeay32:pkcs7err.obj
 0002:00004890       ??_C@_0CB@EOIABHI@no?5recipient?5matches?5certificate@ 0006c890     libeay32:pkcs7err.obj
 0002:000048b4       ??_C@_0BG@CCLGBNL@no?5multipart?5boundary?$AA@ 0006c8b4     libeay32:pkcs7err.obj
 0002:000048cc       ??_C@_0BK@BJLDLELE@no?5multipart?5body?5failure?$AA@ 0006c8cc     libeay32:pkcs7err.obj
 0002:000048e8       ??_C@_0BO@BPCBFOBN@no?5matching?5digest?5type?5found?$AA@ 0006c8e8     libeay32:pkcs7err.obj
 0002:00004908       ??_C@_0BG@FIKOHGJL@missing?5ceripend?5info?$AA@ 0006c908     libeay32:pkcs7err.obj
 0002:00004920       ??_C@_0BF@NGKJEMBA@mime?5sig?5parse?5error?$AA@ 0006c920     libeay32:pkcs7err.obj
 0002:00004938       ??_C@_0BB@CLOKMDJL@mime?5parse?5error?$AA@ 0006c938     libeay32:pkcs7err.obj
 0002:0000494c       ??_C@_0BF@JPGANBNB@mime?5no?5content?5type?$AA@ 0006c94c     libeay32:pkcs7err.obj
 0002:00004964       ??_C@_0BC@FHFCCIPJ@invalid?5mime?5type?$AA@ 0006c964     libeay32:pkcs7err.obj
 0002:00004978       ??_C@_0BF@EJOJNMMB@error?5setting?5cipher?$AA@ 0006c978     libeay32:pkcs7err.obj
 0002:00004990       ??_C@_0BH@PJNOPIMM@error?5adding?5recipient?$AA@ 0006c990     libeay32:pkcs7err.obj
 0002:000049a8       ??_C@_0CL@KPOELFBN@encryption?5not?5supported?5for?5thi@ 0006c9a8     libeay32:pkcs7err.obj
 0002:000049d4       ??_C@_0BI@FLDJBJEB@encryption?5ctrl?5failure?$AA@ 0006c9d4     libeay32:pkcs7err.obj
 0002:000049ec       ??_C@_0P@EAGFKBJN@digest?5failure?$AA@ 0006c9ec     libeay32:pkcs7err.obj
 0002:000049fc       ??_C@_0BO@LNIEDLGB@decrypted?5key?5is?5wrong?5length?$AA@ 0006c9fc     libeay32:pkcs7err.obj
 0002:00004a1c       ??_C@_0BJ@JDGHLKE@content?5and?5data?5present?$AA@ 0006ca1c     libeay32:pkcs7err.obj
 0002:00004a38       ??_C@_0BH@HHGJPEG@cipher?5not?5initialized?$AA@ 0006ca38     libeay32:pkcs7err.obj
 0002:00004a50       ??_C@_0CA@BHNCFDBP@cipher?5has?5no?5object?5identifier?$AA@ 0006ca50     libeay32:pkcs7err.obj
 0002:00004a70       ??_C@_0L@CEDJDPJO@SMIME_text?$AA@ 0006ca70     libeay32:pkcs7err.obj
 0002:00004a7c       ??_C@_0BB@KDHLDBMO@SMIME_read_PKCS7?$AA@ 0006ca7c     libeay32:pkcs7err.obj
 0002:00004a90       ??_C@_0N@MDDFJGNF@PKCS7_verify?$AA@ 0006ca90     libeay32:pkcs7err.obj
 0002:00004aa0       ??_C@_0BG@NGGLELOE@PKCS7_simple_smimecap?$AA@ 0006caa0     libeay32:pkcs7err.obj
 0002:00004ab8       ??_C@_0BG@ODCDGOGB@PKCS7_sign_add_signer?$AA@ 0006cab8     libeay32:pkcs7err.obj
 0002:00004ad0       ??_C@_0BH@BLILFECF@PKCS7_SIGNER_INFO_sign?$AA@ 0006cad0     libeay32:pkcs7err.obj
 0002:00004ae8       ??_C@_0BG@EIAOKKPM@PKCS7_SIGNER_INFO_set?$AA@ 0006cae8     libeay32:pkcs7err.obj
 0002:00004b00       ??_C@_0BG@PMADOMPD@PKCS7_signatureVerify?$AA@ 0006cb00     libeay32:pkcs7err.obj
 0002:00004b18       ??_C@_0L@GIIMDMGD@PKCS7_sign?$AA@ 0006cb18     libeay32:pkcs7err.obj
 0002:00004b24       ??_C@_0P@EIBMGDIL@PKCS7_set_type?$AA@ 0006cb24     libeay32:pkcs7err.obj
 0002:00004b34       ??_C@_0BB@KHOAIGEC@PKCS7_set_digest?$AA@ 0006cb34     libeay32:pkcs7err.obj
 0002:00004b48       ??_C@_0BC@KEHPIBPE@PKCS7_set_content?$AA@ 0006cb48     libeay32:pkcs7err.obj
 0002:00004b5c       ??_C@_0BB@MBMFDMH@PKCS7_set_cipher?$AA@ 0006cb5c     libeay32:pkcs7err.obj
 0002:00004b70       ??_C@_0BF@OGANHOPM@PKCS7_RECIP_INFO_set?$AA@ 0006cb70     libeay32:pkcs7err.obj
 0002:00004b88       ??_C@_0BD@ONJMGDLL@PKCS7_get0_signers?$AA@ 0006cb88     libeay32:pkcs7err.obj
 0002:00004b9c       ??_C@_0BC@PMCDCHO@PKCS7_FIND_DIGEST?$AA@ 0006cb9c     libeay32:pkcs7err.obj
 0002:00004bb0       ??_C@_0M@DINEADOK@PKCS7_final?$AA@ 0006cbb0     libeay32:pkcs7err.obj
 0002:00004bbc       ??_C@_0O@JFALMGOG@PKCS7_encrypt?$AA@ 0006cbbc     libeay32:pkcs7err.obj
 0002:00004bcc       ??_C@_0BD@PHHOANMB@PKCS7_ENCODE_RINFO?$AA@ 0006cbcc     libeay32:pkcs7err.obj
 0002:00004be0       ??_C@_0BE@JNDPEFCA@PKCS7_DECRYPT_RINFO?$AA@ 0006cbe0     libeay32:pkcs7err.obj
 0002:00004bf4       ??_C@_0O@FLKGJCIC@PKCS7_decrypt?$AA@ 0006cbf4     libeay32:pkcs7err.obj
 0002:00004c04       ??_C@_0BB@LMCKHKKD@PKCS7_dataVerify?$AA@ 0006cc04     libeay32:pkcs7err.obj
 0002:00004c18       ??_C@_0P@FNIPPNIC@PKCS7_DATASIGN?$AA@ 0006cc18     libeay32:pkcs7err.obj
 0002:00004c28       ??_C@_0P@OONGIMOK@PKCS7_dataInit?$AA@ 0006cc28     libeay32:pkcs7err.obj
 0002:00004c38       ??_C@_0BA@ENDFMOKG@PKCS7_dataFinal?$AA@ 0006cc38     libeay32:pkcs7err.obj
 0002:00004c48       ??_C@_0BB@NBHDJPJJ@PKCS7_dataDecode?$AA@ 0006cc48     libeay32:pkcs7err.obj
 0002:00004c5c       ??_C@_0L@ICMECHLK@PKCS7_ctrl?$AA@ 0006cc5c     libeay32:pkcs7err.obj
 0002:00004c68       ??_C@_0BL@EDLJNLML@PKCS7_COPY_EXISTING_DIGEST?$AA@ 0006cc68     libeay32:pkcs7err.obj
 0002:00004c84       ??_C@_0BF@HBBJACAF@PKCS7_BIO_ADD_DIGEST?$AA@ 0006cc84     libeay32:pkcs7err.obj
 0002:00004c9c       ??_C@_0BB@CJPBIPAC@PKCS7_add_signer?$AA@ 0006cc9c     libeay32:pkcs7err.obj
 0002:00004cb0       ??_C@_0BE@HCOKFGIN@PKCS7_add_signature?$AA@ 0006ccb0     libeay32:pkcs7err.obj
 0002:00004cc4       ??_C@_0BJ@NOCKKMGL@PKCS7_add_recipient_info?$AA@ 0006ccc4     libeay32:pkcs7err.obj
 0002:00004ce0       ??_C@_0O@CPFOLHJD@PKCS7_add_crl?$AA@ 0006cce0     libeay32:pkcs7err.obj
 0002:00004cf0       ??_C@_0BG@DMGOLPOM@PKCS7_add_certificate?$AA@ 0006ccf0     libeay32:pkcs7err.obj
 0002:00004d08       ??_C@_0BK@HOMOFJDN@PKCS7_add_attrib_smimecap?$AA@ 0006cd08     libeay32:pkcs7err.obj
 0002:00004d24       ??_C@_0BP@OLGBKKPO@PKCS7_add0_attrib_signing_time?$AA@ 0006cd24     libeay32:pkcs7err.obj
 0002:00004d44       ??_C@_0BF@EMAJJAAB@i2d_PKCS7_bio_stream?$AA@ 0006cd44     libeay32:pkcs7err.obj
 0002:00004d5c       ??_C@_0BH@HCBGADHN@DO_PKCS7_SIGNED_ATTRIB?$AA@ 0006cd5c     libeay32:pkcs7err.obj
 0002:00004d74       ??_C@_0BA@NHGCDPL@B64_WRITE_PKCS7?$AA@ 0006cd74     libeay32:pkcs7err.obj
 0002:00004d84       ??_C@_0P@CNHJDHJP@B64_READ_PKCS7?$AA@ 0006cd84     libeay32:pkcs7err.obj
 0002:00004d94       ??_C@_0L@EEFLCHHA@WSAStartup?$AA@ 0006cd94     libeay32:bio_err.obj
 0002:00004da0       ??_C@_0BH@JKPNCGEG@write?5to?5read?5only?5BIO?$AA@ 0006cda0     libeay32:bio_err.obj
 0002:00004db8       ??_C@_0BD@IBMLBGPO@unsupported?5method?$AA@ 0006cdb8     libeay32:bio_err.obj
 0002:00004dcc       ??_C@_0O@MBAHBKHG@uninitialized?$AA@ 0006cdcc     libeay32:bio_err.obj
 0002:00004ddc       ??_C@_0BI@IMDEIGOC@unable?5to?5listen?5socket?$AA@ 0006cddc     libeay32:bio_err.obj
 0002:00004df4       ??_C@_0BI@PPNDHPPD@unable?5to?5create?5socket?$AA@ 0006cdf4     libeay32:bio_err.obj
 0002:00004e0c       ??_C@_0BG@FHGKKMFN@unable?5to?5bind?5socket?$AA@ 0006ce0c     libeay32:bio_err.obj
 0002:00004e24       ??_C@_0N@KDFLPJNC@tag?5mismatch?$AA@ 0006ce24     libeay32:bio_err.obj
 0002:00004e34       ??_C@_0P@PKDFLBFD@null?5parameter?$AA@ 0006ce34     libeay32:bio_err.obj
 0002:00004e44       ??_C@_0N@JHAEJMBC@no?5such?5file?$AA@ 0006ce44     libeay32:bio_err.obj
 0002:00004e54       ??_C@_0BC@JMJFCOFK@no?5port?5specified?$AA@ 0006ce54     libeay32:bio_err.obj
 0002:00004e68       ??_C@_0BA@LJKOOBIO@no?5port?5defined?$AA@ 0006ce68     libeay32:bio_err.obj
 0002:00004e78       ??_C@_0BG@JKBKGOCO@no?5hostname?5specified?$AA@ 0006ce78     libeay32:bio_err.obj
 0002:00004e90       ??_C@_0BJ@GKFIJAJL@no?5accept?5port?5specified?$AA@ 0006ce90     libeay32:bio_err.obj
 0002:00004eac       ??_C@_0BD@POMCLPDD@nbio?5connect?5error?$AA@ 0006ceac     libeay32:bio_err.obj
 0002:00004ec0       ??_C@_09MGFHKHCL@keepalive?$AA@ 0006cec0     libeay32:bio_err.obj
 0002:00004ecc       ??_C@_06JNFOHBNM@in?5use?$AA@ 0006cecc     libeay32:bio_err.obj
 0002:00004ed4       ??_C@_0BD@LLPPBLCA@invalid?5ip?5address?$AA@ 0006ced4     libeay32:bio_err.obj
 0002:00004ee8       ??_C@_0CC@PGBNHLMO@gethostbyname?5addr?5is?5not?5af?5ine@ 0006cee8     libeay32:bio_err.obj
 0002:00004f0c       ??_C@_0CE@GODMPCOM@error?5setting?5nbio?5on?5accept?5soc@ 0006cf0c     libeay32:bio_err.obj
 0002:00004f30       ??_C@_0CG@JPMNKLHJ@error?5setting?5nbio?5on?5accepted?5s@ 0006cf30     libeay32:bio_err.obj
 0002:00004f58       ??_C@_0BD@LABEPFLI@error?5setting?5nbio?$AA@ 0006cf58     libeay32:bio_err.obj
 0002:00004f6c       ??_C@_0BC@DJNFOHIO@EOF?5on?5memory?5BIO?$AA@ 0006cf6c     libeay32:bio_err.obj
 0002:00004f80       ??_C@_0O@MFKCCHBC@connect?5error?$AA@ 0006cf80     libeay32:bio_err.obj
 0002:00004f90       ??_C@_0M@KPHOFDBE@broken?5pipe?$AA@ 0006cf90     libeay32:bio_err.obj
 0002:00004f9c       ??_C@_0BE@HPLPMGEP@bad?5hostname?5lookup?$AA@ 0006cf9c     libeay32:bio_err.obj
 0002:00004fb0       ??_C@_0P@HMIOPJLA@bad?5fopen?5mode?$AA@ 0006cfb0     libeay32:bio_err.obj
 0002:00004fc0       ??_C@_0N@NBEBIMEI@accept?5error?$AA@ 0006cfc0     libeay32:bio_err.obj
 0002:00004fd0       ??_C@_0L@EAHAPJKC@WSASTARTUP?$AA@ 0006cfd0     libeay32:bio_err.obj
 0002:00004fdc       ??_C@_07GEALNDFO@SSL_new?$AA@ 0006cfdc     libeay32:bio_err.obj
 0002:00004fe4       ??_C@_09NHMOJNMM@MEM_WRITE?$AA@ 0006cfe4     libeay32:bio_err.obj
 0002:00004ff0       ??_C@_08IEAGDEEB@MEM_READ?$AA@ 0006cff0     libeay32:bio_err.obj
 0002:00004ffc       ??_C@_0BA@KHKLOGKO@LINEBUFFER_CTRL?$AA@ 0006cffc     libeay32:bio_err.obj
 0002:0000500c       ??_C@_09GDGNDLDO@FILE_READ?$AA@ 0006d00c     libeay32:bio_err.obj
 0002:00005018       ??_C@_09PBCCNH@FILE_CTRL?$AA@ 0006d018     libeay32:bio_err.obj
 0002:00005024       ??_C@_0BA@OKAMFHCA@DGRAM_SCTP_READ?$AA@ 0006d024     libeay32:bio_err.obj
 0002:00005034       ??_C@_0L@MJCDONOC@CONN_STATE?$AA@ 0006d034     libeay32:bio_err.obj
 0002:00005040       ??_C@_09NFOAMDJO@CONN_CTRL?$AA@ 0006d040     libeay32:bio_err.obj
 0002:0000504c       ??_C@_0M@CPJAKCHN@BUFFER_CTRL?$AA@ 0006d04c     libeay32:bio_err.obj
 0002:00005058       ??_C@_09EJECNFGG@BIO_write?$AA@ 0006d058     libeay32:bio_err.obj
 0002:00005064       ??_C@_0O@OKBNIDJO@BIO_sock_init?$AA@ 0006d064     libeay32:bio_err.obj
 0002:00005074       ??_C@_08FHLFBNIO@BIO_read?$AA@ 0006d074     libeay32:bio_err.obj
 0002:00005080       ??_C@_08GCACPMHM@BIO_puts?$AA@ 0006d080     libeay32:bio_err.obj
 0002:0000508c       ??_C@_0M@HMEMAIDG@BIO_nwrite0?$AA@ 0006d08c     libeay32:bio_err.obj
 0002:00005098       ??_C@_0L@LGDOLBGC@BIO_nwrite?$AA@ 0006d098     libeay32:bio_err.obj
 0002:000050a4       ??_C@_0L@CKGNEJMN@BIO_nread0?$AA@ 0006d0a4     libeay32:bio_err.obj
 0002:000050b0       ??_C@_09CELLGJFH@BIO_nread?$AA@ 0006d0b0     libeay32:bio_err.obj
 0002:000050bc       ??_C@_0BA@KKBPEOM@BIO_new_mem_buf?$AA@ 0006d0bc     libeay32:bio_err.obj
 0002:000050cc       ??_C@_0N@FMJJBHLM@BIO_new_file?$AA@ 0006d0cc     libeay32:bio_err.obj
 0002:000050dc       ??_C@_07JBCAFDMF@BIO_new?$AA@ 0006d0dc     libeay32:bio_err.obj
 0002:000050e4       ??_C@_0O@MMPGPDFN@BIO_MAKE_PAIR?$AA@ 0006d0e4     libeay32:bio_err.obj
 0002:000050f4       ??_C@_0N@EOHICLOO@BIO_get_port?$AA@ 0006d0f4     libeay32:bio_err.obj
 0002:00005104       ??_C@_0BA@BEIHJGBF@BIO_get_host_ip?$AA@ 0006d104     libeay32:bio_err.obj
 0002:00005114       ??_C@_0BG@OBCHEGOE@BIO_get_accept_socket?$AA@ 0006d114     libeay32:bio_err.obj
 0002:0000512c       ??_C@_08OANLOAHB@BIO_gets?$AA@ 0006d12c     libeay32:bio_err.obj
 0002:00005138       ??_C@_0BC@FKJOFNNM@BIO_gethostbyname?$AA@ 0006d138     libeay32:bio_err.obj
 0002:0000514c       ??_C@_08DECJAEGH@BIO_ctrl?$AA@ 0006d14c     libeay32:bio_err.obj
 0002:00005158       ??_C@_0BC@CFHCBGEE@BIO_callback_ctrl?$AA@ 0006d158     libeay32:bio_err.obj
 0002:0000516c       ??_C@_0BD@IAPMAGLL@BIO_BER_GET_HEADER?$AA@ 0006d16c     libeay32:bio_err.obj
 0002:00005180       ??_C@_0L@JLLHALEA@BIO_accept?$AA@ 0006d180     libeay32:bio_err.obj
 0002:0000518c       ??_C@_0L@CAKAAKN@ACPT_STATE?$AA@ 0006d18c     libeay32:bio_err.obj
 0002:00005198       ??_C@_0BJ@GIHJPDAI@point?5arithmetic?5failure?$AA@ 0006d198     libeay32:ech_err.obj
 0002:000051b4       ??_C@_0BB@COKBGGEN@no?5private?5value?$AA@ 0006d1b4     libeay32:ech_err.obj
 0002:000051c8       ??_C@_0BA@MAGMKJLO@non?5fips?5method?$AA@ 0006d1c8     libeay32:ech_err.obj
 0002:000051d8       ??_C@_0L@CDCPDAHG@KDF?5failed?$AA@ 0006d1d8     libeay32:ech_err.obj
 0002:000051e4       ??_C@_0BF@GOHHALFG@ECDH_DATA_new_method?$AA@ 0006d1e4     libeay32:ech_err.obj
 0002:000051fc       ??_C@_0BB@IOKCFGPF@ECDH_compute_key?$AA@ 0006d1fc     libeay32:ech_err.obj
 0002:00005210       ??_C@_0L@MGKFDDAC@ECDH_CHECK?$AA@ 0006d210     libeay32:ech_err.obj
 0002:0000521c       ??_C@_0BI@IHHJBEMD@signature?5malloc?5failed?$AA@ 0006d21c     libeay32:ecs_err.obj
 0002:00005234       ??_C@_0CA@PEINDBLK@random?5number?5generation?5failed?$AA@ 0006d234     libeay32:ecs_err.obj
 0002:00005254       ??_C@_0BG@CMMPCEJC@need?5new?5setup?5values?$AA@ 0006d254     libeay32:ecs_err.obj
 0002:0000526c       ??_C@_0BD@FMCFODNL@missing?5parameters?$AA@ 0006d26c     libeay32:ecs_err.obj
 0002:00005280       ??_C@_0L@JHHGCIEK@err?5ec?5lib?$AA@ 0006d280     libeay32:ecs_err.obj
 0002:0000528c       ??_C@_0BM@LDGAMALI@data?5too?5large?5for?5key?5size?$AA@ 0006d28c     libeay32:ecs_err.obj
 0002:000052a8       ??_C@_0O@NKHGIDL@bad?5signature?$AA@ 0006d2a8     libeay32:ecs_err.obj
 0002:000052b8       ??_C@_0BB@IKKHAHBP@ECDSA_sign_setup?$AA@ 0006d2b8     libeay32:ecs_err.obj
 0002:000052cc       ??_C@_0BA@EHPKHBIM@ECDSA_do_verify?$AA@ 0006d2cc     libeay32:ecs_err.obj
 0002:000052dc       ??_C@_0O@HPIOKGCH@ECDSA_do_sign?$AA@ 0006d2dc     libeay32:ecs_err.obj
 0002:000052ec       ??_C@_0BG@PPIAHALF@ECDSA_DATA_NEW_METHOD?$AA@ 0006d2ec     libeay32:ecs_err.obj
 0002:00005304       ??_C@_0M@KDLAGBMI@ECDSA_CHECK?$AA@ 0006d304     libeay32:ecs_err.obj
 0002:00005310       ??_C@_0M@EOIJFDOH@wrong?5order?$AA@ 0006d310     libeay32:ec_err.obj
 0002:0000531c       ??_C@_0BH@IMKFEGMC@wrong?5curve?5parameters?$AA@ 0006d31c     libeay32:ec_err.obj
 0002:00005334       ??_C@_0BC@JMLAMKLK@unsupported?5field?$AA@ 0006d334     libeay32:ec_err.obj
 0002:00005348       ??_C@_0O@MMOMPOPJ@unknown?5order?$AA@ 0006d348     libeay32:ec_err.obj
 0002:00005358       ??_C@_0O@NJKODKGH@unknown?5group?$AA@ 0006d358     libeay32:ec_err.obj
 0002:00005368       ??_C@_0BA@KMEKJECH@undefined?5order?$AA@ 0006d368     libeay32:ec_err.obj
 0002:00005378       ??_C@_0BE@EGDCECDM@undefined?5generator?$AA@ 0006d378     libeay32:ec_err.obj
 0002:0000538c       ??_C@_09GPAKFMBH@slot?5full?$AA@ 0006d38c     libeay32:ec_err.obj
 0002:00005398       ??_C@_0BG@HJHIMKPE@point?5is?5not?5on?5curve?$AA@ 0006d398     libeay32:ec_err.obj
 0002:000053b0       ??_C@_0BC@GCGFLKCO@point?5at?5infinity?$AA@ 0006d3b0     libeay32:ec_err.obj
 0002:000053c4       ??_C@_0BL@ELPENPAK@pkparameters2group?5failure?$AA@ 0006d3c4     libeay32:ec_err.obj
 0002:000053e0       ??_C@_0BG@DNAKIAMA@passed?5null?5parameter?$AA@ 0006d3e0     libeay32:ec_err.obj
 0002:000053f8       ??_C@_0BC@GIAEKLLJ@no?5parameters?5set?$AA@ 0006d3f8     libeay32:ec_err.obj
 0002:0000540c       ??_C@_0N@PJBCLHJD@no?5field?5mod?$AA@ 0006d40c     libeay32:ec_err.obj
 0002:0000541c       ??_C@_0BA@CJBGKJNL@not?5initialized?$AA@ 0006d41c     libeay32:ec_err.obj
 0002:0000542c       ??_C@_0BA@JJKIAAEB@not?5implemented?$AA@ 0006d42c     libeay32:ec_err.obj
 0002:0000543c       ??_C@_0BL@JNPAJGEA@not?5a?5supported?5NIST?5prime?$AA@ 0006d43c     libeay32:ec_err.obj
 0002:00005458       ??_C@_0BB@BMGODCLF@not?5a?5NIST?5prime?$AA@ 0006d458     libeay32:ec_err.obj
 0002:0000546c       ??_C@_0BE@DEHOFIII@missing?5private?5key?$AA@ 0006d46c     libeay32:ec_err.obj
 0002:00005480       ??_C@_0N@CGIIEDML@keys?5not?5set?$AA@ 0006d480     libeay32:ec_err.obj
 0002:00005490       ??_C@_0BI@JECPOIKH@invalid?5trinomial?5basis?$AA@ 0006d490     libeay32:ec_err.obj
 0002:000054a8       ??_C@_0BE@IKADKHBA@invalid?5private?5key?$AA@ 0006d4a8     libeay32:ec_err.obj
 0002:000054bc       ??_C@_0BK@FNMGACKE@invalid?5pentanomial?5basis?$AA@ 0006d4bc     libeay32:ec_err.obj
 0002:000054d8       ??_C@_0BE@PJEEGFKA@invalid?5group?5order?$AA@ 0006d4d8     libeay32:ec_err.obj
 0002:000054ec       ??_C@_0N@GPILEJKP@invalid?5form?$AA@ 0006d4ec     libeay32:ec_err.obj
 0002:000054fc       ??_C@_0O@ENLGLCC@invalid?5field?$AA@ 0006d4fc     libeay32:ec_err.obj
 0002:0000550c       ??_C@_0BB@FEBGPKDB@invalid?5encoding?$AA@ 0006d50c     libeay32:ec_err.obj
 0002:00005520       ??_C@_0BE@CJFMBLEL@invalid?5digest?5type?$AA@ 0006d520     libeay32:ec_err.obj
 0002:00005534       ??_C@_0O@DEGCPIND@invalid?5curve?$AA@ 0006d534     libeay32:ec_err.obj
 0002:00005544       ??_C@_0BI@LFAIIMLE@invalid?5compression?5bit?$AA@ 0006d544     libeay32:ec_err.obj
 0002:0000555c       ??_C@_0BJ@MNCPMIGN@invalid?5compressed?5point?$AA@ 0006d55c     libeay32:ec_err.obj
 0002:00005578       ??_C@_0BF@PILBEPF@incompatible?5objects?$AA@ 0006d578     libeay32:ec_err.obj
 0002:00005590       ??_C@_0BL@PCNBEHHO@i2d?5ecpkparameters?5failure?$AA@ 0006d590     libeay32:ec_err.obj
 0002:000055ac       ??_C@_0BL@OGODAEJ@group2pkparameters?5failure?$AA@ 0006d5ac     libeay32:ec_err.obj
 0002:000055c8       ??_C@_0BD@EBPFBOJF@gf2m?5not?5supported?$AA@ 0006d5c8     libeay32:ec_err.obj
 0002:000055dc       ??_C@_0BA@IJGJADJE@field?5too?5large?$AA@ 0006d5dc     libeay32:ec_err.obj
 0002:000055ec       ??_C@_0BN@FLBCEDHC@ec?5group?5new?5by?5name?5failure?$AA@ 0006d5ec     libeay32:ec_err.obj
 0002:0000560c       ??_C@_0BF@CBFOEPCG@discriminant?5is?5zero?$AA@ 0006d60c     libeay32:ec_err.obj
 0002:00005624       ??_C@_0BL@ENKDKILC@d2i?5ecpkparameters?5failure?$AA@ 0006d624     libeay32:ec_err.obj
 0002:00005640       ??_C@_0BJ@NKAFKGBO@coordinates?5out?5of?5range?$AA@ 0006d640     libeay32:ec_err.obj
 0002:0000565c       ??_C@_0BB@CABJKBPN@buffer?5too?5small?$AA@ 0006d65c     libeay32:ec_err.obj
 0002:00005670       ??_C@_0BE@OABMJMCN@bignum?5out?5of?5range?$AA@ 0006d670     libeay32:ec_err.obj
 0002:00005684       ??_C@_0BD@CGGBEGAN@asn1?5unknown?5field?$AA@ 0006d684     libeay32:ec_err.obj
 0002:00005698       ??_C@_0L@EOLINLAB@asn1?5error?$AA@ 0006d698     libeay32:ec_err.obj
 0002:000056a4       ??_C@_0N@JMMDEJFH@PKEY_EC_SIGN?$AA@ 0006d6a4     libeay32:ec_err.obj
 0002:000056b4       ??_C@_0BB@KACMCNKG@PKEY_EC_PARAMGEN?$AA@ 0006d6b4     libeay32:ec_err.obj
 0002:000056c8       ??_C@_0P@GDHKPHHP@PKEY_EC_KEYGEN?$AA@ 0006d6c8     libeay32:ec_err.obj
 0002:000056d8       ??_C@_0P@PPKJAFFG@PKEY_EC_DERIVE?$AA@ 0006d6d8     libeay32:ec_err.obj
 0002:000056e8       ??_C@_0BB@IDGMOPLD@PKEY_EC_CTRL_STR?$AA@ 0006d6e8     libeay32:ec_err.obj
 0002:000056fc       ??_C@_0N@HGILFCIO@PKEY_EC_CTRL?$AA@ 0006d6fc     libeay32:ec_err.obj
 0002:0000570c       ??_C@_0BD@DFJHKIOP@OLD_EC_PRIV_DECODE?$AA@ 0006d70c     libeay32:ec_err.obj
 0002:00005720       ??_C@_0BA@PLLAKFLG@o2i_ECPublicKey?$AA@ 0006d720     libeay32:ec_err.obj
 0002:00005730       ??_C@_0BG@LEEGNPDC@NISTP521_PRE_COMP_NEW?$AA@ 0006d730     libeay32:ec_err.obj
 0002:00005748       ??_C@_0BG@PCCMFEBG@NISTP256_PRE_COMP_NEW?$AA@ 0006d748     libeay32:ec_err.obj
 0002:00005760       ??_C@_0BG@KHFDBNPC@NISTP224_PRE_COMP_NEW?$AA@ 0006d760     libeay32:ec_err.obj
 0002:00005778       ??_C@_0BA@FAODIHOE@i2o_ECPublicKey?$AA@ 0006d778     libeay32:ec_err.obj
 0002:00005788       ??_C@_0BB@MNAGGNI@i2d_ECPrivateKey?$AA@ 0006d788     libeay32:ec_err.obj
 0002:0000579c       ??_C@_0BD@EJJCMPPD@i2d_ECPKParameters?$AA@ 0006d79c     libeay32:ec_err.obj
 0002:000057b0       ??_C@_0BB@GJGDDIKH@i2d_ECParameters?$AA@ 0006d7b0     libeay32:ec_err.obj
 0002:000057c4       ??_C@_0BI@BBMLGAEE@ec_wNAF_precompute_mult?$AA@ 0006d7c4     libeay32:ec_err.obj
 0002:000057dc       ??_C@_0M@MOCHBPNP@ec_wNAF_mul?$AA@ 0006d7dc     libeay32:ec_err.obj
 0002:000057e8       ??_C@_0BA@KHGDGKMC@EC_PRE_COMP_NEW?$AA@ 0006d7e8     libeay32:ec_err.obj
 0002:000057f8       ??_C@_0BA@JLLJLPBB@EC_PRE_COMP_DUP?$AA@ 0006d7f8     libeay32:ec_err.obj
 0002:00005808       ??_C@_0BJ@OKHKHJLG@EC_POINT_set_to_infinity?$AA@ 0006d808     libeay32:ec_err.obj
 0002:00005824       ??_C@_0CJ@OEEMAMPO@EC_POINT_set_Jprojective_coordin@ 0006d824     libeay32:ec_err.obj
 0002:00005850       ??_C@_0CI@KEKPCLNN@EC_POINT_set_compressed_coordina@ 0006d850     libeay32:ec_err.obj
 0002:00005878       ??_C@_0CJ@FLILENAG@EC_POINT_set_compressed_coordina@ 0006d878     libeay32:ec_err.obj
 0002:000058a4       ??_C@_0CE@BGAPNKLA@EC_POINT_set_affine_coordinates_@ 0006d8a4     libeay32:ec_err.obj
 0002:000058c8       ??_C@_0CF@GIDKPABC@EC_POINT_set_affine_coordinates_@ 0006d8c8     libeay32:ec_err.obj
 0002:000058f0       ??_C@_0BD@OIBFFFMJ@EC_POINT_point2oct?$AA@ 0006d8f0     libeay32:ec_err.obj
 0002:00005904       ??_C@_0BD@KNOOFOGC@EC_POINT_oct2point?$AA@ 0006d904     libeay32:ec_err.obj
 0002:00005918       ??_C@_0N@LOIMDOGK@EC_POINT_new?$AA@ 0006d918     libeay32:ec_err.obj
 0002:00005928       ??_C@_0N@BJCJPJGO@EC_POINT_mul?$AA@ 0006d928     libeay32:ec_err.obj
 0002:00005938       ??_C@_0BF@OGCGANIF@EC_POINT_make_affine?$AA@ 0006d938     libeay32:ec_err.obj
 0002:00005950       ??_C@_0BF@LEBHDAHH@EC_POINT_is_on_curve?$AA@ 0006d950     libeay32:ec_err.obj
 0002:00005968       ??_C@_0BI@OBFGKGNP@EC_POINT_is_at_infinity?$AA@ 0006d968     libeay32:ec_err.obj
 0002:00005980       ??_C@_0BA@GCFFHKDO@EC_POINT_invert?$AA@ 0006d980     libeay32:ec_err.obj
 0002:00005990       ??_C@_0CJ@IIJPHIDN@EC_POINT_get_Jprojective_coordin@ 0006d990     libeay32:ec_err.obj
 0002:000059bc       ??_C@_0CE@CJDKBKKA@EC_POINT_get_affine_coordinates_@ 0006d9bc     libeay32:ec_err.obj
 0002:000059e0       ??_C@_0CF@HFLCNFLG@EC_POINT_get_affine_coordinates_@ 0006d9e0     libeay32:ec_err.obj
 0002:00005a08       ??_C@_0N@HNEIADBB@EC_POINT_dbl?$AA@ 0006da08     libeay32:ec_err.obj
 0002:00005a18       ??_C@_0O@MBEGPEJH@EC_POINT_copy?$AA@ 0006da18     libeay32:ec_err.obj
 0002:00005a28       ??_C@_0N@NLECBMI@EC_POINT_cmp?$AA@ 0006da28     libeay32:ec_err.obj
 0002:00005a38       ??_C@_0N@IGMCAFJJ@EC_POINT_add?$AA@ 0006da38     libeay32:ec_err.obj
 0002:00005a48       ??_C@_0BG@BELCPGD@EC_POINTs_make_affine?$AA@ 0006da48     libeay32:ec_err.obj
 0002:00005a60       ??_C@_0CJ@PKPNGFF@EC_KEY_set_public_key_affine_coo@ 0006da60     libeay32:ec_err.obj
 0002:00005a8c       ??_C@_0BA@JKENIEBO@EC_KEY_print_fp?$AA@ 0006da8c     libeay32:ec_err.obj
 0002:00005a9c       ??_C@_0N@FGDNEALE@EC_KEY_print?$AA@ 0006da9c     libeay32:ec_err.obj
 0002:00005aac       ??_C@_0L@ONJMCKDA@EC_KEY_new?$AA@ 0006daac     libeay32:ec_err.obj
 0002:00005ab8       ??_C@_0BE@MFFKFHAB@EC_KEY_generate_key?$AA@ 0006dab8     libeay32:ec_err.obj
 0002:00005acc       ??_C@_0M@EKKLFMGJ@EC_KEY_copy?$AA@ 0006dacc     libeay32:ec_err.obj
 0002:00005ad8       ??_C@_0BB@NNGADNNL@EC_KEY_check_key?$AA@ 0006dad8     libeay32:ec_err.obj
 0002:00005aec       ??_C@_0BH@CFECBPOO@EC_GROUP_set_generator?$AA@ 0006daec     libeay32:ec_err.obj
 0002:00005b04       ??_C@_0BI@FFDHFCOK@EC_GROUP_SET_EXTRA_DATA?$AA@ 0006db04     libeay32:ec_err.obj
 0002:00005b1c       ??_C@_0BH@BKLNCDLE@EC_GROUP_set_curve_GFp?$AA@ 0006db1c     libeay32:ec_err.obj
 0002:00005b34       ??_C@_0BI@GPFLIGPC@EC_GROUP_set_curve_GF2m?$AA@ 0006db34     libeay32:ec_err.obj
 0002:00005b4c       ??_C@_0BJ@EGIKACCD@EC_GROUP_precompute_mult?$AA@ 0006db4c     libeay32:ec_err.obj
 0002:00005b68       ??_C@_0BH@GPENGIHE@EC_GROUP_NEW_FROM_DATA?$AA@ 0006db68     libeay32:ec_err.obj
 0002:00005b80       ??_C@_0BL@EGJNHICO@EC_GROUP_new_by_curve_name?$AA@ 0006db80     libeay32:ec_err.obj
 0002:00005b9c       ??_C@_0N@BOFGICHI@EC_GROUP_new?$AA@ 0006db9c     libeay32:ec_err.obj
 0002:00005bac       ??_C@_0BN@BIKFBBCG@EC_GROUP_get_trinomial_basis?$AA@ 0006dbac     libeay32:ec_err.obj
 0002:00005bcc       ??_C@_0BP@IOAFMBFK@EC_GROUP_get_pentanomial_basis?$AA@ 0006dbcc     libeay32:ec_err.obj
 0002:00005bec       ??_C@_0BD@OOGPHLOG@EC_GROUP_get_order?$AA@ 0006dbec     libeay32:ec_err.obj
 0002:00005c00       ??_C@_0BE@NONOHBAO@EC_GROUP_get_degree?$AA@ 0006dc00     libeay32:ec_err.obj
 0002:00005c14       ??_C@_0BH@GFKDJAMD@EC_GROUP_get_curve_GFp?$AA@ 0006dc14     libeay32:ec_err.obj
 0002:00005c2c       ??_C@_0BI@KBEFHMNO@EC_GROUP_get_curve_GF2m?$AA@ 0006dc2c     libeay32:ec_err.obj
 0002:00005c44       ??_C@_0BG@FGHCOKEJ@EC_GROUP_get_cofactor?$AA@ 0006dc44     libeay32:ec_err.obj
 0002:00005c5c       ??_C@_0BI@JLPIENJE@EC_GROUP_get0_generator?$AA@ 0006dc5c     libeay32:ec_err.obj
 0002:00005c74       ??_C@_0O@DCFPFPGD@EC_GROUP_copy?$AA@ 0006dc74     libeay32:ec_err.obj
 0002:00005c84       ??_C@_0BM@EDPHFFHB@EC_GROUP_check_discriminant?$AA@ 0006dc84     libeay32:ec_err.obj
 0002:00005ca0       ??_C@_0P@JGNGIAMK@EC_GROUP_check?$AA@ 0006dca0     libeay32:ec_err.obj
 0002:00005cb0       ??_C@_0CN@HEIOPOMJ@EC_GFP_SIMPLE_SET_COMPRESSED_COO@ 0006dcb0     libeay32:ec_err.obj
 0002:00005ce0       ??_C@_0CJ@NNCOMCAA@ec_GFp_simple_set_compressed_coo@ 0006dce0     libeay32:ec_err.obj
 0002:00005d0c       ??_C@_0CP@IIHPGJL@EC_GFP_SIMPLE_POINT_SET_AFFINE_C@ 0006dd0c     libeay32:ec_err.obj
 0002:00005d3c       ??_C@_0CL@CECOKBPF@ec_GFp_simple_point_set_affine_c@ 0006dd3c     libeay32:ec_err.obj
 0002:00005d68       ??_C@_0CP@DHLCDGIL@EC_GFP_SIMPLE_POINT_GET_AFFINE_C@ 0006dd68     libeay32:ec_err.obj
 0002:00005d98       ??_C@_0CL@CFAAIGCK@ec_GFp_simple_point_get_affine_c@ 0006dd98     libeay32:ec_err.obj
 0002:00005dc4       ??_C@_0CB@KBGPMJPK@ec_GFp_simple_points_make_affine@ 0006ddc4     libeay32:ec_err.obj
 0002:00005de8       ??_C@_0BI@JEGCEGAG@ec_GFp_simple_point2oct?$AA@ 0006dde8     libeay32:ec_err.obj
 0002:00005e00       ??_C@_0BI@NBJJENKN@ec_GFp_simple_oct2point?$AA@ 0006de00     libeay32:ec_err.obj
 0002:00005e18       ??_C@_0BK@COPKPLKN@ec_GFp_simple_make_affine?$AA@ 0006de18     libeay32:ec_err.obj
 0002:00005e34       ??_C@_0CC@KAJMPEKM@EC_GFP_SIMPLE_GROUP_SET_GENERATO@ 0006de34     libeay32:ec_err.obj
 0002:00005e58       ??_C@_0CC@MGNNAOCM@EC_GFP_SIMPLE_GROUP_SET_CURVE_GF@ 0006de58     libeay32:ec_err.obj
 0002:00005e7c       ??_C@_0BO@FHKAIIJJ@ec_GFp_simple_group_set_curve?$AA@ 0006de7c     libeay32:ec_err.obj
 0002:00005e9c       ??_C@_0CH@CICCEFIM@ec_GFp_simple_group_check_discri@ 0006de9c     libeay32:ec_err.obj
 0002:00005ec4       ??_C@_0BM@NNIDGPMA@ec_GFp_nist_group_set_curve?$AA@ 0006dec4     libeay32:ec_err.obj
 0002:00005ee0       ??_C@_0BG@NIJIDFMF@ec_GFp_nist_field_sqr?$AA@ 0006dee0     libeay32:ec_err.obj
 0002:00005ef8       ??_C@_0BG@LLBGICGK@ec_GFp_nist_field_mul?$AA@ 0006def8     libeay32:ec_err.obj
 0002:00005f10       ??_C@_0CN@IJAIDOCA@ec_GFp_nistp521_point_get_affine@ 0006df10     libeay32:ec_err.obj
 0002:00005f40       ??_C@_0BL@HENFHPJA@ec_GFp_nistp521_points_mul?$AA@ 0006df40     libeay32:ec_err.obj
 0002:00005f5c       ??_C@_0CA@CIHPIMLA@ec_GFp_nistp521_group_set_curve?$AA@ 0006df5c     libeay32:ec_err.obj
 0002:00005f7c       ??_C@_0CN@JJPHEEFL@ec_GFp_nistp256_point_get_affine@ 0006df7c     libeay32:ec_err.obj
 0002:00005fac       ??_C@_0BL@PHGKNMBC@ec_GFp_nistp256_points_mul?$AA@ 0006dfac     libeay32:ec_err.obj
 0002:00005fc8       ??_C@_0CA@GCCLKLAM@ec_GFp_nistp256_group_set_curve?$AA@ 0006dfc8     libeay32:ec_err.obj
 0002:00005fe8       ??_C@_0CN@DMKNIHGM@ec_GFp_nistp224_point_get_affine@ 0006dfe8     libeay32:ec_err.obj
 0002:00006018       ??_C@_0BL@PCPLMDJJ@ec_GFp_nistp224_points_mul?$AA@ 0006e018     libeay32:ec_err.obj
 0002:00006034       ??_C@_0CA@CNMBELME@ec_GFp_nistp224_group_set_curve?$AA@ 0006e034     libeay32:ec_err.obj
 0002:00006054       ??_C@_0CA@DHAFKAHK@EC_GFP_MONT_GROUP_SET_CURVE_GFP?$AA@ 0006e054     libeay32:ec_err.obj
 0002:00006074       ??_C@_0BM@GNHNLMD@ec_GFp_mont_group_set_curve?$AA@ 0006e074     libeay32:ec_err.obj
 0002:00006090       ??_C@_0BG@MCAMNCKO@ec_GFp_mont_field_sqr?$AA@ 0006e090     libeay32:ec_err.obj
 0002:000060a8       ??_C@_0BN@OCMPOINJ@ec_GFp_mont_field_set_to_one?$AA@ 0006e0a8     libeay32:ec_err.obj
 0002:000060c8       ??_C@_0BG@KBICGFAB@ec_GFp_mont_field_mul?$AA@ 0006e0c8     libeay32:ec_err.obj
 0002:000060e0       ??_C@_0BJ@PGEBCHNN@ec_GFp_mont_field_encode?$AA@ 0006e0e0     libeay32:ec_err.obj
 0002:000060fc       ??_C@_0BJ@DKPBNMKK@ec_GFp_mont_field_decode?$AA@ 0006e0fc     libeay32:ec_err.obj
 0002:00006118       ??_C@_0CK@EMOLEAE@ec_GF2m_simple_set_compressed_co@ 0006e118     libeay32:ec_err.obj
 0002:00006144       ??_C@_0CM@PJCEGJBI@ec_GF2m_simple_point_set_affine_@ 0006e144     libeay32:ec_err.obj
 0002:00006170       ??_C@_0CM@PIAKEOMH@ec_GF2m_simple_point_get_affine_@ 0006e170     libeay32:ec_err.obj
 0002:0000619c       ??_C@_0BJ@BCDOEDMD@ec_GF2m_simple_point2oct?$AA@ 0006e19c     libeay32:ec_err.obj
 0002:000061b8       ??_C@_0BJ@FHMFEIGI@ec_GF2m_simple_oct2point?$AA@ 0006e1b8     libeay32:ec_err.obj
 0002:000061d4       ??_C@_0BP@LKAGFPMG@ec_GF2m_simple_group_set_curve?$AA@ 0006e1d4     libeay32:ec_err.obj
 0002:000061f4       ??_C@_0CI@HLAFKCG@ec_GF2m_simple_group_check_discr@ 0006e1f4     libeay32:ec_err.obj
 0002:0000621c       ??_C@_0CC@ICBKMHKB@EC_GF2M_MONTGOMERY_POINT_MULTIPL@ 0006e21c     libeay32:ec_err.obj
 0002:00006240       ??_C@_0BE@IGKCIBBP@EC_EX_DATA_set_data?$AA@ 0006e240     libeay32:ec_err.obj
 0002:00006254       ??_C@_0BL@HBOBKPAK@EC_ASN1_PKPARAMETERS2GROUP?$AA@ 0006e254     libeay32:ec_err.obj
 0002:00006270       ??_C@_0BJ@GDKAGOMP@EC_ASN1_PARAMETERS2GROUP?$AA@ 0006e270     libeay32:ec_err.obj
 0002:0000628c       ??_C@_0BL@CHLBAFFP@EC_ASN1_GROUP2PKPARAMETERS?$AA@ 0006e28c     libeay32:ec_err.obj
 0002:000062a8       ??_C@_0BJ@OBNMEFJL@EC_ASN1_GROUP2PARAMETERS?$AA@ 0006e2a8     libeay32:ec_err.obj
 0002:000062c4       ??_C@_0BG@DBLOBDEO@EC_ASN1_GROUP2FIELDID?$AA@ 0006e2c4     libeay32:ec_err.obj
 0002:000062dc       ??_C@_0BE@MCAODDGE@EC_ASN1_GROUP2CURVE?$AA@ 0006e2dc     libeay32:ec_err.obj
 0002:000062f0       ??_C@_0BB@HJLHKBLC@ECP_NIST_MOD_521?$AA@ 0006e2f0     libeay32:ec_err.obj
 0002:00006304       ??_C@_0BB@KOGOBJEJ@ECP_NIST_MOD_256?$AA@ 0006e304     libeay32:ec_err.obj
 0002:00006318       ??_C@_0BB@JJBHGNEO@ECP_NIST_MOD_224?$AA@ 0006e318     libeay32:ec_err.obj
 0002:0000632c       ??_C@_0BB@NBKNIKMH@ECP_NIST_MOD_192?$AA@ 0006e32c     libeay32:ec_err.obj
 0002:00006340       ??_C@_0BI@PBKJPLGO@ECPKParameters_print_fp?$AA@ 0006e340     libeay32:ec_err.obj
 0002:00006358       ??_C@_0BF@EIEGNLJB@ECPKParameters_print?$AA@ 0006e358     libeay32:ec_err.obj
 0002:00006370       ??_C@_0BG@IABNBFJJ@ECParameters_print_fp?$AA@ 0006e370     libeay32:ec_err.obj
 0002:00006388       ??_C@_0BD@KEAOIMB@ECParameters_print?$AA@ 0006e388     libeay32:ec_err.obj
 0002:0000639c       ??_C@_0BB@BEIICLPB@ECKEY_TYPE2PARAM?$AA@ 0006e39c     libeay32:ec_err.obj
 0002:000063b0       ??_C@_0BB@NHJCOGGG@ECKEY_PUB_ENCODE?$AA@ 0006e3b0     libeay32:ec_err.obj
 0002:000063c4       ??_C@_0BB@BLCCBNBB@ECKEY_PUB_DECODE?$AA@ 0006e3c4     libeay32:ec_err.obj
 0002:000063d8       ??_C@_0BC@BEKBNPBE@ECKEY_PRIV_ENCODE?$AA@ 0006e3d8     libeay32:ec_err.obj
 0002:000063ec       ??_C@_0BC@NIBBCEGD@ECKEY_PRIV_DECODE?$AA@ 0006e3ec     libeay32:ec_err.obj
 0002:00006400       ??_C@_0BD@KKLENDIA@ECKEY_PARAM_DECODE?$AA@ 0006e400     libeay32:ec_err.obj
 0002:00006414       ??_C@_0BB@MPLEGNDM@ECKEY_PARAM2TYPE?$AA@ 0006e414     libeay32:ec_err.obj
 0002:00006428       ??_C@_0BA@GLMHNHNL@DO_EC_KEY_PRINT?$AA@ 0006e428     libeay32:ec_err.obj
 0002:00006438       ??_C@_0BB@OCGALHMG@d2i_ECPrivateKey?$AA@ 0006e438     libeay32:ec_err.obj
 0002:0000644c       ??_C@_0BD@GMAHPMNO@d2i_ECPKParameters?$AA@ 0006e44c     libeay32:ec_err.obj
 0002:00006460       ??_C@_0BB@IHNDOJLJ@d2i_ECParameters?$AA@ 0006e460     libeay32:ec_err.obj
 0002:00006474       ??_C@_0N@DCDCJEGB@COMPUTE_WNAF?$AA@ 0006e474     libeay32:ec_err.obj
 0002:00006484       ??_C@_0M@DFJLABBI@BN_TO_FELEM?$AA@ 0006e484     libeay32:ec_err.obj
 0002:00006490       ??_C@_0BD@GGOPPIG@zlib?5not?5supported?$AA@ 0006e490     libeay32:comp_err.obj
 0002:000064a4       ??_C@_0BD@DEBFKLFN@zlib?5inflate?5error?$AA@ 0006e4a4     libeay32:comp_err.obj
 0002:000064b8       ??_C@_0BD@GECGGEKF@zlib?5deflate?5error?$AA@ 0006e4b8     libeay32:comp_err.obj
 0002:000064cc       ??_C@_0P@PANALKMF@BIO_ZLIB_WRITE?$AA@ 0006e4cc     libeay32:comp_err.obj
 0002:000064dc       ??_C@_0O@JIGAJHDA@BIO_ZLIB_READ?$AA@ 0006e4dc     libeay32:comp_err.obj
 0002:000064ec       ??_C@_0N@MFFBFEDL@BIO_ZLIB_NEW?$AA@ 0006e4ec     libeay32:comp_err.obj
 0002:000064fc       ??_C@_0P@ENKEMCPH@BIO_ZLIB_FLUSH?$AA@ 0006e4fc     libeay32:comp_err.obj
 0002:0000650c       ??_C@_0BL@GHFOLNLN@no?5dynlock?5create?5callback?$AA@ 0006e50c     libeay32:cpt_err.obj
 0002:00006528       ??_C@_0BI@HFMBHDCA@fips?5mode?5not?5supported?$AA@ 0006e528     libeay32:cpt_err.obj
 0002:00006540       ??_C@_0BA@NPGJKDBD@INT_NEW_EX_DATA?$AA@ 0006e540     libeay32:cpt_err.obj
 0002:00006550       ??_C@_0BB@EOLKIEIJ@INT_FREE_EX_DATA?$AA@ 0006e550     libeay32:cpt_err.obj
 0002:00006564       ??_C@_0BA@HJHEJEMA@INT_DUP_EX_DATA?$AA@ 0006e564     libeay32:cpt_err.obj
 0002:00006574       ??_C@_0O@HNLOFNHK@FIPS_mode_set?$AA@ 0006e574     libeay32:cpt_err.obj
 0002:00006584       ??_C@_0O@MGHCLFMH@DEF_GET_CLASS?$AA@ 0006e584     libeay32:cpt_err.obj
 0002:00006594       ??_C@_0O@LHHGGGNF@DEF_ADD_INDEX?$AA@ 0006e594     libeay32:cpt_err.obj
 0002:000065a4       ??_C@_0BD@NOOFBIMD@CRYPTO_set_ex_data?$AA@ 0006e5a4     libeay32:cpt_err.obj
 0002:000065b8       ??_C@_0BG@MHMFFADP@CRYPTO_get_new_lockid?$AA@ 0006e5b8     libeay32:cpt_err.obj
 0002:000065d0       ??_C@_0BJ@CCOEIIFC@CRYPTO_get_new_dynlockid?$AA@ 0006e5d0     libeay32:cpt_err.obj
 0002:000065ec       ??_C@_0BI@MHIJLMOF@CRYPTO_get_ex_new_index?$AA@ 0006e5ec     libeay32:cpt_err.obj
 0002:00006604       ??_C@_0BG@NAOLEILH@variable?5has?5no?5value?$AA@ 0006e604     libeay32:conf_err.obj
 0002:0000661c       ??_C@_0BE@KOBCLJNN@unknown?5module?5name?$AA@ 0006e61c     libeay32:conf_err.obj
 0002:00006630       ??_C@_0BN@CFCNACBC@unable?5to?5create?5new?5section?$AA@ 0006e630     libeay32:conf_err.obj
 0002:00006650       ??_C@_08JEIPHCP@no?5value?$AA@ 0006e650     libeay32:conf_err.obj
 0002:0000665c       ??_C@_0L@LDHPJCAE@no?5section?$AA@ 0006e65c     libeay32:conf_err.obj
 0002:00006668       ??_C@_0CA@NLBFLDPJ@no?5conf?5or?5environment?5variable?$AA@ 0006e668     libeay32:conf_err.obj
 0002:00006688       ??_C@_07OJNHGLOG@no?5conf?$AA@ 0006e688     libeay32:conf_err.obj
 0002:00006690       ??_C@_0P@ECIPDLAO@no?5close?5brace?$AA@ 0006e690     libeay32:conf_err.obj
 0002:000066a0       ??_C@_0BM@JOLMIONN@module?5initialization?5error?$AA@ 0006e6a0     libeay32:conf_err.obj
 0002:000066bc       ??_C@_0BG@OKCBACKF@missing?5init?5function?$AA@ 0006e6bc     libeay32:conf_err.obj
 0002:000066d4       ??_C@_0BI@KJPGAHFP@missing?5finish?5function?$AA@ 0006e6d4     libeay32:conf_err.obj
 0002:000066ec       ??_C@_0BD@CENOJJDH@missing?5equal?5sign?$AA@ 0006e6ec     libeay32:conf_err.obj
 0002:00006700       ??_C@_0BN@LNHOFFHB@missing?5close?5square?5bracket?$AA@ 0006e700     libeay32:conf_err.obj
 0002:00006720       ??_C@_0BE@ONKINGND@list?5cannot?5be?5null?$AA@ 0006e720     libeay32:conf_err.obj
 0002:00006734       ??_C@_0BC@MMAHEKMC@error?5loading?5dso?$AA@ 0006e734     libeay32:conf_err.obj
 0002:00006748       ??_C@_08BBDGILDN@STR_COPY?$AA@ 0006e748     libeay32:conf_err.obj
 0002:00006754       ??_C@_09JEJJGJM@NCONF_new?$AA@ 0006e754     libeay32:conf_err.obj
 0002:00006760       ??_C@_0O@PJAMGPBO@NCONF_load_fp?$AA@ 0006e760     libeay32:conf_err.obj
 0002:00006770       ??_C@_0P@IEAGEJMM@NCONF_load_bio?$AA@ 0006e770     libeay32:conf_err.obj
 0002:00006780       ??_C@_0L@PFPHFEJM@NCONF_load?$AA@ 0006e780     libeay32:conf_err.obj
 0002:0000678c       ??_C@_0BB@OFIAOKID@NCONF_get_string?$AA@ 0006e78c     libeay32:conf_err.obj
 0002:000067a0       ??_C@_0BC@INLNGICP@NCONF_get_section?$AA@ 0006e7a0     libeay32:conf_err.obj
 0002:000067b4       ??_C@_0BD@FFHIPMOB@NCONF_get_number_e?$AA@ 0006e7b4     libeay32:conf_err.obj
 0002:000067c8       ??_C@_0BB@CGIEEKIP@NCONF_get_number?$AA@ 0006e7c8     libeay32:conf_err.obj
 0002:000067dc       ??_C@_0O@LOFEGBC@NCONF_dump_fp?$AA@ 0006e7dc     libeay32:conf_err.obj
 0002:000067ec       ??_C@_0P@INECOMMO@NCONF_dump_bio?$AA@ 0006e7ec     libeay32:conf_err.obj
 0002:000067fc       ??_C@_0L@HLFJHMEO@MODULE_RUN?$AA@ 0006e7fc     libeay32:conf_err.obj
 0002:00006808       ??_C@_0BA@DFFKJEMO@MODULE_LOAD_DSO?$AA@ 0006e808     libeay32:conf_err.obj
 0002:00006818       ??_C@_0M@NKKPMNDD@MODULE_INIT?$AA@ 0006e818     libeay32:conf_err.obj
 0002:00006824       ??_C@_0N@GOMHLHAF@DEF_LOAD_BIO?$AA@ 0006e824     libeay32:conf_err.obj
 0002:00006834       ??_C@_08JKMPBPGH@DEF_LOAD?$AA@ 0006e834     libeay32:conf_err.obj
 0002:00006840       ??_C@_0BA@EMPHLGPL@CONF_parse_list?$AA@ 0006e840     libeay32:conf_err.obj
 0002:00006850       ??_C@_0BC@FCDKCHEN@CONF_modules_load?$AA@ 0006e850     libeay32:conf_err.obj
 0002:00006864       ??_C@_0N@KNOBPCCK@CONF_load_fp?$AA@ 0006e864     libeay32:conf_err.obj
 0002:00006874       ??_C@_0O@KFOGFAOE@CONF_load_bio?$AA@ 0006e874     libeay32:conf_err.obj
 0002:00006884       ??_C@_09PJMELPOP@CONF_load?$AA@ 0006e884     libeay32:conf_err.obj
 0002:00006890       ??_C@_0N@FPAINLCG@CONF_dump_fp?$AA@ 0006e890     libeay32:conf_err.obj
 0002:000068a0       ??_C@_0L@OIMFIJMM@wrong?5type?$AA@ 0006e8a0     libeay32:asn1_err.obj
 0002:000068ac       ??_C@_09FHDDBMMO@wrong?5tag?$AA@ 0006e8ac     libeay32:asn1_err.obj
 0002:000068b8       ??_C@_0BG@NPKECJFG@wrong?5public?5key?5type?$AA@ 0006e8b8     libeay32:asn1_err.obj
 0002:000068d0       ??_C@_0BM@ONPEBOBM@unsupported?5public?5key?5type?$AA@ 0006e8d0     libeay32:asn1_err.obj
 0002:000068ec       ??_C@_0CB@JCOCHIMG@unsupported?5encryption?5algorithm@ 0006e8ec     libeay32:asn1_err.obj
 0002:00006910       ??_C@_0BD@ECLJDLBJ@unsupported?5cipher?$AA@ 0006e910     libeay32:asn1_err.obj
 0002:00006924       ??_C@_0CA@KHOGLJGI@unsupported?5any?5defined?5by?5type?$AA@ 0006e924     libeay32:asn1_err.obj
 0002:00006944       ??_C@_0O@OOPMEED@unkown?5format?$AA@ 0006e944     libeay32:asn1_err.obj
 0002:00006954       ??_C@_0M@NDAIKBNL@unknown?5tag?$AA@ 0006e954     libeay32:asn1_err.obj
 0002:00006960       ??_C@_0BM@FGDBMFBO@unknown?5signature?5algorithm?$AA@ 0006e960     libeay32:asn1_err.obj
 0002:0000697c       ??_C@_0BI@HEKKKILC@unknown?5public?5key?5type?$AA@ 0006e97c     libeay32:asn1_err.obj
 0002:00006994       ??_C@_0BE@IIDOFNCB@unknown?5object?5type?$AA@ 0006e994     libeay32:asn1_err.obj
 0002:000069a8       ??_C@_0CB@FPJIEFKF@unknown?5message?5digest?5algorithm@ 0006e9a8     libeay32:asn1_err.obj
 0002:000069cc       ??_C@_0P@JBFKBJMG@unknown?5format?$AA@ 0006e9cc     libeay32:asn1_err.obj
 0002:000069dc       ??_C@_0CA@KFOGBPLD@universalstring?5is?5wrong?5length?$AA@ 0006e9dc     libeay32:asn1_err.obj
 0002:000069fc       ??_C@_0P@GFLKNBFP@unexpected?5eoc?$AA@ 0006e9fc     libeay32:asn1_err.obj
 0002:00006a0c       ??_C@_0CB@OFDMIBCA@unable?5to?5decode?5rsa?5private?5key@ 0006ea0c     libeay32:asn1_err.obj
 0002:00006a30       ??_C@_0BJ@FGOOGDNL@unable?5to?5decode?5rsa?5key?$AA@ 0006ea30     libeay32:asn1_err.obj
 0002:00006a4c       ??_C@_0BF@EOIFAKLF@type?5not?5constructed?$AA@ 0006ea4c     libeay32:asn1_err.obj
 0002:00006a64       ??_C@_08JAFCJEPG@too?5long?$AA@ 0006ea64     libeay32:asn1_err.obj
 0002:00006a70       ??_C@_0BG@FIHEIAJO@time?5not?5ascii?5format?$AA@ 0006ea70     libeay32:asn1_err.obj
 0002:00006a88       ??_C@_0DE@FHLPPGDD@the?5asn1?5object?5identifier?5is?5no@ 0006ea88     libeay32:asn1_err.obj
 0002:00006abc       ??_C@_0BD@FKIMNJNM@tag?5value?5too?5high?$AA@ 0006eabc     libeay32:asn1_err.obj
 0002:00006ad0       ??_C@_0BB@EJOCOHKH@string?5too?5short?$AA@ 0006ead0     libeay32:asn1_err.obj
 0002:00006ae4       ??_C@_0BA@JFNIOLAK@string?5too?5long?$AA@ 0006eae4     libeay32:asn1_err.obj
 0002:00006af4       ??_C@_0BI@ILHKAN@streaming?5not?5supported?$AA@ 0006eaf4     libeay32:asn1_err.obj
 0002:00006b0c       ??_C@_0L@DIDEMPO@short?5line?$AA@ 0006eb0c     libeay32:asn1_err.obj
 0002:00006b18       ??_C@_0BN@IFEEBMGE@sequence?5or?5set?5needs?5config?$AA@ 0006eb18     libeay32:asn1_err.obj
 0002:00006b38       ??_C@_0BJ@OILHCOMM@sequence?5not?5constructed?$AA@ 0006eb38     libeay32:asn1_err.obj
 0002:00006b54       ??_C@_0BJ@LFBNHHNL@sequence?5length?5mismatch?$AA@ 0006eb54     libeay32:asn1_err.obj
 0002:00006b70       ??_C@_0BI@GOIIMJKA@second?5number?5too?5large?$AA@ 0006eb70     libeay32:asn1_err.obj
 0002:00006b88       ??_C@_0BL@KPMAFJEI@private?5key?5header?5missing?$AA@ 0006eb88     libeay32:asn1_err.obj
 0002:00006ba4       ??_C@_0BE@GONLLLGK@odd?5number?5of?5chars?$AA@ 0006eba4     libeay32:asn1_err.obj
 0002:00006bb8       ??_C@_0BI@KCMPJCA@object?5not?5ascii?5format?$AA@ 0006ebb8     libeay32:asn1_err.obj
 0002:00006bd0       ??_C@_0BF@CCHOLFBJ@null?5is?5wrong?5length?$AA@ 0006ebd0     libeay32:asn1_err.obj
 0002:00006be8       ??_C@_0BI@DFIHABJJ@no?5matching?5choice?5type?$AA@ 0006ebe8     libeay32:asn1_err.obj
 0002:00006c00       ??_C@_0BA@NBOKDEIF@not?5enough?5data?$AA@ 0006ec00     libeay32:asn1_err.obj
 0002:00006c10       ??_C@_0BB@MGCBBDEB@not?5ascii?5format?$AA@ 0006ec10     libeay32:asn1_err.obj
 0002:00006c24       ??_C@_0BD@MNEEEEPB@non?5hex?5characters?$AA@ 0006ec24     libeay32:asn1_err.obj
 0002:00006c38       ??_C@_0BD@IJCHMKNH@nested?5asn1?5string?$AA@ 0006ec38     libeay32:asn1_err.obj
 0002:00006c4c       ??_C@_0BC@FJKJBBMN@mstring?5wrong?5tag?$AA@ 0006ec4c     libeay32:asn1_err.obj
 0002:00006c60       ??_C@_0BG@HBALPIGP@mstring?5not?5universal?$AA@ 0006ec60     libeay32:asn1_err.obj
 0002:00006c78       ??_C@_0BG@OJFAFJNH@missing?5second?5number?$AA@ 0006ec78     libeay32:asn1_err.obj
 0002:00006c90       ??_C@_0M@MKABCMG@missing?5eoc?$AA@ 0006ec90     libeay32:asn1_err.obj
 0002:00006c9c       ??_C@_0L@IJFCOOII@list?5error?$AA@ 0006ec9c     libeay32:asn1_err.obj
 0002:00006ca8       ??_C@_0N@MAMJKBIE@length?5error?$AA@ 0006eca8     libeay32:asn1_err.obj
 0002:00006cb8       ??_C@_0N@MBEIJJJI@iv?5too?5large?$AA@ 0006ecb8     libeay32:asn1_err.obj
 0002:00006cc8       ??_C@_0BD@CADAIHCD@invalid?5utf8string?$AA@ 0006ecc8     libeay32:asn1_err.obj
 0002:00006cdc       ??_C@_0BP@NLLGLGJG@invalid?5universalstring?5length?$AA@ 0006ecdc     libeay32:asn1_err.obj
 0002:00006cfc       ??_C@_0BE@PJIGHIDK@invalid?5time?5format?$AA@ 0006ecfc     libeay32:asn1_err.obj
 0002:00006d10       ??_C@_0BC@JCCFGDFH@invalid?5separator?$AA@ 0006ed10     libeay32:asn1_err.obj
 0002:00006d24       ??_C@_0BI@EPBGLAAG@invalid?5object?5encoding?$AA@ 0006ed24     libeay32:asn1_err.obj
 0002:00006d3c       ??_C@_0BB@HBLKNPLB@invalid?5modifier?$AA@ 0006ed3c     libeay32:asn1_err.obj
 0002:00006d50       ??_C@_0O@KPBDNCBI@invalid?5digit?$AA@ 0006ed50     libeay32:asn1_err.obj
 0002:00006d60       ??_C@_0BJ@DGKAOOKA@invalid?5bmpstring?5length?$AA@ 0006ed60     libeay32:asn1_err.obj
 0002:00006d7c       ??_C@_0BL@JBPGNNHP@integer?5too?5large?5for?5long?$AA@ 0006ed7c     libeay32:asn1_err.obj
 0002:00006d98       ??_C@_0BJ@IOJNPFPJ@integer?5not?5ascii?5format?$AA@ 0006ed98     libeay32:asn1_err.obj
 0002:00006db4       ??_C@_0BD@FBIAEBKG@illegal?5time?5value?$AA@ 0006edb4     libeay32:asn1_err.obj
 0002:00006dc8       ??_C@_0BD@KMIMMNBH@illegal?5tagged?5any?$AA@ 0006edc8     libeay32:asn1_err.obj
 0002:00006ddc       ??_C@_0CB@JCNOHDMC@illegal?5options?5on?5item?5template@ 0006eddc     libeay32:asn1_err.obj
 0002:00006e00       ??_C@_0BF@JJCOPKAM@illegal?5optional?5any?$AA@ 0006ee00     libeay32:asn1_err.obj
 0002:00006e18       ??_C@_0P@HMGBAHDF@illegal?5object?$AA@ 0006ee18     libeay32:asn1_err.obj
 0002:00006e28       ??_C@_0BD@CIHPLDOH@illegal?5null?5value?$AA@ 0006ee28     libeay32:asn1_err.obj
 0002:00006e3c       ??_C@_0N@KECKGDAL@illegal?5null?$AA@ 0006ee3c     libeay32:asn1_err.obj
 0002:00006e4c       ??_C@_0BH@NHBAOIGA@illegal?5nested?5tagging?$AA@ 0006ee4c     libeay32:asn1_err.obj
 0002:00006e64       ??_C@_0BA@OBFDOAFI@illegal?5integer?$AA@ 0006ee64     libeay32:asn1_err.obj
 0002:00006e74       ??_C@_0BF@HBCDAMIA@illegal?5implicit?5tag?$AA@ 0006ee74     libeay32:asn1_err.obj
 0002:00006e8c       ??_C@_0M@KIEAGAOM@illegal?5hex?$AA@ 0006ee8c     libeay32:asn1_err.obj
 0002:00006e98       ??_C@_0P@MDMHHBPK@illegal?5format?$AA@ 0006ee98     libeay32:asn1_err.obj
 0002:00006ea8       ??_C@_0BD@NEHNCJDJ@illegal?5characters?$AA@ 0006eea8     libeay32:asn1_err.obj
 0002:00006ebc       ??_C@_0BA@DFDIFKJJ@illegal?5boolean?$AA@ 0006eebc     libeay32:asn1_err.obj
 0002:00006ecc       ??_C@_0BJ@PIGABEGD@illegal?5bitstring?5format?$AA@ 0006eecc     libeay32:asn1_err.obj
 0002:00006ee8       ??_C@_0BA@CHHBAPMA@header?5too?5long?$AA@ 0006eee8     libeay32:asn1_err.obj
 0002:00006ef8       ??_C@_0BE@LDHAAJPI@first?5num?5too?5large?$AA@ 0006eef8     libeay32:asn1_err.obj
 0002:00006f0c       ??_C@_0O@CLCAFBLA@field?5missing?$AA@ 0006ef0c     libeay32:asn1_err.obj
 0002:00006f1c       ??_C@_0BN@FKHNFGAN@explicit?5tag?5not?5constructed?$AA@ 0006ef1c     libeay32:asn1_err.obj
 0002:00006f3c       ??_C@_0BJ@GCMFJMFA@explicit?5length?5mismatch?$AA@ 0006ef3c     libeay32:asn1_err.obj
 0002:00006f58       ??_C@_0BB@JKCOMHFA@expecting?5a?5time?$AA@ 0006ef58     libeay32:asn1_err.obj
 0002:00006f6c       ??_C@_0BE@BDJOEMIP@expecting?5a?5boolean?$AA@ 0006ef6c     libeay32:asn1_err.obj
 0002:00006f80       ??_C@_0BE@OOABJJEB@expecting?5an?5object?$AA@ 0006ef80     libeay32:asn1_err.obj
 0002:00006f94       ??_C@_0BF@LGKJDFOD@expecting?5an?5integer?$AA@ 0006ef94     libeay32:asn1_err.obj
 0002:00006fac       ??_C@_0BM@FOGNMFHP@error?5setting?5cipher?5params?$AA@ 0006efac     libeay32:asn1_err.obj
 0002:00006fc8       ??_C@_0BK@DGGLLBPO@error?5parsing?5set?5element?$AA@ 0006efc8     libeay32:asn1_err.obj
 0002:00006fe4       ??_C@_0BG@ILOBFDMI@error?5loading?5section?$AA@ 0006efe4     libeay32:asn1_err.obj
 0002:00006ffc       ??_C@_0BD@MEBNHBIA@error?5getting?5time?$AA@ 0006effc     libeay32:asn1_err.obj
 0002:00007010       ??_C@_0CC@LHIFMNG@digest?5and?5key?5type?5not?5supporte@ 0006f010     libeay32:asn1_err.obj
 0002:00007034       ??_C@_0P@PBNPDGCA@depth?5exceeded?$AA@ 0006f034     libeay32:asn1_err.obj
 0002:00007044       ??_C@_0P@JLNKKAF@decoding?5error?$AA@ 0006f044     libeay32:asn1_err.obj
 0002:00007054       ??_C@_0O@BCDMJPKL@data?5is?5wrong?$AA@ 0006f054     libeay32:asn1_err.obj
 0002:00007064       ??_C@_0BI@MAIKFKBM@context?5not?5initialised?$AA@ 0006f064     libeay32:asn1_err.obj
 0002:0000707c       ??_C@_0BI@BIBDEEPC@boolean?5is?5wrong?5length?$AA@ 0006f07c     libeay32:asn1_err.obj
 0002:00007094       ??_C@_06OMLIINFC@bn?5lib?$AA@ 0006f094     libeay32:asn1_err.obj
 0002:0000709c       ??_C@_0BK@ENMPILCE@bmpstring?5is?5wrong?5length?$AA@ 0006f09c     libeay32:asn1_err.obj
 0002:000070b8       ??_C@_07PAICMJPF@bad?5tag?$AA@ 0006f0b8     libeay32:asn1_err.obj
 0002:000070c0       ??_C@_0BC@CABCLHEJ@bad?5password?5read?$AA@ 0006f0c0     libeay32:asn1_err.obj
 0002:000070d4       ??_C@_0BC@HBIHOFOK@bad?5object?5header?$AA@ 0006f0d4     libeay32:asn1_err.obj
 0002:000070e8       ??_C@_09BKPOMKBM@bad?5class?$AA@ 0006f0e8     libeay32:asn1_err.obj
 0002:000070f4       ??_C@_09GMPDBPNM@aux?5error?$AA@ 0006f0f4     libeay32:asn1_err.obj
 0002:00007100       ??_C@_0BF@GKKBDHBB@asn1?5sig?5parse?5error?$AA@ 0006f100     libeay32:asn1_err.obj
 0002:00007118       ??_C@_0BB@IDLMABIH@asn1?5parse?5error?$AA@ 0006f118     libeay32:asn1_err.obj
 0002:0000712c       ??_C@_0O@BJDBCOJG@adding?5object?$AA@ 0006f12c     libeay32:asn1_err.obj
 0002:0000713c       ??_C@_0O@FLJODBAL@X509_PKEY_new?$AA@ 0006f13c     libeay32:asn1_err.obj
 0002:0000714c       ??_C@_08NEGEFFLN@X509_NEW?$AA@ 0006f14c     libeay32:asn1_err.obj
 0002:00007158       ??_C@_0BB@PPJFHHNK@X509_NAME_EX_NEW?$AA@ 0006f158     libeay32:asn1_err.obj
 0002:0000716c       ??_C@_0BB@BFNHNGLE@X509_NAME_EX_D2I?$AA@ 0006f16c     libeay32:asn1_err.obj
 0002:00007180       ??_C@_0BB@EOIAJBFO@X509_NAME_ENCODE?$AA@ 0006f180     libeay32:asn1_err.obj
 0002:00007194       ??_C@_0O@PHHKDAFO@X509_INFO_new?$AA@ 0006f194     libeay32:asn1_err.obj
 0002:000071a4       ??_C@_0BG@JPBFPNPM@X509_CRL_add0_revoked?$AA@ 0006f1a4     libeay32:asn1_err.obj
 0002:000071bc       ??_C@_0O@HBIKGBAK@X509_CINF_NEW?$AA@ 0006f1bc     libeay32:asn1_err.obj
 0002:000071cc       ??_C@_0BA@OILCEEFJ@SMIME_read_ASN1?$AA@ 0006f1cc     libeay32:asn1_err.obj
 0002:000071dc       ??_C@_0BB@BKACEBCB@PKCS5_pbkdf2_set?$AA@ 0006f1dc     libeay32:asn1_err.obj
 0002:000071f0       ??_C@_0BF@OBLJKNIN@PKCS5_pbe_set0_algor?$AA@ 0006f1f0     libeay32:asn1_err.obj
 0002:00007208       ??_C@_0O@PIFNMKLH@PKCS5_pbe_set?$AA@ 0006f208     libeay32:asn1_err.obj
 0002:00007218       ??_C@_0BC@MOMACCIG@PKCS5_pbe2_set_iv?$AA@ 0006f218     libeay32:asn1_err.obj
 0002:0000722c       ??_C@_0O@GFIOGLLN@PARSE_TAGGING?$AA@ 0006f22c     libeay32:asn1_err.obj
 0002:0000723c       ??_C@_0BA@CHDDCHHF@OID_MODULE_INIT?$AA@ 0006f23c     libeay32:asn1_err.obj
 0002:0000724c       ??_C@_08OCDCJFII@LONG_C2I?$AA@ 0006f24c     libeay32:asn1_err.obj
 0002:00007258       ??_C@_0P@ONPLPJGI@i2d_RSA_PUBKEY?$AA@ 0006f258     libeay32:asn1_err.obj
 0002:00007268       ??_C@_0M@JMAEMJEO@i2d_RSA_NET?$AA@ 0006f268     libeay32:asn1_err.obj
 0002:00007274       ??_C@_0O@HLJNBGGC@i2d_PublicKey?$AA@ 0006f274     libeay32:asn1_err.obj
 0002:00007284       ??_C@_0P@NGNEJIKC@i2d_PrivateKey?$AA@ 0006f284     libeay32:asn1_err.obj
 0002:00007294       ??_C@_0O@LEOKMPDM@i2d_EC_PUBKEY?$AA@ 0006f294     libeay32:asn1_err.obj
 0002:000072a4       ??_C@_0P@KLLIPHOA@i2d_DSA_PUBKEY?$AA@ 0006f2a4     libeay32:asn1_err.obj
 0002:000072b4       ??_C@_0O@FFBCHNNJ@I2D_ASN1_TIME?$AA@ 0006f2b4     libeay32:asn1_err.obj
 0002:000072c4       ??_C@_0N@CLMCOPEP@i2d_ASN1_SET?$AA@ 0006f2c4     libeay32:asn1_err.obj
 0002:000072d4       ??_C@_0BE@HGMPHCKG@i2d_ASN1_bio_stream?$AA@ 0006f2d4     libeay32:asn1_err.obj
 0002:000072e8       ??_C@_0O@GAAIFCCL@d2i_X509_PKEY?$AA@ 0006f2e8     libeay32:asn1_err.obj
 0002:000072f8       ??_C@_0O@PJBLDFKN@D2I_X509_CINF?$AA@ 0006f2f8     libeay32:asn1_err.obj
 0002:00007308       ??_C@_08JEFCIDGB@D2I_X509?$AA@ 0006f308     libeay32:asn1_err.obj
 0002:00007314       ??_C@_0O@PKNCGLPC@D2I_RSA_NET_2?$AA@ 0006f314     libeay32:asn1_err.obj
 0002:00007324       ??_C@_0M@PHFFEDBA@d2i_RSA_NET?$AA@ 0006f324     libeay32:asn1_err.obj
 0002:00007330       ??_C@_0O@FCMIGHNH@d2i_PublicKey?$AA@ 0006f330     libeay32:asn1_err.obj
 0002:00007340       ??_C@_0P@GNPGIKNA@d2i_PrivateKey?$AA@ 0006f340     libeay32:asn1_err.obj
 0002:00007350       ??_C@_0BD@ICAMCAJL@D2I_NETSCAPE_RSA_2?$AA@ 0006f350     libeay32:asn1_err.obj
 0002:00007364       ??_C@_0BB@DAKIIIBF@d2i_Netscape_RSA?$AA@ 0006f364     libeay32:asn1_err.obj
 0002:00007378       ??_C@_0BD@LICMAJCE@d2i_AutoPrivateKey?$AA@ 0006f378     libeay32:asn1_err.obj
 0002:0000738c       ??_C@_0BB@LLLJDJLB@D2I_ASN1_UTCTIME?$AA@ 0006f38c     libeay32:asn1_err.obj
 0002:000073a0       ??_C@_0BC@FCANIOOH@d2i_ASN1_UINTEGER?$AA@ 0006f3a0     libeay32:asn1_err.obj
 0002:000073b4       ??_C@_0BE@KEADNCBD@d2i_ASN1_type_bytes?$AA@ 0006f3b4     libeay32:asn1_err.obj
 0002:000073c8       ??_C@_0N@KHHKMCDG@d2i_ASN1_SET?$AA@ 0006f3c8     libeay32:asn1_err.obj
 0002:000073d8       ??_C@_0BA@LJAFIEM@d2i_ASN1_OBJECT?$AA@ 0006f3d8     libeay32:asn1_err.obj
 0002:000073e8       ??_C@_0BB@PLBPPAFJ@D2I_ASN1_INTEGER?$AA@ 0006f3e8     libeay32:asn1_err.obj
 0002:000073fc       ??_C@_0BA@JENCNIJP@D2I_ASN1_HEADER?$AA@ 0006f3fc     libeay32:asn1_err.obj
 0002:0000740c       ??_C@_0BJ@FOGLHODI@D2I_ASN1_GENERALIZEDTIME?$AA@ 0006f40c     libeay32:asn1_err.obj
 0002:00007428       ??_C@_0P@LNLNJINM@d2i_ASN1_bytes?$AA@ 0006f428     libeay32:asn1_err.obj
 0002:00007438       ??_C@_0BB@IJBCEGPM@d2i_ASN1_BOOLEAN?$AA@ 0006f438     libeay32:asn1_err.obj
 0002:0000744c       ??_C@_0BE@KOGEEPAO@D2I_ASN1_BIT_STRING?$AA@ 0006f44c     libeay32:asn1_err.obj
 0002:00007460       ??_C@_0N@PPLGMNKG@COLLECT_DATA?$AA@ 0006f460     libeay32:asn1_err.obj
 0002:00007470       ??_C@_0BA@PGGJKADJ@c2i_ASN1_OBJECT?$AA@ 0006f470     libeay32:asn1_err.obj
 0002:00007480       ??_C@_0BB@HNOLIAHG@c2i_ASN1_INTEGER?$AA@ 0006f480     libeay32:asn1_err.obj
 0002:00007494       ??_C@_0BE@IJKABKG@c2i_ASN1_BIT_STRING?$AA@ 0006f494     libeay32:asn1_err.obj
 0002:000074a8       ??_C@_0BD@HOPLIKO@BN_to_ASN1_INTEGER?$AA@ 0006f4a8     libeay32:asn1_err.obj
 0002:000074bc       ??_C@_0BG@JOMKFIC@BN_to_ASN1_ENUMERATED?$AA@ 0006f4bc     libeay32:asn1_err.obj
 0002:000074d4       ??_C@_09MBGLCMPO@BITSTR_CB?$AA@ 0006f4d4     libeay32:asn1_err.obj
 0002:000074e0       ??_C@_0N@HGEFAOJE@BIO_new_NDEF?$AA@ 0006f4e0     libeay32:asn1_err.obj
 0002:000074f0       ??_C@_0P@DEMKDLLB@B64_WRITE_ASN1?$AA@ 0006f4f0     libeay32:asn1_err.obj
 0002:00007500       ??_C@_0O@FEFLOMME@B64_READ_ASN1?$AA@ 0006f500     libeay32:asn1_err.obj
 0002:00007510       ??_C@_0M@FLJFHODB@ASN1_verify?$AA@ 0006f510     libeay32:asn1_err.obj
 0002:0000751c       ??_C@_0BB@IOFLGDHP@ASN1_UTCTIME_set?$AA@ 0006f51c     libeay32:asn1_err.obj
 0002:00007530       ??_C@_0BB@KBMIKJID@ASN1_UTCTIME_adj?$AA@ 0006f530     libeay32:asn1_err.obj
 0002:00007544       ??_C@_0BD@PPGFNCOC@ASN1_unpack_string?$AA@ 0006f544     libeay32:asn1_err.obj
 0002:00007558       ??_C@_0BK@BAIAADBG@ASN1_TYPE_get_octetstring?$AA@ 0006f558     libeay32:asn1_err.obj
 0002:00007574       ??_C@_0BO@BBFILFPI@ASN1_TYPE_get_int_octetstring?$AA@ 0006f574     libeay32:asn1_err.obj
 0002:00007594       ??_C@_0O@JLLIECHM@ASN1_TIME_set?$AA@ 0006f594     libeay32:asn1_err.obj
 0002:000075a4       ??_C@_0O@LECLIIIA@ASN1_TIME_adj?$AA@ 0006f5a4     libeay32:asn1_err.obj
 0002:000075b4       ??_C@_0BI@IBDIODGE@ASN1_TEMPLATE_NOEXP_D2I?$AA@ 0006f5b4     libeay32:asn1_err.obj
 0002:000075cc       ??_C@_0BC@MAPIMCN@ASN1_TEMPLATE_NEW?$AA@ 0006f5cc     libeay32:asn1_err.obj
 0002:000075e0       ??_C@_0BF@KIABBLMP@ASN1_TEMPLATE_EX_D2I?$AA@ 0006f5e0     libeay32:asn1_err.obj
 0002:000075f8       ??_C@_0BF@PEOOGBEK@ASN1_STRING_type_new?$AA@ 0006f5f8     libeay32:asn1_err.obj
 0002:00007610       ??_C@_0BG@HPBLJLKM@ASN1_STRING_TABLE_add?$AA@ 0006f610     libeay32:asn1_err.obj
 0002:00007628       ??_C@_0BA@OJKOPFKM@ASN1_STRING_set?$AA@ 0006f628     libeay32:asn1_err.obj
 0002:00007638       ??_C@_0O@MDHEIEJD@ASN1_STR2TYPE?$AA@ 0006f638     libeay32:asn1_err.obj
 0002:00007648       ??_C@_09KHLDPLKF@ASN1_sign?$AA@ 0006f648     libeay32:asn1_err.obj
 0002:00007654       ??_C@_0BA@BDDKOFAM@ASN1_seq_unpack?$AA@ 0006f654     libeay32:asn1_err.obj
 0002:00007664       ??_C@_0O@GOCJGBDJ@ASN1_seq_pack?$AA@ 0006f664     libeay32:asn1_err.obj
 0002:00007674       ??_C@_0BD@LCDDBKEK@ASN1_PKCS5_PBE_SET?$AA@ 0006f674     libeay32:asn1_err.obj
 0002:00007688       ??_C@_0O@JDMEBLGB@ASN1_PCTX_new?$AA@ 0006f688     libeay32:asn1_err.obj
 0002:00007698       ??_C@_0BB@PMAOEIM@ASN1_pack_string?$AA@ 0006f698     libeay32:asn1_err.obj
 0002:000076ac       ??_C@_0BB@IAPBHFJD@ASN1_OUTPUT_DATA?$AA@ 0006f6ac     libeay32:asn1_err.obj
 0002:000076c0       ??_C@_0BA@EKIOGKFN@ASN1_OBJECT_new?$AA@ 0006f6c0     libeay32:asn1_err.obj
 0002:000076d0       ??_C@_0BE@MAJEFFDP@ASN1_mbstring_ncopy?$AA@ 0006f6d0     libeay32:asn1_err.obj
 0002:000076e4       ??_C@_0BB@HPDEMCFL@ASN1_item_verify?$AA@ 0006f6e4     libeay32:asn1_err.obj
 0002:000076f8       ??_C@_0BB@OFFAOBLC@ASN1_item_unpack?$AA@ 0006f6f8     libeay32:asn1_err.obj
 0002:0000770c       ??_C@_0BD@DOHFNFJI@ASN1_item_sign_ctx?$AA@ 0006f70c     libeay32:asn1_err.obj
 0002:00007720       ??_C@_0P@GCFCEBPI@ASN1_item_sign?$AA@ 0006f720     libeay32:asn1_err.obj
 0002:00007730       ??_C@_0P@JKDIEPFO@ASN1_item_pack?$AA@ 0006f730     libeay32:asn1_err.obj
 0002:00007740       ??_C@_0BB@BEALGICF@ASN1_item_i2d_fp?$AA@ 0006f740     libeay32:asn1_err.obj
 0002:00007754       ??_C@_0BC@DFOAKHOP@ASN1_item_i2d_bio?$AA@ 0006f754     libeay32:asn1_err.obj
 0002:00007768       ??_C@_0BB@NCKAJAHC@ASN1_ITEM_EX_D2I?$AA@ 0006f768     libeay32:asn1_err.obj
 0002:0000777c       ??_C@_0BJ@GMGFBPBH@ASN1_ITEM_EX_COMBINE_NEW?$AA@ 0006f77c     libeay32:asn1_err.obj
 0002:00007798       ??_C@_0O@PICHNKKH@ASN1_item_dup?$AA@ 0006f798     libeay32:asn1_err.obj
 0002:000077a8       ??_C@_0BB@INEMMNFE@ASN1_item_d2i_fp?$AA@ 0006f7a8     libeay32:asn1_err.obj
 0002:000077bc       ??_C@_0BD@EHPGDINP@ASN1_INTEGER_to_BN?$AA@ 0006f7bc     libeay32:asn1_err.obj
 0002:000077d0       ??_C@_0BB@INGPPNJI@ASN1_INTEGER_set?$AA@ 0006f7d0     libeay32:asn1_err.obj
 0002:000077e4       ??_C@_0M@DAKKNEEP@ASN1_i2d_fp?$AA@ 0006f7e4     libeay32:asn1_err.obj
 0002:000077f0       ??_C@_0N@JIKDIOBF@ASN1_i2d_bio?$AA@ 0006f7f0     libeay32:asn1_err.obj
 0002:00007800       ??_C@_0BA@HHOEOBLP@ASN1_HEADER_NEW?$AA@ 0006f800     libeay32:asn1_err.obj
 0002:00007810       ??_C@_0BA@JLIGACBL@ASN1_get_object?$AA@ 0006f810     libeay32:asn1_err.obj
 0002:00007820       ??_C@_0BB@KDPFLPEI@ASN1_generate_v3?$AA@ 0006f820     libeay32:asn1_err.obj
 0002:00007834       ??_C@_0BJ@KHKMKKCA@ASN1_GENERALIZEDTIME_set?$AA@ 0006f834     libeay32:asn1_err.obj
 0002:00007850       ??_C@_0BJ@IIDPGANM@ASN1_GENERALIZEDTIME_adj?$AA@ 0006f850     libeay32:asn1_err.obj
 0002:0000786c       ??_C@_0O@NNCENJDM@ASN1_FIND_END?$AA@ 0006f86c     libeay32:asn1_err.obj
 0002:0000787c       ??_C@_0M@DINHMBPN@ASN1_EX_C2I?$AA@ 0006f87c     libeay32:asn1_err.obj
 0002:00007888       ??_C@_0BG@DAFILAFG@ASN1_ENUMERATED_to_BN?$AA@ 0006f888     libeay32:asn1_err.obj
 0002:000078a0       ??_C@_0BE@IJNOKPHE@ASN1_ENUMERATED_set?$AA@ 0006f8a0     libeay32:asn1_err.obj
 0002:000078b4       ??_C@_08KDKGDJBP@ASN1_dup?$AA@ 0006f8b4     libeay32:asn1_err.obj
 0002:000078c0       ??_C@_0M@JJPCPNMI@ASN1_DO_ADB?$AA@ 0006f8c0     libeay32:asn1_err.obj
 0002:000078cc       ??_C@_0M@JBIDILDB@ASN1_digest?$AA@ 0006f8cc     libeay32:asn1_err.obj
 0002:000078d8       ??_C@_0BC@HGCNEDND@ASN1_D2I_READ_BIO?$AA@ 0006f8d8     libeay32:asn1_err.obj
 0002:000078ec       ??_C@_0M@KJONHBDO@ASN1_d2i_fp?$AA@ 0006f8ec     libeay32:asn1_err.obj
 0002:000078f8       ??_C@_0BG@BGPEICDG@ASN1_D2I_EX_PRIMITIVE?$AA@ 0006f8f8     libeay32:asn1_err.obj
 0002:00007910       ??_C@_0N@IFJIJAOA@ASN1_COLLECT?$AA@ 0006f910     libeay32:asn1_err.obj
 0002:00007920       ??_C@_0BH@GHEGGMCL@ASN1_COLLATE_PRIMITIVE?$AA@ 0006f920     libeay32:asn1_err.obj
 0002:00007938       ??_C@_0BA@FMGKINFP@ASN1_CHECK_TLEN?$AA@ 0006f938     libeay32:asn1_err.obj
 0002:00007948       ??_C@_07OHDJOKAP@ASN1_CB?$AA@ 0006f948     libeay32:asn1_err.obj
 0002:00007950       ??_C@_0BI@BKJIJOJH@ASN1_BIT_STRING_set_bit?$AA@ 0006f950     libeay32:asn1_err.obj
 0002:00007968       ??_C@_0L@GHOFBHJM@APPEND_EXP?$AA@ 0006f968     libeay32:asn1_err.obj
 0002:00007974       ??_C@_0BA@HHEJCDFM@a2i_ASN1_STRING?$AA@ 0006f974     libeay32:asn1_err.obj
 0002:00007984       ??_C@_0BB@KJNHBALB@a2i_ASN1_INTEGER?$AA@ 0006f984     libeay32:asn1_err.obj
 0002:00007998       ??_C@_0BE@FAEKMPBO@a2i_ASN1_ENUMERATED?$AA@ 0006f998     libeay32:asn1_err.obj
 0002:000079ac       ??_C@_0BA@MGDDPFAB@a2d_ASN1_OBJECT?$AA@ 0006f9ac     libeay32:asn1_err.obj
 0002:000079bc       ??_C@_0BC@LGGDOKM@wrong?5lookup?5type?$AA@ 0006f9bc     libeay32:x509_err.obj
 0002:000079d0       ??_C@_0BG@BLGKMDGK@unsupported?5algorithm?$AA@ 0006f9d0     libeay32:x509_err.obj
 0002:000079e8       ??_C@_0BB@MKMAIEDB@unknown?5trust?5id?$AA@ 0006f9e8     libeay32:x509_err.obj
 0002:000079fc       ??_C@_0BD@OMLBEGJA@unknown?5purpose?5id?$AA@ 0006f9fc     libeay32:x509_err.obj
 0002:00007a10       ??_C@_0BB@DOJEMIBI@unknown?5key?5type?$AA@ 0006fa10     libeay32:x509_err.obj
 0002:00007a24       ??_C@_0BP@NPEJCEFK@unable?5to?5get?5certs?5public?5key?$AA@ 0006fa24     libeay32:x509_err.obj
 0002:00007a44       ??_C@_0CD@IFPIKENM@unable?5to?5find?5parameters?5in?5cha@ 0006fa44     libeay32:x509_err.obj
 0002:00007a68       ??_C@_0N@HBABGHDD@should?5retry?$AA@ 0006fa68     libeay32:x509_err.obj
 0002:00007a78       ??_C@_0BI@NFEHIHA@public?5key?5encode?5error?$AA@ 0006fa78     libeay32:x509_err.obj
 0002:00007a90       ??_C@_0BI@KBFAAFPL@public?5key?5decode?5error?$AA@ 0006fa90     libeay32:x509_err.obj
 0002:00007aa8       ??_C@_0BN@FFJPEMJE@no?5cert?5set?5for?5us?5to?5verify?$AA@ 0006faa8     libeay32:x509_err.obj
 0002:00007ac8       ??_C@_0BF@DJGECKGG@method?5not?5supported?$AA@ 0006fac8     libeay32:x509_err.obj
 0002:00007ae0       ??_C@_0BB@NCCHLMLI@loading?5defaults?$AA@ 0006fae0     libeay32:x509_err.obj
 0002:00007af4       ??_C@_0BB@EOGOJDLC@loading?5cert?5dir?$AA@ 0006faf4     libeay32:x509_err.obj
 0002:00007b08       ??_C@_0BE@OFOHOJCA@key?5values?5mismatch?$AA@ 0006fb08     libeay32:x509_err.obj
 0002:00007b1c       ??_C@_0BC@KHIFLHIK@key?5type?5mismatch?$AA@ 0006fb1c     libeay32:x509_err.obj
 0002:00007b30       ??_C@_0O@FAFEMPKC@invalid?5trust?$AA@ 0006fb30     libeay32:x509_err.obj
 0002:00007b40       ??_C@_0BD@EICHIIFO@invalid?5field?5name?$AA@ 0006fb40     libeay32:x509_err.obj
 0002:00007b54       ??_C@_0BC@BHJBNJAG@invalid?5directory?$AA@ 0006fb54     libeay32:x509_err.obj
 0002:00007b68       ??_C@_0N@BPKBFJKI@err?5asn1?5lib?$AA@ 0006fb68     libeay32:x509_err.obj
 0002:00007b78       ??_C@_0BL@PBNJDLDJ@cert?5already?5in?5hash?5table?$AA@ 0006fb78     libeay32:x509_err.obj
 0002:00007b94       ??_C@_0BC@JOEACAAF@cant?5check?5dh?5key?$AA@ 0006fb94     libeay32:x509_err.obj
 0002:00007ba8       ??_C@_0BE@KBNKALIF@base64?5decode?5error?$AA@ 0006fba8     libeay32:x509_err.obj
 0002:00007bbc       ??_C@_0BC@ICNCOGNN@bad?5x509?5filetype?$AA@ 0006fbbc     libeay32:x509_err.obj
 0002:00007bd0       ??_C@_0BB@ECODCNHD@X509_verify_cert?$AA@ 0006fbd0     libeay32:x509_err.obj
 0002:00007be4       ??_C@_0P@JBMPNPNG@X509_TRUST_set?$AA@ 0006fbe4     libeay32:x509_err.obj
 0002:00007bf4       ??_C@_0P@CANPDIKE@X509_TRUST_add?$AA@ 0006fbf4     libeay32:x509_err.obj
 0002:00007c04       ??_C@_0BB@NLPDCJDM@X509_to_X509_REQ?$AA@ 0006fc04     libeay32:x509_err.obj
 0002:00007c18       ??_C@_0BP@KJILIOLI@X509_STORE_CTX_purpose_inherit?$AA@ 0006fc18     libeay32:x509_err.obj
 0002:00007c38       ??_C@_0BD@NAAKLPIL@X509_STORE_CTX_new?$AA@ 0006fc38     libeay32:x509_err.obj
 0002:00007c4c       ??_C@_0BE@ECHADJIO@X509_STORE_CTX_init?$AA@ 0006fc4c     libeay32:x509_err.obj
 0002:00007c60       ??_C@_0BL@BBMOOAME@X509_STORE_CTX_get1_issuer?$AA@ 0006fc60     libeay32:x509_err.obj
 0002:00007c7c       ??_C@_0BD@PCLHBOJG@X509_STORE_add_crl?$AA@ 0006fc7c     libeay32:x509_err.obj
 0002:00007c90       ??_C@_0BE@IJLLNMMB@X509_STORE_add_cert?$AA@ 0006fc90     libeay32:x509_err.obj
 0002:00007ca4       ??_C@_0BB@DHKMDCNJ@X509_REQ_to_X509?$AA@ 0006fca4     libeay32:x509_err.obj
 0002:00007cb8       ??_C@_0BC@BCPDEBLL@X509_REQ_print_fp?$AA@ 0006fcb8     libeay32:x509_err.obj
 0002:00007ccc       ??_C@_0BC@NIGMHFOK@X509_REQ_print_ex?$AA@ 0006fccc     libeay32:x509_err.obj
 0002:00007ce0       ??_C@_0BL@BBAELMEH@X509_REQ_check_private_key?$AA@ 0006fce0     libeay32:x509_err.obj
 0002:00007cfc       ??_C@_0BA@GKNPBOHH@X509_PUBKEY_set?$AA@ 0006fcfc     libeay32:x509_err.obj
 0002:00007d0c       ??_C@_0BA@LFKENOLP@X509_PUBKEY_get?$AA@ 0006fd0c     libeay32:x509_err.obj
 0002:00007d1c       ??_C@_0BB@FBMLCAMI@X509_print_ex_fp?$AA@ 0006fd1c     libeay32:x509_err.obj
 0002:00007d30       ??_C@_0BA@JLIECJBK@X509_NAME_print?$AA@ 0006fd30     libeay32:x509_err.obj
 0002:00007d40       ??_C@_0BC@CMIEJJP@X509_NAME_oneline?$AA@ 0006fd40     libeay32:x509_err.obj
 0002:00007d54       ??_C@_0BL@LBCOMPFN@X509_NAME_ENTRY_set_object?$AA@ 0006fd54     libeay32:x509_err.obj
 0002:00007d70       ??_C@_0BO@OEKCNPAD@X509_NAME_ENTRY_create_by_txt?$AA@ 0006fd70     libeay32:x509_err.obj
 0002:00007d90       ??_C@_0BO@IBNLHOJC@X509_NAME_ENTRY_create_by_NID?$AA@ 0006fd90     libeay32:x509_err.obj
 0002:00007db0       ??_C@_0BE@BBPAOGFF@X509_NAME_add_entry?$AA@ 0006fdb0     libeay32:x509_err.obj
 0002:00007dc4       ??_C@_0BD@INIDJHGH@X509_load_crl_file?$AA@ 0006fdc4     libeay32:x509_err.obj
 0002:00007dd8       ??_C@_0BE@DONBIDEA@X509_load_cert_file?$AA@ 0006fdd8     libeay32:x509_err.obj
 0002:00007dec       ??_C@_0BI@OGJJMPCK@X509_load_cert_crl_file?$AA@ 0006fdec     libeay32:x509_err.obj
 0002:00007e04       ??_C@_0BL@MNBNHJHC@X509_get_pubkey_parameters?$AA@ 0006fe04     libeay32:x509_err.obj
 0002:00007e20       ??_C@_0BN@PKALOJGD@X509_EXTENSION_create_by_OBJ?$AA@ 0006fe20     libeay32:x509_err.obj
 0002:00007e40       ??_C@_0BN@NAGBEMGJ@X509_EXTENSION_create_by_NID?$AA@ 0006fe40     libeay32:x509_err.obj
 0002:00007e60       ??_C@_0BC@GGIALDFL@X509_CRL_print_fp?$AA@ 0006fe60     libeay32:x509_err.obj
 0002:00007e74       ??_C@_0BH@NDKJLKDD@X509_check_private_key?$AA@ 0006fe74     libeay32:x509_err.obj
 0002:00007e8c       ??_C@_0BJ@IBAEDLOI@X509_ATTRIBUTE_set1_data?$AA@ 0006fe8c     libeay32:x509_err.obj
 0002:00007ea8       ??_C@_0BJ@JDGBBMO@X509_ATTRIBUTE_get0_data?$AA@ 0006fea8     libeay32:x509_err.obj
 0002:00007ec4       ??_C@_0BN@BBEGJLKP@X509_ATTRIBUTE_create_by_txt?$AA@ 0006fec4     libeay32:x509_err.obj
 0002:00007ee4       ??_C@_0BN@FOFFJPDE@X509_ATTRIBUTE_create_by_OBJ?$AA@ 0006fee4     libeay32:x509_err.obj
 0002:00007f04       ??_C@_0BN@HEDPDKDO@X509_ATTRIBUTE_create_by_NID?$AA@ 0006ff04     libeay32:x509_err.obj
 0002:00007f24       ??_C@_0P@KHNPGPEM@X509v3_add_ext?$AA@ 0006ff24     libeay32:x509_err.obj
 0002:00007f34       ??_C@_0BB@FBCHBIJK@X509at_add1_attr?$AA@ 0006ff34     libeay32:x509_err.obj
 0002:00007f48       ??_C@_0BJ@KPNMIPMN@NETSCAPE_SPKI_b64_encode?$AA@ 0006ff48     libeay32:x509_err.obj
 0002:00007f64       ??_C@_0BJ@GDGMHELK@NETSCAPE_SPKI_b64_decode?$AA@ 0006ff64     libeay32:x509_err.obj
 0002:00007f80       ??_C@_0BE@GHOMHOGE@GET_CERT_BY_SUBJECT?$AA@ 0006ff80     libeay32:x509_err.obj
 0002:00007f94       ??_C@_08INAAGCJL@DIR_CTRL?$AA@ 0006ff94     libeay32:x509_err.obj
 0002:00007fa0       ??_C@_0N@HLJBNGNN@CHECK_POLICY?$AA@ 0006ffa0     libeay32:x509_err.obj
 0002:00007fb0       ??_C@_0N@HLEKGBLM@BY_FILE_CTRL?$AA@ 0006ffb0     libeay32:x509_err.obj
 0002:00007fc0       ??_C@_0N@HBLPJFKJ@ADD_CERT_DIR?$AA@ 0006ffc0     libeay32:x509_err.obj
 0002:00007fd0       ??_C@_0BJ@IPDNKHNA@parameter?5encoding?5error?$AA@ 0006ffd0     libeay32:dsa_err.obj
 0002:00007fec       ??_C@_0BE@NIODNBMA@non?5fips?5dsa?5method?$AA@ 0006ffec     libeay32:dsa_err.obj
 0002:00008000       ??_C@_0BC@MALNKACF@modulus?5too?5large?$AA@ 00070000     libeay32:dsa_err.obj
 0002:00008014       ??_C@_08CFCABLFO@bn?5error?$AA@ 00070014     libeay32:dsa_err.obj
 0002:00008020       ??_C@_0BA@EKELKIMH@bn?5decode?5error?$AA@ 00070020     libeay32:dsa_err.obj
 0002:00008030       ??_C@_0M@GGMKMBAH@bad?5q?5value?$AA@ 00070030     libeay32:dsa_err.obj
 0002:0000803c       ??_C@_06JBNHANLM@SIG_CB?$AA@ 0007003c     libeay32:dsa_err.obj
 0002:00008044       ??_C@_0BA@IJFHDLPP@PKEY_DSA_KEYGEN?$AA@ 00070044     libeay32:dsa_err.obj
 0002:00008054       ??_C@_0O@JPJMLPFD@PKEY_DSA_CTRL?$AA@ 00070054     libeay32:dsa_err.obj
 0002:00008064       ??_C@_0BE@IEPLBFML@OLD_DSA_PRIV_DECODE?$AA@ 00070064     libeay32:dsa_err.obj
 0002:00008078       ??_C@_0M@OMFGMGFG@i2d_DSA_SIG?$AA@ 00070078     libeay32:dsa_err.obj
 0002:00008084       ??_C@_0L@EFDPOKOI@DSA_verify?$AA@ 00070084     libeay32:dsa_err.obj
 0002:00008090       ??_C@_0O@FINEBGNM@DSA_SIG_PRINT?$AA@ 00070090     libeay32:dsa_err.obj
 0002:000080a0       ??_C@_0M@NNDPCMII@DSA_SIG_new?$AA@ 000700a0     libeay32:dsa_err.obj
 0002:000080ac       ??_C@_0P@DKMFDODF@DSA_sign_setup?$AA@ 000700ac     libeay32:dsa_err.obj
 0002:000080bc       ??_C@_08BADPDAIK@DSA_sign?$AA@ 000700bc     libeay32:dsa_err.obj
 0002:000080c8       ??_C@_0P@EDAMBOLM@DSA_PUB_ENCODE?$AA@ 000700c8     libeay32:dsa_err.obj
 0002:000080d8       ??_C@_0P@IPLMOFML@DSA_PUB_DECODE?$AA@ 000700d8     libeay32:dsa_err.obj
 0002:000080e8       ??_C@_0BA@HCDDHKCG@DSA_PRIV_ENCODE?$AA@ 000700e8     libeay32:dsa_err.obj
 0002:000080f8       ??_C@_0BA@LOIDIBFB@DSA_PRIV_DECODE?$AA@ 000700f8     libeay32:dsa_err.obj
 0002:00008108       ??_C@_0N@FHNMHEON@DSA_print_fp?$AA@ 00070108     libeay32:dsa_err.obj
 0002:00008118       ??_C@_0BB@GCAFBAKF@DSA_PARAM_DECODE?$AA@ 00070118     libeay32:dsa_err.obj
 0002:0000812c       ??_C@_0P@DCBPLEPO@DSA_new_method?$AA@ 0007012c     libeay32:dsa_err.obj
 0002:0000813c       ??_C@_0BL@DJBIHDLO@DSA_generate_parameters_ex?$AA@ 0007013c     libeay32:dsa_err.obj
 0002:00008158       ??_C@_0BB@GJMCJIMO@DSA_generate_key?$AA@ 00070158     libeay32:dsa_err.obj
 0002:0000816c       ??_C@_0O@PFFLHJPG@DSA_do_verify?$AA@ 0007016c     libeay32:dsa_err.obj
 0002:0000817c       ??_C@_0M@BALNHNHG@DSA_do_sign?$AA@ 0007017c     libeay32:dsa_err.obj
 0002:00008188       ??_C@_0BD@IOGFPALM@DSAparams_print_fp?$AA@ 00070188     libeay32:dsa_err.obj
 0002:0000819c       ??_C@_0BA@KGFLHLGF@DSAparams_print?$AA@ 0007019c     libeay32:dsa_err.obj
 0002:000081ac       ??_C@_0N@MELIHJBG@DO_DSA_PRINT?$AA@ 000701ac     libeay32:dsa_err.obj
 0002:000081bc       ??_C@_0M@IHAHEMAI@d2i_DSA_SIG?$AA@ 000701bc     libeay32:dsa_err.obj
 0002:000081c8       ??_C@_0BL@CLLIPDJK@unsupported?5key?5components?$AA@ 000701c8     libeay32:pem_err.obj
 0002:000081e4       ??_C@_0BH@MFJKMGEH@unsupported?5encryption?$AA@ 000701e4     libeay32:pem_err.obj
 0002:000081fc       ??_C@_0N@BPCBMEGI@short?5header?$AA@ 000701fc     libeay32:pem_err.obj
 0002:0000820c       ??_C@_08HMALDALC@read?5key?$AA@ 0007020c     libeay32:pem_err.obj
 0002:00008218       ??_C@_0O@OAPPJFJD@pvk?5too?5short?$AA@ 00070218     libeay32:pem_err.obj
 0002:00008228       ??_C@_0BD@DMFCDEBJ@pvk?5data?5too?5short?$AA@ 00070228     libeay32:pem_err.obj
 0002:0000823c       ??_C@_0BC@BIPPFHLM@public?5key?5no?5rsa?$AA@ 0007023c     libeay32:pem_err.obj
 0002:00008250       ??_C@_0BK@CGJEFKNB@problems?5getting?5password?$AA@ 00070250     libeay32:pem_err.obj
 0002:0000826c       ??_C@_0O@DKBLDABL@no?5start?5line?$AA@ 0007026c     libeay32:pem_err.obj
 0002:0000827c       ??_C@_0O@CLGKLHJP@not?5proc?5type?$AA@ 0007027c     libeay32:pem_err.obj
 0002:0000828c       ??_C@_0O@BJICLJJL@not?5encrypted?$AA@ 0007028c     libeay32:pem_err.obj
 0002:0000829c       ??_C@_0N@KJIDIIOD@not?5dek?5info?$AA@ 0007029c     libeay32:pem_err.obj
 0002:000082ac       ??_C@_0BC@MBNBFBPC@keyblob?5too?5short?$AA@ 000702ac     libeay32:pem_err.obj
 0002:000082c0       ??_C@_0BL@PPCIIBKB@keyblob?5header?5parse?5error?$AA@ 000702c0     libeay32:pem_err.obj
 0002:000082dc       ??_C@_0BE@HFKFNLMC@inconsistent?5header?$AA@ 000702dc     libeay32:pem_err.obj
 0002:000082f0       ??_C@_0BK@ENINHDOJ@expecting?5public?5key?5blob?$AA@ 000702f0     libeay32:pem_err.obj
 0002:0000830c       ??_C@_0BL@EIEIICDL@expecting?5private?5key?5blob?$AA@ 0007030c     libeay32:pem_err.obj
 0002:00008328       ??_C@_0BN@CDIOJAJE@error?5converting?5private?5key?$AA@ 00070328     libeay32:pem_err.obj
 0002:00008348       ??_C@_0P@HLGONDJI@cipher?5is?5null?$AA@ 00070348     libeay32:pem_err.obj
 0002:00008358       ??_C@_0BC@BHJBCHGF@bio?5write?5failure?$AA@ 00070358     libeay32:pem_err.obj
 0002:0000836c       ??_C@_0BD@MFHMFAKA@bad?5version?5number?$AA@ 0007036c     libeay32:pem_err.obj
 0002:00008380       ??_C@_0BB@BCJFFBLF@bad?5magic?5number?$AA@ 00070380     libeay32:pem_err.obj
 0002:00008394       ??_C@_0N@CABOMBAE@bad?5iv?5chars?$AA@ 00070394     libeay32:pem_err.obj
 0002:000083a4       ??_C@_0N@GJGMFAMK@bad?5end?5line?$AA@ 000703a4     libeay32:pem_err.obj
 0002:000083b4       ??_C@_0M@CCMJMLK@bad?5decrypt?$AA@ 000703b4     libeay32:pem_err.obj
 0002:000083c0       ??_C@_0BC@FIJDAKN@bad?5base64?5decode?$AA@ 000703c0     libeay32:pem_err.obj
 0002:000083d4       ??_C@_0BI@DHEEHMMN@PEM_X509_INFO_write_bio?$AA@ 000703d4     libeay32:pem_err.obj
 0002:000083ec       ??_C@_0BH@POEFLIJP@PEM_X509_INFO_read_bio?$AA@ 000703ec     libeay32:pem_err.obj
 0002:00008404       ??_C@_0BD@DEKDGILE@PEM_X509_INFO_read?$AA@ 00070404     libeay32:pem_err.obj
 0002:00008418       ??_C@_0BF@NOILBCKA@PEM_WRITE_PRIVATEKEY?$AA@ 00070418     libeay32:pem_err.obj
 0002:00008430       ??_C@_0O@CHBCLEEH@PEM_write_bio?$AA@ 00070430     libeay32:pem_err.obj
 0002:00008440       ??_C@_09MOAIHANK@PEM_write?$AA@ 00070440     libeay32:pem_err.obj
 0002:0000844c       ??_C@_0O@FJKEJNIO@PEM_SignFinal?$AA@ 0007044c     libeay32:pem_err.obj
 0002:0000845c       ??_C@_0N@HGOGKII@PEM_SealInit?$AA@ 0007045c     libeay32:pem_err.obj
 0002:0000846c       ??_C@_0O@OOGAHGDE@PEM_SealFinal?$AA@ 0007046c     libeay32:pem_err.obj
 0002:0000847c       ??_C@_0BE@FKKHCPGB@PEM_READ_PRIVATEKEY?$AA@ 0007047c     libeay32:pem_err.obj
 0002:00008490       ??_C@_0BI@MIECOFDA@PEM_READ_BIO_PRIVATEKEY?$AA@ 00070490     libeay32:pem_err.obj
 0002:000084a8       ??_C@_0BI@IEHAIIOA@PEM_read_bio_Parameters?$AA@ 000704a8     libeay32:pem_err.obj
 0002:000084c0       ??_C@_0N@HCPHGIAF@PEM_read_bio?$AA@ 000704c0     libeay32:pem_err.obj
 0002:000084d0       ??_C@_08BFLDHDBP@PEM_read?$AA@ 000704d0     libeay32:pem_err.obj
 0002:000084dc       ??_C@_0M@ELMMDKMC@PEM_PK8PKEY?$AA@ 000704dc     libeay32:pem_err.obj
 0002:000084e8       ??_C@_0BI@EHMJGDHN@PEM_get_EVP_CIPHER_INFO?$AA@ 000704e8     libeay32:pem_err.obj
 0002:00008500       ??_C@_0CA@LGAAOEPD@PEM_F_PEM_WRITE_PKCS8PRIVATEKEY?$AA@ 00070500     libeay32:pem_err.obj
 0002:00008520       ??_C@_0O@JINEELIJ@PEM_do_header?$AA@ 00070520     libeay32:pem_err.obj
 0002:00008530       ??_C@_0BB@HPAACPJ@PEM_def_callback?$AA@ 00070530     libeay32:pem_err.obj
 0002:00008544       ??_C@_0BD@OMDPFNGK@PEM_ASN1_write_bio?$AA@ 00070544     libeay32:pem_err.obj
 0002:00008558       ??_C@_0P@IAMHDFGD@PEM_ASN1_write?$AA@ 00070558     libeay32:pem_err.obj
 0002:00008568       ??_C@_0BC@DOKNMJLF@PEM_ASN1_read_bio?$AA@ 00070568     libeay32:pem_err.obj
 0002:0000857c       ??_C@_0O@NOHFJOPN@PEM_ASN1_read?$AA@ 0007057c     libeay32:pem_err.obj
 0002:0000858c       ??_C@_07DPBPIGIN@LOAD_IV?$AA@ 0007058c     libeay32:pem_err.obj
 0002:00008594       ??_C@_0M@MHJNPCIP@i2b_PVK_bio?$AA@ 00070594     libeay32:pem_err.obj
 0002:000085a0       ??_C@_07NLJBHFDI@I2B_PVK?$AA@ 000705a0     libeay32:pem_err.obj
 0002:000085a8       ??_C@_0O@BJHOEGAF@DO_PVK_HEADER?$AA@ 000705a8     libeay32:pem_err.obj
 0002:000085b8       ??_C@_0M@BNIBCFCG@DO_PVK_BODY?$AA@ 000705b8     libeay32:pem_err.obj
 0002:000085c4       ??_C@_0O@NDAGLHK@DO_PK8PKEY_FP?$AA@ 000705c4     libeay32:pem_err.obj
 0002:000085d4       ??_C@_0L@KCJOBILA@DO_PK8PKEY?$AA@ 000705d4     libeay32:pem_err.obj
 0002:000085e0       ??_C@_0P@OFONBJGL@DO_BLOB_HEADER?$AA@ 000705e0     libeay32:pem_err.obj
 0002:000085f0       ??_C@_0L@MPFEPBJC@DO_B2I_BIO?$AA@ 000705f0     libeay32:pem_err.obj
 0002:000085fc       ??_C@_06KBNDMEEM@DO_B2I?$AA@ 000705fc     libeay32:pem_err.obj
 0002:00008604       ??_C@_0BH@EPJFGPLK@d2i_PKCS8PrivateKey_fp?$AA@ 00070604     libeay32:pem_err.obj
 0002:0000861c       ??_C@_0BI@FFALLHDN@d2i_PKCS8PrivateKey_bio?$AA@ 0007061c     libeay32:pem_err.obj
 0002:00008634       ??_C@_0BB@HHBHKOOO@CHECK_BITLEN_RSA?$AA@ 00070634     libeay32:pem_err.obj
 0002:00008648       ??_C@_0BB@CGFKGKN@CHECK_BITLEN_DSA?$AA@ 00070648     libeay32:pem_err.obj
 0002:0000865c       ??_C@_07LKBBHLEH@B2I_RSA?$AA@ 0007065c     libeay32:pem_err.obj
 0002:00008664       ??_C@_0M@EOOPKNHG@b2i_PVK_bio?$AA@ 00070664     libeay32:pem_err.obj
 0002:00008670       ??_C@_07LHJHADNH@B2I_DSS?$AA@ 00070670     libeay32:pem_err.obj
 0002:00008678       ??_C@_0L@ODBGAEPJ@OBJ_nid2sn?$AA@ 00070678     libeay32:obj_err.obj
 0002:00008684       ??_C@_0M@EIEFMONC@OBJ_nid2obj?$AA@ 00070684     libeay32:obj_err.obj
 0002:00008690       ??_C@_0L@PEGMOALE@OBJ_nid2ln?$AA@ 00070690     libeay32:obj_err.obj
 0002:0000869c       ??_C@_0BD@EBGMNDBO@OBJ_NAME_new_index?$AA@ 0007069c     libeay32:obj_err.obj
 0002:000086b0       ??_C@_07GEDFFGIO@OBJ_dup?$AA@ 000706b0     libeay32:obj_err.obj
 0002:000086b8       ??_C@_0L@OJLDNBND@OBJ_create?$AA@ 000706b8     libeay32:obj_err.obj
 0002:000086c4       ??_C@_0P@PNBAKKGP@OBJ_add_object?$AA@ 000706c4     libeay32:obj_err.obj
 0002:000086d4       ??_C@_0M@PMIFCMGN@BUF_strndup?$AA@ 000706d4     libeay32:buf_err.obj
 0002:000086e0       ??_C@_0L@GDIPLNAB@BUF_strdup?$AA@ 000706e0     libeay32:buf_err.obj
 0002:000086ec       ??_C@_0M@DHGBDCFJ@BUF_MEM_new?$AA@ 000706ec     libeay32:buf_err.obj
 0002:000086f8       ??_C@_0BD@IAEPNGDK@BUF_MEM_grow_clean?$AA@ 000706f8     libeay32:buf_err.obj
 0002:0000870c       ??_C@_0N@KABFJIMM@BUF_MEM_grow?$AA@ 0007070c     libeay32:buf_err.obj
 0002:0000871c       ??_C@_0L@HOFEILPP@BUF_memdup?$AA@ 0007071c     libeay32:buf_err.obj
 0002:00008728       ??_C@_0BJ@GMMEOCIA@wrong?5final?5block?5length?$AA@ 00070728     libeay32:evp_err.obj
 0002:00008744       ??_C@_0BG@HNPLFI@unsupported?5salt?5type?$AA@ 00070744     libeay32:evp_err.obj
 0002:0000875c       ??_C@_0CC@DLEFGHNG@unsupported?5private?5key?5algorith@ 0007075c     libeay32:evp_err.obj
 0002:00008780       ??_C@_0BA@KAOPPHHA@unsupported?5prf?$AA@ 00070780     libeay32:evp_err.obj
 0002:00008790       ??_C@_0BF@JJLLLINI@unsupported?5key?5size?$AA@ 00070790     libeay32:evp_err.obj
 0002:000087a8       ??_C@_0CE@LAMCIFFJ@unsupported?5key?5derivation?5funct@ 000707a8     libeay32:evp_err.obj
 0002:000087cc       ??_C@_0BG@HOCGGEGP@unsupported?5keylength?$AA@ 000707cc     libeay32:evp_err.obj
 0002:000087e4       ??_C@_0BM@HIBGCGNH@unsuported?5number?5of?5rounds?$AA@ 000707e4     libeay32:evp_err.obj
 0002:00008800       ??_C@_0BG@FAIBJLPO@unknown?5pbe?5algorithm?$AA@ 00070800     libeay32:evp_err.obj
 0002:00008818       ??_C@_0P@KCIKKMPB@unknown?5digest?$AA@ 00070818     libeay32:evp_err.obj
 0002:00008828       ??_C@_09OJDLMMBJ@too?5large?$AA@ 00070828     libeay32:evp_err.obj
 0002:00008834       ??_C@_0BD@MMPLJMCH@public?5key?5not?5rsa?$AA@ 00070834     libeay32:evp_err.obj
 0002:00008848       ??_C@_0BJ@FKCOBHOL@private?5key?5encode?5error?$AA@ 00070848     libeay32:evp_err.obj
 0002:00008864       ??_C@_0BJ@PGCKGKGA@private?5key?5decode?5error?$AA@ 00070864     libeay32:evp_err.obj
 0002:00008880       ??_C@_0BK@DPIDMHCF@pkcs8?5unknown?5broken?5type?$AA@ 00070880     libeay32:evp_err.obj
 0002:0000889c       ??_C@_0BJ@LOKHPOOE@operaton?5not?5initialized?$AA@ 0007089c     libeay32:evp_err.obj
 0002:000088b8       ??_C@_0CJ@FDIBODBP@operation?5not?5supported?5for?5this@ 000708b8     libeay32:evp_err.obj
 0002:000088e4       ??_C@_0BO@JCHGAODK@no?5verify?5function?5configured?$AA@ 000708e4     libeay32:evp_err.obj
 0002:00008904       ??_C@_0BM@MKFHONFA@no?5sign?5function?5configured?$AA@ 00070904     libeay32:evp_err.obj
 0002:00008920       ??_C@_0BB@ODHHEDOG@no?5operation?5set?$AA@ 00070920     libeay32:evp_err.obj
 0002:00008934       ??_C@_0L@PBOBDIJK@no?5key?5set?$AA@ 00070934     libeay32:evp_err.obj
 0002:00008940       ??_C@_0BC@LCMEIJMC@no?5dsa?5parameters?$AA@ 00070940     libeay32:evp_err.obj
 0002:00008954       ??_C@_0O@GNLJHFJN@no?5cipher?5set?$AA@ 00070954     libeay32:evp_err.obj
 0002:00008964       ??_C@_0BH@NFDMIJPE@message?5digest?5is?5null?$AA@ 00070964     libeay32:evp_err.obj
 0002:0000897c       ??_C@_0P@OKANNIHB@keygen?5failure?$AA@ 0007097c     libeay32:evp_err.obj
 0002:0000898c       ??_C@_0BC@ECMLAGML@invalid?5operation?$AA@ 0007098c     libeay32:evp_err.obj
 0002:000089a0       ??_C@_0BC@EPKPKIBM@invalid?5fips?5mode?$AA@ 000709a0     libeay32:evp_err.obj
 0002:000089b4       ??_C@_0P@BHAJJOEL@invalid?5digest?$AA@ 000709b4     libeay32:evp_err.obj
 0002:000089c4       ??_C@_0BG@FEDNMCDD@input?5not?5initialized?$AA@ 000709c4     libeay32:evp_err.obj
 0002:000089dc       ??_C@_0BF@BLPPFHJN@initialization?5error?$AA@ 000709dc     libeay32:evp_err.obj
 0002:000089f4       ??_C@_0BD@CPNEAEMK@expecting?5a?5ec?5key?$AA@ 000709f4     libeay32:evp_err.obj
 0002:00008a08       ??_C@_0BG@HCFIIKBE@expecting?5a?5ecdsa?5key?$AA@ 00070a08     libeay32:evp_err.obj
 0002:00008a20       ??_C@_0BE@DANDDMPD@expecting?5a?5dsa?5key?$AA@ 00070a20     libeay32:evp_err.obj
 0002:00008a34       ??_C@_0BD@ODGEPPLN@expecting?5a?5dh?5key?$AA@ 00070a34     libeay32:evp_err.obj
 0002:00008a48       ??_C@_0BF@PLFLMHPC@expecting?5an?5rsa?5key?$AA@ 00070a48     libeay32:evp_err.obj
 0002:00008a60       ??_C@_0BJ@OKDOIMO@evp?5pbe?5cipherinit?5error?$AA@ 00070a60     libeay32:evp_err.obj
 0002:00008a7c       ??_C@_0BI@GOPCKPEG@error?5setting?5fips?5mode?$AA@ 00070a7c     libeay32:evp_err.obj
 0002:00008a94       ??_C@_0BC@NHLCEGII@disabled?5for?5fips?$AA@ 00070a94     libeay32:evp_err.obj
 0002:00008aa8       ??_C@_0BF@GPPMHNBE@different?5parameters?$AA@ 00070aa8     libeay32:evp_err.obj
 0002:00008ac0       ??_C@_0BE@KPACBDBO@different?5key?5types?$AA@ 00070ac0     libeay32:evp_err.obj
 0002:00008ad4       ??_C@_0CC@CACKLKH@data?5not?5multiple?5of?5block?5lengt@ 00070ad4     libeay32:evp_err.obj
 0002:00008af8       ??_C@_0BP@HNCHOJGH@ctrl?5operation?5not?5implemented?$AA@ 00070af8     libeay32:evp_err.obj
 0002:00008b18       ??_C@_0BF@HEOEPAFD@ctrl?5not?5implemented?$AA@ 00070b18     libeay32:evp_err.obj
 0002:00008b30       ??_C@_0BG@GAFLOAPP@command?5not?5supported?$AA@ 00070b30     libeay32:evp_err.obj
 0002:00008b48       ??_C@_0BH@NKJMBAMK@cipher?5parameter?5error?$AA@ 00070b48     libeay32:evp_err.obj
 0002:00008b60       ??_C@_0BK@KFELEBBK@camellia?5key?5setup?5failed?$AA@ 00070b60     libeay32:evp_err.obj
 0002:00008b7c       ??_C@_0BA@MGOHMGOK@bn?5pubkey?5error?$AA@ 00070b7c     libeay32:evp_err.obj
 0002:00008b8c       ??_C@_0P@IOHAFLFI@bad?5key?5length?$AA@ 00070b8c     libeay32:evp_err.obj
 0002:00008b9c       ??_C@_0BB@PEINPMDG@bad?5block?5length?$AA@ 00070b9c     libeay32:evp_err.obj
 0002:00008bb0       ??_C@_08MEGCJFEA@asn1?5lib?$AA@ 00070bb0     libeay32:evp_err.obj
 0002:00008bbc       ??_C@_0BF@JJHFFCED@aes?5key?5setup?5failed?$AA@ 00070bbc     libeay32:evp_err.obj
 0002:00008bd4       ??_C@_0BE@IOOKKMBD@aes?5iv?5setup?5failed?$AA@ 00070bd4     libeay32:evp_err.obj
 0002:00008be8       ??_C@_08INALDHMD@RC5_CTRL?$AA@ 00070be8     libeay32:evp_err.obj
 0002:00008bf4       ??_C@_0BC@MNOALPJL@RC2_MAGIC_TO_METH?$AA@ 00070bf4     libeay32:evp_err.obj
 0002:00008c08       ??_C@_0O@CKODOHEG@PKEY_SET_TYPE?$AA@ 00070c08     libeay32:evp_err.obj
 0002:00008c18       ??_C@_0BB@PCHIINPO@PKCS8_set_broken?$AA@ 00070c18     libeay32:evp_err.obj
 0002:00008c2c       ??_C@_0BJ@IFPKEILH@PKCS5_V2_PBKDF2_KEYIVGEN?$AA@ 00070c2c     libeay32:evp_err.obj
 0002:00008c48       ??_C@_0BG@DEAJDLGC@PKCS5_v2_PBE_keyivgen?$AA@ 00070c48     libeay32:evp_err.obj
 0002:00008c60       ??_C@_0BD@BCPAFJOG@PKCS5_PBE_keyivgen?$AA@ 00070c60     libeay32:evp_err.obj
 0002:00008c74       ??_C@_0M@GCLMFPBB@INT_CTX_NEW?$AA@ 00070c74     libeay32:evp_err.obj
 0002:00008c80       ??_C@_0N@ICAPKKKM@HMAC_Init_ex?$AA@ 00070c80     libeay32:evp_err.obj
 0002:00008c90       ??_C@_0BB@EEFMLAEP@FIPS_MD_CTX_COPY?$AA@ 00070c90     libeay32:evp_err.obj
 0002:00008ca4       ??_C@_0BA@NKKAHEFL@FIPS_DIGESTINIT?$AA@ 00070ca4     libeay32:evp_err.obj
 0002:00008cb4       ??_C@_0BP@BHEFJLJO@FIPS_CIPHER_CTX_SET_KEY_LENGTH?$AA@ 00070cb4     libeay32:evp_err.obj
 0002:00008cd4       ??_C@_0BF@NFPKJHPD@FIPS_CIPHER_CTX_CTRL?$AA@ 00070cd4     libeay32:evp_err.obj
 0002:00008cec       ??_C@_0BF@GGNDHFBH@FIPS_CIPHER_CTX_COPY?$AA@ 00070cec     libeay32:evp_err.obj
 0002:00008d04       ??_C@_0BA@HCGIBBFI@FIPS_CIPHERINIT?$AA@ 00070d04     libeay32:evp_err.obj
 0002:00008d14       ??_C@_0BA@GLLLOEJG@EVP_VerifyFinal?$AA@ 00070d14     libeay32:evp_err.obj
 0002:00008d24       ??_C@_0O@CAMPOJIJ@EVP_SignFinal?$AA@ 00070d24     libeay32:evp_err.obj
 0002:00008d34       ??_C@_0N@KINHBLCG@EVP_RIJNDAEL?$AA@ 00070d34     libeay32:evp_err.obj
 0002:00008d44       ??_C@_0BN@MDHBFHEI@EVP_PKEY_verify_recover_init?$AA@ 00070d44     libeay32:evp_err.obj
 0002:00008d64       ??_C@_0BI@JFLFDOB@EVP_PKEY_verify_recover?$AA@ 00070d64     libeay32:evp_err.obj
 0002:00008d7c       ??_C@_0BF@PDPMCIFG@EVP_PKEY_verify_init?$AA@ 00070d7c     libeay32:evp_err.obj
 0002:00008d94       ??_C@_0BA@KBJNJNKI@EVP_PKEY_verify?$AA@ 00070d94     libeay32:evp_err.obj
 0002:00008da4       ??_C@_0BD@PIOCCDMM@EVP_PKEY_sign_init?$AA@ 00070da4     libeay32:evp_err.obj
 0002:00008db8       ??_C@_0O@BEINPMKB@EVP_PKEY_sign?$AA@ 00070db8     libeay32:evp_err.obj
 0002:00008dc8       ??_C@_0BH@OKHDFNDA@EVP_PKEY_paramgen_init?$AA@ 00070dc8     libeay32:evp_err.obj
 0002:00008de0       ??_C@_0BC@IBBHNDMH@EVP_PKEY_paramgen?$AA@ 00070de0     libeay32:evp_err.obj
 0002:00008df4       ??_C@_0N@MHABMGDE@EVP_PKEY_new?$AA@ 00070df4     libeay32:evp_err.obj
 0002:00008e04       ??_C@_0BF@HNJPEBIC@EVP_PKEY_keygen_init?$AA@ 00070e04     libeay32:evp_err.obj
 0002:00008e1c       ??_C@_0BA@DHFOBMEL@EVP_PKEY_keygen?$AA@ 00070e1c     libeay32:evp_err.obj
 0002:00008e2c       ??_C@_0BC@IMEMINHC@EVP_PKEY_get1_RSA?$AA@ 00070e2c     libeay32:evp_err.obj
 0002:00008e40       ??_C@_0BF@IJHAKIDN@EVP_PKEY_get1_EC_KEY?$AA@ 00070e40     libeay32:evp_err.obj
 0002:00008e58       ??_C@_0BE@LEFNNDP@EVP_PKEY_GET1_ECDSA?$AA@ 00070e58     libeay32:evp_err.obj
 0002:00008e6c       ??_C@_0BC@PJDOIFDB@EVP_PKEY_get1_DSA?$AA@ 00070e6c     libeay32:evp_err.obj
 0002:00008e80       ??_C@_0BB@CPLHOEAA@EVP_PKEY_get1_DH?$AA@ 00070e80     libeay32:evp_err.obj
 0002:00008e94       ??_C@_0BF@MKBOMPDM@EVP_PKEY_encrypt_old?$AA@ 00070e94     libeay32:evp_err.obj
 0002:00008eac       ??_C@_0BG@EJGHHAMC@EVP_PKEY_encrypt_init?$AA@ 00070eac     libeay32:evp_err.obj
 0002:00008ec4       ??_C@_0BB@LLNNGDGM@EVP_PKEY_encrypt?$AA@ 00070ec4     libeay32:evp_err.obj
 0002:00008ed8       ??_C@_0BJ@CECPMDDP@EVP_PKEY_derive_set_peer?$AA@ 00070ed8     libeay32:evp_err.obj
 0002:00008ef4       ??_C@_0BF@MPBKJMKE@EVP_PKEY_derive_init?$AA@ 00070ef4     libeay32:evp_err.obj
 0002:00008f0c       ??_C@_0BA@KLINOOGC@EVP_PKEY_derive?$AA@ 00070f0c     libeay32:evp_err.obj
 0002:00008f1c       ??_C@_0BF@HCJKAEBH@EVP_PKEY_decrypt_old?$AA@ 00070f1c     libeay32:evp_err.obj
 0002:00008f34       ??_C@_0BG@OFGDANEJ@EVP_PKEY_decrypt_init?$AA@ 00070f34     libeay32:evp_err.obj
 0002:00008f4c       ??_C@_0BB@HFHADHAI@EVP_PKEY_decrypt?$AA@ 00070f4c     libeay32:evp_err.obj
 0002:00008f60       ??_C@_0BB@BPOPGGNH@EVP_PKEY_CTX_dup?$AA@ 00070f60     libeay32:evp_err.obj
 0002:00008f74       ??_C@_0BG@IHCGKNFK@EVP_PKEY_CTX_ctrl_str?$AA@ 00070f74     libeay32:evp_err.obj
 0002:00008f8c       ??_C@_0BC@NIPIODKB@EVP_PKEY_CTX_ctrl?$AA@ 00070f8c     libeay32:evp_err.obj
 0002:00008fa0       ??_C@_0BJ@PGNHNKFL@EVP_PKEY_copy_parameters?$AA@ 00070fa0     libeay32:evp_err.obj
 0002:00008fbc       ??_C@_0BG@JJKNEENC@EVP_PKEY2PKCS8_broken?$AA@ 00070fbc     libeay32:evp_err.obj
 0002:00008fd4       ??_C@_0BG@LDGBPHID@EVP_PKCS82PKEY_BROKEN?$AA@ 00070fd4     libeay32:evp_err.obj
 0002:00008fec       ??_C@_0P@NALOFFAP@EVP_PKCS82PKEY?$AA@ 00070fec     libeay32:evp_err.obj
 0002:00008ffc       ??_C@_0BD@IMFOLFNB@EVP_PBE_CipherInit?$AA@ 00070ffc     libeay32:evp_err.obj
 0002:00009010       ??_C@_0BF@MFFOGHAM@EVP_PBE_alg_add_type?$AA@ 00071010     libeay32:evp_err.obj
 0002:00009028       ??_C@_0BA@LHOGICEL@EVP_PBE_alg_add?$AA@ 00071028     libeay32:evp_err.obj
 0002:00009038       ??_C@_0N@HHIKMCLD@EVP_OpenInit?$AA@ 00071038     libeay32:evp_err.obj
 0002:00009048       ??_C@_0M@OOKKIKHO@EVP_MD_size?$AA@ 00071048     libeay32:evp_err.obj
 0002:00009054       ??_C@_0BD@OOMFHFKA@EVP_MD_CTX_copy_ex?$AA@ 00071054     libeay32:evp_err.obj
 0002:00009068       ??_C@_0BE@EADDKHIK@EVP_EncryptFinal_ex?$AA@ 00071068     libeay32:evp_err.obj
 0002:0000907c       ??_C@_0BC@NBJFCNLO@EVP_DigestInit_ex?$AA@ 0007107c     libeay32:evp_err.obj
 0002:00009090       ??_C@_0BE@DAKPJAOF@EVP_DecryptFinal_ex?$AA@ 00071090     libeay32:evp_err.obj
 0002:000090a4       ??_C@_0BO@LEIONLOF@EVP_CIPHER_CTX_set_key_length?$AA@ 000710a4     libeay32:evp_err.obj
 0002:000090c4       ??_C@_0BE@PBKBIICA@EVP_CIPHER_CTX_ctrl?$AA@ 000710c4     libeay32:evp_err.obj
 0002:000090d8       ??_C@_0BE@ECIIGKME@EVP_CIPHER_CTX_copy?$AA@ 000710d8     libeay32:evp_err.obj
 0002:000090ec       ??_C@_0BC@FOOGEGCP@EVP_CipherInit_ex?$AA@ 000710ec     libeay32:evp_err.obj
 0002:00009100       ??_C@_0BB@KFLGPIAK@ECKEY_PKEY2PKCS8?$AA@ 00071100     libeay32:evp_err.obj
 0002:00009114       ??_C@_0BB@IBEKDJPK@ECDSA_PKEY2PKCS8?$AA@ 00071114     libeay32:evp_err.obj
 0002:00009128       ??_C@_0P@DBCIAANA@DSA_PKEY2PKCS8?$AA@ 00071128     libeay32:evp_err.obj
 0002:00009138       ??_C@_0O@EFMKNPDB@DSAPKEY2PKCS8?$AA@ 00071138     libeay32:evp_err.obj
 0002:00009148       ??_C@_0P@GNOJHNOK@DO_SIGVER_INIT?$AA@ 00071148     libeay32:evp_err.obj
 0002:00009158       ??_C@_08BIAFNOBD@D2I_PKEY?$AA@ 00071158     libeay32:evp_err.obj
 0002:00009164       ??_C@_09KEJNODOG@CMAC_INIT?$AA@ 00071164     libeay32:evp_err.obj
 0002:00009170       ??_C@_0BC@JBPLKLIN@CAMELLIA_INIT_KEY?$AA@ 00071170     libeay32:evp_err.obj
 0002:00009184       ??_C@_0BA@EIFHEKIO@ALG_MODULE_INIT?$AA@ 00071184     libeay32:evp_err.obj
 0002:00009194       ??_C@_0P@BEBJCGPN@AES_XTS_CIPHER?$AA@ 00071194     libeay32:evp_err.obj
 0002:000091a4       ??_C@_07KNBKDFMO@AES_XTS?$AA@ 000711a4     libeay32:evp_err.obj
 0002:000091ac       ??_C@_0N@HCMHGGIL@AES_INIT_KEY?$AA@ 000711ac     libeay32:evp_err.obj
 0002:000091bc       ??_C@_0BB@KJGGIEDD@AESNI_XTS_CIPHER?$AA@ 000711bc     libeay32:evp_err.obj
 0002:000091d0       ??_C@_0P@PFOKDBDH@AESNI_INIT_KEY?$AA@ 000711d0     libeay32:evp_err.obj
 0002:000091e0       ??_C@_0BD@CLOJELDD@key?5size?5too?5small?$AA@ 000711e0     libeay32:dh_err.obj
 0002:000091f4       ??_C@_0BD@NPJGJJNC@invalid?5public?5key?$AA@ 000711f4     libeay32:dh_err.obj
 0002:00009208       ??_C@_0O@FMBNEOHL@bad?5generator?$AA@ 00071208     libeay32:dh_err.obj
 0002:00009218       ??_C@_0P@OONACJM@PKEY_DH_KEYGEN?$AA@ 00071218     libeay32:dh_err.obj
 0002:00009228       ??_C@_0P@JCDOPALF@PKEY_DH_DERIVE?$AA@ 00071228     libeay32:dh_err.obj
 0002:00009238       ??_C@_0BE@OEKEKGDH@GENERATE_PARAMETERS?$AA@ 00071238     libeay32:dh_err.obj
 0002:0000924c       ??_C@_0N@LOPKMDIL@GENERATE_KEY?$AA@ 0007124c     libeay32:dh_err.obj
 0002:0000925c       ??_C@_0M@BKOJCMIP@DO_DH_PRINT?$AA@ 0007125c     libeay32:dh_err.obj
 0002:00009268       ??_C@_0O@IBAJOGMG@DH_PUB_ENCODE?$AA@ 00071268     libeay32:dh_err.obj
 0002:00009278       ??_C@_0O@ENLJBNLB@DH_PUB_DECODE?$AA@ 00071278     libeay32:dh_err.obj
 0002:00009288       ??_C@_0P@MCCBOHPM@DH_PRIV_ENCODE?$AA@ 00071288     libeay32:dh_err.obj
 0002:00009298       ??_C@_0P@OJBBMIL@DH_PRIV_DECODE?$AA@ 00071298     libeay32:dh_err.obj
 0002:000092a8       ??_C@_0BA@ELDDJPC@DH_PARAM_DECODE?$AA@ 000712a8     libeay32:dh_err.obj
 0002:000092b8       ??_C@_0O@PABKEMIE@DH_new_method?$AA@ 000712b8     libeay32:dh_err.obj
 0002:000092c8       ??_C@_0BK@LEHNHMII@DH_generate_parameters_ex?$AA@ 000712c8     libeay32:dh_err.obj
 0002:000092e4       ??_C@_0BA@PHELBJJ@DH_generate_key?$AA@ 000712e4     libeay32:dh_err.obj
 0002:000092f4       ??_C@_0P@DOMAGPNP@DH_compute_key?$AA@ 000712f4     libeay32:dh_err.obj
 0002:00009304       ??_C@_0BF@BNFPPOCD@DH_BUILTIN_GENPARAMS?$AA@ 00071304     libeay32:dh_err.obj
 0002:0000931c       ??_C@_0BC@DJCNMFPF@DHparams_print_fp?$AA@ 0007131c     libeay32:dh_err.obj
 0002:00009330       ??_C@_0M@OBMGPJBG@COMPUTE_KEY?$AA@ 00071330     libeay32:dh_err.obj
 0002:0000933c       ??_C@_0BH@BMPGLKME@wrong?5signature?5length?$AA@ 0007133c     libeay32:rsa_err.obj
 0002:00009354       ??_C@_0O@LAEBBFFA@value?5missing?$AA@ 00071354     libeay32:rsa_err.obj
 0002:00009364       ??_C@_0BL@NFPHCDHM@unsupported?5signature?5type?$AA@ 00071364     libeay32:rsa_err.obj
 0002:00009380       ??_C@_0BL@LLKOMKEH@unsupported?5mask?5parameter?$AA@ 00071380     libeay32:rsa_err.obj
 0002:0000939c       ??_C@_0BL@BEBLEDFG@unsupported?5mask?5algorithm?$AA@ 0007139c     libeay32:rsa_err.obj
 0002:000093b8       ??_C@_0BD@IOMBGLMN@unknown?5pss?5digest?$AA@ 000713b8     libeay32:rsa_err.obj
 0002:000093cc       ??_C@_0BF@PMKFBMAN@unknown?5padding?5type?$AA@ 000713cc     libeay32:rsa_err.obj
 0002:000093e4       ??_C@_0BE@GKBFEOFH@unknown?5mask?5digest?$AA@ 000713e4     libeay32:rsa_err.obj
 0002:000093f8       ??_C@_0BH@FNFJOEPG@unknown?5algorithm?5type?$AA@ 000713f8     libeay32:rsa_err.obj
 0002:00009410       ??_C@_0BG@LCCLIBDD@sslv3?5rollback?5attack?$AA@ 00071410     libeay32:rsa_err.obj
 0002:00009428       ??_C@_0BM@NMIBMGCO@salt?5length?5recovery?5failed?$AA@ 00071428     libeay32:rsa_err.obj
 0002:00009444       ??_C@_0BJ@GBKHEAEB@salt?5length?5check?5failed?$AA@ 00071444     libeay32:rsa_err.obj
 0002:00009460       ??_C@_0BN@NCCKMPPH@rsa?5operations?5not?5supported?$AA@ 00071460     libeay32:rsa_err.obj
 0002:00009480       ??_C@_0M@IAJBGGOK@q?5not?5prime?$AA@ 00071480     libeay32:rsa_err.obj
 0002:0000948c       ??_C@_0M@BLDECKIF@p?5not?5prime?$AA@ 0007148c     libeay32:rsa_err.obj
 0002:00009498       ??_C@_0BF@INPMJCDD@padding?5check?5failed?$AA@ 00071498     libeay32:rsa_err.obj
 0002:000094b0       ??_C@_0CD@IMIHDNGM@operation?5not?5allowed?5in?5fips?5mo@ 000714b0     libeay32:rsa_err.obj
 0002:000094d4       ??_C@_0BE@EOPELEIO@oaep?5decoding?5error?$AA@ 000714d4     libeay32:rsa_err.obj
 0002:000094e8       ??_C@_0BF@HDECBJIA@n?5does?5not?5equal?5p?5q?$AA@ 000714e8     libeay32:rsa_err.obj
 0002:00009500       ??_C@_0BK@GGMKFEM@null?5before?5block?5missing?$AA@ 00071500     libeay32:rsa_err.obj
 0002:0000951c       ??_C@_0BD@JKKNAJDI@no?5public?5exponent?$AA@ 0007151c     libeay32:rsa_err.obj
 0002:00009530       ??_C@_0BE@JOKANPEI@non?5fips?5rsa?5method?$AA@ 00071530     libeay32:rsa_err.obj
 0002:00009544       ??_C@_0BD@FKBIBGMM@last?5octet?5invalid?$AA@ 00071544     libeay32:rsa_err.obj
 0002:00009558       ??_C@_0BG@DEDKEMGA@iqmp?5not?5inverse?5of?5q?$AA@ 00071558     libeay32:rsa_err.obj
 0002:00009570       ??_C@_0BE@DPIBPLCJ@invalid?5x931?5digest?$AA@ 00071570     libeay32:rsa_err.obj
 0002:00009584       ??_C@_0BA@ODEFPDHP@invalid?5trailer?$AA@ 00071584     libeay32:rsa_err.obj
 0002:00009594       ??_C@_0BE@FAHIJHPF@invalid?5salt?5length?$AA@ 00071594     libeay32:rsa_err.obj
 0002:000095a8       ??_C@_0BE@DPJFANO@invalid?5pss?5saltlen?$AA@ 000715a8     libeay32:rsa_err.obj
 0002:000095bc       ??_C@_0BH@ODMONKNF@invalid?5pss?5parameters?$AA@ 000715bc     libeay32:rsa_err.obj
 0002:000095d4       ??_C@_0BF@KDMBBEMK@invalid?5padding?5mode?$AA@ 000715d4     libeay32:rsa_err.obj
 0002:000095ec       ??_C@_0BA@JFFKNHBD@invalid?5padding?$AA@ 000715ec     libeay32:rsa_err.obj
 0002:000095fc       ??_C@_0BA@GDHINNEO@invalid?5mgf1?5md?$AA@ 000715fc     libeay32:rsa_err.obj
 0002:0000960c       ??_C@_0BH@EKFCLFAD@invalid?5message?5length?$AA@ 0007160c     libeay32:rsa_err.obj
 0002:00009624       ??_C@_0BA@EPNDMLGL@invalid?5keybits?$AA@ 00071624     libeay32:rsa_err.obj
 0002:00009634       ??_C@_0P@NOGGNOMF@invalid?5header?$AA@ 00071634     libeay32:rsa_err.obj
 0002:00009644       ??_C@_0BG@DCMIKGHM@invalid?5digest?5length?$AA@ 00071644     libeay32:rsa_err.obj
 0002:0000965c       ??_C@_0CE@PNNJELPM@illegal?5or?5unsupported?5padding?5m@ 0007165c     libeay32:rsa_err.obj
 0002:00009680       ??_C@_0BE@NOENCFCG@first?5octet?5invalid?$AA@ 00071680     libeay32:rsa_err.obj
 0002:00009694       ??_C@_0BH@NCGBLFLB@d?5e?5not?5congruent?5to?51?$AA@ 00071694     libeay32:rsa_err.obj
 0002:000096ac       ??_C@_0BI@DHGHJHEG@dmq1?5not?5congruent?5to?5d?$AA@ 000716ac     libeay32:rsa_err.obj
 0002:000096c4       ??_C@_0BI@CAEPPDIG@dmp1?5not?5congruent?5to?5d?$AA@ 000716c4     libeay32:rsa_err.obj
 0002:000096dc       ??_C@_0BL@JJIEEIJC@digest?5too?5big?5for?5rsa?5key?$AA@ 000716dc     libeay32:rsa_err.obj
 0002:000096f8       ??_C@_0BM@JHCGOKFN@data?5too?5small?5for?5key?5size?$AA@ 000716f8     libeay32:rsa_err.obj
 0002:00009714       ??_C@_0P@ODJPKBGD@data?5too?5small?$AA@ 00071714     libeay32:rsa_err.obj
 0002:00009724       ??_C@_0BL@NKECKCIM@data?5too?5large?5for?5modulus?$AA@ 00071724     libeay32:rsa_err.obj
 0002:00009740       ??_C@_0P@ELNEFAPF@data?5too?5large?$AA@ 00071740     libeay32:rsa_err.obj
 0002:00009750       ??_C@_0BK@IFDNCIJ@data?5greater?5than?5mod?5len?$AA@ 00071750     libeay32:rsa_err.obj
 0002:0000976c       ??_C@_0BF@CPFAMEOF@block?5type?5is?5not?502?$AA@ 0007176c     libeay32:rsa_err.obj
 0002:00009784       ??_C@_0BF@EHNJHCG@block?5type?5is?5not?501?$AA@ 00071784     libeay32:rsa_err.obj
 0002:0000979c       ??_C@_0BD@NMJFBDLM@bad?5pad?5byte?5count?$AA@ 0007179c     libeay32:rsa_err.obj
 0002:000097b0       ??_C@_0BJ@NJEIMCLK@bad?5fixed?5header?5decrypt?$AA@ 000717b0     libeay32:rsa_err.obj
 0002:000097cc       ??_C@_0M@JODLPONG@bad?5e?5value?$AA@ 000717cc     libeay32:rsa_err.obj
 0002:000097d8       ??_C@_0BD@CGPAGFLI@algorithm?5mismatch?$AA@ 000717d8     libeay32:rsa_err.obj
 0002:000097ec       ??_C@_0BK@CEFEDGHB@RSA_verify_PKCS1_PSS_mgf1?$AA@ 000717ec     libeay32:rsa_err.obj
 0002:00009808       ??_C@_0BF@IGJEFDEP@RSA_verify_PKCS1_PSS?$AA@ 00071808     libeay32:rsa_err.obj
 0002:00009820       ??_C@_0BN@EFLGKFKB@RSA_verify_ASN1_OCTET_STRING?$AA@ 00071820     libeay32:rsa_err.obj
 0002:00009840       ??_C@_0L@DHMOEGA@RSA_verify?$AA@ 00071840     libeay32:rsa_err.obj
 0002:0000984c       ??_C@_0BL@CNIEBPPN@RSA_sign_ASN1_OCTET_STRING?$AA@ 0007184c     libeay32:rsa_err.obj
 0002:00009868       ??_C@_08MPOFALHB@RSA_sign?$AA@ 00071868     libeay32:rsa_err.obj
 0002:00009874       ??_C@_0BD@BJFMCAGF@RSA_setup_blinding?$AA@ 00071874     libeay32:rsa_err.obj
 0002:00009888       ??_C@_0P@OJCEKOHG@RSA_PUB_DECODE?$AA@ 00071888     libeay32:rsa_err.obj
 0002:00009898       ??_C@_0BD@DNFCKLEJ@RSA_public_encrypt?$AA@ 00071898     libeay32:rsa_err.obj
 0002:000098ac       ??_C@_0BD@PDPPPPCN@RSA_public_decrypt?$AA@ 000718ac     libeay32:rsa_err.obj
 0002:000098c0       ??_C@_0BA@MHIFCNFM@RSA_PRIV_ENCODE?$AA@ 000718c0     libeay32:rsa_err.obj
 0002:000098d0       ??_C@_0BA@LDFNGCL@RSA_PRIV_DECODE?$AA@ 000718d0     libeay32:rsa_err.obj
 0002:000098e0       ??_C@_0BE@KCOGGGIC@RSA_private_encrypt?$AA@ 000718e0     libeay32:rsa_err.obj
 0002:000098f4       ??_C@_0BE@GMELDCOG@RSA_private_decrypt?$AA@ 000718f4     libeay32:rsa_err.obj
 0002:00009908       ??_C@_0N@EDDOANOK@RSA_print_fp?$AA@ 00071908     libeay32:rsa_err.obj
 0002:00009918       ??_C@_09BNOFLLFN@RSA_print?$AA@ 00071918     libeay32:rsa_err.obj
 0002:00009924       ??_C@_0BH@HNEKADOE@RSA_padding_check_X931?$AA@ 00071924     libeay32:rsa_err.obj
 0002:0000993c       ??_C@_0BJ@KGLGCBIK@RSA_padding_check_SSLv23?$AA@ 0007193c     libeay32:rsa_err.obj
 0002:00009958       ??_C@_0BP@NOENDBAC@RSA_padding_check_PKCS1_type_2?$AA@ 00071958     libeay32:rsa_err.obj
 0002:00009978       ??_C@_0BP@PFGAGCMB@RSA_padding_check_PKCS1_type_1?$AA@ 00071978     libeay32:rsa_err.obj
 0002:00009998       ??_C@_0BN@IOMKEGJG@RSA_padding_check_PKCS1_OAEP?$AA@ 00071998     libeay32:rsa_err.obj
 0002:000099b8       ??_C@_0BH@HPODLAP@RSA_padding_check_none?$AA@ 000719b8     libeay32:rsa_err.obj
 0002:000099d0       ??_C@_0BF@EIOFIDKM@RSA_padding_add_X931?$AA@ 000719d0     libeay32:rsa_err.obj
 0002:000099e8       ??_C@_0BH@HDKOFCAI@RSA_padding_add_SSLv23?$AA@ 000719e8     libeay32:rsa_err.obj
 0002:00009a00       ??_C@_0BN@CNKIJGGF@RSA_padding_add_PKCS1_type_2?$AA@ 00071a00     libeay32:rsa_err.obj
 0002:00009a20       ??_C@_0BN@GIFMFKG@RSA_padding_add_PKCS1_type_1?$AA@ 00071a20     libeay32:rsa_err.obj
 0002:00009a40       ??_C@_0BP@EAMMIKJG@RSA_padding_add_PKCS1_PSS_mgf1?$AA@ 00071a40     libeay32:rsa_err.obj
 0002:00009a60       ??_C@_0BK@OBENMGDB@RSA_padding_add_PKCS1_PSS?$AA@ 00071a60     libeay32:rsa_err.obj
 0002:00009a7c       ??_C@_0BL@OLIPFACN@RSA_padding_add_PKCS1_OAEP?$AA@ 00071a7c     libeay32:rsa_err.obj
 0002:00009a98       ??_C@_0BF@DCFBLLEH@RSA_padding_add_none?$AA@ 00071a98     libeay32:rsa_err.obj
 0002:00009ab0       ??_C@_0BI@OOBCANGE@RSA_NULL_PUBLIC_ENCRYPT?$AA@ 00071ab0     libeay32:rsa_err.obj
 0002:00009ac8       ??_C@_0BI@CALPFJAA@RSA_NULL_PUBLIC_DECRYPT?$AA@ 00071ac8     libeay32:rsa_err.obj
 0002:00009ae0       ??_C@_0BJ@LPMCNPIA@RSA_NULL_PRIVATE_ENCRYPT?$AA@ 00071ae0     libeay32:rsa_err.obj
 0002:00009afc       ??_C@_0BJ@HBGPILOE@RSA_NULL_PRIVATE_DECRYPT?$AA@ 00071afc     libeay32:rsa_err.obj
 0002:00009b18       ??_C@_0BB@HDGNLFN@RSA_NULL_MOD_EXP?$AA@ 00071b18     libeay32:rsa_err.obj
 0002:00009b2c       ??_C@_08LPADNPHO@RSA_NULL?$AA@ 00071b2c     libeay32:rsa_err.obj
 0002:00009b38       ??_C@_0P@FEIHPPED@RSA_new_method?$AA@ 00071b38     libeay32:rsa_err.obj
 0002:00009b48       ??_C@_0BA@JIOKLGDH@RSA_memory_lock?$AA@ 00071b48     libeay32:rsa_err.obj
 0002:00009b58       ??_C@_0BA@CLMBBCBN@RSA_ITEM_VERIFY?$AA@ 00071b58     libeay32:rsa_err.obj
 0002:00009b68       ??_C@_0BE@JLCMLJM@RSA_generate_key_ex?$AA@ 00071b68     libeay32:rsa_err.obj
 0002:00009b7c       ??_C@_0BB@NJKHLGLL@RSA_generate_key?$AA@ 00071b7c     libeay32:rsa_err.obj
 0002:00009b90       ??_C@_0BH@LNLHMMLN@RSA_EAY_PUBLIC_ENCRYPT?$AA@ 00071b90     libeay32:rsa_err.obj
 0002:00009ba8       ??_C@_0BH@HDBKJINJ@RSA_EAY_PUBLIC_DECRYPT?$AA@ 00071ba8     libeay32:rsa_err.obj
 0002:00009bc0       ??_C@_0BI@EAJOBADB@RSA_EAY_PRIVATE_ENCRYPT?$AA@ 00071bc0     libeay32:rsa_err.obj
 0002:00009bd8       ??_C@_0BI@IODDEEFF@RSA_EAY_PRIVATE_DECRYPT?$AA@ 00071bd8     libeay32:rsa_err.obj
 0002:00009bf0       ??_C@_0O@GHGJHIFH@RSA_check_key?$AA@ 00071bf0     libeay32:rsa_err.obj
 0002:00009c00       ??_C@_0BD@CBDKPIGP@RSA_BUILTIN_KEYGEN?$AA@ 00071c00     libeay32:rsa_err.obj
 0002:00009c14       ??_C@_0BH@FFOJNJJB@PKEY_RSA_VERIFYRECOVER?$AA@ 00071c14     libeay32:rsa_err.obj
 0002:00009c2c       ??_C@_0BA@FJNHLEJE@PKEY_RSA_VERIFY?$AA@ 00071c2c     libeay32:rsa_err.obj
 0002:00009c3c       ??_C@_0O@KKAOJPHB@PKEY_RSA_SIGN?$AA@ 00071c3c     libeay32:rsa_err.obj
 0002:00009c4c       ??_C@_0BC@DONPGKEJ@PKEY_RSA_CTRL_STR?$AA@ 00071c4c     libeay32:rsa_err.obj
 0002:00009c60       ??_C@_0O@EAEGIEKI@PKEY_RSA_CTRL?$AA@ 00071c60     libeay32:rsa_err.obj
 0002:00009c70       ??_C@_0BE@DBENECLB@OLD_RSA_PRIV_DECODE?$AA@ 00071c70     libeay32:rsa_err.obj
 0002:00009c84       ??_C@_0M@IECFMAGM@MEMORY_LOCK?$AA@ 00071c84     libeay32:rsa_err.obj
 0002:00009c90       ??_C@_0P@KHENOEA@INT_RSA_VERIFY?$AA@ 00071c90     libeay32:rsa_err.obj
 0002:00009ca0       ??_C@_0N@OOAIIILJ@DO_RSA_PRINT?$AA@ 00071ca0     libeay32:rsa_err.obj
 0002:00009cb0       ??_C@_0BB@ODOKNOAB@CHECK_PADDING_MD?$AA@ 00071cb0     libeay32:rsa_err.obj
 0002:00009cc4       ??_C@_0BN@FMADIABH@too?5many?5temporary?5variables?$AA@ 00071cc4     libeay32:bn_err.obj
 0002:00009ce4       ??_C@_0BE@OPCNEJGC@too?5many?5iterations?$AA@ 00071ce4     libeay32:bn_err.obj
 0002:00009cf8       ??_C@_0P@ICPCEPDP@p?5is?5not?5prime?$AA@ 00071cf8     libeay32:bn_err.obj
 0002:00009d08       ??_C@_0M@OMKNCEPO@no?5solution?$AA@ 00071d08     libeay32:bn_err.obj
 0002:00009d14       ??_C@_0L@CDEIJFEG@no?5inverse?$AA@ 00071d14     libeay32:bn_err.obj
 0002:00009d20       ??_C@_0N@NDJIBCN@not?5a?5square?$AA@ 00071d20     libeay32:bn_err.obj
 0002:00009d30       ??_C@_0O@GOKDDJMP@invalid?5range?$AA@ 00071d30     libeay32:bn_err.obj
 0002:00009d40       ??_C@_0P@BHAFPBHF@invalid?5length?$AA@ 00071d40     libeay32:bn_err.obj
 0002:00009d50       ??_C@_0BC@JDEDLNHC@input?5not?5reduced?$AA@ 00071d50     libeay32:bn_err.obj
 0002:00009d64       ??_C@_0BN@BKAHLPJH@expand?5on?5static?5bignum?5data?$AA@ 00071d64     libeay32:bn_err.obj
 0002:00009d84       ??_C@_0P@PPHOEKAA@encoding?5error?$AA@ 00071d84     libeay32:bn_err.obj
 0002:00009d94       ??_C@_0M@BLFJLCCH@div?5by?5zero?$AA@ 00071d94     libeay32:bn_err.obj
 0002:00009da0       ??_C@_0BJ@OJGGDJF@called?5with?5even?5modulus?$AA@ 00071da0     libeay32:bn_err.obj
 0002:00009dbc       ??_C@_0BA@GFLMOMGJ@bignum?5too?5long?$AA@ 00071dbc     libeay32:bn_err.obj
 0002:00009dcc       ??_C@_0P@CGNJGONO@bad?5reciprocal?$AA@ 00071dcc     libeay32:bn_err.obj
 0002:00009ddc       ??_C@_0N@DINPDMFF@arg2?5lt?5arg3?$AA@ 00071ddc     libeay32:bn_err.obj
 0002:00009dec       ??_C@_07FFMAJCFD@BN_usub?$AA@ 00071dec     libeay32:bn_err.obj
 0002:00009df4       ??_C@_0O@GGLCDEBH@BN_rand_range?$AA@ 00071df4     libeay32:bn_err.obj
 0002:00009e04       ??_C@_07FLNJDKEA@BN_rand?$AA@ 00071e04     libeay32:bn_err.obj
 0002:00009e0c       ??_C@_06MLINBBBN@BN_new?$AA@ 00071e0c     libeay32:bn_err.obj
 0002:00009e14       ??_C@_09IDACCFHO@BN_mpi2bn?$AA@ 00071e14     libeay32:bn_err.obj
 0002:00009e20       ??_C@_0M@MDECKEMJ@BN_mod_sqrt?$AA@ 00071e20     libeay32:bn_err.obj
 0002:00009e2c       ??_C@_0BG@BPLEAIGL@BN_mod_mul_reciprocal?$AA@ 00071e2c     libeay32:bn_err.obj
 0002:00009e44       ??_C@_0BE@HCGJNJDH@BN_mod_lshift_quick?$AA@ 00071e44     libeay32:bn_err.obj
 0002:00009e58       ??_C@_0BJ@GNNEGKDJ@BN_mod_inverse_no_branch?$AA@ 00071e58     libeay32:bn_err.obj
 0002:00009e74       ??_C@_0P@PJDAOIEB@BN_mod_inverse?$AA@ 00071e74     libeay32:bn_err.obj
 0002:00009e84       ??_C@_0BC@IAKJJHKD@BN_mod_exp_simple?$AA@ 00071e84     libeay32:bn_err.obj
 0002:00009e98       ??_C@_0BA@MFDDJGKA@BN_mod_exp_recp?$AA@ 00071e98     libeay32:bn_err.obj
 0002:00009ea8       ??_C@_0BF@NHOGELCA@BN_mod_exp_mont_word?$AA@ 00071ea8     libeay32:bn_err.obj
 0002:00009ec0       ??_C@_0BK@MLKANOIE@BN_mod_exp_mont_consttime?$AA@ 00071ec0     libeay32:bn_err.obj
 0002:00009edc       ??_C@_0BA@CEIKCAMA@BN_mod_exp_mont?$AA@ 00071edc     libeay32:bn_err.obj
 0002:00009eec       ??_C@_0BB@KAANGNEC@BN_mod_exp2_mont?$AA@ 00071eec     libeay32:bn_err.obj
 0002:00009f00       ??_C@_0BB@COMHDKLD@BN_GF2m_mod_sqrt?$AA@ 00071f00     libeay32:bn_err.obj
 0002:00009f14       ??_C@_0BA@CEFPIHFI@BN_GF2m_mod_sqr?$AA@ 00071f14     libeay32:bn_err.obj
 0002:00009f24       ??_C@_0BL@JJDJOBHG@BN_GF2m_mod_solve_quad_arr?$AA@ 00071f24     libeay32:bn_err.obj
 0002:00009f40       ??_C@_0BH@EFEHBMGJ@BN_GF2m_mod_solve_quad?$AA@ 00071f40     libeay32:bn_err.obj
 0002:00009f58       ??_C@_0BA@EHNBDAPH@BN_GF2m_mod_mul?$AA@ 00071f58     libeay32:bn_err.obj
 0002:00009f68       ??_C@_0BA@GMMKNGBG@BN_GF2m_mod_exp?$AA@ 00071f68     libeay32:bn_err.obj
 0002:00009f78       ??_C@_0M@HLNBKHPC@BN_GF2m_mod?$AA@ 00071f78     libeay32:bn_err.obj
 0002:00009f84       ??_C@_0BD@EECAEFPD@BN_EXPAND_INTERNAL?$AA@ 00071f84     libeay32:bn_err.obj
 0002:00009f98       ??_C@_0L@GPKOAPJM@bn_expand2?$AA@ 00071f98     libeay32:bn_err.obj
 0002:00009fa4       ??_C@_06EHDDDAPI@BN_exp?$AA@ 00071fa4     libeay32:bn_err.obj
 0002:00009fac       ??_C@_0M@MCFMHDMJ@BN_div_recp?$AA@ 00071fac     libeay32:bn_err.obj
 0002:00009fb8       ??_C@_0BB@FFIOCBDM@BN_div_no_branch?$AA@ 00071fb8     libeay32:bn_err.obj
 0002:00009fcc       ??_C@_06LEDBDJFM@BN_div?$AA@ 00071fcc     libeay32:bn_err.obj
 0002:00009fd4       ??_C@_0N@IHLKEKP@BN_CTX_start?$AA@ 00071fd4     libeay32:bn_err.obj
 0002:00009fe4       ??_C@_0L@OIEJOLGJ@BN_CTX_new?$AA@ 00071fe4     libeay32:bn_err.obj
 0002:00009ff0       ??_C@_0L@LOGMPHCA@BN_CTX_get?$AA@ 00071ff0     libeay32:bn_err.obj
 0002:00009ffc       ??_C@_09LODCIEDC@BN_bn2hex?$AA@ 00071ffc     libeay32:bn_err.obj
 0002:0000a008       ??_C@_09FNNCPABA@BN_bn2dec?$AA@ 00072008     libeay32:bn_err.obj
 0002:0000a014       ??_C@_0BD@IEOEBKMM@BN_BLINDING_update?$AA@ 00072014     libeay32:bn_err.obj
 0002:0000a028       ??_C@_0BA@NFFODEFF@BN_BLINDING_new?$AA@ 00072028     libeay32:bn_err.obj
 0002:0000a038       ??_C@_0BG@KNPDOBDE@BN_BLINDING_invert_ex?$AA@ 00072038     libeay32:bn_err.obj
 0002:0000a050       ??_C@_0BJ@OIJBBKAP@BN_BLINDING_create_param?$AA@ 00072050     libeay32:bn_err.obj
 0002:0000a06c       ??_C@_0BH@GHOHGGBP@BN_BLINDING_convert_ex?$AA@ 0007206c     libeay32:bn_err.obj
 0002:0000a084       ??_C@_06LDPKGPF@BNRAND?$AA@ 00072084     libeay32:bn_err.obj
 0002:0000a090       ??_C@_0FC@LCBCBJII@d?3?2wm653wehh?2platform?2mvv210?2src@ 00072090     libeay32:eng_table.obj
 0002:0000a0e8       ??_C@_0EP@HIMPJABG@d?3?2wm653wehh?2platform?2mvv210?2src@ 000720e8     libeay32:pmeth_lib.obj
 0002:0000a138       ??_C@_06IJPNAHC@digest?$AA@ 00072138     libeay32:pmeth_lib.obj
 0002:000138d8       ??_C@_09FHIEKOPH@rsaesOaep?$AA@ 0007b8d8     libeay32:obj_dat.obj
 0002:000138e4       ??_C@_0L@NCPDMLAN@RSAES?9OAEP?$AA@ 0007b8e4     libeay32:obj_dat.obj
 0002:000138f0       ??_C@_0BG@MBIALEGA@aes?9256?9cbc?9hmac?9sha1?$AA@ 0007b8f0     libeay32:obj_dat.obj
 0002:00013908       ??_C@_0BG@NJKHMG@AES?9256?9CBC?9HMAC?9SHA1?$AA@ 0007b908     libeay32:obj_dat.obj
 0002:00013920       ??_C@_0BG@GKCPENNE@aes?9192?9cbc?9hmac?9sha1?$AA@ 0007b920     libeay32:obj_dat.obj
 0002:00013938       ??_C@_0BG@KLHGFOHC@AES?9192?9CBC?9HMAC?9SHA1?$AA@ 0007b938     libeay32:obj_dat.obj
 0002:00013950       ??_C@_0BG@CLBGODOC@aes?9128?9cbc?9hmac?9sha1?$AA@ 0007b950     libeay32:obj_dat.obj
 0002:00013968       ??_C@_0BG@OKEPPAEE@AES?9128?9CBC?9HMAC?9SHA1?$AA@ 0007b968     libeay32:obj_dat.obj
 0002:00013980       ??_C@_0N@EFPJLHOG@rc4?9hmac?9md5?$AA@ 0007b980     libeay32:obj_dat.obj
 0002:00013990       ??_C@_0N@MFFPBCGK@RC4?9HMAC?9MD5?$AA@ 0007b990     libeay32:obj_dat.obj
 0002:000139a0       ??_C@_0M@FHDOMLNI@aes?9256?9xts?$AA@ 0007b9a0     libeay32:obj_dat.obj
 0002:000139ac       ??_C@_0M@ILDFFBFL@AES?9256?9XTS?$AA@ 0007b9ac     libeay32:obj_dat.obj
 0002:000139b8       ??_C@_0M@CGBMJDMF@aes?9128?9xts?$AA@ 0007b9b8     libeay32:obj_dat.obj
 0002:000139c4       ??_C@_0M@PKBHAJEG@AES?9128?9XTS?$AA@ 0007b9c4     libeay32:obj_dat.obj
 0002:000139d0       ??_C@_09FGGKIFKD@rsassaPss?$AA@ 0007b9d0     libeay32:obj_dat.obj
 0002:000139dc       ??_C@_0L@CPMAKEFG@RSASSA?9PSS?$AA@ 0007b9dc     libeay32:obj_dat.obj
 0002:000139e8       ??_C@_04HEIJMEIE@mgf1?$AA@ 0007b9e8     libeay32:obj_dat.obj
 0002:000139f0       ??_C@_04CNDHACFO@MGF1?$AA@ 0007b9f0     libeay32:obj_dat.obj
 0002:000139f8       ??_C@_0BH@FHBOBBKO@Any?5Extended?5Key?5Usage?$AA@ 0007b9f8     libeay32:obj_dat.obj
 0002:00013a10       ??_C@_0BE@FKFLDMON@anyExtendedKeyUsage?$AA@ 0007ba10     libeay32:obj_dat.obj
 0002:00013a24       ??_C@_0BE@PHKLGFJC@id?9camellia256?9wrap?$AA@ 0007ba24     libeay32:obj_dat.obj
 0002:00013a38       ??_C@_0BE@GNMGGIAL@id?9camellia192?9wrap?$AA@ 0007ba38     libeay32:obj_dat.obj
 0002:00013a4c       ??_C@_0BE@JENMCLBD@id?9camellia128?9wrap?$AA@ 0007ba4c     libeay32:obj_dat.obj
 0002:00013a60       ??_C@_0M@MJDNCKAH@aes?9256?9ctr?$AA@ 0007ba60     libeay32:obj_dat.obj
 0002:00013a6c       ??_C@_0M@BFDGLAIE@AES?9256?9CTR?$AA@ 0007ba6c     libeay32:obj_dat.obj
 0002:00013a78       ??_C@_0M@BLIDAFIG@aes?9192?9ctr?$AA@ 0007ba78     libeay32:obj_dat.obj
 0002:00013a84       ??_C@_0M@MHIIJPAF@AES?9192?9CTR?$AA@ 0007ba84     libeay32:obj_dat.obj
 0002:00013a90       ??_C@_0M@LIBPHCBK@aes?9128?9ctr?$AA@ 0007ba90     libeay32:obj_dat.obj
 0002:00013a9c       ??_C@_0M@GEBEOIJJ@AES?9128?9CTR?$AA@ 0007ba9c     libeay32:obj_dat.obj
 0002:00013aa8       ??_C@_0BD@OHLFOIJM@id?9aes256?9wrap?9pad?$AA@ 0007baa8     libeay32:obj_dat.obj
 0002:00013abc       ??_C@_0M@BNAOJBGM@aes?9256?9ccm?$AA@ 0007babc     libeay32:obj_dat.obj
 0002:00013ac8       ??_C@_0O@EDMKMBKB@id?9aes256?9CCM?$AA@ 0007bac8     libeay32:obj_dat.obj
 0002:00013ad8       ??_C@_0M@JCGMAGDL@aes?9256?9gcm?$AA@ 0007bad8     libeay32:obj_dat.obj
 0002:00013ae4       ??_C@_0O@MMKIFGPG@id?9aes256?9GCM?$AA@ 0007bae4     libeay32:obj_dat.obj
 0002:00013af4       ??_C@_0BD@OPKMLKFB@id?9aes192?9wrap?9pad?$AA@ 0007baf4     libeay32:obj_dat.obj
 0002:00013b08       ??_C@_0M@MPLALOON@aes?9192?9ccm?$AA@ 0007bb08     libeay32:obj_dat.obj
 0002:00013b14       ??_C@_0O@JBHEOOCA@id?9aes192?9CCM?$AA@ 0007bb14     libeay32:obj_dat.obj
 0002:00013b24       ??_C@_0M@EANCCJLK@aes?9192?9gcm?$AA@ 0007bb24     libeay32:obj_dat.obj
 0002:00013b30       ??_C@_0O@BOBGHJHH@id?9aes192?9GCM?$AA@ 0007bb30     libeay32:obj_dat.obj
 0002:00013b40       ??_C@_0BD@HMJBEGNL@id?9aes128?9wrap?9pad?$AA@ 0007bb40     libeay32:obj_dat.obj
 0002:00013b54       ??_C@_0M@GMCMMJHB@aes?9128?9ccm?$AA@ 0007bb54     libeay32:obj_dat.obj
 0002:00013b60       ??_C@_0O@DCOIJJLM@id?9aes128?9CCM?$AA@ 0007bb60     libeay32:obj_dat.obj
 0002:00013b70       ??_C@_0M@ODEOFOCG@aes?9128?9gcm?$AA@ 0007bb70     libeay32:obj_dat.obj
 0002:00013b7c       ??_C@_0O@LNIKAOOL@id?9aes128?9GCM?$AA@ 0007bb7c     libeay32:obj_dat.obj
 0002:00013b8c       ??_C@_04CJMGLDNC@cmac?$AA@ 0007bb8c     libeay32:obj_dat.obj
 0002:00013b94       ??_C@_04OFPMFBKK@CMAC?$AA@ 0007bb94     libeay32:obj_dat.obj
 0002:00013b9c       ??_C@_0BA@NJOHMDIG@id?9alg?9PWRI?9KEK?$AA@ 0007bb9c     libeay32:obj_dat.obj
 0002:00013bac       ??_C@_07ILKEFPGB@dmdName?$AA@ 0007bbac     libeay32:obj_dat.obj
 0002:00013bb4       ??_C@_0BE@MNOFELKF@deltaRevocationList?$AA@ 0007bbb4     libeay32:obj_dat.obj
 0002:00013bc8       ??_C@_0BE@KGOGIPEN@supportedAlgorithms?$AA@ 0007bbc8     libeay32:obj_dat.obj
 0002:00013bdc       ??_C@_0BA@EKKIBBF@houseIdentifier?$AA@ 0007bbdc     libeay32:obj_dat.obj
 0002:00013bec       ??_C@_0N@FIGDLDDJ@uniqueMember?$AA@ 0007bbec     libeay32:obj_dat.obj
 0002:00013bfc       ??_C@_0BC@IIJOGNNH@distinguishedName?$AA@ 0007bbfc     libeay32:obj_dat.obj
 0002:00013c10       ??_C@_0BE@FKAMNJMM@protocolInformation?$AA@ 0007bc10     libeay32:obj_dat.obj
 0002:00013c24       ??_C@_0BE@NNAGLFEM@enhancedSearchGuide?$AA@ 0007bc24     libeay32:obj_dat.obj
 0002:00013c38       ??_C@_0BF@GAAPBDAE@crossCertificatePair?$AA@ 0007bc38     libeay32:obj_dat.obj
 0002:00013c50       ??_C@_0BK@IMFDMOND@certificateRevocationList?$AA@ 0007bc50     libeay32:obj_dat.obj
 0002:00013c6c       ??_C@_0BI@EODAEBFG@authorityRevocationList?$AA@ 0007bc6c     libeay32:obj_dat.obj
 0002:00013c84       ??_C@_0O@JJCNKCKK@cACertificate?$AA@ 0007bc84     libeay32:obj_dat.obj
 0002:00013c94       ??_C@_0BA@FEECIELF@userCertificate?$AA@ 0007bc94     libeay32:obj_dat.obj
 0002:00013ca4       ??_C@_0N@JHMNNHKM@userPassword?$AA@ 0007bca4     libeay32:obj_dat.obj
 0002:00013cb4       ??_C@_07JJAENDGN@seeAlso?$AA@ 0007bcb4     libeay32:obj_dat.obj
 0002:00013cbc       ??_C@_0N@NAEJMDPF@roleOccupant?$AA@ 0007bcbc     libeay32:obj_dat.obj
 0002:00013ccc       ??_C@_05HEIBENID@owner?$AA@ 0007bccc     libeay32:obj_dat.obj
 0002:00013cd4       ??_C@_06HDFDANIG@member?$AA@ 0007bcd4     libeay32:obj_dat.obj
 0002:00013cdc       ??_C@_0BM@NHJFOGBI@supportedApplicationContext?$AA@ 0007bcdc     libeay32:obj_dat.obj
 0002:00013cf8       ??_C@_0BE@KHACCONJ@presentationAddress?$AA@ 0007bcf8     libeay32:obj_dat.obj
 0002:00013d0c       ??_C@_0BI@MKMMOKIA@preferredDeliveryMethod?$AA@ 0007bd0c     libeay32:obj_dat.obj
 0002:00013d24       ??_C@_0BF@CMAFNEOO@destinationIndicator?$AA@ 0007bd24     libeay32:obj_dat.obj
 0002:00013d3c       ??_C@_0BC@DLLOJDNE@registeredAddress?$AA@ 0007bd3c     libeay32:obj_dat.obj
 0002:00013d50       ??_C@_0BI@OAHCBLEE@internationaliSDNNumber?$AA@ 0007bd50     libeay32:obj_dat.obj
 0002:00013d68       ??_C@_0M@MOCAHDLJ@x121Address?$AA@ 0007bd68     libeay32:obj_dat.obj
 0002:00013d74       ??_C@_0BJ@NDMMBDAB@facsimileTelephoneNumber?$AA@ 0007bd74     libeay32:obj_dat.obj
 0002:00013d90       ??_C@_0BK@BBNEJJDC@teletexTerminalIdentifier?$AA@ 0007bd90     libeay32:obj_dat.obj
 0002:00013dac       ??_C@_0M@MMDMBPMM@telexNumber?$AA@ 0007bdac     libeay32:obj_dat.obj
 0002:00013db8       ??_C@_0BA@NCAGJGBF@telephoneNumber?$AA@ 0007bdb8     libeay32:obj_dat.obj
 0002:00013dc8       ??_C@_0BL@DENBGONK@physicalDeliveryOfficeName?$AA@ 0007bdc8     libeay32:obj_dat.obj
 0002:00013de4       ??_C@_0O@PCCHCGPG@postOfficeBox?$AA@ 0007bde4     libeay32:obj_dat.obj
 0002:00013df4       ??_C@_0O@KABBPKPG@postalAddress?$AA@ 0007bdf4     libeay32:obj_dat.obj
 0002:00013e04       ??_C@_0BB@GFJJGHBI@businessCategory?$AA@ 0007be04     libeay32:obj_dat.obj
 0002:00013e18       ??_C@_0M@MCCFGANF@searchGuide?$AA@ 0007be18     libeay32:obj_dat.obj
 0002:00013e24       ??_C@_0BF@DGGAJJCO@Permanent?5Identifier?$AA@ 0007be24     libeay32:obj_dat.obj
 0002:00013e3c       ??_C@_0BK@BMFCOPIC@id?9on?9permanentIdentifier?$AA@ 0007be3c     libeay32:obj_dat.obj
 0002:00013e58       ??_C@_0BE@KEJIKEFG@X509v3?5Freshest?5CRL?$AA@ 0007be58     libeay32:obj_dat.obj
 0002:00013e6c       ??_C@_0M@PKNKMHEG@freshestCRL?$AA@ 0007be6c     libeay32:obj_dat.obj
 0002:00013e78       ??_C@_0BI@FMFOLFMC@Microsoft?5Local?5Key?5set?$AA@ 0007be78     libeay32:obj_dat.obj
 0002:00013e90       ??_C@_0M@LCODBGNO@LocalKeySet?$AA@ 0007be90     libeay32:obj_dat.obj
 0002:00013e9c       ??_C@_04FOBGICMD@hmac?$AA@ 0007be9c     libeay32:obj_dat.obj
 0002:00013ea4       ??_C@_04JCCMGALL@HMAC?$AA@ 0007bea4     libeay32:obj_dat.obj
 0002:00013eac       ??_C@_0CJ@NCCJHEBD@GOST?5R?53410?92001?5Parameter?5Set?5C@ 0007beac     libeay32:obj_dat.obj
 0002:00013ed8       ??_C@_0BO@LBPHKLOM@id?9GostR3410?92001?9ParamSet?9cc?$AA@ 0007bed8     libeay32:obj_dat.obj
 0002:00013ef8       ??_C@_0DB@BGOOPLFE@GOST?5R?534?411?994?5with?5GOST?5R?534?41@ 0007bef8     libeay32:obj_dat.obj
 0002:00013f2c       ??_C@_0CH@JJNMILDM@id?9GostR3411?994?9with?9GostR3410?92@ 0007bf2c     libeay32:obj_dat.obj
 0002:00013f54       ??_C@_0CP@ILDIBBAJ@GOST?5R?534?411?994?5with?5GOST?5R?534?41@ 0007bf54     libeay32:obj_dat.obj
 0002:00013f84       ??_C@_0CF@FCIKJGLH@id?9GostR3411?994?9with?9GostR3410?99@ 0007bf84     libeay32:obj_dat.obj
 0002:00013fac       ??_C@_0BK@IGCJADLM@GOST?534?410?92001?5Cryptocom?$AA@ 0007bfac     libeay32:obj_dat.obj
 0002:00013fc8       ??_C@_0L@PKDOCLKG@gost2001cc?$AA@ 0007bfc8     libeay32:obj_dat.obj
 0002:00013fd4       ??_C@_0BI@GJIILMEB@GOST?534?410?994?5Cryptocom?$AA@ 0007bfd4     libeay32:obj_dat.obj
 0002:00013fec       ??_C@_08LCDFMIFG@gost94cc?$AA@ 0007bfec     libeay32:obj_dat.obj
 0002:00013ff8       ??_C@_0CB@KNOPDNHN@GOST?528147?989?5Cryptocom?5ParamSet@ 0007bff8     libeay32:obj_dat.obj
 0002:0001401c       ??_C@_0BD@MEAAKKFJ@id?9Gost28147?989?9cc?$AA@ 0007c01c     libeay32:obj_dat.obj
 0002:00014030       ??_C@_0BF@PGMBMCGF@id?9GostR3410?994?9bBis?$AA@ 0007c030     libeay32:obj_dat.obj
 0002:00014048       ??_C@_0BC@MKOAJFN@id?9GostR3410?994?9b?$AA@ 0007c048     libeay32:obj_dat.obj
 0002:0001405c       ??_C@_0BF@LBGBLILF@id?9GostR3410?994?9aBis?$AA@ 0007c05c     libeay32:obj_dat.obj
 0002:00014074       ??_C@_0BC@CHIDFKJO@id?9GostR3410?994?9a?$AA@ 0007c074     libeay32:obj_dat.obj
 0002:00014088       ??_C@_0CK@GDLEHLKF@id?9GostR3410?92001?9CryptoPro?9XchB@ 0007c088     libeay32:obj_dat.obj
 0002:000140b4       ??_C@_0CK@PKFGBNKE@id?9GostR3410?92001?9CryptoPro?9XchA@ 0007c0b4     libeay32:obj_dat.obj
 0002:000140e0       ??_C@_0CH@DLGDIIGO@id?9GostR3410?92001?9CryptoPro?9C?9Pa@ 0007c0e0     libeay32:obj_dat.obj
 0002:00014108       ??_C@_0CH@PKONFHKO@id?9GostR3410?92001?9CryptoPro?9B?9Pa@ 0007c108     libeay32:obj_dat.obj
 0002:00014130       ??_C@_0CH@GDAPDBKP@id?9GostR3410?92001?9CryptoPro?9A?9Pa@ 0007c130     libeay32:obj_dat.obj
 0002:00014158       ??_C@_0BP@GEEJLPDI@id?9GostR3410?92001?9TestParamSet?$AA@ 0007c158     libeay32:obj_dat.obj
 0002:00014178       ??_C@_0CI@DAANNIN@id?9GostR3410?994?9CryptoPro?9XchC?9P@ 0007c178     libeay32:obj_dat.obj
 0002:000141a0       ??_C@_0CI@MCIOACEN@id?9GostR3410?994?9CryptoPro?9XchB?9P@ 0007c1a0     libeay32:obj_dat.obj
 0002:000141c8       ??_C@_0CI@FLGMGEEM@id?9GostR3410?994?9CryptoPro?9XchA?9P@ 0007c1c8     libeay32:obj_dat.obj
 0002:000141f0       ??_C@_0CF@LMAJFDGB@id?9GostR3410?994?9CryptoPro?9D?9Para@ 0007c1f0     libeay32:obj_dat.obj
 0002:00014218       ??_C@_0CF@JFDCEGOC@id?9GostR3410?994?9CryptoPro?9C?9Para@ 0007c218     libeay32:obj_dat.obj
 0002:00014240       ??_C@_0CF@FELMJJCC@id?9GostR3410?994?9CryptoPro?9B?9Para@ 0007c240     libeay32:obj_dat.obj
 0002:00014268       ??_C@_0CF@MNFOPPCD@id?9GostR3410?994?9CryptoPro?9A?9Para@ 0007c268     libeay32:obj_dat.obj
 0002:00014290       ??_C@_0BN@NAOAJFAF@id?9GostR3410?994?9TestParamSet?$AA@ 0007c290     libeay32:obj_dat.obj
 0002:000142b0       ??_C@_0CJ@IIADIAJH@id?9Gost28147?989?9CryptoPro?9RIC?91?9@ 0007c2b0     libeay32:obj_dat.obj
 0002:000142dc       ??_C@_0CN@IIJDEMNM@id?9Gost28147?989?9CryptoPro?9Oscar?9@ 0007c2dc     libeay32:obj_dat.obj
 0002:0001430c       ??_C@_0CN@EJBNJDBM@id?9Gost28147?989?9CryptoPro?9Oscar?9@ 0007c30c     libeay32:obj_dat.obj
 0002:0001433c       ??_C@_0CF@IEBLBMOP@id?9Gost28147?989?9CryptoPro?9D?9Para@ 0007c33c     libeay32:obj_dat.obj
 0002:00014364       ??_C@_0CF@KNCAAJGM@id?9Gost28147?989?9CryptoPro?9C?9Para@ 0007c364     libeay32:obj_dat.obj
 0002:0001438c       ??_C@_0CF@GMKONGKM@id?9Gost28147?989?9CryptoPro?9B?9Para@ 0007c38c     libeay32:obj_dat.obj
 0002:000143b4       ??_C@_0CF@PFEMLAKN@id?9Gost28147?989?9CryptoPro?9A?9Para@ 0007c3b4     libeay32:obj_dat.obj
 0002:000143dc       ??_C@_0BN@GKJFBLMI@id?9Gost28147?989?9TestParamSet?$AA@ 0007c3dc     libeay32:obj_dat.obj
 0002:000143fc       ??_C@_0CC@DOHJLMBI@id?9GostR3411?994?9CryptoProParamSe@ 0007c3fc     libeay32:obj_dat.obj
 0002:00014420       ??_C@_0BN@DPLCCDOE@id?9GostR3411?994?9TestParamSet?$AA@ 0007c420     libeay32:obj_dat.obj
 0002:00014440       ??_C@_0CA@BLJAEGEG@id?9Gost28147?989?9None?9KeyMeshing?$AA@ 0007c440     libeay32:obj_dat.obj
 0002:00014460       ??_C@_0CF@MMKONEIK@id?9Gost28147?989?9CryptoPro?9KeyMes@ 0007c460     libeay32:obj_dat.obj
 0002:00014488       ??_C@_0BD@LGKAOLPL@GOST?5R?534?410?994?5DH?$AA@ 0007c488     libeay32:obj_dat.obj
 0002:0001449c       ??_C@_0BC@CEMDDFNK@id?9GostR3410?994DH?$AA@ 0007c49c     libeay32:obj_dat.obj
 0002:000144b0       ??_C@_0BF@OKPANPLK@GOST?5R?534?410?92001?5DH?$AA@ 0007c4b0     libeay32:obj_dat.obj
 0002:000144c8       ??_C@_0BE@OBKEJCJB@id?9GostR3410?92001DH?$AA@ 0007c4c8     libeay32:obj_dat.obj
 0002:000144dc       ??_C@_0BE@FFELJBNB@GOST?5R?534?411?994?5PRF?$AA@ 0007c4dc     libeay32:obj_dat.obj
 0002:000144f0       ??_C@_0BB@LJIINAAP@prf?9gostr3411?994?$AA@ 0007c4f0     libeay32:obj_dat.obj
 0002:00014504       ??_C@_0BC@BPAGAEJB@GOST?528147?989?5MAC?$AA@ 0007c504     libeay32:obj_dat.obj
 0002:00014518       ??_C@_08JCNEGNFC@gost?9mac?$AA@ 0007c518     libeay32:obj_dat.obj
 0002:00014524       ??_C@_0L@INGOKGPP@gost89?9cnt?$AA@ 0007c524     libeay32:obj_dat.obj
 0002:00014530       ??_C@_0O@POKHNLDL@GOST?528147?989?$AA@ 0007c530     libeay32:obj_dat.obj
 0002:00014540       ??_C@_06KLPDHLCD@gost89?$AA@ 0007c540     libeay32:obj_dat.obj
 0002:00014548       ??_C@_0BA@JOCBNIHN@GOST?5R?534?410?994?$AA@ 0007c548     libeay32:obj_dat.obj
 0002:00014558       ??_C@_06BPJPGPFJ@gost94?$AA@ 0007c558     libeay32:obj_dat.obj
 0002:00014560       ??_C@_0BC@IBNIHBI@GOST?5R?534?410?92001?$AA@ 0007c560     libeay32:obj_dat.obj
 0002:00014574       ??_C@_08KMPAMBCP@gost2001?$AA@ 0007c574     libeay32:obj_dat.obj
 0002:00014580       ??_C@_0BD@BHKLGKNG@HMAC?5GOST?534?411?994?$AA@ 0007c580     libeay32:obj_dat.obj
 0002:00014594       ??_C@_0BE@EBBOKDGI@id?9HMACGostR3411?994?$AA@ 0007c594     libeay32:obj_dat.obj
 0002:000145a8       ??_C@_0BA@KDEBPBMN@GOST?5R?534?411?994?$AA@ 0007c5a8     libeay32:obj_dat.obj
 0002:000145b8       ??_C@_09MIOJGGFD@md_gost94?$AA@ 0007c5b8     libeay32:obj_dat.obj
 0002:000145c4       ??_C@_0CF@PAGBHGOC@GOST?5R?534?411?994?5with?5GOST?5R?534?41@ 0007c5c4     libeay32:obj_dat.obj
 0002:000145ec       ??_C@_0CC@LCAPGDKC@id?9GostR3411?994?9with?9GostR3410?99@ 0007c5ec     libeay32:obj_dat.obj
 0002:00014610       ??_C@_0CH@MPKKPBGC@GOST?5R?534?411?994?5with?5GOST?5R?534?41@ 0007c610     libeay32:obj_dat.obj
 0002:00014638       ??_C@_0CE@FCAOBIOC@id?9GostR3411?994?9with?9GostR3410?92@ 0007c638     libeay32:obj_dat.obj
 0002:0001465c       ??_C@_09JGBNPHGI@cryptocom?$AA@ 0007c65c     libeay32:obj_dat.obj
 0002:00014668       ??_C@_09PCHJFNLI@cryptopro?$AA@ 0007c668     libeay32:obj_dat.obj
 0002:00014674       ??_C@_09DEGKDAEL@whirlpool?$AA@ 0007c674     libeay32:obj_dat.obj
 0002:00014680       ??_C@_0BA@FMFCOCGA@dsa_with_SHA256?$AA@ 0007c680     libeay32:obj_dat.obj
 0002:00014690       ??_C@_0BA@GLCLJGGH@dsa_with_SHA224?$AA@ 0007c690     libeay32:obj_dat.obj
 0002:000146a0       ??_C@_0P@FLKKCAHA@hmacWithSHA512?$AA@ 0007c6a0     libeay32:obj_dat.obj
 0002:000146b0       ??_C@_0P@CHEKODKF@hmacWithSHA384?$AA@ 0007c6b0     libeay32:obj_dat.obj
 0002:000146c0       ??_C@_0P@KFBIHFBB@hmacWithSHA256?$AA@ 0007c6c0     libeay32:obj_dat.obj
 0002:000146d0       ??_C@_0P@JCGBABBG@hmacWithSHA224?$AA@ 0007c6d0     libeay32:obj_dat.obj
 0002:000146e0       ??_C@_0M@KOBPMNIO@hmacWithMD5?$AA@ 0007c6e0     libeay32:obj_dat.obj
 0002:000146ec       ??_C@_0BC@DONDMJAG@ecdsa?9with?9SHA512?$AA@ 0007c6ec     libeay32:obj_dat.obj
 0002:00014700       ??_C@_0BC@ECDDAKND@ecdsa?9with?9SHA384?$AA@ 0007c700     libeay32:obj_dat.obj
 0002:00014714       ??_C@_0BC@MAGBJMGH@ecdsa?9with?9SHA256?$AA@ 0007c714     libeay32:obj_dat.obj
 0002:00014728       ??_C@_0BC@PHBIOIGA@ecdsa?9with?9SHA224?$AA@ 0007c728     libeay32:obj_dat.obj
 0002:0001473c       ??_C@_0BF@INFCLNHO@ecdsa?9with?9Specified?$AA@ 0007c73c     libeay32:obj_dat.obj
 0002:00014754       ??_C@_0BH@GCJALNKM@ecdsa?9with?9Recommended?$AA@ 0007c754     libeay32:obj_dat.obj
 0002:0001476c       ??_C@_0P@KDMMBOEP@id?9aes256?9wrap?$AA@ 0007c76c     libeay32:obj_dat.obj
 0002:0001477c       ??_C@_0P@DJKBBDNG@id?9aes192?9wrap?$AA@ 0007c77c     libeay32:obj_dat.obj
 0002:0001478c       ??_C@_0P@MALLFAMO@id?9aes128?9wrap?$AA@ 0007c78c     libeay32:obj_dat.obj
 0002:0001479c       ??_C@_0BI@FNBGJEPL@id?9ct?9asciiTextWithCRLF?$AA@ 0007c79c     libeay32:obj_dat.obj
 0002:000147b4       ??_C@_0BL@HEJKLKLL@id?9smime?9ct?9compressedData?$AA@ 0007c7b4     libeay32:obj_dat.obj
 0002:000147d0       ??_C@_0O@LBCGFGCI@CA?5Repository?$AA@ 0007c7d0     libeay32:obj_dat.obj
 0002:000147e0       ??_C@_0N@CKNFLOGG@caRepository?$AA@ 0007c7e0     libeay32:obj_dat.obj
 0002:000147f0       ??_C@_0BD@MGCOMIO@id?9it?9suppLangTags?$AA@ 0007c7f0     libeay32:obj_dat.obj
 0002:00014804       ??_C@_0BJ@CDGIGDFG@Diffie?9Hellman?5based?5MAC?$AA@ 0007c804     libeay32:obj_dat.obj
 0002:00014820       ??_C@_0O@MEHCKGFD@id?9DHBasedMac?$AA@ 0007c820     libeay32:obj_dat.obj
 0002:00014830       ??_C@_0BD@FANJCJAP@password?5based?5MAC?$AA@ 0007c830     libeay32:obj_dat.obj
 0002:00014844       ??_C@_0BE@HCNFOMHA@id?9PasswordBasedMAC?$AA@ 0007c844     libeay32:obj_dat.obj
 0002:00014858       ??_C@_09KBOMLGBN@hmac?9sha1?$AA@ 0007c858     libeay32:obj_dat.obj
 0002:00014864       ??_C@_09DDFKKHO@HMAC?9SHA1?$AA@ 0007c864     libeay32:obj_dat.obj
 0002:00014870       ??_C@_08LPACCAD@hmac?9md5?$AA@ 0007c870     libeay32:obj_dat.obj
 0002:0001487c       ??_C@_08CABJBHIC@HMAC?9MD5?$AA@ 0007c87c     libeay32:obj_dat.obj
 0002:00014888       ??_C@_08JGLJJHP@seed?9cfb?$AA@ 0007c888     libeay32:obj_dat.obj
 0002:00014894       ??_C@_08LHAGIIFM@SEED?9CFB?$AA@ 0007c894     libeay32:obj_dat.obj
 0002:000148a0       ??_C@_08EDLNCGMH@seed?9ofb?$AA@ 0007c8a0     libeay32:obj_dat.obj
 0002:000148ac       ??_C@_08PNNADHOE@SEED?9OFB?$AA@ 0007c8ac     libeay32:obj_dat.obj
 0002:000148b8       ??_C@_08BHHJAAOC@seed?9cbc?$AA@ 0007c8b8     libeay32:obj_dat.obj
 0002:000148c4       ??_C@_08KJBEBBMB@SEED?9CBC?$AA@ 0007c8c4     libeay32:obj_dat.obj
 0002:000148d0       ??_C@_08CKMLAEEI@seed?9ecb?$AA@ 0007c8d0     libeay32:obj_dat.obj
 0002:000148dc       ??_C@_08JEKGBFGL@SEED?9ECB?$AA@ 0007c8dc     libeay32:obj_dat.obj
 0002:000148e8       ??_C@_04LLEAHKNI@kisa?$AA@ 0007c8e8     libeay32:obj_dat.obj
 0002:000148f0       ??_C@_04HHHKJIKA@KISA?$AA@ 0007c8f0     libeay32:obj_dat.obj
 0002:000148f8       ??_C@_0BK@EMNEMCDI@X509v3?5Certificate?5Issuer?$AA@ 0007c8f8     libeay32:obj_dat.obj
 0002:00014914       ??_C@_0BC@NAJGKAHO@certificateIssuer?$AA@ 0007c914     libeay32:obj_dat.obj
 0002:00014928       ??_C@_0CC@MMIACGNM@X509v3?5Issuing?5Distrubution?5Poin@ 0007c928     libeay32:obj_dat.obj
 0002:0001494c       ??_C@_0BJ@OAOPOBMH@issuingDistributionPoint?$AA@ 0007c94c     libeay32:obj_dat.obj
 0002:00014968       ??_C@_0CE@OGGDDHCK@X509v3?5Subject?5Directory?5Attribu@ 0007c968     libeay32:obj_dat.obj
 0002:0001498c       ??_C@_0BL@GAJEKNCJ@subjectDirectoryAttributes?$AA@ 0007c98c     libeay32:obj_dat.obj
 0002:000149a8       ??_C@_0BB@EGAOKAEM@camellia?9256?9ofb?$AA@ 0007c9a8     libeay32:obj_dat.obj
 0002:000149bc       ??_C@_0BB@FFEGHOPL@CAMELLIA?9256?9OFB?$AA@ 0007c9bc     libeay32:obj_dat.obj
 0002:000149d0       ??_C@_0BB@JELAIPMN@camellia?9192?9ofb?$AA@ 0007c9d0     libeay32:obj_dat.obj
 0002:000149e4       ??_C@_0BB@IHPIFBHK@CAMELLIA?9192?9OFB?$AA@ 0007c9e4     libeay32:obj_dat.obj
 0002:000149f8       ??_C@_0BB@DHCMPIFB@camellia?9128?9ofb?$AA@ 0007c9f8     libeay32:obj_dat.obj
 0002:00014a0c       ??_C@_0BB@CEGECGOG@CAMELLIA?9128?9OFB?$AA@ 0007ca0c     libeay32:obj_dat.obj
 0002:00014a20       ??_C@_0BC@KNEDFCOB@camellia?9256?9cfb8?$AA@ 0007ca20     libeay32:obj_dat.obj
 0002:00014a34       ??_C@_0BC@PIFFDMBA@CAMELLIA?9256?9CFB8?$AA@ 0007ca34     libeay32:obj_dat.obj
 0002:00014a48       ??_C@_0BC@DHCOFPHI@camellia?9192?9cfb8?$AA@ 0007ca48     libeay32:obj_dat.obj
 0002:00014a5c       ??_C@_0BC@GCDIDBIJ@CAMELLIA?9192?9CFB8?$AA@ 0007ca5c     libeay32:obj_dat.obj
 0002:00014a70       ??_C@_0BC@MODEBMGA@camellia?9128?9cfb8?$AA@ 0007ca70     libeay32:obj_dat.obj
 0002:00014a84       ??_C@_0BC@JLCCHCJB@CAMELLIA?9128?9CFB8?$AA@ 0007ca84     libeay32:obj_dat.obj
 0002:00014a98       ??_C@_0BC@HMIBOJKI@camellia?9256?9cfb1?$AA@ 0007ca98     libeay32:obj_dat.obj
 0002:00014aac       ??_C@_0BC@CJJHIHFJ@CAMELLIA?9256?9CFB1?$AA@ 0007caac     libeay32:obj_dat.obj
 0002:00014ac0       ??_C@_0BC@OGOMOEDB@camellia?9192?9cfb1?$AA@ 0007cac0     libeay32:obj_dat.obj
 0002:00014ad4       ??_C@_0BC@LDPKIKMA@CAMELLIA?9192?9CFB1?$AA@ 0007cad4     libeay32:obj_dat.obj
 0002:00014ae8       ??_C@_0BC@BPPGKHCJ@camellia?9128?9cfb1?$AA@ 0007cae8     libeay32:obj_dat.obj
 0002:00014afc       ??_C@_0BC@EKOAMJNI@CAMELLIA?9128?9CFB1?$AA@ 0007cafc     libeay32:obj_dat.obj
 0002:00014b10       ??_C@_0BB@MNIBPPE@camellia?9256?9cfb?$AA@ 0007cb10     libeay32:obj_dat.obj
 0002:00014b24       ??_C@_0BB@BPJAMBED@CAMELLIA?9256?9CFB?$AA@ 0007cb24     libeay32:obj_dat.obj
 0002:00014b38       ??_C@_0BB@NOGGDAHF@camellia?9192?9cfb?$AA@ 0007cb38     libeay32:obj_dat.obj
 0002:00014b4c       ??_C@_0BB@MNCOOOMC@CAMELLIA?9192?9CFB?$AA@ 0007cb4c     libeay32:obj_dat.obj
 0002:00014b60       ??_C@_0BB@HNPKEHOJ@camellia?9128?9cfb?$AA@ 0007cb60     libeay32:obj_dat.obj
 0002:00014b74       ??_C@_0BB@GOLCJJFO@CAMELLIA?9128?9CFB?$AA@ 0007cb74     libeay32:obj_dat.obj
 0002:00014b88       ??_C@_0BB@CPHIICMD@camellia?9256?9ecb?$AA@ 0007cb88     libeay32:obj_dat.obj
 0002:00014b9c       ??_C@_0BB@DMDAFMHE@CAMELLIA?9256?9ECB?$AA@ 0007cb9c     libeay32:obj_dat.obj
 0002:00014bb0       ??_C@_0BB@PNMGKNEC@camellia?9192?9ecb?$AA@ 0007cbb0     libeay32:obj_dat.obj
 0002:00014bc4       ??_C@_0BB@OOIOHDPF@CAMELLIA?9192?9ECB?$AA@ 0007cbc4     libeay32:obj_dat.obj
 0002:00014bd8       ??_C@_0BB@FOFKNKNO@camellia?9128?9ecb?$AA@ 0007cbd8     libeay32:obj_dat.obj
 0002:00014bec       ??_C@_0BB@ENBCAEGJ@CAMELLIA?9128?9ECB?$AA@ 0007cbec     libeay32:obj_dat.obj
 0002:00014c00       ??_C@_0BB@BCMKIGGJ@camellia?9256?9cbc?$AA@ 0007cc00     libeay32:obj_dat.obj
 0002:00014c14       ??_C@_0BB@BICFINO@CAMELLIA?9256?9CBC?$AA@ 0007cc14     libeay32:obj_dat.obj
 0002:00014c28       ??_C@_0BB@MAHEKJOI@camellia?9192?9cbc?$AA@ 0007cc28     libeay32:obj_dat.obj
 0002:00014c3c       ??_C@_0BB@NDDMHHFP@CAMELLIA?9192?9CBC?$AA@ 0007cc3c     libeay32:obj_dat.obj
 0002:00014c50       ??_C@_0BB@GDOINOHE@camellia?9128?9cbc?$AA@ 0007cc50     libeay32:obj_dat.obj
 0002:00014c64       ??_C@_0BB@HAKAAAMD@CAMELLIA?9128?9CBC?$AA@ 0007cc64     libeay32:obj_dat.obj
 0002:00014c78       ??_C@_06DEKODPNG@ipsec4?$AA@ 0007cc78     libeay32:obj_dat.obj
 0002:00014c80       ??_C@_0O@FENFAHJA@Oakley?9EC2N?94?$AA@ 0007cc80     libeay32:obj_dat.obj
 0002:00014c90       ??_C@_06HLOPKJBB@ipsec3?$AA@ 0007cc90     libeay32:obj_dat.obj
 0002:00014c98       ??_C@_0O@BLJEJBFH@Oakley?9EC2N?93?$AA@ 0007cc98     libeay32:obj_dat.obj
 0002:00014ca8       ??_C@_0BK@FPAAFIAO@X509v3?5Inhibit?5Any?5Policy?$AA@ 0007cca8     libeay32:obj_dat.obj
 0002:00014cc4       ??_C@_0BB@CFCCDKGF@inhibitAnyPolicy?$AA@ 0007ccc4     libeay32:obj_dat.obj
 0002:00014cd8       ??_C@_0BH@NJBPACCN@X509v3?5Policy?5Mappings?$AA@ 0007ccd8     libeay32:obj_dat.obj
 0002:00014cf0       ??_C@_0P@MEGGINDP@policyMappings?$AA@ 0007ccf0     libeay32:obj_dat.obj
 0002:00014d00       ??_C@_0BC@CEEMIAHF@X509v3?5Any?5Policy?$AA@ 0007cd00     libeay32:obj_dat.obj
 0002:00014d14       ??_C@_09HBBJOJHB@anyPolicy?$AA@ 0007cd14     libeay32:obj_dat.obj
 0002:00014d20       ??_C@_0BI@MNOLKEAO@wap?9wsg?9idm?9ecid?9wtls12?$AA@ 0007cd20     libeay32:obj_dat.obj
 0002:00014d38       ??_C@_0BI@OGMGPHMN@wap?9wsg?9idm?9ecid?9wtls11?$AA@ 0007cd38     libeay32:obj_dat.obj
 0002:00014d50       ??_C@_0BI@PPNNMGIM@wap?9wsg?9idm?9ecid?9wtls10?$AA@ 0007cd50     libeay32:obj_dat.obj
 0002:00014d68       ??_C@_0BH@DMKMEGHN@wap?9wsg?9idm?9ecid?9wtls9?$AA@ 0007cd68     libeay32:obj_dat.obj
 0002:00014d80       ??_C@_0BH@CFLHHHDM@wap?9wsg?9idm?9ecid?9wtls8?$AA@ 0007cd80     libeay32:obj_dat.obj
 0002:00014d98       ??_C@_0BH@KCCPGLPD@wap?9wsg?9idm?9ecid?9wtls7?$AA@ 0007cd98     libeay32:obj_dat.obj
 0002:00014db0       ??_C@_0BH@LLDEFKLC@wap?9wsg?9idm?9ecid?9wtls6?$AA@ 0007cdb0     libeay32:obj_dat.obj
 0002:00014dc8       ??_C@_0BH@JABJAJHB@wap?9wsg?9idm?9ecid?9wtls5?$AA@ 0007cdc8     libeay32:obj_dat.obj
 0002:00014de0       ??_C@_0BH@IJACDIDA@wap?9wsg?9idm?9ecid?9wtls4?$AA@ 0007cde0     libeay32:obj_dat.obj
 0002:00014df8       ??_C@_0BH@MGEDKOPH@wap?9wsg?9idm?9ecid?9wtls3?$AA@ 0007cdf8     libeay32:obj_dat.obj
 0002:00014e10       ??_C@_0BH@PEHFMMHF@wap?9wsg?9idm?9ecid?9wtls1?$AA@ 0007ce10     libeay32:obj_dat.obj
 0002:00014e28       ??_C@_09MPLFOIFJ@sect571r1?$AA@ 0007ce28     libeay32:obj_dat.obj
 0002:00014e34       ??_C@_09NMECHAKG@sect571k1?$AA@ 0007ce34     libeay32:obj_dat.obj
 0002:00014e40       ??_C@_09HDHNMPAD@sect409r1?$AA@ 0007ce40     libeay32:obj_dat.obj
 0002:00014e4c       ??_C@_09GAIKFHPM@sect409k1?$AA@ 0007ce4c     libeay32:obj_dat.obj
 0002:00014e58       ??_C@_09PKOJIHLL@sect283r1?$AA@ 0007ce58     libeay32:obj_dat.obj
 0002:00014e64       ??_C@_09OJBOBPEE@sect283k1?$AA@ 0007ce64     libeay32:obj_dat.obj
 0002:00014e70       ??_C@_09PBHDMODB@sect239k1?$AA@ 0007ce70     libeay32:obj_dat.obj
 0002:00014e7c       ??_C@_09INDJLGKK@sect233r1?$AA@ 0007ce7c     libeay32:obj_dat.obj
 0002:00014e88       ??_C@_09JOMOCOFF@sect233k1?$AA@ 0007ce88     libeay32:obj_dat.obj
 0002:00014e94       ??_C@_09GKDAIPGG@sect193r2?$AA@ 0007ce94     libeay32:obj_dat.obj
 0002:00014ea0       ??_C@_09EBBNNMKF@sect193r1?$AA@ 0007cea0     libeay32:obj_dat.obj
 0002:00014eac       ??_C@_09OIGABILH@sect163r2?$AA@ 0007ceac     libeay32:obj_dat.obj
 0002:00014eb8       ??_C@_09MDENELHE@sect163r1?$AA@ 0007ceb8     libeay32:obj_dat.obj
 0002:00014ec4       ??_C@_09NALKNDIL@sect163k1?$AA@ 0007cec4     libeay32:obj_dat.obj
 0002:00014ed0       ??_C@_09IKIJFPEM@sect131r2?$AA@ 0007ced0     libeay32:obj_dat.obj
 0002:00014edc       ??_C@_09KBKEAMIP@sect131r1?$AA@ 0007cedc     libeay32:obj_dat.obj
 0002:00014ee8       ??_C@_09FKEAMEKH@sect113r2?$AA@ 0007cee8     libeay32:obj_dat.obj
 0002:00014ef4       ??_C@_09HBGNJHGE@sect113r1?$AA@ 0007cef4     libeay32:obj_dat.obj
 0002:00014f00       ??_C@_09PDBKEDDK@secp521r1?$AA@ 0007cf00     libeay32:obj_dat.obj
 0002:00014f0c       ??_C@_09FICNEILE@secp384r1?$AA@ 0007cf0c     libeay32:obj_dat.obj
 0002:00014f18       ??_C@_09NCBPAPNE@secp256k1?$AA@ 0007cf18     libeay32:obj_dat.obj
 0002:00014f24       ??_C@_09NJMBIDLA@secp224r1?$AA@ 0007cf24     libeay32:obj_dat.obj
 0002:00014f30       ??_C@_09MKDGBLEP@secp224k1?$AA@ 0007cf30     libeay32:obj_dat.obj
 0002:00014f3c       ??_C@_09BOBJAHCM@secp192k1?$AA@ 0007cf3c     libeay32:obj_dat.obj
 0002:00014f48       ??_C@_09OJKJDEK@secp160r2?$AA@ 0007cf48     libeay32:obj_dat.obj
 0002:00014f54       ??_C@_09CFLHMAIJ@secp160r1?$AA@ 0007cf54     libeay32:obj_dat.obj
 0002:00014f60       ??_C@_09DGEAFIHG@secp160k1?$AA@ 0007cf60     libeay32:obj_dat.obj
 0002:00014f6c       ??_C@_09DOKOBNGF@secp128r2?$AA@ 0007cf6c     libeay32:obj_dat.obj
 0002:00014f78       ??_C@_09BFIDEOKG@secp128r1?$AA@ 0007cf78     libeay32:obj_dat.obj
 0002:00014f84       ??_C@_09BGLDIHNB@secp112r2?$AA@ 0007cf84     libeay32:obj_dat.obj
 0002:00014f90       ??_C@_09DNJONEBC@secp112r1?$AA@ 0007cf90     libeay32:obj_dat.obj
 0002:00014f9c       ??_C@_0L@OFJKDCBG@c2tnb431r1?$AA@ 0007cf9c     libeay32:obj_dat.obj
 0002:00014fa8       ??_C@_0L@BGFAFBLD@c2pnb368w1?$AA@ 0007cfa8     libeay32:obj_dat.obj
 0002:00014fb4       ??_C@_0L@LFGCHHDN@c2tnb359v1?$AA@ 0007cfb4     libeay32:obj_dat.obj
 0002:00014fc0       ??_C@_0L@NDMGBLKL@c2pnb304w1?$AA@ 0007cfc0     libeay32:obj_dat.obj
 0002:00014fcc       ??_C@_0L@IPNBELMC@c2pnb272w1?$AA@ 0007cfcc     libeay32:obj_dat.obj
 0002:00014fd8       ??_C@_0L@LLIHEIJA@c2onb239v5?$AA@ 0007cfd8     libeay32:obj_dat.obj
 0002:00014fe4       ??_C@_0L@KCJMHJNB@c2onb239v4?$AA@ 0007cfe4     libeay32:obj_dat.obj
 0002:00014ff0       ??_C@_0L@MDEIDDLK@c2tnb239v3?$AA@ 0007cff0     libeay32:obj_dat.obj
 0002:00014ffc       ??_C@_0L@NKFDACPL@c2tnb239v2?$AA@ 0007cffc     libeay32:obj_dat.obj
 0002:00015008       ??_C@_0L@PBHOFBDI@c2tnb239v1?$AA@ 0007d008     libeay32:obj_dat.obj
 0002:00015014       ??_C@_0L@FCEMHHLG@c2pnb208w1?$AA@ 0007d014     libeay32:obj_dat.obj
 0002:00015020       ??_C@_0L@LCBHAKHA@c2onb191v5?$AA@ 0007d020     libeay32:obj_dat.obj
 0002:0001502c       ??_C@_0L@KLAMDLDB@c2onb191v4?$AA@ 0007d02c     libeay32:obj_dat.obj
 0002:00015038       ??_C@_0L@MKNIHBFK@c2tnb191v3?$AA@ 0007d038     libeay32:obj_dat.obj
 0002:00015044       ??_C@_0L@NDMDEABL@c2tnb191v2?$AA@ 0007d044     libeay32:obj_dat.obj
 0002:00015050       ??_C@_0L@PIOOBDNI@c2tnb191v1?$AA@ 0007d050     libeay32:obj_dat.obj
 0002:0001505c       ??_C@_0L@IHOFMEAM@c2pnb176v1?$AA@ 0007d05c     libeay32:obj_dat.obj
 0002:00015068       ??_C@_0L@LPGNHPAM@c2pnb163v3?$AA@ 0007d068     libeay32:obj_dat.obj
 0002:00015074       ??_C@_0L@KGHGEOEN@c2pnb163v2?$AA@ 0007d074     libeay32:obj_dat.obj
 0002:00015080       ??_C@_0L@INFLBNIO@c2pnb163v1?$AA@ 0007d080     libeay32:obj_dat.obj
 0002:0001508c       ??_C@_07GLJEBFP@ppBasis?$AA@ 0007d08c     libeay32:obj_dat.obj
 0002:00015094       ??_C@_07ICPDEPKF@tpBasis?$AA@ 0007d094     libeay32:obj_dat.obj
 0002:0001509c       ??_C@_07JEMDIFEL@onBasis?$AA@ 0007d09c     libeay32:obj_dat.obj
 0002:000150a4       ??_C@_0BM@PPOCDOAJ@id?9characteristic?9two?9basis?$AA@ 0007d0a4     libeay32:obj_dat.obj
 0002:000150c0       ??_C@_07KJBJKKHG@wap?9wsg?$AA@ 0007d0c0     libeay32:obj_dat.obj
 0002:000150c8       ??_C@_03EOHJGACH@wap?$AA@  0007d0c8     libeay32:obj_dat.obj
 0002:000150cc       ??_C@_0N@GOPBJFID@certicom?9arc?$AA@ 0007d0cc     libeay32:obj_dat.obj
 0002:000150dc       ??_C@_0BI@NDBFOMIA@identified?9organization?$AA@ 0007d0dc     libeay32:obj_dat.obj
 0002:000150f4       ??_C@_06DJABMLNO@sha224?$AA@ 0007d0f4     libeay32:obj_dat.obj
 0002:000150fc       ??_C@_06DANBNIHA@SHA224?$AA@ 0007d0fc     libeay32:obj_dat.obj
 0002:00015104       ??_C@_06PAMKOKLI@sha512?$AA@ 0007d104     libeay32:obj_dat.obj
 0002:0001510c       ??_C@_06PJBKPJBG@SHA512?$AA@ 0007d10c     libeay32:obj_dat.obj
 0002:00015114       ??_C@_06IMCKCJGN@sha384?$AA@ 0007d114     libeay32:obj_dat.obj
 0002:0001511c       ??_C@_06IFPKDKMD@SHA384?$AA@ 0007d11c     libeay32:obj_dat.obj
 0002:00015124       ??_C@_06OHILPNJ@sha256?$AA@ 0007d124     libeay32:obj_dat.obj
 0002:0001512c       ??_C@_06HKIKMHH@SHA256?$AA@ 0007d12c     libeay32:obj_dat.obj
 0002:00015134       ??_C@_0BI@HODNLFBE@sha224WithRSAEncryption?$AA@ 0007d134     libeay32:obj_dat.obj
 0002:0001514c       ??_C@_0L@BPFBIPIP@RSA?9SHA224?$AA@ 0007d14c     libeay32:obj_dat.obj
 0002:00015158       ??_C@_0BI@CFKPHFJF@sha512WithRSAEncryption?$AA@ 0007d158     libeay32:obj_dat.obj
 0002:00015170       ??_C@_0L@NGJKKOOJ@RSA?9SHA512?$AA@ 0007d170     libeay32:obj_dat.obj
 0002:0001517c       ??_C@_0BI@LGPCJGLE@sha384WithRSAEncryption?$AA@ 0007d17c     libeay32:obj_dat.obj
 0002:00015194       ??_C@_0L@KKHKGNDM@RSA?9SHA384?$AA@ 0007d194     libeay32:obj_dat.obj
 0002:000151a0       ??_C@_0BI@OLMNBFHG@sha256WithRSAEncryption?$AA@ 0007d1a0     libeay32:obj_dat.obj
 0002:000151b8       ??_C@_0L@CICIPLII@RSA?9SHA256?$AA@ 0007d1b8     libeay32:obj_dat.obj
 0002:000151c4       ??_C@_0M@MLMKHJLC@Independent?$AA@ 0007d1c4     libeay32:obj_dat.obj
 0002:000151d0       ??_C@_0BD@JMNHHICP@id?9ppl?9independent?$AA@ 0007d1d0     libeay32:obj_dat.obj
 0002:000151e4       ??_C@_0BI@MLJLAGL@X509v3?5Name?5Constraints?$AA@ 0007d1e4     libeay32:obj_dat.obj
 0002:000151fc       ??_C@_0BA@NDBMPGLN@nameConstraints?$AA@ 0007d1fc     libeay32:obj_dat.obj
 0002:0001520c       ??_C@_0M@FFLAPACB@Inherit?5all?$AA@ 0007d20c     libeay32:obj_dat.obj
 0002:00015218       ??_C@_0BC@PCEJIIF@id?9ppl?9inheritAll?$AA@ 0007d218     libeay32:obj_dat.obj
 0002:0001522c       ??_C@_0N@BEBFEGLC@Any?5language?$AA@ 0007d22c     libeay32:obj_dat.obj
 0002:0001523c       ??_C@_0BD@HNCKDFAM@id?9ppl?9anyLanguage?$AA@ 0007d23c     libeay32:obj_dat.obj
 0002:00015250       ??_C@_0BO@CCHFGBDO@Proxy?5Certificate?5Information?$AA@ 0007d250     libeay32:obj_dat.obj
 0002:00015270       ??_C@_0O@LOINHHBF@proxyCertInfo?$AA@ 0007d270     libeay32:obj_dat.obj
 0002:00015280       ??_C@_06CAAPGDCJ@id?9ppl?$AA@ 0007d280     libeay32:obj_dat.obj
 0002:00015288       ??_C@_0L@NCDHJCMF@postalCode?$AA@ 0007d288     libeay32:obj_dat.obj
 0002:00015294       ??_C@_0O@GFJANBCD@streetAddress?$AA@ 0007d294     libeay32:obj_dat.obj
 0002:000152a4       ??_C@_06KFAFKEEH@street?$AA@ 0007d2a4     libeay32:obj_dat.obj
 0002:000152ac       ??_C@_0O@KGNFGAAA@des?9ede3?9cfb8?$AA@ 0007d2ac     libeay32:obj_dat.obj
 0002:000152bc       ??_C@_0O@KNJKKNCK@DES?9EDE3?9CFB8?$AA@ 0007d2bc     libeay32:obj_dat.obj
 0002:000152cc       ??_C@_0O@HHBHNLEJ@des?9ede3?9cfb1?$AA@ 0007d2cc     libeay32:obj_dat.obj
 0002:000152dc       ??_C@_0O@HMFIBGGD@DES?9EDE3?9CFB1?$AA@ 0007d2dc     libeay32:obj_dat.obj
 0002:000152ec       ??_C@_08HKNDEPIP@des?9cfb8?$AA@ 0007d2ec     libeay32:obj_dat.obj
 0002:000152f8       ??_C@_08JHFHFADM@DES?9CFB8?$AA@ 0007d2f8     libeay32:obj_dat.obj
 0002:00015304       ??_C@_08KLBBPEMG@des?9cfb1?$AA@ 0007d304     libeay32:obj_dat.obj
 0002:00015310       ??_C@_08EGJFOLHF@DES?9CFB1?$AA@ 0007d310     libeay32:obj_dat.obj
 0002:0001531c       ??_C@_0N@GPAECIBG@aes?9256?9cfb8?$AA@ 0007d31c     libeay32:obj_dat.obj
 0002:0001532c       ??_C@_0N@BLGJPBBG@AES?9256?9CFB8?$AA@ 0007d32c     libeay32:obj_dat.obj
 0002:0001533c       ??_C@_0N@PFGJCFIP@aes?9192?9cfb8?$AA@ 0007d33c     libeay32:obj_dat.obj
 0002:0001534c       ??_C@_0N@IBAEPMIP@AES?9192?9CFB8?$AA@ 0007d34c     libeay32:obj_dat.obj
 0002:0001535c       ??_C@_0N@MHDGGJH@aes?9128?9cfb8?$AA@ 0007d35c     libeay32:obj_dat.obj
 0002:0001536c       ??_C@_0N@HIBOLPJH@AES?9128?9CFB8?$AA@ 0007d36c     libeay32:obj_dat.obj
 0002:0001537c       ??_C@_0N@LOMGJDFP@aes?9256?9cfb1?$AA@ 0007d37c     libeay32:obj_dat.obj
 0002:0001538c       ??_C@_0N@MKKLEKFP@AES?9256?9CFB1?$AA@ 0007d38c     libeay32:obj_dat.obj
 0002:0001539c       ??_C@_0N@CEKLJOMG@aes?9192?9cfb1?$AA@ 0007d39c     libeay32:obj_dat.obj
 0002:000153ac       ??_C@_0N@FAMGEHMG@AES?9192?9CFB1?$AA@ 0007d3ac     libeay32:obj_dat.obj
 0002:000153bc       ??_C@_0N@NNLBNNNO@aes?9128?9cfb1?$AA@ 0007d3bc     libeay32:obj_dat.obj
 0002:000153cc       ??_C@_0N@KJNMAENO@AES?9128?9CFB1?$AA@ 0007d3cc     libeay32:obj_dat.obj
 0002:000153dc       ??_C@_0CD@POJHJMFG@Microsoft?5Universal?5Principal?5Na@ 0007d3dc     libeay32:obj_dat.obj
 0002:00015400       ??_C@_05LKLAGLGM@msUPN?$AA@ 0007d400     libeay32:obj_dat.obj
 0002:00015408       ??_C@_0BJ@BHLLFCI@Microsoft?5Smartcardlogin?$AA@ 0007d408     libeay32:obj_dat.obj
 0002:00015424       ??_C@_0BB@MJPMDGHF@msSmartcardLogin?$AA@ 0007d424     libeay32:obj_dat.obj
 0002:00015438       ??_C@_0BM@PGMBEIHL@International?5Organizations?$AA@ 0007d438     libeay32:obj_dat.obj
 0002:00015454       ??_C@_0BM@PBBEOBAP@international?9organizations?$AA@ 0007d454     libeay32:obj_dat.obj
 0002:00015470       ??_C@_0BA@DDCJMADA@joint?9iso?9itu?9t?$AA@ 0007d470     libeay32:obj_dat.obj
 0002:00015480       ??_C@_0BA@NPJCPIN@JOINT?9ISO?9ITU?9T?$AA@ 0007d480     libeay32:obj_dat.obj
 0002:00015490       ??_C@_05EKLDHPCO@itu?9t?$AA@ 0007d490     libeay32:obj_dat.obj
 0002:00015498       ??_C@_05LJGINOIA@ITU?9T?$AA@ 0007d498     libeay32:obj_dat.obj
 0002:000154a0       ??_C@_0BF@EIIDBKMM@rsaOAEPEncryptionSET?$AA@ 0007d4a0     libeay32:obj_dat.obj
 0002:000154b8       ??_C@_08PPLOLAOD@des?9cdmf?$AA@ 0007d4b8     libeay32:obj_dat.obj
 0002:000154c4       ??_C@_08IHLOILPC@DES?9CDMF?$AA@ 0007d4c4     libeay32:obj_dat.obj
 0002:000154d0       ??_C@_0BA@JHOGHBHC@set?9brand?9Novus?$AA@ 0007d4d0     libeay32:obj_dat.obj
 0002:000154e0       ??_C@_0BF@EKCBHCKG@set?9brand?9MasterCard?$AA@ 0007d4e0     libeay32:obj_dat.obj
 0002:000154f8       ??_C@_0P@KADKEMKM@set?9brand?9Visa?$AA@ 0007d4f8     libeay32:obj_dat.obj
 0002:00015508       ??_C@_0O@ODFDKJIN@set?9brand?9JCB?$AA@ 0007d508     libeay32:obj_dat.obj
 0002:00015518       ??_C@_0BK@NGHCPIFJ@set?9brand?9AmericanExpress?$AA@ 0007d518     libeay32:obj_dat.obj
 0002:00015534       ??_C@_0BB@MJOMIBOM@set?9brand?9Diners?$AA@ 0007d534     libeay32:obj_dat.obj
 0002:00015548       ??_C@_0BD@EBDAHFCK@set?9brand?9IATA?9ATA?$AA@ 0007d548     libeay32:obj_dat.obj
 0002:0001555c       ??_C@_0BI@BMDLNIII@secure?5device?5signature?$AA@ 0007d55c     libeay32:obj_dat.obj
 0002:00015574       ??_C@_0BC@HILPEDHB@setAttr?9SecDevSig?$AA@ 0007d574     libeay32:obj_dat.obj
 0002:00015588       ??_C@_0BH@FLMFBHA@ICC?5or?5token?5signature?$AA@ 0007d588     libeay32:obj_dat.obj
 0002:000155a0       ??_C@_0BC@KFHJNGAA@setAttr?9TokICCsig?$AA@ 0007d5a0     libeay32:obj_dat.obj
 0002:000155b4       ??_C@_0BC@EEELFHMJ@cleartext?5track?52?$AA@ 0007d5b4     libeay32:obj_dat.obj
 0002:000155c8       ??_C@_0BD@GDDCOMNC@setAttr?9T2cleartxt?$AA@ 0007d5c8     libeay32:obj_dat.obj
 0002:000155dc       ??_C@_0BC@MCHFBPJF@encrypted?5track?52?$AA@ 0007d5dc     libeay32:obj_dat.obj
 0002:000155f0       ??_C@_0O@GFEDKLID@setAttr?9T2Enc?$AA@ 0007d5f0     libeay32:obj_dat.obj
 0002:00015600       ??_C@_0BE@BANBLNDJ@generate?5cryptogram?$AA@ 0007d600     libeay32:obj_dat.obj
 0002:00015614       ??_C@_0BE@FJCINFHM@setAttr?9GenCryptgrm?$AA@ 0007d614     libeay32:obj_dat.obj
 0002:00015628       ??_C@_0BD@DMNGIJGO@setAttr?9IssCap?9Sig?$AA@ 0007d628     libeay32:obj_dat.obj
 0002:0001563c       ??_C@_0BC@FKLLNJMF@setAttr?9IssCap?9T2?$AA@ 0007d63c     libeay32:obj_dat.obj
 0002:00015650       ??_C@_0BD@CMJDLAHE@setAttr?9IssCap?9CVM?$AA@ 0007d650     libeay32:obj_dat.obj
 0002:00015664       ??_C@_0BG@ICNBHDJ@setAttr?9Token?9B0Prime?$AA@ 0007d664     libeay32:obj_dat.obj
 0002:0001567c       ??_C@_0BC@BMANBENP@setAttr?9Token?9EMV?$AA@ 0007d67c     libeay32:obj_dat.obj
 0002:00015690       ??_C@_0O@NOCONBCM@set?9addPolicy?$AA@ 0007d690     libeay32:obj_dat.obj
 0002:000156a0       ??_C@_0BB@MADMNAKK@set?9rootKeyThumb?$AA@ 0007d6a0     libeay32:obj_dat.obj
 0002:000156b4       ??_C@_0BE@HBDPGKCG@issuer?5capabilities?$AA@ 0007d6b4     libeay32:obj_dat.obj
 0002:000156c8       ??_C@_0P@OGFLCCKL@setAttr?9IssCap?$AA@ 0007d6c8     libeay32:obj_dat.obj
 0002:000156d8       ??_C@_0BC@IKOKMCIL@setAttr?9TokenType?$AA@ 0007d6d8     libeay32:obj_dat.obj
 0002:000156ec       ??_C@_0BN@HEFBDPEB@payment?5gateway?5capabilities?$AA@ 0007d6ec     libeay32:obj_dat.obj
 0002:0001570c       ??_C@_0BA@FAIFDKDK@setAttr?9PGWYcap?$AA@ 0007d70c     libeay32:obj_dat.obj
 0002:0001571c       ??_C@_0N@DCNKAAPN@setAttr?9Cert?$AA@ 0007d71c     libeay32:obj_dat.obj
 0002:0001572c       ??_C@_0BL@OLCLGJDA@setCext?9IssuerCapabilities?$AA@ 0007d72c     libeay32:obj_dat.obj
 0002:00015748       ??_C@_0BC@KMFGLCBL@setCext?9TokenType?$AA@ 0007d748     libeay32:obj_dat.obj
 0002:0001575c       ??_C@_0BD@FHFLAKJD@setCext?9Track2Data?$AA@ 0007d75c     libeay32:obj_dat.obj
 0002:00015770       ??_C@_0BI@FIIEHNL@setCext?9TokenIdentifier?$AA@ 0007d770     libeay32:obj_dat.obj
 0002:00015788       ??_C@_0BJ@CNLNHONG@setCext?9PGWYcapabilities?$AA@ 0007d788     libeay32:obj_dat.obj
 0002:000157a4       ??_C@_0BB@HIAOOOIO@setCext?9setQualf?$AA@ 0007d7a4     libeay32:obj_dat.obj
 0002:000157b8       ??_C@_0P@DFHCPLJG@setCext?9setExt?$AA@ 0007d7b8     libeay32:obj_dat.obj
 0002:000157c8       ??_C@_0BC@BPADJLFJ@setCext?9tunneling?$AA@ 0007d7c8     libeay32:obj_dat.obj
 0002:000157dc       ??_C@_0BG@CMNKGOHO@setCext?9cCertRequired?$AA@ 0007d7dc     libeay32:obj_dat.obj
 0002:000157f4       ??_C@_0BC@ONMLOIHK@setCext?9merchData?$AA@ 0007d7f4     libeay32:obj_dat.obj
 0002:00015808       ??_C@_0BB@LHGCHNFD@setCext?9certType?$AA@ 0007d808     libeay32:obj_dat.obj
 0002:0001581c       ??_C@_0BD@MELPLACB@setCext?9hashedRoot?$AA@ 0007d81c     libeay32:obj_dat.obj
 0002:00015830       ??_C@_0BA@DLJGCPKK@set?9policy?9root?$AA@ 0007d830     libeay32:obj_dat.obj
 0002:00015840       ??_C@_0BI@MFPOFNGC@additional?5verification?$AA@ 0007d840     libeay32:obj_dat.obj
 0002:00015858       ??_C@_09GMOEIEJI@setext?9cv?$AA@ 0007d858     libeay32:obj_dat.obj
 0002:00015864       ??_C@_0O@PNAFPHHK@setext?9track2?$AA@ 0007d864     libeay32:obj_dat.obj
 0002:00015874       ??_C@_0O@PNHGIFHA@setext?9pinAny?$AA@ 0007d874     libeay32:obj_dat.obj
 0002:00015884       ??_C@_0BB@IKLFBNP@setext?9pinSecure?$AA@ 0007d884     libeay32:obj_dat.obj
 0002:00015898       ??_C@_0BI@IMGNFPLI@merchant?5initiated?5auth?$AA@ 0007d898     libeay32:obj_dat.obj
 0002:000158b0       ??_C@_0O@IFMPKKOL@setext?9miAuth?$AA@ 0007d8b0     libeay32:obj_dat.obj
 0002:000158c0       ??_C@_0BD@IMJHIOH@generic?5cryptogram?$AA@ 0007d8c0     libeay32:obj_dat.obj
 0002:000158d4       ??_C@_0BA@NKJJMGPC@setext?9genCrypt?$AA@ 0007d8d4     libeay32:obj_dat.obj
 0002:000158e4       ??_C@_0BJ@BPGLEKIJ@setct?9BCIDistributionTBS?$AA@ 0007d8e4     libeay32:obj_dat.obj
 0002:00015900       ??_C@_0BM@GINBKIMJ@setct?9CRLNotificationResTBS?$AA@ 0007d900     libeay32:obj_dat.obj
 0002:0001591c       ??_C@_0BJ@KMIJGANO@setct?9CRLNotificationTBS?$AA@ 0007d91c     libeay32:obj_dat.obj
 0002:00015938       ??_C@_0BB@KEDMFAIN@setct?9CertResTBE?$AA@ 0007d938     libeay32:obj_dat.obj
 0002:0001594c       ??_C@_0BC@KMAHLFJK@setct?9CertReqTBEX?$AA@ 0007d94c     libeay32:obj_dat.obj
 0002:00015960       ??_C@_0BB@NOPMADON@setct?9CertReqTBE?$AA@ 0007d960     libeay32:obj_dat.obj
 0002:00015974       ??_C@_0BE@MIADHNEP@setct?9RegFormReqTBE?$AA@ 0007d974     libeay32:obj_dat.obj
 0002:00015988       ??_C@_0BH@PFFPEIML@setct?9BatchAdminResTBE?$AA@ 0007d988     libeay32:obj_dat.obj
 0002:000159a0       ??_C@_0BH@IPJPBLKL@setct?9BatchAdminReqTBE?$AA@ 0007d9a0     libeay32:obj_dat.obj
 0002:000159b8       ??_C@_0BE@MGLMPAHD@setct?9CredRevResTBE?$AA@ 0007d9b8     libeay32:obj_dat.obj
 0002:000159cc       ??_C@_0BF@PGGAOKCB@setct?9CredRevReqTBEX?$AA@ 0007d9cc     libeay32:obj_dat.obj
 0002:000159e4       ??_C@_0BE@LMHMKDBD@setct?9CredRevReqTBE?$AA@ 0007d9e4     libeay32:obj_dat.obj
 0002:000159f8       ??_C@_0BB@NFFENEIP@setct?9CredResTBE?$AA@ 0007d9f8     libeay32:obj_dat.obj
 0002:00015a0c       ??_C@_0BC@ECHILMDC@setct?9CredReqTBEX?$AA@ 0007da0c     libeay32:obj_dat.obj
 0002:00015a20       ??_C@_0BB@KPJEIHOP@setct?9CredReqTBE?$AA@ 0007da20     libeay32:obj_dat.obj
 0002:00015a34       ??_C@_0BD@GIBDNMDG@setct?9CapRevResTBE?$AA@ 0007da34     libeay32:obj_dat.obj
 0002:00015a48       ??_C@_0BE@PAHIPABC@setct?9CapRevReqTBEX?$AA@ 0007da48     libeay32:obj_dat.obj
 0002:00015a5c       ??_C@_0BD@BCNDIPFG@setct?9CapRevReqTBE?$AA@ 0007da5c     libeay32:obj_dat.obj
 0002:00015a70       ??_C@_0BA@MEFGIEBL@setct?9CapResTBE?$AA@ 0007da70     libeay32:obj_dat.obj
 0002:00015a80       ??_C@_0BB@LFALOJDP@setct?9CapReqTBEX?$AA@ 0007da80     libeay32:obj_dat.obj
 0002:00015a94       ??_C@_0BA@LOJGNHHL@setct?9CapReqTBE?$AA@ 0007da94     libeay32:obj_dat.obj
 0002:00015aa4       ??_C@_0BF@KKFFJIHO@setct?9AuthRevResTBEB?$AA@ 0007daa4     libeay32:obj_dat.obj
 0002:00015abc       ??_C@_0BE@MHAGABNC@setct?9AuthRevResTBE?$AA@ 0007dabc     libeay32:obj_dat.obj
 0002:00015ad0       ??_C@_0BE@LNMGFCLC@setct?9AuthRevReqTBE?$AA@ 0007dad0     libeay32:obj_dat.obj
 0002:00015ae4       ??_C@_0BI@PALCIALL@setct?9AcqCardCodeMsgTBE?$AA@ 0007dae4     libeay32:obj_dat.obj
 0002:00015afc       ??_C@_0BD@OMCOOIME@setct?9CapTokenTBEX?$AA@ 0007dafc     libeay32:obj_dat.obj
 0002:00015b10       ??_C@_0BC@CIKKDLAH@setct?9CapTokenTBE?$AA@ 0007db10     libeay32:obj_dat.obj
 0002:00015b24       ??_C@_0BD@DHGMJDKO@setct?9AuthTokenTBE?$AA@ 0007db24     libeay32:obj_dat.obj
 0002:00015b38       ??_C@_0BC@OEOIIPOH@setct?9AuthResTBEX?$AA@ 0007db38     libeay32:obj_dat.obj
 0002:00015b4c       ??_C@_0BB@IDPADFEK@setct?9AuthResTBE?$AA@ 0007db4c     libeay32:obj_dat.obj
 0002:00015b60       ??_C@_0BB@PJDAGGCK@setct?9AuthReqTBE?$AA@ 0007db60     libeay32:obj_dat.obj
 0002:00015b74       ??_C@_0BE@IBOAPLDD@setct?9PIUnsignedTBE?$AA@ 0007db74     libeay32:obj_dat.obj
 0002:00015b88       ??_C@_0BG@JDDNBPAG@setct?9PIDualSignedTBE?$AA@ 0007db88     libeay32:obj_dat.obj
 0002:00015ba0       ??_C@_0P@DLHKHMDJ@setct?9ErrorTBS?$AA@ 0007dba0     libeay32:obj_dat.obj
 0002:00015bb0       ??_C@_0BE@OIDIJLCF@setct?9CertInqReqTBS?$AA@ 0007dbb0     libeay32:obj_dat.obj
 0002:00015bc4       ??_C@_0BC@BIIFIBNO@setct?9CertResData?$AA@ 0007dbc4     libeay32:obj_dat.obj
 0002:00015bd8       ??_C@_0BB@MCGELGDK@setct?9CertReqTBS?$AA@ 0007dbd8     libeay32:obj_dat.obj
 0002:00015bec       ??_C@_0BC@FFENCANF@setct?9CertReqData?$AA@ 0007dbec     libeay32:obj_dat.obj
 0002:00015c00       ??_C@_0BE@KOFLJLPI@setct?9RegFormResTBS?$AA@ 0007dc00     libeay32:obj_dat.obj
 0002:00015c14       ??_C@_0BG@DIBJJIJB@setct?9MeAqCInitResTBS?$AA@ 0007dc14     libeay32:obj_dat.obj
 0002:00015c2c       ??_C@_0BG@OMHIHPPP@setct?9CardCInitResTBS?$AA@ 0007dc2c     libeay32:obj_dat.obj
 0002:00015c44       ??_C@_0BI@IHGLAGGD@setct?9BatchAdminResData?$AA@ 0007dc44     libeay32:obj_dat.obj
 0002:00015c5c       ??_C@_0BI@MKKDKHGI@setct?9BatchAdminReqData?$AA@ 0007dc5c     libeay32:obj_dat.obj
 0002:00015c74       ??_C@_0BC@CFHCKIIA@setct?9PCertResTBS?$AA@ 0007dc74     libeay32:obj_dat.obj
 0002:00015c88       ??_C@_0BD@DDNGMNFC@setct?9PCertReqData?$AA@ 0007dc88     libeay32:obj_dat.obj
 0002:00015c9c       ??_C@_0BF@ECOCNOGF@setct?9CredRevResData?$AA@ 0007dc9c     libeay32:obj_dat.obj
 0002:00015cb4       ??_C@_0BF@OOMLDFOD@setct?9CredRevReqTBSX?$AA@ 0007dcb4     libeay32:obj_dat.obj
 0002:00015ccc       ??_C@_0BE@KAOEBGME@setct?9CredRevReqTBS?$AA@ 0007dccc     libeay32:obj_dat.obj
 0002:00015ce0       ??_C@_0BC@PGPKIIHG@setct?9CredResData?$AA@ 0007dce0     libeay32:obj_dat.obj
 0002:00015cf4       ??_C@_0BC@FKNDGDPA@setct?9CredReqTBSX?$AA@ 0007dcf4     libeay32:obj_dat.obj
 0002:00015d08       ??_C@_0BB@LDAMDCDI@setct?9CredReqTBS?$AA@ 0007dd08     libeay32:obj_dat.obj
 0002:00015d1c       ??_C@_0BE@EEPKMEFG@setct?9CapRevResData?$AA@ 0007dd1c     libeay32:obj_dat.obj
 0002:00015d30       ??_C@_0BE@OINDCPNA@setct?9CapRevReqTBSX?$AA@ 0007dd30     libeay32:obj_dat.obj
 0002:00015d44       ??_C@_0BD@OELDKIB@setct?9CapRevReqTBS?$AA@ 0007dd44     libeay32:obj_dat.obj
 0002:00015d58       ??_C@_0BB@BIJNNHL@setct?9CapResData?$AA@ 0007dd58     libeay32:obj_dat.obj
 0002:00015d6c       ??_C@_0BB@KNKADGPN@setct?9CapReqTBSX?$AA@ 0007dd6c     libeay32:obj_dat.obj
 0002:00015d80       ??_C@_0BA@KCAOGCKM@setct?9CapReqTBS?$AA@ 0007dd80     libeay32:obj_dat.obj
 0002:00015d90       ??_C@_0BE@NLJOLEAF@setct?9AuthRevResTBS?$AA@ 0007dd90     libeay32:obj_dat.obj
 0002:00015da4       ??_C@_0BF@ODDCPHOK@setct?9AuthRevResData?$AA@ 0007dda4     libeay32:obj_dat.obj
 0002:00015dbc       ??_C@_0BE@KBFOOHGF@setct?9AuthRevReqTBS?$AA@ 0007ddbc     libeay32:obj_dat.obj
 0002:00015dd0       ??_C@_0BF@LAOAGKEH@setct?9AcqCardCodeMsg?$AA@ 0007ddd0     libeay32:obj_dat.obj
 0002:00015de8       ??_C@_0BC@DEDCIONA@setct?9CapTokenTBS?$AA@ 0007dde8     libeay32:obj_dat.obj
 0002:00015dfc       ??_C@_0BD@BFGEHNIL@setct?9CapTokenData?$AA@ 0007ddfc     libeay32:obj_dat.obj
 0002:00015e10       ??_C@_0BD@CLPECGHJ@setct?9AuthTokenTBS?$AA@ 0007de10     libeay32:obj_dat.obj
 0002:00015e24       ??_C@_0BC@PMEDFACF@setct?9AuthResTBSX?$AA@ 0007de24     libeay32:obj_dat.obj
 0002:00015e38       ??_C@_0BB@JPGIIAJN@setct?9AuthResTBS?$AA@ 0007de38     libeay32:obj_dat.obj
 0002:00015e4c       ??_C@_0BB@OFKINDPN@setct?9AuthReqTBS?$AA@ 0007de4c     libeay32:obj_dat.obj
 0002:00015e60       ??_C@_0P@NGDEPBBH@setct?9PResData?$AA@ 0007de60     libeay32:obj_dat.obj
 0002:00015e70       ??_C@_0N@GIGHFPBJ@setct?9PI?9TBS?$AA@ 0007de70     libeay32:obj_dat.obj
 0002:00015e80       ??_C@_0BD@GIEGHJGD@setct?9PInitResData?$AA@ 0007de80     libeay32:obj_dat.obj
 0002:00015e94       ??_C@_0BC@DDFFKACM@setct?9CapTokenSeq?$AA@ 0007de94     libeay32:obj_dat.obj
 0002:00015ea8       ??_C@_0BI@CNLKCNFM@setct?9AuthRevResBaggage?$AA@ 0007dea8     libeay32:obj_dat.obj
 0002:00015ec0       ??_C@_0BI@DEMAFNK@setct?9AuthRevReqBaggage?$AA@ 0007dec0     libeay32:obj_dat.obj
 0002:00015ed8       ??_C@_0BF@EFHLGKOJ@setct?9AuthResBaggage?$AA@ 0007ded8     libeay32:obj_dat.obj
 0002:00015ef0       ??_C@_0P@LPBKKIBL@setct?9HODInput?$AA@ 0007def0     libeay32:obj_dat.obj
 0002:00015f00       ??_C@_0BF@BDFGFMFJ@setct?9PIDataUnsigned?$AA@ 0007df00     libeay32:obj_dat.obj
 0002:00015f18       ??_C@_0N@PGCGIPOF@setct?9PIData?$AA@ 0007df18     libeay32:obj_dat.obj
 0002:00015f28       ??_C@_08MNJJNIEC@setct?9PI?$AA@ 0007df28     libeay32:obj_dat.obj
 0002:00015f34       ??_C@_0N@GHLAGDMC@setct?9OIData?$AA@ 0007df34     libeay32:obj_dat.obj
 0002:00015f44       ??_C@_0O@PFJCCKAL@setct?9PANOnly?$AA@ 0007df44     libeay32:obj_dat.obj
 0002:00015f54       ??_C@_0P@LAMDLEMO@setct?9PANToken?$AA@ 0007df54     libeay32:obj_dat.obj
 0002:00015f64       ??_C@_0O@EKAPGBNN@setct?9PANData?$AA@ 0007df64     libeay32:obj_dat.obj
 0002:00015f74       ??_C@_09JHODGPNO@set?9brand?$AA@ 0007df74     libeay32:obj_dat.obj
 0002:00015f80       ??_C@_0BH@PDPIEGPA@certificate?5extensions?$AA@ 0007df80     libeay32:obj_dat.obj
 0002:00015f98       ??_C@_0M@KEIBDDC@set?9certExt?$AA@ 0007df98     libeay32:obj_dat.obj
 0002:00015fa4       ??_C@_0L@LAAAKICM@set?9policy?$AA@ 0007dfa4     libeay32:obj_dat.obj
 0002:00015fb0       ??_C@_08OFDIOKIA@set?9attr?$AA@ 0007dfb0     libeay32:obj_dat.obj
 0002:00015fbc       ??_C@_0BD@LEIDLLNO@message?5extensions?$AA@ 0007dfbc     libeay32:obj_dat.obj
 0002:00015fd0       ??_C@_0L@PKPEIEIJ@set?9msgExt?$AA@ 0007dfd0     libeay32:obj_dat.obj
 0002:00015fdc       ??_C@_0O@HJGLMADJ@content?5types?$AA@ 0007dfdc     libeay32:obj_dat.obj
 0002:00015fec       ??_C@_09EJPBIJJA@set?9ctype?$AA@ 0007dfec     libeay32:obj_dat.obj
 0002:00015ff8       ??_C@_0BP@KEIHJPNF@Secure?5Electronic?5Transactions?$AA@ 0007dff8     libeay32:obj_dat.obj
 0002:00016018       ??_C@_06KKEMDFAF@id?9set?$AA@ 0007e018     libeay32:obj_dat.obj
 0002:00016020       ??_C@_09NNMENHIH@pseudonym?$AA@ 0007e020     libeay32:obj_dat.obj
 0002:0001602c       ??_C@_0BE@DAEHFOO@generationQualifier?$AA@ 0007e02c     libeay32:obj_dat.obj
 0002:00016040       ??_C@_0BJ@KCNAIDP@id?9hex?9multipart?9message?$AA@ 0007e040     libeay32:obj_dat.obj
 0002:0001605c       ??_C@_0BH@ILCJEHBB@id?9hex?9partial?9message?$AA@ 0007e05c     libeay32:obj_dat.obj
 0002:00016074       ??_C@_0BA@MOFCNIEE@mime?9mhs?9bodies?$AA@ 0007e074     libeay32:obj_dat.obj
 0002:00016084       ??_C@_0BC@NIFMCBEJ@mime?9mhs?9headings?$AA@ 0007e084     libeay32:obj_dat.obj
 0002:00016098       ??_C@_08DNBACEKK@MIME?5MHS?$AA@ 0007e098     libeay32:obj_dat.obj
 0002:000160a4       ??_C@_08HLONPBDI@mime?9mhs?$AA@ 0007e0a4     libeay32:obj_dat.obj
 0002:000160b0       ??_C@_0BF@EFCCADKK@x500UniqueIdentifier?$AA@ 0007e0b0     libeay32:obj_dat.obj
 0002:000160c8       ??_C@_0BC@KCCHJGGO@documentPublisher?$AA@ 0007e0c8     libeay32:obj_dat.obj
 0002:000160dc       ??_C@_05KNIAAKIP@audio?$AA@ 0007e0dc     libeay32:obj_dat.obj
 0002:000160e4       ??_C@_0M@KIABODOB@dITRedirect?$AA@ 0007e0e4     libeay32:obj_dat.obj
 0002:000160f0       ??_C@_0BC@CBOFINFC@personalSignature?$AA@ 0007e0f0     libeay32:obj_dat.obj
 0002:00016104       ??_C@_0BG@FLFPEGPE@subtreeMaximumQuality?$AA@ 0007e104     libeay32:obj_dat.obj
 0002:0001611c       ??_C@_0BG@HMOECBMF@subtreeMinimumQuality?$AA@ 0007e11c     libeay32:obj_dat.obj
 0002:00016134       ??_C@_0BD@EHDOPADK@singleLevelQuality?$AA@ 0007e134     libeay32:obj_dat.obj
 0002:00016148       ??_C@_0L@LMCCHBHL@dSAQuality?$AA@ 0007e148     libeay32:obj_dat.obj
 0002:00016154       ??_C@_0N@POAALOHC@buildingName?$AA@ 0007e154     libeay32:obj_dat.obj
 0002:00016164       ??_C@_0BF@OFOHKDCI@mailPreferenceOption?$AA@ 0007e164     libeay32:obj_dat.obj
 0002:0001617c       ??_C@_0N@DGNBNBGJ@janetMailbox?$AA@ 0007e17c     libeay32:obj_dat.obj
 0002:0001618c       ??_C@_0BF@IANLBJMF@organizationalStatus?$AA@ 0007e18c     libeay32:obj_dat.obj
 0002:000161a4       ??_C@_0BE@MGDAFGCM@friendlyCountryName?$AA@ 0007e1a4     libeay32:obj_dat.obj
 0002:000161b8       ??_C@_0BF@JICDDEFM@pagerTelephoneNumber?$AA@ 0007e1b8     libeay32:obj_dat.obj
 0002:000161d0       ??_C@_0BG@DCPABLLG@mobileTelephoneNumber?$AA@ 0007e1d0     libeay32:obj_dat.obj
 0002:000161e8       ??_C@_0O@CCHLDBGG@personalTitle?$AA@ 0007e1e8     libeay32:obj_dat.obj
 0002:000161f8       ??_C@_0BC@NPJKACJF@homePostalAddress?$AA@ 0007e1f8     libeay32:obj_dat.obj
 0002:0001620c       ??_C@_0P@OJOOFNGB@associatedName?$AA@ 0007e20c     libeay32:obj_dat.obj
 0002:0001621c       ??_C@_0BB@MEFMIBKO@associatedDomain?$AA@ 0007e21c     libeay32:obj_dat.obj
 0002:00016230       ??_C@_0M@GHEAGPOE@cNAMERecord?$AA@ 0007e230     libeay32:obj_dat.obj
 0002:0001623c       ??_C@_09OCFHDJJF@sOARecord?$AA@ 0007e23c     libeay32:obj_dat.obj
 0002:00016248       ??_C@_08FBLONLGA@nSRecord?$AA@ 0007e248     libeay32:obj_dat.obj
 0002:00016254       ??_C@_08DFFJPLPD@mXRecord?$AA@ 0007e254     libeay32:obj_dat.obj
 0002:00016260       ??_C@_0BF@MIIMJDJB@pilotAttributeType27?$AA@ 0007e260     libeay32:obj_dat.obj
 0002:00016278       ??_C@_07IBNMBOJB@aRecord?$AA@ 0007e278     libeay32:obj_dat.obj
 0002:00016280       ??_C@_0P@ECLEJAJJ@lastModifiedBy?$AA@ 0007e280     libeay32:obj_dat.obj
 0002:00016290       ??_C@_0BB@LHLABCIP@lastModifiedTime?$AA@ 0007e290     libeay32:obj_dat.obj
 0002:000162a4       ??_C@_0N@CEOKELFP@otherMailbox?$AA@ 0007e2a4     libeay32:obj_dat.obj
 0002:000162b4       ??_C@_09EMBFDNKC@secretary?$AA@ 0007e2b4     libeay32:obj_dat.obj
 0002:000162c0       ??_C@_0BE@CPLAKLNE@homeTelephoneNumber?$AA@ 0007e2c0     libeay32:obj_dat.obj
 0002:000162d4       ??_C@_0BB@COFKDFJ@documentLocation?$AA@ 0007e2d4     libeay32:obj_dat.obj
 0002:000162e8       ??_C@_0P@DABDJKFB@documentAuthor?$AA@ 0007e2e8     libeay32:obj_dat.obj
 0002:000162f8       ??_C@_0BA@GHOLKFM@documentVersion?$AA@ 0007e2f8     libeay32:obj_dat.obj
 0002:00016308       ??_C@_0O@BDIDABAC@documentTitle?$AA@ 0007e308     libeay32:obj_dat.obj
 0002:00016318       ??_C@_0BD@MEPJGCEO@documentIdentifier?$AA@ 0007e318     libeay32:obj_dat.obj
 0002:0001632c       ??_C@_07JPLKDPHP@manager?$AA@ 0007e32c     libeay32:obj_dat.obj
 0002:00016334       ??_C@_04OODOLJMA@host?$AA@ 0007e334     libeay32:obj_dat.obj
 0002:0001633c       ??_C@_09CCPGMHEM@userClass?$AA@ 0007e33c     libeay32:obj_dat.obj
 0002:00016348       ??_C@_05DOIFDPKA@photo?$AA@ 0007e348     libeay32:obj_dat.obj
 0002:00016350       ??_C@_0L@DGKNANFO@roomNumber?$AA@ 0007e350     libeay32:obj_dat.obj
 0002:0001635c       ??_C@_0P@PAMFCEKP@favouriteDrink?$AA@ 0007e35c     libeay32:obj_dat.obj
 0002:0001636c       ??_C@_04NIDJFNBE@info?$AA@ 0007e36c     libeay32:obj_dat.obj
 0002:00016374       ??_C@_0O@PDNFEOHL@rfc822Mailbox?$AA@ 0007e374     libeay32:obj_dat.obj
 0002:00016384       ??_C@_04FFKLPPHM@mail?$AA@ 0007e384     libeay32:obj_dat.obj
 0002:0001638c       ??_C@_0BF@HDIIKJDI@textEncodedORAddress?$AA@ 0007e38c     libeay32:obj_dat.obj
 0002:000163a4       ??_C@_06LPELCIKE@userId?$AA@ 0007e3a4     libeay32:obj_dat.obj
 0002:000163ac       ??_C@_03MJDGODDN@UID?$AA@  0007e3ac     libeay32:obj_dat.obj
 0002:000163b0       ??_C@_0BE@DDFOMMI@qualityLabelledData?$AA@ 0007e3b0     libeay32:obj_dat.obj
 0002:000163c4       ??_C@_08MPJGPMC@pilotDSA?$AA@ 0007e3c4     libeay32:obj_dat.obj
 0002:000163d0       ??_C@_0BC@PLDKCMI@pilotOrganization?$AA@ 0007e3d0     libeay32:obj_dat.obj
 0002:000163e4       ??_C@_0BF@CONLNHDI@simpleSecurityObject?$AA@ 0007e3e4     libeay32:obj_dat.obj
 0002:000163fc       ??_C@_0BA@LKHIAMBK@friendlyCountry?$AA@ 0007e3fc     libeay32:obj_dat.obj
 0002:0001640c       ??_C@_0BE@OPAPHNCO@domainRelatedObject?$AA@ 0007e40c     libeay32:obj_dat.obj
 0002:00016420       ??_C@_09BOCGGGMK@dNSDomain?$AA@ 0007e420     libeay32:obj_dat.obj
 0002:0001642c       ??_C@_0BA@KIAIOBLD@rFC822localPart?$AA@ 0007e42c     libeay32:obj_dat.obj
 0002:0001643c       ??_C@_0P@OAPEDDHP@documentSeries?$AA@ 0007e43c     libeay32:obj_dat.obj
 0002:0001644c       ??_C@_04EKFCMFOP@room?$AA@ 0007e44c     libeay32:obj_dat.obj
 0002:00016454       ??_C@_08JEEDKNPB@document?$AA@ 0007e454     libeay32:obj_dat.obj
 0002:00016460       ??_C@_07PMDLEBNF@account?$AA@ 0007e460     libeay32:obj_dat.obj
 0002:00016468       ??_C@_0M@NCGDCEIP@pilotPerson?$AA@ 0007e468     libeay32:obj_dat.obj
 0002:00016474       ??_C@_0M@MCCFCPKP@pilotObject?$AA@ 0007e474     libeay32:obj_dat.obj
 0002:00016480       ??_C@_0BK@LELMGJGD@caseIgnoreIA5StringSyntax?$AA@ 0007e480     libeay32:obj_dat.obj
 0002:0001649c       ??_C@_0BA@KPIIGILK@iA5StringSyntax?$AA@ 0007e49c     libeay32:obj_dat.obj
 0002:000164ac       ??_C@_0M@DLMEDAFC@pilotGroups?$AA@ 0007e4ac     libeay32:obj_dat.obj
 0002:000164b8       ??_C@_0BB@MJFNAIDM@pilotObjectClass?$AA@ 0007e4b8     libeay32:obj_dat.obj
 0002:000164cc       ??_C@_0BF@CDEFHHCF@pilotAttributeSyntax?$AA@ 0007e4cc     libeay32:obj_dat.obj
 0002:000164e4       ??_C@_0BD@NEGIHOAI@pilotAttributeType?$AA@ 0007e4e4     libeay32:obj_dat.obj
 0002:000164f8       ??_C@_05KIBFDOPF@pilot?$AA@ 0007e4f8     libeay32:obj_dat.obj
 0002:00016500       ??_C@_03BIDCBJP@ucl?$AA@   0007e500     libeay32:obj_dat.obj
 0002:00016504       ??_C@_03OHCBHMED@pss?$AA@  0007e504     libeay32:obj_dat.obj
 0002:00016508       ??_C@_04PJOLNDGD@data?$AA@ 0007e508     libeay32:obj_dat.obj
 0002:00016510       ??_C@_0BI@EEABHGCD@Hold?5Instruction?5Reject?$AA@ 0007e510     libeay32:obj_dat.obj
 0002:00016528       ??_C@_0BG@BDAACIJE@holdInstructionReject?$AA@ 0007e528     libeay32:obj_dat.obj
 0002:00016540       ??_C@_0BN@IJKNPIFC@Hold?5Instruction?5Call?5Issuer?$AA@ 0007e540     libeay32:obj_dat.obj
 0002:00016560       ??_C@_0BK@ENEKHHMB@holdInstructionCallIssuer?$AA@ 0007e560     libeay32:obj_dat.obj
 0002:0001657c       ??_C@_0BG@ECBIHNGK@Hold?5Instruction?5None?$AA@ 0007e57c     libeay32:obj_dat.obj
 0002:00016594       ??_C@_0BE@KPEIPHPJ@holdInstructionNone?$AA@ 0007e594     libeay32:obj_dat.obj
 0002:000165a8       ??_C@_0BG@LHBPDMAN@Hold?5Instruction?5Code?$AA@ 0007e5a8     libeay32:obj_dat.obj
 0002:000165c0       ??_C@_0BE@FKEPLGJO@holdInstructionCode?$AA@ 0007e5c0     libeay32:obj_dat.obj
 0002:000165d4       ??_C@_0M@JMFNEPEI@aes?9256?9cfb?$AA@ 0007e5d4     libeay32:obj_dat.obj
 0002:000165e0       ??_C@_0M@EAFGNFML@AES?9256?9CFB?$AA@ 0007e5e0     libeay32:obj_dat.obj
 0002:000165ec       ??_C@_0M@NGILPAPA@aes?9256?9ofb?$AA@ 0007e5ec     libeay32:obj_dat.obj
 0002:000165f8       ??_C@_0M@KIAGKHD@AES?9256?9OFB?$AA@ 0007e5f8     libeay32:obj_dat.obj
 0002:00016604       ??_C@_0M@ICEPNGNF@aes?9256?9cbc?$AA@ 0007e604     libeay32:obj_dat.obj
 0002:00016610       ??_C@_0M@FOEEEMFG@AES?9256?9CBC?$AA@ 0007e610     libeay32:obj_dat.obj
 0002:0001661c       ??_C@_0M@LPPNNCHP@aes?9256?9ecb?$AA@ 0007e61c     libeay32:obj_dat.obj
 0002:00016628       ??_C@_0M@GDPGEIPM@AES?9256?9ECB?$AA@ 0007e628     libeay32:obj_dat.obj
 0002:00016634       ??_C@_0M@EOODGAMJ@aes?9192?9cfb?$AA@ 0007e634     libeay32:obj_dat.obj
 0002:00016640       ??_C@_0M@JCOIPKEK@AES?9192?9CFB?$AA@ 0007e640     libeay32:obj_dat.obj
 0002:0001664c       ??_C@_0M@EDFNPHB@aes?9192?9ofb?$AA@ 0007e64c     libeay32:obj_dat.obj
 0002:00016658       ??_C@_0M@NIDOEFPC@AES?9192?9OFB?$AA@ 0007e658     libeay32:obj_dat.obj
 0002:00016664       ??_C@_0M@FAPBPJFE@aes?9192?9cbc?$AA@ 0007e664     libeay32:obj_dat.obj
 0002:00016670       ??_C@_0M@IMPKGDNH@AES?9192?9CBC?$AA@ 0007e670     libeay32:obj_dat.obj
 0002:0001667c       ??_C@_0M@GNEDPNPO@aes?9192?9ecb?$AA@ 0007e67c     libeay32:obj_dat.obj
 0002:00016688       ??_C@_0M@LBEIGHHN@AES?9192?9ECB?$AA@ 0007e688     libeay32:obj_dat.obj
 0002:00016694       ??_C@_0M@ONHPBHFF@aes?9128?9cfb?$AA@ 0007e694     libeay32:obj_dat.obj
 0002:000166a0       ??_C@_0M@DBHEINNG@AES?9128?9CFB?$AA@ 0007e6a0     libeay32:obj_dat.obj
 0002:000166ac       ??_C@_0M@KHKJKION@aes?9128?9ofb?$AA@ 0007e6ac     libeay32:obj_dat.obj
 0002:000166b8       ??_C@_0M@HLKCDCGO@AES?9128?9OFB?$AA@ 0007e6b8     libeay32:obj_dat.obj
 0002:000166c4       ??_C@_0M@PDGNIOMI@aes?9128?9cbc?$AA@ 0007e6c4     libeay32:obj_dat.obj
 0002:000166d0       ??_C@_0M@CPGGBEEL@AES?9128?9CBC?$AA@ 0007e6d0     libeay32:obj_dat.obj
 0002:000166dc       ??_C@_0M@MONPIKGC@aes?9128?9ecb?$AA@ 0007e6dc     libeay32:obj_dat.obj
 0002:000166e8       ??_C@_0M@BCNEBAOB@AES?9128?9ECB?$AA@ 0007e6e8     libeay32:obj_dat.obj
 0002:000166f4       ??_C@_0BD@HDEEGCLB@Microsoft?5CSP?5Name?$AA@ 0007e6f4     libeay32:obj_dat.obj
 0002:00016708       ??_C@_07BPKAKPJK@CSPName?$AA@ 0007e708     libeay32:obj_dat.obj
 0002:00016710       ??_C@_0BA@DGJNDOPM@ecdsa?9with?9SHA1?$AA@ 0007e710     libeay32:obj_dat.obj
 0002:00016720       ??_C@_0L@JJFEINOP@prime256v1?$AA@ 0007e720     libeay32:obj_dat.obj
 0002:0001672c       ??_C@_0L@HMEBAKJL@prime239v3?$AA@ 0007e72c     libeay32:obj_dat.obj
 0002:00016738       ??_C@_0L@GFFKDLNK@prime239v2?$AA@ 0007e738     libeay32:obj_dat.obj
 0002:00016744       ??_C@_0L@EOHHGIBJ@prime239v1?$AA@ 0007e744     libeay32:obj_dat.obj
 0002:00016750       ??_C@_0L@GHGEOHJF@prime192v3?$AA@ 0007e750     libeay32:obj_dat.obj
 0002:0001675c       ??_C@_0L@HOHPNGNE@prime192v2?$AA@ 0007e75c     libeay32:obj_dat.obj
 0002:00016768       ??_C@_0L@FFFCIFBH@prime192v1?$AA@ 0007e768     libeay32:obj_dat.obj
 0002:00016774       ??_C@_0P@NEOBKIMO@id?9ecPublicKey?$AA@ 0007e774     libeay32:obj_dat.obj
 0002:00016784       ??_C@_0BJ@HECCMKCN@characteristic?9two?9field?$AA@ 0007e784     libeay32:obj_dat.obj
 0002:000167a0       ??_C@_0M@LGLKIODB@prime?9field?$AA@ 0007e7a0     libeay32:obj_dat.obj
 0002:000167ac       ??_C@_0L@HAOKGHPF@ANSI?5X9?462?$AA@ 0007e7ac     libeay32:obj_dat.obj
 0002:000167b8       ??_C@_0L@LBMOMFCJ@ansi?9X9?962?$AA@ 0007e7b8     libeay32:obj_dat.obj
 0002:000167c4       ??_C@_0BP@DEKFNCEH@X509v3?5No?5Revocation?5Available?$AA@ 0007e7c4     libeay32:obj_dat.obj
 0002:000167e4       ??_C@_0L@ECGDAGCK@noRevAvail?$AA@ 0007e7e4     libeay32:obj_dat.obj
 0002:000167f0       ??_C@_0BE@IECCFFCH@X509v3?5AC?5Targeting?$AA@ 0007e7f0     libeay32:obj_dat.obj
 0002:00016804       ??_C@_0BC@JINDJNPM@targetInformation?$AA@ 0007e804     libeay32:obj_dat.obj
 0002:00016818       ??_C@_0BK@DNMBLGM@X509v3?5Policy?5Constraints?$AA@ 0007e818     libeay32:obj_dat.obj
 0002:00016834       ??_C@_0BC@IJLMCBHD@policyConstraints?$AA@ 0007e834     libeay32:obj_dat.obj
 0002:00016848       ??_C@_04IAMNPBLO@role?$AA@ 0007e848     libeay32:obj_dat.obj
 0002:00016850       ??_C@_0BA@PEFFHNFH@id?9aca?9encAttrs?$AA@ 0007e850     libeay32:obj_dat.obj
 0002:00016860       ??_C@_0BL@OMFIOBLF@Subject?5Information?5Access?$AA@ 0007e860     libeay32:obj_dat.obj
 0002:0001687c       ??_C@_0BC@IEIBIKBA@subjectInfoAccess?$AA@ 0007e87c     libeay32:obj_dat.obj
 0002:00016890       ??_C@_0M@BKAIKGEL@ac?9proxying?$AA@ 0007e890     libeay32:obj_dat.obj
 0002:0001689c       ??_C@_0BF@JDOFKNPK@md4WithRSAEncryption?$AA@ 0007e89c     libeay32:obj_dat.obj
 0002:000168b4       ??_C@_07MHHBEDHA@RSA?9MD4?$AA@ 0007e8b4     libeay32:obj_dat.obj
 0002:000168bc       ??_C@_09ECGCCLFI@clearance?$AA@ 0007e8bc     libeay32:obj_dat.obj
 0002:000168c8       ??_C@_0BJ@MAOJIBHF@Selected?5Attribute?5Types?$AA@ 0007e8c8     libeay32:obj_dat.obj
 0002:000168e4       ??_C@_0BJ@BDDNHDDA@selected?9attribute?9types?$AA@ 0007e8e4     libeay32:obj_dat.obj
 0002:00016900       ??_C@_04HIBGFPH@NULL?$AA@  0007e900     libeay32:obj_dat.obj
 0002:00016908       ??_C@_06HFDFFJHI@Domain?$AA@ 0007e908     libeay32:obj_dat.obj
 0002:00016910       ??_C@_06LKIIGAOE@domain?$AA@ 0007e910     libeay32:obj_dat.obj
 0002:00016918       ??_C@_0BA@DMAKFKAH@domainComponent?$AA@ 0007e918     libeay32:obj_dat.obj
 0002:00016928       ??_C@_02KMHJBPDH@DC?$AA@   0007e928     libeay32:obj_dat.obj
 0002:0001692c       ??_C@_08GPNKJGDG@dcObject?$AA@ 0007e92c     libeay32:obj_dat.obj
 0002:00016938       ??_C@_08KAGHKPKK@dcobject?$AA@ 0007e938     libeay32:obj_dat.obj
 0002:00016944       ??_C@_0M@CEEPHGPL@Enterprises?$AA@ 0007e944     libeay32:obj_dat.obj
 0002:00016950       ??_C@_0M@DMHOKNAD@enterprises?$AA@ 0007e950     libeay32:obj_dat.obj
 0002:0001695c       ??_C@_04JEGKNAHI@Mail?$AA@ 0007e95c     libeay32:obj_dat.obj
 0002:00016964       ??_C@_06JDJOGLHO@SNMPv2?$AA@ 0007e964     libeay32:obj_dat.obj
 0002:0001696c       ??_C@_06DKHMNHOO@snmpv2?$AA@ 0007e96c     libeay32:obj_dat.obj
 0002:00016974       ??_C@_08EDKKPLCC@Security?$AA@ 0007e974     libeay32:obj_dat.obj
 0002:00016980       ??_C@_08MBFLHJIB@security?$AA@ 0007e980     libeay32:obj_dat.obj
 0002:0001698c       ??_C@_07CFINJGKH@Private?$AA@ 0007e98c     libeay32:obj_dat.obj
 0002:00016994       ??_C@_07NMPLPEPB@private?$AA@ 0007e994     libeay32:obj_dat.obj
 0002:0001699c       ??_C@_0N@FKCIGJFM@Experimental?$AA@ 0007e99c     libeay32:obj_dat.obj
 0002:000169ac       ??_C@_0N@OJFGCCKJ@experimental?$AA@ 0007e9ac     libeay32:obj_dat.obj
 0002:000169bc       ??_C@_0L@ENAJINDB@Management?$AA@ 0007e9bc     libeay32:obj_dat.obj
 0002:000169c8       ??_C@_04PFNCJACF@mgmt?$AA@ 0007e9c8     libeay32:obj_dat.obj
 0002:000169d0       ??_C@_09EOAFACM@Directory?$AA@ 0007e9d0     libeay32:obj_dat.obj
 0002:000169dc       ??_C@_09ELLNFDPM@directory?$AA@ 0007e9dc     libeay32:obj_dat.obj
 0002:000169e8       ??_C@_04BAMKDBHE@iana?$AA@ 0007e9e8     libeay32:obj_dat.obj
 0002:000169f0       ??_C@_04NMPANDAM@IANA?$AA@ 0007e9f0     libeay32:obj_dat.obj
 0002:000169f8       ??_C@_03CIOFGCAJ@dod?$AA@  0007e9f8     libeay32:obj_dat.obj
 0002:000169fc       ??_C@_03CFBOKPHF@DOD?$AA@  0007e9fc     libeay32:obj_dat.obj
 0002:00016a00       ??_C@_03MADHIGOI@org?$AA@  0007ea00     libeay32:obj_dat.obj
 0002:00016a04       ??_C@_03MNMMELJE@ORG?$AA@  0007ea04     libeay32:obj_dat.obj
 0002:00016a08       ??_C@_0CA@FIOIBJEO@directory?5services?5?9?5algorithms?$AA@ 0007ea08     libeay32:obj_dat.obj
 0002:00016a28       ??_C@_0P@NMIAKCBG@X500algorithms?$AA@ 0007ea28     libeay32:obj_dat.obj
 0002:00016a38       ??_C@_0N@JHANBHGC@rsaSignature?$AA@ 0007ea38     libeay32:obj_dat.obj
 0002:00016a48       ??_C@_09JPNFBOJG@algorithm?$AA@ 0007ea48     libeay32:obj_dat.obj
 0002:00016a54       ??_C@_0L@INBPOG@Trust?5Root?$AA@ 0007ea54     libeay32:obj_dat.obj
 0002:00016a60       ??_C@_09LNEPAILM@trustRoot?$AA@ 0007ea60     libeay32:obj_dat.obj
 0002:00016a6c       ??_C@_04LNEJFJGI@path?$AA@ 0007ea6c     libeay32:obj_dat.obj
 0002:00016a74       ??_C@_05HDPIMK@valid?$AA@  0007ea74     libeay32:obj_dat.obj
 0002:00016a7c       ??_C@_0BF@MPEDLKDP@Extended?5OCSP?5Status?$AA@ 0007ea7c     libeay32:obj_dat.obj
 0002:00016a94       ??_C@_0P@EGENIBNC@extendedStatus?$AA@ 0007ea94     libeay32:obj_dat.obj
 0002:00016aa4       ??_C@_0BF@CEIKAD@OCSP?5Service?5Locator?$AA@ 0007eaa4     libeay32:obj_dat.obj
 0002:00016abc       ??_C@_0P@LCDAPLHC@serviceLocator?$AA@ 0007eabc     libeay32:obj_dat.obj
 0002:00016acc       ??_C@_0BE@JAFPABJB@OCSP?5Archive?5Cutoff?$AA@ 0007eacc     libeay32:obj_dat.obj
 0002:00016ae0       ??_C@_0O@FIEDPKGI@archiveCutoff?$AA@ 0007eae0     libeay32:obj_dat.obj
 0002:00016af0       ??_C@_0O@HFOALJCG@OCSP?5No?5Check?$AA@ 0007eaf0     libeay32:obj_dat.obj
 0002:00016b00       ??_C@_07MCKMCKHJ@noCheck?$AA@ 0007eb00     libeay32:obj_dat.obj
 0002:00016b08       ??_C@_0BK@JKKLNLEI@Acceptable?5OCSP?5Responses?$AA@ 0007eb08     libeay32:obj_dat.obj
 0002:00016b24       ??_C@_0BE@FBPDIHIK@acceptableResponses?$AA@ 0007eb24     libeay32:obj_dat.obj
 0002:00016b38       ??_C@_0M@LCLKJALE@OCSP?5CRL?5ID?$AA@ 0007eb38     libeay32:obj_dat.obj
 0002:00016b44       ??_C@_05NOENOBME@CrlID?$AA@ 0007eb44     libeay32:obj_dat.obj
 0002:00016b4c       ??_C@_0L@NCNDEJFL@OCSP?5Nonce?$AA@ 0007eb4c     libeay32:obj_dat.obj
 0002:00016b58       ??_C@_05OJOPLPHH@Nonce?$AA@ 0007eb58     libeay32:obj_dat.obj
 0002:00016b60       ??_C@_0BE@ONEEPEOL@Basic?5OCSP?5Response?$AA@ 0007eb60     libeay32:obj_dat.obj
 0002:00016b74       ??_C@_0BC@KFAFMFFF@basicOCSPResponse?$AA@ 0007eb74     libeay32:obj_dat.obj
 0002:00016b88       ??_C@_07JCKMJMPC@ad?5dvcs?$AA@ 0007eb88     libeay32:obj_dat.obj
 0002:00016b90       ??_C@_07JCCJJKFE@AD_DVCS?$AA@ 0007eb90     libeay32:obj_dat.obj
 0002:00016b98       ??_C@_0BB@NMPPBOGK@AD?5Time?5Stamping?$AA@ 0007eb98     libeay32:obj_dat.obj
 0002:00016bac       ??_C@_0BA@PBBONLHE@ad_timestamping?$AA@ 0007ebac     libeay32:obj_dat.obj
 0002:00016bbc       ??_C@_0BD@DDALHPCH@id?9cct?9PKIResponse?$AA@ 0007ebbc     libeay32:obj_dat.obj
 0002:00016bd0       ??_C@_0P@FNCPPGJO@id?9cct?9PKIData?$AA@ 0007ebd0     libeay32:obj_dat.obj
 0002:00016be0       ??_C@_0L@CDHPLMPE@id?9cct?9crs?$AA@ 0007ebe0     libeay32:obj_dat.obj
 0002:00016bec       ??_C@_0BH@DJONLBHI@id?9qcs?9pkixQCSyntax?9v1?$AA@ 0007ebec     libeay32:obj_dat.obj
 0002:00016c04       ??_C@_0M@FBOAJIIJ@id?9aca?9role?$AA@ 0007ec04     libeay32:obj_dat.obj
 0002:00016c10       ??_C@_0N@HOPCGOGP@id?9aca?9group?$AA@ 0007ec10     libeay32:obj_dat.obj
 0002:00016c20       ??_C@_0BI@IDHFJBKH@id?9aca?9chargingIdentity?$AA@ 0007ec20     libeay32:obj_dat.obj
 0002:00016c38       ??_C@_0BG@GFJCFEAI@id?9aca?9accessIdentity?$AA@ 0007ec38     libeay32:obj_dat.obj
 0002:00016c50       ??_C@_0BK@OFEDAOCA@id?9aca?9authenticationInfo?$AA@ 0007ec50     libeay32:obj_dat.obj
 0002:00016c6c       ??_C@_0BK@BJMNIGCJ@id?9pda?9countryOfResidence?$AA@ 0007ec6c     libeay32:obj_dat.obj
 0002:00016c88       ??_C@_0BM@KMGEGNAB@id?9pda?9countryOfCitizenship?$AA@ 0007ec88     libeay32:obj_dat.obj
 0002:00016ca4       ??_C@_0O@JMCFNPFD@id?9pda?9gender?$AA@ 0007eca4     libeay32:obj_dat.obj
 0002:00016cb4       ??_C@_0BE@NIFFDBPJ@id?9pda?9placeOfBirth?$AA@ 0007ecb4     libeay32:obj_dat.obj
 0002:00016cc8       ??_C@_0BD@BADJMIPF@id?9pda?9dateOfBirth?$AA@ 0007ecc8     libeay32:obj_dat.obj
 0002:00016cdc       ??_C@_0BD@IGLADCFL@id?9on?9personalData?$AA@ 0007ecdc     libeay32:obj_dat.obj
 0002:00016cf0       ??_C@_0BN@MIGHDJON@id?9cmc?9confirmCertAcceptance?$AA@ 0007ecf0     libeay32:obj_dat.obj
 0002:00016d10       ??_C@_0BG@EEIJMDPB@id?9cmc?9popLinkWitness?$AA@ 0007ed10     libeay32:obj_dat.obj
 0002:00016d28       ??_C@_0BF@GGLCNKGO@id?9cmc?9popLinkRandom?$AA@ 0007ed28     libeay32:obj_dat.obj
 0002:00016d40       ??_C@_0BE@JKLJLIIH@id?9cmc?9queryPending?$AA@ 0007ed40     libeay32:obj_dat.obj
 0002:00016d54       ??_C@_0BE@CKMFMMDP@id?9cmc?9responseInfo?$AA@ 0007ed54     libeay32:obj_dat.obj
 0002:00016d68       ??_C@_0P@PCIOIKNC@id?9cmc?9regInfo?$AA@ 0007ed68     libeay32:obj_dat.obj
 0002:00016d78       ??_C@_0BF@BOEAJJNI@id?9cmc?9revokeRequest?$AA@ 0007ed78     libeay32:obj_dat.obj
 0002:00016d90       ??_C@_0O@OIGIOBJ@id?9cmc?9getCRL?$AA@ 0007ed90     libeay32:obj_dat.obj
 0002:00016da0       ??_C@_0P@GMDPJKDO@id?9cmc?9getCert?$AA@ 0007eda0     libeay32:obj_dat.obj
 0002:00016db0       ??_C@_0BF@BMODAINP@id?9cmc?9lraPOPWitness?$AA@ 0007edb0     libeay32:obj_dat.obj
 0002:00016dc8       ??_C@_0BE@KBIPLENG@id?9cmc?9decryptedPOP?$AA@ 0007edc8     libeay32:obj_dat.obj
 0002:00016ddc       ??_C@_0BE@NILMJFN@id?9cmc?9encryptedPOP?$AA@ 0007eddc     libeay32:obj_dat.obj
 0002:00016df0       ??_C@_0BF@HLOCACJF@id?9cmc?9addExtensions?$AA@ 0007edf0     libeay32:obj_dat.obj
 0002:00016e08       ??_C@_0BG@JLHHNNCH@id?9cmc?9recipientNonce?$AA@ 0007ee08     libeay32:obj_dat.obj
 0002:00016e20       ??_C@_0BD@BCMJDDMP@id?9cmc?9senderNonce?$AA@ 0007ee20     libeay32:obj_dat.obj
 0002:00016e34       ??_C@_0BF@GEJAHBF@id?9cmc?9transactionId?$AA@ 0007ee34     libeay32:obj_dat.obj
 0002:00016e4c       ??_C@_0BC@LLJKCHEN@id?9cmc?9dataReturn?$AA@ 0007ee4c     libeay32:obj_dat.obj
 0002:00016e60       ??_C@_0BF@IDAHNDCK@id?9cmc?9identityProof?$AA@ 0007ee60     libeay32:obj_dat.obj
 0002:00016e78       ??_C@_0BG@PPIINOMK@id?9cmc?9identification?$AA@ 0007ee78     libeay32:obj_dat.obj
 0002:00016e90       ??_C@_0BC@CMNEPEAI@id?9cmc?9statusInfo?$AA@ 0007ee90     libeay32:obj_dat.obj
 0002:00016ea4       ??_C@_0O@OBGPPBGA@id?9alg?9dh?9pop?$AA@ 0007eea4     libeay32:obj_dat.obj
 0002:00016eb4       ??_C@_0BI@KIODNBCM@id?9alg?9dh?9sig?9hmac?9sha1?$AA@ 0007eeb4     libeay32:obj_dat.obj
 0002:00016ecc       ??_C@_0BD@LAAJOBHI@id?9alg?9noSignature?$AA@ 0007eecc     libeay32:obj_dat.obj
 0002:00016ee0       ??_C@_0N@KIJONBNA@id?9alg?9des40?$AA@ 0007eee0     libeay32:obj_dat.obj
 0002:00016ef0       ??_C@_0BD@EEAPBNJJ@id?9regInfo?9certReq?$AA@ 0007eef0     libeay32:obj_dat.obj
 0002:00016f04       ??_C@_0BF@FHFGHAHE@id?9regInfo?9utf8Pairs?$AA@ 0007ef04     libeay32:obj_dat.obj
 0002:00016f1c       ??_C@_0BL@GHBPLPHM@id?9regCtrl?9protocolEncrKey?$AA@ 0007ef1c     libeay32:obj_dat.obj
 0002:00016f38       ??_C@_0BF@GFJPNJIG@id?9regCtrl?9oldCertID?$AA@ 0007ef38     libeay32:obj_dat.obj
 0002:00016f50       ??_C@_0BN@ONKHMAOP@id?9regCtrl?9pkiArchiveOptions?$AA@ 0007ef50     libeay32:obj_dat.obj
 0002:00016f70       ??_C@_0BO@GJKPPLPL@id?9regCtrl?9pkiPublicationInfo?$AA@ 0007ef70     libeay32:obj_dat.obj
 0002:00016f90       ??_C@_0BJ@FBKKLLKP@id?9regCtrl?9authenticator?$AA@ 0007ef90     libeay32:obj_dat.obj
 0002:00016fac       ??_C@_0BE@JDMKCIPE@id?9regCtrl?9regToken?$AA@ 0007efac     libeay32:obj_dat.obj
 0002:00016fc0       ??_C@_0L@BGHMJHOP@id?9regInfo?$AA@ 0007efc0     libeay32:obj_dat.obj
 0002:00016fcc       ??_C@_0L@FDGKGANK@id?9regCtrl?$AA@ 0007efcc     libeay32:obj_dat.obj
 0002:00016fd8       ??_C@_0BF@CLCJJGFI@id?9it?9origPKIMessage?$AA@ 0007efd8     libeay32:obj_dat.obj
 0002:00016ff0       ??_C@_0BG@KCBHNMIK@id?9it?9confirmWaitTime?$AA@ 0007eff0     libeay32:obj_dat.obj
 0002:00017008       ??_C@_0BG@MKDHCJKF@id?9it?9implicitConfirm?$AA@ 0007f008     libeay32:obj_dat.obj
 0002:00017020       ??_C@_0BE@FOOOCPMH@id?9it?9revPassphrase?$AA@ 0007f020     libeay32:obj_dat.obj
 0002:00017034       ??_C@_0BG@KPIIFBLH@id?9it?9keyPairParamRep?$AA@ 0007f034     libeay32:obj_dat.obj
 0002:0001704c       ??_C@_0BG@LGJDGAPG@id?9it?9keyPairParamReq?$AA@ 0007f04c     libeay32:obj_dat.obj
 0002:00017064       ??_C@_0BL@HBPHBFLO@id?9it?9subscriptionResponse?$AA@ 0007f064     libeay32:obj_dat.obj
 0002:00017080       ??_C@_0BK@MKGCMKGI@id?9it?9subscriptionRequest?$AA@ 0007f080     libeay32:obj_dat.obj
 0002:0001709c       ??_C@_0BG@BPLKDJPD@id?9it?9unsupportedOIDs?$AA@ 0007f09c     libeay32:obj_dat.obj
 0002:000170b4       ??_C@_0BB@NHKBGJFG@id?9it?9currentCRL?$AA@ 0007f0b4     libeay32:obj_dat.obj
 0002:000170c8       ??_C@_0BG@OAKEHPLC@id?9it?9caKeyUpdateInfo?$AA@ 0007f0c8     libeay32:obj_dat.obj
 0002:000170e0       ??_C@_0BH@JFBOPDCH@id?9it?9preferredSymmAlg?$AA@ 0007f0e0     libeay32:obj_dat.obj
 0002:000170f8       ??_C@_0BG@FKIDIODL@id?9it?9encKeyPairTypes?$AA@ 0007f0f8     libeay32:obj_dat.obj
 0002:00017110       ??_C@_0BH@POCENFBA@id?9it?9signKeyPairTypes?$AA@ 0007f110     libeay32:obj_dat.obj
 0002:00017128       ??_C@_0BE@GJACIPND@id?9it?9caProtEncCert?$AA@ 0007f128     libeay32:obj_dat.obj
 0002:0001713c       ??_C@_04FFLIHJGD@dvcs?$AA@ 0007f13c     libeay32:obj_dat.obj
 0002:00017144       ??_C@_04JJICJLBL@DVCS?$AA@ 0007f144     libeay32:obj_dat.obj
 0002:0001714c       ??_C@_0L@DECDDCGF@IPSec?5User?$AA@ 0007f14c     libeay32:obj_dat.obj
 0002:00017158       ??_C@_09GOHJKOFF@ipsecUser?$AA@ 0007f158     libeay32:obj_dat.obj
 0002:00017164       ??_C@_0N@EKDIOGLO@IPSec?5Tunnel?$AA@ 0007f164     libeay32:obj_dat.obj
 0002:00017174       ??_C@_0M@GMMHFFHI@ipsecTunnel?$AA@ 0007f174     libeay32:obj_dat.obj
 0002:00017180       ??_C@_0BB@JEJDAICO@IPSec?5End?5System?$AA@ 0007f180     libeay32:obj_dat.obj
 0002:00017194       ??_C@_0P@MKBFMAPP@ipsecEndSystem?$AA@ 0007f194     libeay32:obj_dat.obj
 0002:000171a4       ??_C@_0L@HLNNPJEH@textNotice?$AA@ 0007f1a4     libeay32:obj_dat.obj
 0002:000171b0       ??_C@_0BG@JCJJBMAI@sbgp?9routerIdentifier?$AA@ 0007f1b0     libeay32:obj_dat.obj
 0002:000171c8       ??_C@_0BG@OJEHJDKA@sbgp?9autonomousSysNum?$AA@ 0007f1c8     libeay32:obj_dat.obj
 0002:000171e0       ??_C@_0BB@NNCKCHBC@sbgp?9ipAddrBlock?$AA@ 0007f1e0     libeay32:obj_dat.obj
 0002:000171f4       ??_C@_0L@DLGBNBJE@aaControls?$AA@ 0007f1f4     libeay32:obj_dat.obj
 0002:00017200       ??_C@_0N@FPEEOJCI@ac?9targeting?$AA@ 0007f200     libeay32:obj_dat.obj
 0002:00017210       ??_C@_0P@CIOHPJGC@ac?9auditEntity?$AA@ 0007f210     libeay32:obj_dat.obj
 0002:00017220       ??_C@_0N@FPMNLLM@qcStatements?$AA@ 0007f220     libeay32:obj_dat.obj
 0002:00017230       ??_C@_0P@KFKDECPH@Biometric?5Info?$AA@ 0007f230     libeay32:obj_dat.obj
 0002:00017240       ??_C@_0O@MPIIPAHM@biometricInfo?$AA@ 0007f240     libeay32:obj_dat.obj
 0002:00017250       ??_C@_0P@MMOAAMFD@id?9mod?9cmp2000?$AA@ 0007f250     libeay32:obj_dat.obj
 0002:00017260       ??_C@_0M@GHDGNJKI@id?9mod?9dvcs?$AA@ 0007f260     libeay32:obj_dat.obj
 0002:0001726c       ??_C@_0M@EACKLPKH@id?9mod?9ocsp?$AA@ 0007f26c     libeay32:obj_dat.obj
 0002:00017278       ??_C@_0BK@GAJOODEK@id?9mod?9timestamp?9protocol?$AA@ 0007f278     libeay32:obj_dat.obj
 0002:00017294       ??_C@_0BG@EPPFBJNH@id?9mod?9attribute?9cert?$AA@ 0007f294     libeay32:obj_dat.obj
 0002:000172ac       ??_C@_0BJ@IGODAJIK@id?9mod?9qualified?9cert?993?$AA@ 0007f2ac     libeay32:obj_dat.obj
 0002:000172c8       ??_C@_0BJ@GENFLKHG@id?9mod?9qualified?9cert?988?$AA@ 0007f2c8     libeay32:obj_dat.obj
 0002:000172e4       ??_C@_0L@MONEHBKH@id?9mod?9cmp?$AA@ 0007f2e4     libeay32:obj_dat.obj
 0002:000172f0       ??_C@_0BG@NAFGGBFM@id?9mod?9kea?9profile?993?$AA@ 0007f2f0     libeay32:obj_dat.obj
 0002:00017308       ??_C@_0BG@DCGANCKA@id?9mod?9kea?9profile?988?$AA@ 0007f308     libeay32:obj_dat.obj
 0002:00017320       ??_C@_0L@KPDLDADF@id?9mod?9cmc?$AA@ 0007f320     libeay32:obj_dat.obj
 0002:0001732c       ??_C@_0M@GHFPFJPB@id?9mod?9crmf?$AA@ 0007f32c     libeay32:obj_dat.obj
 0002:00017338       ??_C@_0BF@EOKAKKIK@id?9pkix1?9implicit?993?$AA@ 0007f338     libeay32:obj_dat.obj
 0002:00017350       ??_C@_0BF@JEALIPIC@id?9pkix1?9explicit?993?$AA@ 0007f350     libeay32:obj_dat.obj
 0002:00017368       ??_C@_0BF@KMJGBJHG@id?9pkix1?9implicit?988?$AA@ 0007f368     libeay32:obj_dat.obj
 0002:00017380       ??_C@_0BF@HGDNDMHO@id?9pkix1?9explicit?988?$AA@ 0007f380     libeay32:obj_dat.obj
 0002:00017398       ??_C@_06PONIBOCI@id?9cct?$AA@ 0007f398     libeay32:obj_dat.obj
 0002:000173a0       ??_C@_06ELIJBHPL@id?9qcs?$AA@ 0007f3a0     libeay32:obj_dat.obj
 0002:000173a8       ??_C@_06GDGEDALH@id?9aca?$AA@ 0007f3a8     libeay32:obj_dat.obj
 0002:000173b0       ??_C@_06IOIOBGMI@id?9pda?$AA@ 0007f3b0     libeay32:obj_dat.obj
 0002:000173b8       ??_C@_05OHNJGMJE@id?9on?$AA@ 0007f3b8     libeay32:obj_dat.obj
 0002:000173c0       ??_C@_06PBMFLHLE@id?9cmc?$AA@ 0007f3c0     libeay32:obj_dat.obj
 0002:000173c8       ??_C@_06DOGCNAAM@id?9alg?$AA@ 0007f3c8     libeay32:obj_dat.obj
 0002:000173d0       ??_C@_07OMHOPMIM@id?9pkip?$AA@ 0007f3d0     libeay32:obj_dat.obj
 0002:000173d8       ??_C@_05FDHJOKPN@id?9it?$AA@ 0007f3d8     libeay32:obj_dat.obj
 0002:000173e0       ??_C@_05EBEMBIDF@id?9qt?$AA@ 0007f3e0     libeay32:obj_dat.obj
 0002:000173e8       ??_C@_0M@FNAFBNKE@id?9pkix?9mod?$AA@ 0007f3e8     libeay32:obj_dat.obj
 0002:000173f4       ??_C@_03ODADJPDG@md4?$AA@  0007f3f4     libeay32:obj_dat.obj
 0002:000173f8       ??_C@_03HLHMHGOI@MD4?$AA@  0007f3f8     libeay32:obj_dat.obj
 0002:000173fc       ??_C@_0CB@MICJDGGH@id?9smime?9cti?9ets?9proofOfCreation@ 0007f3fc     libeay32:obj_dat.obj
 0002:00017420       ??_C@_0CB@DDLMHEBC@id?9smime?9cti?9ets?9proofOfApproval@ 0007f420     libeay32:obj_dat.obj
 0002:00017444       ??_C@_0BP@ODCAFFCM@id?9smime?9cti?9ets?9proofOfSender?$AA@ 0007f444     libeay32:obj_dat.obj
 0002:00017464       ??_C@_0CB@ICJGPMEP@id?9smime?9cti?9ets?9proofOfDelivery@ 0007f464     libeay32:obj_dat.obj
 0002:00017488       ??_C@_0CA@HNGOKBGC@id?9smime?9cti?9ets?9proofOfReceipt?$AA@ 0007f488     libeay32:obj_dat.obj
 0002:000174a8       ??_C@_0BP@BCHFEGHC@id?9smime?9cti?9ets?9proofOfOrigin?$AA@ 0007f4a8     libeay32:obj_dat.obj
 0002:000174c8       ??_C@_0BN@GPAAHNOH@id?9smime?9spq?9ets?9sqt?9unotice?$AA@ 0007f4c8     libeay32:obj_dat.obj
 0002:000174e8       ??_C@_0BJ@IMNKDGEG@id?9smime?9spq?9ets?9sqt?9uri?$AA@ 0007f4e8     libeay32:obj_dat.obj
 0002:00017504       ??_C@_0BB@BMOBKAGE@id?9smime?9cd?9ldap?$AA@ 0007f504     libeay32:obj_dat.obj
 0002:00017518       ??_C@_0BI@FIFDKKFJ@id?9smime?9alg?9CMSRC2wrap?$AA@ 0007f518     libeay32:obj_dat.obj
 0002:00017530       ??_C@_0BJ@FOFHEIDB@id?9smime?9alg?9CMS3DESwrap?$AA@ 0007f530     libeay32:obj_dat.obj
 0002:0001754c       ??_C@_0BC@COOODKPD@id?9smime?9alg?9ESDH?$AA@ 0007f54c     libeay32:obj_dat.obj
 0002:00017560       ??_C@_0BF@JNCPAJCA@id?9smime?9alg?9RC2wrap?$AA@ 0007f560     libeay32:obj_dat.obj
 0002:00017578       ??_C@_0BG@HHELPNAK@id?9smime?9alg?93DESwrap?$AA@ 0007f578     libeay32:obj_dat.obj
 0002:00017590       ??_C@_0BJ@FIJMOHBJ@id?9smime?9alg?9ESDHwithRC2?$AA@ 0007f590     libeay32:obj_dat.obj
 0002:000175ac       ??_C@_0BK@JNJOCCCB@id?9smime?9alg?9ESDHwith3DES?$AA@ 0007f5ac     libeay32:obj_dat.obj
 0002:000175c8       ??_C@_0BF@KEMAMBKF@id?9smime?9aa?9dvcs?9dvc?$AA@ 0007f5c8     libeay32:obj_dat.obj
 0002:000175e0       ??_C@_0BK@HDBIPLFI@id?9smime?9aa?9signatureType?$AA@ 0007f5e0     libeay32:obj_dat.obj
 0002:000175fc       ??_C@_0CB@BEMKNJGO@id?9smime?9aa?9ets?9archiveTimeStamp@ 0007f5fc     libeay32:obj_dat.obj
 0002:00017620       ??_C@_0CB@CJNBPJE@id?9smime?9aa?9ets?9certCRLTimestamp@ 0007f620     libeay32:obj_dat.obj
 0002:00017644       ??_C@_0BN@HGLOGOFI@id?9smime?9aa?9ets?9escTimeStamp?$AA@ 0007f644     libeay32:obj_dat.obj
 0002:00017664       ??_C@_0CB@GOCEFPFO@id?9smime?9aa?9ets?9revocationValues@ 0007f664     libeay32:obj_dat.obj
 0002:00017688       ??_C@_0BL@IFKOLDIG@id?9smime?9aa?9ets?9certValues?$AA@ 0007f688     libeay32:obj_dat.obj
 0002:000176a4       ??_C@_0BP@BCHJHNFO@id?9smime?9aa?9ets?9RevocationRefs?$AA@ 0007f6a4     libeay32:obj_dat.obj
 0002:000176c4       ??_C@_0CA@NKIOCHLG@id?9smime?9aa?9ets?9CertificateRefs?$AA@ 0007f6c4     libeay32:obj_dat.obj
 0002:000176e4       ??_C@_0CB@GHKINGOH@id?9smime?9aa?9ets?9contentTimestamp@ 0007f6e4     libeay32:obj_dat.obj
 0002:00017708       ??_C@_0BN@JFIFOPBH@id?9smime?9aa?9ets?9otherSigCert?$AA@ 0007f708     libeay32:obj_dat.obj
 0002:00017728       ??_C@_0BL@KDJDAGDC@id?9smime?9aa?9ets?9signerAttr?$AA@ 0007f728     libeay32:obj_dat.obj
 0002:00017744       ??_C@_0BP@EODAELPO@id?9smime?9aa?9ets?9signerLocation?$AA@ 0007f744     libeay32:obj_dat.obj
 0002:00017764       ??_C@_0BP@OLIFPEIM@id?9smime?9aa?9ets?9commitmentType?$AA@ 0007f764     libeay32:obj_dat.obj
 0002:00017784       ??_C@_0BM@GKFMJCFL@id?9smime?9aa?9ets?9sigPolicyId?$AA@ 0007f784     libeay32:obj_dat.obj
 0002:000177a0       ??_C@_0BL@DHJOIJNE@id?9smime?9aa?9timeStampToken?$AA@ 0007f7a0     libeay32:obj_dat.obj
 0002:000177bc       ??_C@_0BO@CEEOANBD@id?9smime?9aa?9smimeEncryptCerts?$AA@ 0007f7bc     libeay32:obj_dat.obj
 0002:000177dc       ??_C@_0BP@LHGJLGIB@id?9smime?9aa?9signingCertificate?$AA@ 0007f7dc     libeay32:obj_dat.obj
 0002:000177fc       ??_C@_0BK@LAPEFMP@id?9smime?9aa?9encrypKeyPref?$AA@ 0007f7fc     libeay32:obj_dat.obj
 0002:00017818       ??_C@_0BN@LEFAEFL@id?9smime?9aa?9contentReference?$AA@ 0007f818     libeay32:obj_dat.obj
 0002:00017838       ??_C@_0BN@NFAAOKEA@id?9smime?9aa?9equivalentLabels?$AA@ 0007f838     libeay32:obj_dat.obj
 0002:00017858       ??_C@_0BF@CFNHFPDB@id?9smime?9aa?9macValue?$AA@ 0007f858     libeay32:obj_dat.obj
 0002:00017870       ??_C@_0BO@KMJGIAMK@id?9smime?9aa?9contentIdentifier?$AA@ 0007f870     libeay32:obj_dat.obj
 0002:00017890       ??_C@_0BN@GCCNOJCG@id?9smime?9aa?9encapContentType?$AA@ 0007f890     libeay32:obj_dat.obj
 0002:000178b0       ??_C@_0BJ@LJLDKMDH@id?9smime?9aa?9msgSigDigest?$AA@ 0007f8b0     libeay32:obj_dat.obj
 0002:000178cc       ??_C@_0BI@EMGPJFHB@id?9smime?9aa?9contentHint?$AA@ 0007f8cc     libeay32:obj_dat.obj
 0002:000178e4       ??_C@_0BM@OEKGBMLE@id?9smime?9aa?9mlExpandHistory?$AA@ 0007f8e4     libeay32:obj_dat.obj
 0002:00017900       ??_C@_0BK@DNJNJILO@id?9smime?9aa?9securityLabel?$AA@ 0007f900     libeay32:obj_dat.obj
 0002:0001791c       ??_C@_0BL@LMGNMPFD@id?9smime?9aa?9receiptRequest?$AA@ 0007f91c     libeay32:obj_dat.obj
 0002:00017938       ??_C@_0BN@POKJLKJJ@id?9smime?9ct?9DVCSResponseData?$AA@ 0007f938     libeay32:obj_dat.obj
 0002:00017958       ??_C@_0BM@MFKPCEGN@id?9smime?9ct?9DVCSRequestData?$AA@ 0007f958     libeay32:obj_dat.obj
 0002:00017974       ??_C@_0BI@BGKPNMK@id?9smime?9ct?9contentInfo?$AA@ 0007f974     libeay32:obj_dat.obj
 0002:0001798c       ??_C@_0BE@FKPPBHI@id?9smime?9ct?9TDTInfo?$AA@ 0007f98c     libeay32:obj_dat.obj
 0002:000179a0       ??_C@_0BE@KHNGFDDI@id?9smime?9ct?9TSTInfo?$AA@ 0007f9a0     libeay32:obj_dat.obj
 0002:000179b4       ??_C@_0BI@DBILCLFJ@id?9smime?9ct?9publishCert?$AA@ 0007f9b4     libeay32:obj_dat.obj
 0002:000179cc       ??_C@_0BF@KGEHGOF@id?9smime?9ct?9authData?$AA@ 0007f9cc     libeay32:obj_dat.obj
 0002:000179e4       ??_C@_0BE@GCHIHBHA@id?9smime?9ct?9receipt?$AA@ 0007f9e4     libeay32:obj_dat.obj
 0002:000179f8       ??_C@_0BP@CCCOHHAI@id?9smime?9mod?9ets?9eSigPolicy?997?$AA@ 0007f9f8     libeay32:obj_dat.obj
 0002:00017a18       ??_C@_0BP@KEHEABPA@id?9smime?9mod?9ets?9eSigPolicy?988?$AA@ 0007fa18     libeay32:obj_dat.obj
 0002:00017a38       ??_C@_0BP@POGMGJII@id?9smime?9mod?9ets?9eSignature?997?$AA@ 0007fa38     libeay32:obj_dat.obj
 0002:00017a58       ??_C@_0BP@HIDGBPHA@id?9smime?9mod?9ets?9eSignature?988?$AA@ 0007fa58     libeay32:obj_dat.obj
 0002:00017a78       ??_C@_0BE@PEENABNJ@id?9smime?9mod?9msg?9v3?$AA@ 0007fa78     libeay32:obj_dat.obj
 0002:00017a8c       ??_C@_0BB@LBBEMNBN@id?9smime?9mod?9oid?$AA@ 0007fa8c     libeay32:obj_dat.obj
 0002:00017aa0       ??_C@_0BB@MKJLIPEJ@id?9smime?9mod?9ess?$AA@ 0007faa0     libeay32:obj_dat.obj
 0002:00017ab4       ??_C@_0BB@PJEIFOOP@id?9smime?9mod?9cms?$AA@ 0007fab4     libeay32:obj_dat.obj
 0002:00017ac8       ??_C@_0N@CFBKAPGC@id?9smime?9cti?$AA@ 0007fac8     libeay32:obj_dat.obj
 0002:00017ad8       ??_C@_0N@PABBGIHI@id?9smime?9spq?$AA@ 0007fad8     libeay32:obj_dat.obj
 0002:00017ae8       ??_C@_0M@LHBAJBP@id?9smime?9cd?$AA@ 0007fae8     libeay32:obj_dat.obj
 0002:00017af4       ??_C@_0N@DKFBIKP@id?9smime?9alg?$AA@ 0007faf4     libeay32:obj_dat.obj
 0002:00017b04       ??_C@_0M@HFICCJDE@id?9smime?9aa?$AA@ 0007fb04     libeay32:obj_dat.obj
 0002:00017b10       ??_C@_0M@EBLDBLEO@id?9smime?9ct?$AA@ 0007fb10     libeay32:obj_dat.obj
 0002:00017b1c       ??_C@_0N@GABIEKIN@id?9smime?9mod?$AA@ 0007fb1c     libeay32:obj_dat.obj
 0002:00017b2c       ??_C@_06DFGHEKNE@S?1MIME?$AA@ 0007fb2c     libeay32:obj_dat.obj
 0002:00017b34       ??_C@_05HHBEAKJJ@SMIME?$AA@ 0007fb34     libeay32:obj_dat.obj
 0002:00017b3c       ??_C@_05HGOIFJJD@pkcs5?$AA@ 0007fb3c     libeay32:obj_dat.obj
 0002:00017b44       ??_C@_05BCIEJMJH@pkcs1?$AA@ 0007fb44     libeay32:obj_dat.obj
 0002:00017b4c       ??_C@_0L@DJCLIPOH@X9?457?5CM?5?$DP?$AA@ 0007fb4c     libeay32:obj_dat.obj
 0002:00017b58       ??_C@_04CGFPFLFA@X9cm?$AA@ 0007fb58     libeay32:obj_dat.obj
 0002:00017b60       ??_C@_05PAJLFBHD@X9?457?$AA@ 0007fb60     libeay32:obj_dat.obj
 0002:00017b68       ??_C@_05OCCOPOJN@X9?957?$AA@ 0007fb68     libeay32:obj_dat.obj
 0002:00017b70       ??_C@_0BD@NMCDOJHL@ISO?5US?5Member?5Body?$AA@ 0007fb70     libeay32:obj_dat.obj
 0002:00017b84       ??_C@_06EKAADAMF@ISO?9US?$AA@ 0007fb84     libeay32:obj_dat.obj
 0002:00017b8c       ??_C@_0BA@BGDAEHGF@ISO?5Member?5Body?$AA@ 0007fb8c     libeay32:obj_dat.obj
 0002:00017b9c       ??_C@_0M@CMICFDOA@member?9body?$AA@ 0007fb9c     libeay32:obj_dat.obj
 0002:00017ba8       ??_C@_03CMEHDJAL@iso?$AA@  0007fba8     libeay32:obj_dat.obj
 0002:00017bac       ??_C@_03CBLMPEHH@ISO?$AA@  0007fbac     libeay32:obj_dat.obj
 0002:00017bb0       ??_C@_0N@CPJNIPDD@OCSP?5Signing?$AA@ 0007fbb0     libeay32:obj_dat.obj
 0002:00017bc0       ??_C@_0M@HBKJLKNM@OCSPSigning?$AA@ 0007fbc0     libeay32:obj_dat.obj
 0002:00017bcc       ??_C@_0L@CABCENFK@CA?5Issuers?$AA@ 0007fbcc     libeay32:obj_dat.obj
 0002:00017bd8       ??_C@_09GFPECPIH@caIssuers?$AA@ 0007fbd8     libeay32:obj_dat.obj
 0002:00017be4       ??_C@_04LOJOPNBE@OCSP?$AA@ 0007fbe4     libeay32:obj_dat.obj
 0002:00017bec       ??_C@_0BN@EILCOJAN@Authority?5Information?5Access?$AA@ 0007fbec     libeay32:obj_dat.obj
 0002:00017c0c       ??_C@_0BE@PLCGCINM@authorityInfoAccess?$AA@ 0007fc0c     libeay32:obj_dat.obj
 0002:00017c20       ??_C@_05BHKIKJBE@id?9ad?$AA@ 0007fc20     libeay32:obj_dat.obj
 0002:00017c28       ??_C@_05BDFHFBBC@id?9pe?$AA@ 0007fc28     libeay32:obj_dat.obj
 0002:00017c30       ??_C@_0M@DNNLEIMI@dnQualifier?$AA@ 0007fc30     libeay32:obj_dat.obj
 0002:00017c3c       ??_C@_04MEMAJGDJ@name?$AA@ 0007fc3c     libeay32:obj_dat.obj
 0002:00017c44       ??_C@_0BC@GLHEKHCC@Extension?5Request?$AA@ 0007fc44     libeay32:obj_dat.obj
 0002:00017c58       ??_C@_06EJACAMDF@extReq?$AA@ 0007fc58     libeay32:obj_dat.obj
 0002:00017c60       ??_C@_0BM@MEJAMAEO@Microsoft?5Extension?5Request?$AA@ 0007fc60     libeay32:obj_dat.obj
 0002:00017c7c       ??_C@_08HCCJAOPJ@msExtReq?$AA@ 0007fc7c     libeay32:obj_dat.obj
 0002:00017c88       ??_C@_0BG@JLHBEJLP@pbeWithSHA1AndDES?9CBC?$AA@ 0007fc88     libeay32:obj_dat.obj
 0002:00017ca0       ??_C@_0N@GOPIPBOD@PBE?9SHA1?9DES?$AA@ 0007fca0     libeay32:obj_dat.obj
 0002:00017cb0       ??_C@_0BF@CKDLCJKD@pbeWithMD5AndRC2?9CBC?$AA@ 0007fcb0     libeay32:obj_dat.obj
 0002:00017cc8       ??_C@_0P@IDPFKEHM@PBE?9MD5?9RC2?964?$AA@ 0007fcc8     libeay32:obj_dat.obj
 0002:00017cd8       ??_C@_0BF@FOKDMACM@pbeWithMD2AndRC2?9CBC?$AA@ 0007fcd8     libeay32:obj_dat.obj
 0002:00017cf0       ??_C@_0P@OHJEMJLF@PBE?9MD2?9RC2?964?$AA@ 0007fcf0     libeay32:obj_dat.obj
 0002:00017d00       ??_C@_0BE@CEEFMCAI@S?1MIME?5Capabilities?$AA@ 0007fd00     libeay32:obj_dat.obj
 0002:00017d14       ??_C@_0L@LCBJGKJG@SMIME?9CAPS?$AA@ 0007fd14     libeay32:obj_dat.obj
 0002:00017d20       ??_C@_0L@CLELMECA@rc2?964?9cbc?$AA@ 0007fd20     libeay32:obj_dat.obj
 0002:00017d2c       ??_C@_0L@OPHBIFFL@RC2?964?9CBC?$AA@ 0007fd2c     libeay32:obj_dat.obj
 0002:00017d38       ??_C@_0BN@KPMBKEE@Policy?5Qualifier?5User?5Notice?$AA@ 0007fd38     libeay32:obj_dat.obj
 0002:00017d58       ??_C@_0O@CJFHFAHE@id?9qt?9unotice?$AA@ 0007fd58     libeay32:obj_dat.obj
 0002:00017d68       ??_C@_0BF@HPKIKKPI@Policy?5Qualifier?5CPS?$AA@ 0007fd68     libeay32:obj_dat.obj
 0002:00017d80       ??_C@_09MIPGHKGJ@id?9qt?9cps?$AA@ 0007fd80     libeay32:obj_dat.obj
 0002:00017d8c       ??_C@_0N@KANOAIP@hmacWithSHA1?$AA@ 0007fd8c     libeay32:obj_dat.obj
 0002:00017d9c       ??_C@_06DEJMPFNK@PBMAC1?$AA@ 0007fd9c     libeay32:obj_dat.obj
 0002:00017da4       ??_C@_05EPMADBBF@PBES2?$AA@ 0007fda4     libeay32:obj_dat.obj
 0002:00017dac       ??_C@_07KAOEJCFK@x509Crl?$AA@ 0007fdac     libeay32:obj_dat.obj
 0002:00017db4       ??_C@_0BA@BFAOBDKH@sdsiCertificate?$AA@ 0007fdb4     libeay32:obj_dat.obj
 0002:00017dc4       ??_C@_0BA@EMOFOCJL@x509Certificate?$AA@ 0007fdc4     libeay32:obj_dat.obj
 0002:00017dd4       ??_C@_0L@BCMHPPAO@localKeyID?$AA@ 0007fdd4     libeay32:obj_dat.obj
 0002:00017de0       ??_C@_0N@BGFMPLCM@friendlyName?$AA@ 0007fde0     libeay32:obj_dat.obj
 0002:00017df0       ??_C@_0BA@KAKLKBBC@safeContentsBag?$AA@ 0007fdf0     libeay32:obj_dat.obj
 0002:00017e00       ??_C@_09DELDBPIE@secretBag?$AA@ 0007fe00     libeay32:obj_dat.obj
 0002:00017e0c       ??_C@_06JAFBIMLO@crlBag?$AA@ 0007fe0c     libeay32:obj_dat.obj
 0002:00017e14       ??_C@_07FDLMCII@certBag?$AA@ 0007fe14     libeay32:obj_dat.obj
 0002:00017e1c       ??_C@_0BE@ELJKIANF@pkcs8ShroudedKeyBag?$AA@ 0007fe1c     libeay32:obj_dat.obj
 0002:00017e30       ??_C@_06BFGNOIAI@keyBag?$AA@ 0007fe30     libeay32:obj_dat.obj
 0002:00017e38       ??_C@_0BL@CKNKIMON@pbeWithSHA1And40BitRC2?9CBC?$AA@ 0007fe38     libeay32:obj_dat.obj
 0002:00017e54       ??_C@_0BA@MNBMNMAN@PBE?9SHA1?9RC2?940?$AA@ 0007fe54     libeay32:obj_dat.obj
 0002:00017e64       ??_C@_0BM@DOLDINME@pbeWithSHA1And128BitRC2?9CBC?$AA@ 0007fe64     libeay32:obj_dat.obj
 0002:00017e80       ??_C@_0BB@FNLJPIMG@PBE?9SHA1?9RC2?9128?$AA@ 0007fe80     libeay32:obj_dat.obj
 0002:00017e94       ??_C@_0CB@NCMPKEGH@pbeWithSHA1And2?9KeyTripleDES?9CBC@ 0007fe94     libeay32:obj_dat.obj
 0002:00017eb8       ??_C@_0O@HOHOOIGM@PBE?9SHA1?92DES?$AA@ 0007feb8     libeay32:obj_dat.obj
 0002:00017ec8       ??_C@_0CB@FCNCEDP@pbeWithSHA1And3?9KeyTripleDES?9CBC@ 0007fec8     libeay32:obj_dat.obj
 0002:00017eec       ??_C@_0O@EDBOMBNM@PBE?9SHA1?93DES?$AA@ 0007feec     libeay32:obj_dat.obj
 0002:00017efc       ??_C@_0BH@OCAEJMIL@pbeWithSHA1And40BitRC4?$AA@ 0007fefc     libeay32:obj_dat.obj
 0002:00017f14       ??_C@_0BA@ECFMCJKN@PBE?9SHA1?9RC4?940?$AA@ 0007ff14     libeay32:obj_dat.obj
 0002:00017f24       ??_C@_0BI@LBIFCLPB@pbeWithSHA1And128BitRC4?$AA@ 0007ff24     libeay32:obj_dat.obj
 0002:00017f3c       ??_C@_0BB@ILOABLNL@PBE?9SHA1?9RC4?9128?$AA@ 0007ff3c     libeay32:obj_dat.obj
 0002:00017f50       ??_C@_0BD@PNDCMCDK@Strong?5Extranet?5ID?$AA@ 0007ff50     libeay32:obj_dat.obj
 0002:00017f64       ??_C@_07DKMNOLMH@SXNetID?$AA@ 0007ff64     libeay32:obj_dat.obj
 0002:00017f6c       ??_C@_0BA@JDBEMONE@Invalidity?5Date?$AA@ 0007ff6c     libeay32:obj_dat.obj
 0002:00017f7c       ??_C@_0P@BKEGCOMO@invalidityDate?$AA@ 0007ff7c     libeay32:obj_dat.obj
 0002:00017f8c       ??_C@_0BH@GODIEFKG@X509v3?5CRL?5Reason?5Code?$AA@ 0007ff8c     libeay32:obj_dat.obj
 0002:00017fa4       ??_C@_09MCDAGILE@CRLReason?$AA@ 0007ffa4     libeay32:obj_dat.obj
 0002:00017fb0       ??_C@_0BL@HLNLPBHP@X509v3?5Delta?5CRL?5Indicator?$AA@ 0007ffb0     libeay32:obj_dat.obj
 0002:00017fcc       ??_C@_08ECNAKPJJ@deltaCRL?$AA@ 0007ffcc     libeay32:obj_dat.obj
 0002:00017fd8       ??_C@_0BN@MDNLHLBL@Netscape?5Server?5Gated?5Crypto?$AA@ 0007ffd8     libeay32:obj_dat.obj
 0002:00017ff8       ??_C@_05LFIIINKG@nsSGC?$AA@ 0007fff8     libeay32:obj_dat.obj
 0002:00018000       ??_C@_0CA@IJODBCMB@Microsoft?5Encrypted?5File?5System?$AA@ 00080000     libeay32:obj_dat.obj
 0002:00018020       ??_C@_05NGOIPCN@msEFS?$AA@ 00080020     libeay32:obj_dat.obj
 0002:00018028       ??_C@_0BO@FBDDCLK@Microsoft?5Server?5Gated?5Crypto?$AA@ 00080028     libeay32:obj_dat.obj
 0002:00018048       ??_C@_05DDBMPPAI@msSGC?$AA@ 00080048     libeay32:obj_dat.obj
 0002:00018050       ??_C@_0BN@GNMCHNOI@Microsoft?5Trust?5List?5Signing?$AA@ 00080050     libeay32:obj_dat.obj
 0002:00018070       ??_C@_09HGCLLDPK@msCTLSign?$AA@ 00080070     libeay32:obj_dat.obj
 0002:0001807c       ??_C@_0CC@GKFNEBFA@Microsoft?5Commercial?5Code?5Signin@ 0008007c     libeay32:obj_dat.obj
 0002:000180a0       ??_C@_09PDGAMFAO@msCodeCom?$AA@ 000800a0     libeay32:obj_dat.obj
 0002:000180ac       ??_C@_0CC@NDDHKAMP@Microsoft?5Individual?5Code?5Signin@ 000800ac     libeay32:obj_dat.obj
 0002:000180d0       ??_C@_09EMNNPEBE@msCodeInd?$AA@ 000800d0     libeay32:obj_dat.obj
 0002:000180dc       ??_C@_0O@GMMBLMEE@Time?5Stamping?$AA@ 000800dc     libeay32:obj_dat.obj
 0002:000180ec       ??_C@_0N@LONEBHPN@timeStamping?$AA@ 000800ec     libeay32:obj_dat.obj
 0002:000180fc       ??_C@_0BC@BLBGFKKG@E?9mail?5Protection?$AA@ 000800fc     libeay32:obj_dat.obj
 0002:00018110       ??_C@_0BA@NPCFDPCO@emailProtection?$AA@ 00080110     libeay32:obj_dat.obj
 0002:00018120       ??_C@_0N@CHJHLHFC@Code?5Signing?$AA@ 00080120     libeay32:obj_dat.obj
 0002:00018130       ??_C@_0M@OJNCNGJ@codeSigning?$AA@ 00080130     libeay32:obj_dat.obj
 0002:0001813c       ??_C@_0BO@FEMCBEOF@TLS?5Web?5Client?5Authentication?$AA@ 0008013c     libeay32:obj_dat.obj
 0002:0001815c       ??_C@_0L@HCMKLLOP@clientAuth?$AA@ 0008015c     libeay32:obj_dat.obj
 0002:00018168       ??_C@_0BO@HPFOJNNE@TLS?5Web?5Server?5Authentication?$AA@ 00080168     libeay32:obj_dat.obj
 0002:00018188       ??_C@_0L@CINGAJGN@serverAuth?$AA@ 00080188     libeay32:obj_dat.obj
 0002:00018194       ??_C@_05DEJBPLJH@id?9kp?$AA@ 00080194     libeay32:obj_dat.obj
 0002:0001819c       ??_C@_04EAPCHJAG@PKIX?$AA@ 0008019c     libeay32:obj_dat.obj
 0002:000181a4       ??_C@_0BK@KFMGFBEG@X509v3?5Extended?5Key?5Usage?$AA@ 000801a4     libeay32:obj_dat.obj
 0002:000181c0       ??_C@_0BB@DGDLKPHD@extendedKeyUsage?$AA@ 000801c0     libeay32:obj_dat.obj
 0002:000181d4       ??_C@_0BB@KGNEOBKL@zlib?5compression?$AA@ 000801d4     libeay32:obj_dat.obj
 0002:000181e8       ??_C@_04CHLIKDMF@ZLIB?$AA@ 000801e8     libeay32:obj_dat.obj
 0002:000181f0       ??_C@_0BH@CAEIMNHD@run?5length?5compression?$AA@ 000801f0     libeay32:obj_dat.obj
 0002:00018208       ??_C@_03ELDBCICO@RLE?$AA@  00080208     libeay32:obj_dat.obj
 0002:0001820c       ??_C@_07NLMEMEEK@rc5?9ofb?$AA@ 0008020c     libeay32:obj_dat.obj
 0002:00018214       ??_C@_07OAPEFCPM@RC5?9OFB?$AA@ 00080214     libeay32:obj_dat.obj
 0002:0001821c       ??_C@_07JBBCHLPC@rc5?9cfb?$AA@ 0008021c     libeay32:obj_dat.obj
 0002:00018224       ??_C@_07KKCCONEE@RC5?9CFB?$AA@ 00080224     libeay32:obj_dat.obj
 0002:0001822c       ??_C@_07LCLCOGMF@rc5?9ecb?$AA@ 0008022c     libeay32:obj_dat.obj
 0002:00018234       ??_C@_07IJICHAHD@RC5?9ECB?$AA@ 00080234     libeay32:obj_dat.obj
 0002:0001823c       ??_C@_07IPAAOCGP@rc5?9cbc?$AA@ 0008023c     libeay32:obj_dat.obj
 0002:00018244       ??_C@_07LEDAHENJ@RC5?9CBC?$AA@ 00080244     libeay32:obj_dat.obj
 0002:0001824c       ??_C@_0BB@DCJDAKFH@ripemd160WithRSA?$AA@ 0008024c     libeay32:obj_dat.obj
 0002:00018260       ??_C@_0O@JPOIHGOH@RSA?9RIPEMD160?$AA@ 00080260     libeay32:obj_dat.obj
 0002:00018270       ??_C@_09EDIPKBN@ripemd160?$AA@ 00080270     libeay32:obj_dat.obj
 0002:0001827c       ??_C@_09DJDCAKJG@RIPEMD160?$AA@ 0008027c     libeay32:obj_dat.obj
 0002:00018288       ??_C@_0O@GMANLAEO@dsaEncryption?$AA@ 00080288     libeay32:obj_dat.obj
 0002:00018298       ??_C@_03ENFFABCE@DSA?$AA@  00080298     libeay32:obj_dat.obj
 0002:0001829c       ??_C@_0M@KECGAPAA@sha1WithRSA?$AA@ 0008029c     libeay32:obj_dat.obj
 0002:000182a8       ??_C@_0L@EMMEGDKK@RSA?9SHA1?92?$AA@ 000802a8     libeay32:obj_dat.obj
 0002:000182b4       ??_C@_08GOLKFMKI@md5?9sha1?$AA@ 000802b4     libeay32:obj_dat.obj
 0002:000182c0       ??_C@_08EMIDHKIH@MD5?9SHA1?$AA@ 000802c0     libeay32:obj_dat.obj
 0002:000182cc       ??_C@_0M@EFJKPOPH@dsaWithSHA1?$AA@ 000802cc     libeay32:obj_dat.obj
 0002:000182d8       ??_C@_08IOHJAANG@DSA?9SHA1?$AA@ 000802d8     libeay32:obj_dat.obj
 0002:000182e4       ??_C@_0BG@JCFINJGL@pbeWithMD5AndCast5CBC?$AA@ 000802e4     libeay32:obj_dat.obj
 0002:000182fc       ??_C@_09ECHHPLBP@cast5?9ofb?$AA@ 000802fc     libeay32:obj_dat.obj
 0002:00018308       ??_C@_09LEOLOMNK@CAST5?9OFB?$AA@ 00080308     libeay32:obj_dat.obj
 0002:00018314       ??_C@_09IKBEEKH@cast5?9cfb?$AA@ 00080314     libeay32:obj_dat.obj
 0002:00018320       ??_C@_09PODNFDGC@CAST5?9CFB?$AA@ 00080320     libeay32:obj_dat.obj
 0002:0001832c       ??_C@_09CLABNJJA@cast5?9ecb?$AA@ 0008032c     libeay32:obj_dat.obj
 0002:00018338       ??_C@_09NNJNMOFF@CAST5?9ECB?$AA@ 00080338     libeay32:obj_dat.obj
 0002:00018344       ??_C@_09BGLDNNDK@cast5?9cbc?$AA@ 00080344     libeay32:obj_dat.obj
 0002:00018350       ??_C@_09OACPMKPP@CAST5?9CBC?$AA@ 00080350     libeay32:obj_dat.obj
 0002:0001835c       ??_C@_0M@PPJNHBMP@description?$AA@ 0008035c     libeay32:obj_dat.obj
 0002:00018368       ??_C@_05PHLGJONK@title?$AA@ 00080368     libeay32:obj_dat.obj
 0002:00018370       ??_C@_0N@OMOHFKCJ@serialNumber?$AA@ 00080370     libeay32:obj_dat.obj
 0002:00018380       ??_C@_0L@CNDCBNIN@md5WithRSA?$AA@ 00080380     libeay32:obj_dat.obj
 0002:0001838c       ??_C@_0L@NACEPNFC@RSA?9NP?9MD5?$AA@ 0008038c     libeay32:obj_dat.obj
 0002:00018398       ??_C@_0BP@EGHJGANM@X509v3?5CRL?5Distribution?5Points?$AA@ 00080398     libeay32:obj_dat.obj
 0002:000183b8       ??_C@_0BG@CCHGOEBE@crlDistributionPoints?$AA@ 000803b8     libeay32:obj_dat.obj
 0002:000183d0       ??_C@_08PAKNLFON@initials?$AA@ 000803d0     libeay32:obj_dat.obj
 0002:000183dc       ??_C@_07LNKFHLHI@surname?$AA@ 000803dc     libeay32:obj_dat.obj
 0002:000183e4       ??_C@_02LONEIP@SN?$AA@     000803e4     libeay32:obj_dat.obj
 0002:000183e8       ??_C@_09GCBNJLNP@givenName?$AA@ 000803e8     libeay32:obj_dat.obj
 0002:000183f4       ??_C@_02BLJBNPCD@GN?$AA@   000803f4     libeay32:obj_dat.obj
 0002:000183f8       ??_C@_0L@CHEFJHBP@rc2?940?9cbc?$AA@ 000803f8     libeay32:obj_dat.obj
 0002:00018404       ??_C@_0L@ODHPNGGE@RC2?940?9CBC?$AA@ 00080404     libeay32:obj_dat.obj
 0002:00018410       ??_C@_06GNNJIOGN@rc4?940?$AA@ 00080410     libeay32:obj_dat.obj
 0002:00018418       ??_C@_06KFMILCMH@RC4?940?$AA@ 00080418     libeay32:obj_dat.obj
 0002:00018420       ??_C@_0M@HGGNEPNN@mdc2WithRSA?$AA@ 00080420     libeay32:obj_dat.obj
 0002:0001842c       ??_C@_08OMAMCKNL@RSA?9MDC2?$AA@ 0008042c     libeay32:obj_dat.obj
 0002:00018438       ??_C@_04ELNKPKEC@mdc2?$AA@ 00080438     libeay32:obj_dat.obj
 0002:00018440       ??_C@_04BCGEDMJI@MDC2?$AA@ 00080440     libeay32:obj_dat.obj
 0002:00018448       ??_C@_06OBJCCDFN@bf?9ofb?$AA@ 00080448     libeay32:obj_dat.obj
 0002:00018450       ??_C@_06CEHINCIL@BF?9OFB?$AA@ 00080450     libeay32:obj_dat.obj
 0002:00018458       ??_C@_06KLEEJMOF@bf?9cfb?$AA@ 00080458     libeay32:obj_dat.obj
 0002:00018460       ??_C@_06GOKOGNDD@BF?9CFB?$AA@ 00080460     libeay32:obj_dat.obj
 0002:00018468       ??_C@_06IIOEABNC@bf?9ecb?$AA@ 00080468     libeay32:obj_dat.obj
 0002:00018470       ??_C@_06ENAOPAAE@BF?9ECB?$AA@ 00080470     libeay32:obj_dat.obj
 0002:00018478       ??_C@_06LFFGAFHI@bf?9cbc?$AA@ 00080478     libeay32:obj_dat.obj
 0002:00018480       ??_C@_06HALMPEKO@BF?9CBC?$AA@ 00080480     libeay32:obj_dat.obj
 0002:00018488       ??_C@_0CA@GODCHEHD@X509v3?5Authority?5Key?5Identifier?$AA@ 00080488     libeay32:obj_dat.obj
 0002:000184a8       ??_C@_0BH@ICHFALGD@authorityKeyIdentifier?$AA@ 000804a8     libeay32:obj_dat.obj
 0002:000184c0       ??_C@_0BM@OOFGKLPK@X509v3?5Certificate?5Policies?$AA@ 000804c0     libeay32:obj_dat.obj
 0002:000184dc       ??_C@_0BE@OLMJNPEP@certificatePolicies?$AA@ 000804dc     libeay32:obj_dat.obj
 0002:000184f0       ??_C@_0BC@PCPNBDDJ@X509v3?5CRL?5Number?$AA@ 000804f0     libeay32:obj_dat.obj
 0002:00018504       ??_C@_09JDPHHKMA@crlNumber?$AA@ 00080504     libeay32:obj_dat.obj
 0002:00018510       ??_C@_0BJ@FBHDAJML@X509v3?5Basic?5Constraints?$AA@ 00080510     libeay32:obj_dat.obj
 0002:0001852c       ??_C@_0BB@IKNGJCLO@basicConstraints?$AA@ 0008052c     libeay32:obj_dat.obj
 0002:00018540       ??_C@_0BP@FMJCGPCG@X509v3?5Issuer?5Alternative?5Name?$AA@ 00080540     libeay32:obj_dat.obj
 0002:00018560       ??_C@_0O@DLIFHFCD@issuerAltName?$AA@ 00080560     libeay32:obj_dat.obj
 0002:00018570       ??_C@_0CA@OPCJJLNF@X509v3?5Subject?5Alternative?5Name?$AA@ 00080570     libeay32:obj_dat.obj
 0002:00018590       ??_C@_0P@EOFJHHKD@subjectAltName?$AA@ 00080590     libeay32:obj_dat.obj
 0002:000185a0       ??_C@_0CA@CLGHAMIP@X509v3?5Private?5Key?5Usage?5Period?$AA@ 000805a0     libeay32:obj_dat.obj
 0002:000185c0       ??_C@_0BG@JOIAJOMN@privateKeyUsagePeriod?$AA@ 000805c0     libeay32:obj_dat.obj
 0002:000185d8       ??_C@_0BB@BPPOKNBO@X509v3?5Key?5Usage?$AA@ 000805d8     libeay32:obj_dat.obj
 0002:000185ec       ??_C@_08BCICBOHF@keyUsage?$AA@ 000805ec     libeay32:obj_dat.obj
 0002:000185f8       ??_C@_0BO@ILPNOINJ@X509v3?5Subject?5Key?5Identifier?$AA@ 000805f8     libeay32:obj_dat.obj
 0002:00018618       ??_C@_0BF@MOEDIMBI@subjectKeyIdentifier?$AA@ 00080618     libeay32:obj_dat.obj
 0002:00018630       ??_C@_05NDHEMDL@id?9ce?$AA@ 00080630     libeay32:obj_dat.obj
 0002:00018638       ??_C@_08KPMCEEEO@desx?9cbc?$AA@ 00080638     libeay32:obj_dat.obj
 0002:00018644       ??_C@_08BBKPFFGN@DESX?9CBC?$AA@ 00080644     libeay32:obj_dat.obj
 0002:00018650       ??_C@_0BO@KKKBMKBD@Netscape?5Certificate?5Sequence?$AA@ 00080650     libeay32:obj_dat.obj
 0002:00018670       ??_C@_0P@OCCBBJKK@nsCertSequence?$AA@ 00080670     libeay32:obj_dat.obj
 0002:00018680       ??_C@_0BB@DCFBGIOA@Netscape?5Comment?$AA@ 00080680     libeay32:obj_dat.obj
 0002:00018694       ??_C@_09BALDFHMJ@nsComment?$AA@ 00080694     libeay32:obj_dat.obj
 0002:000186a0       ??_C@_0BJ@GMBLEMAL@Netscape?5SSL?5Server?5Name?$AA@ 000806a0     libeay32:obj_dat.obj
 0002:000186bc       ??_C@_0BA@KNOKNJNE@nsSslServerName?$AA@ 000806bc     libeay32:obj_dat.obj
 0002:000186cc       ??_C@_0BH@EMEFHLC@Netscape?5CA?5Policy?5Url?$AA@ 000806cc     libeay32:obj_dat.obj
 0002:000186e4       ??_C@_0O@DHDIMJD@nsCaPolicyUrl?$AA@ 000806e4     libeay32:obj_dat.obj
 0002:000186f4       ??_C@_0BF@FKENIIHB@Netscape?5Renewal?5Url?$AA@ 000806f4     libeay32:obj_dat.obj
 0002:0001870c       ??_C@_0N@JILHKMLM@nsRenewalUrl?$AA@ 0008070c     libeay32:obj_dat.obj
 0002:0001871c       ??_C@_0BL@EMOMOFDB@Netscape?5CA?5Revocation?5Url?$AA@ 0008071c     libeay32:obj_dat.obj
 0002:00018738       ??_C@_0BC@IKAPCMGG@nsCaRevocationUrl?$AA@ 00080738     libeay32:obj_dat.obj
 0002:0001874c       ??_C@_0BI@BCDINENC@Netscape?5Revocation?5Url?$AA@ 0008074c     libeay32:obj_dat.obj
 0002:00018764       ??_C@_0BA@DKPGPAKK@nsRevocationUrl?$AA@ 00080764     libeay32:obj_dat.obj
 0002:00018774       ??_C@_0BC@DIHCABP@Netscape?5Base?5Url?$AA@ 00080774     libeay32:obj_dat.obj
 0002:00018788       ??_C@_09OCIGDOMM@nsBaseUrl?$AA@ 00080788     libeay32:obj_dat.obj
 0002:00018794       ??_C@_0BD@NFPBEMEE@Netscape?5Cert?5Type?$AA@ 00080794     libeay32:obj_dat.obj
 0002:000187a8       ??_C@_0L@IICLKDNB@nsCertType?$AA@ 000807a8     libeay32:obj_dat.obj
 0002:000187b4       ??_C@_0BA@DDLLDHEM@dsaWithSHA1?9old?$AA@ 000807b4     libeay32:obj_dat.obj
 0002:000187c4       ??_C@_0N@ONIKBKNK@DSA?9SHA1?9old?$AA@ 000807c4     libeay32:obj_dat.obj
 0002:000187d4       ??_C@_06KBOEGBGA@PBKDF2?$AA@ 000807d4     libeay32:obj_dat.obj
 0002:000187dc       ??_C@_0BG@IBNNJING@pbeWithSHA1AndRC2?9CBC?$AA@ 000807dc     libeay32:obj_dat.obj
 0002:000187f4       ??_C@_0BA@KKPEMNGH@PBE?9SHA1?9RC2?964?$AA@ 000807f4     libeay32:obj_dat.obj
 0002:00018804       ??_C@_0BC@FFHHBCCH@dsaEncryption?9old?$AA@ 00080804     libeay32:obj_dat.obj
 0002:00018818       ??_C@_07PLHLFGGF@DSA?9old?$AA@ 00080818     libeay32:obj_dat.obj
 0002:00018820       ??_C@_0L@BEHMICBH@dsaWithSHA?$AA@ 00080820     libeay32:obj_dat.obj
 0002:0001882c       ??_C@_07JGDBCPKH@DSA?9SHA?$AA@ 0008082c     libeay32:obj_dat.obj
 0002:00018834       ??_C@_0BG@DALFFFBE@sha1WithRSAEncryption?$AA@ 00080834     libeay32:obj_dat.obj
 0002:0001884c       ??_C@_08FBKDDLCN@RSA?9SHA1?$AA@ 0008084c     libeay32:obj_dat.obj
 0002:00018858       ??_C@_04PGHFOLLE@sha1?$AA@ 00080858     libeay32:obj_dat.obj
 0002:00018860       ??_C@_04KPMLCNGO@SHA1?$AA@ 00080860     libeay32:obj_dat.obj
 0002:00018868       ??_C@_0N@LODGAID@des?9ede3?9ofb?$AA@ 00080868     libeay32:obj_dat.obj
 0002:00018878       ??_C@_0N@JPPBGLEM@DES?9EDE3?9OFB?$AA@ 00080878     libeay32:obj_dat.obj
 0002:00018888       ??_C@_0M@BOHDOFGF@des?9ede?9ofb?$AA@ 00080888     libeay32:obj_dat.obj
 0002:00018894       ??_C@_0M@PDBPCBBK@DES?9EDE?9OFB?$AA@ 00080894     libeay32:obj_dat.obj
 0002:000188a0       ??_C@_0N@EBDFNPDL@des?9ede3?9cfb?$AA@ 000808a0     libeay32:obj_dat.obj
 0002:000188b0       ??_C@_0N@NFCHNEPE@DES?9EDE3?9CFB?$AA@ 000808b0     libeay32:obj_dat.obj
 0002:000188c0       ??_C@_0M@FEKFFKNN@des?9ede?9cfb?$AA@ 000808c0     libeay32:obj_dat.obj
 0002:000188cc       ??_C@_0M@LJMJJOKC@DES?9EDE?9CFB?$AA@ 000808cc     libeay32:obj_dat.obj
 0002:000188d8       ??_C@_0BD@JJEILMNP@Netscape?5Data?5Type?$AA@ 000808d8     libeay32:obj_dat.obj
 0002:000188ec       ??_C@_0L@FIMLGGPA@nsDataType?$AA@ 000808ec     libeay32:obj_dat.obj
 0002:000188f8       ??_C@_0BP@LHPGKGFM@Netscape?5Certificate?5Extension?$AA@ 000808f8     libeay32:obj_dat.obj
 0002:00018918       ??_C@_09JDCKDNMG@nsCertExt?$AA@ 00080918     libeay32:obj_dat.obj
 0002:00018924       ??_C@_0BO@IAIBEBGO@Netscape?5Communications?5Corp?4?$AA@ 00080924     libeay32:obj_dat.obj
 0002:00018944       ??_C@_08BDEPHMAF@Netscape?$AA@ 00080944     libeay32:obj_dat.obj
 0002:00018950       ??_C@_0BO@LDCCNBPE@extendedCertificateAttributes?$AA@ 00080950     libeay32:obj_dat.obj
 0002:00018970       ??_C@_0BE@MACPCAPF@unstructuredAddress?$AA@ 00080970     libeay32:obj_dat.obj
 0002:00018984       ??_C@_0BC@OKHONEEM@challengePassword?$AA@ 00080984     libeay32:obj_dat.obj
 0002:00018998       ??_C@_0BB@IPFGMODP@countersignature?$AA@ 00080998     libeay32:obj_dat.obj
 0002:000189ac       ??_C@_0M@IJBJCCMP@signingTime?$AA@ 000809ac     libeay32:obj_dat.obj
 0002:000189b8       ??_C@_0O@JDGJDGC@messageDigest?$AA@ 000809b8     libeay32:obj_dat.obj
 0002:000189c8       ??_C@_0M@DOEFOEJD@contentType?$AA@ 000809c8     libeay32:obj_dat.obj
 0002:000189d4       ??_C@_0BB@CJIILOEM@unstructuredName?$AA@ 000809d4     libeay32:obj_dat.obj
 0002:000189e8       ??_C@_0N@IHLBAGEP@emailAddress?$AA@ 000809e8     libeay32:obj_dat.obj
 0002:000189f8       ??_C@_05NKFNBGJP@pkcs9?$AA@ 000809f8     libeay32:obj_dat.obj
 0002:00018a00       ??_C@_08OGDEHPAF@idea?9ofb?$AA@ 00080a00     libeay32:obj_dat.obj
 0002:00018a0c       ??_C@_08FIFJGOCG@IDEA?9OFB?$AA@ 00080a0c     libeay32:obj_dat.obj
 0002:00018a18       ??_C@_07NLMBCAKN@des?9ofb?$AA@ 00080a18     libeay32:obj_dat.obj
 0002:00018a20       ??_C@_07OHFNLDCN@DES?9OFB?$AA@ 00080a20     libeay32:obj_dat.obj
 0002:00018a28       ??_C@_0N@FPCHEGKG@des?9ede3?9cbc?$AA@ 00080a28     libeay32:obj_dat.obj
 0002:00018a38       ??_C@_0N@MLDFENGJ@DES?9EDE3?9CBC?$AA@ 00080a38     libeay32:obj_dat.obj
 0002:00018a48       ??_C@_0M@EKLHMDEA@des?9ede?9cbc?$AA@ 00080a48     libeay32:obj_dat.obj
 0002:00018a54       ??_C@_0M@KHNLAHDP@DES?9EDE?9CBC?$AA@ 00080a54     libeay32:obj_dat.obj
 0002:00018a60       ??_C@_0BF@LIDINENF@shaWithRSAEncryption?$AA@ 00080a60     libeay32:obj_dat.obj
 0002:00018a78       ??_C@_07CMOFBHAL@RSA?9SHA?$AA@ 00080a78     libeay32:obj_dat.obj
 0002:00018a80       ??_C@_03JNBDOPOP@sha?$AA@  00080a80     libeay32:obj_dat.obj
 0002:00018a84       ??_C@_03JAOICCJD@SHA?$AA@  00080a84     libeay32:obj_dat.obj
 0002:00018a88       ??_C@_07MGMBPEPC@rc2?9ofb?$AA@ 00080a88     libeay32:obj_dat.obj
 0002:00018a90       ??_C@_07PNPBGCEE@RC2?9OFB?$AA@ 00080a90     libeay32:obj_dat.obj
 0002:00018a98       ??_C@_07IMBHELEK@rc2?9cfb?$AA@ 00080a98     libeay32:obj_dat.obj
 0002:00018aa0       ??_C@_07LHCHNNPM@RC2?9CFB?$AA@ 00080aa0     libeay32:obj_dat.obj
 0002:00018aa8       ??_C@_07KPLHNGHN@rc2?9ecb?$AA@ 00080aa8     libeay32:obj_dat.obj
 0002:00018ab0       ??_C@_07JEIHEAML@RC2?9ECB?$AA@ 00080ab0     libeay32:obj_dat.obj
 0002:00018ab8       ??_C@_07JCAFNCNH@rc2?9cbc?$AA@ 00080ab8     libeay32:obj_dat.obj
 0002:00018ac0       ??_C@_07KJDFEEGB@RC2?9CBC?$AA@ 00080ac0     libeay32:obj_dat.obj
 0002:00018ac8       ??_C@_08IPECFNIK@idea?9ecb?$AA@ 00080ac8     libeay32:obj_dat.obj
 0002:00018ad4       ??_C@_08DBCPEMKJ@IDEA?9ECB?$AA@ 00080ad4     libeay32:obj_dat.obj
 0002:00018ae0       ??_C@_08KMOCMALN@idea?9cfb?$AA@ 00080ae0     libeay32:obj_dat.obj
 0002:00018aec       ??_C@_08BCIPNBJO@IDEA?9CFB?$AA@ 00080aec     libeay32:obj_dat.obj
 0002:00018af8       ??_C@_08LCPAFJCA@idea?9cbc?$AA@ 00080af8     libeay32:obj_dat.obj
 0002:00018b04       ??_C@_08MJNEIAD@IDEA?9CBC?$AA@ 00080b04     libeay32:obj_dat.obj
 0002:00018b10       ??_C@_08LJCBLNOK@des?9ede3?$AA@ 00080b10     libeay32:obj_dat.obj
 0002:00018b1c       ??_C@_08FEKFKCFJ@DES?9EDE3?$AA@ 00080b1c     libeay32:obj_dat.obj
 0002:00018b28       ??_C@_07PILJICGA@des?9ede?$AA@ 00080b28     libeay32:obj_dat.obj
 0002:00018b30       ??_C@_07MECFBBOA@DES?9EDE?$AA@ 00080b30     libeay32:obj_dat.obj
 0002:00018b38       ??_C@_07IPAFAGII@des?9cbc?$AA@ 00080b38     libeay32:obj_dat.obj
 0002:00018b40       ??_C@_07LDJJJFAI@DES?9CBC?$AA@ 00080b40     libeay32:obj_dat.obj
 0002:00018b48       ??_C@_07JBBHJPBF@des?9cfb?$AA@ 00080b48     libeay32:obj_dat.obj
 0002:00018b50       ??_C@_07KNILAMJF@DES?9CFB?$AA@ 00080b50     libeay32:obj_dat.obj
 0002:00018b58       ??_C@_07LCLHACCC@des?9ecb?$AA@ 00080b58     libeay32:obj_dat.obj
 0002:00018b60       ??_C@_07IOCLJBKC@DES?9ECB?$AA@ 00080b60     libeay32:obj_dat.obj
 0002:00018b68       ??_C@_0P@HCMIBBEB@dhKeyAgreement?$AA@ 00080b68     libeay32:obj_dat.obj
 0002:00018b78       ??_C@_05CALCPOBF@pkcs3?$AA@ 00080b78     libeay32:obj_dat.obj
 0002:00018b80       ??_C@_0BE@CAMKAFJN@pkcs7?9encryptedData?$AA@ 00080b80     libeay32:obj_dat.obj
 0002:00018b94       ??_C@_0BB@CJNFBHDI@pkcs7?9digestData?$AA@ 00080b94     libeay32:obj_dat.obj
 0002:00018ba8       ??_C@_0BN@LMEEMCPG@pkcs7?9signedAndEnvelopedData?$AA@ 00080ba8     libeay32:obj_dat.obj
 0002:00018bc8       ??_C@_0BE@FAIIHMP@pkcs7?9envelopedData?$AA@ 00080bc8     libeay32:obj_dat.obj
 0002:00018bdc       ??_C@_0BB@PEKKHBEJ@pkcs7?9signedData?$AA@ 00080bdc     libeay32:obj_dat.obj
 0002:00018bf0       ??_C@_0L@BCKMJOMA@pkcs7?9data?$AA@ 00080bf0     libeay32:obj_dat.obj
 0002:00018bfc       ??_C@_05EENODLBB@pkcs7?$AA@ 00080bfc     libeay32:obj_dat.obj
 0002:00018c04       ??_C@_03DICHAJGH@RSA?$AA@  00080c04     libeay32:obj_dat.obj
 0002:00018c08       ??_C@_0BH@LAMMAAM@organizationalUnitName?$AA@ 00080c08     libeay32:obj_dat.obj
 0002:00018c20       ??_C@_02LMLEEFAB@OU?$AA@   00080c20     libeay32:obj_dat.obj
 0002:00018c24       ??_C@_0BB@GBCNPHLL@organizationName?$AA@ 00080c24     libeay32:obj_dat.obj
 0002:00018c38       ??_C@_01MJMHLOMK@O?$AA@    00080c38     libeay32:obj_dat.obj
 0002:00018c3c       ??_C@_0BE@NKDCJFMD@stateOrProvinceName?$AA@ 00080c3c     libeay32:obj_dat.obj
 0002:00018c50       ??_C@_02LAJDCOFE@ST?$AA@   00080c50     libeay32:obj_dat.obj
 0002:00018c54       ??_C@_0N@LEDCGGBI@localityName?$AA@ 00080c54     libeay32:obj_dat.obj
 0002:00018c64       ??_C@_01OCOKONAJ@L?$AA@    00080c64     libeay32:obj_dat.obj
 0002:00018c68       ??_C@_0M@NPBHECMC@countryName?$AA@ 00080c68     libeay32:obj_dat.obj
 0002:00018c74       ??_C@_01GFHCPBMG@C?$AA@    00080c74     libeay32:obj_dat.obj
 0002:00018c78       ??_C@_0L@OILMNBLH@commonName?$AA@ 00080c78     libeay32:obj_dat.obj
 0002:00018c84       ??_C@_02BMJIHHPP@CN?$AA@   00080c84     libeay32:obj_dat.obj
 0002:00018c88       ??_C@_04NMKEOMFB@X509?$AA@ 00080c88     libeay32:obj_dat.obj
 0002:00018c90       ??_C@_0BL@NJHHPHOL@directory?5services?5?$CIX?4500?$CJ?$AA@ 00080c90     libeay32:obj_dat.obj
 0002:00018cac       ??_C@_04NGGFHBI@X500?$AA@  00080cac     libeay32:obj_dat.obj
 0002:00018cb4       ??_C@_0BF@DAJHPIMK@pbeWithMD5AndDES?9CBC?$AA@ 00080cb4     libeay32:obj_dat.obj
 0002:00018ccc       ??_C@_0M@KBNDBPIJ@PBE?9MD5?9DES?$AA@ 00080ccc     libeay32:obj_dat.obj
 0002:00018cd8       ??_C@_0BF@EEAPBBEF@pbeWithMD2AndDES?9CBC?$AA@ 00080cd8     libeay32:obj_dat.obj
 0002:00018cf0       ??_C@_0M@LMNGCPDB@PBE?9MD2?9DES?$AA@ 00080cf0     libeay32:obj_dat.obj
 0002:00018cfc       ??_C@_0BF@EEAHCNKC@md5WithRSAEncryption?$AA@ 00080cfc     libeay32:obj_dat.obj
 0002:00018d14       ??_C@_07NOGKHCDB@RSA?9MD5?$AA@ 00080d14     libeay32:obj_dat.obj
 0002:00018d1c       ??_C@_0BF@ODJKGOJ@md2WithRSAEncryption?$AA@ 00080d1c     libeay32:obj_dat.obj
 0002:00018d34       ??_C@_07JBCLOEPG@RSA?9MD2?$AA@ 00080d34     libeay32:obj_dat.obj
 0002:00018d3c       ??_C@_0O@PCHNMHJE@rsaEncryption?$AA@ 00080d3c     libeay32:obj_dat.obj
 0002:00018d4c       ??_C@_03OODGMOHK@rc4?$AA@  00080d4c     libeay32:obj_dat.obj
 0002:00018d50       ??_C@_03HGEJCHKE@RC4?$AA@  00080d50     libeay32:obj_dat.obj
 0002:00018d54       ??_C@_03PKBIKOHH@md5?$AA@  00080d54     libeay32:obj_dat.obj
 0002:00018d58       ??_C@_03GCGHEHKJ@MD5?$AA@  00080d58     libeay32:obj_dat.obj
 0002:00018d5c       ??_C@_03LFFJDILA@md2?$AA@  00080d5c     libeay32:obj_dat.obj
 0002:00018d60       ??_C@_03CNCGNBGO@MD2?$AA@  00080d60     libeay32:obj_dat.obj
 0002:00018d64       ??_C@_0BN@EBHJCEC@RSA?5Data?5Security?0?5Inc?4?5PKCS?$AA@ 00080d64     libeay32:obj_dat.obj
 0002:00018d84       ??_C@_04GCKLMHGD@pkcs?$AA@ 00080d84     libeay32:obj_dat.obj
 0002:00018d8c       ??_C@_0BI@MPBNCOIB@RSA?5Data?5Security?0?5Inc?4?$AA@ 00080d8c     libeay32:obj_dat.obj
 0002:00018da4       ??_C@_06GGEMKGKC@rsadsi?$AA@ 00080da4     libeay32:obj_dat.obj
 0002:00018dac       ??_C@_09MLGAJAED@undefined?$AA@ 00080dac     libeay32:obj_dat.obj
 0002:00018db8       ??_C@_05DBLJEJPC@UNDEF?$AA@ 00080db8     libeay32:obj_dat.obj
 0002:00018dc0       ??_C@_0FB@EJHIDBFI@d?3?2wm653wehh?2platform?2mvv210?2src@ 00080dc0     libeay32:obj_dat.obj
 0002:00018e14       ??_C@_04MDEFHJHM@?4?$CFlu?$AA@ 00080e14     libeay32:obj_dat.obj
 0002:00018e20       ??_C@_0FB@FHJDMCII@d?3?2wm653wehh?2platform?2mvv210?2src@ 00080e20     libeay32:eng_init.obj
 0002:00018e74       RAND_version               00080e74     libeay32:md_rand.obj
 0002:00018ea0       ??_C@_0EO@OKPIHEJM@d?3?2wm653wehh?2platform?2mvv210?2src@ 00080ea0     libeay32:md_rand.obj
 0002:00018ef0       ??_C@_0EK@MHBHPLPP@You?5need?5to?5read?5the?5OpenSSL?5FAQ@ 00080ef0     libeay32:md_rand.obj
 0002:00018f3c       ??_C@_0BF@KNMHCCP@?4?4?4?4?4?4?4?4?4?4?4?4?4?4?4?4?4?4?4?4?$AA@ 00080f3c     libeay32:md_rand.obj
 0002:00018f58       cmac_asn1_meth             00080f58     libeay32:cm_ameth.obj
 0002:00018fc4       ??_C@_0BE@GBIGMENL@OpenSSL?5CMAC?5method?$AA@ 00080fc4     libeay32:cm_ameth.obj
 0002:00018fd8       hmac_asn1_meth             00080fd8     libeay32:hm_ameth.obj
 0002:00019044       ??_C@_0BE@BABEGANF@OpenSSL?5HMAC?5method?$AA@ 00081044     libeay32:hm_ameth.obj
 0002:00019058       ??_C@_0EP@LPMJCFIA@d?3?2wm653wehh?2platform?2mvv210?2src@ 00081058     libeay32:hm_ameth.obj
 0002:000190a8       eckey_asn1_meth            000810a8     libeay32:ec_ameth.obj
 0002:00019114       ??_C@_0BF@DKDIFOGG@OpenSSL?5EC?5algorithm?$AA@ 00081114     libeay32:ec_ameth.obj
 0002:0001912c       ??_C@_02KNLLHFAA@EC?$AA@   0008112c     libeay32:ec_ameth.obj
 0002:00019130       ??_C@_0EN@OGHGAGHH@d?3?2wm653wehh?2platform?2mvv210?2src@ 00081130     libeay32:ec_ameth.obj
 0002:00019180       ??_C@_05FJHKEHEO@pub?3?5?$AA@ 00081180     libeay32:ec_ameth.obj
 0002:00019188       ??_C@_05PFPGJCCA@priv?3?$AA@ 00081188     libeay32:ec_ameth.obj
 0002:00019190       ??_C@_0O@OPPPNLCD@?$CFs?3?5?$CI?$CFd?5bit?$CJ?6?$AA@ 00081190     libeay32:ec_ameth.obj
 0002:000191a0       ??_C@_0BB@DMDKLH@ECDSA?9Parameters?$AA@ 000811a0     libeay32:ec_ameth.obj
 0002:000191b4       ??_C@_0L@FMJMEKAC@Public?9Key?$AA@ 000811b4     libeay32:ec_ameth.obj
 0002:000191c0       ??_C@_0M@CJKOCIEC@Private?9Key?$AA@ 000811c0     libeay32:ec_ameth.obj
 0002:000191d0       dsa_asn1_meths             000811d0     libeay32:dsa_ameth.obj
 0002:000193ec       ??_C@_0BD@IBKHKBJA@OpenSSL?5DSA?5method?$AA@ 000813ec     libeay32:dsa_ameth.obj
 0002:00019400       ??_C@_0EP@BEDNKKJD@d?3?2wm653wehh?2platform?2mvv210?2src@ 00081400     libeay32:dsa_ameth.obj
 0002:00019450       ??_C@_05LKAKAJND@G?3?5?5?5?$AA@ 00081450     libeay32:dsa_ameth.obj
 0002:00019458       ??_C@_05GPIFOIFF@Q?3?5?5?5?$AA@ 00081458     libeay32:dsa_ameth.obj
 0002:00019460       ??_C@_05KENJDLPA@P?3?5?5?5?$AA@ 00081460     libeay32:dsa_ameth.obj
 0002:00019468       ??_C@_0P@LAFOADJN@DSA?9Parameters?$AA@ 00081468     libeay32:dsa_ameth.obj
 0002:00019478       ??_C@_05CFOBEMGI@s?3?5?5?5?$AA@ 00081478     libeay32:dsa_ameth.obj
 0002:00019480       ??_C@_05OOLNJPMN@r?3?5?5?5?$AA@ 00081480     libeay32:dsa_ameth.obj
 0002:00019488       ??_C@_01EEMJAFIK@?6?$AA@   00081488     libeay32:dsa_ameth.obj
 0002:00019490       dh_asn1_meth               00081490     libeay32:dh_ameth.obj
 0002:000194fc       ??_C@_0BJ@OPGBMMOB@OpenSSL?5PKCS?$CD3?5DH?5method?$AA@ 000814fc     libeay32:dh_ameth.obj
 0002:00019518       ??_C@_02EPINMGPM@DH?$AA@   00081518     libeay32:dh_ameth.obj
 0002:00019520       ??_C@_0EN@KFNOHMJF@d?3?2wm653wehh?2platform?2mvv210?2src@ 00081520     libeay32:dh_ameth.obj
 0002:00019570       ??_C@_0CF@KKPEILHE@recommended?9private?9length?3?5?$CFd?5b@ 00081570     libeay32:dh_ameth.obj
 0002:00019598       ??_C@_0L@HDGHCIJF@generator?3?$AA@ 00081598     libeay32:dh_ameth.obj
 0002:000195a4       ??_C@_06POMKLBDA@prime?3?$AA@ 000815a4     libeay32:dh_ameth.obj
 0002:000195ac       ??_C@_0M@BCALNHOD@public?9key?3?$AA@ 000815ac     libeay32:dh_ameth.obj
 0002:000195b8       ??_C@_0N@MPONDEBM@private?9key?3?$AA@ 000815b8     libeay32:dh_ameth.obj
 0002:000195c8       ??_C@_0BF@HJBOBPFM@PKCS?$CD3?5DH?5Parameters?$AA@ 000815c8     libeay32:dh_ameth.obj
 0002:000195e0       ??_C@_0BF@NEOAIGKI@PKCS?$CD3?5DH?5Public?9Key?$AA@ 000815e0     libeay32:dh_ameth.obj
 0002:000195f8       ??_C@_0BG@BPCFBOHI@PKCS?$CD3?5DH?5Private?9Key?$AA@ 000815f8     libeay32:dh_ameth.obj
 0002:00019610       rsa_asn1_meths             00081610     libeay32:rsa_ameth.obj
 0002:000196e8       ??_C@_0BD@MHOEKPBI@OpenSSL?5RSA?5method?$AA@ 000816e8     libeay32:rsa_ameth.obj
 0002:00019700       ??_C@_0EP@ECKOLFPF@d?3?2wm653wehh?2platform?2mvv210?2src@ 00081700     libeay32:rsa_ameth.obj
 0002:00019750       ??_C@_0N@GNAMJPHF@coefficient?3?$AA@ 00081750     libeay32:rsa_ameth.obj
 0002:00019760       ??_C@_0L@OKKEHIPG@exponent2?3?$AA@ 00081760     libeay32:rsa_ameth.obj
 0002:0001976c       ??_C@_0L@OIOCMGKP@exponent1?3?$AA@ 0008176c     libeay32:rsa_ameth.obj
 0002:00019778       ??_C@_07NJNHFNM@prime2?3?$AA@ 00081778     libeay32:rsa_ameth.obj
 0002:00019780       ??_C@_07PNLMLIF@prime1?3?$AA@ 00081780     libeay32:rsa_ameth.obj
 0002:00019788       ??_C@_0BB@NFOLHHHJ@privateExponent?3?$AA@ 00081788     libeay32:rsa_ameth.obj
 0002:0001979c       ??_C@_08GIMLILAA@Modulus?3?$AA@ 0008179c     libeay32:rsa_ameth.obj
 0002:000197a8       ??_C@_09DALHJPOO@Exponent?3?$AA@ 000817a8     libeay32:rsa_ameth.obj
 0002:000197b4       ??_C@_0BG@HAJOCCOP@Public?9Key?3?5?$CI?$CFd?5bit?$CJ?6?$AA@ 000817b4     libeay32:rsa_ameth.obj
 0002:000197cc       ??_C@_08OKDKAJKD@modulus?3?$AA@ 000817cc     libeay32:rsa_ameth.obj
 0002:000197d8       ??_C@_0BA@FAAMOFHC@publicExponent?3?$AA@ 000817d8     libeay32:rsa_ameth.obj
 0002:000197e8       ??_C@_0BH@JHLDJION@Private?9Key?3?5?$CI?$CFd?5bit?$CJ?6?$AA@ 000817e8     libeay32:rsa_ameth.obj
 0002:00019800       ??_C@_0P@DDPOEOJA@0xbc?5?$CIdefault?$CJ?$AA@ 00081800     libeay32:rsa_ameth.obj
 0002:00019810       ??_C@_0BA@LIMPMLCB@Trailer?5Field?3?5?$AA@ 00081810     libeay32:rsa_ameth.obj
 0002:00019820       ??_C@_0N@LMKHLINK@20?5?$CIdefault?$CJ?$AA@ 00081820     libeay32:rsa_ameth.obj
 0002:00019830       ??_C@_0O@KKNIODBM@Salt?5Length?3?5?$AA@ 00081830     libeay32:rsa_ameth.obj
 0002:00019840       ??_C@_0BJ@NNFOENLD@mgf1?5with?5sha1?5?$CIdefault?$CJ?$AA@ 00081840     libeay32:rsa_ameth.obj
 0002:0001985c       ??_C@_07DNODLGKM@INVALID?$AA@ 0008185c     libeay32:rsa_ameth.obj
 0002:00019864       ??_C@_06BIDGLIKJ@?5with?5?$AA@ 00081864     libeay32:rsa_ameth.obj
 0002:0001986c       ??_C@_0BB@HEAMLCPA@Mask?5Algorithm?3?5?$AA@ 0008186c     libeay32:rsa_ameth.obj
 0002:00019880       ??_C@_0P@ODEAMLKF@sha1?5?$CIdefault?$CJ?$AA@ 00081880     libeay32:rsa_ameth.obj
 0002:00019890       ??_C@_0BB@PMMDHLKH@Hash?5Algorithm?3?5?$AA@ 00081890     libeay32:rsa_ameth.obj
 0002:000198a4       ??_C@_0BL@KMBKPBGM@?5?$CIINVALID?5PSS?5PARAMETERS?$CJ?6?$AA@ 000818a4     libeay32:rsa_ameth.obj
 0002:000198c0       cmac_pkey_meth             000818c0     libeay32:cm_pmeth.obj
 0002:0001992c       ??_C@_06BHJHKMJC@hexkey?$AA@ 0008192c     libeay32:cm_pmeth.obj
 0002:00019934       ??_C@_06KDGDAFPH@cipher?$AA@ 00081934     libeay32:cm_pmeth.obj
 0002:0001993c       ??_C@_03ICHNJLJF@key?$AA@  0008193c     libeay32:cm_pmeth.obj
 0002:00019940       hmac_pkey_meth             00081940     libeay32:hm_pmeth.obj
 0002:000199b0       ??_C@_0EP@PNIBEDF@d?3?2wm653wehh?2platform?2mvv210?2src@ 000819b0     libeay32:hm_pmeth.obj
 0002:00019a00       ec_pkey_meth               00081a00     libeay32:ec_pmeth.obj
 0002:00019a70       ??_C@_0EN@FGGHDHMC@d?3?2wm653wehh?2platform?2mvv210?2src@ 00081a70     libeay32:ec_pmeth.obj
 0002:00019ac0       ??_C@_0BC@BLCJLNNM@ec_paramgen_curve?$AA@ 00081ac0     libeay32:ec_pmeth.obj
 0002:00019ad8       dsa_pkey_meth              00081ad8     libeay32:dsa_pmeth.obj
 0002:00019b48       ??_C@_0EP@KECMJLCG@d?3?2wm653wehh?2platform?2mvv210?2src@ 00081b48     libeay32:dsa_pmeth.obj
 0002:00019b98       ??_C@_0BA@HDLNDIMK@dsa_paramgen_md?$AA@ 00081b98     libeay32:dsa_pmeth.obj
 0002:00019ba8       ??_C@_0BE@JHBKDNPA@dsa_paramgen_q_bits?$AA@ 00081ba8     libeay32:dsa_pmeth.obj
 0002:00019bbc       ??_C@_0BC@DOMHFBFC@dsa_paramgen_bits?$AA@ 00081bbc     libeay32:dsa_pmeth.obj
 0002:00019bd0       dh_pkey_meth               00081bd0     libeay32:dh_pmeth.obj
 0002:00019c40       ??_C@_0EN@BFMPENCA@d?3?2wm653wehh?2platform?2mvv210?2src@ 00081c40     libeay32:dh_pmeth.obj
 0002:00019c90       ??_C@_0BG@POLEFOHA@dh_paramgen_generator?$AA@ 00081c90     libeay32:dh_pmeth.obj
 0002:00019ca8       ??_C@_0BG@LEMCDPBI@dh_paramgen_prime_len?$AA@ 00081ca8     libeay32:dh_pmeth.obj
 0002:00019cc0       rsa_pkey_meth              00081cc0     libeay32:rsa_pmeth.obj
 0002:00019d30       ??_C@_0EP@PCLPIEEA@d?3?2wm653wehh?2platform?2mvv210?2src@ 00081d30     libeay32:rsa_pmeth.obj
 0002:00019d80       ??_C@_0BC@DMECNPFD@rsa_keygen_pubexp?$AA@ 00081d80     libeay32:rsa_pmeth.obj
 0002:00019d94       ??_C@_0BA@GFPKPLAF@rsa_keygen_bits?$AA@ 00081d94     libeay32:rsa_pmeth.obj
 0002:00019da4       ??_C@_0BA@CIHMEEHB@rsa_pss_saltlen?$AA@ 00081da4     libeay32:rsa_pmeth.obj
 0002:00019db4       ??_C@_04JNCMEILM@x931?$AA@ 00081db4     libeay32:rsa_pmeth.obj
 0002:00019dbc       ??_C@_04EIGNDHKO@oeap?$AA@ 00081dbc     libeay32:rsa_pmeth.obj
 0002:00019dc4       ??_C@_04CGFJFPFD@none?$AA@ 00081dc4     libeay32:rsa_pmeth.obj
 0002:00019dcc       ??_C@_06PDLHKEJK@sslv23?$AA@ 00081dcc     libeay32:rsa_pmeth.obj
 0002:00019dd4       ??_C@_0BB@BILFEOKG@rsa_padding_mode?$AA@ 00081dd4     libeay32:rsa_pmeth.obj
 0002:00019de8       ??_C@_0EL@PAPNDPGN@d?3?2wm653wehh?2platform?2mvv210?2src@ 00081de8     libeay32:p_lib.obj
 0002:00019e38       ??_C@_0EP@EOLMKMCC@d?3?2wm653wehh?2platform?2mvv210?2src@ 00081e38     libeay32:a_object.obj
 0002:00019e88       ??_C@_09OJNEAJGG@?$DMINVALID?$DO?$AA@ 00081e88     libeay32:a_object.obj
 0002:00019e98       ??_C@_0FB@OACJPALH@d?3?2wm653wehh?2platform?2mvv210?2src@ 00081e98     libeay32:obj_lib.obj
 0002:00019f00       ??_C@_0EN@HOIICIBH@d?3?2wm653wehh?2platform?2mvv210?2src@ 00081f00     libeay32:bn_print.obj
 0002:00019f50       ??_C@_04LJCFADJL@?$CF09u?$AA@ 00081f50     libeay32:bn_print.obj
 0002:00019f58       ??_C@_02GMHACPFF@?$CFu?$AA@ 00081f58     libeay32:bn_print.obj
 0002:00019f5c       ??_C@_01JOAMLHOP@?9?$AA@   00081f5c     libeay32:bn_print.obj
 0002:00019f78       BN_version                 00081f78     libeay32:bn_lib.obj
 0002:0001a0a8       ??_C@_0EL@EKPDCIGL@d?3?2wm653wehh?2platform?2mvv210?2src@ 000820a8     libeay32:bn_lib.obj
 0002:0001a0f4       ASN1_version               000820f4     libeay32:asn1_lib.obj
 0002:0001a120       ??_C@_0EP@DFJJGEMF@d?3?2wm653wehh?2platform?2mvv210?2src@ 00082120     libeay32:asn1_lib.obj
 0002:0001a170       ??_C@_0EM@DLBKEKNP@d?3?2wm653wehh?2platform?2mvv210?2src@ 00082170     libeay32:digest.obj
 0002:0001a1bc       ??_C@_0CI@KPJFNDOF@ctx?9?$DOdigest?9?$DOmd_size?5?$DM?$DN?5EVP_MAX_@ 000821bc     libeay32:digest.obj
 0002:0001a378       ??_C@_0EL@CJHJHLOJ@d?3?2wm653wehh?2platform?2mvv210?2src@ 00082378     libeay32:cmac.obj
 0002:0001a6e0       ??_C@_0N@KHICOJGI@ASN1_SET_ANY?$AA@ 000826e0     libeay32:tasn_typ.obj
 0002:0001a6f0       ??_C@_0BC@COPGMDLD@ASN1_SEQUENCE_ANY?$AA@ 000826f0     libeay32:tasn_typ.obj
 0002:0001a704       ??_C@_0BH@HEBAELGA@ASN1_OCTET_STRING_NDEF?$AA@ 00082704     libeay32:tasn_typ.obj
 0002:0001a71c       ??_C@_0O@JKANHMPI@ASN1_FBOOLEAN?$AA@ 0008271c     libeay32:tasn_typ.obj
 0002:0001a72c       ??_C@_0O@BIDLBGAP@ASN1_TBOOLEAN?$AA@ 0008272c     libeay32:tasn_typ.obj
 0002:0001a73c       ??_C@_0N@HMAPMMGF@ASN1_BOOLEAN?$AA@ 0008273c     libeay32:tasn_typ.obj
 0002:0001a74c       ??_C@_0BA@CBHCBCAE@DIRECTORYSTRING?$AA@ 0008274c     libeay32:tasn_typ.obj
 0002:0001a75c       ??_C@_0M@FANFDIEE@DISPLAYTEXT?$AA@ 0008275c     libeay32:tasn_typ.obj
 0002:0001a768       ??_C@_0P@NDKOCAEJ@ASN1_PRINTABLE?$AA@ 00082768     libeay32:tasn_typ.obj
 0002:0001a778       ??_C@_0O@NJFCFMGE@ASN1_SEQUENCE?$AA@ 00082778     libeay32:tasn_typ.obj
 0002:0001a788       ??_C@_08FIDCPDIJ@ASN1_ANY?$AA@ 00082788     libeay32:tasn_typ.obj
 0002:0001a794       ??_C@_0P@CHICPHIN@ASN1_BMPSTRING?$AA@ 00082794     libeay32:tasn_typ.obj
 0002:0001a7a4       ??_C@_0BF@DMDDFBNJ@ASN1_UNIVERSALSTRING?$AA@ 000827a4     libeay32:tasn_typ.obj
 0002:0001a7bc       ??_C@_0BD@HMMCNBGD@ASN1_VISIBLESTRING?$AA@ 000827bc     libeay32:tasn_typ.obj
 0002:0001a7d0       ??_C@_0BF@MPJFOIHC@ASN1_GENERALIZEDTIME?$AA@ 000827d0     libeay32:tasn_typ.obj
 0002:0001a7e8       ??_C@_0N@OIMCLPEM@ASN1_UTCTIME?$AA@ 000827e8     libeay32:tasn_typ.obj
 0002:0001a7f8       ??_C@_0BD@EMMGLGMD@ASN1_GENERALSTRING?$AA@ 000827f8     libeay32:tasn_typ.obj
 0002:0001a80c       ??_C@_0P@KBFNFBLB@ASN1_IA5STRING?$AA@ 0008280c     libeay32:tasn_typ.obj
 0002:0001a81c       ??_C@_0P@GDIFPLAP@ASN1_T61STRING?$AA@ 0008281c     libeay32:tasn_typ.obj
 0002:0001a82c       ??_C@_0BF@CPDMNKCA@ASN1_PRINTABLESTRING?$AA@ 0008282c     libeay32:tasn_typ.obj
 0002:0001a844       ??_C@_0BA@LEPDCAOC@ASN1_UTF8STRING?$AA@ 00082844     libeay32:tasn_typ.obj
 0002:0001a854       ??_C@_0M@BJNOJGBL@ASN1_OBJECT?$AA@ 00082854     libeay32:tasn_typ.obj
 0002:0001a860       ??_C@_09NHFFCPKK@ASN1_NULL?$AA@ 00082860     libeay32:tasn_typ.obj
 0002:0001a86c       ??_C@_0BC@PEBEKNCO@ASN1_OCTET_STRING?$AA@ 0008286c     libeay32:tasn_typ.obj
 0002:0001a880       ??_C@_0BA@LJHGDIKH@ASN1_BIT_STRING?$AA@ 00082880     libeay32:tasn_typ.obj
 0002:0001a890       ??_C@_0BA@CLGIIAJD@ASN1_ENUMERATED?$AA@ 00082890     libeay32:tasn_typ.obj
 0002:0001a8a0       ??_C@_0N@KIGEHGKE@ASN1_INTEGER?$AA@ 000828a0     libeay32:tasn_typ.obj
 0002:0001ac30       ??_C@_0O@DFJMHGOP@EC_PRIVATEKEY?$AA@ 00082c30     libeay32:ec_asn1.obj
 0002:0001ac40       ??_C@_09IDENFCJL@publicKey?$AA@ 00082c40     libeay32:ec_asn1.obj
 0002:0001ac4c       ??_C@_0L@HHPOFMCB@parameters?$AA@ 00082c4c     libeay32:ec_asn1.obj
 0002:0001ac58       ??_C@_0L@BCENACFO@privateKey?$AA@ 00082c58     libeay32:ec_asn1.obj
 0002:0001ac64       ??_C@_0P@PBBIGPFJ@ECPKPARAMETERS?$AA@ 00082c64     libeay32:ec_asn1.obj
 0002:0001ac74       ??_C@_0BD@HOIIAPI@value?4implicitlyCA?$AA@ 00082c74     libeay32:ec_asn1.obj
 0002:0001ac88       ??_C@_0BB@KOECJJJ@value?4parameters?$AA@ 00082c88     libeay32:ec_asn1.obj
 0002:0001ac9c       ??_C@_0BC@JEJHGDNN@value?4named_curve?$AA@ 00082c9c     libeay32:ec_asn1.obj
 0002:0001acb0       ??_C@_0N@ECDPFONH@ECPARAMETERS?$AA@ 00082cb0     libeay32:ec_asn1.obj
 0002:0001acc0       ??_C@_08DKFAOMDI@cofactor?$AA@ 00082cc0     libeay32:ec_asn1.obj
 0002:0001accc       ??_C@_05NDNMCCJH@order?$AA@ 00082ccc     libeay32:ec_asn1.obj
 0002:0001acd4       ??_C@_04BHIIPFEC@base?$AA@ 00082cd4     libeay32:ec_asn1.obj
 0002:0001acdc       ??_C@_05HIKPKPAA@curve?$AA@ 00082cdc     libeay32:ec_asn1.obj
 0002:0001ace4       ??_C@_07MJJGNICD@fieldID?$AA@ 00082ce4     libeay32:ec_asn1.obj
 0002:0001acec       ??_C@_07CPCPJPKL@version?$AA@ 00082cec     libeay32:ec_asn1.obj
 0002:0001acf4       ??_C@_0M@BHDPNPCK@X9_62_CURVE?$AA@ 00082cf4     libeay32:ec_asn1.obj
 0002:0001ad00       ??_C@_04MENKDCKE@seed?$AA@ 00082d00     libeay32:ec_asn1.obj
 0002:0001ad08       ??_C@_0O@PGPIAKKH@X9_62_FIELDID?$AA@ 00082d08     libeay32:ec_asn1.obj
 0002:0001ad18       ??_C@_09OAOLGAOM@fieldType?$AA@ 00082d18     libeay32:ec_asn1.obj
 0002:0001ad24       ??_C@_0L@NLMAKEBL@p?4char_two?$AA@ 00082d24     libeay32:ec_asn1.obj
 0002:0001ad30       ??_C@_07DPJEDCLB@p?4prime?$AA@ 00082d30     libeay32:ec_asn1.obj
 0002:0001ad38       ??_C@_0BJ@CCODLOLO@X9_62_CHARACTERISTIC_TWO?$AA@ 00082d38     libeay32:ec_asn1.obj
 0002:0001ad54       ??_C@_04GPMDFGEJ@type?$AA@ 00082d54     libeay32:ec_asn1.obj
 0002:0001ad5c       ??_C@_01GOHFPIOK@m?$AA@    00082d5c     libeay32:ec_asn1.obj
 0002:0001ad60       ??_C@_09DMGLCKOJ@p?4ppBasis?$AA@ 00082d60     libeay32:ec_asn1.obj
 0002:0001ad6c       ??_C@_09LICBCEBD@p?4tpBasis?$AA@ 00082d6c     libeay32:ec_asn1.obj
 0002:0001ad78       ??_C@_09KOBBOOPN@p?4onBasis?$AA@ 00082d78     libeay32:ec_asn1.obj
 0002:0001ad84       ??_C@_07PBHIMFBE@p?4other?$AA@ 00082d84     libeay32:ec_asn1.obj
 0002:0001ad8c       ??_C@_0BC@NPDMPFCL@X9_62_PENTANOMIAL?$AA@ 00082d8c     libeay32:ec_asn1.obj
 0002:0001ada0       ??_C@_02LAFHGHBM@k3?$AA@   00082da0     libeay32:ec_asn1.obj
 0002:0001ada4       ??_C@_02KJEMFGFN@k2?$AA@   00082da4     libeay32:ec_asn1.obj
 0002:0001ada8       ??_C@_02ICGBAFJO@k1?$AA@   00082da8     libeay32:ec_asn1.obj
 0002:0001adb0       ??_C@_0EM@BCOHHMGC@d?3?2wm653wehh?2platform?2mvv210?2src@ 00082db0     libeay32:ec_asn1.obj
 0002:0001ae28       ??_C@_0EL@KJLPEPL@d?3?2wm653wehh?2platform?2mvv210?2src@ 00082e28     libeay32:ec_lib.obj
 0002:0001ae78       ??_C@_0EL@FFHGPJNM@d?3?2wm653wehh?2platform?2mvv210?2src@ 00082e78     libeay32:ec_key.obj
 0002:0001af20       ??_C@_0M@INJPOKDH@X509_PUBKEY?$AA@ 00082f20     libeay32:x_pubkey.obj
 0002:0001af2c       ??_C@_0L@PJCANJEE@public_key?$AA@ 00082f2c     libeay32:x_pubkey.obj
 0002:0001af38       ??_C@_05CJCEEADM@algor?$AA@ 00082f38     libeay32:x_pubkey.obj
 0002:0001af40       ??_C@_0EP@OKMPOBJE@d?3?2wm653wehh?2platform?2mvv210?2src@ 00082f40     libeay32:x_pubkey.obj
 0002:0001e408       ??_C@_0HB@IIAMGFOE@?6?7IPSec?1IKE?1Oakley?5curve?5?$CD4?5over@ 00086408     libeay32:ec_curve.obj
 0002:0001e480       ??_C@_0HB@LGGCBEEP@?6?7IPSec?1IKE?1Oakley?5curve?5?$CD3?5over@ 00086480     libeay32:ec_curve.obj
 0002:0001e4f4       ??_C@_0CG@MLNHEHNL@WTLS?5curvs?5over?5a?5224?5bit?5prime?5@ 000864f4     libeay32:ec_curve.obj
 0002:0001e51c       ??_C@_0CG@JBBHINGJ@WTLS?5curve?5over?5a?5160?5bit?5prime?5@ 0008651c     libeay32:ec_curve.obj
 0002:0001e544       ??_C@_0CG@NOPNGNKB@WTLS?5curve?5over?5a?5112?5bit?5prime?5@ 00086544     libeay32:ec_curve.obj
 0002:0001e56c       ??_C@_0CH@PAECJHG@WTLS?5curve?5over?5a?5113?5bit?5binary@ 0008656c     libeay32:ec_curve.obj
 0002:0001e594       ??_C@_0CI@PHOKEIPD@X9?462?5curve?5over?5a?5431?5bit?5binar@ 00086594     libeay32:ec_curve.obj
 0002:0001e5bc       ??_C@_0CI@GLMEIDGJ@X9?462?5curve?5over?5a?5368?5bit?5binar@ 000865bc     libeay32:ec_curve.obj
 0002:0001e5e4       ??_C@_0CI@BDIPEOPL@X9?462?5curve?5over?5a?5359?5bit?5binar@ 000865e4     libeay32:ec_curve.obj
 0002:0001e60c       ??_C@_0CI@PCOAONL@X9?462?5curve?5over?5a?5304?5bit?5binar@ 0008660c     libeay32:ec_curve.obj
 0002:0001e634       ??_C@_0CI@OMGMCAMF@X9?462?5curve?5over?5a?5272?5bit?5binar@ 00086634     libeay32:ec_curve.obj
 0002:0001e65c       ??_C@_0CI@IHGFALA@X9?462?5curve?5over?5a?5239?5bit?5binar@ 0008665c     libeay32:ec_curve.obj
 0002:0001e684       ??_C@_0CI@HADNJNCC@X9?462?5curve?5over?5a?5208?5bit?5binar@ 00086684     libeay32:ec_curve.obj
 0002:0001e6ac       ??_C@_0CI@CNNMGPOI@X9?462?5curve?5over?5a?5191?5bit?5binar@ 000866ac     libeay32:ec_curve.obj
 0002:0001e6d4       ??_C@_0CI@HOBKKPME@X9?462?5curve?5over?5a?5176?5bit?5binar@ 000866d4     libeay32:ec_curve.obj
 0002:0001e6fc       ??_C@_0CI@CFPHBJDI@X9?462?5curve?5over?5a?5163?5bit?5binar@ 000866fc     libeay32:ec_curve.obj
 0002:0001e724       ??_C@_0CM@EACJKLC@NIST?1SECG?5curve?5over?5a?5571?5bit?5b@ 00086724     libeay32:ec_curve.obj
 0002:0001e750       ??_C@_0CM@HDDNKCDK@NIST?1SECG?5curve?5over?5a?5409?5bit?5b@ 00086750     libeay32:ec_curve.obj
 0002:0001e77c       ??_C@_0CM@GFMOGKDK@NIST?1SECG?5curve?5over?5a?5283?5bit?5b@ 0008677c     libeay32:ec_curve.obj
 0002:0001e7a8       ??_C@_0CH@CLCLBOGN@SECG?5curve?5over?5a?5239?5bit?5binary@ 000867a8     libeay32:ec_curve.obj
 0002:0001e7d0       ??_C@_0DB@PNCPLOPN@NIST?1SECG?1WTLS?5curve?5over?5a?5233?5@ 000867d0     libeay32:ec_curve.obj
 0002:0001e804       ??_C@_0CH@HKDFCHME@SECG?5curve?5over?5a?5193?5bit?5binary@ 00086804     libeay32:ec_curve.obj
 0002:0001e82c       ??_C@_0CM@HCIKDLO@NIST?1SECG?5curve?5over?5a?5163?5bit?5b@ 0008682c     libeay32:ec_curve.obj
 0002:0001e858       ??_C@_0CH@GKKFHOF@SECG?5curve?5over?5a?5163?5bit?5binary@ 00086858     libeay32:ec_curve.obj
 0002:0001e880       ??_C@_0DB@KNLLOMAB@NIST?1SECG?1WTLS?5curve?5over?5a?5163?5@ 00086880     libeay32:ec_curve.obj
 0002:0001e8b4       ??_C@_0CH@FJJEIBAL@SECG?5curve?5over?5a?5131?5bit?5binary@ 000868b4     libeay32:ec_curve.obj
 0002:0001e8dc       ??_C@_0CM@EPOILLGK@SECG?1WTLS?5curve?5over?5a?5131?5bit?5b@ 000868dc     libeay32:ec_curve.obj
 0002:0001e908       ??_C@_0CH@OHOOPBHG@SECG?5curve?5over?5a?5113?5bit?5binary@ 00086908     libeay32:ec_curve.obj
 0002:0001e930       ??_C@_0CM@IACJENLF@X9?462?1SECG?5curve?5over?5a?5256?5bit?5@ 00086930     libeay32:ec_curve.obj
 0002:0001e95c       ??_C@_0CH@COBCAEEE@X9?462?5curve?5over?5a?5239?5bit?5prime@ 0008695c     libeay32:ec_curve.obj
 0002:0001e984       ??_C@_0CH@BHJCBJE@X9?462?5curve?5over?5a?5192?5bit?5prime@ 00086984     libeay32:ec_curve.obj
 0002:0001e9ac       ??_C@_0DB@HJIMEGJL@NIST?1X9?462?1SECG?5curve?5over?5a?5192@ 000869ac     libeay32:ec_curve.obj
 0002:0001e9e0       ??_C@_0CL@NCEJLDDF@NIST?1SECG?5curve?5over?5a?5521?5bit?5p@ 000869e0     libeay32:ec_curve.obj
 0002:0001ea0c       ??_C@_0CL@MPIFFEHD@NIST?1SECG?5curve?5over?5a?5384?5bit?5p@ 00086a0c     libeay32:ec_curve.obj
 0002:0001ea38       ??_C@_0CG@MBJIMJMI@SECG?5curve?5over?5a?5256?5bit?5prime?5@ 00086a38     libeay32:ec_curve.obj
 0002:0001ea60       ??_C@_0CL@NHPHHEEB@NIST?1SECG?5curve?5over?5a?5224?5bit?5p@ 00086a60     libeay32:ec_curve.obj
 0002:0001ea8c       ??_C@_0CG@IOHCCJAA@SECG?5curve?5over?5a?5224?5bit?5prime?5@ 00086a8c     libeay32:ec_curve.obj
 0002:0001eab4       ??_C@_0CG@IFFAEDGD@SECG?5curve?5over?5a?5192?5bit?5prime?5@ 00086ab4     libeay32:ec_curve.obj
 0002:0001eadc       ??_C@_0CL@NDOOJKPB@SECG?1WTLS?5curve?5over?5a?5160?5bit?5p@ 00086adc     libeay32:ec_curve.obj
 0002:0001eb08       ??_C@_0CG@MDBLLOCO@SECG?5curve?5over?5a?5160?5bit?5prime?5@ 00086b08     libeay32:ec_curve.obj
 0002:0001eb30       ??_C@_0CG@DNCCBNMA@SECG?5curve?5over?5a?5128?5bit?5prime?5@ 00086b30     libeay32:ec_curve.obj
 0002:0001eb58       ??_C@_0CG@IMPBFOOG@SECG?5curve?5over?5a?5112?5bit?5prime?5@ 00086b58     libeay32:ec_curve.obj
 0002:0001eb80       ??_C@_0CL@JMAEHKDJ@SECG?1WTLS?5curve?5over?5a?5112?5bit?5p@ 00086b80     libeay32:ec_curve.obj
 0002:0001ebb0       ??_C@_0EN@GGBLGKDN@d?3?2wm653wehh?2platform?2mvv210?2src@ 00086bb0     libeay32:ec_curve.obj
 0002:0001ec74       ??_C@_0M@MMOLGLEG@X509_ALGORS?$AA@ 00086c74     libeay32:x_algor.obj
 0002:0001ec80       ??_C@_0L@BNOBMJFK@algorithms?$AA@ 00086c80     libeay32:x_algor.obj
 0002:0001ec8c       ??_C@_0L@BFHONDPK@X509_ALGOR?$AA@ 00086c8c     libeay32:x_algor.obj
 0002:0001ec98       ??_C@_09DAGAJHIH@parameter?$AA@ 00086c98     libeay32:x_algor.obj
 0002:0001ed30       ??_C@_0BE@LDIFBBLG@PKCS8_PRIV_KEY_INFO?$AA@ 00086d30     libeay32:p8_pkey.obj
 0002:0001ed44       ??_C@_0L@HNMJPKNA@attributes?$AA@ 00086d44     libeay32:p8_pkey.obj
 0002:0001ed50       ??_C@_04JMMJFDFL@pkey?$AA@ 00086d50     libeay32:p8_pkey.obj
 0002:0001ed58       ??_C@_07PLCMOKAM@pkeyalg?$AA@ 00086d58     libeay32:p8_pkey.obj
 0002:0001ed60       ECDSA_version              00086d60     libeay32:ecs_lib.obj
 0002:0001ed90       ??_C@_0EP@HDBDKLOP@d?3?2wm653wehh?2platform?2mvv210?2src@ 00086d90     libeay32:ecs_lib.obj
 0002:0001ede0       ??_C@_0EL@BMHBHOHG@d?3?2wm653wehh?2platform?2mvv210?2src@ 00086de0     libeay32:bn_ctx.obj
 0002:0001ee2c       ??_C@_0BE@FPCNHCIJ@Generator?5?$CIhybrid?$CJ?3?$AA@ 00086e2c     libeay32:eck_prn.obj
 0002:0001ee40       ??_C@_0BK@DOCPEENO@Generator?5?$CIuncompressed?$CJ?3?$AA@ 00086e40     libeay32:eck_prn.obj
 0002:0001ee5c       ??_C@_0BI@DFFFIKFB@Generator?5?$CIcompressed?$CJ?3?$AA@ 00086e5c     libeay32:eck_prn.obj
 0002:0001ee74       ??_C@_06LEJCPMLM@?$CF02x?$CFs?$AA@ 00086e74     libeay32:eck_prn.obj
 0002:0001ee7c       ??_C@_01JLIPDDHJ@?3?$AA@   00086e7c     libeay32:eck_prn.obj
 0002:0001ee80       ??_C@_0EM@FLNGOIDD@d?3?2wm653wehh?2platform?2mvv210?2src@ 00086e80     libeay32:eck_prn.obj
 0002:0001eecc       ??_C@_05PDHKGGIM@Seed?3?$AA@ 00086ecc     libeay32:eck_prn.obj
 0002:0001eed4       ??_C@_0L@IEMHODML@Cofactor?3?5?$AA@ 00086ed4     libeay32:eck_prn.obj
 0002:0001eee0       ??_C@_07KOGOKIFH@Order?3?5?$AA@ 00086ee0     libeay32:eck_prn.obj
 0002:0001eee8       ??_C@_05OKMHJIGA@B?3?5?5?5?$AA@ 00086ee8     libeay32:eck_prn.obj
 0002:0001eef0       ??_C@_05GMFDOKMO@A?3?5?5?5?$AA@ 00086ef0     libeay32:eck_prn.obj
 0002:0001eef8       ??_C@_06DBHHIIKM@Prime?3?$AA@ 00086ef8     libeay32:eck_prn.obj
 0002:0001ef00       ??_C@_0M@JDIPGLHE@Polynomial?3?$AA@ 00086f00     libeay32:eck_prn.obj
 0002:0001ef0c       ??_C@_0BA@ENMKKION@Basis?5Type?3?5?$CFs?6?$AA@ 00086f0c     libeay32:eck_prn.obj
 0002:0001ef1c       ??_C@_0BA@KNKNOIFH@Field?5Type?3?5?$CFs?6?$AA@ 00086f1c     libeay32:eck_prn.obj
 0002:0001ef2c       ??_C@_0N@JOFLCJFF@ASN1?5OID?3?5?$CFs?$AA@ 00086f2c     libeay32:eck_prn.obj
 0002:0001ef3c       ??_C@_04HDOCAJNK@?$CFs?$CFs?$AA@ 00086f3c     libeay32:t_pkey.obj
 0002:0001ef44       ??_C@_0M@IBLDKCHK@?5?$CINegative?$CJ?$AA@ 00086f44     libeay32:t_pkey.obj
 0002:0001ef50       ??_C@_0BE@KHLFKPFC@?$CFs?5?$CFs?$CFlu?5?$CI?$CFs0x?$CFlx?$CJ?6?$AA@ 00086f50     libeay32:t_pkey.obj
 0002:0001ef64       ??_C@_05NJJIPCOC@?$CFs?50?6?$AA@ 00086f64     libeay32:t_pkey.obj
 0002:0001ef70       ??_C@_0EN@IAKMHMJK@d?3?2wm653wehh?2platform?2mvv210?2src@ 00086f70     libeay32:ec_print.obj
 0002:0001efc0       ??_C@_0EP@EBOHPFGP@d?3?2wm653wehh?2platform?2mvv210?2src@ 00086fc0     libeay32:pk7_lib.obj
 0002:0001f1f0       ??_C@_0EM@PJNFBCEL@d?3?2wm653wehh?2platform?2mvv210?2src@ 000871f0     libeay32:cms_sd.obj
 0002:0001f23c       DSA_version                0008723c     libeay32:dsa_lib.obj
 0002:0001f268       ??_C@_0EN@HPPIDPIC@d?3?2wm653wehh?2platform?2mvv210?2src@ 00087268     libeay32:dsa_lib.obj
 0002:0001f2b8       ??_C@_0EM@IJKLDGFG@d?3?2wm653wehh?2platform?2mvv210?2src@ 000872b8     libeay32:a_int.obj
 0002:0001f548       ??_C@_08CCPALKOP@priv_key?$AA@ 00087548     libeay32:dsa_asn1.obj
 0002:0001f554       ??_C@_07CLGEADLH@pub_key?$AA@ 00087554     libeay32:dsa_asn1.obj
 0002:0001f55c       ??_C@_01JEJKBAGA@g?$AA@    0008755c     libeay32:dsa_asn1.obj
 0002:0001f560       ??_C@_01IIACKFLH@q?$AA@    00087560     libeay32:dsa_asn1.obj
 0002:0001f564       ??_C@_01JBBJJEPG@p?$AA@    00087564     libeay32:dsa_asn1.obj
 0002:0001f568       ??_C@_07ECLLFBLJ@DSA_SIG?$AA@ 00087568     libeay32:dsa_asn1.obj
 0002:0001f570       ??_C@_01LKDEMHDF@s?$AA@    00087570     libeay32:dsa_asn1.obj
 0002:0001f578       ??_C@_0EO@DLELNGDB@d?3?2wm653wehh?2platform?2mvv210?2src@ 00087578     libeay32:dsa_asn1.obj
 0002:0001f5c8       ??_C@_0EL@MKGMFIIF@d?3?2wm653wehh?2platform?2mvv210?2src@ 000875c8     libeay32:bn_exp.obj
 0002:0001f614       ??_C@_03MKABNOCG@Dec?$AA@  00087614     libeay32:t_x509.obj
 0002:0001f618       ??_C@_03JPJOFNIA@Nov?$AA@  00087618     libeay32:t_x509.obj
 0002:0001f61c       ??_C@_03BMAOKBAD@Oct?$AA@  0008761c     libeay32:t_x509.obj
 0002:0001f620       ??_C@_03GGCAPAJC@Sep?$AA@  00087620     libeay32:t_x509.obj
 0002:0001f624       ??_C@_03IFJFEIGA@Aug?$AA@  00087624     libeay32:t_x509.obj
 0002:0001f628       ??_C@_03LBGABGKK@Jul?$AA@  00087628     libeay32:t_x509.obj
 0002:0001f62c       ??_C@_03IDFGHECI@Jun?$AA@  0008762c     libeay32:t_x509.obj
 0002:0001f630       ??_C@_03CNMDKL@May?$AA@    00087630     libeay32:t_x509.obj
 0002:0001f634       ??_C@_03LEOLGMJP@Apr?$AA@  00087634     libeay32:t_x509.obj
 0002:0001f638       ??_C@_03ODNJBKGA@Mar?$AA@  00087638     libeay32:t_x509.obj
 0002:0001f63c       ??_C@_03HJBDCHOM@Feb?$AA@  0008763c     libeay32:t_x509.obj
 0002:0001f640       ??_C@_03JIHJHPIE@Jan?$AA@  00087640     libeay32:t_x509.obj
 0002:0001f648       ??_C@_0EN@JFBJIANP@d?3?2wm653wehh?2platform?2mvv210?2src@ 00087648     libeay32:t_x509.obj
 0002:0001f698       ??_C@_0P@FGACABCD@Bad?5time?5value?$AA@ 00087698     libeay32:t_x509.obj
 0002:0001f6a8       ??_C@_0BP@OGIOIJMK@?$CFs?5?$CF2d?5?$CF02d?3?$CF02d?3?$CF02d?$CF?4?$CKs?5?$CFd?$CFs?$AA@ 000876a8     libeay32:t_x509.obj
 0002:0001f6c8       ??_C@_04FIEKMBKB@?5GMT?$AA@ 000876c8     libeay32:t_x509.obj
 0002:0001f6d0       ??_C@_02KEGNLNML@?0?5?$AA@ 000876d0     libeay32:t_x509.obj
 0002:0001f6d8       ??_C@_0EO@PHDJAHKO@d?3?2wm653wehh?2platform?2mvv210?2src@ 000876d8     libeay32:dsa_sign.obj
 0002:0001f728       DH_version                 00087728     libeay32:dh_lib.obj
 0002:0001f760       ??_C@_0EL@PIAODHMF@d?3?2wm653wehh?2platform?2mvv210?2src@ 00087760     libeay32:dh_lib.obj
 0002:0001f81c       ??_C@_06IJDLPEM@length?$AA@ 0008781c     libeay32:dh_asn1.obj
 0002:0001f824       ??_C@_0BC@MGHKLCAP@OpenSSL?5DH?5Method?$AA@ 00087824     libeay32:dh_key.obj
 0002:0001f838       ??_C@_0EL@KHODDKOC@d?3?2wm653wehh?2platform?2mvv210?2src@ 00087838     libeay32:dh_key.obj
 0002:0001fa3c       ??_C@_0P@PJJHDFJB@RSA_PSS_PARAMS?$AA@ 00087a3c     libeay32:rsa_asn1.obj
 0002:0001fa4c       ??_C@_0N@KGDDKMLA@trailerField?$AA@ 00087a4c     libeay32:rsa_asn1.obj
 0002:0001fa5c       ??_C@_0L@PKGNFOCE@saltLength?$AA@ 00087a5c     libeay32:rsa_asn1.obj
 0002:0001fa68       ??_C@_0BB@KKPGFJED@maskGenAlgorithm?$AA@ 00087a68     libeay32:rsa_asn1.obj
 0002:0001fa7c       ??_C@_0O@DHJLLKEK@hashAlgorithm?$AA@ 00087a7c     libeay32:rsa_asn1.obj
 0002:0001fa8c       ??_C@_04BBEMPLKC@iqmp?$AA@ 00087a8c     libeay32:rsa_asn1.obj
 0002:0001fa94       ??_C@_04PENPDGE@dmq1?$AA@  00087a94     libeay32:rsa_asn1.obj
 0002:0001fa9c       ??_C@_04OIPJJFD@dmp1?$AA@  00087a9c     libeay32:rsa_asn1.obj
 0002:0001faa4       ??_C@_01LPLHEDKD@d?$AA@    00087aa4     libeay32:rsa_asn1.obj
 0002:0001faa8       ??_C@_01KGKMHCOC@e?$AA@    00087aa8     libeay32:rsa_asn1.obj
 0002:0001faac       ??_C@_01EFFIKLCJ@n?$AA@    00087aac     libeay32:rsa_asn1.obj
 0002:0001fab0       ??_C@_0EO@DEEJNAGE@d?3?2wm653wehh?2platform?2mvv210?2src@ 00087ab0     libeay32:rsa_crpt.obj
 0002:0001fb00       RSA_version                00087b00     libeay32:rsa_lib.obj
 0002:0001fb28       ??_C@_0EN@MLDILJPH@d?3?2wm653wehh?2platform?2mvv210?2src@ 00087b28     libeay32:rsa_lib.obj
 0002:0001fb78       ??_C@_02JPPHBJLD@?2?6?$AA@ 00087b78     libeay32:f_int.obj
 0002:0001fb7c       ??_C@_02PLJDPFIO@00?$AA@   00087b7c     libeay32:f_int.obj
 0002:0001fb80       ??_C@_0EN@EGODLFJH@d?3?2wm653wehh?2platform?2mvv210?2src@ 00087b80     libeay32:cms_env.obj
 0002:0001fbd0       ??_C@_0EO@ENFGJDHG@d?3?2wm653wehh?2platform?2mvv210?2src@ 00087bd0     libeay32:m_sigver.obj
 0002:0001fc20       ??_C@_0EP@ECCLNLMM@d?3?2wm653wehh?2platform?2mvv210?2src@ 00087c20     libeay32:asn_pack.obj
 0002:0001fc70       ??_C@_0EN@HNCBNDLA@d?3?2wm653wehh?2platform?2mvv210?2src@ 00087c70     libeay32:evp_lib.obj
 0002:0001fcc0       ??_C@_0BD@LHHAEAAJ@l?5?$DM?$DN?5sizeof?$CIc?9?$DOiv?$CJ?$AA@ 00087cc0     libeay32:evp_lib.obj
 0002:0001fcd4       ??_C@_0BD@CKKMELBK@j?5?$DM?$DN?5sizeof?$CIc?9?$DOiv?$CJ?$AA@ 00087cd4     libeay32:evp_lib.obj
 0002:0001fd00       ??_C@_0EP@DFJOCJBM@d?3?2wm653wehh?2platform?2mvv210?2src@ 00087d00     libeay32:v3_utl.obj
 0002:0001fd50       ??_C@_05MAJJAKPI@FALSE?$AA@ 00087d50     libeay32:v3_utl.obj
 0002:0001fd58       ??_C@_04HCDDPBNL@TRUE?$AA@ 00087d58     libeay32:v3_utl.obj
 0002:0001fd60       ??_C@_07BDICHDDB@?0value?3?$AA@ 00087d60     libeay32:v3_utl.obj
 0002:0001fd68       ??_C@_06FONLLLNC@?0name?3?$AA@ 00087d68     libeay32:v3_utl.obj
 0002:0001fd70       ??_C@_08PCLJGJAL@section?3?$AA@ 00087d70     libeay32:v3_utl.obj
 0002:0001fd7c       ??_C@_02KAJCLHKP@no?$AA@   00087d7c     libeay32:v3_utl.obj
 0002:0001fd80       ??_C@_02NFLNFON@NO?$AA@    00087d80     libeay32:v3_utl.obj
 0002:0001fd84       ??_C@_01NANMIPIL@N?$AA@    00087d84     libeay32:v3_utl.obj
 0002:0001fd88       ??_C@_05LAPONLG@false?$AA@ 00087d88     libeay32:v3_utl.obj
 0002:0001fd90       ??_C@_03ICICOMAL@yes?$AA@  00087d90     libeay32:v3_utl.obj
 0002:0001fd94       ??_C@_03IPHJCBHH@YES?$AA@  00087d94     libeay32:v3_utl.obj
 0002:0001fd98       ??_C@_01EANLCPLP@y?$AA@    00087d98     libeay32:v3_utl.obj
 0002:0001fd9c       ??_C@_01NFFPALBN@Y?$AA@    00087d9c     libeay32:v3_utl.obj
 0002:0001fda0       ??_C@_04LOAJBDKD@true?$AA@ 00087da0     libeay32:v3_utl.obj
 0002:0001fda8       ??_C@_0M@PCENNPGA@?$CFd?4?$CFd?4?$CFd?4?$CFd?$AA@ 00087da8     libeay32:v3_utl.obj
 0002:0001fdb4       ??_C@_0CF@JFAAPJDH@len?$DO?$DN0?5?$CG?$CG?5len?$DM?$DN?$CIint?$CJsizeof?$CIctx?9?$DO@ 00087db4     libeay32:hmac.obj
 0002:0001fddc       ??_C@_0BL@OKHNPHMK@j?5?$DM?$DN?5?$CIint?$CJsizeof?$CIctx?9?$DOkey?$CJ?$AA@ 00087ddc     libeay32:hmac.obj
 0002:0001fdf8       ??_C@_0EL@FKOMILBN@d?3?2wm653wehh?2platform?2mvv210?2src@ 00087df8     libeay32:hmac.obj
 0002:0001fe48       ??_C@_0EL@BNOPJFLP@d?3?2wm653wehh?2platform?2mvv210?2src@ 00087e48     libeay32:dh_gen.obj
 0002:0001fea0       ??_C@_0EN@HNNJMEMO@d?3?2wm653wehh?2platform?2mvv210?2src@ 00087ea0     libeay32:rsa_pss.obj
 0002:0001fef0       ??_C@_0EO@NHOCECJL@d?3?2wm653wehh?2platform?2mvv210?2src@ 00087ef0     libeay32:rsa_sign.obj
 0002:0001ff40       ??_C@_0DF@DGNAAHIE@signature?5has?5problems?0?5re?9make?5@ 00087f40     libeay32:rsa_sign.obj
 0002:0001ff78       ??_C@_0EO@IHJGGIGJ@d?3?2wm653wehh?2platform?2mvv210?2src@ 00087f78     libeay32:rsa_x931.obj
 0002:0001ffc8       ??_C@_0EO@KJLCAEHF@d?3?2wm653wehh?2platform?2mvv210?2src@ 00087fc8     libeay32:rsa_saos.obj
 0002:00020018       ??_C@_0EN@CONJBLIN@d?3?2wm653wehh?2platform?2mvv210?2src@ 00088018     libeay32:rsa_gen.obj
 0002:000200f0       ??_C@_06IEOJBDIK@object?$AA@ 000880f0     libeay32:x_attrib.obj
 0002:000200f8       ??_C@_0P@IBKNNFL@X509_ATTRIBUTE?$AA@ 000880f8     libeay32:x_attrib.obj
 0002:00020108       ??_C@_0N@MCAEPLPL@value?4single?$AA@ 00088108     libeay32:x_attrib.obj
 0002:00020118       ??_C@_09MPCDAIAO@value?4set?$AA@ 00088118     libeay32:x_attrib.obj
 0002:000202d0       ??_C@_0EN@ODDCBIPI@d?3?2wm653wehh?2platform?2mvv210?2src@ 000882d0     libeay32:evp_pbe.obj
 0002:00020320       ??_C@_05DLJFLBDA@TYPE?$DN?$AA@ 00088320     libeay32:evp_pbe.obj
 0002:00020328       ??_C@_0FC@GLILKHMO@d?3?2wm653wehh?2platform?2mvv210?2src@ 00088328     libeay32:tb_digest.obj
 0002:0002037c       SHA1_version               0008837c     libeay32:sha1dgst.obj
 0002:000203a8       SHA256_version             000883a8     libeay32:sha256.obj
 0002:000204d8       SHA512_version             000884d8     libeay32:sha512.obj
 0002:00020788       EVP_version                00088788     libeay32:evp_enc.obj
 0002:000207b0       ??_C@_0EN@FALCDJAN@d?3?2wm653wehh?2platform?2mvv210?2src@ 000887b0     libeay32:evp_enc.obj
 0002:00020800       ??_C@_0BM@NOPGEACO@bl?5?$DM?$DN?5?$CIint?$CJsizeof?$CIctx?9?$DObuf?$CJ?$AA@ 00088800     libeay32:evp_enc.obj
 0002:0002081c       ??_C@_0BF@NLHGELBH@b?5?$DM?$DN?5sizeof?5ctx?9?$DObuf?$AA@ 0008881c     libeay32:evp_enc.obj
 0002:00020834       ??_C@_0BH@JPOFFCDO@b?5?$DM?$DN?5sizeof?5ctx?9?$DOfinal?$AA@ 00088834     libeay32:evp_enc.obj
 0002:0002084c       ??_C@_0DG@IKOHIL@EVP_CIPHER_CTX_iv_length?$CIctx?$CJ?5?$DM?$DN@ 0008884c     libeay32:evp_enc.obj
 0002:00020888       ??_C@_0FO@KIBMBINE@ctx?9?$DOcipher?9?$DOblock_size?5?$DN?$DN?51?5?$HM?$HM?5@ 00088888     libeay32:evp_enc.obj
 0002:00020968       ??_C@_0EP@IJPFBBNM@d?3?2wm653wehh?2platform?2mvv210?2src@ 00088968     libeay32:tasn_dec.obj
 0002:000209b8       ??_C@_05GCCLHHOK@Type?$DN?$AA@ 000889b8     libeay32:tasn_dec.obj
 0002:000209c0       ??_C@_07NHKPEHKF@?0?5Type?$DN?$AA@ 000889c0     libeay32:tasn_dec.obj
 0002:000209c8       ??_C@_06GPKHKFJE@Field?$DN?$AA@ 000889c8     libeay32:tasn_dec.obj
 0002:000209d0       ??_C@_0EP@DFHJPDGI@d?3?2wm653wehh?2platform?2mvv210?2src@ 000889d0     libeay32:tasn_enc.obj
 0002:00020a20       ??_C@_0EP@PHBFPCHC@d?3?2wm653wehh?2platform?2mvv210?2src@ 00088a20     libeay32:tasn_new.obj
 0002:00020aa8       ??_C@_05HIGAPBOG@ZLONG?$AA@ 00088aa8     libeay32:x_long.obj
 0002:00020ab0       ??_C@_04KCJFIMMJ@LONG?$AA@ 00088ab0     libeay32:x_long.obj
 0002:00020ab8       ??_C@_0EN@OBFIOJLM@d?3?2wm653wehh?2platform?2mvv210?2src@ 00088ab8     libeay32:x_long.obj
 0002:00020b08       ??_C@_04PEDNGLFL@?$CFld?6?$AA@ 00088b08     libeay32:x_long.obj
 0002:00020bb0       ??_C@_0EN@HKENHFKC@d?3?2wm653wehh?2platform?2mvv210?2src@ 00088bb0     libeay32:ec2_smpl.obj
 0002:00020c00       ??_C@_0EP@PHFMEFHI@d?3?2wm653wehh?2platform?2mvv210?2src@ 00088c00     libeay32:a_bitstr.obj
 0002:00020c50       ??_C@_0EL@LDMNJGLH@d?3?2wm653wehh?2platform?2mvv210?2src@ 00088c50     libeay32:ec_oct.obj
 0002:00020ca0       ??_C@_0EM@NFBEAOGE@d?3?2wm653wehh?2platform?2mvv210?2src@ 00088ca0     libeay32:ec_mult.obj
 0002:00020cf0       ??_C@_0EM@GFDFNKJ@d?3?2wm653wehh?2platform?2mvv210?2src@ 00088cf0     libeay32:bn_rand.obj
 0002:00020d40       ??_C@_0EM@KNGHBEEM@d?3?2wm653wehh?2platform?2mvv210?2src@ 00088d40     libeay32:a_dup.obj
 0002:00020d8c       ??_C@_0BF@DJKLHCAL@OpenSSL?5ECDSA?5method?$AA@ 00088d8c     libeay32:ecs_ossl.obj
 0002:00020da8       ??_C@_0FA@PJGMNPFB@d?3?2wm653wehh?2platform?2mvv210?2src@ 00088da8     libeay32:ecs_ossl.obj
 0002:000213a8       ??_C@_0BC@DLHIINOH@PKCS7_ATTR_VERIFY?$AA@ 000893a8     libeay32:pk7_asn1.obj
 0002:000213bc       ??_C@_0BA@IJMFEGLH@PKCS7_ATTR_SIGN?$AA@ 000893bc     libeay32:pk7_asn1.obj
 0002:000213cc       ??_C@_0BB@ODHHPICH@PKCS7_ATTRIBUTES?$AA@ 000893cc     libeay32:pk7_asn1.obj
 0002:000213e0       ??_C@_0N@NAILNAH@PKCS7_DIGEST?$AA@ 000893e0     libeay32:pk7_asn1.obj
 0002:000213f0       ??_C@_02EBCANADN@md?$AA@   000893f0     libeay32:pk7_asn1.obj
 0002:000213f4       ??_C@_0O@GIFGHKGC@PKCS7_ENCRYPT?$AA@ 000893f4     libeay32:pk7_asn1.obj
 0002:00021404       ??_C@_0BE@LMHBPFDD@PKCS7_SIGN_ENVELOPE?$AA@ 00089404     libeay32:pk7_asn1.obj
 0002:00021418       ??_C@_0BC@INKEDPEG@PKCS7_ENC_CONTENT?$AA@ 00089418     libeay32:pk7_asn1.obj
 0002:0002142c       ??_C@_0N@IEAAACJL@content_type?$AA@ 0008942c     libeay32:pk7_asn1.obj
 0002:0002143c       ??_C@_0BB@MGPEFENK@PKCS7_RECIP_INFO?$AA@ 0008943c     libeay32:pk7_asn1.obj
 0002:00021450       ??_C@_07LBLKCHGJ@enc_key?$AA@ 00089450     libeay32:pk7_asn1.obj
 0002:00021458       ??_C@_0O@ODFHHMFC@key_enc_algor?$AA@ 00089458     libeay32:pk7_asn1.obj
 0002:00021468       ??_C@_0P@KCJMJLOD@PKCS7_ENVELOPE?$AA@ 00089468     libeay32:pk7_asn1.obj
 0002:00021478       ??_C@_08ENNDKKOI@enc_data?$AA@ 00089478     libeay32:pk7_asn1.obj
 0002:00021484       ??_C@_0O@HGJALPPJ@recipientinfo?$AA@ 00089484     libeay32:pk7_asn1.obj
 0002:00021494       ??_C@_0BI@POAIONGK@PKCS7_ISSUER_AND_SERIAL?$AA@ 00089494     libeay32:pk7_asn1.obj
 0002:000214ac       ??_C@_06KCELPKEE@serial?$AA@ 000894ac     libeay32:pk7_asn1.obj
 0002:000214b4       ??_C@_06EAINIONG@issuer?$AA@ 000894b4     libeay32:pk7_asn1.obj
 0002:000214bc       ??_C@_0BC@BFFCPPDG@PKCS7_SIGNER_INFO?$AA@ 000894bc     libeay32:pk7_asn1.obj
 0002:000214d0       ??_C@_0M@NNBFAOJK@unauth_attr?$AA@ 000894d0     libeay32:pk7_asn1.obj
 0002:000214dc       ??_C@_0L@PJDBOMFC@enc_digest?$AA@ 000894dc     libeay32:pk7_asn1.obj
 0002:000214e8       ??_C@_0P@KLFHBHJD@digest_enc_alg?$AA@ 000894e8     libeay32:pk7_asn1.obj
 0002:000214f8       ??_C@_09PLABOLFJ@auth_attr?$AA@ 000894f8     libeay32:pk7_asn1.obj
 0002:00021504       ??_C@_0L@OGBFEEJI@digest_alg?$AA@ 00089504     libeay32:pk7_asn1.obj
 0002:00021510       ??_C@_0BC@PMGLGNPO@issuer_and_serial?$AA@ 00089510     libeay32:pk7_asn1.obj
 0002:00021524       ??_C@_0N@CKBJFFNF@PKCS7_SIGNED?$AA@ 00089524     libeay32:pk7_asn1.obj
 0002:00021534       ??_C@_0M@KEDNAHBP@signer_info?$AA@ 00089534     libeay32:pk7_asn1.obj
 0002:00021540       ??_C@_03GJBFOAJL@crl?$AA@  00089540     libeay32:pk7_asn1.obj
 0002:00021544       ??_C@_04PHJBACIC@cert?$AA@ 00089544     libeay32:pk7_asn1.obj
 0002:0002154c       ??_C@_08ODCIAOPM@contents?$AA@ 0008954c     libeay32:pk7_asn1.obj
 0002:00021558       ??_C@_07MPDKKGPO@md_algs?$AA@ 00089558     libeay32:pk7_asn1.obj
 0002:00021560       ??_C@_05BKMMPIPN@PKCS7?$AA@ 00089560     libeay32:pk7_asn1.obj
 0002:00021568       ??_C@_0M@IDEHBFAL@d?4encrypted?$AA@ 00089568     libeay32:pk7_asn1.obj
 0002:00021574       ??_C@_08JOIJLLGO@d?4digest?$AA@ 00089574     libeay32:pk7_asn1.obj
 0002:00021580       ??_C@_0BH@FHPJHCLF@d?4signed_and_enveloped?$AA@ 00089580     libeay32:pk7_asn1.obj
 0002:00021598       ??_C@_0M@CLKMIMCI@d?4enveloped?$AA@ 00089598     libeay32:pk7_asn1.obj
 0002:000215a4       ??_C@_06GOHGJFCL@d?4sign?$AA@ 000895a4     libeay32:pk7_asn1.obj
 0002:000215ac       ??_C@_06OAPKPHLA@d?4data?$AA@ 000895ac     libeay32:pk7_asn1.obj
 0002:000215b4       ??_C@_07JIJPKMF@d?4other?$AA@ 000895b4     libeay32:pk7_asn1.obj
 0002:00021730       ??_C@_07OBHFIHGJ@sig_alg?$AA@ 00089730     libeay32:x_x509.obj
 0002:00021738       ??_C@_09NKDPGBBA@cert_info?$AA@ 00089738     libeay32:x_x509.obj
 0002:00021744       ??_C@_09LCJGKABB@X509_CINF?$AA@ 00089744     libeay32:x_x509.obj
 0002:00021750       ??_C@_0L@ICCCPLKC@extensions?$AA@ 00089750     libeay32:x_x509.obj
 0002:0002175c       ??_C@_0L@JMFHLKAL@subjectUID?$AA@ 0008975c     libeay32:x_x509.obj
 0002:00021768       ??_C@_09KIIAMAEE@issuerUID?$AA@ 00089768     libeay32:x_x509.obj
 0002:00021774       ??_C@_07JNNGEGGO@subject?$AA@ 00089774     libeay32:x_x509.obj
 0002:0002177c       ??_C@_08GCHKOCBP@validity?$AA@ 0008977c     libeay32:x_x509.obj
 0002:00021788       ??_C@_09CMIIOJHF@signature?$AA@ 00089788     libeay32:x_x509.obj
 0002:00021924       ??_C@_08JGFBPDAP@X509_CRL?$AA@ 00089924     libeay32:x_crl.obj
 0002:00021930       ??_C@_0O@IMOAEKCP@X509_CRL_INFO?$AA@ 00089930     libeay32:x_crl.obj
 0002:00021940       ??_C@_07MIJFAMBD@revoked?$AA@ 00089940     libeay32:x_crl.obj
 0002:00021948       ??_C@_0L@BMOABHOK@nextUpdate?$AA@ 00089948     libeay32:x_crl.obj
 0002:00021954       ??_C@_0L@MPDCJAIM@lastUpdate?$AA@ 00089954     libeay32:x_crl.obj
 0002:00021960       ??_C@_0N@JBPKOADN@X509_REVOKED?$AA@ 00089960     libeay32:x_crl.obj
 0002:00021970       ??_C@_0P@HBDMPDNI@revocationDate?$AA@ 00089970     libeay32:x_crl.obj
 0002:00021980       ??_C@_0EM@HLHJDKMD@d?3?2wm653wehh?2platform?2mvv210?2src@ 00089980     libeay32:x_crl.obj
 0002:00021a10       x509_name_ff               00089a10     libeay32:x_name.obj
 0002:00021aa8       ??_C@_09KGNJKBNF@X509_NAME?$AA@ 00089aa8     libeay32:x_name.obj
 0002:00021ab4       ??_C@_0BD@FDNDONGH@X509_NAME_INTERNAL?$AA@ 00089ab4     libeay32:x_name.obj
 0002:00021ac8       ??_C@_04FABLJDN@Name?$AA@  00089ac8     libeay32:x_name.obj
 0002:00021ad0       ??_C@_0BC@GJMCELDI@X509_NAME_ENTRIES?$AA@ 00089ad0     libeay32:x_name.obj
 0002:00021ae4       ??_C@_04IEOKPFHO@RDNS?$AA@ 00089ae4     libeay32:x_name.obj
 0002:00021aec       ??_C@_0BA@KEPIIMOE@X509_NAME_ENTRY?$AA@ 00089aec     libeay32:x_name.obj
 0002:00021afc       ??_C@_05MFEJDJP@value?$AA@ 00089afc     libeay32:x_name.obj
 0002:00021b08       ??_C@_0EN@KBGECLLO@d?3?2wm653wehh?2platform?2mvv210?2src@ 00089b08     libeay32:x_name.obj
 0002:00022934       ??_C@_0M@GJHAMFIP@CMS_Receipt?$AA@ 0008a934     libeay32:cms_asn1.obj
 0002:00022940       ??_C@_0BJ@OPFDHHHB@originatorSignatureValue?$AA@ 0008a940     libeay32:cms_asn1.obj
 0002:0002295c       ??_C@_0BD@KOFKAGLC@CMS_ReceiptRequest?$AA@ 0008a95c     libeay32:cms_asn1.obj
 0002:00022970       ??_C@_0L@BBBJMFCF@receiptsTo?$AA@ 0008a970     libeay32:cms_asn1.obj
 0002:0002297c       ??_C@_0N@CIHGCFJG@receiptsFrom?$AA@ 0008a97c     libeay32:cms_asn1.obj
 0002:0002298c       ??_C@_0BI@BHIBPADG@signedContentIdentifier?$AA@ 0008a98c     libeay32:cms_asn1.obj
 0002:000229a4       ??_C@_0BB@JKAAKCKP@CMS_ReceiptsFrom?$AA@ 0008a9a4     libeay32:cms_asn1.obj
 0002:000229b8       ??_C@_0O@ECMNNMJA@d?4receiptList?$AA@ 0008a9b8     libeay32:cms_asn1.obj
 0002:000229c8       ??_C@_0BB@DENHEDOF@d?4allOrFirstTier?$AA@ 0008a9c8     libeay32:cms_asn1.obj
 0002:000229dc       ??_C@_0BG@NLALJKHJ@CMS_Attributes_Verify?$AA@ 0008a9dc     libeay32:cms_asn1.obj
 0002:000229f4       ??_C@_0BE@PAHMALPK@CMS_Attributes_Sign?$AA@ 0008a9f4     libeay32:cms_asn1.obj
 0002:00022a08       ??_C@_0P@KAJKPCJH@CMS_ATTRIBUTES?$AA@ 0008aa08     libeay32:cms_asn1.obj
 0002:00022a18       ??_C@_0BA@ECDDPOHH@CMS_ContentInfo?$AA@ 0008aa18     libeay32:cms_asn1.obj
 0002:00022a28       ??_C@_0BB@NELCELCK@d?4compressedData?$AA@ 0008aa28     libeay32:cms_asn1.obj
 0002:00022a3c       ??_C@_0BE@NPCJHPOJ@d?4authenticatedData?$AA@ 0008aa3c     libeay32:cms_asn1.obj
 0002:00022a50       ??_C@_0BA@HJCBJEH@d?4encryptedData?$AA@ 0008aa50     libeay32:cms_asn1.obj
 0002:00022a60       ??_C@_0P@HJCJOBOP@d?4digestedData?$AA@ 0008aa60     libeay32:cms_asn1.obj
 0002:00022a70       ??_C@_0BA@CCFAJLBF@d?4envelopedData?$AA@ 0008aa70     libeay32:cms_asn1.obj
 0002:00022a80       ??_C@_0N@DDIMJOHE@d?4signedData?$AA@ 0008aa80     libeay32:cms_asn1.obj
 0002:00022a90       ??_C@_0BD@IAIGGNCI@CMS_CompressedData?$AA@ 0008aa90     libeay32:cms_asn1.obj
 0002:00022aa4       ??_C@_0BF@PNIPCJJ@compressionAlgorithm?$AA@ 0008aaa4     libeay32:cms_asn1.obj
 0002:00022abc       ??_C@_0BG@DOMHNMEC@CMS_AuthenticatedData?$AA@ 0008aabc     libeay32:cms_asn1.obj
 0002:00022ad4       ??_C@_0M@FBFPDIHA@unauthAttrs?$AA@ 0008aad4     libeay32:cms_asn1.obj
 0002:00022ae0       ??_C@_03BADCJGEO@mac?$AA@  0008aae0     libeay32:cms_asn1.obj
 0002:00022ae4       ??_C@_09HHELNNLD@authAttrs?$AA@ 0008aae4     libeay32:cms_asn1.obj
 0002:00022af0       ??_C@_0N@PGIFJMM@macAlgorithm?$AA@ 0008aaf0     libeay32:cms_asn1.obj
 0002:00022b00       ??_C@_0BC@ONODDCLB@CMS_EncryptedData?$AA@ 0008ab00     libeay32:cms_asn1.obj
 0002:00022b14       ??_C@_0BB@NNEFCOGL@CMS_DigestedData?$AA@ 0008ab14     libeay32:cms_asn1.obj
 0002:00022b28       ??_C@_0BC@MICBLAOD@CMS_EnvelopedData?$AA@ 0008ab28     libeay32:cms_asn1.obj
 0002:00022b3c       ??_C@_0BB@JCNJKAMK@unprotectedAttrs?$AA@ 0008ab3c     libeay32:cms_asn1.obj
 0002:00022b50       ??_C@_0BF@OHLPJHAO@encryptedContentInfo?$AA@ 0008ab50     libeay32:cms_asn1.obj
 0002:00022b68       ??_C@_0P@MHKJPFAE@recipientInfos?$AA@ 0008ab68     libeay32:cms_asn1.obj
 0002:00022b78       ??_C@_0P@HMLDCEHI@originatorInfo?$AA@ 0008ab78     libeay32:cms_asn1.obj
 0002:00022b88       ??_C@_0BC@OIOGGOHC@CMS_RecipientInfo?$AA@ 0008ab88     libeay32:cms_asn1.obj
 0002:00022b9c       ??_C@_05CDKGAJPA@d?4ori?$AA@ 0008ab9c     libeay32:cms_asn1.obj
 0002:00022ba4       ??_C@_06MMLMDIAL@d?4pwri?$AA@ 0008aba4     libeay32:cms_asn1.obj
 0002:00022bac       ??_C@_07GNHCNHGA@d?4kekri?$AA@ 0008abac     libeay32:cms_asn1.obj
 0002:00022bb4       ??_C@_06KOPOJGNL@d?4kari?$AA@ 0008abb4     libeay32:cms_asn1.obj
 0002:00022bbc       ??_C@_06MJDJDBHG@d?4ktri?$AA@ 0008abbc     libeay32:cms_asn1.obj
 0002:00022bc4       ??_C@_0BH@ELFPNLNE@CMS_OtherRecipientInfo?$AA@ 0008abc4     libeay32:cms_asn1.obj
 0002:00022bdc       ??_C@_08CPLCPCAK@oriValue?$AA@ 0008abdc     libeay32:cms_asn1.obj
 0002:00022be8       ??_C@_07FAMFHMLO@oriType?$AA@ 0008abe8     libeay32:cms_asn1.obj
 0002:00022bf0       ??_C@_0BK@KBPCOALF@CMS_PasswordRecipientInfo?$AA@ 0008abf0     libeay32:cms_asn1.obj
 0002:00022c0c       ??_C@_0BH@OGDBOKG@keyDerivationAlgorithm?$AA@ 0008ac0c     libeay32:cms_asn1.obj
 0002:00022c24       ??_C@_0BF@NBHFGDNK@CMS_KEKRecipientInfo?$AA@ 0008ac24     libeay32:cms_asn1.obj
 0002:00022c3c       ??_C@_05NHGMHHPG@kekid?$AA@ 0008ac3c     libeay32:cms_asn1.obj
 0002:00022c44       ??_C@_0BC@MBEMIKEG@CMS_KEKIdentifier?$AA@ 0008ac44     libeay32:cms_asn1.obj
 0002:00022c58       ??_C@_0O@NFJHJHKH@keyIdentifier?$AA@ 0008ac58     libeay32:cms_asn1.obj
 0002:00022c68       ??_C@_0BK@FMJLFKK@CMS_KeyAgreeRecipientInfo?$AA@ 0008ac68     libeay32:cms_asn1.obj
 0002:00022c84       ??_C@_0BH@PJIHPFGD@recipientEncryptedKeys?$AA@ 0008ac84     libeay32:cms_asn1.obj
 0002:00022c9c       ??_C@_03BGILEBGG@ukm?$AA@  0008ac9c     libeay32:cms_asn1.obj
 0002:00022ca0       ??_C@_0L@LNFLHOFG@originator?$AA@ 0008aca0     libeay32:cms_asn1.obj
 0002:00022cac       ??_C@_0BO@EGGGKLC@CMS_OriginatorIdentifierOrKey?$AA@ 0008acac     libeay32:cms_asn1.obj
 0002:00022ccc       ??_C@_0BA@GMAGEPIK@d?4originatorKey?$AA@ 0008accc     libeay32:cms_asn1.obj
 0002:00022cdc       ??_C@_0BI@BANGJHOF@CMS_OriginatorPublicKey?$AA@ 0008acdc     libeay32:cms_asn1.obj
 0002:00022cf4       ??_C@_0BK@PEPAIBDP@CMS_RecipientEncryptedKey?$AA@ 0008acf4     libeay32:cms_asn1.obj
 0002:00022d10       ??_C@_0CA@LLLOPIGI@CMS_KeyAgreeRecipientIdentifier?$AA@ 0008ad10     libeay32:cms_asn1.obj
 0002:00022d30       ??_C@_08NDNCHPPH@d?4rKeyId?$AA@ 0008ad30     libeay32:cms_asn1.obj
 0002:00022d3c       ??_C@_0BL@KIFNEPBG@CMS_RecipientKeyIdentifier?$AA@ 0008ad3c     libeay32:cms_asn1.obj
 0002:00022d58       ??_C@_05BGEKGIIP@other?$AA@ 0008ad58     libeay32:cms_asn1.obj
 0002:00022d60       ??_C@_04JNIHBGGH@date?$AA@ 0008ad60     libeay32:cms_asn1.obj
 0002:00022d68       ??_C@_0BG@MPKMCLOF@CMS_OtherKeyAttribute?$AA@ 0008ad68     libeay32:cms_asn1.obj
 0002:00022d80       ??_C@_07CNMADOPK@keyAttr?$AA@ 0008ad80     libeay32:cms_asn1.obj
 0002:00022d88       ??_C@_09FBOICBLA@keyAttrId?$AA@ 0008ad88     libeay32:cms_asn1.obj
 0002:00022d94       ??_C@_0BK@JKNAJMBM@CMS_KeyTransRecipientInfo?$AA@ 0008ad94     libeay32:cms_asn1.obj
 0002:00022db0       ??_C@_0N@DJLGIBLA@encryptedKey?$AA@ 0008adb0     libeay32:cms_asn1.obj
 0002:00022dc0       ??_C@_0BH@NBKKPKMP@keyEncryptionAlgorithm?$AA@ 0008adc0     libeay32:cms_asn1.obj
 0002:00022dd8       ??_C@_03FJBKBGPI@rid?$AA@  0008add8     libeay32:cms_asn1.obj
 0002:00022ddc       ??_C@_0BJ@IHPALOIM@CMS_EncryptedContentInfo?$AA@ 0008addc     libeay32:cms_asn1.obj
 0002:00022df8       ??_C@_0BB@HAOJNDCF@encryptedContent?$AA@ 0008adf8     libeay32:cms_asn1.obj
 0002:00022e0c       ??_C@_0BL@JFGGCGJK@contentEncryptionAlgorithm?$AA@ 0008ae0c     libeay32:cms_asn1.obj
 0002:00022e28       ??_C@_0BD@BOLANDH@CMS_OriginatorInfo?$AA@ 0008ae28     libeay32:cms_asn1.obj
 0002:00022e3c       ??_C@_0P@IFJHOEIE@CMS_SignedData?$AA@ 0008ae3c     libeay32:cms_asn1.obj
 0002:00022e4c       ??_C@_0M@OPIAHELE@signerInfos?$AA@ 0008ae4c     libeay32:cms_asn1.obj
 0002:00022e58       ??_C@_04GDKGHFBJ@crls?$AA@ 0008ae58     libeay32:cms_asn1.obj
 0002:00022e60       ??_C@_0N@NGKEHKOM@certificates?$AA@ 0008ae60     libeay32:cms_asn1.obj
 0002:00022e70       ??_C@_0BB@EFFJPOAL@encapContentInfo?$AA@ 0008ae70     libeay32:cms_asn1.obj
 0002:00022e84       ??_C@_0BB@CMPBPEDI@digestAlgorithms?$AA@ 0008ae84     libeay32:cms_asn1.obj
 0002:00022e98       ??_C@_0BJ@MJACOINL@CMS_RevocationInfoChoice?$AA@ 0008ae98     libeay32:cms_asn1.obj
 0002:00022eb4       ??_C@_05BEAHECAN@d?4crl?$AA@ 0008aeb4     libeay32:cms_asn1.obj
 0002:00022ebc       ??_C@_0BO@ONAFHMMC@CMS_OtherRevocationInfoFormat?$AA@ 0008aebc     libeay32:cms_asn1.obj
 0002:00022edc       ??_C@_0N@MOBLFMFA@otherRevInfo?$AA@ 0008aedc     libeay32:cms_asn1.obj
 0002:00022eec       ??_C@_0BD@HLCFDNLB@otherRevInfoFormat?$AA@ 0008aeec     libeay32:cms_asn1.obj
 0002:00022f00       ??_C@_0P@HBMKILHF@CMS_SignerInfo?$AA@ 0008af00     libeay32:cms_asn1.obj
 0002:00022f10       ??_C@_0O@PDNEMLFH@unsignedAttrs?$AA@ 0008af10     libeay32:cms_asn1.obj
 0002:00022f20       ??_C@_0BD@CBMBFDMH@signatureAlgorithm?$AA@ 0008af20     libeay32:cms_asn1.obj
 0002:00022f34       ??_C@_0M@MDGDHPDJ@signedAttrs?$AA@ 0008af34     libeay32:cms_asn1.obj
 0002:00022f40       ??_C@_0BA@OBGGJDDI@digestAlgorithm?$AA@ 0008af40     libeay32:cms_asn1.obj
 0002:00022f50       ??_C@_03OBKGHBJN@sid?$AA@  0008af50     libeay32:cms_asn1.obj
 0002:00022f54       ??_C@_0BM@FGCJFMKP@CMS_EncapsulatedContentInfo?$AA@ 0008af54     libeay32:cms_asn1.obj
 0002:00022f70       ??_C@_08OOKAKDHE@eContent?$AA@ 0008af70     libeay32:cms_asn1.obj
 0002:00022f7c       ??_C@_0N@EBAJNGML@eContentType?$AA@ 0008af7c     libeay32:cms_asn1.obj
 0002:00022f8c       ??_C@_0BF@HIKDPBH@CMS_SignerIdentifier?$AA@ 0008af8c     libeay32:cms_asn1.obj
 0002:00022fa4       ??_C@_0BH@LJLJDHKP@d?4subjectKeyIdentifier?$AA@ 0008afa4     libeay32:cms_asn1.obj
 0002:00022fbc       ??_C@_0BI@DNGDMGHK@d?4issuerAndSerialNumber?$AA@ 0008afbc     libeay32:cms_asn1.obj
 0002:00022fd4       ??_C@_0BH@CFNIJMB@CMS_CertificateChoices?$AA@ 0008afd4     libeay32:cms_asn1.obj
 0002:00022fec       ??_C@_0N@FODDOFO@d?4v2AttrCert?$AA@ 0008afec     libeay32:cms_asn1.obj
 0002:00022ffc       ??_C@_0N@OONEIFFN@d?4v1AttrCert?$AA@ 0008affc     libeay32:cms_asn1.obj
 0002:0002300c       ??_C@_0BG@NLAONGA@d?4extendedCertificate?$AA@ 0008b00c     libeay32:cms_asn1.obj
 0002:00023024       ??_C@_0O@MNFCNMPJ@d?4certificate?$AA@ 0008b024     libeay32:cms_asn1.obj
 0002:00023034       ??_C@_0BL@CACJFKMB@CMS_OtherCertificateFormat?$AA@ 0008b034     libeay32:cms_asn1.obj
 0002:00023050       ??_C@_09CDBALEP@otherCert?$AA@ 0008b050     libeay32:cms_asn1.obj
 0002:0002305c       ??_C@_0BA@FEKMLOFK@otherCertFormat?$AA@ 0008b05c     libeay32:cms_asn1.obj
 0002:0002306c       ??_C@_0BK@GLMHLHML@CMS_IssuerAndSerialNumber?$AA@ 0008b06c     libeay32:cms_asn1.obj
 0002:000230b4       ??_C@_0O@MABGKINF@timestampsign?$AA@ 0008b0b4     libeay32:v3_purp.obj
 0002:000230c4       ??_C@_0BD@HLGKGIIB@Time?5Stamp?5signing?$AA@ 0008b0c4     libeay32:v3_purp.obj
 0002:000230d8       ??_C@_0L@IMHCEJBK@ocsphelper?$AA@ 0008b0d8     libeay32:v3_purp.obj
 0002:000230e4       ??_C@_0M@NEPIMEJA@OCSP?5helper?$AA@ 0008b0e4     libeay32:v3_purp.obj
 0002:000230f0       ??_C@_03OBJFJEBA@any?$AA@  0008b0f0     libeay32:v3_purp.obj
 0002:000230f4       ??_C@_0M@NMNFLNDB@Any?5Purpose?$AA@ 0008b0f4     libeay32:v3_purp.obj
 0002:00023100       ??_C@_07IOMCDAPH@crlsign?$AA@ 0008b100     libeay32:v3_purp.obj
 0002:00023108       ??_C@_0M@MEKLJHLA@CRL?5signing?$AA@ 0008b108     libeay32:v3_purp.obj
 0002:00023114       ??_C@_0N@BPFJELMP@smimeencrypt?$AA@ 0008b114     libeay32:v3_purp.obj
 0002:00023124       ??_C@_0BC@DOGNOPGC@S?1MIME?5encryption?$AA@ 0008b124     libeay32:v3_purp.obj
 0002:00023138       ??_C@_09JPGBHOKH@smimesign?$AA@ 0008b138     libeay32:v3_purp.obj
 0002:00023144       ??_C@_0P@LNDEBCCO@S?1MIME?5signing?$AA@ 0008b144     libeay32:v3_purp.obj
 0002:00023154       ??_C@_0M@GKHHMMAE@nssslserver?$AA@ 0008b154     libeay32:v3_purp.obj
 0002:00023160       ??_C@_0BE@BPEJPGJG@Netscape?5SSL?5server?$AA@ 0008b160     libeay32:v3_purp.obj
 0002:00023174       ??_C@_09FEILOJPJ@sslserver?$AA@ 0008b174     libeay32:v3_purp.obj
 0002:00023180       ??_C@_0L@PNDNFADH@SSL?5server?$AA@ 0008b180     libeay32:v3_purp.obj
 0002:0002318c       ??_C@_09BLMJDCHK@sslclient?$AA@ 0008b18c     libeay32:v3_purp.obj
 0002:00023198       ??_C@_0L@LCHPILLE@SSL?5client?$AA@ 0008b198     libeay32:v3_purp.obj
 0002:000231a8       ??_C@_0FA@EPMAEJOB@d?3?2wm653wehh?2platform?2mvv210?2src@ 0008b1a8     libeay32:v3_purp.obj
 0002:00023214       ??_C@_09DHMKJJNA@ASN1_TIME?$AA@ 0008b214     libeay32:a_time.obj
 0002:00023220       ??_C@_0EN@IOPKJOHJ@d?3?2wm653wehh?2platform?2mvv210?2src@ 0008b220     libeay32:a_time.obj
 0002:00023270       X509_version               0008b270     libeay32:x509_vfy.obj
 0002:0002329c       ??_C@_07DLHCIBDH@default?$AA@ 0008b29c     libeay32:x509_vfy.obj
 0002:000232a8       ??_C@_0EN@MLHPIIH@d?3?2wm653wehh?2platform?2mvv210?2src@ 0008b2a8     libeay32:cms_lib.obj
 0002:000232f8       ??_C@_0EM@MHADPNEH@d?3?2wm653wehh?2platform?2mvv210?2src@ 0008b2f8     libeay32:p_sign.obj
 0002:00023348       ??_C@_0EO@MKGDCJCA@d?3?2wm653wehh?2platform?2mvv210?2src@ 0008b348     libeay32:dsa_ossl.obj
 0002:000233d4       ??_C@_06CHOIGJDB@BIGNUM?$AA@ 0008b3d4     libeay32:x_bignum.obj
 0002:000233e0       ??_C@_0EM@LKCJBLMG@d?3?2wm653wehh?2platform?2mvv210?2src@ 0008b3e0     libeay32:bn_recp.obj
 0002:00023430       ??_C@_0EL@CLIEFBLC@d?3?2wm653wehh?2platform?2mvv210?2src@ 0008b430     libeay32:bn_mod.obj
 0002:00023480       ??_C@_0EM@PNNGIHGB@d?3?2wm653wehh?2platform?2mvv210?2src@ 0008b480     libeay32:bn_mont.obj
 0002:000234d0       ??_C@_0EL@HJNLGKMO@d?3?2wm653wehh?2platform?2mvv210?2src@ 0008b4d0     libeay32:bn_div.obj
 0002:00023530       ??_C@_0EP@ELMNNBNC@d?3?2wm653wehh?2platform?2mvv210?2src@ 0008b530     libeay32:x509_obj.obj
 0002:00023580       ??_C@_0N@MJCHLFGM@NO?5X509_NAME?$AA@ 0008b580     libeay32:x509_obj.obj
 0002:00023590       ??_C@_08DGFAABGD@?$DMEMPTY?$DO?6?$AA@ 0008b590     libeay32:v3_prn.obj
 0002:0002359c       ??_C@_03HIJPJGOM@?$CF?$CKs?$AA@ 0008b59c     libeay32:v3_prn.obj
 0002:000235a0       ??_C@_08CBBMEOFB@critical?$AA@ 0008b5a0     libeay32:v3_prn.obj
 0002:000235ac       ??_C@_07GOIIHCND@?$CF?$CKs?$CFs?3?6?$AA@ 0008b5ac     libeay32:v3_prn.obj
 0002:00023670       ??_C@_02HDBGODGB@?2?2?$AA@ 0008b670     libeay32:a_strex.obj
 0002:00023674       ??_C@_05JJPGCIKH@?2?$CF02X?$AA@ 0008b674     libeay32:a_strex.obj
 0002:0002367c       ??_C@_01KICIPPFI@?2?$AA@   0008b67c     libeay32:a_strex.obj
 0002:00023680       ??_C@_07FDBPKGOC@?2U?$CF04lX?$AA@ 0008b680     libeay32:a_strex.obj
 0002:00023688       ??_C@_07IOFGAIHD@?2W?$CF08lX?$AA@ 0008b688     libeay32:a_strex.obj
 0002:00023690       ??_C@_0EO@POPABNG@d?3?2wm653wehh?2platform?2mvv210?2src@ 0008b690     libeay32:a_strex.obj
 0002:000236e0       ??_C@_01IPJKGB@?$CD?$AA@   0008b6e0     libeay32:a_strex.obj
 0002:000236e4       ??_C@_01BJJEKLCA@?$CC?$AA@ 0008b6e4     libeay32:a_strex.obj
 0002:000236e8       ??_C@_01NEMOKFLO@?$DN?$AA@ 0008b6e8     libeay32:a_strex.obj
 0002:000236ec       ??_C@_03MHLONNLM@?5?$DN?5?$AA@ 0008b6ec     libeay32:a_strex.obj
 0002:000236f0       ??_C@_01IHBHIGKO@?0?$AA@   0008b6f0     libeay32:a_strex.obj
 0002:000236f4       ??_C@_01MIFGBAGJ@?$CL?$AA@ 0008b6f4     libeay32:a_strex.obj
 0002:000236f8       ??_C@_02LNAEAIDO@?$DL?5?$AA@ 0008b6f8     libeay32:a_strex.obj
 0002:000236fc       ??_C@_03NPBFACHO@?5?$CL?5?$AA@ 0008b6fc     libeay32:a_strex.obj
 0002:00023708       ??_C@_0EN@CHOOKOEN@d?3?2wm653wehh?2platform?2mvv210?2src@ 0008b708     libeay32:bn_blind.obj
 0002:00023758       ??_C@_0EL@EPOPJPNF@d?3?2wm653wehh?2platform?2mvv210?2src@ 0008b758     libeay32:bn_gcd.obj
 0002:000237a8       ??_C@_0EL@CLJGKANI@d?3?2wm653wehh?2platform?2mvv210?2src@ 0008b7a8     libeay32:bn_add.obj
 0002:000237f4       ??_C@_0BI@NFPKAKEA@Eric?5Young?8s?5PKCS?$CD1?5RSA?$AA@ 0008b7f4     libeay32:rsa_eay.obj
 0002:00023810       ??_C@_0EN@FLFPHDGA@d?3?2wm653wehh?2platform?2mvv210?2src@ 0008b810     libeay32:rsa_eay.obj
 0002:00023868       ??_C@_0EN@CBCEBCDK@d?3?2wm653wehh?2platform?2mvv210?2src@ 0008b868     libeay32:cms_enc.obj
 0002:000238b8       ??_C@_0EO@PHNCOBFO@d?3?2wm653wehh?2platform?2mvv210?2src@ 0008b8b8     libeay32:pmeth_fn.obj
 0002:00023910       AES_version                0008b910     libeay32:aes_misc.obj
 0002:00023938       ??_C@_0EO@LKMDOFNL@d?3?2wm653wehh?2platform?2mvv210?2src@ 0008b938     libeay32:cms_pwri.obj
 0002:00023988       ??_C@_0EP@KDEOOFHE@d?3?2wm653wehh?2platform?2mvv210?2src@ 0008b988     libeay32:evp_asn1.obj
 0002:000239d8       ??_C@_0EN@MHHCMNBH@d?3?2wm653wehh?2platform?2mvv210?2src@ 0008b9d8     libeay32:a_enum.obj
 0002:00023a28       ??_C@_0EP@KFOAJJMD@d?3?2wm653wehh?2platform?2mvv210?2src@ 0008ba28     libeay32:x509name.obj
 0002:00023a78       ??_C@_05DFCJAACA@name?$DN?$AA@ 0008ba78     libeay32:x509name.obj
 0002:00023af4       v3_sinfo                   0008baf4     libeay32:v3_info.obj
 0002:00023b2c       v3_info                    0008bb2c     libeay32:v3_info.obj
 0002:00023b64       ??_C@_0BG@PFEKCAHJ@AUTHORITY_INFO_ACCESS?$AA@ 0008bb64     libeay32:v3_info.obj
 0002:00023b7c       ??_C@_0N@CJKIBDLK@GeneralNames?$AA@ 0008bb7c     libeay32:v3_info.obj
 0002:00023b8c       ??_C@_0BD@IKHCEBLA@ACCESS_DESCRIPTION?$AA@ 0008bb8c     libeay32:v3_info.obj
 0002:00023ba0       ??_C@_08CBBFJFMD@location?$AA@ 0008bba0     libeay32:v3_info.obj
 0002:00023bac       ??_C@_06GABBCIBA@method?$AA@ 0008bbac     libeay32:v3_info.obj
 0002:00023bb4       ??_C@_03NLJIHOMM@?5?9?5?$AA@ 0008bbb4     libeay32:v3_info.obj
 0002:00023bb8       ??_C@_0FA@EJINBECP@d?3?2wm653wehh?2platform?2mvv210?2src@ 0008bbb8     libeay32:v3_info.obj
 0002:00023c08       ??_C@_06KFEJCPI@value?$DN?$AA@ 0008bc08     libeay32:v3_info.obj
 0002:00023c10       ??_C@_0EP@JMDNBNIF@d?3?2wm653wehh?2platform?2mvv210?2src@ 0008bc10     libeay32:conf_mod.obj
 0002:00023c60       ??_C@_01KMDKNFGN@?1?$AA@   0008bc60     libeay32:conf_mod.obj
 0002:00023df4       ??_C@_0O@NFAAPMIG@GENERAL_NAMES?$AA@ 0008bdf4     libeay32:v3_genn.obj
 0002:00023e04       ??_C@_0N@JCNPGCGM@GENERAL_NAME?$AA@ 0008be04     libeay32:v3_genn.obj
 0002:00023e14       ??_C@_0P@KIENIEMD@d?4registeredID?$AA@ 0008be14     libeay32:v3_genn.obj
 0002:00023e24       ??_C@_0M@PANAALJB@d?4iPAddress?$AA@ 0008be24     libeay32:v3_genn.obj
 0002:00023e30       ??_C@_0BM@CMCMADCA@d?4uniformResourceIdentifier?$AA@ 0008be30     libeay32:v3_genn.obj
 0002:00023e4c       ??_C@_0P@OBCPPLOL@d?4ediPartyName?$AA@ 0008be4c     libeay32:v3_genn.obj
 0002:00023e5c       ??_C@_0BA@JLDFBFLN@d?4directoryName?$AA@ 0008be5c     libeay32:v3_genn.obj
 0002:00023e6c       ??_C@_0O@NKHOODFK@d?4x400Address?$AA@ 0008be6c     libeay32:v3_genn.obj
 0002:00023e7c       ??_C@_09HIBJABFB@d?4dNSName?$AA@ 0008be7c     libeay32:v3_genn.obj
 0002:00023e88       ??_C@_0N@MMCCMIPN@d?4rfc822Name?$AA@ 0008be88     libeay32:v3_genn.obj
 0002:00023e98       ??_C@_0M@FGIBMCEL@d?4otherName?$AA@ 0008be98     libeay32:v3_genn.obj
 0002:00023ea4       ??_C@_0N@GEILLNKP@EDIPARTYNAME?$AA@ 0008bea4     libeay32:v3_genn.obj
 0002:00023eb4       ??_C@_09EHIHAIPF@partyName?$AA@ 0008beb4     libeay32:v3_genn.obj
 0002:00023ec0       ??_C@_0N@KBFEHHDO@nameAssigner?$AA@ 0008bec0     libeay32:v3_genn.obj
 0002:00023ed0       ??_C@_09MAFAINAH@OTHERNAME?$AA@ 0008bed0     libeay32:v3_genn.obj
 0002:00023edc       ??_C@_07EEDOJOAA@type_id?$AA@ 0008bedc     libeay32:v3_genn.obj
 0002:00023f6c       ??_C@_0BA@JCMMJNEE@X509_EXTENSIONS?$AA@ 0008bf6c     libeay32:x_exten.obj
 0002:00023f7c       ??_C@_09KMFOEAAA@Extension?$AA@ 0008bf7c     libeay32:x_exten.obj
 0002:00023f88       ??_C@_0P@OMHBNPIC@X509_EXTENSION?$AA@ 0008bf88     libeay32:x_exten.obj
 0002:00023fdc       ??_C@_09FLJPBFIA@ECDSA_SIG?$AA@ 0008bfdc     libeay32:ecs_asn1.obj
 0002:00023fe8       ECDH_version               0008bfe8     libeay32:ech_lib.obj
 0002:00024010       ??_C@_0EO@JGKBLENE@d?3?2wm653wehh?2platform?2mvv210?2src@ 0008c010     libeay32:ech_lib.obj
 0002:00025060       ??_C@_0EO@FBMJEFIA@d?3?2wm653wehh?2platform?2mvv210?2src@ 0008d060     libeay32:rsa_oaep.obj
 0002:000250f4       ??_C@_08DFMPDBMK@X509_SIG?$AA@ 0008d0f4     libeay32:x_sig.obj
 0002:00025100       ??_C@_0BF@JMOFLBJO@keylen?5?$DM?$DN?5sizeof?5key?$AA@ 0008d100     libeay32:p5_crpt2.obj
 0002:00025118       ??_C@_0EO@DONPFFAH@d?3?2wm653wehh?2platform?2mvv210?2src@ 0008d118     libeay32:p5_crpt2.obj
 0002:00025168       ??_C@_0FB@IJLBCKEP@d?3?2wm653wehh?2platform?2mvv210?2src@ 0008d168     libeay32:p12_crpt.obj
 0002:000251bc       ??_C@_0CD@HMFJNEFL@EVP_CIPHER_iv_length?$CIcipher?$CJ?5?$DM?$DN?5@ 0008d1bc     libeay32:p5_crpt.obj
 0002:000251e0       ??_C@_0DF@FHOHFFEB@EVP_CIPHER_key_length?$CIcipher?$CJ?5?$DM?$DN@ 0008d1e0     libeay32:p5_crpt.obj
 0002:00025218       ??_C@_0EN@DFHCIHFJ@d?3?2wm653wehh?2platform?2mvv210?2src@ 0008d218     libeay32:p5_crpt.obj
 0002:00025268       ??_C@_0FC@NLMGEGGH@d?3?2wm653wehh?2platform?2mvv210?2src@ 0008d268     libeay32:tb_cipher.obj
 0002:000252c0       ??_C@_0EP@DLKDJLKC@d?3?2wm653wehh?2platform?2mvv210?2src@ 0008d2c0     libeay32:buffer.obj
 0002:00025310       ??_C@_0EP@EEJMGOIG@d?3?2wm653wehh?2platform?2mvv210?2src@ 0008d310     libeay32:tasn_utl.obj
 0002:00025360       ??_C@_0EN@JCJEBHDE@d?3?2wm653wehh?2platform?2mvv210?2src@ 0008d360     libeay32:ec2_mult.obj
 0002:000253f0       ??_C@_0EM@KOFLLDDI@d?3?2wm653wehh?2platform?2mvv210?2src@ 0008d3f0     libeay32:bn_gf2m.obj
 0002:00025440       ??_C@_0EM@IBBLLJFJ@d?3?2wm653wehh?2platform?2mvv210?2src@ 0008d440     libeay32:ec2_oct.obj
 0002:00025490       ??_C@_0EM@OKKDHMMJ@d?3?2wm653wehh?2platform?2mvv210?2src@ 0008d490     libeay32:ecp_oct.obj
 0002:00025580       ??_C@_0EN@LKHNEOCI@d?3?2wm653wehh?2platform?2mvv210?2src@ 0008d580     libeay32:ecp_mont.obj
 0002:00025670       ??_C@_0EN@MFLMOEJL@d?3?2wm653wehh?2platform?2mvv210?2src@ 0008d670     libeay32:ecp_nist.obj
 0002:000256c0       ??_C@_0FA@NNAIMOGG@d?3?2wm653wehh?2platform?2mvv210?2src@ 0008d6c0     libeay32:pk7_doit.obj
 0002:00025710       ??_C@_0M@FCFDJGIC@?$CF?$CKs?$DMEMPTY?$DO?6?$AA@ 0008d710     libeay32:tasn_prn.obj
 0002:0002571c       ??_C@_08POLPFBMC@SEQUENCE?$AA@ 0008d71c     libeay32:tasn_prn.obj
 0002:00025728       ??_C@_03KPIFFHNE@SET?$AA@  0008d728     libeay32:tasn_prn.obj
 0002:00025770       ??_C@_08OPPGEJIL@X509_VAL?$AA@ 0008d770     libeay32:x_val.obj
 0002:0002577c       ??_C@_08PJIFIJBI@notAfter?$AA@ 0008d77c     libeay32:x_val.obj
 0002:00025788       ??_C@_09MJPOMOII@notBefore?$AA@ 0008d788     libeay32:x_val.obj
 0002:000257f4       v3_name_constraints        0008d7f4     libeay32:v3_ncons.obj
 0002:00025868       ??_C@_0BB@MLLJAFMN@NAME_CONSTRAINTS?$AA@ 0008d868     libeay32:v3_ncons.obj
 0002:0002587c       ??_C@_0BB@HLFEMJKE@excludedSubtrees?$AA@ 0008d87c     libeay32:v3_ncons.obj
 0002:00025890       ??_C@_0BC@FACFJLFB@permittedSubtrees?$AA@ 0008d890     libeay32:v3_ncons.obj
 0002:000258a4       ??_C@_0BA@ECMIFHDE@GENERAL_SUBTREE?$AA@ 0008d8a4     libeay32:v3_ncons.obj
 0002:000258b4       ??_C@_07MEIENILC@maximum?$AA@ 0008d8b4     libeay32:v3_ncons.obj
 0002:000258bc       ??_C@_07CCOEHHFD@minimum?$AA@ 0008d8bc     libeay32:v3_ncons.obj
 0002:000258c8       ??_C@_0FB@NFBAFBGE@d?3?2wm653wehh?2platform?2mvv210?2src@ 0008d8c8     libeay32:v3_ncons.obj
 0002:0002591c       ??_C@_08HPCEJEEF@excluded?$AA@ 0008d91c     libeay32:v3_ncons.obj
 0002:00025928       ??_C@_09HAKFOFAM@permitted?$AA@ 0008d928     libeay32:v3_ncons.obj
 0002:00025934       ??_C@_0BF@JMMIKJMP@IP?5Address?3?$DMinvalid?$DO?$AA@ 0008d934     libeay32:v3_ncons.obj
 0002:0002594c       ??_C@_02EMFKHFLK@?$CFX?$AA@ 0008d94c     libeay32:v3_ncons.obj
 0002:00025950       ??_C@_0BI@IFNIGPEJ@?$CFd?4?$CFd?4?$CFd?4?$CFd?1?$CFd?4?$CFd?4?$CFd?4?$CFd?$AA@ 0008d950     libeay32:v3_ncons.obj
 0002:00025968       ??_C@_03HBLCMHJN@IP?3?$AA@ 0008d968     libeay32:v3_ncons.obj
 0002:0002596c       ??_C@_09DPPIOGNM@Permitted?$AA@ 0008d96c     libeay32:v3_ncons.obj
 0002:00025978       ??_C@_08PNNFBGOG@Excluded?$AA@ 0008d978     libeay32:v3_ncons.obj
 0002:00025a4c       v3_idp                     0008da4c     libeay32:v3_crld.obj
 0002:00025a84       v3_freshest_crl            0008da84     libeay32:v3_crld.obj
 0002:00025abc       v3_crld                    0008dabc     libeay32:v3_crld.obj
 0002:00025c20       ??_C@_0BD@ENBCPHJ@ISSUING_DIST_POINT?$AA@ 0008dc20     libeay32:v3_crld.obj
 0002:00025c34       ??_C@_08DBIINPPL@onlyattr?$AA@ 0008dc34     libeay32:v3_crld.obj
 0002:00025c40       ??_C@_0M@BECDICJC@indirectCRL?$AA@ 0008dc40     libeay32:v3_crld.obj
 0002:00025c4c       ??_C@_0BA@FNMBIJDN@onlysomereasons?$AA@ 0008dc4c     libeay32:v3_crld.obj
 0002:00025c5c       ??_C@_06PMNIEKCA@onlyCA?$AA@ 0008dc5c     libeay32:v3_crld.obj
 0002:00025c64       ??_C@_08CENLBPEH@onlyuser?$AA@ 0008dc64     libeay32:v3_crld.obj
 0002:00025c70       ??_C@_0BA@BBHAIMOE@CRL_DIST_POINTS?$AA@ 0008dc70     libeay32:v3_crld.obj
 0002:00025c80       ??_C@_0BG@CHNNADAE@CRLDistributionPoints?$AA@ 0008dc80     libeay32:v3_crld.obj
 0002:00025c98       ??_C@_0L@ELIKPJIH@DIST_POINT?$AA@ 0008dc98     libeay32:v3_crld.obj
 0002:00025ca4       ??_C@_09GJHADLCP@CRLissuer?$AA@ 0008dca4     libeay32:v3_crld.obj
 0002:00025cb0       ??_C@_07PFOCLIJD@reasons?$AA@ 0008dcb0     libeay32:v3_crld.obj
 0002:00025cb8       ??_C@_09FBDFGJDL@distpoint?$AA@ 0008dcb8     libeay32:v3_crld.obj
 0002:00025cc4       ??_C@_0BA@MLHIPLLG@DIST_POINT_NAME?$AA@ 0008dcc4     libeay32:v3_crld.obj
 0002:00025cd4       ??_C@_0BC@JDMJBKME@name?4relativename?$AA@ 0008dcd4     libeay32:v3_crld.obj
 0002:00025ce8       ??_C@_0O@HJHJCLAE@name?4fullname?$AA@ 0008dce8     libeay32:v3_crld.obj
 0002:00025cf8       ??_C@_0N@LOIIODKP@AACompromise?$AA@ 0008dcf8     libeay32:v3_crld.obj
 0002:00025d08       ??_C@_0O@PAGOKAK@AA?5Compromise?$AA@ 0008dd08     libeay32:v3_crld.obj
 0002:00025d18       ??_C@_0BD@PBLGJKCE@privilegeWithdrawn?$AA@ 0008dd18     libeay32:v3_crld.obj
 0002:00025d2c       ??_C@_0BE@FJCCMGMM@Privilege?5Withdrawn?$AA@ 0008dd2c     libeay32:v3_crld.obj
 0002:00025d40       ??_C@_0BA@FBHLCNLK@certificateHold?$AA@ 0008dd40     libeay32:v3_crld.obj
 0002:00025d50       ??_C@_0BB@IPDHDNJD@Certificate?5Hold?$AA@ 0008dd50     libeay32:v3_crld.obj
 0002:00025d64       ??_C@_0BF@IGJCOPF@cessationOfOperation?$AA@ 0008dd64     libeay32:v3_crld.obj
 0002:00025d7c       ??_C@_0BH@OLCOAMGF@Cessation?5Of?5Operation?$AA@ 0008dd7c     libeay32:v3_crld.obj
 0002:00025d94       ??_C@_0L@NHCKNIFL@superseded?$AA@ 0008dd94     libeay32:v3_crld.obj
 0002:00025da0       ??_C@_0L@FBLGFHIM@Superseded?$AA@ 0008dda0     libeay32:v3_crld.obj
 0002:00025dac       ??_C@_0BD@BNOFAJLL@affiliationChanged?$AA@ 0008ddac     libeay32:v3_crld.obj
 0002:00025dc0       ??_C@_0BE@EECEIFAP@Affiliation?5Changed?$AA@ 0008ddc0     libeay32:v3_crld.obj
 0002:00025dd4       ??_C@_0N@NONEFGOE@CACompromise?$AA@ 0008ddd4     libeay32:v3_crld.obj
 0002:00025de4       ??_C@_0O@OOGICOKH@CA?5Compromise?$AA@ 0008dde4     libeay32:v3_crld.obj
 0002:00025df4       ??_C@_0O@MCEAAJLH@keyCompromise?$AA@ 0008ddf4     libeay32:v3_crld.obj
 0002:00025e04       ??_C@_0P@JENDIECI@Key?5Compromise?$AA@ 0008de04     libeay32:v3_crld.obj
 0002:00025e14       ??_C@_06OJAIHGIC@unused?$AA@ 0008de14     libeay32:v3_crld.obj
 0002:00025e1c       ??_C@_06CGLFEPBO@Unused?$AA@ 0008de1c     libeay32:v3_crld.obj
 0002:00025e28       ??_C@_0FA@EFIBGCB@d?3?2wm653wehh?2platform?2mvv210?2src@ 0008de28     libeay32:v3_crld.obj
 0002:00025e78       ??_C@_0L@NHIBCNGO@?$CF?$CKs?$CFs?3?6?$CF?$CKs?$AA@ 0008de78     libeay32:v3_crld.obj
 0002:00025e84       ??_C@_0BG@GIOHENJJ@?$CF?$CKsRelative?5Name?3?6?$CF?$CKs?$AA@ 0008de84     libeay32:v3_crld.obj
 0002:00025e9c       ??_C@_0P@DKAHDIGH@?$CF?$CKsFull?5Name?3?6?$AA@ 0008de9c     libeay32:v3_crld.obj
 0002:00025eac       ??_C@_0CA@IIIJNMJM@?$CF?$CKsOnly?5Attribute?5Certificates?6?$AA@ 0008deac     libeay32:v3_crld.obj
 0002:00025ecc       ??_C@_0BC@JDEOGEEL@Only?5Some?5Reasons?$AA@ 0008decc     libeay32:v3_crld.obj
 0002:00025ee0       ??_C@_0BB@FLBIDOKD@?$CF?$CKsIndirect?5CRL?6?$AA@ 0008dee0     libeay32:v3_crld.obj
 0002:00025ef4       ??_C@_0BJ@GKBBKMLO@?$CF?$CKsOnly?5CA?5Certificates?6?$AA@ 0008def4     libeay32:v3_crld.obj
 0002:00025f10       ??_C@_0BL@FLJCHEKF@?$CF?$CKsOnly?5User?5Certificates?6?$AA@ 0008df10     libeay32:v3_crld.obj
 0002:00025f2c       ??_C@_0BA@NBJIBLNE@?$CF?$CKsCRL?5Issuer?3?6?$AA@ 0008df2c     libeay32:v3_crld.obj
 0002:00025f3c       ??_C@_07MJENKMF@Reasons?$AA@ 0008df3c     libeay32:v3_crld.obj
 0002:00025f44       ??_C@_0N@LGEOMMHB@relativename?$AA@ 0008df44     libeay32:v3_crld.obj
 0002:00025f54       ??_C@_08BMACPLOA@fullname?$AA@ 0008df54     libeay32:v3_crld.obj
 0002:00025f60       ??_C@_06PPFMJOEO@onlyAA?$AA@ 0008df60     libeay32:v3_crld.obj
 0002:00025fc0       ??_C@_0BA@OPHCNPAP@AUTHORITY_KEYID?$AA@ 0008dfc0     libeay32:v3_akeya.obj
 0002:00025fd0       ??_C@_05CNHMOIOC@keyid?$AA@ 0008dfd0     libeay32:v3_akeya.obj
 0002:0002609c       ??_C@_0P@BDECDGPA@X509_CERT_PAIR?$AA@ 0008e09c     libeay32:x_x509a.obj
 0002:000260ac       ??_C@_07KOIEOCCE@reverse?$AA@ 0008e0ac     libeay32:x_x509a.obj
 0002:000260b4       ??_C@_07CJMBKHEI@forward?$AA@ 0008e0b4     libeay32:x_x509a.obj
 0002:000260bc       ??_C@_0O@LJIIOIG@X509_CERT_AUX?$AA@ 0008e0bc     libeay32:x_x509a.obj
 0002:000260cc       ??_C@_05NKHOCLEE@alias?$AA@ 0008e0cc     libeay32:x_x509a.obj
 0002:000260d4       ??_C@_06JPOFNODM@reject?$AA@ 0008e0d4     libeay32:x_x509a.obj
 0002:000260dc       ??_C@_05BMJJJIHB@trust?$AA@ 0008e0dc     libeay32:x_x509a.obj
 0002:000260e8       ??_C@_0EP@FNGDBEGO@d?3?2wm653wehh?2platform?2mvv210?2src@ 0008e0e8     libeay32:a_verify.obj
 0002:00026188       ??_C@_0EM@EIEBKGJ@d?3?2wm653wehh?2platform?2mvv210?2src@ 0008e188     libeay32:cms_io.obj
 0002:0002625c       ??_C@_0BK@PILNOGHK@PROXY_CERT_INFO_EXTENSION?$AA@ 0008e25c     libeay32:v3_pcia.obj
 0002:00026278       ??_C@_0M@KKFBCGOG@proxyPolicy?$AA@ 0008e278     libeay32:v3_pcia.obj
 0002:00026284       ??_C@_0BH@JBGKCLHC@pcPathLengthConstraint?$AA@ 0008e284     libeay32:v3_pcia.obj
 0002:0002629c       ??_C@_0N@CLKEFBDI@PROXY_POLICY?$AA@ 0008e29c     libeay32:v3_pcia.obj
 0002:000262ac       ??_C@_06NJNJNICG@policy?$AA@ 0008e2ac     libeay32:v3_pcia.obj
 0002:000262b4       ??_C@_0P@BLMEJDMO@policyLanguage?$AA@ 0008e2b4     libeay32:v3_pcia.obj
 0002:00026308       v3_bcons                   0008e308     libeay32:v3_bcons.obj
 0002:00026340       ??_C@_0BC@PKPCGCD@BASIC_CONSTRAINTS?$AA@ 0008e340     libeay32:v3_bcons.obj
 0002:00026354       ??_C@_07OGCPICFF@pathlen?$AA@ 0008e354     libeay32:v3_bcons.obj
 0002:0002635c       ??_C@_02DGMJAJHC@ca?$AA@   0008e35c     libeay32:v3_bcons.obj
 0002:00026360       ??_C@_02JLAAGLDA@CA?$AA@   0008e360     libeay32:v3_bcons.obj
 0002:00026368       ??_C@_0FB@ICLPEECL@d?3?2wm653wehh?2platform?2mvv210?2src@ 0008e368     libeay32:v3_bcons.obj
 0002:00026404       ??_C@_0BK@EMDNDBLP@?$CF04d?$CF02d?$CF02d?$CF02d?$CF02d?$CF02dZ?$AA@ 0008e404     libeay32:a_gentm.obj
 0002:00026420       ??_C@_0EO@HIOEHCAC@d?3?2wm653wehh?2platform?2mvv210?2src@ 0008e420     libeay32:a_gentm.obj
 0002:000264b0       ??_C@_0BK@PMAAGDOP@?$CF02d?$CF02d?$CF02d?$CF02d?$CF02d?$CF02dZ?$AA@ 0008e4b0     libeay32:a_utctm.obj
 0002:000264d0       ??_C@_0EO@DLENMAPA@d?3?2wm653wehh?2platform?2mvv210?2src@ 0008e4d0     libeay32:a_utctm.obj
 0002:00026520       ??_C@_0EP@COKBPCCM@d?3?2wm653wehh?2platform?2mvv210?2src@ 0008e520     libeay32:x509_att.obj
 0002:00026570       ??_C@_0L@CFEJKCOD@TSA?5server?$AA@ 0008e570     libeay32:x509_trs.obj
 0002:0002657c       ??_C@_0N@CAJJAOJD@OCSP?5request?$AA@ 0008e57c     libeay32:x509_trs.obj
 0002:0002658c       ??_C@_0P@JHCOMJOI@OCSP?5responder?$AA@ 0008e58c     libeay32:x509_trs.obj
 0002:0002659c       ??_C@_0O@EEPBMPKP@Object?5Signer?$AA@ 0008e59c     libeay32:x509_trs.obj
 0002:000265ac       ??_C@_0N@OEEPKGPL@S?1MIME?5email?$AA@ 0008e5ac     libeay32:x509_trs.obj
 0002:000265bc       ??_C@_0L@DCIAGJKL@SSL?5Server?$AA@ 0008e5bc     libeay32:x509_trs.obj
 0002:000265c8       ??_C@_0L@HNMCLCCI@SSL?5Client?$AA@ 0008e5c8     libeay32:x509_trs.obj
 0002:000265d4       ??_C@_0L@JNOGJJCA@compatible?$AA@ 0008e5d4     libeay32:x509_trs.obj
 0002:00026680       ??_C@_0L@MDHNNNKP@ssl_server?$AA@ 0008e680     libeay32:x509_vpm.obj
 0002:0002668c       ??_C@_0L@IMDPAGCM@ssl_client?$AA@ 0008e68c     libeay32:x509_vpm.obj
 0002:00026698       ??_C@_0L@GGDBHMO@smime_sign?$AA@ 0008e698     libeay32:x509_vpm.obj
 0002:000266a4       ??_C@_0P@ONGHGJEC@message?5digest?$AA@ 0008e6a4     libeay32:bio_md.obj
 0002:000266b4       ??_C@_0O@DIEIKEFB@memory?5buffer?$AA@ 0008e6b4     libeay32:bss_mem.obj
 0002:000266c8       ??_C@_0EN@IFBMAPDF@d?3?2wm653wehh?2platform?2mvv210?2src@ 0008e6c8     libeay32:bss_mem.obj
 0002:00026718       ??_C@_0EM@CLBFFJNJ@d?3?2wm653wehh?2platform?2mvv210?2src@ 0008e718     libeay32:cms_dd.obj
 0002:00026768       ??_C@_0EM@LBEFNFCH@d?3?2wm653wehh?2platform?2mvv210?2src@ 0008e768     libeay32:bn_exp2.obj
 0002:0002683c       ??_C@_09BIBABMFN@BMPSTRING?$AA@ 0008e83c     libeay32:asn1_par.obj
 0002:00026848       ??_C@_09FGHEBGDO@?$DMASN1?529?$DO?$AA@ 0008e848     libeay32:asn1_par.obj
 0002:00026854       ??_C@_0BA@EJHHDALK@UNIVERSALSTRING?$AA@ 0008e854     libeay32:asn1_par.obj
 0002:00026864       ??_C@_0O@DKDEPFLO@GENERALSTRING?$AA@ 0008e864     libeay32:asn1_par.obj
 0002:00026874       ??_C@_0O@KDAJCBO@VISIBLESTRING?$AA@ 0008e874     libeay32:asn1_par.obj
 0002:00026884       ??_C@_0O@MABADFB@GRAPHICSTRING?$AA@ 0008e884     libeay32:asn1_par.obj
 0002:00026894       ??_C@_0BA@LKNBIJBB@GENERALIZEDTIME?$AA@ 0008e894     libeay32:asn1_par.obj
 0002:000268a4       ??_C@_07HIOLDDN@UTCTIME?$AA@ 0008e8a4     libeay32:asn1_par.obj
 0002:000268ac       ??_C@_09JOMPLKGB@IA5STRING?$AA@ 0008e8ac     libeay32:asn1_par.obj
 0002:000268b8       ??_C@_0P@LNAMNBEL@VIDEOTEXSTRING?$AA@ 0008e8b8     libeay32:asn1_par.obj
 0002:000268c8       ??_C@_09FMBHBANP@T61STRING?$AA@ 0008e8c8     libeay32:asn1_par.obj
 0002:000268d4       ??_C@_0BA@FKHILLED@PRINTABLESTRING?$AA@ 0008e8d4     libeay32:asn1_par.obj
 0002:000268e4       ??_C@_0O@DFADMOGA@NUMERICSTRING?$AA@ 0008e8e4     libeay32:asn1_par.obj
 0002:000268f4       ??_C@_09ENNLEALE@?$DMASN1?515?$DO?$AA@ 0008e8f4     libeay32:asn1_par.obj
 0002:00026900       ??_C@_09EMBJCKID@?$DMASN1?514?$DO?$AA@ 0008e900     libeay32:asn1_par.obj
 0002:0002690c       ??_C@_09EJFGDMAG@?$DMASN1?513?$DO?$AA@ 0008e90c     libeay32:asn1_par.obj
 0002:00026918       ??_C@_0L@DCBPGANN@UTF8STRING?$AA@ 0008e918     libeay32:asn1_par.obj
 0002:00026924       ??_C@_09EKNCOIGI@?$DMASN1?511?$DO?$AA@ 0008e924     libeay32:asn1_par.obj
 0002:00026930       ??_C@_0L@KNIEMAKM@ENUMERATED?$AA@ 0008e930     libeay32:asn1_par.obj
 0002:0002693c       ??_C@_04PKFANLLI@REAL?$AA@ 0008e93c     libeay32:asn1_par.obj
 0002:00026944       ??_C@_08JHLDEHEK@EXTERNAL?$AA@ 0008e944     libeay32:asn1_par.obj
 0002:00026950       ??_C@_0BC@HDOCNDIH@OBJECT?5DESCRIPTOR?$AA@ 0008e950     libeay32:asn1_par.obj
 0002:00026964       ??_C@_06IAMCMNFI@OBJECT?$AA@ 0008e964     libeay32:asn1_par.obj
 0002:0002696c       ??_C@_0N@KPGGMDFC@OCTET?5STRING?$AA@ 0008e96c     libeay32:asn1_par.obj
 0002:0002697c       ??_C@_0L@EKOKPLKE@BIT?5STRING?$AA@ 0008e97c     libeay32:asn1_par.obj
 0002:00026988       ??_C@_07EHCIHKNF@INTEGER?$AA@ 0008e988     libeay32:asn1_par.obj
 0002:00026990       ??_C@_07JDEDMABE@BOOLEAN?$AA@ 0008e990     libeay32:asn1_par.obj
 0002:00026998       ??_C@_03NCODFONH@EOC?$AA@  0008e998     libeay32:asn1_par.obj
 0002:0002699c       ??_C@_09GPGAJHPD@?$CIunknown?$CJ?$AA@ 0008e99c     libeay32:asn1_par.obj
 0002:000269a8       ??_C@_0M@PCEPOGPN@?8?$CI?$CJ?$CL?0?9?4?1?3?$DN?$DP?$AA@ 0008e9a8     libeay32:a_mbstr.obj
 0002:000269b4       ??_C@_08EOPONIBF@maxsize?$DN?$AA@ 0008e9b4     libeay32:a_mbstr.obj
 0002:000269c0       ??_C@_03JALODAI@?$CFld?$AA@ 0008e9c0     libeay32:a_mbstr.obj
 0002:000269c4       ??_C@_08JJBFGKFE@minsize?$DN?$AA@ 0008e9c4     libeay32:a_mbstr.obj
 0002:000269d0       ??_C@_0EO@JLLBAGMI@d?3?2wm653wehh?2platform?2mvv210?2src@ 0008e9d0     libeay32:a_mbstr.obj
 0002:00026a20       ??_C@_0EN@BMFEIIDL@d?3?2wm653wehh?2platform?2mvv210?2src@ 0008ea20     libeay32:rsa_pk1.obj
 0002:00026a70       ??_C@_0EN@PDDHPBKJ@d?3?2wm653wehh?2platform?2mvv210?2src@ 0008ea70     libeay32:rsa_ssl.obj
 0002:00026ac0       ??_C@_0EO@NNKDLJPI@d?3?2wm653wehh?2platform?2mvv210?2src@ 0008eac0     libeay32:rsa_none.obj
 0002:00026b10       ??_C@_0EN@GEIMIMFD@d?3?2wm653wehh?2platform?2mvv210?2src@ 0008eb10     libeay32:bio_enc.obj
 0002:00028d38       ??_C@_0M@DPMJHKGH@PBKDF2PARAM?$AA@ 00090d38     libeay32:p5_pbev2.obj
 0002:00028d44       ??_C@_03NBFGPAGA@prf?$AA@  00090d44     libeay32:p5_pbev2.obj
 0002:00028d48       ??_C@_09PKJJLJJD@keylength?$AA@ 00090d48     libeay32:p5_pbev2.obj
 0002:00028d54       ??_C@_04BKLHDIKK@iter?$AA@ 00090d54     libeay32:p5_pbev2.obj
 0002:00028d5c       ??_C@_04OKLIMCN@salt?$AA@  00090d5c     libeay32:p5_pbev2.obj
 0002:00028d64       ??_C@_09DHBCCKCK@PBE2PARAM?$AA@ 00090d64     libeay32:p5_pbev2.obj
 0002:00028d70       ??_C@_0L@HBBFMHKN@encryption?$AA@ 00090d70     libeay32:p5_pbev2.obj
 0002:00028d7c       ??_C@_07KEPFKPDN@keyfunc?$AA@ 00090d7c     libeay32:p5_pbev2.obj
 0002:00028f08       v3_alt                     00090f08     libeay32:v3_alt.obj
 0002:00028fb0       ??_C@_0O@KAIENCPE@Registered?5ID?$AA@ 00090fb0     libeay32:v3_alt.obj
 0002:00028fc0       ??_C@_09DPMBDOD@?$DMinvalid?$DO?$AA@ 00090fc0     libeay32:v3_alt.obj
 0002:00028fcc       ??_C@_0L@NGHMMCPJ@IP?5Address?$AA@ 00090fcc     libeay32:v3_alt.obj
 0002:00028fd8       ??_C@_07FDBCPIKC@DirName?$AA@ 00090fd8     libeay32:v3_alt.obj
 0002:00028fe0       ??_C@_03GMOLNBOB@URI?$AA@  00090fe0     libeay32:v3_alt.obj
 0002:00028fe4       ??_C@_03CBFPEBNE@DNS?$AA@  00090fe4     libeay32:v3_alt.obj
 0002:00028fe8       ??_C@_05HKHCDHCL@email?$AA@ 00090fe8     libeay32:v3_alt.obj
 0002:00028ff0       ??_C@_0N@EEELPIKD@EdiPartyName?$AA@ 00090ff0     libeay32:v3_alt.obj
 0002:00029000       ??_C@_08EBDOEGJI@X400Name?$AA@ 00091000     libeay32:v3_alt.obj
 0002:0002900c       ??_C@_0O@NHCJKCDC@?$DMunsupported?$DO?$AA@ 0009100c     libeay32:v3_alt.obj
 0002:0002901c       ??_C@_09PAKBLAPA@othername?$AA@ 0009101c     libeay32:v3_alt.obj
 0002:00029028       ??_C@_03NMJGLHB@?3?$CFX?$AA@ 00091028     libeay32:v3_alt.obj
 0002:0002902c       ??_C@_0BH@OAMIHBGI@IP?5Address?3?$CFd?4?$CFd?4?$CFd?4?$CFd?$AA@ 0009102c     libeay32:v3_alt.obj
 0002:00029044       ??_C@_09JDCPLDLD@DirName?3?5?$AA@ 00091044     libeay32:v3_alt.obj
 0002:00029050       ??_C@_06KCNJMDKO@URI?3?$CFs?$AA@ 00091050     libeay32:v3_alt.obj
 0002:00029058       ??_C@_06DNDEBJBH@DNS?3?$CFs?$AA@ 00091058     libeay32:v3_alt.obj
 0002:00029060       ??_C@_08LPBGKPKE@email?3?$CFs?$AA@ 00091060     libeay32:v3_alt.obj
 0002:0002906c       ??_C@_0BL@HEOLJEB@EdiPartyName?3?$DMunsupported?$DO?$AA@ 0009106c     libeay32:v3_alt.obj
 0002:00029088       ??_C@_0BH@HDOLFIDG@X400Name?3?$DMunsupported?$DO?$AA@ 00091088     libeay32:v3_alt.obj
 0002:000290a0       ??_C@_0BI@PGFKPDEJ@othername?3?$DMunsupported?$DO?$AA@ 000910a0     libeay32:v3_alt.obj
 0002:000290b8       ??_C@_0EP@GIOEMKKC@d?3?2wm653wehh?2platform?2mvv210?2src@ 000910b8     libeay32:v3_alt.obj
 0002:00029108       ??_C@_08LNPIPPMM@section?$DN?$AA@ 00091108     libeay32:v3_alt.obj
 0002:00029114       ??_C@_09DBGAJPPE@otherName?$AA@ 00091114     libeay32:v3_alt.obj
 0002:00029120       ??_C@_07KKGEJKPE@dirName?$AA@ 00091120     libeay32:v3_alt.obj
 0002:00029128       ??_C@_02MFEOMNPG@IP?$AA@   00091128     libeay32:v3_alt.obj
 0002:0002912c       ??_C@_03FEOBNLIE@RID?$AA@  0009112c     libeay32:v3_alt.obj
 0002:00029130       ??_C@_04COAGEIMF@copy?$AA@ 00091130     libeay32:v3_alt.obj
 0002:00029138       ??_C@_04HDMMNHEL@move?$AA@ 00091138     libeay32:v3_alt.obj
 0002:00029140       ??_C@_0EN@IDEDPOKO@d?3?2wm653wehh?2platform?2mvv210?2src@ 00091140     libeay32:dso_lib.obj
 0002:00029190       CONF_version               00091190     libeay32:conf_lib.obj
 0002:000291b8       ??_C@_0EP@PNEKGEFM@d?3?2wm653wehh?2platform?2mvv210?2src@ 000911b8     libeay32:conf_lib.obj
 0002:00029208       ??_C@_06NGDKEHGB@?5name?$DN?$AA@ 00091208     libeay32:conf_lib.obj
 0002:00029210       ??_C@_06BDPCGOPM@group?$DN?$AA@ 00091210     libeay32:conf_lib.obj
 0002:00029218       ??_C@_02JDPG@rb?$AA@       00091218     libeay32:conf_lib.obj
 0002:0002921c       v3_inhibit_anyp            0009121c     libeay32:v3_int.obj
 0002:00029254       v3_delta_crl               00091254     libeay32:v3_int.obj
 0002:0002928c       v3_crl_num                 0009128c     libeay32:v3_int.obj
 0002:00029338       v3_policy_mappings         00091338     libeay32:v3_pmaps.obj
 0002:00029370       ??_C@_0BA@DHPBCFFC@POLICY_MAPPINGS?$AA@ 00091370     libeay32:v3_pmaps.obj
 0002:00029380       ??_C@_0P@NLHMKCKF@POLICY_MAPPING?$AA@ 00091380     libeay32:v3_pmaps.obj
 0002:00029390       ??_C@_0BE@FFIKMOKF@subjectDomainPolicy?$AA@ 00091390     libeay32:v3_pmaps.obj
 0002:000293a4       ??_C@_0BD@JILOPHFL@issuerDomainPolicy?$AA@ 000913a4     libeay32:v3_pmaps.obj
 0002:000293b8       ??_C@_0FB@JMEEBLD@d?3?2wm653wehh?2platform?2mvv210?2src@ 000913b8     libeay32:v3_pmaps.obj
 0002:0002940c       v3_pci                     0009140c     libeay32:v3_pci.obj
 0002:00029444       ??_C@_0BE@HDJEDONA@?$CF?$CKsPolicy?5Text?3?5?$CFs?6?$AA@ 00091444     libeay32:v3_pci.obj
 0002:00029458       ??_C@_0BF@CGHJNACM@?$CF?$CKsPolicy?5Language?3?5?$AA@ 00091458     libeay32:v3_pci.obj
 0002:00029470       ??_C@_08MAJEGHKB@infinite?$AA@ 00091470     libeay32:v3_pci.obj
 0002:0002947c       ??_C@_0BM@BMCPHDD@?$CF?$CKsPath?5Length?5Constraint?3?5?$AA@ 0009147c     libeay32:v3_pci.obj
 0002:00029498       ??_C@_05FHIGHPDA@text?3?$AA@ 00091498     libeay32:v3_pci.obj
 0002:000294a0       ??_C@_05BOPHDICO@file?3?$AA@ 000914a0     libeay32:v3_pci.obj
 0002:000294a8       ??_C@_04ODCMNEMO@hex?3?$AA@ 000914a8     libeay32:v3_pci.obj
 0002:000294b0       ??_C@_0EP@IAENADAP@d?3?2wm653wehh?2platform?2mvv210?2src@ 000914b0     libeay32:v3_pci.obj
 0002:00029500       ??_C@_08JGCCIMAA@language?$AA@ 00091500     libeay32:v3_pci.obj
 0002:0002950c       v3_ocsp_serviceloc         0009150c     libeay32:v3_ocsp.obj
 0002:00029544       v3_ocsp_nocheck            00091544     libeay32:v3_ocsp.obj
 0002:0002957c       v3_ocsp_nonce              0009157c     libeay32:v3_ocsp.obj
 0002:000295b4       v3_crl_hold                000915b4     libeay32:v3_ocsp.obj
 0002:000295ec       v3_crl_invdate             000915ec     libeay32:v3_ocsp.obj
 0002:00029624       v3_ocsp_acutoff            00091624     libeay32:v3_ocsp.obj
 0002:0002965c       v3_ocsp_crlid              0009165c     libeay32:v3_ocsp.obj
 0002:00029694       ??_C@_0N@IBJOMEDL@?$CF?$CKscrlTime?3?5?$AA@ 00091694     libeay32:v3_ocsp.obj
 0002:000296a4       ??_C@_0M@MLCMBODE@?$CF?$CKscrlNum?3?5?$AA@ 000916a4     libeay32:v3_ocsp.obj
 0002:000296b0       ??_C@_0M@KIKBFHBJ@?$CF?$CKscrlUrl?3?5?$AA@ 000916b0     libeay32:v3_ocsp.obj
 0002:000296c0       ??_C@_0FA@DGLJGNPA@d?3?2wm653wehh?2platform?2mvv210?2src@ 000916c0     libeay32:v3_ocsp.obj
 0002:00029710       ??_C@_04NFEJKGEM@?6?$CF?$CKs?$AA@ 00091710     libeay32:v3_ocsp.obj
 0002:00029718       ??_C@_0M@IHOINNJF@?$CF?$CKsIssuer?3?5?$AA@ 00091718     libeay32:v3_ocsp.obj
 0002:00029768       v3_policy_constraints      00091768     libeay32:v3_pcons.obj
 0002:000297a0       ??_C@_0BD@MMPNIEIJ@POLICY_CONSTRAINTS?$AA@ 000917a0     libeay32:v3_pcons.obj
 0002:000297b4       ??_C@_0BF@MOMLJGAL@inhibitPolicyMapping?$AA@ 000917b4     libeay32:v3_pcons.obj
 0002:000297cc       ??_C@_0BG@HGJBEKFE@requireExplicitPolicy?$AA@ 000917cc     libeay32:v3_pcons.obj
 0002:000297e4       ??_C@_0BI@HNCHDEDI@Require?5Explicit?5Policy?$AA@ 000917e4     libeay32:v3_pcons.obj
 0002:000297fc       ??_C@_0BH@HMKHOMED@Inhibit?5Policy?5Mapping?$AA@ 000917fc     libeay32:v3_pcons.obj
 0002:00029818       ??_C@_0FB@LMCBHCHN@d?3?2wm653wehh?2platform?2mvv210?2src@ 00091818     libeay32:v3_pcons.obj
 0002:0002989c       v3_ocsp_accresp            0009189c     libeay32:v3_extku.obj
 0002:000298d4       v3_ext_ku                  000918d4     libeay32:v3_extku.obj
 0002:0002990c       ??_C@_0BD@CKAGEBEF@EXTENDED_KEY_USAGE?$AA@ 0009190c     libeay32:v3_extku.obj
 0002:00029920       ??_C@_0FB@GJDJKHPC@d?3?2wm653wehh?2platform?2mvv210?2src@ 00091920     libeay32:v3_extku.obj
 0002:000299fc       v3_sxnet                   000919fc     libeay32:v3_sxnet.obj
 0002:00029a34       ??_C@_05BPAJFIHK@SXNET?$AA@ 00091a34     libeay32:v3_sxnet.obj
 0002:00029a3c       ??_C@_03NDFJNBKD@ids?$AA@  00091a3c     libeay32:v3_sxnet.obj
 0002:00029a40       ??_C@_07FLDOGLPN@SXNETID?$AA@ 00091a40     libeay32:v3_sxnet.obj
 0002:00029a48       ??_C@_04CCHAHKJA@user?$AA@ 00091a48     libeay32:v3_sxnet.obj
 0002:00029a50       ??_C@_04LDDJGOBB@zone?$AA@ 00091a50     libeay32:v3_sxnet.obj
 0002:00029a58       ??_C@_0BF@NMLBNADB@?6?$CF?$CKsZone?3?5?$CFs?0?5User?3?5?$AA@ 00091a58     libeay32:v3_sxnet.obj
 0002:00029a70       ??_C@_0BI@GOEPAKBG@?$CF?$CKsVersion?3?5?$CFld?5?$CI0x?$CFlX?$CJ?$AA@ 00091a70     libeay32:v3_sxnet.obj
 0002:00029a88       ??_C@_0FB@HGCMGHKH@d?3?2wm653wehh?2platform?2mvv210?2src@ 00091a88     libeay32:v3_sxnet.obj
 0002:00029adc       v3_crl_reason              00091adc     libeay32:v3_enum.obj
 0002:00029b14       ??_C@_0O@BILLKPKO@removeFromCRL?$AA@ 00091b14     libeay32:v3_enum.obj
 0002:00029b24       ??_C@_0BA@GLPEKBIK@Remove?5From?5CRL?$AA@ 00091b24     libeay32:v3_enum.obj
 0002:00029b34       ??_C@_0M@MFMDLEDN@unspecified?$AA@ 00091b34     libeay32:v3_enum.obj
 0002:00029b40       ??_C@_0M@NNPCGPMF@Unspecified?$AA@ 00091b40     libeay32:v3_enum.obj
 0002:00029b4c       v3_akey_id                 00091b4c     libeay32:v3_akey.obj
 0002:00029b88       ??_C@_0FA@BIHNLJGI@d?3?2wm653wehh?2platform?2mvv210?2src@ 00091b88     libeay32:v3_akey.obj
 0002:00029bd8       ??_C@_06KHDOHNKC@always?$AA@ 00091bd8     libeay32:v3_akey.obj
 0002:00029d80       v3_cpols                   00091d80     libeay32:v3_cpols.obj
 0002:00029db8       ??_C@_09DFHLGOKA@NOTICEREF?$AA@ 00091db8     libeay32:v3_cpols.obj
 0002:00029dc4       ??_C@_09CFGHNILC@noticenos?$AA@ 00091dc4     libeay32:v3_cpols.obj
 0002:00029dd0       ??_C@_0N@HEIPMDAG@organization?$AA@ 00091dd0     libeay32:v3_cpols.obj
 0002:00029de0       ??_C@_0L@HCNDPADF@USERNOTICE?$AA@ 00091de0     libeay32:v3_cpols.obj
 0002:00029dec       ??_C@_07MHGINJOA@exptext?$AA@ 00091dec     libeay32:v3_cpols.obj
 0002:00029df4       ??_C@_09FIKFDFH@noticeref?$AA@ 00091df4     libeay32:v3_cpols.obj
 0002:00029e00       ??_C@_0P@POBJIHLD@POLICYQUALINFO?$AA@ 00091e00     libeay32:v3_cpols.obj
 0002:00029e10       ??_C@_07LEEILOKB@pqualid?$AA@ 00091e10     libeay32:v3_cpols.obj
 0002:00029e18       ??_C@_0N@JPAHANFF@d?4usernotice?$AA@ 00091e18     libeay32:v3_cpols.obj
 0002:00029e28       ??_C@_08EECALGEF@d?4cpsuri?$AA@ 00091e28     libeay32:v3_cpols.obj
 0002:00029e34       ??_C@_0L@POLPGHJK@POLICYINFO?$AA@ 00091e34     libeay32:v3_cpols.obj
 0002:00029e40       ??_C@_0L@HMNGMMJI@qualifiers?$AA@ 00091e40     libeay32:v3_cpols.obj
 0002:00029e4c       ??_C@_08NEBFOBH@policyid?$AA@ 00091e4c     libeay32:v3_cpols.obj
 0002:00029e58       ??_C@_0BE@GJBJOOCP@CERTIFICATEPOLICIES?$AA@ 00091e58     libeay32:v3_cpols.obj
 0002:00029e70       ??_C@_0FB@GCODJBIG@d?3?2wm653wehh?2platform?2mvv210?2src@ 00091e70     libeay32:v3_cpols.obj
 0002:00029ec4       ??_C@_0BG@IHHCDAMH@?$CF?$CKsExplicit?5Text?3?5?$CFs?6?$AA@ 00091ec4     libeay32:v3_cpols.obj
 0002:00029edc       ??_C@_0O@EFHNHHDA@?$CF?$CKsNumber?$CFs?3?5?$AA@ 00091edc     libeay32:v3_cpols.obj
 0002:00029eec       ??_C@_0BF@OCNFPJOG@?$CF?$CKsOrganization?3?5?$CFs?6?$AA@ 00091eec     libeay32:v3_cpols.obj
 0002:00029f04       ??_C@_0O@OKDALMJE@noticeNumbers?$AA@ 00091f04     libeay32:v3_cpols.obj
 0002:00029f14       ??_C@_0N@EALKMFB@explicitText?$AA@ 00091f14     libeay32:v3_cpols.obj
 0002:00029f24       ??_C@_0M@ICGFCJNO@?$CF?$CKsCPS?3?5?$CFs?6?$AA@ 00091f24     libeay32:v3_cpols.obj
 0002:00029f30       ??_C@_0BB@MMPKKFLI@?$CF?$CKsUser?5Notice?3?6?$AA@ 00091f30     libeay32:v3_cpols.obj
 0002:00029f44       ??_C@_0BH@CHOAEJEJ@?$CF?$CKsUnknown?5Qualifier?3?5?$AA@ 00091f44     libeay32:v3_cpols.obj
 0002:00029f5c       ??_C@_0M@BBFMFBLN@?$CF?$CKsPolicy?3?5?$AA@ 00091f5c     libeay32:v3_cpols.obj
 0002:00029f68       ??_C@_0L@LADHLIJ@userNotice?$AA@ 00091f68     libeay32:v3_cpols.obj
 0002:00029f74       ??_C@_03KKDAPHBH@CPS?$AA@  00091f74     libeay32:v3_cpols.obj
 0002:00029f78       ??_C@_0BB@FIJMMMGE@policyIdentifier?$AA@ 00091f78     libeay32:v3_cpols.obj
 0002:00029f8c       ??_C@_06MIFIGELF@ia5org?$AA@ 00091f8c     libeay32:v3_cpols.obj
 0002:00029fd8       v3_pkey_usage_period       00091fd8     libeay32:v3_pku.obj
 0002:0002a010       ??_C@_0BC@CCOKACDM@PKEY_USAGE_PERIOD?$AA@ 00092010     libeay32:v3_pku.obj
 0002:0002a024       ??_C@_0M@FCHJLIHE@Not?5After?3?5?$AA@ 00092024     libeay32:v3_pku.obj
 0002:0002a030       ??_C@_0N@KGLJEEMK@Not?5Before?3?5?$AA@ 00092030     libeay32:v3_pku.obj
 0002:0002a040       v3_key_usage               00092040     libeay32:v3_bitst.obj
 0002:0002a078       v3_nscert                  00092078     libeay32:v3_bitst.obj
 0002:0002a0b0       ??_C@_0N@LIFHMFCO@decipherOnly?$AA@ 000920b0     libeay32:v3_bitst.obj
 0002:0002a0c0       ??_C@_0O@FKBAPCEG@Decipher?5Only?$AA@ 000920c0     libeay32:v3_bitst.obj
 0002:0002a0d0       ??_C@_0N@BEFDLIKF@encipherOnly?$AA@ 000920d0     libeay32:v3_bitst.obj
 0002:0002a0e0       ??_C@_0O@CANGKMJD@Encipher?5Only?$AA@ 000920e0     libeay32:v3_bitst.obj
 0002:0002a0f0       ??_C@_07IHBCCDFJ@cRLSign?$AA@ 000920f0     libeay32:v3_bitst.obj
 0002:0002a0f8       ??_C@_08OCJGKMAN@CRL?5Sign?$AA@ 000920f8     libeay32:v3_bitst.obj
 0002:0002a104       ??_C@_0M@ONBOOMGI@keyCertSign?$AA@ 00092104     libeay32:v3_bitst.obj
 0002:0002a110       ??_C@_0BB@ELNGMDLH@Certificate?5Sign?$AA@ 00092110     libeay32:v3_bitst.obj
 0002:0002a124       ??_C@_0N@GONHKOEO@keyAgreement?$AA@ 00092124     libeay32:v3_bitst.obj
 0002:0002a134       ??_C@_0O@EOJOBCHL@Key?5Agreement?$AA@ 00092134     libeay32:v3_bitst.obj
 0002:0002a144       ??_C@_0BB@LBKKKIGO@dataEncipherment?$AA@ 00092144     libeay32:v3_bitst.obj
 0002:0002a158       ??_C@_0BC@GNPIAJLP@Data?5Encipherment?$AA@ 00092158     libeay32:v3_bitst.obj
 0002:0002a16c       ??_C@_0BA@MINCLOJG@keyEncipherment?$AA@ 0009216c     libeay32:v3_bitst.obj
 0002:0002a17c       ??_C@_0BB@KNACIBEN@Key?5Encipherment?$AA@ 0009217c     libeay32:v3_bitst.obj
 0002:0002a190       ??_C@_0P@GPCNPOGO@nonRepudiation?$AA@ 00092190     libeay32:v3_bitst.obj
 0002:0002a1a0       ??_C@_0BA@DJCGBBAI@Non?5Repudiation?$AA@ 000921a0     libeay32:v3_bitst.obj
 0002:0002a1b0       ??_C@_0BB@MFKHIIOM@digitalSignature?$AA@ 000921b0     libeay32:v3_bitst.obj
 0002:0002a1c4       ??_C@_0BC@DPKEIPIO@Digital?5Signature?$AA@ 000921c4     libeay32:v3_bitst.obj
 0002:0002a1d8       ??_C@_05JLEIJNEE@objCA?$AA@ 000921d8     libeay32:v3_bitst.obj
 0002:0002a1e0       ??_C@_0BC@FAMHGMHB@Object?5Signing?5CA?$AA@ 000921e0     libeay32:v3_bitst.obj
 0002:0002a1f4       ??_C@_07FFHDGPMJ@emailCA?$AA@ 000921f4     libeay32:v3_bitst.obj
 0002:0002a1fc       ??_C@_09GIEMCMEO@S?1MIME?5CA?$AA@ 000921fc     libeay32:v3_bitst.obj
 0002:0002a208       ??_C@_05JHLHLOEK@sslCA?$AA@ 00092208     libeay32:v3_bitst.obj
 0002:0002a210       ??_C@_06FMDLPOFJ@SSL?5CA?$AA@ 00092210     libeay32:v3_bitst.obj
 0002:0002a218       ??_C@_08FINKBBAF@reserved?$AA@ 00092218     libeay32:v3_bitst.obj
 0002:0002a224       ??_C@_07GIOKFKGL@objsign?$AA@ 00092224     libeay32:v3_bitst.obj
 0002:0002a22c       ??_C@_0P@DDHLFHHK@Object?5Signing?$AA@ 0009222c     libeay32:v3_bitst.obj
 0002:0002a23c       ??_C@_06HJHJCKIO@server?$AA@ 0009223c     libeay32:v3_bitst.obj
 0002:0002a244       ??_C@_06DGDLPBAN@client?$AA@ 00092244     libeay32:v3_bitst.obj
 0002:0002a250       ??_C@_0FB@EKHJICLH@d?3?2wm653wehh?2platform?2mvv210?2src@ 00092250     libeay32:v3_bitst.obj
 0002:0002a2a4       v3_skey_id                 000922a4     libeay32:v3_skey.obj
 0002:0002a2e0       ??_C@_0FA@OIDMDEIP@d?3?2wm653wehh?2platform?2mvv210?2src@ 000922e0     libeay32:v3_skey.obj
 0002:0002a330       ??_C@_04OIJGJDKO@hash?$AA@ 00092330     libeay32:v3_skey.obj
 0002:0002a338       v3_ns_ia5_list             00092338     libeay32:v3_ia5.obj
 0002:0002a4f8       ??_C@_0EP@FPIPLDCG@d?3?2wm653wehh?2platform?2mvv210?2src@ 000924f8     libeay32:v3_ia5.obj
 0002:0002a548       ??_C@_0FA@GLNJJMIP@d?3?2wm653wehh?2platform?2mvv210?2src@ 00092548     libeay32:v3_conf.obj
 0002:0002a690       ??_C@_08JIPBBKBM@X509_REQ?$AA@ 00092690     libeay32:x_req.obj
 0002:0002a69c       ??_C@_08JILJKJG@req_info?$AA@ 0009269c     libeay32:x_req.obj
 0002:0002a6a8       ??_C@_0O@EHCMNJCB@X509_REQ_INFO?$AA@ 000926a8     libeay32:x_req.obj
 0002:0002a6b8       ??_C@_06GKCAPDID@pubkey?$AA@ 000926b8     libeay32:x_req.obj
 0002:0002a6c0       ??_C@_0BE@LILBBPKE@OpenSSL?5ECDH?5method?$AA@ 000926c0     libeay32:ech_ossl.obj
 0002:0002a6d8       ??_C@_0EP@EIICIEGK@d?3?2wm653wehh?2platform?2mvv210?2src@ 000926d8     libeay32:ech_ossl.obj
 0002:0002a770       ??_C@_08CKLJFNPB@PBEPARAM?$AA@ 00092770     libeay32:p5_pbe.obj
 0002:0002a780       ??_C@_0FA@NBNNIDCA@d?3?2wm653wehh?2platform?2mvv210?2src@ 00092780     libeay32:p12_key.obj
 0002:0002a7f0       ??_C@_0EM@FGPLHJJK@d?3?2wm653wehh?2platform?2mvv210?2src@ 000927f0     libeay32:bn_sqrt.obj
 0002:0002a8e0       ??_C@_0EN@IKCJFOCD@d?3?2wm653wehh?2platform?2mvv210?2src@ 000928e0     libeay32:ecp_smpl.obj
 0002:0002ade0       ??_C@_0FA@FLDKBPHG@d?3?2wm653wehh?2platform?2mvv210?2src@ 00092de0     libeay32:pk7_attr.obj
 0002:0002aecc       ??_C@_0O@DBIGEIKO@NETSCAPE_SPKI?$AA@ 00092ecc     libeay32:x_spki.obj
 0002:0002aedc       ??_C@_09JJGBLAHB@sig_algor?$AA@ 00092edc     libeay32:x_spki.obj
 0002:0002aee8       ??_C@_05NBLLCIIN@spkac?$AA@ 00092ee8     libeay32:x_spki.obj
 0002:0002aef0       ??_C@_0P@OEBIEFNJ@NETSCAPE_SPKAC?$AA@ 00092ef0     libeay32:x_spki.obj
 0002:0002af00       ??_C@_09DBEGHIJJ@challenge?$AA@ 00092f00     libeay32:x_spki.obj
 0002:0002af0c       MD5_version                00092f0c     libeay32:md5_dgst.obj
 0002:0002af48       PEM_version                00092f48     libeay32:pem_lib.obj
 0002:0002b1bc       ??_C@_06DPGELLJH@FORMAT?$AA@ 000931bc     libeay32:asn1_gen.obj
 0002:0002b1c4       ??_C@_04HPGCGPG@FORM?$AA@  000931c4     libeay32:asn1_gen.obj
 0002:0002b1cc       ??_C@_07JHDNPBBM@BITWRAP?$AA@ 000931cc     libeay32:asn1_gen.obj
 0002:0002b1d4       ??_C@_07OAIMKKNN@SETWRAP?$AA@ 000931d4     libeay32:asn1_gen.obj
 0002:0002b1dc       ??_C@_07LAEBDLGO@SEQWRAP?$AA@ 000931dc     libeay32:asn1_gen.obj
 0002:0002b1e4       ??_C@_07KIEILLID@OCTWRAP?$AA@ 000931e4     libeay32:asn1_gen.obj
 0002:0002b1ec       ??_C@_08PPMOEJGF@IMPLICIT?$AA@ 000931ec     libeay32:asn1_gen.obj
 0002:0002b1f8       ??_C@_03PKFOHEJD@IMP?$AA@  000931f8     libeay32:asn1_gen.obj
 0002:0002b1fc       ??_C@_08CNKBIFDO@EXPLICIT?$AA@ 000931fc     libeay32:asn1_gen.obj
 0002:0002b208       ??_C@_03KKGFKKLA@EXP?$AA@  00093208     libeay32:asn1_gen.obj
 0002:0002b20c       ??_C@_03NCPCKDJB@SEQ?$AA@  0009320c     libeay32:asn1_gen.obj
 0002:0002b210       ??_C@_07DBOJJFHC@NUMERIC?$AA@ 00093210     libeay32:asn1_gen.obj
 0002:0002b218       ??_C@_06GBOJAPHH@GENSTR?$AA@ 00093218     libeay32:asn1_gen.obj
 0002:0002b220       ??_C@_0O@OIKLOOAP@GeneralString?$AA@ 00093220     libeay32:asn1_gen.obj
 0002:0002b230       ??_C@_0O@GENPGMAM@TELETEXSTRING?$AA@ 00093230     libeay32:asn1_gen.obj
 0002:0002b240       ??_C@_03HMGPCGIG@T61?$AA@  00093240     libeay32:asn1_gen.obj
 0002:0002b244       ??_C@_09OMDMMLJJ@PRINTABLE?$AA@ 00093244     libeay32:asn1_gen.obj
 0002:0002b250       ??_C@_07MCGNPFEO@VISIBLE?$AA@ 00093250     libeay32:asn1_gen.obj
 0002:0002b258       ??_C@_03CNFPPDJC@BMP?$AA@  00093258     libeay32:asn1_gen.obj
 0002:0002b25c       ??_C@_0L@PJIJIHJD@UTF8String?$AA@ 0009325c     libeay32:asn1_gen.obj
 0002:0002b268       ??_C@_04OOMJJNCF@UTF8?$AA@ 00093268     libeay32:asn1_gen.obj
 0002:0002b270       ??_C@_03OLMOBCBF@IA5?$AA@  00093270     libeay32:asn1_gen.obj
 0002:0002b274       ??_C@_04CBEPCLMK@UNIV?$AA@ 00093274     libeay32:asn1_gen.obj
 0002:0002b27c       ??_C@_09MBLGEDKL@BITSTRING?$AA@ 0009327c     libeay32:asn1_gen.obj
 0002:0002b288       ??_C@_06GOEDGPII@BITSTR?$AA@ 00093288     libeay32:asn1_gen.obj
 0002:0002b290       ??_C@_0M@JIDALIGG@OCTETSTRING?$AA@ 00093290     libeay32:asn1_gen.obj
 0002:0002b29c       ??_C@_03LBMHMDEB@OCT?$AA@  0009329c     libeay32:asn1_gen.obj
 0002:0002b2a0       ??_C@_07EECHABMP@GENTIME?$AA@ 000932a0     libeay32:asn1_gen.obj
 0002:0002b2a8       ??_C@_03JCIJEFNJ@UTC?$AA@  000932a8     libeay32:asn1_gen.obj
 0002:0002b2ac       ??_C@_03PGJCFEMG@OID?$AA@  000932ac     libeay32:asn1_gen.obj
 0002:0002b2b0       ??_C@_04PNKFCNMG@ENUM?$AA@ 000932b0     libeay32:asn1_gen.obj
 0002:0002b2b8       ??_C@_03JMHEAPMO@INT?$AA@  000932b8     libeay32:asn1_gen.obj
 0002:0002b2bc       ??_C@_04PPJDIBFE@BOOL?$AA@ 000932bc     libeay32:asn1_gen.obj
 0002:0002b2c4       ??_C@_05NALEHOPE@Char?$DN?$AA@ 000932c4     libeay32:asn1_gen.obj
 0002:0002b2d0       ??_C@_0EP@NAHIMGLP@d?3?2wm653wehh?2platform?2mvv210?2src@ 000932d0     libeay32:asn1_gen.obj
 0002:0002b320       ??_C@_07HMNLDFAL@BITLIST?$AA@ 00093320     libeay32:asn1_gen.obj
 0002:0002b328       ??_C@_03IECIMIEG@HEX?$AA@  00093328     libeay32:asn1_gen.obj
 0002:0002b32c       ??_C@_05CCNLIHFO@ASCII?$AA@ 0009332c     libeay32:asn1_gen.obj
 0002:0002b334       ??_C@_04JBGFELJA@tag?$DN?$AA@ 00093334     libeay32:asn1_gen.obj
 0002:0002b33c       ??_C@_07IOGEOOAA@string?$DN?$AA@ 0009333c     libeay32:asn1_gen.obj
 0002:0002b344       ??_C@_05LKMDHMJN@WIN32?$AA@ 00093344     libeay32:conf_def.obj
 0002:0002b34c       ??_C@_0BA@EEIGDPJJ@OpenSSL?5default?$AA@ 0009334c     libeay32:conf_def.obj
 0002:0002b35c       CONF_def_version           0009335c     libeay32:conf_def.obj
 0002:0002b388       ??_C@_0EP@FLILJMGH@d?3?2wm653wehh?2platform?2mvv210?2src@ 00093388     libeay32:conf_def.obj
 0002:0002b3d8       ??_C@_07PNLMPOMH@?$FL?$FL?$CFs?$FN?$FN?6?$AA@ 000933d8     libeay32:conf_def.obj
 0002:0002b3e0       ??_C@_0M@CLCLGKAH@?$FL?$CFs?$FN?5?$CFs?$DN?$CFs?6?$AA@ 000933e0     libeay32:conf_def.obj
 0002:0002b3ec       ??_C@_05KFEICJBI@line?5?$AA@ 000933ec     libeay32:conf_def.obj
 0002:0002b3f4       ??_C@_03OEJENCPE@ENV?$AA@  000933f4     libeay32:conf_api.obj
 0002:0002b3f8       ??_C@_0L@BFMFELMC@vv?5?$DN?$DN?5NULL?$AA@ 000933f8     libeay32:conf_api.obj
 0002:0002b408       ??_C@_0EP@PLCFAFHA@d?3?2wm653wehh?2platform?2mvv210?2src@ 00093408     libeay32:conf_api.obj
 0002:0002b984       ??_C@_0BA@JLGHGCLL@OCSP_SERVICELOC?$AA@ 00093984     libeay32:ocsp_asn.obj
 0002:0002b994       ??_C@_07PAIKCKMF@locator?$AA@ 00093994     libeay32:ocsp_asn.obj
 0002:0002b99c       ??_C@_0L@JOKCDHBA@OCSP_CRLID?$AA@ 0009399c     libeay32:ocsp_asn.obj
 0002:0002b9a8       ??_C@_07BDEAJPPO@crlTime?$AA@ 000939a8     libeay32:ocsp_asn.obj
 0002:0002b9b0       ??_C@_06DLEHNACA@crlNum?$AA@ 000939b0     libeay32:ocsp_asn.obj
 0002:0002b9b8       ??_C@_06KAALCHHK@crlUrl?$AA@ 000939b8     libeay32:ocsp_asn.obj
 0002:0002b9c0       ??_C@_0P@CPCDLAO@OCSP_BASICRESP?$AA@ 000939c0     libeay32:ocsp_asn.obj
 0002:0002b9d0       ??_C@_0BA@OOPOFNLG@tbsResponseData?$AA@ 000939d0     libeay32:ocsp_asn.obj
 0002:0002b9e0       ??_C@_0O@GNAMNHBK@OCSP_RESPDATA?$AA@ 000939e0     libeay32:ocsp_asn.obj
 0002:0002b9f0       ??_C@_0BD@LEANHDON@responseExtensions?$AA@ 000939f0     libeay32:ocsp_asn.obj
 0002:0002ba04       ??_C@_09NKKOBILA@responses?$AA@ 00093a04     libeay32:ocsp_asn.obj
 0002:0002ba10       ??_C@_0L@KADAOIGF@producedAt?$AA@ 00093a10     libeay32:ocsp_asn.obj
 0002:0002ba1c       ??_C@_0M@CPBMKBOK@responderId?$AA@ 00093a1c     libeay32:ocsp_asn.obj
 0002:0002ba28       ??_C@_0BA@CEMENBMB@OCSP_SINGLERESP?$AA@ 00093a28     libeay32:ocsp_asn.obj
 0002:0002ba38       ??_C@_0BB@BHCHCCEI@singleExtensions?$AA@ 00093a38     libeay32:ocsp_asn.obj
 0002:0002ba4c       ??_C@_0L@BEDJFPDO@thisUpdate?$AA@ 00093a4c     libeay32:ocsp_asn.obj
 0002:0002ba58       ??_C@_0L@IGGFAGC@certStatus?$AA@ 00093a58     libeay32:ocsp_asn.obj
 0002:0002ba64       ??_C@_06JJGBHEJI@certId?$AA@ 00093a64     libeay32:ocsp_asn.obj
 0002:0002ba6c       ??_C@_0BA@JBJHLNOJ@OCSP_CERTSTATUS?$AA@ 00093a6c     libeay32:ocsp_asn.obj
 0002:0002ba7c       ??_C@_0O@ICNBHFHN@value?4unknown?$AA@ 00093a7c     libeay32:ocsp_asn.obj
 0002:0002ba8c       ??_C@_0O@GCBEBIKI@value?4revoked?$AA@ 00093a8c     libeay32:ocsp_asn.obj
 0002:0002ba9c       ??_C@_0L@MEIDNBL@value?4good?$AA@ 00093a9c     libeay32:ocsp_asn.obj
 0002:0002baa8       ??_C@_0BB@CFNKINIP@OCSP_REVOKEDINFO?$AA@ 00093aa8     libeay32:ocsp_asn.obj
 0002:0002babc       ??_C@_0BB@JHENKMOK@revocationReason?$AA@ 00093abc     libeay32:ocsp_asn.obj
 0002:0002bad0       ??_C@_0P@MHJPNEEK@revocationTime?$AA@ 00093ad0     libeay32:ocsp_asn.obj
 0002:0002bae0       ??_C@_0M@JBDPBGBO@OCSP_RESPID?$AA@ 00093ae0     libeay32:ocsp_asn.obj
 0002:0002baec       ??_C@_0M@OFGLOCKB@value?4byKey?$AA@ 00093aec     libeay32:ocsp_asn.obj
 0002:0002baf8       ??_C@_0N@OFBDHEPF@value?4byName?$AA@ 00093af8     libeay32:ocsp_asn.obj
 0002:0002bb08       ??_C@_0O@CDJMCFNM@OCSP_RESPONSE?$AA@ 00093b08     libeay32:ocsp_asn.obj
 0002:0002bb18       ??_C@_0O@MMHCFEHM@responseBytes?$AA@ 00093b18     libeay32:ocsp_asn.obj
 0002:0002bb28       ??_C@_0P@GEHCLFGI@responseStatus?$AA@ 00093b28     libeay32:ocsp_asn.obj
 0002:0002bb38       ??_C@_0P@ONFJGMLI@OCSP_RESPBYTES?$AA@ 00093b38     libeay32:ocsp_asn.obj
 0002:0002bb48       ??_C@_08HKMEAON@response?$AA@ 00093b48     libeay32:ocsp_asn.obj
 0002:0002bb54       ??_C@_0N@FPIGADMM@responseType?$AA@ 00093b54     libeay32:ocsp_asn.obj
 0002:0002bb64       ??_C@_0N@PCNOLOBD@OCSP_REQUEST?$AA@ 00093b64     libeay32:ocsp_asn.obj
 0002:0002bb74       ??_C@_0BC@GKDKILGO@optionalSignature?$AA@ 00093b74     libeay32:ocsp_asn.obj
 0002:0002bb88       ??_C@_0L@OIGCAPNH@tbsRequest?$AA@ 00093b88     libeay32:ocsp_asn.obj
 0002:0002bb94       ??_C@_0N@DDBEOJJA@OCSP_REQINFO?$AA@ 00093b94     libeay32:ocsp_asn.obj
 0002:0002bba4       ??_C@_0BC@CPAMEDLH@requestExtensions?$AA@ 00093ba4     libeay32:ocsp_asn.obj
 0002:0002bbb8       ??_C@_0M@NNJGDIDJ@requestList?$AA@ 00093bb8     libeay32:ocsp_asn.obj
 0002:0002bbc4       ??_C@_0O@NHDBCFOA@requestorName?$AA@ 00093bc4     libeay32:ocsp_asn.obj
 0002:0002bbd4       ??_C@_0M@IGPHKOAK@OCSP_ONEREQ?$AA@ 00093bd4     libeay32:ocsp_asn.obj
 0002:0002bbe0       ??_C@_0BI@PPJDGJOP@singleRequestExtensions?$AA@ 00093be0     libeay32:ocsp_asn.obj
 0002:0002bbf8       ??_C@_07GCNFCODJ@reqCert?$AA@ 00093bf8     libeay32:ocsp_asn.obj
 0002:0002bc00       ??_C@_0M@OCJEDPID@OCSP_CERTID?$AA@ 00093c00     libeay32:ocsp_asn.obj
 0002:0002bc0c       ??_C@_0O@KPBFDKHB@issuerKeyHash?$AA@ 00093c0c     libeay32:ocsp_asn.obj
 0002:0002bc1c       ??_C@_0P@EKEFMOEP@issuerNameHash?$AA@ 00093c1c     libeay32:ocsp_asn.obj
 0002:0002bc2c       ??_C@_0P@OIPGPNII@OCSP_SIGNATURE?$AA@ 00093c2c     libeay32:ocsp_asn.obj
 0002:0002bc3c       ??_C@_05HFDFJDL@certs?$AA@ 00093c3c     libeay32:ocsp_asn.obj
 0002:0002bc48       ??_C@_0FA@NCEGPJFE@d?3?2wm653wehh?2platform?2mvv210?2src@ 00093c48     libeay32:p12_utl.obj
 0002:0002bd60       ??_C@_0CK@NJACHFBA@ctx?9?$DOlength?5?$DM?$DN?5?$CIint?$CJsizeof?$CIctx?9?$DO@ 00093d60     libeay32:encode.obj
 0002:0002bd90       ??_C@_0EM@EJBFCLJI@d?3?2wm653wehh?2platform?2mvv210?2src@ 00093d90     libeay32:encode.obj
 0002:0002bddc       ??_C@_0BP@KGJPJK@n?5?$DM?5?$CIint?$CJsizeof?$CIctx?9?$DOenc_data?$CJ?$AA@ 00093ddc     libeay32:encode.obj
 0002:0002bdfc       ??_C@_04GABBLIPF@asn1?$AA@ 00093dfc     libeay32:bio_asn1.obj
 0002:0002be08       ??_C@_0EP@CPKJKHDC@d?3?2wm653wehh?2platform?2mvv210?2src@ 00093e08     libeay32:bio_asn1.obj
 0002:0002be58       ??_C@_0BM@FIMHHPDL@ctx?9?$DObuflen?5?$DM?$DN?5ctx?9?$DObufsize?$AA@ 00093e58     libeay32:bio_asn1.obj
 0002:0002be74       ??_C@_0BA@CNEIDKOH@base64?5encoding?$AA@ 00093e74     libeay32:bio_b64.obj
 0002:0002be88       ??_C@_0EN@CHDAAPPK@d?3?2wm653wehh?2platform?2mvv210?2src@ 00093e88     libeay32:bio_b64.obj
 0002:0002bed8       ??_C@_0CH@JADBFJCL@ctx?9?$DObuf_off?$CLi?5?$DM?5?$CIint?$CJsizeof?$CIctx@ 00093ed8     libeay32:bio_b64.obj
 0002:0002bf00       ??_C@_0BN@FPMDFEFM@ctx?9?$DObuf_len?5?$DO?$DN?5ctx?9?$DObuf_off?$AA@ 00093f00     libeay32:bio_b64.obj
 0002:0002bf20       ??_C@_0BC@BEKEPBME@ctx?9?$DOtmp_len?5?$DM?$DN?53?$AA@ 00093f20     libeay32:bio_b64.obj
 0002:0002bf34       ??_C@_0CG@NALBBCEM@ctx?9?$DObuf_off?5?$DM?$DN?5?$CIint?$CJsizeof?$CIctx?9@ 00093f34     libeay32:bio_b64.obj
 0002:0002bf5c       ??_C@_06NOLCFJLD@i?5?$DM?$DN?5n?$AA@ 00093f5c     libeay32:bio_b64.obj
 0002:0002bf64       ??_C@_0CG@LFOFKIIN@ctx?9?$DObuf_len?5?$DM?$DN?5?$CIint?$CJsizeof?$CIctx?9@ 00093f64     libeay32:bio_b64.obj
 0002:0002bf8c       ??_C@_0CF@ELLFOHKP@ctx?9?$DObuf_off?5?$DM?5?$CIint?$CJsizeof?$CIctx?9?$DO@ 00093f8c     libeay32:bio_b64.obj
 0002:0002bfb4       ??_C@_06HOHPNJLC@buffer?$AA@ 00093fb4     libeay32:bf_buff.obj
 0002:0002bfc0       ??_C@_0EN@HLACMGKH@d?3?2wm653wehh?2platform?2mvv210?2src@ 00093fc0     libeay32:bf_buff.obj
 0002:0002c010       ??_C@_0CG@ELPNGFCJ@OpenSSL?5?8win32?8?5shared?5library?5m@ 00094010     libeay32:dso_win32.obj
 0002:0002c038       ??_C@_01PKGAHCOL@?$CJ?$AA@ 00094038     libeay32:dso_win32.obj
 0002:0002c03c       ??_C@_09CCCHLKJP@filename?$CI?$AA@ 0009403c     libeay32:dso_win32.obj
 0002:0002c048       ??_C@_0EP@KLFAEIED@d?3?2wm653wehh?2platform?2mvv210?2src@ 00094048     libeay32:dso_win32.obj
 0002:0002c098       ??_C@_08MFAHALLH@symname?$CI?$AA@ 00094098     libeay32:dso_win32.obj
 0002:0002c0a4       ??_C@_06DAJAKOAL@?$CFs?4dll?$AA@ 000940a4     libeay32:dso_win32.obj
 0002:0002c0ac       ??_C@_0BI@GJJDGJIM@CloseToolhelp32Snapshot?$AA@ 000940ac     libeay32:dso_win32.obj
 0002:0002c0c4       ??_C@_0O@CNMFJJGO@Module32First?$AA@ 000940c4     libeay32:dso_win32.obj
 0002:0002c0d4       ??_C@_0N@KIGOLBLC@Module32Next?$AA@ 000940d4     libeay32:dso_win32.obj
 0002:0002c0e4       ??_C@_0BJ@JEFKDHMD@CreateToolhelp32Snapshot?$AA@ 000940e4     libeay32:dso_win32.obj
 0002:0002c100       ??_C@_1BK@NKALKHPI@?$AAT?$AAO?$AAO?$AAL?$AAH?$AAE?$AAL?$AAP?$AA?4?$AAD?$AAL?$AAL?$AA?$AA@ 00094100     libeay32:dso_win32.obj
 0002:0002c408       ??_C@_0BB@BIPBIGGF@PKCS12_AUTHSAFES?$AA@ 00094408     libeay32:p12_asn.obj
 0002:0002c41c       ??_C@_0BA@MCGBLIFE@PKCS12_SAFEBAGS?$AA@ 0009441c     libeay32:p12_asn.obj
 0002:0002c42c       ??_C@_06CEIPPJF@attrib?$AA@ 0009442c     libeay32:p12_asn.obj
 0002:0002c434       ??_C@_0P@EECFPDPC@PKCS12_SAFEBAG?$AA@ 00094434     libeay32:p12_asn.obj
 0002:0002c444       ??_C@_09EBGANBLK@value?4bag?$AA@ 00094444     libeay32:p12_asn.obj
 0002:0002c450       ??_C@_0M@NFMGHALF@value?4safes?$AA@ 00094450     libeay32:p12_asn.obj
 0002:0002c45c       ??_C@_0P@FIADCDOI@value?4shkeybag?$AA@ 0009445c     libeay32:p12_asn.obj
 0002:0002c46c       ??_C@_0N@DOAHKDFI@value?4keybag?$AA@ 0009446c     libeay32:p12_asn.obj
 0002:0002c47c       ??_C@_0M@BNPBMADO@PKCS12_BAGS?$AA@ 0009447c     libeay32:p12_asn.obj
 0002:0002c488       ??_C@_0P@OEFHMPFE@value?4sdsicert?$AA@ 00094488     libeay32:p12_asn.obj
 0002:0002c498       ??_C@_0O@KKFHCJNP@value?4x509crl?$AA@ 00094498     libeay32:p12_asn.obj
 0002:0002c4a8       ??_C@_0P@IGODMFMC@value?4x509cert?$AA@ 000944a8     libeay32:p12_asn.obj
 0002:0002c4b8       ??_C@_0M@PABGOMNF@value?4other?$AA@ 000944b8     libeay32:p12_asn.obj
 0002:0002c4c4       ??_C@_0BA@LPMCLHLH@PKCS12_MAC_DATA?$AA@ 000944c4     libeay32:p12_asn.obj
 0002:0002c4d4       ??_C@_05DMLMEGOG@dinfo?$AA@ 000944d4     libeay32:p12_asn.obj
 0002:0002c4dc       ??_C@_06CKOLGKJK@PKCS12?$AA@ 000944dc     libeay32:p12_asn.obj
 0002:0002c4e4       ??_C@_09HFIAEJAG@authsafes?$AA@ 000944e4     libeay32:p12_asn.obj
 0002:0002c4f0       ??_C@_0BP@JCDKFDNH@OpenSSL?5default?5user?5interface?$AA@ 000944f0     libeay32:ui_openssl.obj
 0002:0002c510       ??_C@_0EP@FLBPENKO@d?3?2wm653wehh?2platform?2mvv210?2src@ 00094510     libeay32:ui_openssl.obj
 0002:0002c560       ??_C@_03EPNNLCDK@con?$AA@  00094560     libeay32:ui_openssl.obj
 0002:0002c564       ??_C@_0BA@GANIJHKH@Verify?5failure?6?$AA@ 00094564     libeay32:ui_openssl.obj
 0002:0002c574       ??_C@_0P@IOLEFIHN@Verifying?5?9?5?$CFs?$AA@ 00094574     libeay32:ui_openssl.obj
 0002:0002c584       ??_C@_08EDHMEBNP@December?$AA@ 00094584     wcecompatex:time.obj
 0002:0002c590       ??_C@_08HCHEGEOA@November?$AA@ 00094590     wcecompatex:time.obj
 0002:0002c59c       ??_C@_07JJNFCEND@October?$AA@ 0009459c     wcecompatex:time.obj
 0002:0002c5a4       ??_C@_09BHHEALKD@September?$AA@ 000945a4     wcecompatex:time.obj
 0002:0002c5b0       ??_C@_06LBBHFDDG@August?$AA@ 000945b0     wcecompatex:time.obj
 0002:0002c5b8       ??_C@_04MIEPOIFP@July?$AA@ 000945b8     wcecompatex:time.obj
 0002:0002c5c0       ??_C@_04CNLMGBGM@June?$AA@ 000945c0     wcecompatex:time.obj
 0002:0002c5c8       ??_C@_05DMJDNLEJ@April?$AA@ 000945c8     wcecompatex:time.obj
 0002:0002c5d0       ??_C@_05HPCKOFNC@March?$AA@ 000945d0     wcecompatex:time.obj
 0002:0002c5d8       ??_C@_08GNJGEPFN@February?$AA@ 000945d8     wcecompatex:time.obj
 0002:0002c5e4       ??_C@_07CGJPFGJA@January?$AA@ 000945e4     wcecompatex:time.obj
 0002:0002c5ec       ??_C@_08INBOOONO@Saturday?$AA@ 000945ec     wcecompatex:time.obj
 0002:0002c5f8       ??_C@_06JECMNKMI@Friday?$AA@ 000945f8     wcecompatex:time.obj
 0002:0002c600       ??_C@_08HACCIKIA@Thursday?$AA@ 00094600     wcecompatex:time.obj
 0002:0002c60c       ??_C@_09DLIGFAKA@Wednesday?$AA@ 0009460c     wcecompatex:time.obj
 0002:0002c618       ??_C@_07BAAGCFCM@Tuesday?$AA@ 00094618     wcecompatex:time.obj
 0002:0002c620       ??_C@_06JLEDEDGH@Monday?$AA@ 00094620     wcecompatex:time.obj
 0002:0002c628       ??_C@_06OOPIFAJ@Sunday?$AA@ 00094628     wcecompatex:time.obj
 0002:0002c630       ??_C@_03FEFJNEK@Sat?$AA@   00094630     wcecompatex:time.obj
 0002:0002c634       ??_C@_03IDIOELNC@Fri?$AA@  00094634     wcecompatex:time.obj
 0002:0002c638       ??_C@_03IOFIKPDN@Thu?$AA@  00094638     wcecompatex:time.obj
 0002:0002c63c       ??_C@_03MHOMLAJA@Wed?$AA@  0009463c     wcecompatex:time.obj
 0002:0002c640       ??_C@_03NAGEINEP@Tue?$AA@  00094640     wcecompatex:time.obj
 0002:0002c644       ??_C@_03PDAGKDH@Mon?$AA@   00094644     wcecompatex:time.obj
 0002:0002c648       ??_C@_03KOEHGMDN@Sun?$AA@  00094648     wcecompatex:time.obj
 0002:0002c654       ??_C@_0BG@KLEAJEFJ@Illegal?5byte?5sequence?$AA@ 00094654     wcecompatex:string_extras.obj
 0002:0002c66c       ??_C@_0BE@ICMCHPHH@Directory?5not?5empty?$AA@ 0009466c     wcecompatex:string_extras.obj
 0002:0002c680       ??_C@_0BJ@IHEHINLI@Function?5not?5implemented?$AA@ 00094680     wcecompatex:string_extras.obj
 0002:0002c69c       ??_C@_0BD@CLHBCGPB@No?5locks?5available?$AA@ 0009469c     wcecompatex:string_extras.obj
 0002:0002c6b0       ??_C@_0BC@BEDIHIDK@Filename?5too?5long?$AA@ 000946b0     wcecompatex:string_extras.obj
 0002:0002c6c4       ??_C@_0BK@JAEBMJJM@Resource?5deadlock?5avoided?$AA@ 000946c4     wcecompatex:string_extras.obj
 0002:0002c6e0       ??_C@_0BB@FCBJFCAJ@Result?5too?5large?$AA@ 000946e0     wcecompatex:string_extras.obj
 0002:0002c6f4       ??_C@_0N@MMJPGLJK@Domain?5error?$AA@ 000946f4     wcecompatex:string_extras.obj
 0002:0002c704       ??_C@_0M@LHEPIIOM@Broken?5pipe?$AA@ 00094704     wcecompatex:string_extras.obj
 0002:0002c710       ??_C@_0P@PKCJJLLM@Too?5many?5links?$AA@ 00094710     wcecompatex:string_extras.obj
 0002:0002c720       ??_C@_0BG@DDBFNKBH@Read?9only?5file?5system?$AA@ 00094720     wcecompatex:string_extras.obj
 0002:0002c738       ??_C@_0N@FEHLOILP@Invalid?5seek?$AA@ 00094738     wcecompatex:string_extras.obj
 0002:0002c748       ??_C@_0BI@FEALHKLD@No?5space?5left?5on?5device?$AA@ 00094748     wcecompatex:string_extras.obj
 0002:0002c760       ??_C@_0P@LFMMIPAE@File?5too?5large?$AA@ 00094760     wcecompatex:string_extras.obj
 0002:0002c770       ??_C@_0CE@ONOKNLPF@Inappropriate?5I?1O?5control?5operat@ 00094770     wcecompatex:string_extras.obj
 0002:0002c794       ??_C@_0BE@INBJMKGG@Too?5many?5open?5files?$AA@ 00094794     wcecompatex:string_extras.obj
 0002:0002c7a8       ??_C@_0BO@IIFBODJE@Too?5many?5open?5files?5in?5system?$AA@ 000947a8     wcecompatex:string_extras.obj
 0002:0002c7c8       ??_C@_0BB@HMGGCEBG@Invalid?5argument?$AA@ 000947c8     wcecompatex:string_extras.obj
 0002:0002c7dc       ??_C@_0P@NDHGCGKE@Is?5a?5directory?$AA@ 000947dc     wcecompatex:string_extras.obj
 0002:0002c7ec       ??_C@_0BA@CJBACOOL@Not?5a?5directory?$AA@ 000947ec     wcecompatex:string_extras.obj
 0002:0002c7fc       ??_C@_0P@NLEIANHE@No?5such?5device?$AA@ 000947fc     wcecompatex:string_extras.obj
 0002:0002c80c       ??_C@_0O@OAMDNOCP@Improper?5link?$AA@ 0009480c     wcecompatex:string_extras.obj
 0002:0002c81c       ??_C@_0M@NAAJNNGH@File?5exists?$AA@ 0009481c     wcecompatex:string_extras.obj
 0002:0002c828       ??_C@_0BI@PDLELJEJ@Device?5or?5resource?5busy?$AA@ 00094828     wcecompatex:string_extras.obj
 0002:0002c840       ??_C@_0O@NIPGCINC@Unknown?5error?$AA@ 00094840     wcecompatex:string_extras.obj
 0002:0002c850       ??_C@_0M@LOEHLCJD@Bad?5address?$AA@ 00094850     wcecompatex:string_extras.obj
 0002:0002c85c       ??_C@_0BC@HFNFNKAI@Permission?5denied?$AA@ 0009485c     wcecompatex:string_extras.obj
 0002:0002c870       ??_C@_0BC@BAKIAKOF@Not?5enough?5memory?$AA@ 00094870     wcecompatex:string_extras.obj
 0002:0002c884       ??_C@_0CB@EPFKGNAK@Resource?5temporarily?5unavailable@ 00094884     wcecompatex:string_extras.obj
 0002:0002c8a8       ??_C@_0BD@LOHELEP@No?5child?5processes?$AA@ 000948a8     wcecompatex:string_extras.obj
 0002:0002c8bc       ??_C@_0BE@NFGDDCEF@Bad?5file?5descriptor?$AA@ 000948bc     wcecompatex:string_extras.obj
 0002:0002c8d0       ??_C@_0BC@HKPNECK@Exec?5format?5error?$AA@ 000948d0     wcecompatex:string_extras.obj
 0002:0002c8e4       ??_C@_0BC@MFFGCDFL@Arg?5list?5too?5long?$AA@ 000948e4     wcecompatex:string_extras.obj
 0002:0002c8f8       ??_C@_0BK@DPKMCKJ@No?5such?5device?5or?5address?$AA@ 000948f8     wcecompatex:string_extras.obj
 0002:0002c914       ??_C@_09FIANMNHE@I?1O?5error?$AA@ 00094914     wcecompatex:string_extras.obj
 0002:0002c920       ??_C@_0BI@EAGLFFDI@Interrupted?5system?5call?$AA@ 00094920     wcecompatex:string_extras.obj
 0002:0002c938       ??_C@_0BA@FKIAIBGA@No?5such?5process?$AA@ 00094938     wcecompatex:string_extras.obj
 0002:0002c948       ??_C@_0BK@FMDHKPNF@No?5such?5file?5or?5directory?$AA@ 00094948     wcecompatex:string_extras.obj
 0002:0002c964       ??_C@_0BI@BJFCGOHL@Operation?5not?5permitted?$AA@ 00094964     wcecompatex:string_extras.obj
 0002:0002c97c       ??_C@_08INEPGKHH@No?5error?$AA@ 0009497c     wcecompatex:string_extras.obj
 0002:0002c99c       __IMPORT_DESCRIPTOR_COREDLL 0009499c     coredll:COREDLL.dll
 0002:0002c9b0       __NULL_IMPORT_DESCRIPTOR   000949b0     coredll:COREDLL.dll
 0003:00000000       __imp_printf               00095000     coredll:COREDLL.dll
 0003:00000004       __imp_fflush               00095004     coredll:COREDLL.dll
 0003:00000008       __imp__getstdfilex         00095008     coredll:COREDLL.dll
 0003:0000000c       __imp_sprintf              0009500c     coredll:COREDLL.dll
 0003:00000010       __imp_memset               00095010     coredll:COREDLL.dll
 0003:00000014       __imp_strcmp               00095014     coredll:COREDLL.dll
 0003:00000018       __imp_memcpy               00095018     coredll:COREDLL.dll
 0003:0000001c       __imp_strlen               0009501c     coredll:COREDLL.dll
 0003:00000020       __imp_strncpy              00095020     coredll:COREDLL.dll
 0003:00000024       __imp_strchr               00095024     coredll:COREDLL.dll
 0003:00000028       __imp_free                 00095028     coredll:COREDLL.dll
 0003:0000002c       __imp_realloc              0009502c     coredll:COREDLL.dll
 0003:00000030       __imp_malloc               00095030     coredll:COREDLL.dll
 0003:00000034       __imp_strcpy               00095034     coredll:COREDLL.dll
 0003:00000038       __imp__strnicmp            00095038     coredll:COREDLL.dll
 0003:0000003c       __imp___itod               0009503c     coredll:COREDLL.dll
 0003:00000040       __imp___muld               00095040     coredll:COREDLL.dll
 0003:00000044       __imp_memcmp               00095044     coredll:COREDLL.dll
 0003:00000048       __imp_MessageBoxW          00095048     coredll:COREDLL.dll
 0003:0000004c       __imp__vsnwprintf          0009504c     coredll:COREDLL.dll
 0003:00000050       __imp_MultiByteToWideChar  00095050     coredll:COREDLL.dll
 0003:00000054       __imp_qsort                00095054     coredll:COREDLL.dll
 0003:00000058       __imp___rt_udiv            00095058     coredll:COREDLL.dll
 0003:0000005c       __imp___ltd                0009505c     coredll:COREDLL.dll
 0003:00000060       __imp___negd               00095060     coredll:COREDLL.dll
 0003:00000064       __imp___dtoi               00095064     coredll:COREDLL.dll
 0003:00000068       __imp___subd               00095068     coredll:COREDLL.dll
 0003:0000006c       __imp___ged                0009506c     coredll:COREDLL.dll
 0003:00000070       __imp___rt_udiv64by64      00095070     coredll:COREDLL.dll
 0003:00000074       __imp___rt_urem64by64      00095074     coredll:COREDLL.dll
 0003:00000078       __imp__isctype             00095078     coredll:COREDLL.dll
 0003:0000007c       __imp_fclose               0009507c     coredll:COREDLL.dll
 0003:00000080       __imp_GetLastError         00095080     coredll:COREDLL.dll
 0003:00000084       __imp_ferror               00095084     coredll:COREDLL.dll
 0003:00000088       __imp_fread                00095088     coredll:COREDLL.dll
 0003:0000008c       __imp_fwrite               0009508c     coredll:COREDLL.dll
 0003:00000090       __imp__setmode             00095090     coredll:COREDLL.dll
 0003:00000094       __imp__fileno              00095094     coredll:COREDLL.dll
 0003:00000098       __imp_fopen                00095098     coredll:COREDLL.dll
 0003:0000009c       __imp_fseek                0009509c     coredll:COREDLL.dll
 0003:000000a0       __imp_ftell                000950a0     coredll:COREDLL.dll
 0003:000000a4       __imp_feof                 000950a4     coredll:COREDLL.dll
 0003:000000a8       __imp_strcat               000950a8     coredll:COREDLL.dll
 0003:000000ac       __imp_fgets                000950ac     coredll:COREDLL.dll
 0003:000000b0       __imp__wfopen              000950b0     coredll:COREDLL.dll
 0003:000000b4       __imp_memchr               000950b4     coredll:COREDLL.dll
 0003:000000b8       __imp___addd               000950b8     coredll:COREDLL.dll
 0003:000000bc       __imp___rt_sdiv            000950bc     coredll:COREDLL.dll
 0003:000000c0       __imp_atoi                 000950c0     coredll:COREDLL.dll
 0003:000000c4       __imp_GetTickCount         000950c4     coredll:COREDLL.dll
 0003:000000c8       __imp_QueryPerformanceCounter 000950c8     coredll:COREDLL.dll
 0003:000000cc       __imp_GlobalMemoryStatus   000950cc     coredll:COREDLL.dll
 0003:000000d0       __imp_CryptReleaseContext  000950d0     coredll:COREDLL.dll
 0003:000000d4       __imp_CryptGenRandom       000950d4     coredll:COREDLL.dll
 0003:000000d8       __imp_CryptAcquireContextW 000950d8     coredll:COREDLL.dll
 0003:000000dc       __imp_GetVersionExW        000950dc     coredll:COREDLL.dll
 0003:000000e0       __imp_tolower              000950e0     coredll:COREDLL.dll
 0003:000000e4       __imp_strncmp              000950e4     coredll:COREDLL.dll
 0003:000000e8       __imp_sscanf               000950e8     coredll:COREDLL.dll
 0003:000000ec       __imp_fprintf              000950ec     coredll:COREDLL.dll
 0003:000000f0       __imp_strrchr              000950f0     coredll:COREDLL.dll
 0003:000000f4       __imp__stricmp             000950f4     coredll:COREDLL.dll
 0003:000000f8       __imp_memmove              000950f8     coredll:COREDLL.dll
 0003:000000fc       __imp_strtoul              000950fc     coredll:COREDLL.dll
 0003:00000100       __imp_LoadLibraryW         00095100     coredll:COREDLL.dll
 0003:00000104       __imp_SetLastError         00095104     coredll:COREDLL.dll
 0003:00000108       __imp_FreeLibrary          00095108     coredll:COREDLL.dll
 0003:0000010c       __imp_GetProcAddressA      0009510c     coredll:COREDLL.dll
 0003:00000110       __imp_strstr               00095110     coredll:COREDLL.dll
 0003:00000114       __imp_WideCharToMultiByte  00095114     coredll:COREDLL.dll
 0003:00000118       __imp_fputs                00095118     coredll:COREDLL.dll
 0003:0000011c       __imp_SystemTimeToFileTime 0009511c     coredll:COREDLL.dll
 0003:00000120       __imp_GetSystemTime        00095120     coredll:COREDLL.dll
 0003:00000124       __imp_GetTimeZoneInformation 00095124     coredll:COREDLL.dll
 0003:00000128       __imp_FileTimeToSystemTime 00095128     coredll:COREDLL.dll
 0003:0000012c       __imp_FileTimeToLocalFileTime 0009512c     coredll:COREDLL.dll
 0003:00000130       __imp__XcptFilter          00095130     coredll:COREDLL.dll
 0003:00000134       __imp___C_specific_handler 00095134     coredll:COREDLL.dll
 0003:00000138       __imp_LocalFree            00095138     coredll:COREDLL.dll
 0003:0000013c       __imp_FindFirstFileW       0009513c     coredll:COREDLL.dll
 0003:00000140       __imp_FindClose            00095140     coredll:COREDLL.dll
 0003:00000144       __imp_FindNextFileW        00095144     coredll:COREDLL.dll
 0003:00000148       __imp_GetModuleFileNameW   00095148     coredll:COREDLL.dll
 0003:0000014c       \177COREDLL_NULL_THUNK_DATA 0009514c     coredll:COREDLL.dll
 0003:00000150       __xc_a                     00095150     corelibc:crt0init.obj
 0003:00000154       __xc_z                     00095154     corelibc:crt0init.obj
 0003:00000158       __xi_a                     00095158     corelibc:crt0init.obj
 0003:0000015c       __xi_z                     0009515c     corelibc:crt0init.obj
 0003:00000160       __xp_a                     00095160     corelibc:crt0init.obj
 0003:00000164       __xp_z                     00095164     corelibc:crt0init.obj
 0003:00000168       __xt_a                     00095168     corelibc:crt0init.obj
 0003:0000016c       __xt_z                     0009516c     corelibc:crt0init.obj
 0003:00003fb8       rand_ssleay_meth           00098fb8     libeay32:md_rand.obj
 0003:000042d8       default_pctx               000992d8     libeay32:tasn_prn.obj
 0003:00004bf8       ?messages@@3PAPADA         00099bf8     wcecompatex:string_extras.obj
 0003:000063a0       OPENSSL_NONPIC_relocated   0009b3a0     libeay32:cryptlib.obj
 0003:000063dc       cleanse_ctr                0009b3dc     libeay32:mem_clr.obj
 0003:000063f0       app_pkey_methods           0009b3f0     libeay32:pmeth_lib.obj
 0003:000065f8       obj_cleanup_defer          0009b5f8     libeay32:obj_dat.obj
 0003:00006c74       _environ                   0009bc74     wcecompatex:env.obj
 0003:00006c78       _wenviron                  0009bc78     wcecompatex:env.obj
 0003:00006c7c       ?num_env_vars@@3HA         0009bc7c     wcecompatex:env.obj
 0003:00006cc0       errno                      0009bcc0     wcecompatex:errno.obj
 0003:00006cc4       ?_timezone@@3HA            0009bcc4     wcecompatex:timeb.obj
 0003:00006cc8       ?altzone@@3HA              0009bcc8     wcecompatex:timeb.obj
 0003:00006ccc       ?timezone@@3HA             0009bccc     wcecompatex:timeb.obj
 0003:00006cd0       sigx_app                   0009bcd0     <common>
 0003:00006cd4       sig_app                    0009bcd4     <common>
 0003:00006cd8       __onexitend                0009bcd8     <common>
 0003:00006cdc       __onexitbegin              0009bcdc     <common>
 0003:00006ce0       _exitflag                  0009bce0     <common>

 entry point at        0001:00055dd4

 Static symbols

 0001:00000000       display_engine_list        00011000 f   enginetest.obj
 0001:000007d0       engine_cleanup_cb_free     000117d0 f   libeay32:eng_lib.obj
 0001:000008d8       engine_list_remove         000118d8 f   libeay32:eng_list.obj
 0001:00000b50       engine_list_cleanup        00011b50 f   libeay32:eng_list.obj
 0001:00000b7c       engine_list_add            00011b7c f   libeay32:eng_list.obj
 0001:00000dac       app_info_free              00011dac f   libeay32:mem_dbg.obj
 0001:00001010       mem_LHASH_COMP             00012010 f   libeay32:mem_dbg.obj
 0001:00001020       mem_LHASH_HASH             00012020 f   libeay32:mem_dbg.obj
 0001:00001054       app_info_LHASH_COMP        00012054 f   libeay32:mem_dbg.obj
 0001:00001064       app_info_LHASH_HASH        00012064 f   libeay32:mem_dbg.obj
 0001:0000109c       pop_info                   0001209c f   libeay32:mem_dbg.obj
 0001:0000153c       print_leak_doall_arg       0001253c f   libeay32:mem_dbg.obj
 0001:0000177c       print_leak_LHASH_DOALL_ARG 0001277c f   libeay32:mem_dbg.obj
 0001:00001914       err_fns_check              00012914 f   libeay32:err.obj
 0001:0000197c       err_string_data_LHASH_HASH 0001297c f   libeay32:err.obj
 0001:000019c8       err_string_data_LHASH_COMP 000129c8 f   libeay32:err.obj
 0001:000019d8       int_err_get                000129d8 f   libeay32:err.obj
 0001:00001a84       int_err_del                00012a84 f   libeay32:err.obj
 0001:00001ae0       int_err_get_item           00012ae0 f   libeay32:err.obj
 0001:00001b64       int_err_set_item           00012b64 f   libeay32:err.obj
 0001:00001be4       int_err_del_item           00012be4 f   libeay32:err.obj
 0001:00001c68       err_state_LHASH_HASH       00012c68 f   libeay32:err.obj
 0001:00001c80       err_state_LHASH_COMP       00012c80 f   libeay32:err.obj
 0001:00001c90       int_thread_get             00012c90 f   libeay32:err.obj
 0001:00001d48       int_thread_release         00012d48 f   libeay32:err.obj
 0001:00001da4       int_thread_get_item        00012da4 f   libeay32:err.obj
 0001:00001e48       int_thread_set_item        00012e48 f   libeay32:err.obj
 0001:00001eec       int_err_get_next_lib       00012eec f   libeay32:err.obj
 0001:00001f44       ERR_STATE_free             00012f44 f   libeay32:err.obj
 0001:00001f9c       err_load_strings           00012f9c f   libeay32:err.obj
 0001:00002504       int_thread_del_item        00013504 f   libeay32:err.obj
 0001:000028f0       get_error_values           000138f0 f   libeay32:err.obj
 0001:00002c10       impl_check                 00013c10 f   libeay32:ex_data.obj
 0001:00002c64       ex_class_item_LHASH_HASH   00013c64 f   libeay32:ex_data.obj
 0001:00002c6c       ex_class_item_LHASH_COMP   00013c6c f   libeay32:ex_data.obj
 0001:00002c7c       ex_data_check              00013c7c f   libeay32:ex_data.obj
 0001:00002cf8       def_cleanup_util_cb        00013cf8 f   libeay32:ex_data.obj
 0001:00002d08       def_cleanup_cb             00013d08 f   libeay32:ex_data.obj
 0001:00002d30       def_get_class              00013d30 f   libeay32:ex_data.obj
 0001:00002e2c       def_add_index              00013e2c f   libeay32:ex_data.obj
 0001:00002f60       int_new_class              00013f60 f   libeay32:ex_data.obj
 0001:00002fb8       int_cleanup                00013fb8 f   libeay32:ex_data.obj
 0001:0000300c       int_get_new_index          0001400c f   libeay32:ex_data.obj
 0001:00003240       int_new_ex_data            00014240 f   libeay32:ex_data.obj
 0001:000033bc       int_dup_ex_data            000143bc f   libeay32:ex_data.obj
 0001:00003564       int_free_ex_data           00014564 f   libeay32:ex_data.obj
 0001:000037d8       print_fp                   000147d8 f   libeay32:err_prn.obj
 0001:00003848       default_malloc_ex          00014848 f   libeay32:mem.obj
 0001:00003868       default_realloc_ex         00014868 f   libeay32:mem.obj
 0001:00003888       default_malloc_locked_ex   00014888 f   libeay32:mem.obj
 0001:00003f08       look_str_cb                00014f08 f   libeay32:tb_asnmth.obj
 0001:00004ae0       internal_find              00015ae0 f   libeay32:stack.obj
 0001:00004f18       expand                     00015f18 f   libeay32:lhash.obj
 0001:00005050       contract                   00016050 f   libeay32:lhash.obj
 0001:00005148       getrn                      00016148 f   libeay32:lhash.obj
 0001:00005fb8       roundv                     00016fb8 f   libeay32:b_print.obj
 0001:00006048       doapr_outch                00017048 f   libeay32:b_print.obj
 0001:0000613c       fmtstr                     0001713c f   libeay32:b_print.obj
 0001:0000626c       fmtint                     0001726c f   libeay32:b_print.obj
 0001:000065ac       fmtfp                      000175ac f   libeay32:b_print.obj
 0001:00006a9c       _dopr                      00017a9c f   libeay32:b_print.obj
 0001:000071c8       file_new                   000181c8 f   libeay32:bss_file.obj
 0001:000071e4       file_free                  000181e4 f   libeay32:bss_file.obj
 0001:00007240       file_read                  00018240 f   libeay32:bss_file.obj
 0001:000072e0       file_write                 000182e0 f   libeay32:bss_file.obj
 0001:0000732c       file_ctrl                  0001832c f   libeay32:bss_file.obj
 0001:000075c0       file_gets                  000185c0 f   libeay32:bss_file.obj
 0001:00007614       file_puts                  00018614 f   libeay32:bss_file.obj
 0001:000080c0       int_cb_LHASH_DOALL_ARG     000190c0 f   libeay32:eng_table.obj
 0001:00008120       ameth_cmp_BSEARCH_CMP_FN   00019120 f   libeay32:ameth_lib.obj
 0001:000083c8       pmeth_cmp_BSEARCH_CMP_FN   000193c8 f   libeay32:pmeth_lib.obj
 0001:000088e0       sn_cmp_BSEARCH_CMP_FN      000198e0 f   libeay32:obj_dat.obj
 0001:0000890c       ln_cmp_BSEARCH_CMP_FN      0001990c f   libeay32:obj_dat.obj
 0001:00008be8       obj_cmp_BSEARCH_CMP_FN     00019be8 f   libeay32:obj_dat.obj
 0001:00009598       ssleay_rand_cleanup        0001a598 f   libeay32:md_rand.obj
 0001:00009600       ssleay_rand_add            0001a600 f   libeay32:md_rand.obj
 0001:00009998       ssleay_rand_seed           0001a998 f   libeay32:md_rand.obj
 0001:000099d8       ssleay_rand_bytes          0001a9d8 f   libeay32:md_rand.obj
 0001:00009e14       ssleay_rand_nopseudo_bytes 0001ae14 f   libeay32:md_rand.obj
 0001:00009e28       ssleay_rand_pseudo_bytes   0001ae28 f   libeay32:md_rand.obj
 0001:00009e3c       ssleay_rand_status         0001ae3c f   libeay32:md_rand.obj
 0001:00009fb8       cmac_size                  0001afb8 f   libeay32:cm_ameth.obj
 0001:00009fc0       cmac_key_free              0001afc0 f   libeay32:cm_ameth.obj
 0001:00009fdc       hmac_size                  0001afdc f   libeay32:hm_ameth.obj
 0001:00009fe4       hmac_key_free              0001afe4 f   libeay32:hm_ameth.obj
 0001:0000a018       hmac_pkey_ctrl             0001b018 f   libeay32:hm_ameth.obj
 0001:0000a030       old_hmac_decode            0001b030 f   libeay32:hm_ameth.obj
 0001:0000a090       old_hmac_encode            0001b090 f   libeay32:hm_ameth.obj
 0001:0000a100       eckey_param2type           0001b100 f   libeay32:ec_ameth.obj
 0001:0000a1e8       eckey_pub_encode           0001b1e8 f   libeay32:ec_ameth.obj
 0001:0000a2ec       eckey_type2param           0001b2ec f   libeay32:ec_ameth.obj
 0001:0000a3f8       eckey_pub_decode           0001b3f8 f   libeay32:ec_ameth.obj
 0001:0000a4f4       eckey_pub_cmp              0001b4f4 f   libeay32:ec_ameth.obj
 0001:0000a55c       eckey_priv_decode          0001b55c f   libeay32:ec_ameth.obj
 0001:0000a784       eckey_priv_encode          0001b784 f   libeay32:ec_ameth.obj
 0001:0000a91c       int_ec_size                0001b91c f   libeay32:ec_ameth.obj
 0001:0000a930       ec_bits                    0001b930 f   libeay32:ec_ameth.obj
 0001:0000a98c       ec_missing_parameters      0001b98c f   libeay32:ec_ameth.obj
 0001:0000a9b0       ec_copy_parameters         0001b9b0 f   libeay32:ec_ameth.obj
 0001:0000aa00       ec_cmp_parameters          0001ba00 f   libeay32:ec_ameth.obj
 0001:0000aa44       int_ec_free                0001ba44 f   libeay32:ec_ameth.obj
 0001:0000aa58       do_EC_KEY_print            0001ba58 f   libeay32:ec_ameth.obj
 0001:0000acec       eckey_param_decode         0001bcec f   libeay32:ec_ameth.obj
 0001:0000ad50       eckey_param_encode         0001bd50 f   libeay32:ec_ameth.obj
 0001:0000ad64       eckey_param_print          0001bd64 f   libeay32:ec_ameth.obj
 0001:0000ad7c       eckey_pub_print            0001bd7c f   libeay32:ec_ameth.obj
 0001:0000ad94       eckey_priv_print           0001bd94 f   libeay32:ec_ameth.obj
 0001:0000adac       old_ec_priv_decode         0001bdac f   libeay32:ec_ameth.obj
 0001:0000ae14       old_ec_priv_encode         0001be14 f   libeay32:ec_ameth.obj
 0001:0000ae28       ec_pkey_ctrl               0001be28 f   libeay32:ec_ameth.obj
 0001:0000af7c       dsa_pub_decode             0001bf7c f   libeay32:dsa_ameth.obj
 0001:0000b128       dsa_pub_encode             0001c128 f   libeay32:dsa_ameth.obj
 0001:0000b264       dsa_priv_decode            0001c264 f   libeay32:dsa_ameth.obj
 0001:0000b550       dsa_priv_encode            0001c550 f   libeay32:dsa_ameth.obj
 0001:0000b6a8       int_dsa_size               0001c6a8 f   libeay32:dsa_ameth.obj
 0001:0000b6bc       dsa_bits                   0001c6bc f   libeay32:dsa_ameth.obj
 0001:0000b6d4       dsa_missing_parameters     0001c6d4 f   libeay32:dsa_ameth.obj
 0001:0000b704       dsa_copy_parameters        0001c704 f   libeay32:dsa_ameth.obj
 0001:0000b7b8       dsa_cmp_parameters         0001c7b8 f   libeay32:dsa_ameth.obj
 0001:0000b82c       dsa_pub_cmp                0001c82c f   libeay32:dsa_ameth.obj
 0001:0000b85c       int_dsa_free               0001c85c f   libeay32:dsa_ameth.obj
 0001:0000b870       do_dsa_print               0001c870 f   libeay32:dsa_ameth.obj
 0001:0000baf8       dsa_param_decode           0001caf8 f   libeay32:dsa_ameth.obj
 0001:0000bb5c       dsa_param_encode           0001cb5c f   libeay32:dsa_ameth.obj
 0001:0000bb70       dsa_param_print            0001cb70 f   libeay32:dsa_ameth.obj
 0001:0000bb88       dsa_pub_print              0001cb88 f   libeay32:dsa_ameth.obj
 0001:0000bba0       dsa_priv_print             0001cba0 f   libeay32:dsa_ameth.obj
 0001:0000bbb8       old_dsa_priv_decode        0001cbb8 f   libeay32:dsa_ameth.obj
 0001:0000bc20       old_dsa_priv_encode        0001cc20 f   libeay32:dsa_ameth.obj
 0001:0000bc34       dsa_sig_print              0001cc34 f   libeay32:dsa_ameth.obj
 0001:0000bdc4       dsa_pkey_ctrl              0001cdc4 f   libeay32:dsa_ameth.obj
 0001:0000bf18       int_dh_free                0001cf18 f   libeay32:dh_ameth.obj
 0001:0000bf2c       dh_pub_decode              0001cf2c f   libeay32:dh_ameth.obj
 0001:0000c09c       dh_pub_encode              0001d09c f   libeay32:dh_ameth.obj
 0001:0000c1b0       dh_priv_decode             0001d1b0 f   libeay32:dh_ameth.obj
 0001:0000c2e4       dh_priv_encode             0001d2e4 f   libeay32:dh_ameth.obj
 0001:0000c430       dh_param_decode            0001d430 f   libeay32:dh_ameth.obj
 0001:0000c494       dh_param_encode            0001d494 f   libeay32:dh_ameth.obj
 0001:0000c4a8       do_dh_print                0001d4a8 f   libeay32:dh_ameth.obj
 0001:0000c734       int_dh_size                0001d734 f   libeay32:dh_ameth.obj
 0001:0000c748       dh_bits                    0001d748 f   libeay32:dh_ameth.obj
 0001:0000c760       dh_cmp_parameters          0001d760 f   libeay32:dh_ameth.obj
 0001:0000c7b8       dh_copy_parameters         0001d7b8 f   libeay32:dh_ameth.obj
 0001:0000c83c       dh_missing_parameters      0001d83c f   libeay32:dh_ameth.obj
 0001:0000c85c       dh_pub_cmp                 0001d85c f   libeay32:dh_ameth.obj
 0001:0000c8a8       dh_param_print             0001d8a8 f   libeay32:dh_ameth.obj
 0001:0000c8cc       dh_public_print            0001d8cc f   libeay32:dh_ameth.obj
 0001:0000c8f0       dh_private_print           0001d8f0 f   libeay32:dh_ameth.obj
 0001:0000c914       rsa_pub_encode             0001d914 f   libeay32:rsa_ameth.obj
 0001:0000c98c       rsa_pub_decode             0001d98c f   libeay32:rsa_ameth.obj
 0001:0000ca1c       rsa_pub_cmp                0001da1c f   libeay32:rsa_ameth.obj
 0001:0000ca74       old_rsa_priv_decode        0001da74 f   libeay32:rsa_ameth.obj
 0001:0000cad8       old_rsa_priv_encode        0001dad8 f   libeay32:rsa_ameth.obj
 0001:0000caec       rsa_priv_encode            0001daec f   libeay32:rsa_ameth.obj
 0001:0000cbac       rsa_priv_decode            0001dbac f   libeay32:rsa_ameth.obj
 0001:0000cbf8       int_rsa_size               0001dbf8 f   libeay32:rsa_ameth.obj
 0001:0000cc0c       rsa_bits                   0001dc0c f   libeay32:rsa_ameth.obj
 0001:0000cc24       int_rsa_free               0001dc24 f   libeay32:rsa_ameth.obj
 0001:0000cc38       do_rsa_print               0001dc38 f   libeay32:rsa_ameth.obj
 0001:0000cfd4       rsa_pub_print              0001dfd4 f   libeay32:rsa_ameth.obj
 0001:0000cfec       rsa_priv_print             0001dfec f   libeay32:rsa_ameth.obj
 0001:0000d004       rsa_pss_decode             0001e004 f   libeay32:rsa_ameth.obj
 0001:0000d0cc       rsa_pss_param_print        0001e0cc f   libeay32:rsa_ameth.obj
 0001:0000d320       rsa_sig_print              0001e320 f   libeay32:rsa_ameth.obj
 0001:0000d3e8       rsa_pkey_ctrl              0001e3e8 f   libeay32:rsa_ameth.obj
 0001:0000d4d8       rsa_item_verify            0001e4d8 f   libeay32:rsa_ameth.obj
 0001:0000d7a8       rsa_item_sign              0001e7a8 f   libeay32:rsa_ameth.obj
 0001:0000da70       pkey_cmac_init             0001ea70 f   libeay32:cm_pmeth.obj
 0001:0000daa0       pkey_cmac_copy             0001eaa0 f   libeay32:cm_pmeth.obj
 0001:0000dae4       pkey_cmac_cleanup          0001eae4 f   libeay32:cm_pmeth.obj
 0001:0000daf8       pkey_cmac_keygen           0001eaf8 f   libeay32:cm_pmeth.obj
 0001:0000db58       int_update                 0001eb58 f   libeay32:cm_pmeth.obj
 0001:0000db80       cmac_signctx_init          0001eb80 f   libeay32:cm_pmeth.obj
 0001:0000dbac       cmac_signctx               0001ebac f   libeay32:cm_pmeth.obj
 0001:0000dbc0       pkey_cmac_ctrl             0001ebc0 f   libeay32:cm_pmeth.obj
 0001:0000dc94       pkey_cmac_ctrl_str         0001ec94 f   libeay32:cm_pmeth.obj
 0001:0000dda4       pkey_hmac_init             0001eda4 f   libeay32:hm_pmeth.obj
 0001:0000de08       pkey_hmac_copy             0001ee08 f   libeay32:hm_pmeth.obj
 0001:0000de90       pkey_hmac_cleanup          0001ee90 f   libeay32:hm_pmeth.obj
 0001:0000dedc       pkey_hmac_keygen           0001eedc f   libeay32:hm_pmeth.obj
 0001:0000df30       int_update                 0001ef30 f   libeay32:hm_pmeth.obj
 0001:0000df5c       hmac_signctx_init          0001ef5c f   libeay32:hm_pmeth.obj
 0001:0000df9c       hmac_signctx               0001ef9c f   libeay32:hm_pmeth.obj
 0001:0000e00c       pkey_hmac_ctrl             0001f00c f   libeay32:hm_pmeth.obj
 0001:0000e0a4       pkey_hmac_ctrl_str         0001f0a4 f   libeay32:hm_pmeth.obj
 0001:0000e164       pkey_ec_init               0001f164 f   libeay32:ec_pmeth.obj
 0001:0000e1a8       pkey_ec_copy               0001f1a8 f   libeay32:ec_pmeth.obj
 0001:0000e208       pkey_ec_cleanup            0001f208 f   libeay32:ec_pmeth.obj
 0001:0000e238       pkey_ec_sign               0001f238 f   libeay32:ec_pmeth.obj
 0001:0000e2fc       pkey_ec_verify             0001f2fc f   libeay32:ec_pmeth.obj
 0001:0000e35c       pkey_ec_derive             0001f35c f   libeay32:ec_pmeth.obj
 0001:0000e424       pkey_ec_ctrl               0001f424 f   libeay32:ec_pmeth.obj
 0001:0000e570       pkey_ec_ctrl_str           0001f570 f   libeay32:ec_pmeth.obj
 0001:0000e61c       pkey_ec_paramgen           0001f61c f   libeay32:ec_pmeth.obj
 0001:0000e6b0       pkey_ec_keygen             0001f6b0 f   libeay32:ec_pmeth.obj
 0001:0000e744       pkey_dsa_init              0001f744 f   libeay32:dsa_pmeth.obj
 0001:0000e7ac       pkey_dsa_copy              0001f7ac f   libeay32:dsa_pmeth.obj
 0001:0000e800       pkey_dsa_cleanup           0001f800 f   libeay32:dsa_pmeth.obj
 0001:0000e81c       pkey_dsa_sign              0001f81c f   libeay32:dsa_pmeth.obj
 0001:0000e890       pkey_dsa_verify            0001f890 f   libeay32:dsa_pmeth.obj
 0001:0000e8f0       pkey_dsa_ctrl              0001f8f0 f   libeay32:dsa_pmeth.obj
 0001:0000eae8       pkey_dsa_ctrl_str          0001fae8 f   libeay32:dsa_pmeth.obj
 0001:0000ebf0       pkey_dsa_paramgen          0001fbf0 f   libeay32:dsa_pmeth.obj
 0001:0000ec98       pkey_dsa_keygen            0001fc98 f   libeay32:dsa_pmeth.obj
 0001:0000ed2c       pkey_dh_init               0001fd2c f   libeay32:dh_pmeth.obj
 0001:0000ed8c       pkey_dh_copy               0001fd8c f   libeay32:dh_pmeth.obj
 0001:0000edd8       pkey_dh_cleanup            0001fdd8 f   libeay32:dh_pmeth.obj
 0001:0000edf4       pkey_dh_ctrl               0001fdf4 f   libeay32:dh_pmeth.obj
 0001:0000ee48       pkey_dh_ctrl_str           0001fe48 f   libeay32:dh_pmeth.obj
 0001:0000ef04       pkey_dh_paramgen           0001ff04 f   libeay32:dh_pmeth.obj
 0001:0000ef90       pkey_dh_keygen             0001ff90 f   libeay32:dh_pmeth.obj
 0001:0000f020       pkey_dh_derive             00020020 f   libeay32:dh_pmeth.obj
 0001:0000f09c       pkey_rsa_init              0002009c f   libeay32:rsa_pmeth.obj
 0001:0000f114       pkey_rsa_copy              00020114 f   libeay32:rsa_pmeth.obj
 0001:0000f184       setup_tbuf                 00020184 f   libeay32:rsa_pmeth.obj
 0001:0000f1d0       pkey_rsa_cleanup           000201d0 f   libeay32:rsa_pmeth.obj
 0001:0000f210       pkey_rsa_sign              00020210 f   libeay32:rsa_pmeth.obj
 0001:0000f3f8       pkey_rsa_verifyrecover     000203f8 f   libeay32:rsa_pmeth.obj
 0001:0000f5ac       pkey_rsa_verify            000205ac f   libeay32:rsa_pmeth.obj
 0001:0000f724       pkey_rsa_encrypt           00020724 f   libeay32:rsa_pmeth.obj
 0001:0000f770       pkey_rsa_decrypt           00020770 f   libeay32:rsa_pmeth.obj
 0001:0000f7bc       check_padding_md           000207bc f   libeay32:rsa_pmeth.obj
 0001:0000f84c       pkey_rsa_ctrl              0002084c f   libeay32:rsa_pmeth.obj
 0001:0000fb8c       pkey_rsa_ctrl_str          00020b8c f   libeay32:rsa_pmeth.obj
 0001:0000fe04       pkey_rsa_keygen            00020e04 f   libeay32:rsa_pmeth.obj
 0001:00010134       pkey_set_type              00021134 f   libeay32:p_lib.obj
 0001:000114b0       bn_expand_internal         000224b0 f   libeay32:bn_lib.obj
 0001:00012388       asn1_get_length            00023388 f   libeay32:asn1_lib.obj
 0001:0001305c       init                       0002405c f   libeay32:m_sha1.obj
 0001:00013070       update                     00024070 f   libeay32:m_sha1.obj
 0001:00013084       final                      00024084 f   libeay32:m_sha1.obj
 0001:000130ac       init224                    000240ac f   libeay32:m_sha1.obj
 0001:000130c0       init256                    000240c0 f   libeay32:m_sha1.obj
 0001:000130d4       update256                  000240d4 f   libeay32:m_sha1.obj
 0001:000130e8       final256                   000240e8 f   libeay32:m_sha1.obj
 0001:00013104       init384                    00024104 f   libeay32:m_sha1.obj
 0001:00013118       init512                    00024118 f   libeay32:m_sha1.obj
 0001:0001312c       update512                  0002412c f   libeay32:m_sha1.obj
 0001:00013140       final512                   00024140 f   libeay32:m_sha1.obj
 0001:0001315c       readtimer                  0002415c f   libeay32:rand_win.obj
 0001:00013cc8       X9_62_CHARACTERISTIC_TWO_adb 00024cc8 f   libeay32:ec_asn1.obj
 0001:00013ce0       X9_62_FIELDID_adb          00024ce0 f   libeay32:ec_asn1.obj
 0001:00013d1c       ec_asn1_group2fieldid      00024d1c f   libeay32:ec_asn1.obj
 0001:00014090       ec_asn1_group2curve        00025090 f   libeay32:ec_asn1.obj
 0001:00014478       ec_asn1_group2parameters   00025478 f   libeay32:ec_asn1.obj
 0001:0001480c       ec_asn1_group2pkparameters 0002580c f   libeay32:ec_asn1.obj
 0001:0001490c       ec_asn1_parameters2group   0002590c f   libeay32:ec_asn1.obj
 0001:00015108       ec_asn1_pkparameters2group 00026108 f   libeay32:ec_asn1.obj
 0001:00017ad4       pubkey_cb                  00028ad4 f   libeay32:x_pubkey.obj
 0001:00017d80       ec_group_new_from_data     00028d80 f   libeay32:ec_curve.obj
 0001:000183ec       pkey_cb                    000293ec f   libeay32:p8_pkey.obj
 0001:00018584       ecdsa_data_new             00029584 f   libeay32:ecs_lib.obj
 0001:00018678       ecdsa_data_dup             00029678 f   libeay32:ecs_lib.obj
 0001:00018698       ecdsa_data_free            00029698 f   libeay32:ecs_lib.obj
 0001:00018810       BN_POOL_get                00029810 f   libeay32:bn_ctx.obj
 0001:00018bfc       print_bin                  00029bfc f   libeay32:eck_prn.obj
 0001:00019804       sig_cmp_BSEARCH_CMP_FN     0002a804 f   libeay32:obj_xref.obj
 0001:00019814       sigx_cmp_BSEARCH_CMP_FN    0002a814 f   libeay32:obj_xref.obj
 0001:00019984       cms_get0_signed            0002a984 f   libeay32:cms_sd.obj
 0001:000199d8       cms_sd_set_version         0002a9d8 f   libeay32:cms_sd.obj
 0001:00019e94       cms_SignerInfo_content_sign 0002ae94 f   libeay32:cms_sd.obj
 0001:0001ac04       sig_cb                     0002bc04 f   libeay32:dsa_asn1.obj
 0001:0001ac98       dsa_cb                     0002bc98 f   libeay32:dsa_asn1.obj
 0001:0001b1e8       MOD_EXP_CTIME_COPY_FROM_PREBUF 0002c1e8 f   libeay32:bn_exp.obj
 0001:0001ca14       dh_cb                      0002da14 f   libeay32:dh_asn1.obj
 0001:0001cae4       generate_key               0002dae4 f   libeay32:dh_key.obj
 0001:0001ccfc       compute_key                0002dcfc f   libeay32:dh_key.obj
 0001:0001ceb4       dh_bn_mod_exp              0002deb4 f   libeay32:dh_key.obj
 0001:0001cf3c       dh_init                    0002df3c f   libeay32:dh_key.obj
 0001:0001cf54       dh_finish                  0002df54 f   libeay32:dh_key.obj
 0001:0001cf74       rsa_cb                     0002df74 f   libeay32:rsa_asn1.obj
 0001:0001d158       rsa_get_public_exp         0002e158 f   libeay32:rsa_crpt.obj
 0001:0001d900       cms_RecipientInfo_ktri_encrypt 0002e900 f   libeay32:cms_env.obj
 0001:0001da8c       cms_RecipientInfo_kekri_encrypt 0002ea8c f   libeay32:cms_env.obj
 0001:0001dd44       do_sigver_init             0002ed44 f   libeay32:m_sigver.obj
 0001:0001ebcc       strip_spaces               0002fbcc f   libeay32:v3_utl.obj
 0001:0001ef44       ipv4_from_asc              0002ff44 f   libeay32:v3_utl.obj
 0001:0001f2e4       ipv6_cb                    000302e4 f   libeay32:v3_utl.obj
 0001:0001f3f4       ipv6_from_asc              000303f4 f   libeay32:v3_utl.obj
 0001:00020568       trans_cb                   00031568 f   libeay32:pmeth_gn.obj
 0001:000205b8       dsa_builtin_keygen         000315b8 f   libeay32:dsa_key.obj
 0001:00020720       dh_builtin_genparams       00031720 f   libeay32:dh_gen.obj
 0001:00021c94       rsa_builtin_keygen         00032c94 f   libeay32:rsa_gen.obj
 0001:00022384       obj_name_LHASH_HASH        00033384 f   libeay32:o_names.obj
 0001:000223e4       obj_name_LHASH_COMP        000333e4 f   libeay32:o_names.obj
 0001:0002256c       pbe2_cmp_BSEARCH_CMP_FN    0003356c f   libeay32:evp_pbe.obj
 0001:00022aa0       sha1_block_data_order      00033aa0 f   libeay32:sha1dgst.obj
 0001:00023174       sha256_block_data_order    00034174 f   libeay32:sha256.obj
 0001:00023904       sha512_block_data_order    00034904 f   libeay32:sha512.obj
 0001:000255f0       asn1_check_tlen            000365f0 f   libeay32:tasn_dec.obj
 0001:000257f0       asn1_template_ex_d2i       000367f0 f   libeay32:tasn_dec.obj
 0001:00025a0c       asn1_find_end              00036a0c f   libeay32:tasn_dec.obj
 0001:00025b60       asn1_collect               00036b60 f   libeay32:tasn_dec.obj
 0001:00025dbc       asn1_d2i_ex_primitive      00036dbc f   libeay32:tasn_dec.obj
 0001:00026b84       asn1_template_noexp_d2i    00037b84 f   libeay32:tasn_dec.obj
 0001:00026fa0       asn1_template_ex_i2d       00037fa0 f   libeay32:tasn_enc.obj
 0001:000272c0       der_cmp                    000382c0 f   libeay32:tasn_enc.obj
 0001:000274e0       asn1_i2d_ex_primitive      000384e0 f   libeay32:tasn_enc.obj
 0001:000279b8       asn1_set_seq_out           000389b8 f   libeay32:tasn_enc.obj
 0001:00027c00       asn1_item_flags_i2d        00038c00 f   libeay32:tasn_enc.obj
 0001:00027df4       asn1_item_ex_combine_new   00038df4 f   libeay32:tasn_new.obj
 0001:000280d4       asn1_item_clear            000390d4 f   libeay32:tasn_new.obj
 0001:00028424       asn1_item_combine_free     00039424 f   libeay32:tasn_fre.obj
 0001:000287a0       long_new                   000397a0 f   libeay32:x_long.obj
 0001:000287b4       long_free                  000397b4 f   libeay32:x_long.obj
 0001:000287c0       long_i2c                   000397c0 f   libeay32:x_long.obj
 0001:00028878       long_c2i                   00039878 f   libeay32:x_long.obj
 0001:0002896c       long_print                 0003996c f   libeay32:x_long.obj
 0001:0002a3fc       ec_pre_comp_dup            0003b3fc f   libeay32:ec_mult.obj
 0001:0002a438       ec_pre_comp_free           0003b438 f   libeay32:ec_mult.obj
 0001:0002a4b4       ec_pre_comp_clear_free     0003b4b4 f   libeay32:ec_mult.obj
 0001:0002a548       compute_wNAF               0003b548 f   libeay32:ec_mult.obj
 0001:0002b8fc       bnrand                     0003c8fc f   libeay32:bn_rand.obj
 0001:0002bb64       bn_rand_range              0003cb64 f   libeay32:bn_rand.obj
 0001:0002bf28       ecdsa_sign_setup           0003cf28 f   libeay32:ecs_ossl.obj
 0001:0002c310       ecdsa_do_sign              0003d310 f   libeay32:ecs_ossl.obj
 0001:0002c6f8       ecdsa_do_verify            0003d6f8 f   libeay32:ecs_ossl.obj
 0001:0002cc04       PKCS7_adb                  0003dc04 f   libeay32:pk7_asn1.obj
 0001:0002cc10       pk7_cb                     0003dc10 f   libeay32:pk7_asn1.obj
 0001:0002ccac       si_cb                      0003dcac f   libeay32:pk7_asn1.obj
 0001:0002ccf0       ri_cb                      0003dcf0 f   libeay32:pk7_asn1.obj
 0001:0002cd64       x509_cb                    0003dd64 f   libeay32:x_x509.obj
 0001:0002ce90       crl_set_issuers            0003de90 f   libeay32:x_crl.obj
 0001:0002d01c       setup_idp                  0003e01c f   libeay32:x_crl.obj
 0001:0002d120       X509_REVOKED_cmp           0003e120 f   libeay32:x_crl.obj
 0001:0002d140       def_crl_verify             0003e140 f   libeay32:x_crl.obj
 0001:0002d174       def_crl_lookup             0003e174 f   libeay32:x_crl.obj
 0001:0002d300       crl_inf_cb                 0003e300 f   libeay32:x_crl.obj
 0001:0002d33c       crl_cb                     0003e33c f   libeay32:x_crl.obj
 0001:0002d750       x509_name_ex_new           0003e750 f   libeay32:x_name.obj
 0001:0002d804       x509_name_ex_free          0003e804 f   libeay32:x_name.obj
 0001:0002d85c       local_sk_X509_NAME_ENTRY_free 0003e85c f   libeay32:x_name.obj
 0001:0002d86c       local_sk_X509_NAME_ENTRY_pop_free 0003e86c f   libeay32:x_name.obj
 0001:0002d884       x509_name_encode           0003e884 f   libeay32:x_name.obj
 0001:0002d9ec       x509_name_ex_print         0003e9ec f   libeay32:x_name.obj
 0001:0002da18       asn1_string_canon          0003ea18 f   libeay32:x_name.obj
 0001:0002db84       i2d_name_canon             0003eb84 f   libeay32:x_name.obj
 0001:0002dc10       x509_name_canon            0003ec10 f   libeay32:x_name.obj
 0001:0002dd94       x509_name_ex_d2i           0003ed94 f   libeay32:x_name.obj
 0001:0002df50       x509_name_ex_i2d           0003ef50 f   libeay32:x_name.obj
 0001:0002dffc       cms_si_cb                  0003effc f   libeay32:cms_asn1.obj
 0001:0002e110       cms_ri_cb                  0003f110 f   libeay32:cms_asn1.obj
 0001:0002e1e0       CMS_ContentInfo_adb        0003f1e0 f   libeay32:cms_asn1.obj
 0001:0002e1ec       cms_cb                     0003f1ec f   libeay32:cms_asn1.obj
 0001:0002e334       nid_cmp_BSEARCH_CMP_FN     0003f334 f   libeay32:v3_purp.obj
 0001:0002e3a0       setup_crldp                0003f3a0 f   libeay32:v3_purp.obj
 0001:0002e4d4       x509v3_cache_extensions    0003f4d4 f   libeay32:v3_purp.obj
 0001:0002e9b8       check_ca                   0003f9b8 f   libeay32:v3_purp.obj
 0001:0002ea20       check_purpose_ssl_client   0003fa20 f   libeay32:v3_purp.obj
 0001:0002eab0       check_purpose_ssl_server   0003fab0 f   libeay32:v3_purp.obj
 0001:0002eb40       check_purpose_ns_ssl_server 0003fb40 f   libeay32:v3_purp.obj
 0001:0002eb80       purpose_smime              0003fb80 f   libeay32:v3_purp.obj
 0001:0002ec0c       check_purpose_smime_sign   0003fc0c f   libeay32:v3_purp.obj
 0001:0002ec54       check_purpose_smime_encrypt 0003fc54 f   libeay32:v3_purp.obj
 0001:0002ec9c       check_purpose_crl_sign     0003fc9c f   libeay32:v3_purp.obj
 0001:0002ecf0       ocsp_helper                0003fcf0 f   libeay32:v3_purp.obj
 0001:0002ed18       check_purpose_timestamp_sign 0003fd18 f   libeay32:v3_purp.obj
 0001:0002edb4       no_check                   0003fdb4 f   libeay32:v3_purp.obj
 0001:0002f7bc       dsa_do_sign                000407bc f   libeay32:dsa_ossl.obj
 0001:0002fa0c       dsa_sign_setup             00040a0c f   libeay32:dsa_ossl.obj
 0001:0002fca8       dsa_do_verify              00040ca8 f   libeay32:dsa_ossl.obj
 0001:0002ffc0       dsa_init                   00040fc0 f   libeay32:dsa_ossl.obj
 0001:0002ffd8       dsa_finish                 00040fd8 f   libeay32:dsa_ossl.obj
 0001:00030034       bn_new                     00041034 f   libeay32:x_bignum.obj
 0001:0003005c       bn_free                    0004105c f   libeay32:x_bignum.obj
 0001:00030098       bn_i2c                     00041098 f   libeay32:x_bignum.obj
 0001:00030108       bn_c2i                     00041108 f   libeay32:x_bignum.obj
 0001:00030d88       BN_from_montgomery_word    00041d88 f   libeay32:bn_mont.obj
 0001:00031e60       send_bio_chars             00042e60 f   libeay32:a_strex.obj
 0001:00031e90       do_esc_char                00042e90 f   libeay32:a_strex.obj
 0001:0003207c       do_buf                     0004307c f   libeay32:a_strex.obj
 0001:00032228       do_hex_dump                00043228 f   libeay32:a_strex.obj
 0001:000322b4       do_dump                    000432b4 f   libeay32:a_strex.obj
 0001:000323a0       do_print_ex                000433a0 f   libeay32:a_strex.obj
 0001:00032570       do_indent                  00043570 f   libeay32:a_strex.obj
 0001:000325d0       do_name_ex                 000435d0 f   libeay32:a_strex.obj
 0001:00033098       euclid                     00044098 f   libeay32:bn_gcd.obj
 0001:000331c4       BN_mod_inverse_no_branch   000441c4 f   libeay32:bn_gcd.obj
 0001:0003409c       RSA_eay_public_encrypt     0004509c f   libeay32:rsa_eay.obj
 0001:000343ec       rsa_get_blinding           000453ec f   libeay32:rsa_eay.obj
 0001:0003455c       rsa_blinding_convert       0004555c f   libeay32:rsa_eay.obj
 0001:000345e4       RSA_eay_private_encrypt    000455e4 f   libeay32:rsa_eay.obj
 0001:00034a50       RSA_eay_private_decrypt    00045a50 f   libeay32:rsa_eay.obj
 0001:00034ec0       RSA_eay_public_decrypt     00045ec0 f   libeay32:rsa_eay.obj
 0001:00035238       RSA_eay_mod_exp            00046238 f   libeay32:rsa_eay.obj
 0001:00035854       RSA_eay_init               00046854 f   libeay32:rsa_eay.obj
 0001:0003586c       RSA_eay_finish             0004686c f   libeay32:rsa_eay.obj
 0001:0003626c       kek_unwrap_key             0004726c f   libeay32:cms_pwri.obj
 0001:000363f0       kek_wrap_key               000473f0 f   libeay32:cms_pwri.obj
 0001:000370d8       i2v_AUTHORITY_INFO_ACCESS  000480d8 f   libeay32:v3_info.obj
 0001:00037214       v2i_AUTHORITY_INFO_ACCESS  00048214 f   libeay32:v3_info.obj
 0001:0003768c       ext_cmp_BSEARCH_CMP_FN     0004868c f   libeay32:v3_lib.obj
 0001:00037920       ecdh_data_new              00048920 f   libeay32:ech_lib.obj
 0001:00037a14       ecdh_data_dup              00048a14 f   libeay32:ech_lib.obj
 0001:00037a34       ecdh_data_free             00048a34 f   libeay32:ech_lib.obj
 0001:00037b6c       witness                    00048b6c f   libeay32:bn_prime.obj
 0001:00037c78       probable_prime_dh          00048c78 f   libeay32:bn_prime.obj
 0001:00037d9c       probable_prime_dh_safe     00048d9c f   libeay32:bn_prime.obj
 0001:00039e90       gf2m_Mdouble               0004ae90 f   libeay32:ec2_mult.obj
 0001:00039fec       gf2m_Madd                  0004afec f   libeay32:ec2_mult.obj
 0001:0003a164       gf2m_Mxy                   0004b164 f   libeay32:ec2_mult.obj
 0001:0003a510       ec_GF2m_montgomery_point_multiply 0004b510 f   libeay32:ec2_mult.obj
 0001:0003aaac       bn_GF2m_mul_1x1            0004baac f   libeay32:bn_gf2m.obj
 0001:0003dc9c       PKCS7_get_octet_string     0004ec9c f   libeay32:pk7_doit.obj
 0001:0003dcfc       PKCS7_bio_add_digest       0004ecfc f   libeay32:pk7_doit.obj
 0001:0003ddf0       pkcs7_encode_rinfo         0004edf0 f   libeay32:pk7_doit.obj
 0001:0003e3b0       PKCS7_find_digest          0004f3b0 f   libeay32:pk7_doit.obj
 0001:0003e634       get_attribute              0004f634 f   libeay32:pk7_doit.obj
 0001:0003e6dc       add_attribute              0004f6dc f   libeay32:pk7_doit.obj
 0001:0003e7f8       do_pkcs7_signed_attrib     0004f7f8 f   libeay32:pk7_doit.obj
 0001:0003ed64       v2i_NAME_CONSTRAINTS       0004fd64 f   libeay32:v3_ncons.obj
 0001:0003ef18       do_i2r_name_constraints    0004ff18 f   libeay32:v3_ncons.obj
 0001:0003f0c8       i2r_NAME_CONSTRAINTS       000500c8 f   libeay32:v3_ncons.obj
 0001:0003f168       gnames_from_sectname       00050168 f   libeay32:v3_crld.obj
 0001:0003f21c       set_reasons                0005021c f   libeay32:v3_crld.obj
 0001:0003f324       print_reasons              00050324 f   libeay32:v3_crld.obj
 0001:0003f3fc       dpn_cb                     000503fc f   libeay32:v3_crld.obj
 0001:0003f4b8       print_gens                 000504b8 f   libeay32:v3_crld.obj
 0001:0003f540       print_distpoint            00050540 f   libeay32:v3_crld.obj
 0001:0003f5e8       i2r_idp                    000505e8 f   libeay32:v3_crld.obj
 0001:0003f718       i2r_crldp                  00050718 f   libeay32:v3_crld.obj
 0001:0003f8ac       set_dist_point_name        000508ac f   libeay32:v3_crld.obj
 0001:0003fa98       crldp_from_section         00050a98 f   libeay32:v3_crld.obj
 0001:0003fb84       v2i_crld                   00050b84 f   libeay32:v3_crld.obj
 0001:0003fd44       v2i_idp                    00050d44 f   libeay32:v3_crld.obj
 0001:0004027c       init                       0005127c f   libeay32:m_md5.obj
 0001:00040290       update                     00051290 f   libeay32:m_md5.obj
 0001:000402a4       final                      000512a4 f   libeay32:m_md5.obj
 0001:00040500       i2v_BASIC_CONSTRAINTS      00051500 f   libeay32:v3_bcons.obj
 0001:00040544       v2i_BASIC_CONSTRAINTS      00051544 f   libeay32:v3_bcons.obj
 0001:00040cd8       julian_to_date             00051cd8 f   libeay32:o_time.obj
 0001:0004151c       trust_compat               0005251c f   libeay32:x509_trs.obj
 0001:00041550       obj_trust                  00052550 f   libeay32:x509_trs.obj
 0001:00041620       trust_1oidany              00052620 f   libeay32:x509_trs.obj
 0001:0004168c       trust_1oid                 0005268c f   libeay32:x509_trs.obj
 0001:000416c4       md_new                     000526c4 f   libeay32:bio_md.obj
 0001:000416f8       md_free                    000526f8 f   libeay32:bio_md.obj
 0001:00041730       md_read                    00052730 f   libeay32:bio_md.obj
 0001:000417c0       md_write                   000527c0 f   libeay32:bio_md.obj
 0001:00041870       md_ctrl                    00052870 f   libeay32:bio_md.obj
 0001:000419bc       md_callback_ctrl           000529bc f   libeay32:bio_md.obj
 0001:000419e4       md_gets                    000529e4 f   libeay32:bio_md.obj
 0001:00041ac0       mem_new                    00052ac0 f   libeay32:bss_mem.obj
 0001:00041afc       mem_free                   00052afc f   libeay32:bss_mem.obj
 0001:00041b58       mem_read                   00052b58 f   libeay32:bss_mem.obj
 0001:00041c0c       mem_write                  00052c0c f   libeay32:bss_mem.obj
 0001:00041cc4       mem_ctrl                   00052cc4 f   libeay32:bss_mem.obj
 0001:00041e04       mem_gets                   00052e04 f   libeay32:bss_mem.obj
 0001:00041e90       mem_puts                   00052e90 f   libeay32:bss_mem.obj
 0001:00041ec8       null_new                   00052ec8 f   libeay32:bss_null.obj
 0001:00041ee4       null_free                  00052ee4 f   libeay32:bss_null.obj
 0001:00041ef4       null_read                  00052ef4 f   libeay32:bss_null.obj
 0001:00041efc       null_write                 00052efc f   libeay32:bss_null.obj
 0001:00041f04       null_ctrl                  00052f04 f   libeay32:bss_null.obj
 0001:00041f44       null_gets                  00052f44 f   libeay32:bss_null.obj
 0001:00041f4c       null_puts                  00052f4c f   libeay32:bss_null.obj
 0001:00042c98       traverse_string            00053c98 f   libeay32:a_mbstr.obj
 0001:00042d98       in_utf8                    00053d98 f   libeay32:a_mbstr.obj
 0001:00042dac       out_utf8                   00053dac f   libeay32:a_mbstr.obj
 0001:00042de0       cpy_asc                    00053de0 f   libeay32:a_mbstr.obj
 0001:00042e00       cpy_bmp                    00053e00 f   libeay32:a_mbstr.obj
 0001:00042e30       cpy_univ                   00053e30 f   libeay32:a_mbstr.obj
 0001:00042e70       cpy_utf8                   00053e70 f   libeay32:a_mbstr.obj
 0001:00042ea4       type_str                   00053ea4 f   libeay32:a_mbstr.obj
 0001:00043bb0       enc_new                    00054bb0 f   libeay32:bio_enc.obj
 0001:00043c1c       enc_free                   00054c1c f   libeay32:bio_enc.obj
 0001:00043c70       enc_read                   00054c70 f   libeay32:bio_enc.obj
 0001:00043e10       enc_write                  00054e10 f   libeay32:bio_enc.obj
 0001:00043f58       enc_ctrl                   00054f58 f   libeay32:bio_enc.obj
 0001:00044154       enc_callback_ctrl          00055154 f   libeay32:bio_enc.obj
 0001:00045048       table_cmp_BSEARCH_CMP_FN   00056048 f   libeay32:a_strnid.obj
 0001:0004550c       copy_issuer                0005650c f   libeay32:v3_alt.obj
 0001:0004563c       copy_email                 0005663c f   libeay32:v3_alt.obj
 0001:000457d0       do_othername               000567d0 f   libeay32:v3_alt.obj
 0001:000458ac       do_dirname                 000568ac f   libeay32:v3_alt.obj
 0001:00045e08       v2i_issuer_alt             00056e08 f   libeay32:v3_alt.obj
 0001:00045f2c       v2i_subject_alt            00056f2c f   libeay32:v3_alt.obj
 0001:000464b0       s2i_asn1_int               000574b0 f   libeay32:v3_int.obj
 0001:000464f4       i2v_POLICY_MAPPINGS        000574f4 f   libeay32:v3_pmaps.obj
 0001:00046580       v2i_POLICY_MAPPINGS        00057580 f   libeay32:v3_pmaps.obj
 0001:00046760       i2r_pci                    00057760 f   libeay32:v3_pci.obj
 0001:00046840       process_pci_value          00057840 f   libeay32:v3_pci.obj
 0001:00046f70       r2i_pci                    00057f70 f   libeay32:v3_pci.obj
 0001:000472b8       i2r_ocsp_crlid             000582b8 f   libeay32:v3_ocsp.obj
 0001:000473f0       i2r_ocsp_acutoff           000583f0 f   libeay32:v3_ocsp.obj
 0001:00047450       i2r_object                 00058450 f   libeay32:v3_ocsp.obj
 0001:000474b0       ocsp_nonce_new             000584b0 f   libeay32:v3_ocsp.obj
 0001:000474c0       i2d_ocsp_nonce             000584c0 f   libeay32:v3_ocsp.obj
 0001:000474fc       d2i_ocsp_nonce             000584fc f   libeay32:v3_ocsp.obj
 0001:000475b0       ocsp_nonce_free            000585b0 f   libeay32:v3_ocsp.obj
 0001:000475c0       i2r_ocsp_nonce             000585c0 f   libeay32:v3_ocsp.obj
 0001:00047624       i2r_ocsp_nocheck           00058624 f   libeay32:v3_ocsp.obj
 0001:0004762c       s2i_ocsp_nocheck           0005862c f   libeay32:v3_ocsp.obj
 0001:0004763c       i2r_ocsp_serviceloc        0005863c f   libeay32:v3_ocsp.obj
 0001:0004774c       i2v_POLICY_CONSTRAINTS     0005874c f   libeay32:v3_pcons.obj
 0001:00047790       v2i_POLICY_CONSTRAINTS     00058790 f   libeay32:v3_pcons.obj
 0001:0004790c       i2v_EXTENDED_KEY_USAGE     0005890c f   libeay32:v3_extku.obj
 0001:00047984       v2i_EXTENDED_KEY_USAGE     00058984 f   libeay32:v3_extku.obj
 0001:00047ab8       sxnet_i2r                  00058ab8 f   libeay32:v3_sxnet.obj
 0001:00047e0c       sxnet_v2i                  00058e0c f   libeay32:v3_sxnet.obj
 0001:00047ee8       i2v_AUTHORITY_KEYID        00058ee8 f   libeay32:v3_akey.obj
 0001:00047fa0       v2i_AUTHORITY_KEYID        00058fa0 f   libeay32:v3_akey.obj
 0001:000482b0       POLICYQUALINFO_adb         000592b0 f   libeay32:v3_cpols.obj
 0001:000482f8       nref_nos                   000592f8 f   libeay32:v3_cpols.obj
 0001:000483d4       notice_section             000593d4 f   libeay32:v3_cpols.obj
 0001:000486b8       print_qualifiers           000596b8 f   libeay32:v3_cpols.obj
 0001:000488a8       policy_section             000598a8 f   libeay32:v3_cpols.obj
 0001:00048c14       i2r_certpol                00059c14 f   libeay32:v3_cpols.obj
 0001:00048cb8       r2i_certpol                00059cb8 f   libeay32:v3_cpols.obj
 0001:00048f8c       i2r_PKEY_USAGE_PERIOD      00059f8c f   libeay32:v3_pku.obj
 0001:000492c0       s2i_skey_id                0005a2c0 f   libeay32:v3_skey.obj
 0001:00049444       i2s_ASN1_IA5STRING         0005a444 f   libeay32:v3_ia5.obj
 0001:000494cc       s2i_ASN1_IA5STRING         0005a4cc f   libeay32:v3_ia5.obj
 0001:00049600       nconf_get_string           0005a600 f   libeay32:v3_conf.obj
 0001:00049610       nconf_get_section          0005a610 f   libeay32:v3_conf.obj
 0001:00049620       conf_lhash_get_string      0005a620 f   libeay32:v3_conf.obj
 0001:00049630       conf_lhash_get_section     0005a630 f   libeay32:v3_conf.obj
 0001:00049640       rinf_cb                    0005a640 f   libeay32:x_req.obj
 0001:0004968c       ecdh_compute_key           0005a68c f   libeay32:ech_ossl.obj
 0001:0004d0e0       nist_cp_bn_0               0005e0e0 f   libeay32:bn_nist.obj
 0001:0004f414       parse_tagging              00060414 f   libeay32:asn1_gen.obj
 0001:0004f554       append_exp                 00060554 f   libeay32:asn1_gen.obj
 0001:0004f630       bitstr_cb                  00060630 f   libeay32:asn1_gen.obj
 0001:0004f6fc       asn1_cb                    000606fc f   libeay32:asn1_gen.obj
 0001:0004fb44       asn1_str2type              00060b44 f   libeay32:asn1_gen.obj
 0001:00050360       asn1_multi                 00061360 f   libeay32:asn1_gen.obj
 0001:000504c0       def_create                 000614c0 f   libeay32:conf_def.obj
 0001:00050514       def_init_default           00061514 f   libeay32:conf_def.obj
 0001:0005053c       def_init_WIN32             0006153c f   libeay32:conf_def.obj
 0001:00050564       def_destroy_data           00061564 f   libeay32:conf_def.obj
 0001:00050588       str_copy                   00061588 f   libeay32:conf_def.obj
 0001:00050934       dump_value_LHASH_DOALL_ARG 00061934 f   libeay32:conf_def.obj
 0001:00050988       def_dump                   00061988 f   libeay32:conf_def.obj
 0001:000509ac       def_is_number              000619ac f   libeay32:conf_def.obj
 0001:000509c4       def_to_int                 000619c4 f   libeay32:conf_def.obj
 0001:000509cc       def_destroy                000619cc f   libeay32:conf_def.obj
 0001:00050a00       clear_comments             00061a00 f   libeay32:conf_def.obj
 0001:00050b4c       def_load_bio               00061b4c f   libeay32:conf_def.obj
 0001:00051384       def_load                   00062384 f   libeay32:conf_def.obj
 0001:000515cc       conf_value_LHASH_HASH      000625cc f   libeay32:conf_api.obj
 0001:000515f4       conf_value_LHASH_COMP      000625f4 f   libeay32:conf_api.obj
 0001:00051798       value_free_hash_LHASH_DOALL_ARG 00062798 f   libeay32:conf_api.obj
 0001:000517bc       value_free_stack_LHASH_DOALL 000627bc f   libeay32:conf_api.obj
 0001:000520f4       asn1_bio_free              000630f4 f   libeay32:bio_asn1.obj
 0001:00052144       asn1_bio_flush_ex          00063144 f   libeay32:bio_asn1.obj
 0001:000521e8       asn1_bio_read              000631e8 f   libeay32:bio_asn1.obj
 0001:00052210       asn1_bio_gets              00063210 f   libeay32:bio_asn1.obj
 0001:00052238       asn1_bio_callback_ctrl     00063238 f   libeay32:bio_asn1.obj
 0001:00052260       asn1_bio_ctrl              00063260 f   libeay32:bio_asn1.obj
 0001:00052408       asn1_bio_new               00063408 f   libeay32:bio_asn1.obj
 0001:000524a4       asn1_bio_write             000634a4 f   libeay32:bio_asn1.obj
 0001:000526d8       asn1_bio_puts              000636d8 f   libeay32:bio_asn1.obj
 0001:00052704       b64_new                    00063704 f   libeay32:bio_b64.obj
 0001:00052774       b64_free                   00063774 f   libeay32:bio_b64.obj
 0001:000527ac       b64_read                   000637ac f   libeay32:bio_b64.obj
 0001:00052c50       b64_write                  00063c50 f   libeay32:bio_b64.obj
 0001:00053090       b64_ctrl                   00064090 f   libeay32:bio_b64.obj
 0001:000532a8       b64_callback_ctrl          000642a8 f   libeay32:bio_b64.obj
 0001:000532d0       b64_puts                   000642d0 f   libeay32:bio_b64.obj
 0001:000532fc       buffer_new                 000642fc f   libeay32:bf_buff.obj
 0001:000533b0       buffer_free                000643b0 f   libeay32:bf_buff.obj
 0001:0005340c       buffer_read                0006440c f   libeay32:bf_buff.obj
 0001:0005354c       buffer_write               0006454c f   libeay32:bf_buff.obj
 0001:0005370c       buffer_ctrl                0006470c f   libeay32:bf_buff.obj
 0001:00053ae4       buffer_callback_ctrl       00064ae4 f   libeay32:bf_buff.obj
 0001:00053b0c       buffer_gets                00064b0c f   libeay32:bf_buff.obj
 0001:00053c14       buffer_puts                00064c14 f   libeay32:bf_buff.obj
 0001:00053c40       LoadLibraryA               00064c40 f   libeay32:dso_win32.obj
 0001:00053ce0       win32_load                 00064ce0 f   libeay32:dso_win32.obj
 0001:00053e1c       win32_unload               00064e1c f   libeay32:dso_win32.obj
 0001:00053ef0       win32_bind_var             00064ef0 f   libeay32:dso_win32.obj
 0001:00054004       win32_bind_func            00065004 f   libeay32:dso_win32.obj
 0001:00054118       win32_splitter             00065118 f   libeay32:dso_win32.obj
 0001:0005434c       win32_name_converter       0006534c f   libeay32:dso_win32.obj
 0001:00054434       win32_pathbyaddr           00065434 f   libeay32:dso_win32.obj
 0001:0005465c       win32_globallookup         0006565c f   libeay32:dso_win32.obj
 0001:000547f4       win32_joiner               000657f4 f   libeay32:dso_win32.obj
 0001:00054b2c       win32_merger               00065b2c f   libeay32:dso_win32.obj
 0001:00054d74       PKCS12_BAGS_adb            00065d74 f   libeay32:p12_asn.obj
 0001:00054d8c       PKCS12_SAFEBAG_adb         00065d8c f   libeay32:p12_asn.obj
 0001:00054e48       write_string               00065e48 f   libeay32:ui_openssl.obj
 0001:00054e90       open_console               00065e90 f   libeay32:ui_openssl.obj
 0001:00054f1c       close_console              00065f1c f   libeay32:ui_openssl.obj
 0001:00054f80       read_string                00065f80 f   libeay32:ui_openssl.obj
 0001:00055114       cmp64                      00066114 f   wcecompatex:time.obj
 0001:00055160       topBit                     00066160 f   wcecompatex:time.obj
 0001:000552ec       div64                      000662ec f   wcecompatex:time.obj
 0001:00055eb4       doexit                     00066eb4 f   corelibc:crt0dat.obj
 0001:0005600c       ?getCmdLineArg@@YA?AW4ArgType@@PAPA_WPA_WHPAURedirArg@@PA_N@Z 0006700c f   wcecompatex:args.obj
 0001:00056338       ?qsort_stricmp@@YAHPBX0@Z  00067338 f   wcecompatex:args.obj
