 hmactest

 Timestamp is 511c9ae2 (Thu Feb 14 17:05:54 2013)

 Preferred load address is 00010000

 Start         Length     Name                   Class
 0001:00000000 0005436cH .text                   CODE
 0002:00000000 00023678H .rdata                  DATA
 0002:00023678 00000014H .xdata                  DATA
 0002:0002368c 00000014H .idata$2                DATA
 0002:000236a0 00000014H .idata$3                DATA
 0002:000236b4 00000148H .idata$4                DATA
 0002:000237fc 0000000cH .idata$6                DATA
 0002:00023808 00000000H .edata                  DATA
 0003:00000000 00000148H .idata$5                DATA
 0003:00000148 00000004H .CRT$XCA                DATA
 0003:0000014c 00000004H .CRT$XCZ                DATA
 0003:00000150 00000004H .CRT$XIA                DATA
 0003:00000154 00000004H .CRT$XIZ                DATA
 0003:00000158 00000004H .CRT$XPA                DATA
 0003:0000015c 00000004H .CRT$XPZ                DATA
 0003:00000160 00000004H .CRT$XTA                DATA
 0003:00000164 00000004H .CRT$XTZ                DATA
 0003:00000168 00001198H .data                   DATA
 0003:00001300 00002061H .bss                    DATA
 0004:00000000 00003500H .pdata                  DATA

  Address         Publics by Value              Rva+Base     Lib:Object

 0000:00000000       ___safe_se_handler_count   00000000     <absolute>
 0000:00000000       ___safe_se_handler_table   00000000     <absolute>
 0001:00000000       main                       00011000 f   hmactest.obj
 0001:000000e8       HMAC_Init_ex               000110e8 f   libeay32:hmac.obj
 0001:000002e0       HMAC_Update                000112e0 f   libeay32:hmac.obj
 0001:000002f4       HMAC_Final                 000112f4 f   libeay32:hmac.obj
 0001:0000037c       HMAC_CTX_init              0001137c f   libeay32:hmac.obj
 0001:000003a4       HMAC_CTX_copy              000113a4 f   libeay32:hmac.obj
 0001:00000424       HMAC_CTX_cleanup           00011424 f   libeay32:hmac.obj
 0001:0000045c       HMAC_CTX_set_flags         0001145c f   libeay32:hmac.obj
 0001:00000490       HMAC_Init                  00011490 f   libeay32:hmac.obj
 0001:000004f4       HMAC                       000114f4 f   libeay32:hmac.obj
 0001:000005e4       EVP_md5                    000115e4 f   libeay32:m_md5.obj
 0001:000005f0       EVP_MD_CTX_init            000115f0 f   libeay32:digest.obj
 0001:00000608       EVP_MD_CTX_create          00011608 f   libeay32:digest.obj
 0001:00000640       EVP_DigestInit_ex          00011640 f   libeay32:digest.obj
 0001:00000858       EVP_DigestUpdate           00011858 f   libeay32:digest.obj
 0001:00000870       EVP_DigestFinal_ex         00011870 f   libeay32:digest.obj
 0001:0000091c       EVP_MD_CTX_cleanup         0001191c f   libeay32:digest.obj
 0001:000009e8       EVP_MD_CTX_copy_ex         000119e8 f   libeay32:digest.obj
 0001:00000b98       EVP_Digest                 00011b98 f   libeay32:digest.obj
 0001:00000c3c       EVP_MD_CTX_destroy         00011c3c f   libeay32:digest.obj
 0001:00000c58       EVP_MD_CTX_copy            00011c58 f   libeay32:digest.obj
 0001:00000c84       CRYPTO_destroy_dynlockid   00011c84 f   libeay32:cryptlib.obj
 0001:00000d88       CRYPTO_get_dynlock_value   00011d88 f   libeay32:cryptlib.obj
 0001:00000e24       CRYPTO_THREADID_current    00011e24 f   libeay32:cryptlib.obj
 0001:00000ea0       CRYPTO_THREADID_cmp        00011ea0 f   libeay32:cryptlib.obj
 0001:00000eb4       CRYPTO_THREADID_cpy        00011eb4 f   libeay32:cryptlib.obj
 0001:00000ec8       CRYPTO_THREADID_hash       00011ec8 f   libeay32:cryptlib.obj
 0001:00000ed0       OPENSSL_showfatal          00011ed0 f   libeay32:cryptlib.obj
 0001:00001058       OpenSSLDie                 00012058 f   libeay32:cryptlib.obj
 0001:0000108c       CRYPTO_memcmp              0001208c f   libeay32:cryptlib.obj
 0001:000010c8       CRYPTO_lock                000120c8 f   libeay32:cryptlib.obj
 0001:00001194       CRYPTO_add_lock            00012194 f   libeay32:cryptlib.obj
 0001:00001220       EVP_CIPHER_CTX_block_size  00012220 f   libeay32:evp_lib.obj
 0001:0000122c       EVP_Cipher                 0001222c f   libeay32:evp_lib.obj
 0001:00001248       EVP_CIPHER_CTX_cipher      00012248 f   libeay32:evp_lib.obj
 0001:00001250       EVP_CIPHER_CTX_flags       00012250 f   libeay32:evp_lib.obj
 0001:0000125c       EVP_CIPHER_iv_length       0001225c f   libeay32:evp_lib.obj
 0001:00001264       EVP_CIPHER_CTX_iv_length   00012264 f   libeay32:evp_lib.obj
 0001:00001270       EVP_CIPHER_key_length      00012270 f   libeay32:evp_lib.obj
 0001:00001278       EVP_CIPHER_CTX_key_length  00012278 f   libeay32:evp_lib.obj
 0001:00001280       EVP_MD_block_size          00012280 f   libeay32:evp_lib.obj
 0001:00001288       EVP_MD_type                00012288 f   libeay32:evp_lib.obj
 0001:00001290       EVP_MD_pkey_type           00012290 f   libeay32:evp_lib.obj
 0001:00001298       EVP_MD_size                00012298 f   libeay32:evp_lib.obj
 0001:000012e4       EVP_MD_CTX_md              000122e4 f   libeay32:evp_lib.obj
 0001:000012f4       EVP_MD_CTX_set_flags       000122f4 f   libeay32:evp_lib.obj
 0001:00001304       EVP_MD_CTX_clear_flags     00012304 f   libeay32:evp_lib.obj
 0001:00001314       EVP_MD_CTX_test_flags      00012314 f   libeay32:evp_lib.obj
 0001:00001320       EVP_CIPHER_get_asn1_iv     00012320 f   libeay32:evp_lib.obj
 0001:00001398       EVP_CIPHER_set_asn1_iv     00012398 f   libeay32:evp_lib.obj
 0001:000013e8       EVP_CIPHER_type            000123e8 f   libeay32:evp_lib.obj
 0001:00001518       EVP_CIPHER_param_to_asn1   00012518 f   libeay32:evp_lib.obj
 0001:00001560       EVP_CIPHER_asn1_to_param   00012560 f   libeay32:evp_lib.obj
 0001:000015a8       RSA_sign                   000125a8 f   libeay32:rsa_sign.obj
 0001:000017ec       int_rsa_verify             000127ec f   libeay32:rsa_sign.obj
 0001:00001bd8       RSA_verify                 00012bd8 f   libeay32:rsa_sign.obj
 0001:00001c50       MD5_Init                   00012c50 f   libeay32:md5_dgst.obj
 0001:00001ca0       md5_block_data_order       00012ca0 f   libeay32:md5_dgst.obj
 0001:0000289c       MD5_Update                 0001389c f   libeay32:md5_dgst.obj
 0001:000029a4       MD5_Final                  000139a4 f   libeay32:md5_dgst.obj
 0001:00002b54       CRYPTO_free_locked         00013b54 f   libeay32:mem.obj
 0001:00002bb0       CRYPTO_malloc              00013bb0 f   libeay32:mem.obj
 0001:00002c90       CRYPTO_realloc             00013c90 f   libeay32:mem.obj
 0001:00002d78       CRYPTO_realloc_clean       00013d78 f   libeay32:mem.obj
 0001:00002e9c       CRYPTO_free                00013e9c f   libeay32:mem.obj
 0001:00002f10       EVP_PKEY_meth_find         00013f10 f   libeay32:pmeth_lib.obj
 0001:00002fa8       EVP_PKEY_meth_free         00013fa8 f   libeay32:pmeth_lib.obj
 0001:00002fc4       EVP_PKEY_CTX_free          00013fc4 f   libeay32:pmeth_lib.obj
 0001:0000302c       EVP_PKEY_CTX_ctrl          0001402c f   libeay32:pmeth_lib.obj
 0001:00003150       EVP_PKEY_CTX_get0_pkey     00014150 f   libeay32:pmeth_lib.obj
 0001:00003158       EVP_PKEY_CTX_new           00014158 f   libeay32:pmeth_lib.obj
 0001:000032d4       EVP_PKEY_CTX_dup           000142d4 f   libeay32:pmeth_lib.obj
 0001:00003410       ENGINE_get_digest_engine   00014410 f   libeay32:tb_digest.obj
 0001:0000342c       ENGINE_get_digest          0001442c f   libeay32:tb_digest.obj
 0001:00003b18       ERR_get_state              00014b18 f   libeay32:err.obj
 0001:00003c18       ERR_set_error_data         00014c18 f   libeay32:err.obj
 0001:00003c6c       ERR_add_error_vdata        00014c6c f   libeay32:err.obj
 0001:00003d40       ERR_set_mark               00014d40 f   libeay32:err.obj
 0001:00003d80       ERR_pop_to_mark            00014d80 f   libeay32:err.obj
 0001:00003f50       ERR_put_error              00014f50 f   libeay32:err.obj
 0001:00004044       ERR_clear_error            00015044 f   libeay32:err.obj
 0001:000040b0       ERR_add_error_data         000150b0 f   libeay32:err.obj
 0001:000040d0       ERR_peek_last_error        000150d0 f   libeay32:err.obj
 0001:000040fc       engine_unlocked_init       000150fc f   libeay32:eng_init.obj
 0001:00004154       engine_unlocked_finish     00015154 f   libeay32:eng_init.obj
 0001:00004218       ENGINE_init                00015218 f   libeay32:eng_init.obj
 0001:00004294       ENGINE_finish              00015294 f   libeay32:eng_init.obj
 0001:00004338       OPENSSL_cleanse            00015338 f   libeay32:mem_clr.obj
 0001:00004394       sk_set_cmp_func            00015394 f   libeay32:stack.obj
 0001:000043b0       sk_new                     000153b0 f   libeay32:stack.obj
 0001:00004438       sk_insert                  00015438 f   libeay32:stack.obj
 0001:00004510       sk_delete                  00015510 f   libeay32:stack.obj
 0001:0000457c       sk_push                    0001557c f   libeay32:stack.obj
 0001:00004590       sk_pop                     00015590 f   libeay32:stack.obj
 0001:000045c4       sk_free                    000155c4 f   libeay32:stack.obj
 0001:000045f0       sk_num                     000155f0 f   libeay32:stack.obj
 0001:00004600       sk_value                   00015600 f   libeay32:stack.obj
 0001:0000462c       sk_set                     0001562c f   libeay32:stack.obj
 0001:00004660       sk_sort                    00015660 f   libeay32:stack.obj
 0001:0000469c       sk_is_sorted               0001569c f   libeay32:stack.obj
 0001:000046ac       sk_new_null                000156ac f   libeay32:stack.obj
 0001:000046c0       sk_delete_ptr              000156c0 f   libeay32:stack.obj
 0001:000047d4       sk_find                    000157d4 f   libeay32:stack.obj
 0001:000047e8       sk_pop_free                000157e8 f   libeay32:stack.obj
 0001:00004850       BUF_strlcpy                00015850 f   libeay32:buf_str.obj
 0001:000048a0       BUF_strlcat                000158a0 f   libeay32:buf_str.obj
 0001:000048dc       BUF_strndup                000158dc f   libeay32:buf_str.obj
 0001:00004950       BUF_strdup                 00015950 f   libeay32:buf_str.obj
 0001:00004980       ASN1_TYPE_set_octetstring  00015980 f   libeay32:evp_asn1.obj
 0001:000049e0       ASN1_TYPE_get_octetstring  000159e0 f   libeay32:evp_asn1.obj
 0001:00004a54       a2d_ASN1_OBJECT            00015a54 f   libeay32:a_object.obj
 0001:00004e2c       i2t_ASN1_OBJECT            00015e2c f   libeay32:a_object.obj
 0001:00004e40       i2a_ASN1_OBJECT            00015e40 f   libeay32:a_object.obj
 0001:00004f1c       ASN1_OBJECT_new            00015f1c f   libeay32:a_object.obj
 0001:00004f98       ASN1_OBJECT_free           00015f98 f   libeay32:a_object.obj
 0001:00005018       c2i_ASN1_OBJECT            00016018 f   libeay32:a_object.obj
 0001:000051ac       d2i_ASN1_OBJECT            000161ac f   libeay32:a_object.obj
 0001:000052a8       OBJ_nid2obj                000162a8 f   libeay32:obj_dat.obj
 0001:00005388       OBJ_nid2sn                 00016388 f   libeay32:obj_dat.obj
 0001:0000546c       OBJ_nid2ln                 0001646c f   libeay32:obj_dat.obj
 0001:00005594       OBJ_bsearch_ex_            00016594 f   libeay32:obj_dat.obj
 0001:00005678       OBJ_bsearch_               00016678 f   libeay32:obj_dat.obj
 0001:000056a0       OBJ_obj2nid                000166a0 f   libeay32:obj_dat.obj
 0001:00005768       OBJ_obj2txt                00016768 f   libeay32:obj_dat.obj
 0001:00005a68       OBJ_ln2nid                 00016a68 f   libeay32:obj_dat.obj
 0001:00005b18       OBJ_sn2nid                 00016b18 f   libeay32:obj_dat.obj
 0001:00005bc8       OBJ_txt2obj                00016bc8 f   libeay32:obj_dat.obj
 0001:00005cbc       RSA_size                   00016cbc f   libeay32:rsa_crpt.obj
 0001:00005ce0       RSA_public_encrypt         00016ce0 f   libeay32:rsa_crpt.obj
 0001:00005d0c       RSA_private_encrypt        00016d0c f   libeay32:rsa_crpt.obj
 0001:00005d38       RSA_private_decrypt        00016d38 f   libeay32:rsa_crpt.obj
 0001:00005d64       RSA_public_decrypt         00016d64 f   libeay32:rsa_crpt.obj
 0001:00005e74       RSA_setup_blinding         00016e74 f   libeay32:rsa_crpt.obj
 0001:00006048       X509_SIG_it                00017048 f   libeay32:x_sig.obj
 0001:00006054       d2i_X509_SIG               00017054 f   libeay32:x_sig.obj
 0001:0000606c       i2d_X509_SIG               0001706c f   libeay32:x_sig.obj
 0001:00006084       X509_SIG_free              00017084 f   libeay32:x_sig.obj
 0001:0000609c       EVP_get_cipherbyname       0001709c f   libeay32:names.obj
 0001:000060b0       EVP_get_digestbyname       000170b0 f   libeay32:names.obj
 0001:000060c4       ASN1_TYPE_get              000170c4 f   libeay32:a_type.obj
 0001:000060e8       ASN1_TYPE_set              000170e8 f   libeay32:a_type.obj
 0001:00006154       ASN1_TYPE_set1             00017154 f   libeay32:a_type.obj
 0001:00008624       EVP_PKEY_bits              00019624 f   libeay32:p_lib.obj
 0001:00008664       EVP_PKEY_size              00019664 f   libeay32:p_lib.obj
 0001:000086a4       EVP_PKEY_missing_parameters 000196a4 f   libeay32:p_lib.obj
 0001:000086dc       EVP_PKEY_new               000196dc f   libeay32:p_lib.obj
 0001:00008758       EVP_PKEY_type              00019758 f   libeay32:p_lib.obj
 0001:00008794       EVP_PKEY_id                00019794 f   libeay32:p_lib.obj
 0001:0000879c       EVP_PKEY_get_default_digest_nid 0001979c f   libeay32:p_lib.obj
 0001:000087e0       EVP_PKEY_copy_parameters   000197e0 f   libeay32:p_lib.obj
 0001:000089cc       EVP_PKEY_set_type          000199cc f   libeay32:p_lib.obj
 0001:000089e4       EVP_PKEY_assign            000199e4 f   libeay32:p_lib.obj
 0001:00008a1c       EVP_PKEY_free              00019a1c f   libeay32:p_lib.obj
 0001:00008ac8       ENGINE_get_pkey_meth_engine 00019ac8 f   libeay32:tb_pkmeth.obj
 0001:00008ae4       engine_pkey_meths_free     00019ae4 f   libeay32:tb_pkmeth.obj
 0001:00008b64       ENGINE_get_pkey_meth       00019b64 f   libeay32:tb_pkmeth.obj
 0001:00008bc8       engine_table_select        00019bc8 f   libeay32:eng_table.obj
 0001:00008d54       engine_table_doall         00019d54 f   libeay32:eng_table.obj
 0001:00008d88       CRYPTO_mem_ctrl            00019d88 f   libeay32:mem_dbg.obj
 0001:00008efc       CRYPTO_is_mem_check_on     00019efc f   libeay32:mem_dbg.obj
 0001:00009078       CRYPTO_push_info_          0001a078 f   libeay32:mem_dbg.obj
 0001:00009148       CRYPTO_pop_info            0001a148 f   libeay32:mem_dbg.obj
 0001:00009188       lh_free                    0001a188 f   libeay32:lhash.obj
 0001:000091f0       lh_doall                   0001a1f0 f   libeay32:lhash.obj
 0001:00009244       lh_doall_arg               0001a244 f   libeay32:lhash.obj
 0001:000095a8       lh_strhash                 0001a5a8 f   libeay32:lhash.obj
 0001:00009614       lh_num_items               0001a614 f   libeay32:lhash.obj
 0001:00009624       lh_new                     0001a624 f   libeay32:lhash.obj
 0001:00009720       lh_insert                  0001a720 f   libeay32:lhash.obj
 0001:00009804       lh_delete                  0001a804 f   libeay32:lhash.obj
 0001:000098b0       lh_retrieve                0001a8b0 f   libeay32:lhash.obj
 0001:0000a998       BIO_vprintf                0001b998 f   libeay32:b_print.obj
 0001:0000aa60       BIO_vsnprintf              0001ba60 f   libeay32:b_print.obj
 0001:0000aac4       BIO_printf                 0001bac4 f   libeay32:b_print.obj
 0001:0000aae4       BIO_snprintf               0001bae4 f   libeay32:b_print.obj
 0001:0000ab04       engine_free_util           0001bb04 f   libeay32:eng_lib.obj
 0001:0000abc4       ENGINE_free                0001bbc4 f   libeay32:eng_lib.obj
 0001:0000ac94       ASN1_put_eoc               0001bc94 f   libeay32:asn1_lib.obj
 0001:0000acb4       ASN1_object_size           0001bcb4 f   libeay32:asn1_lib.obj
 0001:0000ad04       ASN1_STRING_set            0001bd04 f   libeay32:asn1_lib.obj
 0001:0000adf4       ASN1_STRING_set0           0001bdf4 f   libeay32:asn1_lib.obj
 0001:0000ae24       ASN1_STRING_type_new       0001be24 f   libeay32:asn1_lib.obj
 0001:0000ae90       ASN1_STRING_free           0001be90 f   libeay32:asn1_lib.obj
 0001:0000aec4       ASN1_STRING_cmp            0001bec4 f   libeay32:asn1_lib.obj
 0001:0000af04       ASN1_get_object            0001bf04 f   libeay32:asn1_lib.obj
 0001:0000b05c       ASN1_put_object            0001c05c f   libeay32:asn1_lib.obj
 0001:0000b170       ASN1_STRING_copy           0001c170 f   libeay32:asn1_lib.obj
 0001:0000b1bc       ASN1_STRING_new            0001c1bc f   libeay32:asn1_lib.obj
 0001:0000b1d0       ASN1_STRING_dup            0001c1d0 f   libeay32:asn1_lib.obj
 0001:0000b218       ASN1_INTEGER_it            0001c218 f   libeay32:tasn_typ.obj
 0001:0000b224       d2i_ASN1_INTEGER           0001c224 f   libeay32:tasn_typ.obj
 0001:0000b23c       i2d_ASN1_INTEGER           0001c23c f   libeay32:tasn_typ.obj
 0001:0000b254       ASN1_INTEGER_new           0001c254 f   libeay32:tasn_typ.obj
 0001:0000b26c       ASN1_INTEGER_free          0001c26c f   libeay32:tasn_typ.obj
 0001:0000b284       ASN1_ENUMERATED_it         0001c284 f   libeay32:tasn_typ.obj
 0001:0000b290       ASN1_ENUMERATED_free       0001c290 f   libeay32:tasn_typ.obj
 0001:0000b2a8       ASN1_BIT_STRING_it         0001c2a8 f   libeay32:tasn_typ.obj
 0001:0000b2b4       ASN1_BIT_STRING_new        0001c2b4 f   libeay32:tasn_typ.obj
 0001:0000b2cc       ASN1_BIT_STRING_free       0001c2cc f   libeay32:tasn_typ.obj
 0001:0000b2e4       ASN1_OCTET_STRING_it       0001c2e4 f   libeay32:tasn_typ.obj
 0001:0000b2f0       i2d_ASN1_OCTET_STRING      0001c2f0 f   libeay32:tasn_typ.obj
 0001:0000b308       ASN1_OCTET_STRING_new      0001c308 f   libeay32:tasn_typ.obj
 0001:0000b320       ASN1_OCTET_STRING_free     0001c320 f   libeay32:tasn_typ.obj
 0001:0000b338       ASN1_NULL_it               0001c338 f   libeay32:tasn_typ.obj
 0001:0000b344       ASN1_NULL_new              0001c344 f   libeay32:tasn_typ.obj
 0001:0000b35c       ASN1_OBJECT_it             0001c35c f   libeay32:tasn_typ.obj
 0001:0000b368       ASN1_UTF8STRING_it         0001c368 f   libeay32:tasn_typ.obj
 0001:0000b374       ASN1_IA5STRING_it          0001c374 f   libeay32:tasn_typ.obj
 0001:0000b380       ASN1_GENERALIZEDTIME_it    0001c380 f   libeay32:tasn_typ.obj
 0001:0000b38c       ASN1_ANY_it                0001c38c f   libeay32:tasn_typ.obj
 0001:0000b398       ASN1_SEQUENCE_it           0001c398 f   libeay32:tasn_typ.obj
 0001:0000b3a4       d2i_ASN1_TYPE              0001c3a4 f   libeay32:tasn_typ.obj
 0001:0000b3bc       i2d_ASN1_TYPE              0001c3bc f   libeay32:tasn_typ.obj
 0001:0000b3d4       ASN1_TYPE_new              0001c3d4 f   libeay32:tasn_typ.obj
 0001:0000b3ec       ASN1_TYPE_free             0001c3ec f   libeay32:tasn_typ.obj
 0001:0000b404       ASN1_PRINTABLE_it          0001c404 f   libeay32:tasn_typ.obj
 0001:0000b410       DISPLAYTEXT_it             0001c410 f   libeay32:tasn_typ.obj
 0001:0000b41c       DIRECTORYSTRING_it         0001c41c f   libeay32:tasn_typ.obj
 0001:0000b428       ASN1_BOOLEAN_it            0001c428 f   libeay32:tasn_typ.obj
 0001:0000b434       ASN1_FBOOLEAN_it           0001c434 f   libeay32:tasn_typ.obj
 0001:0000b440       ASN1_OCTET_STRING_NDEF_it  0001c440 f   libeay32:tasn_typ.obj
 0001:0000b44c       d2i_ASN1_SEQUENCE_ANY      0001c44c f   libeay32:tasn_typ.obj
 0001:0000b464       i2d_ASN1_SEQUENCE_ANY      0001c464 f   libeay32:tasn_typ.obj
 0001:0000b47c       i2d_ASN1_SET_ANY           0001c47c f   libeay32:tasn_typ.obj
 0001:0000b494       ASN1_INTEGER_cmp           0001c494 f   libeay32:a_int.obj
 0001:0000b4dc       i2c_ASN1_INTEGER           0001c4dc f   libeay32:a_int.obj
 0001:0000b630       c2i_ASN1_INTEGER           0001c630 f   libeay32:a_int.obj
 0001:0000b7f4       d2i_ASN1_UINTEGER          0001c7f4 f   libeay32:a_int.obj
 0001:0000b964       ASN1_INTEGER_set           0001c964 f   libeay32:a_int.obj
 0001:0000ba6c       ASN1_INTEGER_get           0001ca6c f   libeay32:a_int.obj
 0001:0000bb00       BN_to_ASN1_INTEGER         0001cb00 f   libeay32:a_int.obj
 0001:0000bc28       ASN1_INTEGER_to_BN         0001cc28 f   libeay32:a_int.obj
 0001:0000bca0       BN_value_one               0001cca0 f   libeay32:bn_lib.obj
 0001:0000bcac       BN_num_bits_word           0001ccac f   libeay32:bn_lib.obj
 0001:0000bcf0       BN_num_bits                0001ccf0 f   libeay32:bn_lib.obj
 0001:0000bd24       BN_clear_free              0001cd24 f   libeay32:bn_lib.obj
 0001:0000bd7c       BN_free                    0001cd7c f   libeay32:bn_lib.obj
 0001:0000bdd4       BN_init                    0001cdd4 f   libeay32:bn_lib.obj
 0001:0000bdec       BN_new                     0001cdec f   libeay32:bn_lib.obj
 0001:0000bfb0       bn_expand2                 0001cfb0 f   libeay32:bn_lib.obj
 0001:0000bffc       BN_copy                    0001cffc f   libeay32:bn_lib.obj
 0001:0000c0c4       BN_set_word                0001d0c4 f   libeay32:bn_lib.obj
 0001:0000c11c       BN_bin2bn                  0001d11c f   libeay32:bn_lib.obj
 0001:0000c218       BN_bn2bin                  0001d218 f   libeay32:bn_lib.obj
 0001:0000c274       BN_ucmp                    0001d274 f   libeay32:bn_lib.obj
 0001:0000c2e0       BN_cmp                     0001d2e0 f   libeay32:bn_lib.obj
 0001:0000c3a8       BN_set_bit                 0001d3a8 f   libeay32:bn_lib.obj
 0001:0000c444       BN_is_bit_set              0001d444 f   libeay32:bn_lib.obj
 0001:0000c484       BN_mask_bits               0001d484 f   libeay32:bn_lib.obj
 0001:0000c51c       BN_set_negative            0001d51c f   libeay32:bn_lib.obj
 0001:0000c53c       BN_dup                     0001d53c f   libeay32:bn_lib.obj
 0001:0000c580       BN_mod_word                0001d580 f   libeay32:bn_word.obj
 0001:0000c5e4       BN_div_word                0001d5e4 f   libeay32:bn_word.obj
 0001:0000c6ac       BN_add_word                0001d6ac f   libeay32:bn_word.obj
 0001:0000c7b8       BN_sub_word                0001d7b8 f   libeay32:bn_word.obj
 0001:0000c8bc       BN_mul_word                0001d8bc f   libeay32:bn_word.obj
 0001:0000c948       BIO_set                    0001d948 f   libeay32:bio_lib.obj
 0001:0000c9e8       BIO_free                   0001d9e8 f   libeay32:bio_lib.obj
 0001:0000caac       BIO_clear_flags            0001daac f   libeay32:bio_lib.obj
 0001:0000cabc       BIO_test_flags             0001dabc f   libeay32:bio_lib.obj
 0001:0000cac8       BIO_set_flags              0001dac8 f   libeay32:bio_lib.obj
 0001:0000cad8       BIO_read                   0001dad8 f   libeay32:bio_lib.obj
 0001:0000cc08       BIO_write                  0001dc08 f   libeay32:bio_lib.obj
 0001:0000cd3c       BIO_puts                   0001dd3c f   libeay32:bio_lib.obj
 0001:0000ce64       BIO_gets                   0001de64 f   libeay32:bio_lib.obj
 0001:0000cf8c       BIO_indent                 0001df8c f   libeay32:bio_lib.obj
 0001:0000cfe8       BIO_ctrl                   0001dfe8 f   libeay32:bio_lib.obj
 0001:0000d0e4       BIO_callback_ctrl          0001e0e4 f   libeay32:bio_lib.obj
 0001:0000d1e8       BIO_push                   0001e1e8 f   libeay32:bio_lib.obj
 0001:0000d23c       BIO_find_type              0001e23c f   libeay32:bio_lib.obj
 0001:0000d284       BIO_next                   0001e284 f   libeay32:bio_lib.obj
 0001:0000d294       BIO_free_all               0001e294 f   libeay32:bio_lib.obj
 0001:0000d2c8       BIO_copy_next_retry        0001e2c8 f   libeay32:bio_lib.obj
 0001:0000d2ec       BIO_new                    0001e2ec f   libeay32:bio_lib.obj
 0001:0000d364       BIO_int_ctrl               0001e364 f   libeay32:bio_lib.obj
 0001:0000d388       OBJ_dup                    0001e388 f   libeay32:obj_lib.obj
 0001:0000d528       OBJ_cmp                    0001e528 f   libeay32:obj_lib.obj
 0001:0000d554       BN_bn2dec                  0001e554 f   libeay32:bn_print.obj
 0001:0000d740       BN_hex2bn                  0001e740 f   libeay32:bn_print.obj
 0001:0000d8d0       BN_dec2bn                  0001e8d0 f   libeay32:bn_print.obj
 0001:0000da64       BN_asc2bn                  0001ea64 f   libeay32:bn_print.obj
 0001:0000dae4       BN_lshift1                 0001eae4 f   libeay32:bn_shift.obj
 0001:0000dbb8       BN_rshift1                 0001ebb8 f   libeay32:bn_shift.obj
 0001:0000dc94       BN_lshift                  0001ec94 f   libeay32:bn_shift.obj
 0001:0000ddc0       BN_rshift                  0001edc0 f   libeay32:bn_shift.obj
 0001:0000ded8       BN_BLINDING_free           0001eed8 f   libeay32:bn_blind.obj
 0001:0000df34       BN_BLINDING_invert_ex      0001ef34 f   libeay32:bn_blind.obj
 0001:0000dfb8       BN_BLINDING_thread_id      0001efb8 f   libeay32:bn_blind.obj
 0001:0000dfc0       BN_BLINDING_new            0001efc0 f   libeay32:bn_blind.obj
 0001:0000e0b4       BN_BLINDING_create_param   0001f0b4 f   libeay32:bn_blind.obj
 0001:0000e290       BN_BLINDING_update         0001f290 f   libeay32:bn_blind.obj
 0001:0000e3a4       BN_BLINDING_convert_ex     0001f3a4 f   libeay32:bn_blind.obj
 0001:0000e550       BN_CTX_new                 0001f550 f   libeay32:bn_ctx.obj
 0001:0000e5d8       BN_CTX_free                0001f5d8 f   libeay32:bn_ctx.obj
 0001:0000e654       BN_CTX_start               0001f654 f   libeay32:bn_ctx.obj
 0001:0000e744       BN_CTX_end                 0001f744 f   libeay32:bn_ctx.obj
 0001:0000e7d4       BN_CTX_get                 0001f7d4 f   libeay32:bn_ctx.obj
 0001:0000ecc0       BN_gcd                     0001fcc0 f   libeay32:bn_gcd.obj
 0001:0000ed94       BN_mod_inverse             0001fd94 f   libeay32:bn_gcd.obj
 0001:0000f408       bn_mul_normal              00020408 f   libeay32:bn_mul.obj
 0001:0000f518       BN_mul                     00020518 f   libeay32:bn_mul.obj
 0001:0000f638       BN_uadd                    00020638 f   libeay32:bn_add.obj
 0001:0000f734       BN_usub                    00020734 f   libeay32:bn_add.obj
 0001:0000f8dc       BN_sub                     000208dc f   libeay32:bn_add.obj
 0001:0000f9d4       BN_add                     000209d4 f   libeay32:bn_add.obj
 0001:0000fa88       RAND_get_rand_method       00020a88 f   libeay32:rand_lib.obj
 0001:0000faf0       RAND_seed                  00020af0 f   libeay32:rand_lib.obj
 0001:0000fb24       RAND_add                   00020b24 f   libeay32:rand_lib.obj
 0001:0000fb68       RAND_bytes                 00020b68 f   libeay32:rand_lib.obj
 0001:0000fbb0       RAND_pseudo_bytes          00020bb0 f   libeay32:rand_lib.obj
 0001:0000fbf8       RAND_status                00020bf8 f   libeay32:rand_lib.obj
 0001:0000fc30       X509_ALGOR_it              00020c30 f   libeay32:x_algor.obj
 0001:0000fc3c       d2i_X509_ALGOR             00020c3c f   libeay32:x_algor.obj
 0001:0000fc54       X509_ALGOR_new             00020c54 f   libeay32:x_algor.obj
 0001:0000fc6c       X509_ALGOR_free            00020c6c f   libeay32:x_algor.obj
 0001:0000fc84       X509_ALGOR_set0            00020c84 f   libeay32:x_algor.obj
 0001:0000fd2c       X509_ALGOR_get0            00020d2c f   libeay32:x_algor.obj
 0001:0000fd80       X509_ALGOR_set_md          00020d80 f   libeay32:x_algor.obj
 0001:0000fdc0       ASN1_tag2bit               00020dc0 f   libeay32:tasn_dec.obj
 0001:0000fdd8       asn1_ex_c2i                00020dd8 f   libeay32:tasn_dec.obj
 0001:00010cb0       ASN1_item_ex_d2i           00021cb0 f   libeay32:tasn_dec.obj
 0001:00011a84       ASN1_item_d2i              00022a84 f   libeay32:tasn_dec.obj
 0001:00011e34       asn1_ex_i2c                00022e34 f   libeay32:tasn_enc.obj
 0001:00012120       ASN1_item_ex_i2d           00023120 f   libeay32:tasn_enc.obj
 0001:000127f8       ASN1_item_i2d              000237f8 f   libeay32:tasn_enc.obj
 0001:0001280c       ASN1_primitive_new         0002380c f   libeay32:tasn_new.obj
 0001:00012d48       ASN1_item_ex_new           00023d48 f   libeay32:tasn_new.obj
 0001:00012d5c       ASN1_template_new          00023d5c f   libeay32:tasn_new.obj
 0001:00012e34       ASN1_item_new              00023e34 f   libeay32:tasn_new.obj
 0001:00012e6c       ASN1_primitive_free        00023e6c f   libeay32:tasn_fre.obj
 0001:000131e0       ASN1_template_free         000241e0 f   libeay32:tasn_fre.obj
 0001:00013294       ASN1_item_free             00024294 f   libeay32:tasn_fre.obj
 0001:000132b4       ASN1_item_ex_free          000242b4 f   libeay32:tasn_fre.obj
 0001:000133a0       OBJ_NAME_init              000243a0 f   libeay32:o_names.obj
 0001:00013408       OBJ_NAME_get               00024408 f   libeay32:o_names.obj
 0001:000134ec       OBJ_find_sigid_algs        000244ec f   libeay32:obj_xref.obj
 0001:0001358c       OBJ_find_sigid_by_algs     0002458c f   libeay32:obj_xref.obj
 0001:00013658       EVP_PBE_find               00024658 f   libeay32:evp_pbe.obj
 0001:0001371c       EVP_PBE_CipherInit         0002471c f   libeay32:evp_pbe.obj
 0001:000138d4       CMAC_CTX_new               000248d4 f   libeay32:cmac.obj
 0001:00013914       CMAC_CTX_cleanup           00024914 f   libeay32:cmac.obj
 0001:00013960       CMAC_CTX_free              00024960 f   libeay32:cmac.obj
 0001:0001397c       CMAC_CTX_copy              0002497c f   libeay32:cmac.obj
 0001:00013a0c       CMAC_Init                  00024a0c f   libeay32:cmac.obj
 0001:00013c88       CMAC_Update                00024c88 f   libeay32:cmac.obj
 0001:00013d6c       CMAC_Final                 00024d6c f   libeay32:cmac.obj
 0001:00013e6c       X509V3_add_value           00024e6c f   libeay32:v3_utl.obj
 0001:00013f64       X509V3_add_value_uchar     00024f64 f   libeay32:v3_utl.obj
 0001:00013f74       X509V3_conf_free           00024f74 f   libeay32:v3_utl.obj
 0001:00013fc0       X509V3_add_value_bool      00024fc0 f   libeay32:v3_utl.obj
 0001:00013fe4       i2s_ASN1_ENUMERATED        00024fe4 f   libeay32:v3_utl.obj
 0001:00014054       i2s_ASN1_INTEGER           00025054 f   libeay32:v3_utl.obj
 0001:000140c4       s2i_ASN1_INTEGER           000250c4 f   libeay32:v3_utl.obj
 0001:00014214       X509V3_add_value_int       00025214 f   libeay32:v3_utl.obj
 0001:00014268       X509V3_get_value_bool      00025268 f   libeay32:v3_utl.obj
 0001:00014424       X509V3_get_value_int       00025424 f   libeay32:v3_utl.obj
 0001:00014538       hex_to_string              00025538 f   libeay32:v3_utl.obj
 0001:000145f8       string_to_hex              000255f8 f   libeay32:v3_utl.obj
 0001:000147c0       name_cmp                   000257c0 f   libeay32:v3_utl.obj
 0001:000148a4       X509V3_NAME_from_section   000258a4 f   libeay32:v3_utl.obj
 0001:0001498c       X509V3_parse_list          0002598c f   libeay32:v3_utl.obj
 0001:00014dfc       a2i_ipadd                  00025dfc f   libeay32:v3_utl.obj
 0001:00014e60       a2i_IPADDRESS              00025e60 f   libeay32:v3_utl.obj
 0001:00014ebc       a2i_IPADDRESS_NC           00025ebc f   libeay32:v3_utl.obj
 0001:00014f88       ASN1_OCTET_STRING_dup      00025f88 f   libeay32:a_octet.obj
 0001:00014f98       ASN1_OCTET_STRING_set      00025f98 f   libeay32:a_octet.obj
 0001:00014fa8       EC_GROUP_new               00025fa8 f   libeay32:ec_lib.obj
 0001:000150a8       EC_GROUP_method_of         000260a8 f   libeay32:ec_lib.obj
 0001:000150b0       EC_METHOD_get_field_type   000260b0 f   libeay32:ec_lib.obj
 0001:000150b8       EC_GROUP_get0_generator    000260b8 f   libeay32:ec_lib.obj
 0001:000150c0       EC_GROUP_get_order         000260c0 f   libeay32:ec_lib.obj
 0001:000150f4       EC_GROUP_get_cofactor      000260f4 f   libeay32:ec_lib.obj
 0001:0001512c       EC_GROUP_set_curve_name    0002612c f   libeay32:ec_lib.obj
 0001:00015134       EC_GROUP_get_curve_name    00026134 f   libeay32:ec_lib.obj
 0001:0001513c       EC_GROUP_set_asn1_flag     0002613c f   libeay32:ec_lib.obj
 0001:00015144       EC_GROUP_get_asn1_flag     00026144 f   libeay32:ec_lib.obj
 0001:0001514c       EC_GROUP_set_point_conversion_form 0002614c f   libeay32:ec_lib.obj
 0001:00015154       EC_GROUP_get_point_conversion_form 00026154 f   libeay32:ec_lib.obj
 0001:0001515c       EC_GROUP_set_seed          0002615c f   libeay32:ec_lib.obj
 0001:000151e8       EC_GROUP_get0_seed         000261e8 f   libeay32:ec_lib.obj
 0001:000151f0       EC_GROUP_get_seed_len      000261f0 f   libeay32:ec_lib.obj
 0001:000151f8       EC_GROUP_set_curve_GFp     000261f8 f   libeay32:ec_lib.obj
 0001:00015260       EC_GROUP_get_curve_GFp     00026260 f   libeay32:ec_lib.obj
 0001:000152c8       EC_GROUP_set_curve_GF2m    000262c8 f   libeay32:ec_lib.obj
 0001:00015330       EC_GROUP_get_curve_GF2m    00026330 f   libeay32:ec_lib.obj
 0001:00015394       EC_GROUP_get_degree        00026394 f   libeay32:ec_lib.obj
 0001:000153ec       EC_EX_DATA_set_data        000263ec f   libeay32:ec_lib.obj
 0001:000154c8       EC_EX_DATA_get_data        000264c8 f   libeay32:ec_lib.obj
 0001:0001551c       EC_EX_DATA_free_data       0002651c f   libeay32:ec_lib.obj
 0001:000155a4       EC_EX_DATA_free_all_data   000265a4 f   libeay32:ec_lib.obj
 0001:000155f4       EC_EX_DATA_clear_free_all_data 000265f4 f   libeay32:ec_lib.obj
 0001:00015644       EC_POINT_new               00026644 f   libeay32:ec_lib.obj
 0001:00015724       EC_POINT_free              00026724 f   libeay32:ec_lib.obj
 0001:00015758       EC_POINT_clear_free        00026758 f   libeay32:ec_lib.obj
 0001:000157b4       EC_POINT_copy              000267b4 f   libeay32:ec_lib.obj
 0001:00015848       EC_POINT_dup               00026848 f   libeay32:ec_lib.obj
 0001:00015890       EC_POINT_set_to_infinity   00026890 f   libeay32:ec_lib.obj
 0001:0001591c       EC_POINT_set_Jprojective_coordinates_GFp 0002691c f   libeay32:ec_lib.obj
 0001:000159d0       EC_POINT_set_affine_coordinates_GFp 000269d0 f   libeay32:ec_lib.obj
 0001:00015a70       EC_POINT_set_affine_coordinates_GF2m 00026a70 f   libeay32:ec_lib.obj
 0001:00015b14       EC_POINT_get_affine_coordinates_GFp 00026b14 f   libeay32:ec_lib.obj
 0001:00015bb8       EC_POINT_get_affine_coordinates_GF2m 00026bb8 f   libeay32:ec_lib.obj
 0001:00015c58       EC_POINT_add               00026c58 f   libeay32:ec_lib.obj
 0001:00015d14       EC_POINT_dbl               00026d14 f   libeay32:ec_lib.obj
 0001:00015db4       EC_POINT_invert            00026db4 f   libeay32:ec_lib.obj
 0001:00015e40       EC_POINT_is_at_infinity    00026e40 f   libeay32:ec_lib.obj
 0001:00015ec8       EC_POINT_is_on_curve       00026ec8 f   libeay32:ec_lib.obj
 0001:00015f50       EC_POINT_cmp               00026f50 f   libeay32:ec_lib.obj
 0001:00015ff0       EC_POINT_make_affine       00026ff0 f   libeay32:ec_lib.obj
 0001:00016078       EC_POINTs_make_affine      00027078 f   libeay32:ec_lib.obj
 0001:00016140       EC_POINTs_mul              00027140 f   libeay32:ec_lib.obj
 0001:000161bc       EC_POINT_mul               000271bc f   libeay32:ec_lib.obj
 0001:00016210       EC_GROUP_have_precompute_mult 00027210 f   libeay32:ec_lib.obj
 0001:00016258       EC_GROUP_free              00027258 f   libeay32:ec_lib.obj
 0001:000162c4       EC_GROUP_clear_free        000272c4 f   libeay32:ec_lib.obj
 0001:00016368       EC_GROUP_copy              00027368 f   libeay32:ec_lib.obj
 0001:0001657c       EC_GROUP_dup               0002757c f   libeay32:ec_lib.obj
 0001:000165c4       EC_GROUP_set_generator     000275c4 f   libeay32:ec_lib.obj
 0001:000166a4       EC_GROUP_cmp               000276a4 f   libeay32:ec_lib.obj
 0001:00016910       ECDSA_do_sign_ex           00027910 f   libeay32:ecs_sign.obj
 0001:00016970       ECDSA_sign_ex              00027970 f   libeay32:ecs_sign.obj
 0001:000169f8       ECDSA_sign_setup           000279f8 f   libeay32:ecs_sign.obj
 0001:00016a48       ECDSA_sign                 00027a48 f   libeay32:ecs_sign.obj
 0001:00016bd4       ecdsa_check                00027bd4 f   libeay32:ecs_lib.obj
 0001:00016c50       ECDSA_size                 00027c50 f   libeay32:ecs_lib.obj
 0001:00016d08       ECDSA_do_verify            00027d08 f   libeay32:ecs_vrf.obj
 0001:00016d5c       ECDSA_verify               00027d5c f   libeay32:ecs_vrf.obj
 0001:00016dd4       ECDH_compute_key           00027dd4 f   libeay32:ech_key.obj
 0001:00016e34       EC_KEY_new                 00027e34 f   libeay32:ec_key.obj
 0001:00016eb8       EC_KEY_free                00027eb8 f   libeay32:ec_key.obj
 0001:00016f48       EC_KEY_generate_key        00027f48 f   libeay32:ec_key.obj
 0001:000170a4       EC_KEY_get0_group          000280a4 f   libeay32:ec_key.obj
 0001:000170ac       EC_KEY_set_group           000280ac f   libeay32:ec_key.obj
 0001:000170ec       EC_KEY_get0_private_key    000280ec f   libeay32:ec_key.obj
 0001:000170f4       EC_KEY_get0_public_key     000280f4 f   libeay32:ec_key.obj
 0001:000170fc       EC_KEY_set_public_key      000280fc f   libeay32:ec_key.obj
 0001:00017140       EC_KEY_get_enc_flags       00028140 f   libeay32:ec_key.obj
 0001:00017148       EC_KEY_set_enc_flags       00028148 f   libeay32:ec_key.obj
 0001:00017150       EC_KEY_get_conv_form       00028150 f   libeay32:ec_key.obj
 0001:00017158       EC_KEY_get_key_method_data 00028158 f   libeay32:ec_key.obj
 0001:000171c4       EC_KEY_insert_key_method_data 000281c4 f   libeay32:ec_key.obj
 0001:00017684       EC_GROUP_new_by_curve_name 00028684 f   libeay32:ec_curve.obj
 0001:000177ac       d2i_DSA_SIG                000287ac f   libeay32:dsa_asn1.obj
 0001:00017820       d2i_DSAPrivateKey          00028820 f   libeay32:dsa_asn1.obj
 0001:00017838       i2d_DSAPrivateKey          00028838 f   libeay32:dsa_asn1.obj
 0001:00017850       d2i_DSAparams              00028850 f   libeay32:dsa_asn1.obj
 0001:00017868       i2d_DSAparams              00028868 f   libeay32:dsa_asn1.obj
 0001:00017880       dsa_pub_internal_it        00028880 f   libeay32:dsa_asn1.obj
 0001:0001788c       i2d_DSAPublicKey           0002888c f   libeay32:dsa_asn1.obj
 0001:000178a4       DSA_sign                   000288a4 f   libeay32:dsa_asn1.obj
 0001:00017924       DSA_verify                 00028924 f   libeay32:dsa_asn1.obj
 0001:000179a4       DSA_new_method             000289a4 f   libeay32:dsa_lib.obj
 0001:00017b54       DSA_free                   00028b54 f   libeay32:dsa_lib.obj
 0001:00017c48       DSA_size                   00028c48 f   libeay32:dsa_lib.obj
 0001:00017cac       DSA_new                    00028cac f   libeay32:dsa_lib.obj
 0001:00017cc0       dsa_builtin_paramgen       00028cc0 f   libeay32:dsa_gen.obj
 0001:00018454       evp_pkey_set_cb_translate  00029454 f   libeay32:pmeth_gn.obj
 0001:000185a8       DSA_generate_key           000295a8 f   libeay32:dsa_key.obj
 0001:000185d8       DH_new_method              000295d8 f   libeay32:dh_lib.obj
 0001:00018790       DH_free                    00029790 f   libeay32:dh_lib.obj
 0001:00018894       DH_size                    00029894 f   libeay32:dh_lib.obj
 0001:000188b8       DH_new                     000298b8 f   libeay32:dh_lib.obj
 0001:00018ab0       DH_generate_parameters_ex  00029ab0 f   libeay32:dh_gen.obj
 0001:00018ae0       DH_generate_key            00029ae0 f   libeay32:dh_key.obj
 0001:00018afc       DH_compute_key             00029afc f   libeay32:dh_key.obj
 0001:00018b18       DH_OpenSSL                 00029b18 f   libeay32:dh_key.obj
 0001:00018fb4       RSA_verify_PKCS1_PSS_mgf1  00029fb4 f   libeay32:rsa_pss.obj
 0001:000194e4       RSA_padding_add_PKCS1_PSS_mgf1 0002a4e4 f   libeay32:rsa_pss.obj
 0001:00019938       RSA_padding_add_X931       0002a938 f   libeay32:rsa_x931.obj
 0001:000199e4       RSA_padding_check_X931     0002a9e4 f   libeay32:rsa_x931.obj
 0001:00019b0c       RSA_X931_hash_id           0002ab0c f   libeay32:rsa_x931.obj
 0001:00019b5c       RSA_sign_ASN1_OCTET_STRING 0002ab5c f   libeay32:rsa_saos.obj
 0001:00019cb0       EVP_sha1                   0002acb0 f   libeay32:m_sha1.obj
 0001:00019d6c       CMS_RecipientInfo_ktri_get0_algs 0002ad6c f   libeay32:cms_env.obj
 0001:0001a0c8       cms_EnvelopedData_init_bio 0002b0c8 f   libeay32:cms_env.obj
 0001:0001a22c       RSA_new_method             0002b22c f   libeay32:rsa_lib.obj
 0001:0001a410       RSA_free                   0002b410 f   libeay32:rsa_lib.obj
 0001:0001a544       RSA_new                    0002b544 f   libeay32:rsa_lib.obj
 0001:0001ab10       RSA_generate_key_ex        0002bb10 f   libeay32:rsa_gen.obj
 0001:0001ab58       EVP_PKEY_asn1_get_count    0002bb58 f   libeay32:ameth_lib.obj
 0001:0001ab88       EVP_PKEY_asn1_get0         0002bb88 f   libeay32:ameth_lib.obj
 0001:0001abd0       EVP_PKEY_asn1_find         0002bbd0 f   libeay32:ameth_lib.obj
 0001:0001acb8       EVP_PKEY_asn1_find_str     0002bcb8 f   libeay32:ameth_lib.obj
 0001:0001ada0       EVP_PKEY_asn1_free         0002bda0 f   libeay32:ameth_lib.obj
 0001:0001ade8       X509_ATTRIBUTE_SET_it      0002bde8 f   libeay32:x_attrib.obj
 0001:0001adf4       X509_ATTRIBUTE_it          0002bdf4 f   libeay32:x_attrib.obj
 0001:0001ae00       X509_ATTRIBUTE_new         0002be00 f   libeay32:x_attrib.obj
 0001:0001ae18       X509_ATTRIBUTE_free        0002be18 f   libeay32:x_attrib.obj
 0001:0001ae30       X509_ATTRIBUTE_dup         0002be30 f   libeay32:x_attrib.obj
 0001:0001ae4c       X509_ATTRIBUTE_create      0002be4c f   libeay32:x_attrib.obj
 0001:0001b368       BIO_new_file               0002c368 f   libeay32:bss_file.obj
 0001:0001ba00       CRYPTO_new_ex_data         0002ca00 f   libeay32:ex_data.obj
 0001:0001ba4c       CRYPTO_free_ex_data        0002ca4c f   libeay32:ex_data.obj
 0001:0001ba98       CRYPTO_set_ex_data         0002ca98 f   libeay32:ex_data.obj
 0001:0001bb6c       CRYPTO_get_ex_data         0002cb6c f   libeay32:ex_data.obj
 0001:0001c05c       ENGINE_get_pkey_asn1_meth_engine 0002d05c f   libeay32:tb_asnmth.obj
 0001:0001c078       engine_pkey_asn1_meths_free 0002d078 f   libeay32:tb_asnmth.obj
 0001:0001c1b4       ENGINE_pkey_asn1_find_str  0002d1b4 f   libeay32:tb_asnmth.obj
 0001:0001c254       ENGINE_get_pkey_asn1_meth  0002d254 f   libeay32:tb_asnmth.obj
 0001:0001c2b8       BUF_MEM_new                0002d2b8 f   libeay32:buffer.obj
 0001:0001c31c       BUF_MEM_free               0002d31c f   libeay32:buffer.obj
 0001:0001c35c       BUF_MEM_grow               0002d35c f   libeay32:buffer.obj
 0001:0001c464       BUF_MEM_grow_clean         0002d464 f   libeay32:buffer.obj
 0001:0001c580       bn_mul_add_words           0002d580 f   libeay32:bn_asm.obj
 0001:0001c5d8       bn_mul_words               0002d5d8 f   libeay32:bn_asm.obj
 0001:0001c624       bn_sqr_words               0002d624 f   libeay32:bn_asm.obj
 0001:0001c650       bn_div_words               0002d650 f   libeay32:bn_asm.obj
 0001:0001c680       bn_add_words               0002d680 f   libeay32:bn_asm.obj
 0001:0001c6d4       bn_sub_words               0002d6d4 f   libeay32:bn_asm.obj
 0001:0001c734       BN_nnmod                   0002d734 f   libeay32:bn_mod.obj
 0001:0001c7b4       BN_mod_add                 0002d7b4 f   libeay32:bn_mod.obj
 0001:0001c7f0       BN_mod_add_quick           0002d7f0 f   libeay32:bn_mod.obj
 0001:0001c848       BN_mod_sub_quick           0002d848 f   libeay32:bn_mod.obj
 0001:0001c898       BN_mod_mul                 0002d898 f   libeay32:bn_mod.obj
 0001:0001c928       BN_mod_sqr                 0002d928 f   libeay32:bn_mod.obj
 0001:0001c96c       BN_mod_lshift1_quick       0002d96c f   libeay32:bn_mod.obj
 0001:0001c9c4       BN_mod_lshift_quick        0002d9c4 f   libeay32:bn_mod.obj
 0001:0001cab4       BN_mod_exp_recp            0002dab4 f   libeay32:bn_exp.obj
 0001:0001cec0       BN_mod_exp_mont_consttime  0002dec0 f   libeay32:bn_exp.obj
 0001:0001d464       BN_mod_exp_mont_word       0002e464 f   libeay32:bn_exp.obj
 0001:0001d884       BN_mod_exp_mont            0002e884 f   libeay32:bn_exp.obj
 0001:0001dce4       BN_mod_exp                 0002ece4 f   libeay32:bn_exp.obj
 0001:0001dfac       BN_rand                    0002efac f   libeay32:bn_rand.obj
 0001:0001dfdc       BN_pseudo_rand             0002efdc f   libeay32:bn_rand.obj
 0001:0001e1f4       BN_rand_range              0002f1f4 f   libeay32:bn_rand.obj
 0001:0001e210       BN_pseudo_rand_range       0002f210 f   libeay32:bn_rand.obj
 0001:0001e22c       BN_div                     0002f22c f   libeay32:bn_div.obj
 0001:0001e7e0       RAND_SSLeay                0002f7e0 f   libeay32:md_rand.obj
 0001:0001f1e8       ENGINE_get_default_RAND    000301e8 f   libeay32:tb_rand.obj
 0001:0001f204       ENGINE_get_RAND            00030204 f   libeay32:tb_rand.obj
 0001:0001f20c       ASN1_item_dup              0003020c f   libeay32:a_dup.obj
 0001:0001f2a0       ASN1_BIT_STRING_set        000302a0 f   libeay32:a_bitstr.obj
 0001:0001f2b0       i2c_ASN1_BIT_STRING        000302b0 f   libeay32:a_bitstr.obj
 0001:0001f3b4       c2i_ASN1_BIT_STRING        000303b4 f   libeay32:a_bitstr.obj
 0001:0001f4f8       ASN1_BIT_STRING_set_bit    000304f8 f   libeay32:a_bitstr.obj
 0001:0001f648       ASN1_BIT_STRING_get_bit    00030648 f   libeay32:a_bitstr.obj
 0001:0001f6a4       asn1_get_choice_selector   000306a4 f   libeay32:tasn_utl.obj
 0001:0001f6b4       asn1_set_choice_selector   000306b4 f   libeay32:tasn_utl.obj
 0001:0001f6d0       asn1_do_lock               000306d0 f   libeay32:tasn_utl.obj
 0001:0001f754       asn1_enc_init              00030754 f   libeay32:tasn_utl.obj
 0001:0001f7ac       asn1_enc_free              000307ac f   libeay32:tasn_utl.obj
 0001:0001f820       asn1_enc_save              00030820 f   libeay32:tasn_utl.obj
 0001:0001f8cc       asn1_enc_restore           000308cc f   libeay32:tasn_utl.obj
 0001:0001f974       asn1_get_field_ptr         00030974 f   libeay32:tasn_utl.obj
 0001:0001f98c       asn1_do_adb                0003098c f   libeay32:tasn_utl.obj
 0001:0001fa84       PKCS5_PBKDF2_HMAC          00030a84 f   libeay32:p5_crpt2.obj
 0001:0001fc4c       PKCS5_v2_PBKDF2_keyivgen   00030c4c f   libeay32:p5_crpt2.obj
 0001:0001feec       PKCS5_v2_PBE_keyivgen      00030eec f   libeay32:p5_crpt2.obj
 0001:000200a8       PKCS12_PBE_keyivgen        000310a8 f   libeay32:p12_crpt.obj
 0001:0002029c       PKCS5_PBE_keyivgen         0003129c f   libeay32:p5_crpt.obj
 0001:00020554       EVP_CIPHER_CTX_init        00031554 f   libeay32:evp_enc.obj
 0001:0002056c       EVP_EncryptUpdate          0003156c f   libeay32:evp_enc.obj
 0001:0002075c       EVP_EncryptFinal_ex        0003175c f   libeay32:evp_enc.obj
 0001:00020888       EVP_DecryptUpdate          00031888 f   libeay32:evp_enc.obj
 0001:00020a04       EVP_DecryptFinal_ex        00031a04 f   libeay32:evp_enc.obj
 0001:00020bdc       EVP_CIPHER_CTX_cleanup     00031bdc f   libeay32:evp_enc.obj
 0001:00020c68       EVP_CIPHER_CTX_set_padding 00031c68 f   libeay32:evp_enc.obj
 0001:00020c84       EVP_CIPHER_CTX_ctrl        00031c84 f   libeay32:evp_enc.obj
 0001:00020d34       EVP_CIPHER_CTX_rand_key    00031d34 f   libeay32:evp_enc.obj
 0001:00020d88       EVP_CIPHER_CTX_copy        00031d88 f   libeay32:evp_enc.obj
 0001:00020ed8       EVP_CipherInit_ex          00031ed8 f   libeay32:evp_enc.obj
 0001:00021238       EVP_CipherUpdate           00032238 f   libeay32:evp_enc.obj
 0001:0002127c       EVP_CipherFinal_ex         0003227c f   libeay32:evp_enc.obj
 0001:000212a4       EVP_EncryptInit_ex         000322a4 f   libeay32:evp_enc.obj
 0001:000212cc       EVP_DecryptInit_ex         000322cc f   libeay32:evp_enc.obj
 0001:000212f4       EVP_CIPHER_CTX_set_key_length 000322f4 f   libeay32:evp_enc.obj
 0001:0002137c       ASN1_ENUMERATED_get        0003237c f   libeay32:a_enum.obj
 0001:00021410       ASN1_ENUMERATED_to_BN      00032410 f   libeay32:a_enum.obj
 0001:00021484       X509_NAME_entry_count      00032484 f   libeay32:x509name.obj
 0001:000214a8       X509_NAME_get_index_by_OBJ 000324a8 f   libeay32:x509name.obj
 0001:00021514       X509_NAME_get_entry        00032514 f   libeay32:x509name.obj
 0001:0002155c       X509_NAME_delete_entry     0003255c f   libeay32:x509name.obj
 0001:00021630       X509_NAME_add_entry        00032630 f   libeay32:x509name.obj
 0001:0002179c       X509_NAME_ENTRY_set_object 0003279c f   libeay32:x509name.obj
 0001:00021810       X509_NAME_ENTRY_set_data   00032810 f   libeay32:x509name.obj
 0001:000218f0       X509_NAME_ENTRY_get_object 000328f0 f   libeay32:x509name.obj
 0001:00021900       X509_NAME_ENTRY_get_data   00032900 f   libeay32:x509name.obj
 0001:00021910       X509_NAME_get_index_by_NID 00032910 f   libeay32:x509name.obj
 0001:0002194c       X509_NAME_ENTRY_create_by_OBJ 0003294c f   libeay32:x509name.obj
 0001:000219f8       X509_NAME_ENTRY_create_by_txt 000329f8 f   libeay32:x509name.obj
 0001:00021a9c       X509_NAME_add_entry_by_txt 00032a9c f   libeay32:x509name.obj
 0001:00021af4       ACCESS_DESCRIPTION_it      00032af4 f   libeay32:v3_info.obj
 0001:00021b00       ACCESS_DESCRIPTION_free    00032b00 f   libeay32:v3_info.obj
 0001:00021b18       AUTHORITY_INFO_ACCESS_it   00032b18 f   libeay32:v3_info.obj
 0001:00021e6c       X509_CRL_get_ext_d2i       00032e6c f   libeay32:x509_ext.obj
 0001:00021e84       X509_get_ext_count         00032e84 f   libeay32:x509_ext.obj
 0001:00021e9c       X509_get_ext_by_NID        00032e9c f   libeay32:x509_ext.obj
 0001:00021eb4       X509_get_ext               00032eb4 f   libeay32:x509_ext.obj
 0001:00021ecc       X509_get_ext_d2i           00032ecc f   libeay32:x509_ext.obj
 0001:00021ee4       X509_REVOKED_get_ext_d2i   00032ee4 f   libeay32:x509_ext.obj
 0001:00021ef8       CONF_parse_list            00032ef8 f   libeay32:conf_mod.obj
 0001:00022024       OTHERNAME_it               00033024 f   libeay32:v3_genn.obj
 0001:00022030       OTHERNAME_new              00033030 f   libeay32:v3_genn.obj
 0001:00022048       EDIPARTYNAME_it            00033048 f   libeay32:v3_genn.obj
 0001:00022054       GENERAL_NAME_it            00033054 f   libeay32:v3_genn.obj
 0001:00022060       GENERAL_NAME_new           00033060 f   libeay32:v3_genn.obj
 0001:00022078       GENERAL_NAME_free          00033078 f   libeay32:v3_genn.obj
 0001:00022090       GENERAL_NAMES_it           00033090 f   libeay32:v3_genn.obj
 0001:0002209c       GENERAL_NAMES_new          0003309c f   libeay32:v3_genn.obj
 0001:000220b4       GENERAL_NAMES_free         000330b4 f   libeay32:v3_genn.obj
 0001:000220cc       X509_get_issuer_name       000330cc f   libeay32:x509_cmp.obj
 0001:000220d8       X509_get_subject_name      000330d8 f   libeay32:x509_cmp.obj
 0001:000220e4       X509_get_serialNumber      000330e4 f   libeay32:x509_cmp.obj
 0001:000220f0       X509_NAME_cmp              000330f0 f   libeay32:x509_cmp.obj
 0001:00022180       X509_get_pubkey            00033180 f   libeay32:x509_cmp.obj
 0001:000221b4       X509_EXTENSION_it          000331b4 f   libeay32:x_exten.obj
 0001:000221d8       X509V3_EXT_get_nid         000331d8 f   libeay32:v3_lib.obj
 0001:00022268       X509V3_EXT_d2i             00033268 f   libeay32:v3_lib.obj
 0001:000222f8       X509V3_get_d2i             000332f8 f   libeay32:v3_lib.obj
 0001:00022804       ec_wNAF_mul                00033804 f   libeay32:ec_mult.obj
 0001:000233ac       ec_wNAF_precompute_mult    000343ac f   libeay32:ec_mult.obj
 0001:000238b8       ec_wNAF_have_precompute_mult 000348b8 f   libeay32:ec_mult.obj
 0001:000238f4       d2i_ECDSA_SIG              000348f4 f   libeay32:ecs_asn1.obj
 0001:0002390c       i2d_ECDSA_SIG              0003490c f   libeay32:ecs_asn1.obj
 0001:00023924       ECDSA_SIG_new              00034924 f   libeay32:ecs_asn1.obj
 0001:0002393c       ECDSA_SIG_free             0003493c f   libeay32:ecs_asn1.obj
 0001:00023954       ECDSA_OpenSSL              00034954 f   libeay32:ecs_ossl.obj
 0001:00024618       ENGINE_get_default_ECDSA   00035618 f   libeay32:tb_ecdsa.obj
 0001:00024634       ENGINE_get_ECDSA           00035634 f   libeay32:tb_ecdsa.obj
 0001:00024794       ecdh_check                 00035794 f   libeay32:ech_lib.obj
 0001:00024810       EC_GROUP_new_curve_GFp     00035810 f   libeay32:ec_cvt.obj
 0001:000248dc       EC_GROUP_new_curve_GF2m    000358dc f   libeay32:ec_cvt.obj
 0001:00024940       BIGNUM_it                  00035940 f   libeay32:x_bignum.obj
 0001:0002494c       CBIGNUM_it                 0003594c f   libeay32:x_bignum.obj
 0001:00024a8c       LONG_it                    00035a8c f   libeay32:x_long.obj
 0001:00024a98       ZLONG_it                   00035a98 f   libeay32:x_long.obj
 0001:00024c8c       DSA_do_sign                00035c8c f   libeay32:dsa_sign.obj
 0001:00024ca8       DSA_sign_setup             00035ca8 f   libeay32:dsa_sign.obj
 0001:00024cc4       DSA_SIG_new                00035cc4 f   libeay32:dsa_sign.obj
 0001:00024cfc       DSA_SIG_free               00035cfc f   libeay32:dsa_sign.obj
 0001:00024d38       DSA_do_verify              00035d38 f   libeay32:dsa_vrf.obj
 0001:00024d54       DSA_OpenSSL                00035d54 f   libeay32:dsa_ossl.obj
 0001:0002559c       ENGINE_get_default_DSA     0003659c f   libeay32:tb_dsa.obj
 0001:000255b8       ENGINE_get_DSA             000365b8 f   libeay32:tb_dsa.obj
 0001:00025868       BN_from_montgomery         00036868 f   libeay32:bn_mont.obj
 0001:000258d4       BN_MONT_CTX_init           000368d4 f   libeay32:bn_mont.obj
 0001:0002590c       BN_MONT_CTX_free           0003690c f   libeay32:bn_mont.obj
 0001:00025948       BN_MONT_CTX_set            00036948 f   libeay32:bn_mont.obj
 0001:00025b10       BN_MONT_CTX_copy           00036b10 f   libeay32:bn_mont.obj
 0001:00025b8c       BN_mod_mul_montgomery      00036b8c f   libeay32:bn_mont.obj
 0001:00025c18       BN_MONT_CTX_new            00036c18 f   libeay32:bn_mont.obj
 0001:00025c5c       BN_MONT_CTX_set_locked     00036c5c f   libeay32:bn_mont.obj
 0001:00025d34       BN_GENCB_call              00036d34 f   libeay32:bn_prime.obj
 0001:00026198       BN_is_prime_fasttest_ex    00037198 f   libeay32:bn_prime.obj
 0001:0002658c       BN_generate_prime_ex       0003758c f   libeay32:bn_prime.obj
 0001:000268f4       ENGINE_get_default_DH      000378f4 f   libeay32:tb_dh.obj
 0001:00026910       ENGINE_get_DH              00037910 f   libeay32:tb_dh.obj
 0001:00026918       DH_check_pub_key           00037918 f   libeay32:dh_check.obj
 0001:000269b4       PKCS1_MGF1                 000379b4 f   libeay32:rsa_oaep.obj
 0001:00026adc       RSA_padding_add_PKCS1_OAEP 00037adc f   libeay32:rsa_oaep.obj
 0001:00026cd4       RSA_padding_check_PKCS1_OAEP 00037cd4 f   libeay32:rsa_oaep.obj
 0001:00026f44       SHA1_Init                  00037f44 f   libeay32:sha1dgst.obj
 0001:000272fc       SHA1_Update                000382fc f   libeay32:sha1dgst.obj
 0001:00027404       SHA1_Final                 00038404 f   libeay32:sha1dgst.obj
 0001:00027574       SHA224_Init                00038574 f   libeay32:sha256.obj
 0001:000275f4       SHA256_Init                000385f4 f   libeay32:sha256.obj
 0001:00027994       SHA256_Update              00038994 f   libeay32:sha256.obj
 0001:00027a9c       SHA256_Final               00038a9c f   libeay32:sha256.obj
 0001:00027c24       SHA384_Init                00038c24 f   libeay32:sha512.obj
 0001:00027d14       SHA512_Init                00038d14 f   libeay32:sha512.obj
 0001:000285dc       SHA512_Final               000395dc f   libeay32:sha512.obj
 0001:00028808       SHA512_Update              00039808 f   libeay32:sha512.obj
 0001:00028958       CMS_IssuerAndSerialNumber_it 00039958 f   libeay32:cms_asn1.obj
 0001:00028964       CMS_OtherCertificateFormat_it 00039964 f   libeay32:cms_asn1.obj
 0001:00028970       CMS_CertificateChoices_it  00039970 f   libeay32:cms_asn1.obj
 0001:0002897c       CMS_SignerIdentifier_it    0003997c f   libeay32:cms_asn1.obj
 0001:00028988       CMS_EncapsulatedContentInfo_it 00039988 f   libeay32:cms_asn1.obj
 0001:000289d0       CMS_SignerInfo_it          000399d0 f   libeay32:cms_asn1.obj
 0001:000289dc       CMS_OtherRevocationInfoFormat_it 000399dc f   libeay32:cms_asn1.obj
 0001:000289e8       CMS_RevocationInfoChoice_it 000399e8 f   libeay32:cms_asn1.obj
 0001:000289f4       CMS_SignedData_it          000399f4 f   libeay32:cms_asn1.obj
 0001:00028a00       CMS_OriginatorInfo_it      00039a00 f   libeay32:cms_asn1.obj
 0001:00028a0c       CMS_EncryptedContentInfo_it 00039a0c f   libeay32:cms_asn1.obj
 0001:00028a18       CMS_KeyTransRecipientInfo_it 00039a18 f   libeay32:cms_asn1.obj
 0001:00028a24       CMS_OtherKeyAttribute_it   00039a24 f   libeay32:cms_asn1.obj
 0001:00028a30       CMS_RecipientKeyIdentifier_it 00039a30 f   libeay32:cms_asn1.obj
 0001:00028a3c       CMS_KeyAgreeRecipientIdentifier_it 00039a3c f   libeay32:cms_asn1.obj
 0001:00028a48       CMS_RecipientEncryptedKey_it 00039a48 f   libeay32:cms_asn1.obj
 0001:00028a54       CMS_OriginatorPublicKey_it 00039a54 f   libeay32:cms_asn1.obj
 0001:00028a60       CMS_OriginatorIdentifierOrKey_it 00039a60 f   libeay32:cms_asn1.obj
 0001:00028a6c       CMS_KeyAgreeRecipientInfo_it 00039a6c f   libeay32:cms_asn1.obj
 0001:00028a78       CMS_KEKIdentifier_it       00039a78 f   libeay32:cms_asn1.obj
 0001:00028a84       CMS_KEKRecipientInfo_it    00039a84 f   libeay32:cms_asn1.obj
 0001:00028a90       CMS_PasswordRecipientInfo_it 00039a90 f   libeay32:cms_asn1.obj
 0001:00028a9c       CMS_OtherRecipientInfo_it  00039a9c f   libeay32:cms_asn1.obj
 0001:00028b30       CMS_RecipientInfo_it       00039b30 f   libeay32:cms_asn1.obj
 0001:00028b3c       CMS_EnvelopedData_it       00039b3c f   libeay32:cms_asn1.obj
 0001:00028b48       CMS_DigestedData_it        00039b48 f   libeay32:cms_asn1.obj
 0001:00028b54       CMS_EncryptedData_it       00039b54 f   libeay32:cms_asn1.obj
 0001:00028b60       CMS_AuthenticatedData_it   00039b60 f   libeay32:cms_asn1.obj
 0001:00028b6c       CMS_CompressedData_it      00039b6c f   libeay32:cms_asn1.obj
 0001:00028c10       CMS_Attributes_Sign_it     00039c10 f   libeay32:cms_asn1.obj
 0001:00028c1c       CMS_ReceiptsFrom_it        00039c1c f   libeay32:cms_asn1.obj
 0001:00028c28       CMS_get0_content           00039c28 f   libeay32:cms_lib.obj
 0001:00028d18       cms_DigestAlgorithm_init_bio 00039d18 f   libeay32:cms_lib.obj
 0001:00028de0       cms_DigestAlgorithm_find_ctx 00039de0 f   libeay32:cms_lib.obj
 0001:00028eb0       cms_content_bio            00039eb0 f   libeay32:cms_lib.obj
 0001:00028f0c       CMS_dataInit               00039f0c f   libeay32:cms_lib.obj
 0001:00029010       CMS_dataFinal              0003a010 f   libeay32:cms_lib.obj
 0001:00029178       cms_EncryptedContent_init_bio 0003a178 f   libeay32:cms_enc.obj
 0001:00029538       cms_EncryptedData_init_bio 0003a538 f   libeay32:cms_enc.obj
 0001:00029740       CMS_SignerInfo_get0_algs   0003a740 f   libeay32:cms_sd.obj
 0001:00029780       CMS_SignerInfo_sign        0003a780 f   libeay32:cms_sd.obj
 0001:000299cc       cms_SignedData_init_bio    0003a9cc f   libeay32:cms_sd.obj
 0001:00029c30       cms_SignedData_final       0003ac30 f   libeay32:cms_sd.obj
 0001:00029cc0       X509_PURPOSE_get0          0003acc0 f   libeay32:v3_purp.obj
 0001:00029d0c       X509_PURPOSE_get_by_id     0003ad0c f   libeay32:v3_purp.obj
 0001:00029d74       X509_supported_extension   0003ad74 f   libeay32:v3_purp.obj
 0001:0002a7ec       X509_check_purpose         0003b7ec f   libeay32:v3_purp.obj
 0001:0002a884       EVP_PKEY_sign_init         0003b884 f   libeay32:pmeth_fn.obj
 0001:0002a914       EVP_PKEY_sign              0003b914 f   libeay32:pmeth_fn.obj
 0001:0002aa28       EVP_PKEY_verify_init       0003ba28 f   libeay32:pmeth_fn.obj
 0001:0002aab8       EVP_PKEY_verify            0003bab8 f   libeay32:pmeth_fn.obj
 0001:0002ab5c       EVP_PKEY_encrypt_init      0003bb5c f   libeay32:pmeth_fn.obj
 0001:0002abec       EVP_PKEY_encrypt           0003bbec f   libeay32:pmeth_fn.obj
 0001:0002ad00       AES_wrap_key               0003bd00 f   libeay32:aes_wrap.obj
 0001:0002ae1c       AES_set_encrypt_key        0003be1c f   libeay32:aes_misc.obj
 0001:0002b0ac       cms_RecipientInfo_pwri_crypt 0003c0ac f   libeay32:cms_pwri.obj
 0001:0002b41c       RSA_PKCS1_SSLeay           0003c41c f   libeay32:rsa_eay.obj
 0001:0002cc3c       ENGINE_get_default_RSA     0003dc3c f   libeay32:tb_rsa.obj
 0001:0002cc58       ENGINE_get_RSA             0003dc58 f   libeay32:tb_rsa.obj
 0001:00030718       bn_sqr_normal              00041718 f   libeay32:bn_sqr.obj
 0001:00030804       BN_sqr                     00041804 f   libeay32:bn_sqr.obj
 0001:0003093c       BN_RECP_CTX_init           0004193c f   libeay32:bn_recp.obj
 0001:00030964       BN_RECP_CTX_free           00041964 f   libeay32:bn_recp.obj
 0001:00030998       BN_RECP_CTX_set            00041998 f   libeay32:bn_recp.obj
 0001:000309e4       BN_reciprocal              000419e4 f   libeay32:bn_recp.obj
 0001:00030a64       BN_div_recp                00041a64 f   libeay32:bn_recp.obj
 0001:00030cc0       BN_mod_mul_reciprocal      00041cc0 f   libeay32:bn_recp.obj
 0001:00030de8       RAND_poll                  00041de8 f   libeay32:rand_win.obj
 0001:00030ec0       d2i_PBE2PARAM              00041ec0 f   libeay32:p5_pbev2.obj
 0001:00030ed8       PBE2PARAM_free             00041ed8 f   libeay32:p5_pbev2.obj
 0001:00030ef0       d2i_PBKDF2PARAM            00041ef0 f   libeay32:p5_pbev2.obj
 0001:00030f08       PBKDF2PARAM_free           00041f08 f   libeay32:p5_pbev2.obj
 0001:00030f20       d2i_PBEPARAM               00041f20 f   libeay32:p5_pbe.obj
 0001:00030f38       PBEPARAM_free              00041f38 f   libeay32:p5_pbe.obj
 0001:00030f50       PKCS12_key_gen_uni         00041f50 f   libeay32:p12_key.obj
 0001:00031450       PKCS12_key_gen_asc         00042450 f   libeay32:p12_key.obj
 0001:00031528       ENGINE_get_cipher_engine   00042528 f   libeay32:tb_cipher.obj
 0001:00031544       ENGINE_get_cipher          00042544 f   libeay32:tb_cipher.obj
 0001:000315a8       X509_NAME_ENTRY_it         000425a8 f   libeay32:x_name.obj
 0001:000315b4       X509_NAME_ENTRY_new        000425b4 f   libeay32:x_name.obj
 0001:000315cc       X509_NAME_ENTRY_free       000425cc f   libeay32:x_name.obj
 0001:000315e4       X509_NAME_ENTRY_dup        000425e4 f   libeay32:x_name.obj
 0001:00031600       X509_NAME_ENTRIES_it       00042600 f   libeay32:x_name.obj
 0001:0003160c       X509_NAME_it               0004260c f   libeay32:x_name.obj
 0001:00031618       i2d_X509_NAME              00042618 f   libeay32:x_name.obj
 0001:00031630       X509_NAME_new              00042630 f   libeay32:x_name.obj
 0001:00031648       X509_NAME_free             00042648 f   libeay32:x_name.obj
 0001:00031660       X509_NAME_dup              00042660 f   libeay32:x_name.obj
 0001:00031eec       ASN1_PRINTABLE_type        00042eec f   libeay32:a_print.obj
 0001:00032000       ASN1_STRING_TABLE_get      00043000 f   libeay32:a_strnid.obj
 0001:0003207c       ASN1_STRING_set_by_NID     0004307c f   libeay32:a_strnid.obj
 0001:0003213c       i2v_GENERAL_NAME           0004313c f   libeay32:v3_alt.obj
 0001:0003230c       GENERAL_NAME_print         0004330c f   libeay32:v3_alt.obj
 0001:00032910       i2v_GENERAL_NAMES          00043910 f   libeay32:v3_alt.obj
 0001:00032984       a2i_GENERAL_NAME           00043984 f   libeay32:v3_alt.obj
 0001:00032c0c       v2i_GENERAL_NAME_ex        00043c0c f   libeay32:v3_alt.obj
 0001:00032d80       v2i_GENERAL_NAME           00043d80 f   libeay32:v3_alt.obj
 0001:0003303c       v2i_GENERAL_NAMES          0004403c f   libeay32:v3_alt.obj
 0001:0003310c       X509v3_get_ext_count       0004410c f   libeay32:x509_v3.obj
 0001:0003312c       X509v3_get_ext_by_OBJ      0004412c f   libeay32:x509_v3.obj
 0001:00033190       X509v3_get_ext             00044190 f   libeay32:x509_v3.obj
 0001:000331d8       X509_EXTENSION_get_object  000441d8 f   libeay32:x509_v3.obj
 0001:000331e8       X509_EXTENSION_get_critical 000441e8 f   libeay32:x509_v3.obj
 0001:00033208       X509v3_get_ext_by_NID      00044208 f   libeay32:x509_v3.obj
 0001:00033244       DSO_convert_filename       00044244 f   libeay32:dso_lib.obj
 0001:00033384       CONF_set_nconf             00044384 f   libeay32:conf_lib.obj
 0001:000333c8       NCONF_get_section          000443c8 f   libeay32:conf_lib.obj
 0001:00033444       NCONF_get_string           00044444 f   libeay32:conf_lib.obj
 0001:000334dc       CONF_get_section           000444dc f   libeay32:conf_lib.obj
 0001:00033518       CONF_get_string            00044518 f   libeay32:conf_lib.obj
 0001:0003355c       CONF_free                  0004455c f   libeay32:conf_lib.obj
 0001:00033590       X509_NAME_oneline          00044590 f   libeay32:x509_obj.obj
 0001:00033960       X509_PUBKEY_it             00044960 f   libeay32:x_pubkey.obj
 0001:0003396c       X509_PUBKEY_get            0004496c f   libeay32:x_pubkey.obj
 0001:00033b1c       X509_PUBKEY_set0_param     00044b1c f   libeay32:x_pubkey.obj
 0001:00033b9c       X509_PUBKEY_get0_param     00044b9c f   libeay32:x_pubkey.obj
 0001:00033ec4       DIST_POINT_NAME_it         00044ec4 f   libeay32:v3_crld.obj
 0001:00033ed0       DIST_POINT_it              00044ed0 f   libeay32:v3_crld.obj
 0001:00033edc       DIST_POINT_free            00044edc f   libeay32:v3_crld.obj
 0001:00033ef4       CRL_DIST_POINTS_it         00044ef4 f   libeay32:v3_crld.obj
 0001:00033f00       CRL_DIST_POINTS_free       00044f00 f   libeay32:v3_crld.obj
 0001:00033f18       ISSUING_DIST_POINT_it      00044f18 f   libeay32:v3_crld.obj
 0001:00033f24       ISSUING_DIST_POINT_free    00044f24 f   libeay32:v3_crld.obj
 0001:0003426c       DIST_POINT_set_dpname      0004526c f   libeay32:v3_crld.obj
 0001:000349a8       POLICY_MAPPING_it          000459a8 f   libeay32:v3_pmaps.obj
 0001:000349b4       POLICY_MAPPINGS_it         000459b4 f   libeay32:v3_pmaps.obj
 0001:000349c0       POLICY_MAPPING_free        000459c0 f   libeay32:v3_pmaps.obj
 0001:00034c44       GENERAL_SUBTREE_it         00045c44 f   libeay32:v3_ncons.obj
 0001:00034c50       NAME_CONSTRAINTS_it        00045c50 f   libeay32:v3_ncons.obj
 0001:00034c5c       NAME_CONSTRAINTS_free      00045c5c f   libeay32:v3_ncons.obj
 0001:00036014       POLICY_CONSTRAINTS_it      00047014 f   libeay32:v3_pcons.obj
 0001:000361d4       EXTENDED_KEY_USAGE_it      000471d4 f   libeay32:v3_extku.obj
 0001:00036374       SXNETID_it                 00047374 f   libeay32:v3_sxnet.obj
 0001:00036380       SXNET_it                   00047380 f   libeay32:v3_sxnet.obj
 0001:0003645c       SXNET_get_id_INTEGER       0004745c f   libeay32:v3_sxnet.obj
 0001:000364cc       SXNET_add_id_INTEGER       000474cc f   libeay32:v3_sxnet.obj
 0001:00036674       SXNET_add_id_asc           00047674 f   libeay32:v3_sxnet.obj
 0001:00036760       i2s_ASN1_ENUMERATED_TABLE  00047760 f   libeay32:v3_enum.obj
 0001:00036b54       CERTIFICATEPOLICIES_it     00047b54 f   libeay32:v3_cpols.obj
 0001:00036b60       POLICYINFO_it              00047b60 f   libeay32:v3_cpols.obj
 0001:00036b6c       POLICYINFO_free            00047b6c f   libeay32:v3_cpols.obj
 0001:00036b90       POLICYQUALINFO_it          00047b90 f   libeay32:v3_cpols.obj
 0001:00036b9c       POLICYQUALINFO_free        00047b9c f   libeay32:v3_cpols.obj
 0001:00036bb4       USERNOTICE_it              00047bb4 f   libeay32:v3_cpols.obj
 0001:00036bc0       NOTICEREF_it               00047bc0 f   libeay32:v3_cpols.obj
 0001:00037854       BASIC_CONSTRAINTS_it       00048854 f   libeay32:v3_bcons.obj
 0001:00037860       BASIC_CONSTRAINTS_free     00048860 f   libeay32:v3_bcons.obj
 0001:00037a04       PKEY_USAGE_PERIOD_it       00048a04 f   libeay32:v3_pku.obj
 0001:00037ac0       i2v_ASN1_BIT_STRING        00048ac0 f   libeay32:v3_bitst.obj
 0001:00037b24       v2i_ASN1_BIT_STRING        00048b24 f   libeay32:v3_bitst.obj
 0001:00037ca4       i2s_ASN1_OCTET_STRING      00048ca4 f   libeay32:v3_skey.obj
 0001:00037cc0       s2i_ASN1_OCTET_STRING      00048cc0 f   libeay32:v3_skey.obj
 0001:00037fec       X509V3_get_section         00048fec f   libeay32:v3_conf.obj
 0001:0003805c       X509V3_section_free        0004905c f   libeay32:v3_conf.obj
 0001:000380f8       X509_REQ_INFO_it           000490f8 f   libeay32:x_req.obj
 0001:00038104       X509_digest                00049104 f   libeay32:x_all.obj
 0001:00038140       X509_CRL_digest            00049140 f   libeay32:x_all.obj
 0001:0003817c       X509at_get_attr_count      0004917c f   libeay32:x509_att.obj
 0001:0003818c       X509at_get_attr_by_OBJ     0004918c f   libeay32:x509_att.obj
 0001:000381f0       X509at_add1_attr           000491f0 f   libeay32:x509_att.obj
 0001:000382c4       X509_ATTRIBUTE_set1_object 000492c4 f   libeay32:x509_att.obj
 0001:00038308       X509_ATTRIBUTE_set1_data   00049308 f   libeay32:x509_att.obj
 0001:0003847c       X509at_get_attr_by_NID     0004947c f   libeay32:x509_att.obj
 0001:000384b8       X509_ATTRIBUTE_create_by_OBJ 000494b8 f   libeay32:x509_att.obj
 0001:0003858c       X509_ATTRIBUTE_create_by_NID 0004958c f   libeay32:x509_att.obj
 0001:00038610       X509at_add1_attr_by_NID    00049610 f   libeay32:x509_att.obj
 0001:00038660       ECDH_OpenSSL               00049660 f   libeay32:ech_ossl.obj
 0001:000389b8       ENGINE_get_default_ECDH    000499b8 f   libeay32:tb_ecdh.obj
 0001:000389d4       ENGINE_get_ECDH            000499d4 f   libeay32:tb_ecdh.obj
 0001:000389dc       ec_GFp_mont_group_init     000499dc f   libeay32:ecp_mont.obj
 0001:000389fc       ec_GFp_mont_group_finish   000499fc f   libeay32:ecp_mont.obj
 0001:00038a48       ec_GFp_mont_group_clear_finish 00049a48 f   libeay32:ecp_mont.obj
 0001:00038a94       ec_GFp_mont_group_copy     00049a94 f   libeay32:ecp_mont.obj
 0001:00038b64       ec_GFp_mont_group_set_curve 00049b64 f   libeay32:ecp_mont.obj
 0001:00038cc4       ec_GFp_mont_field_mul      00049cc4 f   libeay32:ecp_mont.obj
 0001:00038d34       ec_GFp_mont_field_sqr      00049d34 f   libeay32:ecp_mont.obj
 0001:00038da0       ec_GFp_mont_field_encode   00049da0 f   libeay32:ecp_mont.obj
 0001:00038e10       ec_GFp_mont_field_decode   00049e10 f   libeay32:ecp_mont.obj
 0001:00038e70       ec_GFp_mont_field_set_to_one 00049e70 f   libeay32:ecp_mont.obj
 0001:00038ed4       EC_GFp_mont_method         00049ed4 f   libeay32:ecp_mont.obj
 0001:00038ee0       ec_GFp_nist_group_copy     00049ee0 f   libeay32:ecp_nist.obj
 0001:00038efc       ec_GFp_nist_group_set_curve 00049efc f   libeay32:ecp_nist.obj
 0001:00039048       ec_GFp_nist_field_mul      0004a048 f   libeay32:ecp_nist.obj
 0001:00039124       ec_GFp_nist_field_sqr      0004a124 f   libeay32:ecp_nist.obj
 0001:000391f0       EC_GFp_nist_method         0004a1f0 f   libeay32:ecp_nist.obj
 0001:000391fc       ec_GF2m_simple_group_init  0004a1fc f   libeay32:ec2_smpl.obj
 0001:00039228       ec_GF2m_simple_group_finish 0004a228 f   libeay32:ec2_smpl.obj
 0001:00039250       ec_GF2m_simple_group_clear_finish 0004a250 f   libeay32:ec2_smpl.obj
 0001:00039298       ec_GF2m_simple_group_copy  0004a298 f   libeay32:ec2_smpl.obj
 0001:000393e4       ec_GF2m_simple_group_set_curve 0004a3e4 f   libeay32:ec2_smpl.obj
 0001:00039554       ec_GF2m_simple_group_get_curve 0004a554 f   libeay32:ec2_smpl.obj
 0001:000395d0       ec_GF2m_simple_group_get_degree 0004a5d0 f   libeay32:ec2_smpl.obj
 0001:000395e8       ec_GF2m_simple_group_check_discriminant 0004a5e8 f   libeay32:ec2_smpl.obj
 0001:0003969c       ec_GF2m_simple_point_init  0004a69c f   libeay32:ec2_smpl.obj
 0001:000396c8       ec_GF2m_simple_point_finish 0004a6c8 f   libeay32:ec2_smpl.obj
 0001:000396f0       ec_GF2m_simple_point_clear_finish 0004a6f0 f   libeay32:ec2_smpl.obj
 0001:00039720       ec_GF2m_simple_point_copy  0004a720 f   libeay32:ec2_smpl.obj
 0001:00039788       ec_GF2m_simple_point_set_to_infinity 0004a788 f   libeay32:ec2_smpl.obj
 0001:000397b0       ec_GF2m_simple_point_set_affine_coordinates 0004a7b0 f   libeay32:ec2_smpl.obj
 0001:0003987c       ec_GF2m_simple_point_get_affine_coordinates 0004a87c f   libeay32:ec2_smpl.obj
 0001:0003996c       ec_GF2m_simple_add         0004a96c f   libeay32:ec2_smpl.obj
 0001:00039d70       ec_GF2m_simple_dbl         0004ad70 f   libeay32:ec2_smpl.obj
 0001:00039d94       ec_GF2m_simple_invert      0004ad94 f   libeay32:ec2_smpl.obj
 0001:00039e00       ec_GF2m_simple_is_at_infinity 0004ae00 f   libeay32:ec2_smpl.obj
 0001:00039e14       ec_GF2m_simple_is_on_curve 0004ae14 f   libeay32:ec2_smpl.obj
 0001:00039fa4       ec_GF2m_simple_cmp         0004afa4 f   libeay32:ec2_smpl.obj
 0001:0003a130       ec_GF2m_simple_make_affine 0004b130 f   libeay32:ec2_smpl.obj
 0001:0003a234       ec_GF2m_simple_points_make_affine 0004b234 f   libeay32:ec2_smpl.obj
 0001:0003a29c       ec_GF2m_simple_field_mul   0004b29c f   libeay32:ec2_smpl.obj
 0001:0003a2d8       ec_GF2m_simple_field_sqr   0004b2d8 f   libeay32:ec2_smpl.obj
 0001:0003a2fc       ec_GF2m_simple_field_div   0004b2fc f   libeay32:ec2_smpl.obj
 0001:0003a338       EC_GF2m_simple_method      0004b338 f   libeay32:ec2_smpl.obj
 0001:0003a344       BN_mod_exp2_mont           0004b344 f   libeay32:bn_exp2.obj
 0001:0003a9f8       X509_REVOKED_it            0004b9f8 f   libeay32:x_crl.obj
 0001:0003aa04       X509_CRL_INFO_it           0004ba04 f   libeay32:x_crl.obj
 0001:0003ac94       X509_CRL_it                0004bc94 f   libeay32:x_crl.obj
 0001:0003b114       X509_CINF_it               0004c114 f   libeay32:x_x509.obj
 0001:0003b210       X509_it                    0004c210 f   libeay32:x_x509.obj
 0001:0003b21c       X509_free                  0004c21c f   libeay32:x_x509.obj
 0001:0003b234       CMS_stream                 0004c234 f   libeay32:cms_io.obj
 0001:0003b2d0       BIO_f_md                   0004c2d0 f   libeay32:bio_md.obj
 0001:0003b63c       BIO_s_mem                  0004c63c f   libeay32:bss_mem.obj
 0001:0003b648       BIO_new_mem_buf            0004c648 f   libeay32:bss_mem.obj
 0001:0003bad4       BIO_s_null                 0004cad4 f   libeay32:bss_null.obj
 0001:0003bb88       cms_DigestedData_init_bio  0004cb88 f   libeay32:cms_dd.obj
 0001:0003bba0       cms_DigestedData_do_final  0004cba0 f   libeay32:cms_dd.obj
 0001:0003bca0       BIO_f_cipher               0004cca0 f   libeay32:bio_enc.obj
 0001:0003c278       ASN1_TIME_it               0004d278 f   libeay32:a_time.obj
 0001:0003c284       ASN1_TIME_free             0004d284 f   libeay32:a_time.obj
 0001:0003c29c       ASN1_TIME_adj              0004d29c f   libeay32:a_time.obj
 0001:0003c36c       ASN1_TIME_check            0004d36c f   libeay32:a_time.obj
 0001:0003c3a8       CMS_signed_get_attr_count  0004d3a8 f   libeay32:cms_att.obj
 0001:0003c3bc       CMS_signed_get_attr_by_NID 0004d3bc f   libeay32:cms_att.obj
 0001:0003c3d0       CMS_signed_add1_attr_by_NID 0004d3d0 f   libeay32:cms_att.obj
 0001:0003c400       X509_time_adj_ex           0004d400 f   libeay32:x509_vfy.obj
 0001:0003c49c       X509_gmtime_adj            0004d49c f   libeay32:x509_vfy.obj
 0001:0003c634       EVP_DigestSignInit         0004d634 f   libeay32:m_sigver.obj
 0001:0003c65c       EVP_DigestVerifyInit       0004d65c f   libeay32:m_sigver.obj
 0001:0003c684       EVP_DigestSignFinal        0004d684 f   libeay32:m_sigver.obj
 0001:0003c7c4       EVP_DigestVerifyFinal      0004d7c4 f   libeay32:m_sigver.obj
 0001:0003c898       EVP_SignFinal              0004d898 f   libeay32:p_sign.obj
 0001:0003ca64       PROXY_POLICY_it            0004da64 f   libeay32:v3_pcia.obj
 0001:0003ca70       PROXY_CERT_INFO_EXTENSION_it 0004da70 f   libeay32:v3_pcia.obj
 0001:0003ca7c       PROXY_CERT_INFO_EXTENSION_new 0004da7c f   libeay32:v3_pcia.obj
 0001:0003ca94       PROXY_CERT_INFO_EXTENSION_free 0004da94 f   libeay32:v3_pcia.obj
 0001:0003caac       private_AES_set_encrypt_key 0004daac f   libeay32:aes_core.obj
 0001:0003d090       AES_encrypt                0004e090 f   libeay32:aes_core.obj
 0001:0003d814       ASN1_item_pack             0004e814 f   libeay32:asn_pack.obj
 0001:0003d904       RSA_padding_add_PKCS1_type_1 0004e904 f   libeay32:rsa_pk1.obj
 0001:0003d998       RSA_padding_check_PKCS1_type_1 0004e998 f   libeay32:rsa_pk1.obj
 0001:0003dae0       RSA_padding_add_PKCS1_type_2 0004eae0 f   libeay32:rsa_pk1.obj
 0001:0003dbb8       RSA_padding_check_PKCS1_type_2 0004ebb8 f   libeay32:rsa_pk1.obj
 0001:0003dccc       RSA_padding_add_SSLv23     0004eccc f   libeay32:rsa_ssl.obj
 0001:0003ddb4       RSA_padding_check_SSLv23   0004edb4 f   libeay32:rsa_ssl.obj
 0001:0003df24       RSA_padding_add_none       0004ef24 f   libeay32:rsa_none.obj
 0001:0003dfa4       RSA_padding_check_none     0004efa4 f   libeay32:rsa_none.obj
 0001:0003e020       EC_GROUP_get_basis_type    0004f020 f   libeay32:ec_asn1.obj
 0001:0003e098       EC_GROUP_get_trinomial_basis 0004f098 f   libeay32:ec_asn1.obj
 0001:0003e12c       EC_GROUP_get_pentanomial_basis 0004f12c f   libeay32:ec_asn1.obj
 0001:0003e1f8       X9_62_PENTANOMIAL_it       0004f1f8 f   libeay32:ec_asn1.obj
 0001:0003e210       X9_62_CHARACTERISTIC_TWO_it 0004f210 f   libeay32:ec_asn1.obj
 0001:0003e228       X9_62_FIELDID_it           0004f228 f   libeay32:ec_asn1.obj
 0001:0003e234       X9_62_CURVE_it             0004f234 f   libeay32:ec_asn1.obj
 0001:0003e240       ECPARAMETERS_it            0004f240 f   libeay32:ec_asn1.obj
 0001:0003e24c       ECPKPARAMETERS_it          0004f24c f   libeay32:ec_asn1.obj
 0001:0003f74c       d2i_ECPKParameters         0005074c f   libeay32:ec_asn1.obj
 0001:0003f818       i2d_ECPKParameters         00050818 f   libeay32:ec_asn1.obj
 0001:0003f8bc       d2i_ECPrivateKey           000508bc f   libeay32:ec_asn1.obj
 0001:0003fb78       i2d_ECPrivateKey           00050b78 f   libeay32:ec_asn1.obj
 0001:0003fefc       i2d_ECParameters           00050efc f   libeay32:ec_asn1.obj
 0001:0003ff4c       d2i_ECParameters           00050f4c f   libeay32:ec_asn1.obj
 0001:00040030       o2i_ECPublicKey            00051030 f   libeay32:ec_asn1.obj
 0001:00040144       i2o_ECPublicKey            00051144 f   libeay32:ec_asn1.obj
 0001:000402c4       PKCS8_PRIV_KEY_INFO_it     000512c4 f   libeay32:p8_pkey.obj
 0001:000402d0       PKCS8_pkey_set0            000512d0 f   libeay32:p8_pkey.obj
 0001:00040380       PKCS8_pkey_get0            00051380 f   libeay32:p8_pkey.obj
 0001:00040568       ECPKParameters_print       00051568 f   libeay32:eck_prn.obj
 0001:00040b50       ASN1_bn_print              00051b50 f   libeay32:t_pkey.obj
 0001:00040d44       EC_POINT_point2bn          00051d44 f   libeay32:ec_print.obj
 0001:00040df0       PKCS7_ctrl                 00051df0 f   libeay32:pk7_lib.obj
 0001:00040f14       PKCS7_SIGNER_INFO_get0_algs 00051f14 f   libeay32:pk7_lib.obj
 0001:00040f44       PKCS7_RECIP_INFO_get0_alg  00051f44 f   libeay32:pk7_lib.obj
 0001:00040f54       PKCS7_stream               00051f54 f   libeay32:pk7_lib.obj
 0001:00041028       X509_signature_dump        00052028 f   libeay32:t_x509.obj
 0001:00041114       ASN1_STRING_print          00052114 f   libeay32:t_x509.obj
 0001:000411e8       ASN1_GENERALIZEDTIME_print 000521e8 f   libeay32:t_x509.obj
 0001:00041404       X509_NAME_print            00052404 f   libeay32:t_x509.obj
 0001:00041590       d2i_DHparams               00052590 f   libeay32:dh_asn1.obj
 0001:000415a8       i2d_DHparams               000525a8 f   libeay32:dh_asn1.obj
 0001:0004161c       RSA_PSS_PARAMS_it          0005261c f   libeay32:rsa_asn1.obj
 0001:00041628       d2i_RSA_PSS_PARAMS         00052628 f   libeay32:rsa_asn1.obj
 0001:00041640       RSA_PSS_PARAMS_new         00052640 f   libeay32:rsa_asn1.obj
 0001:00041658       RSA_PSS_PARAMS_free        00052658 f   libeay32:rsa_asn1.obj
 0001:00041670       d2i_RSAPrivateKey          00052670 f   libeay32:rsa_asn1.obj
 0001:00041688       i2d_RSAPrivateKey          00052688 f   libeay32:rsa_asn1.obj
 0001:000416a0       d2i_RSAPublicKey           000526a0 f   libeay32:rsa_asn1.obj
 0001:000416b8       i2d_RSAPublicKey           000526b8 f   libeay32:rsa_asn1.obj
 0001:000416d0       i2a_ASN1_INTEGER           000526d0 f   libeay32:f_int.obj
 0001:00041818       OPENSSL_asc2uni            00052818 f   libeay32:p12_utl.obj
 0001:000423c0       X509_NAME_print_ex         000533c0 f   libeay32:a_strex.obj
 0001:00042404       ASN1_STRING_to_UTF8        00053404 f   libeay32:a_strex.obj
 0001:00042768       ASN1_mbstring_ncopy        00053768 f   libeay32:a_mbstr.obj
 0001:00042c58       ASN1_mbstring_copy         00053c58 f   libeay32:a_mbstr.obj
 0001:000438f4       ASN1_generate_v3           000548f4 f   libeay32:asn1_gen.obj
 0001:00043d24       NCONF_default              00054d24 f   libeay32:conf_def.obj
 0001:00044ca4       _CONF_get_section          00055ca4 f   libeay32:conf_api.obj
 0001:00044cec       _CONF_get_section_values   00055cec f   libeay32:conf_api.obj
 0001:00044d0c       _CONF_add_string           00055d0c f   libeay32:conf_api.obj
 0001:00044d84       _CONF_get_string           00055d84 f   libeay32:conf_api.obj
 0001:00044ee8       _CONF_new_data             00055ee8 f   libeay32:conf_api.obj
 0001:00044f38       _CONF_new_section          00055f38 f   libeay32:conf_api.obj
 0001:000450a8       _CONF_free_data            000560a8 f   libeay32:conf_api.obj
 0001:000450fc       OCSP_SIGNATURE_it          000560fc f   libeay32:ocsp_asn.obj
 0001:00045108       OCSP_CERTID_it             00056108 f   libeay32:ocsp_asn.obj
 0001:00045114       OCSP_ONEREQ_it             00056114 f   libeay32:ocsp_asn.obj
 0001:00045120       OCSP_REQINFO_it            00056120 f   libeay32:ocsp_asn.obj
 0001:0004512c       OCSP_RESPBYTES_it          0005612c f   libeay32:ocsp_asn.obj
 0001:00045138       OCSP_RESPID_it             00056138 f   libeay32:ocsp_asn.obj
 0001:00045144       OCSP_REVOKEDINFO_it        00056144 f   libeay32:ocsp_asn.obj
 0001:00045150       OCSP_CERTSTATUS_it         00056150 f   libeay32:ocsp_asn.obj
 0001:0004515c       OCSP_SINGLERESP_it         0005615c f   libeay32:ocsp_asn.obj
 0001:00045168       OCSP_RESPDATA_it           00056168 f   libeay32:ocsp_asn.obj
 0001:00045174       OCSP_CRLID_it              00056174 f   libeay32:ocsp_asn.obj
 0001:00045180       OCSP_SERVICELOC_it         00056180 f   libeay32:ocsp_asn.obj
 0001:0004518c       i2a_ASN1_STRING            0005618c f   libeay32:f_string.obj
 0001:000452a8       AUTHORITY_KEYID_it         000562a8 f   libeay32:v3_akeya.obj
 0001:000452b4       AUTHORITY_KEYID_new        000562b4 f   libeay32:v3_akeya.obj
 0001:000452cc       AUTHORITY_KEYID_free       000562cc f   libeay32:v3_akeya.obj
 0001:000452e4       ASN1_item_verify           000562e4 f   libeay32:a_verify.obj
 0001:00045584       NETSCAPE_SPKAC_it          00056584 f   libeay32:x_spki.obj
 0001:00045620       PKCS7_it                   00056620 f   libeay32:pk7_asn1.obj
 0001:0004562c       PKCS7_SIGNED_it            0005662c f   libeay32:pk7_asn1.obj
 0001:00045658       PKCS7_SIGNER_INFO_it       00056658 f   libeay32:pk7_asn1.obj
 0001:00045664       PKCS7_ISSUER_AND_SERIAL_it 00056664 f   libeay32:pk7_asn1.obj
 0001:00045670       PKCS7_ENVELOPE_it          00056670 f   libeay32:pk7_asn1.obj
 0001:0004569c       PKCS7_RECIP_INFO_it        0005669c f   libeay32:pk7_asn1.obj
 0001:000456a8       PKCS7_ENC_CONTENT_it       000566a8 f   libeay32:pk7_asn1.obj
 0001:000456b4       PKCS7_SIGN_ENVELOPE_it     000566b4 f   libeay32:pk7_asn1.obj
 0001:000456c0       PKCS7_ENCRYPT_it           000566c0 f   libeay32:pk7_asn1.obj
 0001:000456cc       PKCS7_DIGEST_it            000566cc f   libeay32:pk7_asn1.obj
 0001:000456d8       PKCS7_ATTR_SIGN_it         000566d8 f   libeay32:pk7_asn1.obj
 0001:000456e4       ASN1_item_digest           000566e4 f   libeay32:a_digest.obj
 0001:00045764       ec_GFp_simple_group_init   00056764 f   libeay32:ecp_smpl.obj
 0001:00045798       ec_GFp_simple_group_finish 00056798 f   libeay32:ecp_smpl.obj
 0001:000457c0       ec_GFp_simple_group_clear_finish 000567c0 f   libeay32:ecp_smpl.obj
 0001:000457e8       ec_GFp_simple_group_copy   000567e8 f   libeay32:ecp_smpl.obj
 0001:00045850       ec_GFp_simple_group_set_curve 00056850 f   libeay32:ecp_smpl.obj
 0001:00045a1c       ec_GFp_simple_group_get_curve 00056a1c f   libeay32:ecp_smpl.obj
 0001:00045b4c       ec_GFp_simple_group_get_degree 00056b4c f   libeay32:ecp_smpl.obj
 0001:00045b60       ec_GFp_simple_group_check_discriminant 00056b60 f   libeay32:ecp_smpl.obj
 0001:00045d84       ec_GFp_simple_point_init   00056d84 f   libeay32:ecp_smpl.obj
 0001:00045db8       ec_GFp_simple_point_finish 00056db8 f   libeay32:ecp_smpl.obj
 0001:00045de0       ec_GFp_simple_point_clear_finish 00056de0 f   libeay32:ecp_smpl.obj
 0001:00045e10       ec_GFp_simple_point_copy   00056e10 f   libeay32:ecp_smpl.obj
 0001:00045e78       ec_GFp_simple_point_set_to_infinity 00056e78 f   libeay32:ecp_smpl.obj
 0001:00045ea0       ec_GFp_simple_set_Jprojective_coordinates_GFp 00056ea0 f   libeay32:ecp_smpl.obj
 0001:00046050       ec_GFp_simple_get_Jprojective_coordinates_GFp 00057050 f   libeay32:ecp_smpl.obj
 0001:000461a0       ec_GFp_simple_point_set_affine_coordinates 000571a0 f   libeay32:ecp_smpl.obj
 0001:00046220       ec_GFp_simple_point_get_affine_coordinates 00057220 f   libeay32:ecp_smpl.obj
 0001:0004655c       ec_GFp_simple_add          0005755c f   libeay32:ecp_smpl.obj
 0001:00046b6c       ec_GFp_simple_dbl          00057b6c f   libeay32:ecp_smpl.obj
 0001:00047044       ec_GFp_simple_invert       00058044 f   libeay32:ecp_smpl.obj
 0001:0004708c       ec_GFp_simple_is_at_infinity 0005808c f   libeay32:ecp_smpl.obj
 0001:000470a0       ec_GFp_simple_is_on_curve  000580a0 f   libeay32:ecp_smpl.obj
 0001:000473e0       ec_GFp_simple_cmp          000583e0 f   libeay32:ecp_smpl.obj
 0001:000476c4       ec_GFp_simple_make_affine  000586c4 f   libeay32:ecp_smpl.obj
 0001:000477e0       ec_GFp_simple_points_make_affine 000587e0 f   libeay32:ecp_smpl.obj
 0001:00047ce0       ec_GFp_simple_field_mul    00058ce0 f   libeay32:ecp_smpl.obj
 0001:00047d1c       ec_GFp_simple_field_sqr    00058d1c f   libeay32:ecp_smpl.obj
 0001:00047d40       BN_get0_nist_prime_192     00058d40 f   libeay32:bn_nist.obj
 0001:00047d4c       BN_get0_nist_prime_224     00058d4c f   libeay32:bn_nist.obj
 0001:00047d58       BN_get0_nist_prime_256     00058d58 f   libeay32:bn_nist.obj
 0001:00047d64       BN_get0_nist_prime_384     00058d64 f   libeay32:bn_nist.obj
 0001:00047d70       BN_get0_nist_prime_521     00058d70 f   libeay32:bn_nist.obj
 0001:00047dcc       BN_nist_mod_192            00058dcc f   libeay32:bn_nist.obj
 0001:00048094       BN_nist_mod_224            00059094 f   libeay32:bn_nist.obj
 0001:000483f8       BN_nist_mod_256            000593f8 f   libeay32:bn_nist.obj
 0001:000488b4       BN_nist_mod_384            000598b4 f   libeay32:bn_nist.obj
 0001:00048e78       BN_nist_mod_521            00059e78 f   libeay32:bn_nist.obj
 0001:000499dc       ec_GF2m_simple_mul         0005a9dc f   libeay32:ec2_mult.obj
 0001:00049c58       ec_GF2m_precompute_mult    0005ac58 f   libeay32:ec2_mult.obj
 0001:00049c68       ec_GF2m_have_precompute_mult 0005ac68 f   libeay32:ec2_mult.obj
 0001:00049e10       BN_GF2m_add                0005ae10 f   libeay32:bn_gf2m.obj
 0001:00049f04       BN_GF2m_mod_arr            0005af04 f   libeay32:bn_gf2m.obj
 0001:0004a17c       BN_GF2m_mod_sqr_arr        0005b17c f   libeay32:bn_gf2m.obj
 0001:0004a304       BN_GF2m_poly2arr           0005b304 f   libeay32:bn_gf2m.obj
 0001:0004a3a8       BN_GF2m_mod                0005b3a8 f   libeay32:bn_gf2m.obj
 0001:0004a424       BN_GF2m_mod_mul_arr        0005b424 f   libeay32:bn_gf2m.obj
 0001:0004a674       BN_GF2m_mod_mul            0005b674 f   libeay32:bn_gf2m.obj
 0001:0004a738       BN_GF2m_mod_inv            0005b738 f   libeay32:bn_gf2m.obj
 0001:0004ab78       BN_GF2m_mod_div            0005bb78 f   libeay32:bn_gf2m.obj
 0001:0004ac04       BN_GF2m_mod_exp_arr        0005bc04 f   libeay32:bn_gf2m.obj
 0001:0004ad3c       BN_GF2m_mod_sqrt_arr       0005bd3c f   libeay32:bn_gf2m.obj
 0001:0004add8       BN_GF2m_mod_solve_quad_arr 0005bdd8 f   libeay32:bn_gf2m.obj
 0001:0004b138       X509_VAL_it                0005c138 f   libeay32:x_val.obj
 0001:0004b144       policy_cache_free          0005c144 f   libeay32:pcy_cache.obj
 0001:0004b188       X509_CERT_AUX_free         0005c188 f   libeay32:x_x509a.obj
 0001:0004b1a0       ASN1_tag2str               0005c1a0 f   libeay32:asn1_par.obj
 0001:0004b1e0       ASN1_GENERALIZEDTIME_check 0005c1e0 f   libeay32:a_gentm.obj
 0001:0004b3bc       ASN1_GENERALIZEDTIME_adj   0005c3bc f   libeay32:a_gentm.obj
 0001:0004b500       ASN1_UTCTIME_check         0005c500 f   libeay32:a_utctm.obj
 0001:0004b68c       ASN1_UTCTIME_adj           0005c68c f   libeay32:a_utctm.obj
 0001:0004b7fc       OPENSSL_gmtime             0005c7fc f   libeay32:o_time.obj
 0001:0004b974       OPENSSL_gmtime_adj         0005c974 f   libeay32:o_time.obj
 0001:0004bd28       EC_POINT_set_compressed_coordinates_GFp 0005cd28 f   libeay32:ec_oct.obj
 0001:0004be20       EC_POINT_set_compressed_coordinates_GF2m 0005ce20 f   libeay32:ec_oct.obj
 0001:0004bf18       EC_POINT_point2oct         0005cf18 f   libeay32:ec_oct.obj
 0001:0004c028       EC_POINT_oct2point         0005d028 f   libeay32:ec_oct.obj
 0001:0004c120       PKCS12_MAC_DATA_it         0005d120 f   libeay32:p12_asn.obj
 0001:0004c138       PKCS12_BAGS_it             0005d138 f   libeay32:p12_asn.obj
 0001:0004c150       PKCS12_SAFEBAG_it          0005d150 f   libeay32:p12_asn.obj
 0001:0004c15c       UTF8_getc                  0005d15c f   libeay32:a_utf8.obj
 0001:0004c460       UTF8_putc                  0005d460 f   libeay32:a_utf8.obj
 0001:0004da54       PKCS7_dataInit             0005ea54 f   libeay32:pk7_doit.obj
 0001:0004df78       PKCS7_SIGNER_INFO_sign     0005ef78 f   libeay32:pk7_doit.obj
 0001:0004e2e8       PKCS7_add_signed_attribute 0005f2e8 f   libeay32:pk7_doit.obj
 0001:0004e400       PKCS7_dataFinal            0005f400 f   libeay32:pk7_doit.obj
 0001:0004e82c       policy_data_free           0005f82c f   libeay32:pcy_data.obj
 0001:0004e874       EVP_EncodeInit             0005f874 f   libeay32:encode.obj
 0001:0004e88c       EVP_EncodeBlock            0005f88c f   libeay32:encode.obj
 0001:0004e96c       EVP_DecodeInit             0005f96c f   libeay32:encode.obj
 0001:0004e988       EVP_DecodeBlock            0005f988 f   libeay32:encode.obj
 0001:0004eaac       EVP_EncodeUpdate           0005faac f   libeay32:encode.obj
 0001:0004ebd8       EVP_EncodeFinal            0005fbd8 f   libeay32:encode.obj
 0001:0004ec2c       EVP_DecodeUpdate           0005fc2c f   libeay32:encode.obj
 0001:000509dc       ec_GF2m_simple_set_compressed_coordinates 000619dc f   libeay32:ec2_oct.obj
 0001:00050c70       ec_GF2m_simple_point2oct   00061c70 f   libeay32:ec2_oct.obj
 0001:00051014       ec_GF2m_simple_oct2point   00062014 f   libeay32:ec2_oct.obj
 0001:000513c0       ec_GFp_simple_set_compressed_coordinates 000623c0 f   libeay32:ecp_oct.obj
 0001:0005180c       ec_GFp_simple_point2oct    0006280c f   libeay32:ecp_oct.obj
 0001:00051b7c       ec_GFp_simple_oct2point    00062b7c f   libeay32:ecp_oct.obj
 0001:00051eec       PKCS7_add0_attrib_signing_time 00062eec f   libeay32:pk7_attr.obj
 0001:00051f5c       PKCS7_add1_attrib_digest   00062f5c f   libeay32:pk7_attr.obj
 0001:00051fc8       UI_get_string_type         00062fc8 f   libeay32:ui_lib.obj
 0001:00051fd8       UI_get_input_flags         00062fd8 f   libeay32:ui_lib.obj
 0001:00051fe8       UI_get0_output_string      00062fe8 f   libeay32:ui_lib.obj
 0001:00051ff8       UI_get0_action_string      00062ff8 f   libeay32:ui_lib.obj
 0001:00052024       UI_get0_result_string      00063024 f   libeay32:ui_lib.obj
 0001:00052048       UI_get0_test_string        00063048 f   libeay32:ui_lib.obj
 0001:0005206c       BN_kronecker               0006306c f   libeay32:bn_kron.obj
 0001:00052320       BN_mod_sqrt                00063320 f   libeay32:bn_sqrt.obj
 0001:00052d78       raise                      00063d78 f   wcecompatex:signal.obj
 0001:00052d80       getenv                     00063d80 f   wcecompatex:env.obj
 0001:0005314c       w32_filetime_to_time_t     0006414c f   wcecompatex:time.obj
 0001:000531ec       time                       000641ec f   wcecompatex:time.obj
 0001:00053250       dayOfYear                  00064250 f   wcecompatex:time.obj
 0001:00053324       gmtime                     00064324 f   wcecompatex:time.obj
 0001:000533e4       ?unicode2ascii@@YAXPB_WPAD@Z 000643e4 f   wcecompatex:ts_string.obj
 0001:00053438       ?ascii2unicode@@YAXPBDPA_WH@Z 00064438 f   wcecompatex:ts_string.obj
 0001:000534d8       ?unicode2ascii@@YAXPB_WPADH@Z 000644d8 f   wcecompatex:ts_string.obj
 0001:00053568       sprintf                    00064568 f   coredll:COREDLL.dll
 0001:00053578       printf                     00064578 f   coredll:COREDLL.dll
 0001:00053588       strcmp                     00064588 f   coredll:COREDLL.dll
 0001:00053598       memset                     00064598 f   coredll:COREDLL.dll
 0001:000535a8       memcpy                     000645a8 f   coredll:COREDLL.dll
 0001:000535b8       memcmp                     000645b8 f   coredll:COREDLL.dll
 0001:000535c8       MessageBoxW                000645c8 f   coredll:COREDLL.dll
 0001:000535d8       _vsnwprintf                000645d8 f   coredll:COREDLL.dll
 0001:000535e8       MultiByteToWideChar        000645e8 f   coredll:COREDLL.dll
 0001:000535f8       strlen                     000645f8 f   coredll:COREDLL.dll
 0001:00053608       _getstdfilex               00064608 f   coredll:COREDLL.dll
 0001:00053618       fprintf                    00064618 f   coredll:COREDLL.dll
 0001:00053628       free                       00064628 f   coredll:COREDLL.dll
 0001:00053638       realloc                    00064638 f   coredll:COREDLL.dll
 0001:00053648       malloc                     00064648 f   coredll:COREDLL.dll
 0001:00053658       strcpy                     00064658 f   coredll:COREDLL.dll
 0001:00053668       strncpy                    00064668 f   coredll:COREDLL.dll
 0001:00053678       strchr                     00064678 f   coredll:COREDLL.dll
 0001:00053688       memchr                     00064688 f   coredll:COREDLL.dll
 0001:00053698       qsort                      00064698 f   coredll:COREDLL.dll
 0001:000536a8       _isctype                   000646a8 f   coredll:COREDLL.dll
 0001:000536b8       atoi                       000646b8 f   coredll:COREDLL.dll
 0001:000536c8       tolower                    000646c8 f   coredll:COREDLL.dll
 0001:000536d8       strncmp                    000646d8 f   coredll:COREDLL.dll
 0001:000536e8       sscanf                     000646e8 f   coredll:COREDLL.dll
 0001:000536f8       _strnicmp                  000646f8 f   coredll:COREDLL.dll
 0001:00053708       fclose                     00064708 f   coredll:COREDLL.dll
 0001:00053718       GetLastError               00064718 f   coredll:COREDLL.dll
 0001:00053728       ferror                     00064728 f   coredll:COREDLL.dll
 0001:00053738       fread                      00064738 f   coredll:COREDLL.dll
 0001:00053748       fwrite                     00064748 f   coredll:COREDLL.dll
 0001:00053758       _setmode                   00064758 f   coredll:COREDLL.dll
 0001:00053768       _fileno                    00064768 f   coredll:COREDLL.dll
 0001:00053778       fopen                      00064778 f   coredll:COREDLL.dll
 0001:00053788       fseek                      00064788 f   coredll:COREDLL.dll
 0001:00053798       ftell                      00064798 f   coredll:COREDLL.dll
 0001:000537a8       feof                       000647a8 f   coredll:COREDLL.dll
 0001:000537b8       fflush                     000647b8 f   coredll:COREDLL.dll
 0001:000537c8       strcat                     000647c8 f   coredll:COREDLL.dll
 0001:000537d8       fgets                      000647d8 f   coredll:COREDLL.dll
 0001:000537e8       _wfopen                    000647e8 f   coredll:COREDLL.dll
 0001:000537f8       strrchr                    000647f8 f   coredll:COREDLL.dll
 0001:00053808       GetTickCount               00064808 f   coredll:COREDLL.dll
 0001:00053818       QueryPerformanceCounter    00064818 f   coredll:COREDLL.dll
 0001:00053828       GlobalMemoryStatus         00064828 f   coredll:COREDLL.dll
 0001:00053838       CryptReleaseContext        00064838 f   coredll:COREDLL.dll
 0001:00053848       CryptGenRandom             00064848 f   coredll:COREDLL.dll
 0001:00053858       CryptAcquireContextW       00064858 f   coredll:COREDLL.dll
 0001:00053868       GetVersionExW              00064868 f   coredll:COREDLL.dll
 0001:00053878       strtoul                    00064878 f   coredll:COREDLL.dll
 0001:00053888       _stricmp                   00064888 f   coredll:COREDLL.dll
 0001:00053898       memmove                    00064898 f   coredll:COREDLL.dll
 0001:000538a8       LoadLibraryW               000648a8 f   coredll:COREDLL.dll
 0001:000538b8       SetLastError               000648b8 f   coredll:COREDLL.dll
 0001:000538c8       FreeLibrary                000648c8 f   coredll:COREDLL.dll
 0001:000538d8       GetProcAddressA            000648d8 f   coredll:COREDLL.dll
 0001:000538e8       strstr                     000648e8 f   coredll:COREDLL.dll
 0001:000538f8       WideCharToMultiByte        000648f8 f   coredll:COREDLL.dll
 0001:00053908       fputs                      00064908 f   coredll:COREDLL.dll
 0001:00053918       SystemTimeToFileTime       00064918 f   coredll:COREDLL.dll
 0001:00053928       GetSystemTime              00064928 f   coredll:COREDLL.dll
 0001:00053938       FileTimeToSystemTime       00064938 f   coredll:COREDLL.dll
 0001:00053948       _cinit                     00064948 f   corelibc:crt0dat.obj
 0001:00053ab8       exit                       00064ab8 f   corelibc:crt0dat.obj
 0001:00053ad0       _exit                      00064ad0 f   corelibc:crt0dat.obj
 0001:00053af0       WinMainCRTStartup          00064af0 f   corelibc:pegwmain.obj
 0001:00053b64       WinMain                    00064b64 f   wcecompatex:winmain.obj
 0001:00053ec0       ?processCmdLine@@YAHPA_WPAPAPAD@Z 00064ec0 f   wcecompatex:args.obj
 0001:000542fc       LocalFree                  000652fc f   coredll:COREDLL.dll
 0001:0005430c       _XcptFilter                0006530c f   coredll:COREDLL.dll
 0001:0005431c       __C_specific_handler       0006531c f   coredll:COREDLL.dll
 0001:0005432c       FindFirstFileW             0006532c f   coredll:COREDLL.dll
 0001:0005433c       FindClose                  0006533c f   coredll:COREDLL.dll
 0001:0005434c       FindNextFileW              0006534c f   coredll:COREDLL.dll
 0001:0005435c       GetModuleFileNameW         0006535c f   coredll:COREDLL.dll
 0002:00000000       ??_C@_0CB@OIOGDKDE@56be34521d144c88dbb8c733f0e8b3f6@ 00066000     hmactest.obj
 0002:00000024       ??_C@_0CB@EPOHPAIE@750c783e6ab0b503eaa86e310a5db738@ 00066024     hmactest.obj
 0002:00000048       ??_C@_0CB@LIDOCFNA@9294727a3638bb1c13f48ef8158bfc9d@ 00066048     hmactest.obj
 0002:0000006c       ??_C@_0CB@PKKAKCNN@e9139d1e6ee064ef8cf514fc7dc83e86@ 0006606c     hmactest.obj
 0002:00000090       ??_C@_04NOJCDH@?$CF02x?$AA@ 00066090     hmactest.obj
 0002:00000098       ??_C@_0M@NJKLCIBI@test?5?$CFd?5ok?6?$AA@ 00066098     hmactest.obj
 0002:000000a4       ??_C@_0CF@IABKELGM@error?5calculating?5HMAC?5on?5?$CFd?5ent@ 000660a4     hmactest.obj
 0002:000000cc       ??_C@_0BG@IMOFIMJK@got?5?$CFs?5instead?5of?5?$CFs?6?$AA@ 000660cc     hmactest.obj
 0002:000000e4       ??_C@_0CF@JFAAPJDH@len?$DO?$DN0?5?$CG?$CG?5len?$DM?$DN?$CIint?$CJsizeof?$CIctx?9?$DO@ 000660e4     libeay32:hmac.obj
 0002:0000010c       ??_C@_0BL@OKHNPHMK@j?5?$DM?$DN?5?$CIint?$CJsizeof?$CIctx?9?$DOkey?$CJ?$AA@ 0006610c     libeay32:hmac.obj
 0002:00000128       ??_C@_0EL@FKOMILBN@d?3?2wm653wehh?2platform?2mvv210?2src@ 00066128     libeay32:hmac.obj
 0002:000001c8       ??_C@_0EM@DLBKEKNP@d?3?2wm653wehh?2platform?2mvv210?2src@ 000661c8     libeay32:digest.obj
 0002:00000214       ??_C@_0CI@KPJFNDOF@ctx?9?$DOdigest?9?$DOmd_size?5?$DM?$DN?5EVP_MAX_@ 00066214     libeay32:digest.obj
 0002:000002ec       ??_C@_05NEEKIFMD@fips2?$AA@ 000662ec     libeay32:cryptlib.obj
 0002:000002f4       ??_C@_04DJGCHAOD@fips?$AA@ 000662f4     libeay32:cryptlib.obj
 0002:000002fc       ??_C@_04OLDKMDKP@comp?$AA@ 000662fc     libeay32:cryptlib.obj
 0002:00000304       ??_C@_05ODGDKDLF@store?$AA@ 00066304     libeay32:cryptlib.obj
 0002:0000030c       ??_C@_0M@FNJFEIGB@ec_pre_comp?$AA@ 0006630c     libeay32:cryptlib.obj
 0002:00000318       ??_C@_02LAJDHPIK@bn?$AA@   00066318     libeay32:cryptlib.obj
 0002:0000031c       ??_C@_04KDGGCKGB@ecdh?$AA@ 0006631c     libeay32:cryptlib.obj
 0002:00000324       ??_C@_02HCBHEC@ec?$AA@     00066324     libeay32:cryptlib.obj
 0002:00000328       ??_C@_05FGIDCBJD@ecdsa?$AA@ 00066328     libeay32:cryptlib.obj
 0002:00000330       ??_C@_02OGLLFMLI@ui?$AA@   00066330     libeay32:cryptlib.obj
 0002:00000334       ??_C@_06LOBMEHPF@engine?$AA@ 00066334     libeay32:cryptlib.obj
 0002:0000033c       ??_C@_07HGGNMPAJ@dynlock?$AA@ 0006633c     libeay32:cryptlib.obj
 0002:00000344       ??_C@_03NOCNOBNG@dso?$AA@  00066344     libeay32:cryptlib.obj
 0002:00000348       ??_C@_0O@PMFKBDME@debug_malloc2?$AA@ 00066348     libeay32:cryptlib.obj
 0002:00000358       ??_C@_02OCEEKELO@dh?$AA@   00066358     libeay32:cryptlib.obj
 0002:0000035c       ??_C@_0N@BGAJKBNF@RSA_blinding?$AA@ 0006635c     libeay32:cryptlib.obj
 0002:0000036c       ??_C@_07OMHHFDME@readdir?$AA@ 0006636c     libeay32:cryptlib.obj
 0002:00000374       ??_C@_0O@NKLJGHIL@getservbyname?$AA@ 00066374     libeay32:cryptlib.obj
 0002:00000384       ??_C@_0O@BFBCKHPD@gethostbyname?$AA@ 00066384     libeay32:cryptlib.obj
 0002:00000394       ??_C@_03OHAMFFNA@BIO?$AA@  00066394     libeay32:cryptlib.obj
 0002:00000398       ??_C@_0N@CLEMOJNL@debug_malloc?$AA@ 00066398     libeay32:cryptlib.obj
 0002:000003a8       ??_C@_05NFNCBLNG@rand2?$AA@ 000663a8     libeay32:cryptlib.obj
 0002:000003b0       ??_C@_04HKINGDKC@rand?$AA@ 000663b0     libeay32:cryptlib.obj
 0002:000003b8       ??_C@_0L@NKBFNPDB@ssl_method?$AA@ 000663b8     libeay32:cryptlib.obj
 0002:000003c4       ??_C@_03DIMONNDD@ssl?$AA@  000663c4     libeay32:cryptlib.obj
 0002:000003c8       ??_C@_0O@LOCLBOHA@ssl_sess_cert?$AA@ 000663c8     libeay32:cryptlib.obj
 0002:000003d8       ??_C@_0M@OAEAFGMD@ssl_session?$AA@ 000663d8     libeay32:cryptlib.obj
 0002:000003e4       ??_C@_08INIFBEOB@ssl_cert?$AA@ 000663e4     libeay32:cryptlib.obj
 0002:000003f0       ??_C@_07DNHKIAPH@ssl_ctx?$AA@ 000663f0     libeay32:cryptlib.obj
 0002:000003f8       ??_C@_0L@JCDDFIOK@x509_store?$AA@ 000663f8     libeay32:cryptlib.obj
 0002:00000404       ??_C@_08NBJJIGBN@evp_pkey?$AA@ 00066404     libeay32:cryptlib.obj
 0002:00000410       ??_C@_03DFNMMEBL@rsa?$AA@  00066410     libeay32:cryptlib.obj
 0002:00000414       ??_C@_03EAKOMMFI@dsa?$AA@  00066414     libeay32:cryptlib.obj
 0002:00000418       ??_C@_08BHPLFFMD@x509_req?$AA@ 00066418     libeay32:cryptlib.obj
 0002:00000424       ??_C@_08BJFLLMNA@x509_crl?$AA@ 00066424     libeay32:cryptlib.obj
 0002:00000430       ??_C@_09HNLHIFBP@x509_pkey?$AA@ 00066430     libeay32:cryptlib.obj
 0002:0000043c       ??_C@_09DJEHILFA@x509_info?$AA@ 0006643c     libeay32:cryptlib.obj
 0002:00000448       ??_C@_04BNGFMDFF@x509?$AA@ 00066448     libeay32:cryptlib.obj
 0002:00000450       ??_C@_07OALPHBKG@ex_data?$AA@ 00066450     libeay32:cryptlib.obj
 0002:00000458       ??_C@_03JIDPIAJI@err?$AA@  00066458     libeay32:cryptlib.obj
 0002:0000045c       ??_C@_09OGFJIAEE@?$DM?$DMERROR?$DO?$DO?$AA@ 0006645c     libeay32:cryptlib.obj
 0002:00000468       ??_C@_0EK@JACEKOIE@d?3?2wm653wehh?2platform?2mvv210?2src@ 00066468     libeay32:cryptlib.obj
 0002:000004b4       ??_C@_1BO@DCCMIJEM@?$AAO?$AAp?$AAe?$AAn?$AAS?$AAS?$AAL?$AA?3?$AA?5?$AAF?$AAA?$AAT?$AAA?$AAL?$AA?$AA@ 000664b4     libeay32:cryptlib.obj
 0002:000004d4       ??_C@_1BE@NLCFDLCA@?$AAn?$AAo?$AA?5?$AAs?$AAt?$AAa?$AAc?$AAk?$AA?$DP?$AA?$AA@ 000664d4     libeay32:cryptlib.obj
 0002:000004e8       ??_C@_0DG@JJAMFCAP@?$CFs?$CI?$CFd?$CJ?3?5OpenSSL?5internal?5error?0?5@ 000664e8     libeay32:cryptlib.obj
 0002:00000520       ??_C@_0BA@LPBALOME@pointer?5?$CB?$DN?5NULL?$AA@ 00066520     libeay32:cryptlib.obj
 0002:00000530       ??_C@_0EN@HNCBNDLA@d?3?2wm653wehh?2platform?2mvv210?2src@ 00066530     libeay32:evp_lib.obj
 0002:00000580       ??_C@_0BD@LHHAEAAJ@l?5?$DM?$DN?5sizeof?$CIc?9?$DOiv?$CJ?$AA@ 00066580     libeay32:evp_lib.obj
 0002:00000594       ??_C@_0BD@CKKMELBK@j?5?$DM?$DN?5sizeof?$CIc?9?$DOiv?$CJ?$AA@ 00066594     libeay32:evp_lib.obj
 0002:000005a8       ??_C@_0EO@NHOCECJL@d?3?2wm653wehh?2platform?2mvv210?2src@ 000665a8     libeay32:rsa_sign.obj
 0002:000005f8       ??_C@_0DF@DGNAAHIE@signature?5has?5problems?0?5re?9make?5@ 000665f8     libeay32:rsa_sign.obj
 0002:00000630       MD5_version                00066630     libeay32:md5_dgst.obj
 0002:00000658       ??_C@_0EP@HIMPJABG@d?3?2wm653wehh?2platform?2mvv210?2src@ 00066658     libeay32:pmeth_lib.obj
 0002:000006a8       ??_C@_06IJPNAHC@digest?$AA@ 000666a8     libeay32:pmeth_lib.obj
 0002:000006b0       ??_C@_0FC@GLILKHMO@d?3?2wm653wehh?2platform?2mvv210?2src@ 000666b0     libeay32:tb_digest.obj
 0002:00000730       ??_C@_0DE@JBNNAKOP@called?5a?5function?5that?5was?5disab@ 00066730     libeay32:err.obj
 0002:00000764       ??_C@_0P@LPIEGNHB@internal?5error?$AA@ 00066764     libeay32:err.obj
 0002:00000774       ??_C@_0BI@MMHLKOF@passed?5a?5null?5parameter?$AA@ 00066774     libeay32:err.obj
 0002:0000078c       ??_C@_0CG@JFIACAPA@called?5a?5function?5you?5should?5not@ 0006678c     libeay32:err.obj
 0002:000007b4       ??_C@_0P@BOLAOBGL@malloc?5failure?$AA@ 000667b4     libeay32:err.obj
 0002:000007c4       ??_C@_05FAMCFOJB@fatal?$AA@ 000667c4     libeay32:err.obj
 0002:000007cc       ??_C@_0BB@LLCBNOLO@missing?5asn1?5eos?$AA@ 000667cc     libeay32:err.obj
 0002:000007e0       ??_C@_0BF@JKEELALH@asn1?5length?5mismatch?$AA@ 000667e0     libeay32:err.obj
 0002:000007f8       ??_C@_0BL@PKJJDDDF@expecting?5an?5asn1?5sequence?$AA@ 000667f8     libeay32:err.obj
 0002:00000814       ??_C@_0BJ@KHBMOGBI@bad?5get?5asn1?5object?5call?$AA@ 00066814     libeay32:err.obj
 0002:00000830       ??_C@_0BH@LJENPHMF@bad?5asn1?5object?5header?$AA@ 00066830     libeay32:err.obj
 0002:00000848       ??_C@_0BC@JPACPGKL@nested?5asn1?5error?$AA@ 00066848     libeay32:err.obj
 0002:0000085c       ??_C@_06JPOPAJEJ@TS?5lib?$AA@ 0006685c     libeay32:err.obj
 0002:00000864       ??_C@_08BIAIHGB@OCSP?5lib?$AA@ 00066864     libeay32:err.obj
 0002:00000870       ??_C@_0L@NEGIHAGL@ENGINE?5lib?$AA@ 00066870     libeay32:err.obj
 0002:0000087c       ??_C@_07HLMFDJCH@DSO?5lib?$AA@ 0006687c     libeay32:err.obj
 0002:00000884       ??_C@_08IAGEJILJ@RAND?5lib?$AA@ 00066884     libeay32:err.obj
 0002:00000890       ??_C@_0L@FBHADCPC@PKCS12?5lib?$AA@ 00066890     libeay32:err.obj
 0002:0000089c       ??_C@_0L@OHLIEDB@X509V3?5lib?$AA@ 0006689c     libeay32:err.obj
 0002:000008a8       ??_C@_09PFAKBDBP@PKCS7?5lib?$AA@ 000668a8     libeay32:err.obj
 0002:000008b4       ??_C@_07HOAEPDCA@BIO?5lib?$AA@ 000668b4     libeay32:err.obj
 0002:000008bc       ??_C@_07ILCPHDLL@SSL?5lib?$AA@ 000668bc     libeay32:err.obj
 0002:000008c4       ??_C@_06FNJAJMKI@EC?5lib?$AA@ 000668c4     libeay32:err.obj
 0002:000008cc       ??_C@_0L@GEIMIIEL@CRYPTO?5lib?$AA@ 000668cc     libeay32:err.obj
 0002:000008d8       ??_C@_08GDJNHNLC@CONF?5lib?$AA@ 000668d8     libeay32:err.obj
 0002:000008e4       ??_C@_08HAFIEMCJ@ASN1?5lib?$AA@ 000668e4     libeay32:err.obj
 0002:000008f0       ??_C@_08DGLLDICE@X509?5lib?$AA@ 000668f0     libeay32:err.obj
 0002:000008fc       ??_C@_07EBMPFIFH@DSA?5lib?$AA@ 000668fc     libeay32:err.obj
 0002:00000904       ??_C@_07MKPCAOAJ@PEM?5lib?$AA@ 00066904     libeay32:err.obj
 0002:0000090c       ??_C@_07LHMLCDLI@OBJ?5lib?$AA@ 0006690c     libeay32:err.obj
 0002:00000914       ??_C@_07PJHFFEFC@BUF?5lib?$AA@ 00066914     libeay32:err.obj
 0002:0000091c       ??_C@_07BHNHKGFA@EVP?5lib?$AA@ 0006691c     libeay32:err.obj
 0002:00000924       ??_C@_06JBCAGHNP@DH?5lib?$AA@ 00066924     libeay32:err.obj
 0002:0000092c       ??_C@_07PLBLGAPL@RSA?5lib?$AA@ 0006692c     libeay32:err.obj
 0002:00000934       ??_C@_06CEKJLBPI@BN?5lib?$AA@ 00066934     libeay32:err.obj
 0002:0000093c       ??_C@_0L@NFMIFFDK@system?5lib?$AA@ 0006693c     libeay32:err.obj
 0002:00000948       ??_C@_05FHPOAJDB@fread?$AA@ 00066948     libeay32:err.obj
 0002:00000950       ??_C@_07OPAOJOOA@opendir?$AA@ 00066950     libeay32:err.obj
 0002:00000958       ??_C@_0L@LNCNEFCG@WSAstartup?$AA@ 00066958     libeay32:err.obj
 0002:00000964       ??_C@_06MPKMECK@accept?$AA@ 00066964     libeay32:err.obj
 0002:0000096c       ??_C@_06OODDLKLE@listen?$AA@ 0006696c     libeay32:err.obj
 0002:00000974       ??_C@_04NPNJNMMP@bind?$AA@ 00066974     libeay32:err.obj
 0002:0000097c       ??_C@_0M@PBPOCKDG@ioctlsocket?$AA@ 0006697c     libeay32:err.obj
 0002:00000988       ??_C@_06HBELJPBO@socket?$AA@ 00066988     libeay32:err.obj
 0002:00000990       ??_C@_07KAIBNCHO@connect?$AA@ 00066990     libeay32:err.obj
 0002:00000998       ??_C@_05FFKPLNPJ@fopen?$AA@ 00066998     libeay32:err.obj
 0002:000009a0       ??_C@_0O@PBJMEGGG@HMAC?5routines?$AA@ 000669a0     libeay32:err.obj
 0002:000009b0       ??_C@_0N@MKJBFBO@CMS?5routines?$AA@ 000669b0     libeay32:err.obj
 0002:000009c0       ??_C@_0O@MDPFBMCI@FIPS?5routines?$AA@ 000669c0     libeay32:err.obj
 0002:000009d0       ??_C@_0O@LJIADBLP@OCSP?5routines?$AA@ 000669d0     libeay32:err.obj
 0002:000009e0       ??_C@_0BA@MMHCJFKD@engine?5routines?$AA@ 000669e0     libeay32:err.obj
 0002:000009f0       ??_C@_0BE@IMHDPIMO@time?5stamp?5routines?$AA@ 000669f0     libeay32:err.obj
 0002:00000a04       ??_C@_0BF@BDHLAIEM@DSO?5support?5routines?$AA@ 00066a04     libeay32:err.obj
 0002:00000a1c       ??_C@_0BI@GMPKPCPG@random?5number?5generator?$AA@ 00066a1c     libeay32:err.obj
 0002:00000a34       ??_C@_0BA@KPFPMFD@PKCS12?5routines?$AA@ 00066a34     libeay32:err.obj
 0002:00000a44       ??_C@_0BB@LKDEPKLM@X509?5V3?5routines?$AA@ 00066a44     libeay32:err.obj
 0002:00000a58       ??_C@_0P@FBDCKDAN@PKCS7?5routines?$AA@ 00066a58     libeay32:err.obj
 0002:00000a68       ??_C@_0N@HGNFKBOI@BIO?5routines?$AA@ 00066a68     libeay32:err.obj
 0002:00000a78       ??_C@_0N@GAIJLNCL@SSL?5routines?$AA@ 00066a78     libeay32:err.obj
 0002:00000a88       ??_C@_0BI@NNCFPCDI@elliptic?5curve?5routines?$AA@ 00066a88     libeay32:err.obj
 0002:00000aa0       ??_C@_0BK@GOIAPJCF@common?5libcrypto?5routines?$AA@ 00066aa0     libeay32:err.obj
 0002:00000abc       ??_C@_0BM@FNIFPKKP@configuration?5file?5routines?$AA@ 00066abc     libeay32:err.obj
 0002:00000ad8       ??_C@_0BH@OKMDKJBH@asn1?5encoding?5routines?$AA@ 00066ad8     libeay32:err.obj
 0002:00000af0       ??_C@_0BK@MLDIFNOG@x509?5certificate?5routines?$AA@ 00066af0     libeay32:err.obj
 0002:00000b0c       ??_C@_0N@EPLKEPHE@dsa?5routines?$AA@ 00066b0c     libeay32:err.obj
 0002:00000b1c       ??_C@_0N@PPOIEGDJ@PEM?5routines?$AA@ 00066b1c     libeay32:err.obj
 0002:00000b2c       ??_C@_0BL@GAJLDLEG@object?5identifier?5routines?$AA@ 00066b2c     libeay32:err.obj
 0002:00000b48       ??_C@_0BH@GHBGFOKA@memory?5buffer?5routines?$AA@ 00066b48     libeay32:err.obj
 0002:00000b60       ??_C@_0BK@KCBHLAIJ@digital?5envelope?5routines?$AA@ 00066b60     libeay32:err.obj
 0002:00000b7c       ??_C@_0BI@BELEOFAM@Diffie?9Hellman?5routines?$AA@ 00066b7c     libeay32:err.obj
 0002:00000b94       ??_C@_0N@FLFIDGHD@rsa?5routines?$AA@ 00066b94     libeay32:err.obj
 0002:00000ba4       ??_C@_0BA@BALAMMCD@bignum?5routines?$AA@ 00066ba4     libeay32:err.obj
 0002:00000bb4       ??_C@_0P@KJHLNCML@system?5library?$AA@ 00066bb4     libeay32:err.obj
 0002:00000bc4       ??_C@_0BA@JLJAKIKL@unknown?5library?$AA@ 00066bc4     libeay32:err.obj
 0002:00000bd8       ??_C@_0EJ@LLHEHHLL@d?3?2wm653wehh?2platform?2mvv210?2src@ 00066bd8     libeay32:err.obj
 0002:00000c24       ??_C@_0BE@CGMKPIME@int_err_get?5?$CIerr?4c?$CJ?$AA@ 00066c24     libeay32:err.obj
 0002:00000c38       ??_C@_0BH@KBGLDIDO@int_thread_get?5?$CIerr?4c?$CJ?$AA@ 00066c38     libeay32:err.obj
 0002:00000c4f       ??_C@_00CNPNBAHC@?$AA@     00066c4f     libeay32:err.obj
 0002:00000c50       ??_C@_0FB@FHJDMCII@d?3?2wm653wehh?2platform?2mvv210?2src@ 00066c50     libeay32:eng_init.obj
 0002:00000ca4       STACK_version              00066ca4     libeay32:stack.obj
 0002:00000cd0       ??_C@_0EN@GOCHBJJG@d?3?2wm653wehh?2platform?2mvv210?2src@ 00066cd0     libeay32:stack.obj
 0002:00000d20       ??_C@_0FA@OIJOADBF@d?3?2wm653wehh?2platform?2mvv210?2src@ 00066d20     libeay32:buf_str.obj
 0002:00000d70       ??_C@_0EP@KDEOOFHE@d?3?2wm653wehh?2platform?2mvv210?2src@ 00066d70     libeay32:evp_asn1.obj
 0002:00000dc0       ??_C@_0EP@EOLMKMCC@d?3?2wm653wehh?2platform?2mvv210?2src@ 00066dc0     libeay32:a_object.obj
 0002:00000e10       ??_C@_04HIBGFPH@NULL?$AA@  00066e10     libeay32:a_object.obj
 0002:00000e18       ??_C@_09OJNEAJGG@?$DMINVALID?$DO?$AA@ 00066e18     libeay32:a_object.obj
 0002:0000a5c0       ??_C@_09FHIEKOPH@rsaesOaep?$AA@ 000705c0     libeay32:obj_dat.obj
 0002:0000a5cc       ??_C@_0L@NCPDMLAN@RSAES?9OAEP?$AA@ 000705cc     libeay32:obj_dat.obj
 0002:0000a5d8       ??_C@_0BG@MBIALEGA@aes?9256?9cbc?9hmac?9sha1?$AA@ 000705d8     libeay32:obj_dat.obj
 0002:0000a5f0       ??_C@_0BG@NJKHMG@AES?9256?9CBC?9HMAC?9SHA1?$AA@ 000705f0     libeay32:obj_dat.obj
 0002:0000a608       ??_C@_0BG@GKCPENNE@aes?9192?9cbc?9hmac?9sha1?$AA@ 00070608     libeay32:obj_dat.obj
 0002:0000a620       ??_C@_0BG@KLHGFOHC@AES?9192?9CBC?9HMAC?9SHA1?$AA@ 00070620     libeay32:obj_dat.obj
 0002:0000a638       ??_C@_0BG@CLBGODOC@aes?9128?9cbc?9hmac?9sha1?$AA@ 00070638     libeay32:obj_dat.obj
 0002:0000a650       ??_C@_0BG@OKEPPAEE@AES?9128?9CBC?9HMAC?9SHA1?$AA@ 00070650     libeay32:obj_dat.obj
 0002:0000a668       ??_C@_0N@EFPJLHOG@rc4?9hmac?9md5?$AA@ 00070668     libeay32:obj_dat.obj
 0002:0000a678       ??_C@_0N@MFFPBCGK@RC4?9HMAC?9MD5?$AA@ 00070678     libeay32:obj_dat.obj
 0002:0000a688       ??_C@_0M@FHDOMLNI@aes?9256?9xts?$AA@ 00070688     libeay32:obj_dat.obj
 0002:0000a694       ??_C@_0M@ILDFFBFL@AES?9256?9XTS?$AA@ 00070694     libeay32:obj_dat.obj
 0002:0000a6a0       ??_C@_0M@CGBMJDMF@aes?9128?9xts?$AA@ 000706a0     libeay32:obj_dat.obj
 0002:0000a6ac       ??_C@_0M@PKBHAJEG@AES?9128?9XTS?$AA@ 000706ac     libeay32:obj_dat.obj
 0002:0000a6b8       ??_C@_09FGGKIFKD@rsassaPss?$AA@ 000706b8     libeay32:obj_dat.obj
 0002:0000a6c4       ??_C@_0L@CPMAKEFG@RSASSA?9PSS?$AA@ 000706c4     libeay32:obj_dat.obj
 0002:0000a6d0       ??_C@_04HEIJMEIE@mgf1?$AA@ 000706d0     libeay32:obj_dat.obj
 0002:0000a6d8       ??_C@_04CNDHACFO@MGF1?$AA@ 000706d8     libeay32:obj_dat.obj
 0002:0000a6e0       ??_C@_0BH@FHBOBBKO@Any?5Extended?5Key?5Usage?$AA@ 000706e0     libeay32:obj_dat.obj
 0002:0000a6f8       ??_C@_0BE@FKFLDMON@anyExtendedKeyUsage?$AA@ 000706f8     libeay32:obj_dat.obj
 0002:0000a70c       ??_C@_0BE@PHKLGFJC@id?9camellia256?9wrap?$AA@ 0007070c     libeay32:obj_dat.obj
 0002:0000a720       ??_C@_0BE@GNMGGIAL@id?9camellia192?9wrap?$AA@ 00070720     libeay32:obj_dat.obj
 0002:0000a734       ??_C@_0BE@JENMCLBD@id?9camellia128?9wrap?$AA@ 00070734     libeay32:obj_dat.obj
 0002:0000a748       ??_C@_0M@MJDNCKAH@aes?9256?9ctr?$AA@ 00070748     libeay32:obj_dat.obj
 0002:0000a754       ??_C@_0M@BFDGLAIE@AES?9256?9CTR?$AA@ 00070754     libeay32:obj_dat.obj
 0002:0000a760       ??_C@_0M@BLIDAFIG@aes?9192?9ctr?$AA@ 00070760     libeay32:obj_dat.obj
 0002:0000a76c       ??_C@_0M@MHIIJPAF@AES?9192?9CTR?$AA@ 0007076c     libeay32:obj_dat.obj
 0002:0000a778       ??_C@_0M@LIBPHCBK@aes?9128?9ctr?$AA@ 00070778     libeay32:obj_dat.obj
 0002:0000a784       ??_C@_0M@GEBEOIJJ@AES?9128?9CTR?$AA@ 00070784     libeay32:obj_dat.obj
 0002:0000a790       ??_C@_0BD@OHLFOIJM@id?9aes256?9wrap?9pad?$AA@ 00070790     libeay32:obj_dat.obj
 0002:0000a7a4       ??_C@_0M@BNAOJBGM@aes?9256?9ccm?$AA@ 000707a4     libeay32:obj_dat.obj
 0002:0000a7b0       ??_C@_0O@EDMKMBKB@id?9aes256?9CCM?$AA@ 000707b0     libeay32:obj_dat.obj
 0002:0000a7c0       ??_C@_0M@JCGMAGDL@aes?9256?9gcm?$AA@ 000707c0     libeay32:obj_dat.obj
 0002:0000a7cc       ??_C@_0O@MMKIFGPG@id?9aes256?9GCM?$AA@ 000707cc     libeay32:obj_dat.obj
 0002:0000a7dc       ??_C@_0BD@OPKMLKFB@id?9aes192?9wrap?9pad?$AA@ 000707dc     libeay32:obj_dat.obj
 0002:0000a7f0       ??_C@_0M@MPLALOON@aes?9192?9ccm?$AA@ 000707f0     libeay32:obj_dat.obj
 0002:0000a7fc       ??_C@_0O@JBHEOOCA@id?9aes192?9CCM?$AA@ 000707fc     libeay32:obj_dat.obj
 0002:0000a80c       ??_C@_0M@EANCCJLK@aes?9192?9gcm?$AA@ 0007080c     libeay32:obj_dat.obj
 0002:0000a818       ??_C@_0O@BOBGHJHH@id?9aes192?9GCM?$AA@ 00070818     libeay32:obj_dat.obj
 0002:0000a828       ??_C@_0BD@HMJBEGNL@id?9aes128?9wrap?9pad?$AA@ 00070828     libeay32:obj_dat.obj
 0002:0000a83c       ??_C@_0M@GMCMMJHB@aes?9128?9ccm?$AA@ 0007083c     libeay32:obj_dat.obj
 0002:0000a848       ??_C@_0O@DCOIJJLM@id?9aes128?9CCM?$AA@ 00070848     libeay32:obj_dat.obj
 0002:0000a858       ??_C@_0M@ODEOFOCG@aes?9128?9gcm?$AA@ 00070858     libeay32:obj_dat.obj
 0002:0000a864       ??_C@_0O@LNIKAOOL@id?9aes128?9GCM?$AA@ 00070864     libeay32:obj_dat.obj
 0002:0000a874       ??_C@_04CJMGLDNC@cmac?$AA@ 00070874     libeay32:obj_dat.obj
 0002:0000a87c       ??_C@_04OFPMFBKK@CMAC?$AA@ 0007087c     libeay32:obj_dat.obj
 0002:0000a884       ??_C@_0BA@NJOHMDIG@id?9alg?9PWRI?9KEK?$AA@ 00070884     libeay32:obj_dat.obj
 0002:0000a894       ??_C@_07ILKEFPGB@dmdName?$AA@ 00070894     libeay32:obj_dat.obj
 0002:0000a89c       ??_C@_0BE@MNOFELKF@deltaRevocationList?$AA@ 0007089c     libeay32:obj_dat.obj
 0002:0000a8b0       ??_C@_0BE@KGOGIPEN@supportedAlgorithms?$AA@ 000708b0     libeay32:obj_dat.obj
 0002:0000a8c4       ??_C@_0BA@EKKIBBF@houseIdentifier?$AA@ 000708c4     libeay32:obj_dat.obj
 0002:0000a8d4       ??_C@_0N@FIGDLDDJ@uniqueMember?$AA@ 000708d4     libeay32:obj_dat.obj
 0002:0000a8e4       ??_C@_0BC@IIJOGNNH@distinguishedName?$AA@ 000708e4     libeay32:obj_dat.obj
 0002:0000a8f8       ??_C@_0BE@FKAMNJMM@protocolInformation?$AA@ 000708f8     libeay32:obj_dat.obj
 0002:0000a90c       ??_C@_0BE@NNAGLFEM@enhancedSearchGuide?$AA@ 0007090c     libeay32:obj_dat.obj
 0002:0000a920       ??_C@_0BF@GAAPBDAE@crossCertificatePair?$AA@ 00070920     libeay32:obj_dat.obj
 0002:0000a938       ??_C@_0BK@IMFDMOND@certificateRevocationList?$AA@ 00070938     libeay32:obj_dat.obj
 0002:0000a954       ??_C@_0BI@EODAEBFG@authorityRevocationList?$AA@ 00070954     libeay32:obj_dat.obj
 0002:0000a96c       ??_C@_0O@JJCNKCKK@cACertificate?$AA@ 0007096c     libeay32:obj_dat.obj
 0002:0000a97c       ??_C@_0BA@FEECIELF@userCertificate?$AA@ 0007097c     libeay32:obj_dat.obj
 0002:0000a98c       ??_C@_0N@JHMNNHKM@userPassword?$AA@ 0007098c     libeay32:obj_dat.obj
 0002:0000a99c       ??_C@_07JJAENDGN@seeAlso?$AA@ 0007099c     libeay32:obj_dat.obj
 0002:0000a9a4       ??_C@_0N@NAEJMDPF@roleOccupant?$AA@ 000709a4     libeay32:obj_dat.obj
 0002:0000a9b4       ??_C@_05HEIBENID@owner?$AA@ 000709b4     libeay32:obj_dat.obj
 0002:0000a9bc       ??_C@_06HDFDANIG@member?$AA@ 000709bc     libeay32:obj_dat.obj
 0002:0000a9c4       ??_C@_0BM@NHJFOGBI@supportedApplicationContext?$AA@ 000709c4     libeay32:obj_dat.obj
 0002:0000a9e0       ??_C@_0BE@KHACCONJ@presentationAddress?$AA@ 000709e0     libeay32:obj_dat.obj
 0002:0000a9f4       ??_C@_0BI@MKMMOKIA@preferredDeliveryMethod?$AA@ 000709f4     libeay32:obj_dat.obj
 0002:0000aa0c       ??_C@_0BF@CMAFNEOO@destinationIndicator?$AA@ 00070a0c     libeay32:obj_dat.obj
 0002:0000aa24       ??_C@_0BC@DLLOJDNE@registeredAddress?$AA@ 00070a24     libeay32:obj_dat.obj
 0002:0000aa38       ??_C@_0BI@OAHCBLEE@internationaliSDNNumber?$AA@ 00070a38     libeay32:obj_dat.obj
 0002:0000aa50       ??_C@_0M@MOCAHDLJ@x121Address?$AA@ 00070a50     libeay32:obj_dat.obj
 0002:0000aa5c       ??_C@_0BJ@NDMMBDAB@facsimileTelephoneNumber?$AA@ 00070a5c     libeay32:obj_dat.obj
 0002:0000aa78       ??_C@_0BK@BBNEJJDC@teletexTerminalIdentifier?$AA@ 00070a78     libeay32:obj_dat.obj
 0002:0000aa94       ??_C@_0M@MMDMBPMM@telexNumber?$AA@ 00070a94     libeay32:obj_dat.obj
 0002:0000aaa0       ??_C@_0BA@NCAGJGBF@telephoneNumber?$AA@ 00070aa0     libeay32:obj_dat.obj
 0002:0000aab0       ??_C@_0BL@DENBGONK@physicalDeliveryOfficeName?$AA@ 00070ab0     libeay32:obj_dat.obj
 0002:0000aacc       ??_C@_0O@PCCHCGPG@postOfficeBox?$AA@ 00070acc     libeay32:obj_dat.obj
 0002:0000aadc       ??_C@_0O@KABBPKPG@postalAddress?$AA@ 00070adc     libeay32:obj_dat.obj
 0002:0000aaec       ??_C@_0BB@GFJJGHBI@businessCategory?$AA@ 00070aec     libeay32:obj_dat.obj
 0002:0000ab00       ??_C@_0M@MCCFGANF@searchGuide?$AA@ 00070b00     libeay32:obj_dat.obj
 0002:0000ab0c       ??_C@_0BF@DGGAJJCO@Permanent?5Identifier?$AA@ 00070b0c     libeay32:obj_dat.obj
 0002:0000ab24       ??_C@_0BK@BMFCOPIC@id?9on?9permanentIdentifier?$AA@ 00070b24     libeay32:obj_dat.obj
 0002:0000ab40       ??_C@_0BE@KEJIKEFG@X509v3?5Freshest?5CRL?$AA@ 00070b40     libeay32:obj_dat.obj
 0002:0000ab54       ??_C@_0M@PKNKMHEG@freshestCRL?$AA@ 00070b54     libeay32:obj_dat.obj
 0002:0000ab60       ??_C@_0BI@FMFOLFMC@Microsoft?5Local?5Key?5set?$AA@ 00070b60     libeay32:obj_dat.obj
 0002:0000ab78       ??_C@_0M@LCODBGNO@LocalKeySet?$AA@ 00070b78     libeay32:obj_dat.obj
 0002:0000ab84       ??_C@_04FOBGICMD@hmac?$AA@ 00070b84     libeay32:obj_dat.obj
 0002:0000ab8c       ??_C@_04JCCMGALL@HMAC?$AA@ 00070b8c     libeay32:obj_dat.obj
 0002:0000ab94       ??_C@_0CJ@NCCJHEBD@GOST?5R?53410?92001?5Parameter?5Set?5C@ 00070b94     libeay32:obj_dat.obj
 0002:0000abc0       ??_C@_0BO@LBPHKLOM@id?9GostR3410?92001?9ParamSet?9cc?$AA@ 00070bc0     libeay32:obj_dat.obj
 0002:0000abe0       ??_C@_0DB@BGOOPLFE@GOST?5R?534?411?994?5with?5GOST?5R?534?41@ 00070be0     libeay32:obj_dat.obj
 0002:0000ac14       ??_C@_0CH@JJNMILDM@id?9GostR3411?994?9with?9GostR3410?92@ 00070c14     libeay32:obj_dat.obj
 0002:0000ac3c       ??_C@_0CP@ILDIBBAJ@GOST?5R?534?411?994?5with?5GOST?5R?534?41@ 00070c3c     libeay32:obj_dat.obj
 0002:0000ac6c       ??_C@_0CF@FCIKJGLH@id?9GostR3411?994?9with?9GostR3410?99@ 00070c6c     libeay32:obj_dat.obj
 0002:0000ac94       ??_C@_0BK@IGCJADLM@GOST?534?410?92001?5Cryptocom?$AA@ 00070c94     libeay32:obj_dat.obj
 0002:0000acb0       ??_C@_0L@PKDOCLKG@gost2001cc?$AA@ 00070cb0     libeay32:obj_dat.obj
 0002:0000acbc       ??_C@_0BI@GJIILMEB@GOST?534?410?994?5Cryptocom?$AA@ 00070cbc     libeay32:obj_dat.obj
 0002:0000acd4       ??_C@_08LCDFMIFG@gost94cc?$AA@ 00070cd4     libeay32:obj_dat.obj
 0002:0000ace0       ??_C@_0CB@KNOPDNHN@GOST?528147?989?5Cryptocom?5ParamSet@ 00070ce0     libeay32:obj_dat.obj
 0002:0000ad04       ??_C@_0BD@MEAAKKFJ@id?9Gost28147?989?9cc?$AA@ 00070d04     libeay32:obj_dat.obj
 0002:0000ad18       ??_C@_0BF@PGMBMCGF@id?9GostR3410?994?9bBis?$AA@ 00070d18     libeay32:obj_dat.obj
 0002:0000ad30       ??_C@_0BC@MKOAJFN@id?9GostR3410?994?9b?$AA@ 00070d30     libeay32:obj_dat.obj
 0002:0000ad44       ??_C@_0BF@LBGBLILF@id?9GostR3410?994?9aBis?$AA@ 00070d44     libeay32:obj_dat.obj
 0002:0000ad5c       ??_C@_0BC@CHIDFKJO@id?9GostR3410?994?9a?$AA@ 00070d5c     libeay32:obj_dat.obj
 0002:0000ad70       ??_C@_0CK@GDLEHLKF@id?9GostR3410?92001?9CryptoPro?9XchB@ 00070d70     libeay32:obj_dat.obj
 0002:0000ad9c       ??_C@_0CK@PKFGBNKE@id?9GostR3410?92001?9CryptoPro?9XchA@ 00070d9c     libeay32:obj_dat.obj
 0002:0000adc8       ??_C@_0CH@DLGDIIGO@id?9GostR3410?92001?9CryptoPro?9C?9Pa@ 00070dc8     libeay32:obj_dat.obj
 0002:0000adf0       ??_C@_0CH@PKONFHKO@id?9GostR3410?92001?9CryptoPro?9B?9Pa@ 00070df0     libeay32:obj_dat.obj
 0002:0000ae18       ??_C@_0CH@GDAPDBKP@id?9GostR3410?92001?9CryptoPro?9A?9Pa@ 00070e18     libeay32:obj_dat.obj
 0002:0000ae40       ??_C@_0BP@GEEJLPDI@id?9GostR3410?92001?9TestParamSet?$AA@ 00070e40     libeay32:obj_dat.obj
 0002:0000ae60       ??_C@_0CI@DAANNIN@id?9GostR3410?994?9CryptoPro?9XchC?9P@ 00070e60     libeay32:obj_dat.obj
 0002:0000ae88       ??_C@_0CI@MCIOACEN@id?9GostR3410?994?9CryptoPro?9XchB?9P@ 00070e88     libeay32:obj_dat.obj
 0002:0000aeb0       ??_C@_0CI@FLGMGEEM@id?9GostR3410?994?9CryptoPro?9XchA?9P@ 00070eb0     libeay32:obj_dat.obj
 0002:0000aed8       ??_C@_0CF@LMAJFDGB@id?9GostR3410?994?9CryptoPro?9D?9Para@ 00070ed8     libeay32:obj_dat.obj
 0002:0000af00       ??_C@_0CF@JFDCEGOC@id?9GostR3410?994?9CryptoPro?9C?9Para@ 00070f00     libeay32:obj_dat.obj
 0002:0000af28       ??_C@_0CF@FELMJJCC@id?9GostR3410?994?9CryptoPro?9B?9Para@ 00070f28     libeay32:obj_dat.obj
 0002:0000af50       ??_C@_0CF@MNFOPPCD@id?9GostR3410?994?9CryptoPro?9A?9Para@ 00070f50     libeay32:obj_dat.obj
 0002:0000af78       ??_C@_0BN@NAOAJFAF@id?9GostR3410?994?9TestParamSet?$AA@ 00070f78     libeay32:obj_dat.obj
 0002:0000af98       ??_C@_0CJ@IIADIAJH@id?9Gost28147?989?9CryptoPro?9RIC?91?9@ 00070f98     libeay32:obj_dat.obj
 0002:0000afc4       ??_C@_0CN@IIJDEMNM@id?9Gost28147?989?9CryptoPro?9Oscar?9@ 00070fc4     libeay32:obj_dat.obj
 0002:0000aff4       ??_C@_0CN@EJBNJDBM@id?9Gost28147?989?9CryptoPro?9Oscar?9@ 00070ff4     libeay32:obj_dat.obj
 0002:0000b024       ??_C@_0CF@IEBLBMOP@id?9Gost28147?989?9CryptoPro?9D?9Para@ 00071024     libeay32:obj_dat.obj
 0002:0000b04c       ??_C@_0CF@KNCAAJGM@id?9Gost28147?989?9CryptoPro?9C?9Para@ 0007104c     libeay32:obj_dat.obj
 0002:0000b074       ??_C@_0CF@GMKONGKM@id?9Gost28147?989?9CryptoPro?9B?9Para@ 00071074     libeay32:obj_dat.obj
 0002:0000b09c       ??_C@_0CF@PFEMLAKN@id?9Gost28147?989?9CryptoPro?9A?9Para@ 0007109c     libeay32:obj_dat.obj
 0002:0000b0c4       ??_C@_0BN@GKJFBLMI@id?9Gost28147?989?9TestParamSet?$AA@ 000710c4     libeay32:obj_dat.obj
 0002:0000b0e4       ??_C@_0CC@DOHJLMBI@id?9GostR3411?994?9CryptoProParamSe@ 000710e4     libeay32:obj_dat.obj
 0002:0000b108       ??_C@_0BN@DPLCCDOE@id?9GostR3411?994?9TestParamSet?$AA@ 00071108     libeay32:obj_dat.obj
 0002:0000b128       ??_C@_0CA@BLJAEGEG@id?9Gost28147?989?9None?9KeyMeshing?$AA@ 00071128     libeay32:obj_dat.obj
 0002:0000b148       ??_C@_0CF@MMKONEIK@id?9Gost28147?989?9CryptoPro?9KeyMes@ 00071148     libeay32:obj_dat.obj
 0002:0000b170       ??_C@_0BD@LGKAOLPL@GOST?5R?534?410?994?5DH?$AA@ 00071170     libeay32:obj_dat.obj
 0002:0000b184       ??_C@_0BC@CEMDDFNK@id?9GostR3410?994DH?$AA@ 00071184     libeay32:obj_dat.obj
 0002:0000b198       ??_C@_0BF@OKPANPLK@GOST?5R?534?410?92001?5DH?$AA@ 00071198     libeay32:obj_dat.obj
 0002:0000b1b0       ??_C@_0BE@OBKEJCJB@id?9GostR3410?92001DH?$AA@ 000711b0     libeay32:obj_dat.obj
 0002:0000b1c4       ??_C@_0BE@FFELJBNB@GOST?5R?534?411?994?5PRF?$AA@ 000711c4     libeay32:obj_dat.obj
 0002:0000b1d8       ??_C@_0BB@LJIINAAP@prf?9gostr3411?994?$AA@ 000711d8     libeay32:obj_dat.obj
 0002:0000b1ec       ??_C@_0BC@BPAGAEJB@GOST?528147?989?5MAC?$AA@ 000711ec     libeay32:obj_dat.obj
 0002:0000b200       ??_C@_08JCNEGNFC@gost?9mac?$AA@ 00071200     libeay32:obj_dat.obj
 0002:0000b20c       ??_C@_0L@INGOKGPP@gost89?9cnt?$AA@ 0007120c     libeay32:obj_dat.obj
 0002:0000b218       ??_C@_0O@POKHNLDL@GOST?528147?989?$AA@ 00071218     libeay32:obj_dat.obj
 0002:0000b228       ??_C@_06KLPDHLCD@gost89?$AA@ 00071228     libeay32:obj_dat.obj
 0002:0000b230       ??_C@_0BA@JOCBNIHN@GOST?5R?534?410?994?$AA@ 00071230     libeay32:obj_dat.obj
 0002:0000b240       ??_C@_06BPJPGPFJ@gost94?$AA@ 00071240     libeay32:obj_dat.obj
 0002:0000b248       ??_C@_0BC@IBNIHBI@GOST?5R?534?410?92001?$AA@ 00071248     libeay32:obj_dat.obj
 0002:0000b25c       ??_C@_08KMPAMBCP@gost2001?$AA@ 0007125c     libeay32:obj_dat.obj
 0002:0000b268       ??_C@_0BD@BHKLGKNG@HMAC?5GOST?534?411?994?$AA@ 00071268     libeay32:obj_dat.obj
 0002:0000b27c       ??_C@_0BE@EBBOKDGI@id?9HMACGostR3411?994?$AA@ 0007127c     libeay32:obj_dat.obj
 0002:0000b290       ??_C@_0BA@KDEBPBMN@GOST?5R?534?411?994?$AA@ 00071290     libeay32:obj_dat.obj
 0002:0000b2a0       ??_C@_09MIOJGGFD@md_gost94?$AA@ 000712a0     libeay32:obj_dat.obj
 0002:0000b2ac       ??_C@_0CF@PAGBHGOC@GOST?5R?534?411?994?5with?5GOST?5R?534?41@ 000712ac     libeay32:obj_dat.obj
 0002:0000b2d4       ??_C@_0CC@LCAPGDKC@id?9GostR3411?994?9with?9GostR3410?99@ 000712d4     libeay32:obj_dat.obj
 0002:0000b2f8       ??_C@_0CH@MPKKPBGC@GOST?5R?534?411?994?5with?5GOST?5R?534?41@ 000712f8     libeay32:obj_dat.obj
 0002:0000b320       ??_C@_0CE@FCAOBIOC@id?9GostR3411?994?9with?9GostR3410?92@ 00071320     libeay32:obj_dat.obj
 0002:0000b344       ??_C@_09JGBNPHGI@cryptocom?$AA@ 00071344     libeay32:obj_dat.obj
 0002:0000b350       ??_C@_09PCHJFNLI@cryptopro?$AA@ 00071350     libeay32:obj_dat.obj
 0002:0000b35c       ??_C@_09DEGKDAEL@whirlpool?$AA@ 0007135c     libeay32:obj_dat.obj
 0002:0000b368       ??_C@_0BA@FMFCOCGA@dsa_with_SHA256?$AA@ 00071368     libeay32:obj_dat.obj
 0002:0000b378       ??_C@_0BA@GLCLJGGH@dsa_with_SHA224?$AA@ 00071378     libeay32:obj_dat.obj
 0002:0000b388       ??_C@_0P@FLKKCAHA@hmacWithSHA512?$AA@ 00071388     libeay32:obj_dat.obj
 0002:0000b398       ??_C@_0P@CHEKODKF@hmacWithSHA384?$AA@ 00071398     libeay32:obj_dat.obj
 0002:0000b3a8       ??_C@_0P@KFBIHFBB@hmacWithSHA256?$AA@ 000713a8     libeay32:obj_dat.obj
 0002:0000b3b8       ??_C@_0P@JCGBABBG@hmacWithSHA224?$AA@ 000713b8     libeay32:obj_dat.obj
 0002:0000b3c8       ??_C@_0M@KOBPMNIO@hmacWithMD5?$AA@ 000713c8     libeay32:obj_dat.obj
 0002:0000b3d4       ??_C@_0BC@DONDMJAG@ecdsa?9with?9SHA512?$AA@ 000713d4     libeay32:obj_dat.obj
 0002:0000b3e8       ??_C@_0BC@ECDDAKND@ecdsa?9with?9SHA384?$AA@ 000713e8     libeay32:obj_dat.obj
 0002:0000b3fc       ??_C@_0BC@MAGBJMGH@ecdsa?9with?9SHA256?$AA@ 000713fc     libeay32:obj_dat.obj
 0002:0000b410       ??_C@_0BC@PHBIOIGA@ecdsa?9with?9SHA224?$AA@ 00071410     libeay32:obj_dat.obj
 0002:0000b424       ??_C@_0BF@INFCLNHO@ecdsa?9with?9Specified?$AA@ 00071424     libeay32:obj_dat.obj
 0002:0000b43c       ??_C@_0BH@GCJALNKM@ecdsa?9with?9Recommended?$AA@ 0007143c     libeay32:obj_dat.obj
 0002:0000b454       ??_C@_0P@KDMMBOEP@id?9aes256?9wrap?$AA@ 00071454     libeay32:obj_dat.obj
 0002:0000b464       ??_C@_0P@DJKBBDNG@id?9aes192?9wrap?$AA@ 00071464     libeay32:obj_dat.obj
 0002:0000b474       ??_C@_0P@MALLFAMO@id?9aes128?9wrap?$AA@ 00071474     libeay32:obj_dat.obj
 0002:0000b484       ??_C@_0BI@FNBGJEPL@id?9ct?9asciiTextWithCRLF?$AA@ 00071484     libeay32:obj_dat.obj
 0002:0000b49c       ??_C@_0BL@HEJKLKLL@id?9smime?9ct?9compressedData?$AA@ 0007149c     libeay32:obj_dat.obj
 0002:0000b4b8       ??_C@_0O@LBCGFGCI@CA?5Repository?$AA@ 000714b8     libeay32:obj_dat.obj
 0002:0000b4c8       ??_C@_0N@CKNFLOGG@caRepository?$AA@ 000714c8     libeay32:obj_dat.obj
 0002:0000b4d8       ??_C@_0BD@MGCOMIO@id?9it?9suppLangTags?$AA@ 000714d8     libeay32:obj_dat.obj
 0002:0000b4ec       ??_C@_0BJ@CDGIGDFG@Diffie?9Hellman?5based?5MAC?$AA@ 000714ec     libeay32:obj_dat.obj
 0002:0000b508       ??_C@_0O@MEHCKGFD@id?9DHBasedMac?$AA@ 00071508     libeay32:obj_dat.obj
 0002:0000b518       ??_C@_0BD@FANJCJAP@password?5based?5MAC?$AA@ 00071518     libeay32:obj_dat.obj
 0002:0000b52c       ??_C@_0BE@HCNFOMHA@id?9PasswordBasedMAC?$AA@ 0007152c     libeay32:obj_dat.obj
 0002:0000b540       ??_C@_09KBOMLGBN@hmac?9sha1?$AA@ 00071540     libeay32:obj_dat.obj
 0002:0000b54c       ??_C@_09DDFKKHO@HMAC?9SHA1?$AA@ 0007154c     libeay32:obj_dat.obj
 0002:0000b558       ??_C@_08LPACCAD@hmac?9md5?$AA@ 00071558     libeay32:obj_dat.obj
 0002:0000b564       ??_C@_08CABJBHIC@HMAC?9MD5?$AA@ 00071564     libeay32:obj_dat.obj
 0002:0000b570       ??_C@_08JGLJJHP@seed?9cfb?$AA@ 00071570     libeay32:obj_dat.obj
 0002:0000b57c       ??_C@_08LHAGIIFM@SEED?9CFB?$AA@ 0007157c     libeay32:obj_dat.obj
 0002:0000b588       ??_C@_08EDLNCGMH@seed?9ofb?$AA@ 00071588     libeay32:obj_dat.obj
 0002:0000b594       ??_C@_08PNNADHOE@SEED?9OFB?$AA@ 00071594     libeay32:obj_dat.obj
 0002:0000b5a0       ??_C@_08BHHJAAOC@seed?9cbc?$AA@ 000715a0     libeay32:obj_dat.obj
 0002:0000b5ac       ??_C@_08KJBEBBMB@SEED?9CBC?$AA@ 000715ac     libeay32:obj_dat.obj
 0002:0000b5b8       ??_C@_08CKMLAEEI@seed?9ecb?$AA@ 000715b8     libeay32:obj_dat.obj
 0002:0000b5c4       ??_C@_08JEKGBFGL@SEED?9ECB?$AA@ 000715c4     libeay32:obj_dat.obj
 0002:0000b5d0       ??_C@_04LLEAHKNI@kisa?$AA@ 000715d0     libeay32:obj_dat.obj
 0002:0000b5d8       ??_C@_04HHHKJIKA@KISA?$AA@ 000715d8     libeay32:obj_dat.obj
 0002:0000b5e0       ??_C@_0BK@EMNEMCDI@X509v3?5Certificate?5Issuer?$AA@ 000715e0     libeay32:obj_dat.obj
 0002:0000b5fc       ??_C@_0BC@NAJGKAHO@certificateIssuer?$AA@ 000715fc     libeay32:obj_dat.obj
 0002:0000b610       ??_C@_0CC@MMIACGNM@X509v3?5Issuing?5Distrubution?5Poin@ 00071610     libeay32:obj_dat.obj
 0002:0000b634       ??_C@_0BJ@OAOPOBMH@issuingDistributionPoint?$AA@ 00071634     libeay32:obj_dat.obj
 0002:0000b650       ??_C@_0CE@OGGDDHCK@X509v3?5Subject?5Directory?5Attribu@ 00071650     libeay32:obj_dat.obj
 0002:0000b674       ??_C@_0BL@GAJEKNCJ@subjectDirectoryAttributes?$AA@ 00071674     libeay32:obj_dat.obj
 0002:0000b690       ??_C@_0BB@EGAOKAEM@camellia?9256?9ofb?$AA@ 00071690     libeay32:obj_dat.obj
 0002:0000b6a4       ??_C@_0BB@FFEGHOPL@CAMELLIA?9256?9OFB?$AA@ 000716a4     libeay32:obj_dat.obj
 0002:0000b6b8       ??_C@_0BB@JELAIPMN@camellia?9192?9ofb?$AA@ 000716b8     libeay32:obj_dat.obj
 0002:0000b6cc       ??_C@_0BB@IHPIFBHK@CAMELLIA?9192?9OFB?$AA@ 000716cc     libeay32:obj_dat.obj
 0002:0000b6e0       ??_C@_0BB@DHCMPIFB@camellia?9128?9ofb?$AA@ 000716e0     libeay32:obj_dat.obj
 0002:0000b6f4       ??_C@_0BB@CEGECGOG@CAMELLIA?9128?9OFB?$AA@ 000716f4     libeay32:obj_dat.obj
 0002:0000b708       ??_C@_0BC@KNEDFCOB@camellia?9256?9cfb8?$AA@ 00071708     libeay32:obj_dat.obj
 0002:0000b71c       ??_C@_0BC@PIFFDMBA@CAMELLIA?9256?9CFB8?$AA@ 0007171c     libeay32:obj_dat.obj
 0002:0000b730       ??_C@_0BC@DHCOFPHI@camellia?9192?9cfb8?$AA@ 00071730     libeay32:obj_dat.obj
 0002:0000b744       ??_C@_0BC@GCDIDBIJ@CAMELLIA?9192?9CFB8?$AA@ 00071744     libeay32:obj_dat.obj
 0002:0000b758       ??_C@_0BC@MODEBMGA@camellia?9128?9cfb8?$AA@ 00071758     libeay32:obj_dat.obj
 0002:0000b76c       ??_C@_0BC@JLCCHCJB@CAMELLIA?9128?9CFB8?$AA@ 0007176c     libeay32:obj_dat.obj
 0002:0000b780       ??_C@_0BC@HMIBOJKI@camellia?9256?9cfb1?$AA@ 00071780     libeay32:obj_dat.obj
 0002:0000b794       ??_C@_0BC@CJJHIHFJ@CAMELLIA?9256?9CFB1?$AA@ 00071794     libeay32:obj_dat.obj
 0002:0000b7a8       ??_C@_0BC@OGOMOEDB@camellia?9192?9cfb1?$AA@ 000717a8     libeay32:obj_dat.obj
 0002:0000b7bc       ??_C@_0BC@LDPKIKMA@CAMELLIA?9192?9CFB1?$AA@ 000717bc     libeay32:obj_dat.obj
 0002:0000b7d0       ??_C@_0BC@BPPGKHCJ@camellia?9128?9cfb1?$AA@ 000717d0     libeay32:obj_dat.obj
 0002:0000b7e4       ??_C@_0BC@EKOAMJNI@CAMELLIA?9128?9CFB1?$AA@ 000717e4     libeay32:obj_dat.obj
 0002:0000b7f8       ??_C@_0BB@MNIBPPE@camellia?9256?9cfb?$AA@ 000717f8     libeay32:obj_dat.obj
 0002:0000b80c       ??_C@_0BB@BPJAMBED@CAMELLIA?9256?9CFB?$AA@ 0007180c     libeay32:obj_dat.obj
 0002:0000b820       ??_C@_0BB@NOGGDAHF@camellia?9192?9cfb?$AA@ 00071820     libeay32:obj_dat.obj
 0002:0000b834       ??_C@_0BB@MNCOOOMC@CAMELLIA?9192?9CFB?$AA@ 00071834     libeay32:obj_dat.obj
 0002:0000b848       ??_C@_0BB@HNPKEHOJ@camellia?9128?9cfb?$AA@ 00071848     libeay32:obj_dat.obj
 0002:0000b85c       ??_C@_0BB@GOLCJJFO@CAMELLIA?9128?9CFB?$AA@ 0007185c     libeay32:obj_dat.obj
 0002:0000b870       ??_C@_0BB@CPHIICMD@camellia?9256?9ecb?$AA@ 00071870     libeay32:obj_dat.obj
 0002:0000b884       ??_C@_0BB@DMDAFMHE@CAMELLIA?9256?9ECB?$AA@ 00071884     libeay32:obj_dat.obj
 0002:0000b898       ??_C@_0BB@PNMGKNEC@camellia?9192?9ecb?$AA@ 00071898     libeay32:obj_dat.obj
 0002:0000b8ac       ??_C@_0BB@OOIOHDPF@CAMELLIA?9192?9ECB?$AA@ 000718ac     libeay32:obj_dat.obj
 0002:0000b8c0       ??_C@_0BB@FOFKNKNO@camellia?9128?9ecb?$AA@ 000718c0     libeay32:obj_dat.obj
 0002:0000b8d4       ??_C@_0BB@ENBCAEGJ@CAMELLIA?9128?9ECB?$AA@ 000718d4     libeay32:obj_dat.obj
 0002:0000b8e8       ??_C@_0BB@BCMKIGGJ@camellia?9256?9cbc?$AA@ 000718e8     libeay32:obj_dat.obj
 0002:0000b8fc       ??_C@_0BB@BICFINO@CAMELLIA?9256?9CBC?$AA@ 000718fc     libeay32:obj_dat.obj
 0002:0000b910       ??_C@_0BB@MAHEKJOI@camellia?9192?9cbc?$AA@ 00071910     libeay32:obj_dat.obj
 0002:0000b924       ??_C@_0BB@NDDMHHFP@CAMELLIA?9192?9CBC?$AA@ 00071924     libeay32:obj_dat.obj
 0002:0000b938       ??_C@_0BB@GDOINOHE@camellia?9128?9cbc?$AA@ 00071938     libeay32:obj_dat.obj
 0002:0000b94c       ??_C@_0BB@HAKAAAMD@CAMELLIA?9128?9CBC?$AA@ 0007194c     libeay32:obj_dat.obj
 0002:0000b960       ??_C@_06DEKODPNG@ipsec4?$AA@ 00071960     libeay32:obj_dat.obj
 0002:0000b968       ??_C@_0O@FENFAHJA@Oakley?9EC2N?94?$AA@ 00071968     libeay32:obj_dat.obj
 0002:0000b978       ??_C@_06HLOPKJBB@ipsec3?$AA@ 00071978     libeay32:obj_dat.obj
 0002:0000b980       ??_C@_0O@BLJEJBFH@Oakley?9EC2N?93?$AA@ 00071980     libeay32:obj_dat.obj
 0002:0000b990       ??_C@_0BK@FPAAFIAO@X509v3?5Inhibit?5Any?5Policy?$AA@ 00071990     libeay32:obj_dat.obj
 0002:0000b9ac       ??_C@_0BB@CFCCDKGF@inhibitAnyPolicy?$AA@ 000719ac     libeay32:obj_dat.obj
 0002:0000b9c0       ??_C@_0BH@NJBPACCN@X509v3?5Policy?5Mappings?$AA@ 000719c0     libeay32:obj_dat.obj
 0002:0000b9d8       ??_C@_0P@MEGGINDP@policyMappings?$AA@ 000719d8     libeay32:obj_dat.obj
 0002:0000b9e8       ??_C@_0BC@CEEMIAHF@X509v3?5Any?5Policy?$AA@ 000719e8     libeay32:obj_dat.obj
 0002:0000b9fc       ??_C@_09HBBJOJHB@anyPolicy?$AA@ 000719fc     libeay32:obj_dat.obj
 0002:0000ba08       ??_C@_0BI@MNOLKEAO@wap?9wsg?9idm?9ecid?9wtls12?$AA@ 00071a08     libeay32:obj_dat.obj
 0002:0000ba20       ??_C@_0BI@OGMGPHMN@wap?9wsg?9idm?9ecid?9wtls11?$AA@ 00071a20     libeay32:obj_dat.obj
 0002:0000ba38       ??_C@_0BI@PPNNMGIM@wap?9wsg?9idm?9ecid?9wtls10?$AA@ 00071a38     libeay32:obj_dat.obj
 0002:0000ba50       ??_C@_0BH@DMKMEGHN@wap?9wsg?9idm?9ecid?9wtls9?$AA@ 00071a50     libeay32:obj_dat.obj
 0002:0000ba68       ??_C@_0BH@CFLHHHDM@wap?9wsg?9idm?9ecid?9wtls8?$AA@ 00071a68     libeay32:obj_dat.obj
 0002:0000ba80       ??_C@_0BH@KCCPGLPD@wap?9wsg?9idm?9ecid?9wtls7?$AA@ 00071a80     libeay32:obj_dat.obj
 0002:0000ba98       ??_C@_0BH@LLDEFKLC@wap?9wsg?9idm?9ecid?9wtls6?$AA@ 00071a98     libeay32:obj_dat.obj
 0002:0000bab0       ??_C@_0BH@JABJAJHB@wap?9wsg?9idm?9ecid?9wtls5?$AA@ 00071ab0     libeay32:obj_dat.obj
 0002:0000bac8       ??_C@_0BH@IJACDIDA@wap?9wsg?9idm?9ecid?9wtls4?$AA@ 00071ac8     libeay32:obj_dat.obj
 0002:0000bae0       ??_C@_0BH@MGEDKOPH@wap?9wsg?9idm?9ecid?9wtls3?$AA@ 00071ae0     libeay32:obj_dat.obj
 0002:0000baf8       ??_C@_0BH@PEHFMMHF@wap?9wsg?9idm?9ecid?9wtls1?$AA@ 00071af8     libeay32:obj_dat.obj
 0002:0000bb10       ??_C@_09MPLFOIFJ@sect571r1?$AA@ 00071b10     libeay32:obj_dat.obj
 0002:0000bb1c       ??_C@_09NMECHAKG@sect571k1?$AA@ 00071b1c     libeay32:obj_dat.obj
 0002:0000bb28       ??_C@_09HDHNMPAD@sect409r1?$AA@ 00071b28     libeay32:obj_dat.obj
 0002:0000bb34       ??_C@_09GAIKFHPM@sect409k1?$AA@ 00071b34     libeay32:obj_dat.obj
 0002:0000bb40       ??_C@_09PKOJIHLL@sect283r1?$AA@ 00071b40     libeay32:obj_dat.obj
 0002:0000bb4c       ??_C@_09OJBOBPEE@sect283k1?$AA@ 00071b4c     libeay32:obj_dat.obj
 0002:0000bb58       ??_C@_09PBHDMODB@sect239k1?$AA@ 00071b58     libeay32:obj_dat.obj
 0002:0000bb64       ??_C@_09INDJLGKK@sect233r1?$AA@ 00071b64     libeay32:obj_dat.obj
 0002:0000bb70       ??_C@_09JOMOCOFF@sect233k1?$AA@ 00071b70     libeay32:obj_dat.obj
 0002:0000bb7c       ??_C@_09GKDAIPGG@sect193r2?$AA@ 00071b7c     libeay32:obj_dat.obj
 0002:0000bb88       ??_C@_09EBBNNMKF@sect193r1?$AA@ 00071b88     libeay32:obj_dat.obj
 0002:0000bb94       ??_C@_09OIGABILH@sect163r2?$AA@ 00071b94     libeay32:obj_dat.obj
 0002:0000bba0       ??_C@_09MDENELHE@sect163r1?$AA@ 00071ba0     libeay32:obj_dat.obj
 0002:0000bbac       ??_C@_09NALKNDIL@sect163k1?$AA@ 00071bac     libeay32:obj_dat.obj
 0002:0000bbb8       ??_C@_09IKIJFPEM@sect131r2?$AA@ 00071bb8     libeay32:obj_dat.obj
 0002:0000bbc4       ??_C@_09KBKEAMIP@sect131r1?$AA@ 00071bc4     libeay32:obj_dat.obj
 0002:0000bbd0       ??_C@_09FKEAMEKH@sect113r2?$AA@ 00071bd0     libeay32:obj_dat.obj
 0002:0000bbdc       ??_C@_09HBGNJHGE@sect113r1?$AA@ 00071bdc     libeay32:obj_dat.obj
 0002:0000bbe8       ??_C@_09PDBKEDDK@secp521r1?$AA@ 00071be8     libeay32:obj_dat.obj
 0002:0000bbf4       ??_C@_09FICNEILE@secp384r1?$AA@ 00071bf4     libeay32:obj_dat.obj
 0002:0000bc00       ??_C@_09NCBPAPNE@secp256k1?$AA@ 00071c00     libeay32:obj_dat.obj
 0002:0000bc0c       ??_C@_09NJMBIDLA@secp224r1?$AA@ 00071c0c     libeay32:obj_dat.obj
 0002:0000bc18       ??_C@_09MKDGBLEP@secp224k1?$AA@ 00071c18     libeay32:obj_dat.obj
 0002:0000bc24       ??_C@_09BOBJAHCM@secp192k1?$AA@ 00071c24     libeay32:obj_dat.obj
 0002:0000bc30       ??_C@_09OJKJDEK@secp160r2?$AA@ 00071c30     libeay32:obj_dat.obj
 0002:0000bc3c       ??_C@_09CFLHMAIJ@secp160r1?$AA@ 00071c3c     libeay32:obj_dat.obj
 0002:0000bc48       ??_C@_09DGEAFIHG@secp160k1?$AA@ 00071c48     libeay32:obj_dat.obj
 0002:0000bc54       ??_C@_09DOKOBNGF@secp128r2?$AA@ 00071c54     libeay32:obj_dat.obj
 0002:0000bc60       ??_C@_09BFIDEOKG@secp128r1?$AA@ 00071c60     libeay32:obj_dat.obj
 0002:0000bc6c       ??_C@_09BGLDIHNB@secp112r2?$AA@ 00071c6c     libeay32:obj_dat.obj
 0002:0000bc78       ??_C@_09DNJONEBC@secp112r1?$AA@ 00071c78     libeay32:obj_dat.obj
 0002:0000bc84       ??_C@_0L@OFJKDCBG@c2tnb431r1?$AA@ 00071c84     libeay32:obj_dat.obj
 0002:0000bc90       ??_C@_0L@BGFAFBLD@c2pnb368w1?$AA@ 00071c90     libeay32:obj_dat.obj
 0002:0000bc9c       ??_C@_0L@LFGCHHDN@c2tnb359v1?$AA@ 00071c9c     libeay32:obj_dat.obj
 0002:0000bca8       ??_C@_0L@NDMGBLKL@c2pnb304w1?$AA@ 00071ca8     libeay32:obj_dat.obj
 0002:0000bcb4       ??_C@_0L@IPNBELMC@c2pnb272w1?$AA@ 00071cb4     libeay32:obj_dat.obj
 0002:0000bcc0       ??_C@_0L@LLIHEIJA@c2onb239v5?$AA@ 00071cc0     libeay32:obj_dat.obj
 0002:0000bccc       ??_C@_0L@KCJMHJNB@c2onb239v4?$AA@ 00071ccc     libeay32:obj_dat.obj
 0002:0000bcd8       ??_C@_0L@MDEIDDLK@c2tnb239v3?$AA@ 00071cd8     libeay32:obj_dat.obj
 0002:0000bce4       ??_C@_0L@NKFDACPL@c2tnb239v2?$AA@ 00071ce4     libeay32:obj_dat.obj
 0002:0000bcf0       ??_C@_0L@PBHOFBDI@c2tnb239v1?$AA@ 00071cf0     libeay32:obj_dat.obj
 0002:0000bcfc       ??_C@_0L@FCEMHHLG@c2pnb208w1?$AA@ 00071cfc     libeay32:obj_dat.obj
 0002:0000bd08       ??_C@_0L@LCBHAKHA@c2onb191v5?$AA@ 00071d08     libeay32:obj_dat.obj
 0002:0000bd14       ??_C@_0L@KLAMDLDB@c2onb191v4?$AA@ 00071d14     libeay32:obj_dat.obj
 0002:0000bd20       ??_C@_0L@MKNIHBFK@c2tnb191v3?$AA@ 00071d20     libeay32:obj_dat.obj
 0002:0000bd2c       ??_C@_0L@NDMDEABL@c2tnb191v2?$AA@ 00071d2c     libeay32:obj_dat.obj
 0002:0000bd38       ??_C@_0L@PIOOBDNI@c2tnb191v1?$AA@ 00071d38     libeay32:obj_dat.obj
 0002:0000bd44       ??_C@_0L@IHOFMEAM@c2pnb176v1?$AA@ 00071d44     libeay32:obj_dat.obj
 0002:0000bd50       ??_C@_0L@LPGNHPAM@c2pnb163v3?$AA@ 00071d50     libeay32:obj_dat.obj
 0002:0000bd5c       ??_C@_0L@KGHGEOEN@c2pnb163v2?$AA@ 00071d5c     libeay32:obj_dat.obj
 0002:0000bd68       ??_C@_0L@INFLBNIO@c2pnb163v1?$AA@ 00071d68     libeay32:obj_dat.obj
 0002:0000bd74       ??_C@_07GLJEBFP@ppBasis?$AA@ 00071d74     libeay32:obj_dat.obj
 0002:0000bd7c       ??_C@_07ICPDEPKF@tpBasis?$AA@ 00071d7c     libeay32:obj_dat.obj
 0002:0000bd84       ??_C@_07JEMDIFEL@onBasis?$AA@ 00071d84     libeay32:obj_dat.obj
 0002:0000bd8c       ??_C@_0BM@PPOCDOAJ@id?9characteristic?9two?9basis?$AA@ 00071d8c     libeay32:obj_dat.obj
 0002:0000bda8       ??_C@_07KJBJKKHG@wap?9wsg?$AA@ 00071da8     libeay32:obj_dat.obj
 0002:0000bdb0       ??_C@_03EOHJGACH@wap?$AA@  00071db0     libeay32:obj_dat.obj
 0002:0000bdb4       ??_C@_0N@GOPBJFID@certicom?9arc?$AA@ 00071db4     libeay32:obj_dat.obj
 0002:0000bdc4       ??_C@_0BI@NDBFOMIA@identified?9organization?$AA@ 00071dc4     libeay32:obj_dat.obj
 0002:0000bddc       ??_C@_06DJABMLNO@sha224?$AA@ 00071ddc     libeay32:obj_dat.obj
 0002:0000bde4       ??_C@_06DANBNIHA@SHA224?$AA@ 00071de4     libeay32:obj_dat.obj
 0002:0000bdec       ??_C@_06PAMKOKLI@sha512?$AA@ 00071dec     libeay32:obj_dat.obj
 0002:0000bdf4       ??_C@_06PJBKPJBG@SHA512?$AA@ 00071df4     libeay32:obj_dat.obj
 0002:0000bdfc       ??_C@_06IMCKCJGN@sha384?$AA@ 00071dfc     libeay32:obj_dat.obj
 0002:0000be04       ??_C@_06IFPKDKMD@SHA384?$AA@ 00071e04     libeay32:obj_dat.obj
 0002:0000be0c       ??_C@_06OHILPNJ@sha256?$AA@ 00071e0c     libeay32:obj_dat.obj
 0002:0000be14       ??_C@_06HKIKMHH@SHA256?$AA@ 00071e14     libeay32:obj_dat.obj
 0002:0000be1c       ??_C@_0BI@HODNLFBE@sha224WithRSAEncryption?$AA@ 00071e1c     libeay32:obj_dat.obj
 0002:0000be34       ??_C@_0L@BPFBIPIP@RSA?9SHA224?$AA@ 00071e34     libeay32:obj_dat.obj
 0002:0000be40       ??_C@_0BI@CFKPHFJF@sha512WithRSAEncryption?$AA@ 00071e40     libeay32:obj_dat.obj
 0002:0000be58       ??_C@_0L@NGJKKOOJ@RSA?9SHA512?$AA@ 00071e58     libeay32:obj_dat.obj
 0002:0000be64       ??_C@_0BI@LGPCJGLE@sha384WithRSAEncryption?$AA@ 00071e64     libeay32:obj_dat.obj
 0002:0000be7c       ??_C@_0L@KKHKGNDM@RSA?9SHA384?$AA@ 00071e7c     libeay32:obj_dat.obj
 0002:0000be88       ??_C@_0BI@OLMNBFHG@sha256WithRSAEncryption?$AA@ 00071e88     libeay32:obj_dat.obj
 0002:0000bea0       ??_C@_0L@CICIPLII@RSA?9SHA256?$AA@ 00071ea0     libeay32:obj_dat.obj
 0002:0000beac       ??_C@_0M@MLMKHJLC@Independent?$AA@ 00071eac     libeay32:obj_dat.obj
 0002:0000beb8       ??_C@_0BD@JMNHHICP@id?9ppl?9independent?$AA@ 00071eb8     libeay32:obj_dat.obj
 0002:0000becc       ??_C@_0BI@MLJLAGL@X509v3?5Name?5Constraints?$AA@ 00071ecc     libeay32:obj_dat.obj
 0002:0000bee4       ??_C@_0BA@NDBMPGLN@nameConstraints?$AA@ 00071ee4     libeay32:obj_dat.obj
 0002:0000bef4       ??_C@_0M@FFLAPACB@Inherit?5all?$AA@ 00071ef4     libeay32:obj_dat.obj
 0002:0000bf00       ??_C@_0BC@PCEJIIF@id?9ppl?9inheritAll?$AA@ 00071f00     libeay32:obj_dat.obj
 0002:0000bf14       ??_C@_0N@BEBFEGLC@Any?5language?$AA@ 00071f14     libeay32:obj_dat.obj
 0002:0000bf24       ??_C@_0BD@HNCKDFAM@id?9ppl?9anyLanguage?$AA@ 00071f24     libeay32:obj_dat.obj
 0002:0000bf38       ??_C@_0BO@CCHFGBDO@Proxy?5Certificate?5Information?$AA@ 00071f38     libeay32:obj_dat.obj
 0002:0000bf58       ??_C@_0O@LOINHHBF@proxyCertInfo?$AA@ 00071f58     libeay32:obj_dat.obj
 0002:0000bf68       ??_C@_06CAAPGDCJ@id?9ppl?$AA@ 00071f68     libeay32:obj_dat.obj
 0002:0000bf70       ??_C@_0L@NCDHJCMF@postalCode?$AA@ 00071f70     libeay32:obj_dat.obj
 0002:0000bf7c       ??_C@_0O@GFJANBCD@streetAddress?$AA@ 00071f7c     libeay32:obj_dat.obj
 0002:0000bf8c       ??_C@_06KFAFKEEH@street?$AA@ 00071f8c     libeay32:obj_dat.obj
 0002:0000bf94       ??_C@_0O@KGNFGAAA@des?9ede3?9cfb8?$AA@ 00071f94     libeay32:obj_dat.obj
 0002:0000bfa4       ??_C@_0O@KNJKKNCK@DES?9EDE3?9CFB8?$AA@ 00071fa4     libeay32:obj_dat.obj
 0002:0000bfb4       ??_C@_0O@HHBHNLEJ@des?9ede3?9cfb1?$AA@ 00071fb4     libeay32:obj_dat.obj
 0002:0000bfc4       ??_C@_0O@HMFIBGGD@DES?9EDE3?9CFB1?$AA@ 00071fc4     libeay32:obj_dat.obj
 0002:0000bfd4       ??_C@_08HKNDEPIP@des?9cfb8?$AA@ 00071fd4     libeay32:obj_dat.obj
 0002:0000bfe0       ??_C@_08JHFHFADM@DES?9CFB8?$AA@ 00071fe0     libeay32:obj_dat.obj
 0002:0000bfec       ??_C@_08KLBBPEMG@des?9cfb1?$AA@ 00071fec     libeay32:obj_dat.obj
 0002:0000bff8       ??_C@_08EGJFOLHF@DES?9CFB1?$AA@ 00071ff8     libeay32:obj_dat.obj
 0002:0000c004       ??_C@_0N@GPAECIBG@aes?9256?9cfb8?$AA@ 00072004     libeay32:obj_dat.obj
 0002:0000c014       ??_C@_0N@BLGJPBBG@AES?9256?9CFB8?$AA@ 00072014     libeay32:obj_dat.obj
 0002:0000c024       ??_C@_0N@PFGJCFIP@aes?9192?9cfb8?$AA@ 00072024     libeay32:obj_dat.obj
 0002:0000c034       ??_C@_0N@IBAEPMIP@AES?9192?9CFB8?$AA@ 00072034     libeay32:obj_dat.obj
 0002:0000c044       ??_C@_0N@MHDGGJH@aes?9128?9cfb8?$AA@ 00072044     libeay32:obj_dat.obj
 0002:0000c054       ??_C@_0N@HIBOLPJH@AES?9128?9CFB8?$AA@ 00072054     libeay32:obj_dat.obj
 0002:0000c064       ??_C@_0N@LOMGJDFP@aes?9256?9cfb1?$AA@ 00072064     libeay32:obj_dat.obj
 0002:0000c074       ??_C@_0N@MKKLEKFP@AES?9256?9CFB1?$AA@ 00072074     libeay32:obj_dat.obj
 0002:0000c084       ??_C@_0N@CEKLJOMG@aes?9192?9cfb1?$AA@ 00072084     libeay32:obj_dat.obj
 0002:0000c094       ??_C@_0N@FAMGEHMG@AES?9192?9CFB1?$AA@ 00072094     libeay32:obj_dat.obj
 0002:0000c0a4       ??_C@_0N@NNLBNNNO@aes?9128?9cfb1?$AA@ 000720a4     libeay32:obj_dat.obj
 0002:0000c0b4       ??_C@_0N@KJNMAENO@AES?9128?9CFB1?$AA@ 000720b4     libeay32:obj_dat.obj
 0002:0000c0c4       ??_C@_0CD@POJHJMFG@Microsoft?5Universal?5Principal?5Na@ 000720c4     libeay32:obj_dat.obj
 0002:0000c0e8       ??_C@_05LKLAGLGM@msUPN?$AA@ 000720e8     libeay32:obj_dat.obj
 0002:0000c0f0       ??_C@_0BJ@BHLLFCI@Microsoft?5Smartcardlogin?$AA@ 000720f0     libeay32:obj_dat.obj
 0002:0000c10c       ??_C@_0BB@MJPMDGHF@msSmartcardLogin?$AA@ 0007210c     libeay32:obj_dat.obj
 0002:0000c120       ??_C@_0BM@PGMBEIHL@International?5Organizations?$AA@ 00072120     libeay32:obj_dat.obj
 0002:0000c13c       ??_C@_0BM@PBBEOBAP@international?9organizations?$AA@ 0007213c     libeay32:obj_dat.obj
 0002:0000c158       ??_C@_0BA@DDCJMADA@joint?9iso?9itu?9t?$AA@ 00072158     libeay32:obj_dat.obj
 0002:0000c168       ??_C@_0BA@NPJCPIN@JOINT?9ISO?9ITU?9T?$AA@ 00072168     libeay32:obj_dat.obj
 0002:0000c178       ??_C@_05EKLDHPCO@itu?9t?$AA@ 00072178     libeay32:obj_dat.obj
 0002:0000c180       ??_C@_05LJGINOIA@ITU?9T?$AA@ 00072180     libeay32:obj_dat.obj
 0002:0000c188       ??_C@_0BF@EIIDBKMM@rsaOAEPEncryptionSET?$AA@ 00072188     libeay32:obj_dat.obj
 0002:0000c1a0       ??_C@_08PPLOLAOD@des?9cdmf?$AA@ 000721a0     libeay32:obj_dat.obj
 0002:0000c1ac       ??_C@_08IHLOILPC@DES?9CDMF?$AA@ 000721ac     libeay32:obj_dat.obj
 0002:0000c1b8       ??_C@_0BA@JHOGHBHC@set?9brand?9Novus?$AA@ 000721b8     libeay32:obj_dat.obj
 0002:0000c1c8       ??_C@_0BF@EKCBHCKG@set?9brand?9MasterCard?$AA@ 000721c8     libeay32:obj_dat.obj
 0002:0000c1e0       ??_C@_0P@KADKEMKM@set?9brand?9Visa?$AA@ 000721e0     libeay32:obj_dat.obj
 0002:0000c1f0       ??_C@_0O@ODFDKJIN@set?9brand?9JCB?$AA@ 000721f0     libeay32:obj_dat.obj
 0002:0000c200       ??_C@_0BK@NGHCPIFJ@set?9brand?9AmericanExpress?$AA@ 00072200     libeay32:obj_dat.obj
 0002:0000c21c       ??_C@_0BB@MJOMIBOM@set?9brand?9Diners?$AA@ 0007221c     libeay32:obj_dat.obj
 0002:0000c230       ??_C@_0BD@EBDAHFCK@set?9brand?9IATA?9ATA?$AA@ 00072230     libeay32:obj_dat.obj
 0002:0000c244       ??_C@_0BI@BMDLNIII@secure?5device?5signature?$AA@ 00072244     libeay32:obj_dat.obj
 0002:0000c25c       ??_C@_0BC@HILPEDHB@setAttr?9SecDevSig?$AA@ 0007225c     libeay32:obj_dat.obj
 0002:0000c270       ??_C@_0BH@FLMFBHA@ICC?5or?5token?5signature?$AA@ 00072270     libeay32:obj_dat.obj
 0002:0000c288       ??_C@_0BC@KFHJNGAA@setAttr?9TokICCsig?$AA@ 00072288     libeay32:obj_dat.obj
 0002:0000c29c       ??_C@_0BC@EEELFHMJ@cleartext?5track?52?$AA@ 0007229c     libeay32:obj_dat.obj
 0002:0000c2b0       ??_C@_0BD@GDDCOMNC@setAttr?9T2cleartxt?$AA@ 000722b0     libeay32:obj_dat.obj
 0002:0000c2c4       ??_C@_0BC@MCHFBPJF@encrypted?5track?52?$AA@ 000722c4     libeay32:obj_dat.obj
 0002:0000c2d8       ??_C@_0O@GFEDKLID@setAttr?9T2Enc?$AA@ 000722d8     libeay32:obj_dat.obj
 0002:0000c2e8       ??_C@_0BE@BANBLNDJ@generate?5cryptogram?$AA@ 000722e8     libeay32:obj_dat.obj
 0002:0000c2fc       ??_C@_0BE@FJCINFHM@setAttr?9GenCryptgrm?$AA@ 000722fc     libeay32:obj_dat.obj
 0002:0000c310       ??_C@_0BD@DMNGIJGO@setAttr?9IssCap?9Sig?$AA@ 00072310     libeay32:obj_dat.obj
 0002:0000c324       ??_C@_0BC@FKLLNJMF@setAttr?9IssCap?9T2?$AA@ 00072324     libeay32:obj_dat.obj
 0002:0000c338       ??_C@_0BD@CMJDLAHE@setAttr?9IssCap?9CVM?$AA@ 00072338     libeay32:obj_dat.obj
 0002:0000c34c       ??_C@_0BG@ICNBHDJ@setAttr?9Token?9B0Prime?$AA@ 0007234c     libeay32:obj_dat.obj
 0002:0000c364       ??_C@_0BC@BMANBENP@setAttr?9Token?9EMV?$AA@ 00072364     libeay32:obj_dat.obj
 0002:0000c378       ??_C@_0O@NOCONBCM@set?9addPolicy?$AA@ 00072378     libeay32:obj_dat.obj
 0002:0000c388       ??_C@_0BB@MADMNAKK@set?9rootKeyThumb?$AA@ 00072388     libeay32:obj_dat.obj
 0002:0000c39c       ??_C@_0BE@HBDPGKCG@issuer?5capabilities?$AA@ 0007239c     libeay32:obj_dat.obj
 0002:0000c3b0       ??_C@_0P@OGFLCCKL@setAttr?9IssCap?$AA@ 000723b0     libeay32:obj_dat.obj
 0002:0000c3c0       ??_C@_0BC@IKOKMCIL@setAttr?9TokenType?$AA@ 000723c0     libeay32:obj_dat.obj
 0002:0000c3d4       ??_C@_0BN@HEFBDPEB@payment?5gateway?5capabilities?$AA@ 000723d4     libeay32:obj_dat.obj
 0002:0000c3f4       ??_C@_0BA@FAIFDKDK@setAttr?9PGWYcap?$AA@ 000723f4     libeay32:obj_dat.obj
 0002:0000c404       ??_C@_0N@DCNKAAPN@setAttr?9Cert?$AA@ 00072404     libeay32:obj_dat.obj
 0002:0000c414       ??_C@_0BL@OLCLGJDA@setCext?9IssuerCapabilities?$AA@ 00072414     libeay32:obj_dat.obj
 0002:0000c430       ??_C@_0BC@KMFGLCBL@setCext?9TokenType?$AA@ 00072430     libeay32:obj_dat.obj
 0002:0000c444       ??_C@_0BD@FHFLAKJD@setCext?9Track2Data?$AA@ 00072444     libeay32:obj_dat.obj
 0002:0000c458       ??_C@_0BI@FIIEHNL@setCext?9TokenIdentifier?$AA@ 00072458     libeay32:obj_dat.obj
 0002:0000c470       ??_C@_0BJ@CNLNHONG@setCext?9PGWYcapabilities?$AA@ 00072470     libeay32:obj_dat.obj
 0002:0000c48c       ??_C@_0BB@HIAOOOIO@setCext?9setQualf?$AA@ 0007248c     libeay32:obj_dat.obj
 0002:0000c4a0       ??_C@_0P@DFHCPLJG@setCext?9setExt?$AA@ 000724a0     libeay32:obj_dat.obj
 0002:0000c4b0       ??_C@_0BC@BPADJLFJ@setCext?9tunneling?$AA@ 000724b0     libeay32:obj_dat.obj
 0002:0000c4c4       ??_C@_0BG@CMNKGOHO@setCext?9cCertRequired?$AA@ 000724c4     libeay32:obj_dat.obj
 0002:0000c4dc       ??_C@_0BC@ONMLOIHK@setCext?9merchData?$AA@ 000724dc     libeay32:obj_dat.obj
 0002:0000c4f0       ??_C@_0BB@LHGCHNFD@setCext?9certType?$AA@ 000724f0     libeay32:obj_dat.obj
 0002:0000c504       ??_C@_0BD@MELPLACB@setCext?9hashedRoot?$AA@ 00072504     libeay32:obj_dat.obj
 0002:0000c518       ??_C@_0BA@DLJGCPKK@set?9policy?9root?$AA@ 00072518     libeay32:obj_dat.obj
 0002:0000c528       ??_C@_0BI@MFPOFNGC@additional?5verification?$AA@ 00072528     libeay32:obj_dat.obj
 0002:0000c540       ??_C@_09GMOEIEJI@setext?9cv?$AA@ 00072540     libeay32:obj_dat.obj
 0002:0000c54c       ??_C@_0O@PNAFPHHK@setext?9track2?$AA@ 0007254c     libeay32:obj_dat.obj
 0002:0000c55c       ??_C@_0O@PNHGIFHA@setext?9pinAny?$AA@ 0007255c     libeay32:obj_dat.obj
 0002:0000c56c       ??_C@_0BB@IKLFBNP@setext?9pinSecure?$AA@ 0007256c     libeay32:obj_dat.obj
 0002:0000c580       ??_C@_0BI@IMGNFPLI@merchant?5initiated?5auth?$AA@ 00072580     libeay32:obj_dat.obj
 0002:0000c598       ??_C@_0O@IFMPKKOL@setext?9miAuth?$AA@ 00072598     libeay32:obj_dat.obj
 0002:0000c5a8       ??_C@_0BD@IMJHIOH@generic?5cryptogram?$AA@ 000725a8     libeay32:obj_dat.obj
 0002:0000c5bc       ??_C@_0BA@NKJJMGPC@setext?9genCrypt?$AA@ 000725bc     libeay32:obj_dat.obj
 0002:0000c5cc       ??_C@_0BJ@BPGLEKIJ@setct?9BCIDistributionTBS?$AA@ 000725cc     libeay32:obj_dat.obj
 0002:0000c5e8       ??_C@_0BM@GINBKIMJ@setct?9CRLNotificationResTBS?$AA@ 000725e8     libeay32:obj_dat.obj
 0002:0000c604       ??_C@_0BJ@KMIJGANO@setct?9CRLNotificationTBS?$AA@ 00072604     libeay32:obj_dat.obj
 0002:0000c620       ??_C@_0BB@KEDMFAIN@setct?9CertResTBE?$AA@ 00072620     libeay32:obj_dat.obj
 0002:0000c634       ??_C@_0BC@KMAHLFJK@setct?9CertReqTBEX?$AA@ 00072634     libeay32:obj_dat.obj
 0002:0000c648       ??_C@_0BB@NOPMADON@setct?9CertReqTBE?$AA@ 00072648     libeay32:obj_dat.obj
 0002:0000c65c       ??_C@_0BE@MIADHNEP@setct?9RegFormReqTBE?$AA@ 0007265c     libeay32:obj_dat.obj
 0002:0000c670       ??_C@_0BH@PFFPEIML@setct?9BatchAdminResTBE?$AA@ 00072670     libeay32:obj_dat.obj
 0002:0000c688       ??_C@_0BH@IPJPBLKL@setct?9BatchAdminReqTBE?$AA@ 00072688     libeay32:obj_dat.obj
 0002:0000c6a0       ??_C@_0BE@MGLMPAHD@setct?9CredRevResTBE?$AA@ 000726a0     libeay32:obj_dat.obj
 0002:0000c6b4       ??_C@_0BF@PGGAOKCB@setct?9CredRevReqTBEX?$AA@ 000726b4     libeay32:obj_dat.obj
 0002:0000c6cc       ??_C@_0BE@LMHMKDBD@setct?9CredRevReqTBE?$AA@ 000726cc     libeay32:obj_dat.obj
 0002:0000c6e0       ??_C@_0BB@NFFENEIP@setct?9CredResTBE?$AA@ 000726e0     libeay32:obj_dat.obj
 0002:0000c6f4       ??_C@_0BC@ECHILMDC@setct?9CredReqTBEX?$AA@ 000726f4     libeay32:obj_dat.obj
 0002:0000c708       ??_C@_0BB@KPJEIHOP@setct?9CredReqTBE?$AA@ 00072708     libeay32:obj_dat.obj
 0002:0000c71c       ??_C@_0BD@GIBDNMDG@setct?9CapRevResTBE?$AA@ 0007271c     libeay32:obj_dat.obj
 0002:0000c730       ??_C@_0BE@PAHIPABC@setct?9CapRevReqTBEX?$AA@ 00072730     libeay32:obj_dat.obj
 0002:0000c744       ??_C@_0BD@BCNDIPFG@setct?9CapRevReqTBE?$AA@ 00072744     libeay32:obj_dat.obj
 0002:0000c758       ??_C@_0BA@MEFGIEBL@setct?9CapResTBE?$AA@ 00072758     libeay32:obj_dat.obj
 0002:0000c768       ??_C@_0BB@LFALOJDP@setct?9CapReqTBEX?$AA@ 00072768     libeay32:obj_dat.obj
 0002:0000c77c       ??_C@_0BA@LOJGNHHL@setct?9CapReqTBE?$AA@ 0007277c     libeay32:obj_dat.obj
 0002:0000c78c       ??_C@_0BF@KKFFJIHO@setct?9AuthRevResTBEB?$AA@ 0007278c     libeay32:obj_dat.obj
 0002:0000c7a4       ??_C@_0BE@MHAGABNC@setct?9AuthRevResTBE?$AA@ 000727a4     libeay32:obj_dat.obj
 0002:0000c7b8       ??_C@_0BE@LNMGFCLC@setct?9AuthRevReqTBE?$AA@ 000727b8     libeay32:obj_dat.obj
 0002:0000c7cc       ??_C@_0BI@PALCIALL@setct?9AcqCardCodeMsgTBE?$AA@ 000727cc     libeay32:obj_dat.obj
 0002:0000c7e4       ??_C@_0BD@OMCOOIME@setct?9CapTokenTBEX?$AA@ 000727e4     libeay32:obj_dat.obj
 0002:0000c7f8       ??_C@_0BC@CIKKDLAH@setct?9CapTokenTBE?$AA@ 000727f8     libeay32:obj_dat.obj
 0002:0000c80c       ??_C@_0BD@DHGMJDKO@setct?9AuthTokenTBE?$AA@ 0007280c     libeay32:obj_dat.obj
 0002:0000c820       ??_C@_0BC@OEOIIPOH@setct?9AuthResTBEX?$AA@ 00072820     libeay32:obj_dat.obj
 0002:0000c834       ??_C@_0BB@IDPADFEK@setct?9AuthResTBE?$AA@ 00072834     libeay32:obj_dat.obj
 0002:0000c848       ??_C@_0BB@PJDAGGCK@setct?9AuthReqTBE?$AA@ 00072848     libeay32:obj_dat.obj
 0002:0000c85c       ??_C@_0BE@IBOAPLDD@setct?9PIUnsignedTBE?$AA@ 0007285c     libeay32:obj_dat.obj
 0002:0000c870       ??_C@_0BG@JDDNBPAG@setct?9PIDualSignedTBE?$AA@ 00072870     libeay32:obj_dat.obj
 0002:0000c888       ??_C@_0P@DLHKHMDJ@setct?9ErrorTBS?$AA@ 00072888     libeay32:obj_dat.obj
 0002:0000c898       ??_C@_0BE@OIDIJLCF@setct?9CertInqReqTBS?$AA@ 00072898     libeay32:obj_dat.obj
 0002:0000c8ac       ??_C@_0BC@BIIFIBNO@setct?9CertResData?$AA@ 000728ac     libeay32:obj_dat.obj
 0002:0000c8c0       ??_C@_0BB@MCGELGDK@setct?9CertReqTBS?$AA@ 000728c0     libeay32:obj_dat.obj
 0002:0000c8d4       ??_C@_0BC@FFENCANF@setct?9CertReqData?$AA@ 000728d4     libeay32:obj_dat.obj
 0002:0000c8e8       ??_C@_0BE@KOFLJLPI@setct?9RegFormResTBS?$AA@ 000728e8     libeay32:obj_dat.obj
 0002:0000c8fc       ??_C@_0BG@DIBJJIJB@setct?9MeAqCInitResTBS?$AA@ 000728fc     libeay32:obj_dat.obj
 0002:0000c914       ??_C@_0BG@OMHIHPPP@setct?9CardCInitResTBS?$AA@ 00072914     libeay32:obj_dat.obj
 0002:0000c92c       ??_C@_0BI@IHGLAGGD@setct?9BatchAdminResData?$AA@ 0007292c     libeay32:obj_dat.obj
 0002:0000c944       ??_C@_0BI@MKKDKHGI@setct?9BatchAdminReqData?$AA@ 00072944     libeay32:obj_dat.obj
 0002:0000c95c       ??_C@_0BC@CFHCKIIA@setct?9PCertResTBS?$AA@ 0007295c     libeay32:obj_dat.obj
 0002:0000c970       ??_C@_0BD@DDNGMNFC@setct?9PCertReqData?$AA@ 00072970     libeay32:obj_dat.obj
 0002:0000c984       ??_C@_0BF@ECOCNOGF@setct?9CredRevResData?$AA@ 00072984     libeay32:obj_dat.obj
 0002:0000c99c       ??_C@_0BF@OOMLDFOD@setct?9CredRevReqTBSX?$AA@ 0007299c     libeay32:obj_dat.obj
 0002:0000c9b4       ??_C@_0BE@KAOEBGME@setct?9CredRevReqTBS?$AA@ 000729b4     libeay32:obj_dat.obj
 0002:0000c9c8       ??_C@_0BC@PGPKIIHG@setct?9CredResData?$AA@ 000729c8     libeay32:obj_dat.obj
 0002:0000c9dc       ??_C@_0BC@FKNDGDPA@setct?9CredReqTBSX?$AA@ 000729dc     libeay32:obj_dat.obj
 0002:0000c9f0       ??_C@_0BB@LDAMDCDI@setct?9CredReqTBS?$AA@ 000729f0     libeay32:obj_dat.obj
 0002:0000ca04       ??_C@_0BE@EEPKMEFG@setct?9CapRevResData?$AA@ 00072a04     libeay32:obj_dat.obj
 0002:0000ca18       ??_C@_0BE@OINDCPNA@setct?9CapRevReqTBSX?$AA@ 00072a18     libeay32:obj_dat.obj
 0002:0000ca2c       ??_C@_0BD@OELDKIB@setct?9CapRevReqTBS?$AA@ 00072a2c     libeay32:obj_dat.obj
 0002:0000ca40       ??_C@_0BB@BIJNNHL@setct?9CapResData?$AA@ 00072a40     libeay32:obj_dat.obj
 0002:0000ca54       ??_C@_0BB@KNKADGPN@setct?9CapReqTBSX?$AA@ 00072a54     libeay32:obj_dat.obj
 0002:0000ca68       ??_C@_0BA@KCAOGCKM@setct?9CapReqTBS?$AA@ 00072a68     libeay32:obj_dat.obj
 0002:0000ca78       ??_C@_0BE@NLJOLEAF@setct?9AuthRevResTBS?$AA@ 00072a78     libeay32:obj_dat.obj
 0002:0000ca8c       ??_C@_0BF@ODDCPHOK@setct?9AuthRevResData?$AA@ 00072a8c     libeay32:obj_dat.obj
 0002:0000caa4       ??_C@_0BE@KBFOOHGF@setct?9AuthRevReqTBS?$AA@ 00072aa4     libeay32:obj_dat.obj
 0002:0000cab8       ??_C@_0BF@LAOAGKEH@setct?9AcqCardCodeMsg?$AA@ 00072ab8     libeay32:obj_dat.obj
 0002:0000cad0       ??_C@_0BC@DEDCIONA@setct?9CapTokenTBS?$AA@ 00072ad0     libeay32:obj_dat.obj
 0002:0000cae4       ??_C@_0BD@BFGEHNIL@setct?9CapTokenData?$AA@ 00072ae4     libeay32:obj_dat.obj
 0002:0000caf8       ??_C@_0BD@CLPECGHJ@setct?9AuthTokenTBS?$AA@ 00072af8     libeay32:obj_dat.obj
 0002:0000cb0c       ??_C@_0BC@PMEDFACF@setct?9AuthResTBSX?$AA@ 00072b0c     libeay32:obj_dat.obj
 0002:0000cb20       ??_C@_0BB@JPGIIAJN@setct?9AuthResTBS?$AA@ 00072b20     libeay32:obj_dat.obj
 0002:0000cb34       ??_C@_0BB@OFKINDPN@setct?9AuthReqTBS?$AA@ 00072b34     libeay32:obj_dat.obj
 0002:0000cb48       ??_C@_0P@NGDEPBBH@setct?9PResData?$AA@ 00072b48     libeay32:obj_dat.obj
 0002:0000cb58       ??_C@_0N@GIGHFPBJ@setct?9PI?9TBS?$AA@ 00072b58     libeay32:obj_dat.obj
 0002:0000cb68       ??_C@_0BD@GIEGHJGD@setct?9PInitResData?$AA@ 00072b68     libeay32:obj_dat.obj
 0002:0000cb7c       ??_C@_0BC@DDFFKACM@setct?9CapTokenSeq?$AA@ 00072b7c     libeay32:obj_dat.obj
 0002:0000cb90       ??_C@_0BI@CNLKCNFM@setct?9AuthRevResBaggage?$AA@ 00072b90     libeay32:obj_dat.obj
 0002:0000cba8       ??_C@_0BI@DEMAFNK@setct?9AuthRevReqBaggage?$AA@ 00072ba8     libeay32:obj_dat.obj
 0002:0000cbc0       ??_C@_0BF@EFHLGKOJ@setct?9AuthResBaggage?$AA@ 00072bc0     libeay32:obj_dat.obj
 0002:0000cbd8       ??_C@_0P@LPBKKIBL@setct?9HODInput?$AA@ 00072bd8     libeay32:obj_dat.obj
 0002:0000cbe8       ??_C@_0BF@BDFGFMFJ@setct?9PIDataUnsigned?$AA@ 00072be8     libeay32:obj_dat.obj
 0002:0000cc00       ??_C@_0N@PGCGIPOF@setct?9PIData?$AA@ 00072c00     libeay32:obj_dat.obj
 0002:0000cc10       ??_C@_08MNJJNIEC@setct?9PI?$AA@ 00072c10     libeay32:obj_dat.obj
 0002:0000cc1c       ??_C@_0N@GHLAGDMC@setct?9OIData?$AA@ 00072c1c     libeay32:obj_dat.obj
 0002:0000cc2c       ??_C@_0O@PFJCCKAL@setct?9PANOnly?$AA@ 00072c2c     libeay32:obj_dat.obj
 0002:0000cc3c       ??_C@_0P@LAMDLEMO@setct?9PANToken?$AA@ 00072c3c     libeay32:obj_dat.obj
 0002:0000cc4c       ??_C@_0O@EKAPGBNN@setct?9PANData?$AA@ 00072c4c     libeay32:obj_dat.obj
 0002:0000cc5c       ??_C@_09JHODGPNO@set?9brand?$AA@ 00072c5c     libeay32:obj_dat.obj
 0002:0000cc68       ??_C@_0BH@PDPIEGPA@certificate?5extensions?$AA@ 00072c68     libeay32:obj_dat.obj
 0002:0000cc80       ??_C@_0M@KEIBDDC@set?9certExt?$AA@ 00072c80     libeay32:obj_dat.obj
 0002:0000cc8c       ??_C@_0L@LAAAKICM@set?9policy?$AA@ 00072c8c     libeay32:obj_dat.obj
 0002:0000cc98       ??_C@_08OFDIOKIA@set?9attr?$AA@ 00072c98     libeay32:obj_dat.obj
 0002:0000cca4       ??_C@_0BD@LEIDLLNO@message?5extensions?$AA@ 00072ca4     libeay32:obj_dat.obj
 0002:0000ccb8       ??_C@_0L@PKPEIEIJ@set?9msgExt?$AA@ 00072cb8     libeay32:obj_dat.obj
 0002:0000ccc4       ??_C@_0O@HJGLMADJ@content?5types?$AA@ 00072cc4     libeay32:obj_dat.obj
 0002:0000ccd4       ??_C@_09EJPBIJJA@set?9ctype?$AA@ 00072cd4     libeay32:obj_dat.obj
 0002:0000cce0       ??_C@_0BP@KEIHJPNF@Secure?5Electronic?5Transactions?$AA@ 00072ce0     libeay32:obj_dat.obj
 0002:0000cd00       ??_C@_06KKEMDFAF@id?9set?$AA@ 00072d00     libeay32:obj_dat.obj
 0002:0000cd08       ??_C@_09NNMENHIH@pseudonym?$AA@ 00072d08     libeay32:obj_dat.obj
 0002:0000cd14       ??_C@_0BE@DAEHFOO@generationQualifier?$AA@ 00072d14     libeay32:obj_dat.obj
 0002:0000cd28       ??_C@_0BJ@KCNAIDP@id?9hex?9multipart?9message?$AA@ 00072d28     libeay32:obj_dat.obj
 0002:0000cd44       ??_C@_0BH@ILCJEHBB@id?9hex?9partial?9message?$AA@ 00072d44     libeay32:obj_dat.obj
 0002:0000cd5c       ??_C@_0BA@MOFCNIEE@mime?9mhs?9bodies?$AA@ 00072d5c     libeay32:obj_dat.obj
 0002:0000cd6c       ??_C@_0BC@NIFMCBEJ@mime?9mhs?9headings?$AA@ 00072d6c     libeay32:obj_dat.obj
 0002:0000cd80       ??_C@_08DNBACEKK@MIME?5MHS?$AA@ 00072d80     libeay32:obj_dat.obj
 0002:0000cd8c       ??_C@_08HLONPBDI@mime?9mhs?$AA@ 00072d8c     libeay32:obj_dat.obj
 0002:0000cd98       ??_C@_0BF@EFCCADKK@x500UniqueIdentifier?$AA@ 00072d98     libeay32:obj_dat.obj
 0002:0000cdb0       ??_C@_0BC@KCCHJGGO@documentPublisher?$AA@ 00072db0     libeay32:obj_dat.obj
 0002:0000cdc4       ??_C@_05KNIAAKIP@audio?$AA@ 00072dc4     libeay32:obj_dat.obj
 0002:0000cdcc       ??_C@_0M@KIABODOB@dITRedirect?$AA@ 00072dcc     libeay32:obj_dat.obj
 0002:0000cdd8       ??_C@_0BC@CBOFINFC@personalSignature?$AA@ 00072dd8     libeay32:obj_dat.obj
 0002:0000cdec       ??_C@_0BG@FLFPEGPE@subtreeMaximumQuality?$AA@ 00072dec     libeay32:obj_dat.obj
 0002:0000ce04       ??_C@_0BG@HMOECBMF@subtreeMinimumQuality?$AA@ 00072e04     libeay32:obj_dat.obj
 0002:0000ce1c       ??_C@_0BD@EHDOPADK@singleLevelQuality?$AA@ 00072e1c     libeay32:obj_dat.obj
 0002:0000ce30       ??_C@_0L@LMCCHBHL@dSAQuality?$AA@ 00072e30     libeay32:obj_dat.obj
 0002:0000ce3c       ??_C@_0N@POAALOHC@buildingName?$AA@ 00072e3c     libeay32:obj_dat.obj
 0002:0000ce4c       ??_C@_0BF@OFOHKDCI@mailPreferenceOption?$AA@ 00072e4c     libeay32:obj_dat.obj
 0002:0000ce64       ??_C@_0N@DGNBNBGJ@janetMailbox?$AA@ 00072e64     libeay32:obj_dat.obj
 0002:0000ce74       ??_C@_0BF@IANLBJMF@organizationalStatus?$AA@ 00072e74     libeay32:obj_dat.obj
 0002:0000ce8c       ??_C@_0BE@MGDAFGCM@friendlyCountryName?$AA@ 00072e8c     libeay32:obj_dat.obj
 0002:0000cea0       ??_C@_0BF@JICDDEFM@pagerTelephoneNumber?$AA@ 00072ea0     libeay32:obj_dat.obj
 0002:0000ceb8       ??_C@_0BG@DCPABLLG@mobileTelephoneNumber?$AA@ 00072eb8     libeay32:obj_dat.obj
 0002:0000ced0       ??_C@_0O@CCHLDBGG@personalTitle?$AA@ 00072ed0     libeay32:obj_dat.obj
 0002:0000cee0       ??_C@_0BC@NPJKACJF@homePostalAddress?$AA@ 00072ee0     libeay32:obj_dat.obj
 0002:0000cef4       ??_C@_0P@OJOOFNGB@associatedName?$AA@ 00072ef4     libeay32:obj_dat.obj
 0002:0000cf04       ??_C@_0BB@MEFMIBKO@associatedDomain?$AA@ 00072f04     libeay32:obj_dat.obj
 0002:0000cf18       ??_C@_0M@GHEAGPOE@cNAMERecord?$AA@ 00072f18     libeay32:obj_dat.obj
 0002:0000cf24       ??_C@_09OCFHDJJF@sOARecord?$AA@ 00072f24     libeay32:obj_dat.obj
 0002:0000cf30       ??_C@_08FBLONLGA@nSRecord?$AA@ 00072f30     libeay32:obj_dat.obj
 0002:0000cf3c       ??_C@_08DFFJPLPD@mXRecord?$AA@ 00072f3c     libeay32:obj_dat.obj
 0002:0000cf48       ??_C@_0BF@MIIMJDJB@pilotAttributeType27?$AA@ 00072f48     libeay32:obj_dat.obj
 0002:0000cf60       ??_C@_07IBNMBOJB@aRecord?$AA@ 00072f60     libeay32:obj_dat.obj
 0002:0000cf68       ??_C@_0P@ECLEJAJJ@lastModifiedBy?$AA@ 00072f68     libeay32:obj_dat.obj
 0002:0000cf78       ??_C@_0BB@LHLABCIP@lastModifiedTime?$AA@ 00072f78     libeay32:obj_dat.obj
 0002:0000cf8c       ??_C@_0N@CEOKELFP@otherMailbox?$AA@ 00072f8c     libeay32:obj_dat.obj
 0002:0000cf9c       ??_C@_09EMBFDNKC@secretary?$AA@ 00072f9c     libeay32:obj_dat.obj
 0002:0000cfa8       ??_C@_0BE@CPLAKLNE@homeTelephoneNumber?$AA@ 00072fa8     libeay32:obj_dat.obj
 0002:0000cfbc       ??_C@_0BB@COFKDFJ@documentLocation?$AA@ 00072fbc     libeay32:obj_dat.obj
 0002:0000cfd0       ??_C@_0P@DABDJKFB@documentAuthor?$AA@ 00072fd0     libeay32:obj_dat.obj
 0002:0000cfe0       ??_C@_0BA@GHOLKFM@documentVersion?$AA@ 00072fe0     libeay32:obj_dat.obj
 0002:0000cff0       ??_C@_0O@BDIDABAC@documentTitle?$AA@ 00072ff0     libeay32:obj_dat.obj
 0002:0000d000       ??_C@_0BD@MEPJGCEO@documentIdentifier?$AA@ 00073000     libeay32:obj_dat.obj
 0002:0000d014       ??_C@_07JPLKDPHP@manager?$AA@ 00073014     libeay32:obj_dat.obj
 0002:0000d01c       ??_C@_04OODOLJMA@host?$AA@ 0007301c     libeay32:obj_dat.obj
 0002:0000d024       ??_C@_09CCPGMHEM@userClass?$AA@ 00073024     libeay32:obj_dat.obj
 0002:0000d030       ??_C@_05DOIFDPKA@photo?$AA@ 00073030     libeay32:obj_dat.obj
 0002:0000d038       ??_C@_0L@DGKNANFO@roomNumber?$AA@ 00073038     libeay32:obj_dat.obj
 0002:0000d044       ??_C@_0P@PAMFCEKP@favouriteDrink?$AA@ 00073044     libeay32:obj_dat.obj
 0002:0000d054       ??_C@_04NIDJFNBE@info?$AA@ 00073054     libeay32:obj_dat.obj
 0002:0000d05c       ??_C@_0O@PDNFEOHL@rfc822Mailbox?$AA@ 0007305c     libeay32:obj_dat.obj
 0002:0000d06c       ??_C@_04FFKLPPHM@mail?$AA@ 0007306c     libeay32:obj_dat.obj
 0002:0000d074       ??_C@_0BF@HDIIKJDI@textEncodedORAddress?$AA@ 00073074     libeay32:obj_dat.obj
 0002:0000d08c       ??_C@_06LPELCIKE@userId?$AA@ 0007308c     libeay32:obj_dat.obj
 0002:0000d094       ??_C@_03MJDGODDN@UID?$AA@  00073094     libeay32:obj_dat.obj
 0002:0000d098       ??_C@_0BE@DDFOMMI@qualityLabelledData?$AA@ 00073098     libeay32:obj_dat.obj
 0002:0000d0ac       ??_C@_08MPJGPMC@pilotDSA?$AA@ 000730ac     libeay32:obj_dat.obj
 0002:0000d0b8       ??_C@_0BC@PLDKCMI@pilotOrganization?$AA@ 000730b8     libeay32:obj_dat.obj
 0002:0000d0cc       ??_C@_0BF@CONLNHDI@simpleSecurityObject?$AA@ 000730cc     libeay32:obj_dat.obj
 0002:0000d0e4       ??_C@_0BA@LKHIAMBK@friendlyCountry?$AA@ 000730e4     libeay32:obj_dat.obj
 0002:0000d0f4       ??_C@_0BE@OPAPHNCO@domainRelatedObject?$AA@ 000730f4     libeay32:obj_dat.obj
 0002:0000d108       ??_C@_09BOCGGGMK@dNSDomain?$AA@ 00073108     libeay32:obj_dat.obj
 0002:0000d114       ??_C@_0BA@KIAIOBLD@rFC822localPart?$AA@ 00073114     libeay32:obj_dat.obj
 0002:0000d124       ??_C@_0P@OAPEDDHP@documentSeries?$AA@ 00073124     libeay32:obj_dat.obj
 0002:0000d134       ??_C@_04EKFCMFOP@room?$AA@ 00073134     libeay32:obj_dat.obj
 0002:0000d13c       ??_C@_08JEEDKNPB@document?$AA@ 0007313c     libeay32:obj_dat.obj
 0002:0000d148       ??_C@_07PMDLEBNF@account?$AA@ 00073148     libeay32:obj_dat.obj
 0002:0000d150       ??_C@_0M@NCGDCEIP@pilotPerson?$AA@ 00073150     libeay32:obj_dat.obj
 0002:0000d15c       ??_C@_0M@MCCFCPKP@pilotObject?$AA@ 0007315c     libeay32:obj_dat.obj
 0002:0000d168       ??_C@_0BK@LELMGJGD@caseIgnoreIA5StringSyntax?$AA@ 00073168     libeay32:obj_dat.obj
 0002:0000d184       ??_C@_0BA@KPIIGILK@iA5StringSyntax?$AA@ 00073184     libeay32:obj_dat.obj
 0002:0000d194       ??_C@_0M@DLMEDAFC@pilotGroups?$AA@ 00073194     libeay32:obj_dat.obj
 0002:0000d1a0       ??_C@_0BB@MJFNAIDM@pilotObjectClass?$AA@ 000731a0     libeay32:obj_dat.obj
 0002:0000d1b4       ??_C@_0BF@CDEFHHCF@pilotAttributeSyntax?$AA@ 000731b4     libeay32:obj_dat.obj
 0002:0000d1cc       ??_C@_0BD@NEGIHOAI@pilotAttributeType?$AA@ 000731cc     libeay32:obj_dat.obj
 0002:0000d1e0       ??_C@_05KIBFDOPF@pilot?$AA@ 000731e0     libeay32:obj_dat.obj
 0002:0000d1e8       ??_C@_03BIDCBJP@ucl?$AA@   000731e8     libeay32:obj_dat.obj
 0002:0000d1ec       ??_C@_03OHCBHMED@pss?$AA@  000731ec     libeay32:obj_dat.obj
 0002:0000d1f0       ??_C@_04PJOLNDGD@data?$AA@ 000731f0     libeay32:obj_dat.obj
 0002:0000d1f8       ??_C@_0BI@EEABHGCD@Hold?5Instruction?5Reject?$AA@ 000731f8     libeay32:obj_dat.obj
 0002:0000d210       ??_C@_0BG@BDAACIJE@holdInstructionReject?$AA@ 00073210     libeay32:obj_dat.obj
 0002:0000d228       ??_C@_0BN@IJKNPIFC@Hold?5Instruction?5Call?5Issuer?$AA@ 00073228     libeay32:obj_dat.obj
 0002:0000d248       ??_C@_0BK@ENEKHHMB@holdInstructionCallIssuer?$AA@ 00073248     libeay32:obj_dat.obj
 0002:0000d264       ??_C@_0BG@ECBIHNGK@Hold?5Instruction?5None?$AA@ 00073264     libeay32:obj_dat.obj
 0002:0000d27c       ??_C@_0BE@KPEIPHPJ@holdInstructionNone?$AA@ 0007327c     libeay32:obj_dat.obj
 0002:0000d290       ??_C@_0BG@LHBPDMAN@Hold?5Instruction?5Code?$AA@ 00073290     libeay32:obj_dat.obj
 0002:0000d2a8       ??_C@_0BE@FKEPLGJO@holdInstructionCode?$AA@ 000732a8     libeay32:obj_dat.obj
 0002:0000d2bc       ??_C@_0M@JMFNEPEI@aes?9256?9cfb?$AA@ 000732bc     libeay32:obj_dat.obj
 0002:0000d2c8       ??_C@_0M@EAFGNFML@AES?9256?9CFB?$AA@ 000732c8     libeay32:obj_dat.obj
 0002:0000d2d4       ??_C@_0M@NGILPAPA@aes?9256?9ofb?$AA@ 000732d4     libeay32:obj_dat.obj
 0002:0000d2e0       ??_C@_0M@KIAGKHD@AES?9256?9OFB?$AA@ 000732e0     libeay32:obj_dat.obj
 0002:0000d2ec       ??_C@_0M@ICEPNGNF@aes?9256?9cbc?$AA@ 000732ec     libeay32:obj_dat.obj
 0002:0000d2f8       ??_C@_0M@FOEEEMFG@AES?9256?9CBC?$AA@ 000732f8     libeay32:obj_dat.obj
 0002:0000d304       ??_C@_0M@LPPNNCHP@aes?9256?9ecb?$AA@ 00073304     libeay32:obj_dat.obj
 0002:0000d310       ??_C@_0M@GDPGEIPM@AES?9256?9ECB?$AA@ 00073310     libeay32:obj_dat.obj
 0002:0000d31c       ??_C@_0M@EOODGAMJ@aes?9192?9cfb?$AA@ 0007331c     libeay32:obj_dat.obj
 0002:0000d328       ??_C@_0M@JCOIPKEK@AES?9192?9CFB?$AA@ 00073328     libeay32:obj_dat.obj
 0002:0000d334       ??_C@_0M@EDFNPHB@aes?9192?9ofb?$AA@ 00073334     libeay32:obj_dat.obj
 0002:0000d340       ??_C@_0M@NIDOEFPC@AES?9192?9OFB?$AA@ 00073340     libeay32:obj_dat.obj
 0002:0000d34c       ??_C@_0M@FAPBPJFE@aes?9192?9cbc?$AA@ 0007334c     libeay32:obj_dat.obj
 0002:0000d358       ??_C@_0M@IMPKGDNH@AES?9192?9CBC?$AA@ 00073358     libeay32:obj_dat.obj
 0002:0000d364       ??_C@_0M@GNEDPNPO@aes?9192?9ecb?$AA@ 00073364     libeay32:obj_dat.obj
 0002:0000d370       ??_C@_0M@LBEIGHHN@AES?9192?9ECB?$AA@ 00073370     libeay32:obj_dat.obj
 0002:0000d37c       ??_C@_0M@ONHPBHFF@aes?9128?9cfb?$AA@ 0007337c     libeay32:obj_dat.obj
 0002:0000d388       ??_C@_0M@DBHEINNG@AES?9128?9CFB?$AA@ 00073388     libeay32:obj_dat.obj
 0002:0000d394       ??_C@_0M@KHKJKION@aes?9128?9ofb?$AA@ 00073394     libeay32:obj_dat.obj
 0002:0000d3a0       ??_C@_0M@HLKCDCGO@AES?9128?9OFB?$AA@ 000733a0     libeay32:obj_dat.obj
 0002:0000d3ac       ??_C@_0M@PDGNIOMI@aes?9128?9cbc?$AA@ 000733ac     libeay32:obj_dat.obj
 0002:0000d3b8       ??_C@_0M@CPGGBEEL@AES?9128?9CBC?$AA@ 000733b8     libeay32:obj_dat.obj
 0002:0000d3c4       ??_C@_0M@MONPIKGC@aes?9128?9ecb?$AA@ 000733c4     libeay32:obj_dat.obj
 0002:0000d3d0       ??_C@_0M@BCNEBAOB@AES?9128?9ECB?$AA@ 000733d0     libeay32:obj_dat.obj
 0002:0000d3dc       ??_C@_0BD@HDEEGCLB@Microsoft?5CSP?5Name?$AA@ 000733dc     libeay32:obj_dat.obj
 0002:0000d3f0       ??_C@_07BPKAKPJK@CSPName?$AA@ 000733f0     libeay32:obj_dat.obj
 0002:0000d3f8       ??_C@_0BA@DGJNDOPM@ecdsa?9with?9SHA1?$AA@ 000733f8     libeay32:obj_dat.obj
 0002:0000d408       ??_C@_0L@JJFEINOP@prime256v1?$AA@ 00073408     libeay32:obj_dat.obj
 0002:0000d414       ??_C@_0L@HMEBAKJL@prime239v3?$AA@ 00073414     libeay32:obj_dat.obj
 0002:0000d420       ??_C@_0L@GFFKDLNK@prime239v2?$AA@ 00073420     libeay32:obj_dat.obj
 0002:0000d42c       ??_C@_0L@EOHHGIBJ@prime239v1?$AA@ 0007342c     libeay32:obj_dat.obj
 0002:0000d438       ??_C@_0L@GHGEOHJF@prime192v3?$AA@ 00073438     libeay32:obj_dat.obj
 0002:0000d444       ??_C@_0L@HOHPNGNE@prime192v2?$AA@ 00073444     libeay32:obj_dat.obj
 0002:0000d450       ??_C@_0L@FFFCIFBH@prime192v1?$AA@ 00073450     libeay32:obj_dat.obj
 0002:0000d45c       ??_C@_0P@NEOBKIMO@id?9ecPublicKey?$AA@ 0007345c     libeay32:obj_dat.obj
 0002:0000d46c       ??_C@_0BJ@HECCMKCN@characteristic?9two?9field?$AA@ 0007346c     libeay32:obj_dat.obj
 0002:0000d488       ??_C@_0M@LGLKIODB@prime?9field?$AA@ 00073488     libeay32:obj_dat.obj
 0002:0000d494       ??_C@_0L@HAOKGHPF@ANSI?5X9?462?$AA@ 00073494     libeay32:obj_dat.obj
 0002:0000d4a0       ??_C@_0L@LBMOMFCJ@ansi?9X9?962?$AA@ 000734a0     libeay32:obj_dat.obj
 0002:0000d4ac       ??_C@_0BP@DEKFNCEH@X509v3?5No?5Revocation?5Available?$AA@ 000734ac     libeay32:obj_dat.obj
 0002:0000d4cc       ??_C@_0L@ECGDAGCK@noRevAvail?$AA@ 000734cc     libeay32:obj_dat.obj
 0002:0000d4d8       ??_C@_0BE@IECCFFCH@X509v3?5AC?5Targeting?$AA@ 000734d8     libeay32:obj_dat.obj
 0002:0000d4ec       ??_C@_0BC@JINDJNPM@targetInformation?$AA@ 000734ec     libeay32:obj_dat.obj
 0002:0000d500       ??_C@_0BK@DNMBLGM@X509v3?5Policy?5Constraints?$AA@ 00073500     libeay32:obj_dat.obj
 0002:0000d51c       ??_C@_0BC@IJLMCBHD@policyConstraints?$AA@ 0007351c     libeay32:obj_dat.obj
 0002:0000d530       ??_C@_04IAMNPBLO@role?$AA@ 00073530     libeay32:obj_dat.obj
 0002:0000d538       ??_C@_0BA@PEFFHNFH@id?9aca?9encAttrs?$AA@ 00073538     libeay32:obj_dat.obj
 0002:0000d548       ??_C@_0BL@OMFIOBLF@Subject?5Information?5Access?$AA@ 00073548     libeay32:obj_dat.obj
 0002:0000d564       ??_C@_0BC@IEIBIKBA@subjectInfoAccess?$AA@ 00073564     libeay32:obj_dat.obj
 0002:0000d578       ??_C@_0M@BKAIKGEL@ac?9proxying?$AA@ 00073578     libeay32:obj_dat.obj
 0002:0000d584       ??_C@_0BF@JDOFKNPK@md4WithRSAEncryption?$AA@ 00073584     libeay32:obj_dat.obj
 0002:0000d59c       ??_C@_07MHHBEDHA@RSA?9MD4?$AA@ 0007359c     libeay32:obj_dat.obj
 0002:0000d5a4       ??_C@_09ECGCCLFI@clearance?$AA@ 000735a4     libeay32:obj_dat.obj
 0002:0000d5b0       ??_C@_0BJ@MAOJIBHF@Selected?5Attribute?5Types?$AA@ 000735b0     libeay32:obj_dat.obj
 0002:0000d5cc       ??_C@_0BJ@BDDNHDDA@selected?9attribute?9types?$AA@ 000735cc     libeay32:obj_dat.obj
 0002:0000d5e8       ??_C@_06HFDFFJHI@Domain?$AA@ 000735e8     libeay32:obj_dat.obj
 0002:0000d5f0       ??_C@_06LKIIGAOE@domain?$AA@ 000735f0     libeay32:obj_dat.obj
 0002:0000d5f8       ??_C@_0BA@DMAKFKAH@domainComponent?$AA@ 000735f8     libeay32:obj_dat.obj
 0002:0000d608       ??_C@_02KMHJBPDH@DC?$AA@   00073608     libeay32:obj_dat.obj
 0002:0000d60c       ??_C@_08GPNKJGDG@dcObject?$AA@ 0007360c     libeay32:obj_dat.obj
 0002:0000d618       ??_C@_08KAGHKPKK@dcobject?$AA@ 00073618     libeay32:obj_dat.obj
 0002:0000d624       ??_C@_0M@CEEPHGPL@Enterprises?$AA@ 00073624     libeay32:obj_dat.obj
 0002:0000d630       ??_C@_0M@DMHOKNAD@enterprises?$AA@ 00073630     libeay32:obj_dat.obj
 0002:0000d63c       ??_C@_04JEGKNAHI@Mail?$AA@ 0007363c     libeay32:obj_dat.obj
 0002:0000d644       ??_C@_06JDJOGLHO@SNMPv2?$AA@ 00073644     libeay32:obj_dat.obj
 0002:0000d64c       ??_C@_06DKHMNHOO@snmpv2?$AA@ 0007364c     libeay32:obj_dat.obj
 0002:0000d654       ??_C@_08EDKKPLCC@Security?$AA@ 00073654     libeay32:obj_dat.obj
 0002:0000d660       ??_C@_08MBFLHJIB@security?$AA@ 00073660     libeay32:obj_dat.obj
 0002:0000d66c       ??_C@_07CFINJGKH@Private?$AA@ 0007366c     libeay32:obj_dat.obj
 0002:0000d674       ??_C@_07NMPLPEPB@private?$AA@ 00073674     libeay32:obj_dat.obj
 0002:0000d67c       ??_C@_0N@FKCIGJFM@Experimental?$AA@ 0007367c     libeay32:obj_dat.obj
 0002:0000d68c       ??_C@_0N@OJFGCCKJ@experimental?$AA@ 0007368c     libeay32:obj_dat.obj
 0002:0000d69c       ??_C@_0L@ENAJINDB@Management?$AA@ 0007369c     libeay32:obj_dat.obj
 0002:0000d6a8       ??_C@_04PFNCJACF@mgmt?$AA@ 000736a8     libeay32:obj_dat.obj
 0002:0000d6b0       ??_C@_09EOAFACM@Directory?$AA@ 000736b0     libeay32:obj_dat.obj
 0002:0000d6bc       ??_C@_09ELLNFDPM@directory?$AA@ 000736bc     libeay32:obj_dat.obj
 0002:0000d6c8       ??_C@_04BAMKDBHE@iana?$AA@ 000736c8     libeay32:obj_dat.obj
 0002:0000d6d0       ??_C@_04NMPANDAM@IANA?$AA@ 000736d0     libeay32:obj_dat.obj
 0002:0000d6d8       ??_C@_03CIOFGCAJ@dod?$AA@  000736d8     libeay32:obj_dat.obj
 0002:0000d6dc       ??_C@_03CFBOKPHF@DOD?$AA@  000736dc     libeay32:obj_dat.obj
 0002:0000d6e0       ??_C@_03MADHIGOI@org?$AA@  000736e0     libeay32:obj_dat.obj
 0002:0000d6e4       ??_C@_03MNMMELJE@ORG?$AA@  000736e4     libeay32:obj_dat.obj
 0002:0000d6e8       ??_C@_0CA@FIOIBJEO@directory?5services?5?9?5algorithms?$AA@ 000736e8     libeay32:obj_dat.obj
 0002:0000d708       ??_C@_0P@NMIAKCBG@X500algorithms?$AA@ 00073708     libeay32:obj_dat.obj
 0002:0000d718       ??_C@_0N@JHANBHGC@rsaSignature?$AA@ 00073718     libeay32:obj_dat.obj
 0002:0000d728       ??_C@_09JPNFBOJG@algorithm?$AA@ 00073728     libeay32:obj_dat.obj
 0002:0000d734       ??_C@_0L@INBPOG@Trust?5Root?$AA@ 00073734     libeay32:obj_dat.obj
 0002:0000d740       ??_C@_09LNEPAILM@trustRoot?$AA@ 00073740     libeay32:obj_dat.obj
 0002:0000d74c       ??_C@_04LNEJFJGI@path?$AA@ 0007374c     libeay32:obj_dat.obj
 0002:0000d754       ??_C@_05HDPIMK@valid?$AA@  00073754     libeay32:obj_dat.obj
 0002:0000d75c       ??_C@_0BF@MPEDLKDP@Extended?5OCSP?5Status?$AA@ 0007375c     libeay32:obj_dat.obj
 0002:0000d774       ??_C@_0P@EGENIBNC@extendedStatus?$AA@ 00073774     libeay32:obj_dat.obj
 0002:0000d784       ??_C@_0BF@CEIKAD@OCSP?5Service?5Locator?$AA@ 00073784     libeay32:obj_dat.obj
 0002:0000d79c       ??_C@_0P@LCDAPLHC@serviceLocator?$AA@ 0007379c     libeay32:obj_dat.obj
 0002:0000d7ac       ??_C@_0BE@JAFPABJB@OCSP?5Archive?5Cutoff?$AA@ 000737ac     libeay32:obj_dat.obj
 0002:0000d7c0       ??_C@_0O@FIEDPKGI@archiveCutoff?$AA@ 000737c0     libeay32:obj_dat.obj
 0002:0000d7d0       ??_C@_0O@HFOALJCG@OCSP?5No?5Check?$AA@ 000737d0     libeay32:obj_dat.obj
 0002:0000d7e0       ??_C@_07MCKMCKHJ@noCheck?$AA@ 000737e0     libeay32:obj_dat.obj
 0002:0000d7e8       ??_C@_0BK@JKKLNLEI@Acceptable?5OCSP?5Responses?$AA@ 000737e8     libeay32:obj_dat.obj
 0002:0000d804       ??_C@_0BE@FBPDIHIK@acceptableResponses?$AA@ 00073804     libeay32:obj_dat.obj
 0002:0000d818       ??_C@_0M@LCLKJALE@OCSP?5CRL?5ID?$AA@ 00073818     libeay32:obj_dat.obj
 0002:0000d824       ??_C@_05NOENOBME@CrlID?$AA@ 00073824     libeay32:obj_dat.obj
 0002:0000d82c       ??_C@_0L@NCNDEJFL@OCSP?5Nonce?$AA@ 0007382c     libeay32:obj_dat.obj
 0002:0000d838       ??_C@_05OJOPLPHH@Nonce?$AA@ 00073838     libeay32:obj_dat.obj
 0002:0000d840       ??_C@_0BE@ONEEPEOL@Basic?5OCSP?5Response?$AA@ 00073840     libeay32:obj_dat.obj
 0002:0000d854       ??_C@_0BC@KFAFMFFF@basicOCSPResponse?$AA@ 00073854     libeay32:obj_dat.obj
 0002:0000d868       ??_C@_07JCKMJMPC@ad?5dvcs?$AA@ 00073868     libeay32:obj_dat.obj
 0002:0000d870       ??_C@_07JCCJJKFE@AD_DVCS?$AA@ 00073870     libeay32:obj_dat.obj
 0002:0000d878       ??_C@_0BB@NMPPBOGK@AD?5Time?5Stamping?$AA@ 00073878     libeay32:obj_dat.obj
 0002:0000d88c       ??_C@_0BA@PBBONLHE@ad_timestamping?$AA@ 0007388c     libeay32:obj_dat.obj
 0002:0000d89c       ??_C@_0BD@DDALHPCH@id?9cct?9PKIResponse?$AA@ 0007389c     libeay32:obj_dat.obj
 0002:0000d8b0       ??_C@_0P@FNCPPGJO@id?9cct?9PKIData?$AA@ 000738b0     libeay32:obj_dat.obj
 0002:0000d8c0       ??_C@_0L@CDHPLMPE@id?9cct?9crs?$AA@ 000738c0     libeay32:obj_dat.obj
 0002:0000d8cc       ??_C@_0BH@DJONLBHI@id?9qcs?9pkixQCSyntax?9v1?$AA@ 000738cc     libeay32:obj_dat.obj
 0002:0000d8e4       ??_C@_0M@FBOAJIIJ@id?9aca?9role?$AA@ 000738e4     libeay32:obj_dat.obj
 0002:0000d8f0       ??_C@_0N@HOPCGOGP@id?9aca?9group?$AA@ 000738f0     libeay32:obj_dat.obj
 0002:0000d900       ??_C@_0BI@IDHFJBKH@id?9aca?9chargingIdentity?$AA@ 00073900     libeay32:obj_dat.obj
 0002:0000d918       ??_C@_0BG@GFJCFEAI@id?9aca?9accessIdentity?$AA@ 00073918     libeay32:obj_dat.obj
 0002:0000d930       ??_C@_0BK@OFEDAOCA@id?9aca?9authenticationInfo?$AA@ 00073930     libeay32:obj_dat.obj
 0002:0000d94c       ??_C@_0BK@BJMNIGCJ@id?9pda?9countryOfResidence?$AA@ 0007394c     libeay32:obj_dat.obj
 0002:0000d968       ??_C@_0BM@KMGEGNAB@id?9pda?9countryOfCitizenship?$AA@ 00073968     libeay32:obj_dat.obj
 0002:0000d984       ??_C@_0O@JMCFNPFD@id?9pda?9gender?$AA@ 00073984     libeay32:obj_dat.obj
 0002:0000d994       ??_C@_0BE@NIFFDBPJ@id?9pda?9placeOfBirth?$AA@ 00073994     libeay32:obj_dat.obj
 0002:0000d9a8       ??_C@_0BD@BADJMIPF@id?9pda?9dateOfBirth?$AA@ 000739a8     libeay32:obj_dat.obj
 0002:0000d9bc       ??_C@_0BD@IGLADCFL@id?9on?9personalData?$AA@ 000739bc     libeay32:obj_dat.obj
 0002:0000d9d0       ??_C@_0BN@MIGHDJON@id?9cmc?9confirmCertAcceptance?$AA@ 000739d0     libeay32:obj_dat.obj
 0002:0000d9f0       ??_C@_0BG@EEIJMDPB@id?9cmc?9popLinkWitness?$AA@ 000739f0     libeay32:obj_dat.obj
 0002:0000da08       ??_C@_0BF@GGLCNKGO@id?9cmc?9popLinkRandom?$AA@ 00073a08     libeay32:obj_dat.obj
 0002:0000da20       ??_C@_0BE@JKLJLIIH@id?9cmc?9queryPending?$AA@ 00073a20     libeay32:obj_dat.obj
 0002:0000da34       ??_C@_0BE@CKMFMMDP@id?9cmc?9responseInfo?$AA@ 00073a34     libeay32:obj_dat.obj
 0002:0000da48       ??_C@_0P@PCIOIKNC@id?9cmc?9regInfo?$AA@ 00073a48     libeay32:obj_dat.obj
 0002:0000da58       ??_C@_0BF@BOEAJJNI@id?9cmc?9revokeRequest?$AA@ 00073a58     libeay32:obj_dat.obj
 0002:0000da70       ??_C@_0O@OIGIOBJ@id?9cmc?9getCRL?$AA@ 00073a70     libeay32:obj_dat.obj
 0002:0000da80       ??_C@_0P@GMDPJKDO@id?9cmc?9getCert?$AA@ 00073a80     libeay32:obj_dat.obj
 0002:0000da90       ??_C@_0BF@BMODAINP@id?9cmc?9lraPOPWitness?$AA@ 00073a90     libeay32:obj_dat.obj
 0002:0000daa8       ??_C@_0BE@KBIPLENG@id?9cmc?9decryptedPOP?$AA@ 00073aa8     libeay32:obj_dat.obj
 0002:0000dabc       ??_C@_0BE@NILMJFN@id?9cmc?9encryptedPOP?$AA@ 00073abc     libeay32:obj_dat.obj
 0002:0000dad0       ??_C@_0BF@HLOCACJF@id?9cmc?9addExtensions?$AA@ 00073ad0     libeay32:obj_dat.obj
 0002:0000dae8       ??_C@_0BG@JLHHNNCH@id?9cmc?9recipientNonce?$AA@ 00073ae8     libeay32:obj_dat.obj
 0002:0000db00       ??_C@_0BD@BCMJDDMP@id?9cmc?9senderNonce?$AA@ 00073b00     libeay32:obj_dat.obj
 0002:0000db14       ??_C@_0BF@GEJAHBF@id?9cmc?9transactionId?$AA@ 00073b14     libeay32:obj_dat.obj
 0002:0000db2c       ??_C@_0BC@LLJKCHEN@id?9cmc?9dataReturn?$AA@ 00073b2c     libeay32:obj_dat.obj
 0002:0000db40       ??_C@_0BF@IDAHNDCK@id?9cmc?9identityProof?$AA@ 00073b40     libeay32:obj_dat.obj
 0002:0000db58       ??_C@_0BG@PPIINOMK@id?9cmc?9identification?$AA@ 00073b58     libeay32:obj_dat.obj
 0002:0000db70       ??_C@_0BC@CMNEPEAI@id?9cmc?9statusInfo?$AA@ 00073b70     libeay32:obj_dat.obj
 0002:0000db84       ??_C@_0O@OBGPPBGA@id?9alg?9dh?9pop?$AA@ 00073b84     libeay32:obj_dat.obj
 0002:0000db94       ??_C@_0BI@KIODNBCM@id?9alg?9dh?9sig?9hmac?9sha1?$AA@ 00073b94     libeay32:obj_dat.obj
 0002:0000dbac       ??_C@_0BD@LAAJOBHI@id?9alg?9noSignature?$AA@ 00073bac     libeay32:obj_dat.obj
 0002:0000dbc0       ??_C@_0N@KIJONBNA@id?9alg?9des40?$AA@ 00073bc0     libeay32:obj_dat.obj
 0002:0000dbd0       ??_C@_0BD@EEAPBNJJ@id?9regInfo?9certReq?$AA@ 00073bd0     libeay32:obj_dat.obj
 0002:0000dbe4       ??_C@_0BF@FHFGHAHE@id?9regInfo?9utf8Pairs?$AA@ 00073be4     libeay32:obj_dat.obj
 0002:0000dbfc       ??_C@_0BL@GHBPLPHM@id?9regCtrl?9protocolEncrKey?$AA@ 00073bfc     libeay32:obj_dat.obj
 0002:0000dc18       ??_C@_0BF@GFJPNJIG@id?9regCtrl?9oldCertID?$AA@ 00073c18     libeay32:obj_dat.obj
 0002:0000dc30       ??_C@_0BN@ONKHMAOP@id?9regCtrl?9pkiArchiveOptions?$AA@ 00073c30     libeay32:obj_dat.obj
 0002:0000dc50       ??_C@_0BO@GJKPPLPL@id?9regCtrl?9pkiPublicationInfo?$AA@ 00073c50     libeay32:obj_dat.obj
 0002:0000dc70       ??_C@_0BJ@FBKKLLKP@id?9regCtrl?9authenticator?$AA@ 00073c70     libeay32:obj_dat.obj
 0002:0000dc8c       ??_C@_0BE@JDMKCIPE@id?9regCtrl?9regToken?$AA@ 00073c8c     libeay32:obj_dat.obj
 0002:0000dca0       ??_C@_0L@BGHMJHOP@id?9regInfo?$AA@ 00073ca0     libeay32:obj_dat.obj
 0002:0000dcac       ??_C@_0L@FDGKGANK@id?9regCtrl?$AA@ 00073cac     libeay32:obj_dat.obj
 0002:0000dcb8       ??_C@_0BF@CLCJJGFI@id?9it?9origPKIMessage?$AA@ 00073cb8     libeay32:obj_dat.obj
 0002:0000dcd0       ??_C@_0BG@KCBHNMIK@id?9it?9confirmWaitTime?$AA@ 00073cd0     libeay32:obj_dat.obj
 0002:0000dce8       ??_C@_0BG@MKDHCJKF@id?9it?9implicitConfirm?$AA@ 00073ce8     libeay32:obj_dat.obj
 0002:0000dd00       ??_C@_0BE@FOOOCPMH@id?9it?9revPassphrase?$AA@ 00073d00     libeay32:obj_dat.obj
 0002:0000dd14       ??_C@_0BG@KPIIFBLH@id?9it?9keyPairParamRep?$AA@ 00073d14     libeay32:obj_dat.obj
 0002:0000dd2c       ??_C@_0BG@LGJDGAPG@id?9it?9keyPairParamReq?$AA@ 00073d2c     libeay32:obj_dat.obj
 0002:0000dd44       ??_C@_0BL@HBPHBFLO@id?9it?9subscriptionResponse?$AA@ 00073d44     libeay32:obj_dat.obj
 0002:0000dd60       ??_C@_0BK@MKGCMKGI@id?9it?9subscriptionRequest?$AA@ 00073d60     libeay32:obj_dat.obj
 0002:0000dd7c       ??_C@_0BG@BPLKDJPD@id?9it?9unsupportedOIDs?$AA@ 00073d7c     libeay32:obj_dat.obj
 0002:0000dd94       ??_C@_0BB@NHKBGJFG@id?9it?9currentCRL?$AA@ 00073d94     libeay32:obj_dat.obj
 0002:0000dda8       ??_C@_0BG@OAKEHPLC@id?9it?9caKeyUpdateInfo?$AA@ 00073da8     libeay32:obj_dat.obj
 0002:0000ddc0       ??_C@_0BH@JFBOPDCH@id?9it?9preferredSymmAlg?$AA@ 00073dc0     libeay32:obj_dat.obj
 0002:0000ddd8       ??_C@_0BG@FKIDIODL@id?9it?9encKeyPairTypes?$AA@ 00073dd8     libeay32:obj_dat.obj
 0002:0000ddf0       ??_C@_0BH@POCENFBA@id?9it?9signKeyPairTypes?$AA@ 00073df0     libeay32:obj_dat.obj
 0002:0000de08       ??_C@_0BE@GJACIPND@id?9it?9caProtEncCert?$AA@ 00073e08     libeay32:obj_dat.obj
 0002:0000de1c       ??_C@_04FFLIHJGD@dvcs?$AA@ 00073e1c     libeay32:obj_dat.obj
 0002:0000de24       ??_C@_04JJICJLBL@DVCS?$AA@ 00073e24     libeay32:obj_dat.obj
 0002:0000de2c       ??_C@_0L@DECDDCGF@IPSec?5User?$AA@ 00073e2c     libeay32:obj_dat.obj
 0002:0000de38       ??_C@_09GOHJKOFF@ipsecUser?$AA@ 00073e38     libeay32:obj_dat.obj
 0002:0000de44       ??_C@_0N@EKDIOGLO@IPSec?5Tunnel?$AA@ 00073e44     libeay32:obj_dat.obj
 0002:0000de54       ??_C@_0M@GMMHFFHI@ipsecTunnel?$AA@ 00073e54     libeay32:obj_dat.obj
 0002:0000de60       ??_C@_0BB@JEJDAICO@IPSec?5End?5System?$AA@ 00073e60     libeay32:obj_dat.obj
 0002:0000de74       ??_C@_0P@MKBFMAPP@ipsecEndSystem?$AA@ 00073e74     libeay32:obj_dat.obj
 0002:0000de84       ??_C@_0L@HLNNPJEH@textNotice?$AA@ 00073e84     libeay32:obj_dat.obj
 0002:0000de90       ??_C@_0BG@JCJJBMAI@sbgp?9routerIdentifier?$AA@ 00073e90     libeay32:obj_dat.obj
 0002:0000dea8       ??_C@_0BG@OJEHJDKA@sbgp?9autonomousSysNum?$AA@ 00073ea8     libeay32:obj_dat.obj
 0002:0000dec0       ??_C@_0BB@NNCKCHBC@sbgp?9ipAddrBlock?$AA@ 00073ec0     libeay32:obj_dat.obj
 0002:0000ded4       ??_C@_0L@DLGBNBJE@aaControls?$AA@ 00073ed4     libeay32:obj_dat.obj
 0002:0000dee0       ??_C@_0N@FPEEOJCI@ac?9targeting?$AA@ 00073ee0     libeay32:obj_dat.obj
 0002:0000def0       ??_C@_0P@CIOHPJGC@ac?9auditEntity?$AA@ 00073ef0     libeay32:obj_dat.obj
 0002:0000df00       ??_C@_0N@FPMNLLM@qcStatements?$AA@ 00073f00     libeay32:obj_dat.obj
 0002:0000df10       ??_C@_0P@KFKDECPH@Biometric?5Info?$AA@ 00073f10     libeay32:obj_dat.obj
 0002:0000df20       ??_C@_0O@MPIIPAHM@biometricInfo?$AA@ 00073f20     libeay32:obj_dat.obj
 0002:0000df30       ??_C@_0P@MMOAAMFD@id?9mod?9cmp2000?$AA@ 00073f30     libeay32:obj_dat.obj
 0002:0000df40       ??_C@_0M@GHDGNJKI@id?9mod?9dvcs?$AA@ 00073f40     libeay32:obj_dat.obj
 0002:0000df4c       ??_C@_0M@EACKLPKH@id?9mod?9ocsp?$AA@ 00073f4c     libeay32:obj_dat.obj
 0002:0000df58       ??_C@_0BK@GAJOODEK@id?9mod?9timestamp?9protocol?$AA@ 00073f58     libeay32:obj_dat.obj
 0002:0000df74       ??_C@_0BG@EPPFBJNH@id?9mod?9attribute?9cert?$AA@ 00073f74     libeay32:obj_dat.obj
 0002:0000df8c       ??_C@_0BJ@IGODAJIK@id?9mod?9qualified?9cert?993?$AA@ 00073f8c     libeay32:obj_dat.obj
 0002:0000dfa8       ??_C@_0BJ@GENFLKHG@id?9mod?9qualified?9cert?988?$AA@ 00073fa8     libeay32:obj_dat.obj
 0002:0000dfc4       ??_C@_0L@MONEHBKH@id?9mod?9cmp?$AA@ 00073fc4     libeay32:obj_dat.obj
 0002:0000dfd0       ??_C@_0BG@NAFGGBFM@id?9mod?9kea?9profile?993?$AA@ 00073fd0     libeay32:obj_dat.obj
 0002:0000dfe8       ??_C@_0BG@DCGANCKA@id?9mod?9kea?9profile?988?$AA@ 00073fe8     libeay32:obj_dat.obj
 0002:0000e000       ??_C@_0L@KPDLDADF@id?9mod?9cmc?$AA@ 00074000     libeay32:obj_dat.obj
 0002:0000e00c       ??_C@_0M@GHFPFJPB@id?9mod?9crmf?$AA@ 0007400c     libeay32:obj_dat.obj
 0002:0000e018       ??_C@_0BF@EOKAKKIK@id?9pkix1?9implicit?993?$AA@ 00074018     libeay32:obj_dat.obj
 0002:0000e030       ??_C@_0BF@JEALIPIC@id?9pkix1?9explicit?993?$AA@ 00074030     libeay32:obj_dat.obj
 0002:0000e048       ??_C@_0BF@KMJGBJHG@id?9pkix1?9implicit?988?$AA@ 00074048     libeay32:obj_dat.obj
 0002:0000e060       ??_C@_0BF@HGDNDMHO@id?9pkix1?9explicit?988?$AA@ 00074060     libeay32:obj_dat.obj
 0002:0000e078       ??_C@_06PONIBOCI@id?9cct?$AA@ 00074078     libeay32:obj_dat.obj
 0002:0000e080       ??_C@_06ELIJBHPL@id?9qcs?$AA@ 00074080     libeay32:obj_dat.obj
 0002:0000e088       ??_C@_06GDGEDALH@id?9aca?$AA@ 00074088     libeay32:obj_dat.obj
 0002:0000e090       ??_C@_06IOIOBGMI@id?9pda?$AA@ 00074090     libeay32:obj_dat.obj
 0002:0000e098       ??_C@_05OHNJGMJE@id?9on?$AA@ 00074098     libeay32:obj_dat.obj
 0002:0000e0a0       ??_C@_06PBMFLHLE@id?9cmc?$AA@ 000740a0     libeay32:obj_dat.obj
 0002:0000e0a8       ??_C@_06DOGCNAAM@id?9alg?$AA@ 000740a8     libeay32:obj_dat.obj
 0002:0000e0b0       ??_C@_07OMHOPMIM@id?9pkip?$AA@ 000740b0     libeay32:obj_dat.obj
 0002:0000e0b8       ??_C@_05FDHJOKPN@id?9it?$AA@ 000740b8     libeay32:obj_dat.obj
 0002:0000e0c0       ??_C@_05EBEMBIDF@id?9qt?$AA@ 000740c0     libeay32:obj_dat.obj
 0002:0000e0c8       ??_C@_0M@FNAFBNKE@id?9pkix?9mod?$AA@ 000740c8     libeay32:obj_dat.obj
 0002:0000e0d4       ??_C@_03ODADJPDG@md4?$AA@  000740d4     libeay32:obj_dat.obj
 0002:0000e0d8       ??_C@_03HLHMHGOI@MD4?$AA@  000740d8     libeay32:obj_dat.obj
 0002:0000e0dc       ??_C@_0CB@MICJDGGH@id?9smime?9cti?9ets?9proofOfCreation@ 000740dc     libeay32:obj_dat.obj
 0002:0000e100       ??_C@_0CB@DDLMHEBC@id?9smime?9cti?9ets?9proofOfApproval@ 00074100     libeay32:obj_dat.obj
 0002:0000e124       ??_C@_0BP@ODCAFFCM@id?9smime?9cti?9ets?9proofOfSender?$AA@ 00074124     libeay32:obj_dat.obj
 0002:0000e144       ??_C@_0CB@ICJGPMEP@id?9smime?9cti?9ets?9proofOfDelivery@ 00074144     libeay32:obj_dat.obj
 0002:0000e168       ??_C@_0CA@HNGOKBGC@id?9smime?9cti?9ets?9proofOfReceipt?$AA@ 00074168     libeay32:obj_dat.obj
 0002:0000e188       ??_C@_0BP@BCHFEGHC@id?9smime?9cti?9ets?9proofOfOrigin?$AA@ 00074188     libeay32:obj_dat.obj
 0002:0000e1a8       ??_C@_0BN@GPAAHNOH@id?9smime?9spq?9ets?9sqt?9unotice?$AA@ 000741a8     libeay32:obj_dat.obj
 0002:0000e1c8       ??_C@_0BJ@IMNKDGEG@id?9smime?9spq?9ets?9sqt?9uri?$AA@ 000741c8     libeay32:obj_dat.obj
 0002:0000e1e4       ??_C@_0BB@BMOBKAGE@id?9smime?9cd?9ldap?$AA@ 000741e4     libeay32:obj_dat.obj
 0002:0000e1f8       ??_C@_0BI@FIFDKKFJ@id?9smime?9alg?9CMSRC2wrap?$AA@ 000741f8     libeay32:obj_dat.obj
 0002:0000e210       ??_C@_0BJ@FOFHEIDB@id?9smime?9alg?9CMS3DESwrap?$AA@ 00074210     libeay32:obj_dat.obj
 0002:0000e22c       ??_C@_0BC@COOODKPD@id?9smime?9alg?9ESDH?$AA@ 0007422c     libeay32:obj_dat.obj
 0002:0000e240       ??_C@_0BF@JNCPAJCA@id?9smime?9alg?9RC2wrap?$AA@ 00074240     libeay32:obj_dat.obj
 0002:0000e258       ??_C@_0BG@HHELPNAK@id?9smime?9alg?93DESwrap?$AA@ 00074258     libeay32:obj_dat.obj
 0002:0000e270       ??_C@_0BJ@FIJMOHBJ@id?9smime?9alg?9ESDHwithRC2?$AA@ 00074270     libeay32:obj_dat.obj
 0002:0000e28c       ??_C@_0BK@JNJOCCCB@id?9smime?9alg?9ESDHwith3DES?$AA@ 0007428c     libeay32:obj_dat.obj
 0002:0000e2a8       ??_C@_0BF@KEMAMBKF@id?9smime?9aa?9dvcs?9dvc?$AA@ 000742a8     libeay32:obj_dat.obj
 0002:0000e2c0       ??_C@_0BK@HDBIPLFI@id?9smime?9aa?9signatureType?$AA@ 000742c0     libeay32:obj_dat.obj
 0002:0000e2dc       ??_C@_0CB@BEMKNJGO@id?9smime?9aa?9ets?9archiveTimeStamp@ 000742dc     libeay32:obj_dat.obj
 0002:0000e300       ??_C@_0CB@CJNBPJE@id?9smime?9aa?9ets?9certCRLTimestamp@ 00074300     libeay32:obj_dat.obj
 0002:0000e324       ??_C@_0BN@HGLOGOFI@id?9smime?9aa?9ets?9escTimeStamp?$AA@ 00074324     libeay32:obj_dat.obj
 0002:0000e344       ??_C@_0CB@GOCEFPFO@id?9smime?9aa?9ets?9revocationValues@ 00074344     libeay32:obj_dat.obj
 0002:0000e368       ??_C@_0BL@IFKOLDIG@id?9smime?9aa?9ets?9certValues?$AA@ 00074368     libeay32:obj_dat.obj
 0002:0000e384       ??_C@_0BP@BCHJHNFO@id?9smime?9aa?9ets?9RevocationRefs?$AA@ 00074384     libeay32:obj_dat.obj
 0002:0000e3a4       ??_C@_0CA@NKIOCHLG@id?9smime?9aa?9ets?9CertificateRefs?$AA@ 000743a4     libeay32:obj_dat.obj
 0002:0000e3c4       ??_C@_0CB@GHKINGOH@id?9smime?9aa?9ets?9contentTimestamp@ 000743c4     libeay32:obj_dat.obj
 0002:0000e3e8       ??_C@_0BN@JFIFOPBH@id?9smime?9aa?9ets?9otherSigCert?$AA@ 000743e8     libeay32:obj_dat.obj
 0002:0000e408       ??_C@_0BL@KDJDAGDC@id?9smime?9aa?9ets?9signerAttr?$AA@ 00074408     libeay32:obj_dat.obj
 0002:0000e424       ??_C@_0BP@EODAELPO@id?9smime?9aa?9ets?9signerLocation?$AA@ 00074424     libeay32:obj_dat.obj
 0002:0000e444       ??_C@_0BP@OLIFPEIM@id?9smime?9aa?9ets?9commitmentType?$AA@ 00074444     libeay32:obj_dat.obj
 0002:0000e464       ??_C@_0BM@GKFMJCFL@id?9smime?9aa?9ets?9sigPolicyId?$AA@ 00074464     libeay32:obj_dat.obj
 0002:0000e480       ??_C@_0BL@DHJOIJNE@id?9smime?9aa?9timeStampToken?$AA@ 00074480     libeay32:obj_dat.obj
 0002:0000e49c       ??_C@_0BO@CEEOANBD@id?9smime?9aa?9smimeEncryptCerts?$AA@ 0007449c     libeay32:obj_dat.obj
 0002:0000e4bc       ??_C@_0BP@LHGJLGIB@id?9smime?9aa?9signingCertificate?$AA@ 000744bc     libeay32:obj_dat.obj
 0002:0000e4dc       ??_C@_0BK@LAPEFMP@id?9smime?9aa?9encrypKeyPref?$AA@ 000744dc     libeay32:obj_dat.obj
 0002:0000e4f8       ??_C@_0BN@LEFAEFL@id?9smime?9aa?9contentReference?$AA@ 000744f8     libeay32:obj_dat.obj
 0002:0000e518       ??_C@_0BN@NFAAOKEA@id?9smime?9aa?9equivalentLabels?$AA@ 00074518     libeay32:obj_dat.obj
 0002:0000e538       ??_C@_0BF@CFNHFPDB@id?9smime?9aa?9macValue?$AA@ 00074538     libeay32:obj_dat.obj
 0002:0000e550       ??_C@_0BO@KMJGIAMK@id?9smime?9aa?9contentIdentifier?$AA@ 00074550     libeay32:obj_dat.obj
 0002:0000e570       ??_C@_0BN@GCCNOJCG@id?9smime?9aa?9encapContentType?$AA@ 00074570     libeay32:obj_dat.obj
 0002:0000e590       ??_C@_0BJ@LJLDKMDH@id?9smime?9aa?9msgSigDigest?$AA@ 00074590     libeay32:obj_dat.obj
 0002:0000e5ac       ??_C@_0BI@EMGPJFHB@id?9smime?9aa?9contentHint?$AA@ 000745ac     libeay32:obj_dat.obj
 0002:0000e5c4       ??_C@_0BM@OEKGBMLE@id?9smime?9aa?9mlExpandHistory?$AA@ 000745c4     libeay32:obj_dat.obj
 0002:0000e5e0       ??_C@_0BK@DNJNJILO@id?9smime?9aa?9securityLabel?$AA@ 000745e0     libeay32:obj_dat.obj
 0002:0000e5fc       ??_C@_0BL@LMGNMPFD@id?9smime?9aa?9receiptRequest?$AA@ 000745fc     libeay32:obj_dat.obj
 0002:0000e618       ??_C@_0BN@POKJLKJJ@id?9smime?9ct?9DVCSResponseData?$AA@ 00074618     libeay32:obj_dat.obj
 0002:0000e638       ??_C@_0BM@MFKPCEGN@id?9smime?9ct?9DVCSRequestData?$AA@ 00074638     libeay32:obj_dat.obj
 0002:0000e654       ??_C@_0BI@BGKPNMK@id?9smime?9ct?9contentInfo?$AA@ 00074654     libeay32:obj_dat.obj
 0002:0000e66c       ??_C@_0BE@FKPPBHI@id?9smime?9ct?9TDTInfo?$AA@ 0007466c     libeay32:obj_dat.obj
 0002:0000e680       ??_C@_0BE@KHNGFDDI@id?9smime?9ct?9TSTInfo?$AA@ 00074680     libeay32:obj_dat.obj
 0002:0000e694       ??_C@_0BI@DBILCLFJ@id?9smime?9ct?9publishCert?$AA@ 00074694     libeay32:obj_dat.obj
 0002:0000e6ac       ??_C@_0BF@KGEHGOF@id?9smime?9ct?9authData?$AA@ 000746ac     libeay32:obj_dat.obj
 0002:0000e6c4       ??_C@_0BE@GCHIHBHA@id?9smime?9ct?9receipt?$AA@ 000746c4     libeay32:obj_dat.obj
 0002:0000e6d8       ??_C@_0BP@CCCOHHAI@id?9smime?9mod?9ets?9eSigPolicy?997?$AA@ 000746d8     libeay32:obj_dat.obj
 0002:0000e6f8       ??_C@_0BP@KEHEABPA@id?9smime?9mod?9ets?9eSigPolicy?988?$AA@ 000746f8     libeay32:obj_dat.obj
 0002:0000e718       ??_C@_0BP@POGMGJII@id?9smime?9mod?9ets?9eSignature?997?$AA@ 00074718     libeay32:obj_dat.obj
 0002:0000e738       ??_C@_0BP@HIDGBPHA@id?9smime?9mod?9ets?9eSignature?988?$AA@ 00074738     libeay32:obj_dat.obj
 0002:0000e758       ??_C@_0BE@PEENABNJ@id?9smime?9mod?9msg?9v3?$AA@ 00074758     libeay32:obj_dat.obj
 0002:0000e76c       ??_C@_0BB@LBBEMNBN@id?9smime?9mod?9oid?$AA@ 0007476c     libeay32:obj_dat.obj
 0002:0000e780       ??_C@_0BB@MKJLIPEJ@id?9smime?9mod?9ess?$AA@ 00074780     libeay32:obj_dat.obj
 0002:0000e794       ??_C@_0BB@PJEIFOOP@id?9smime?9mod?9cms?$AA@ 00074794     libeay32:obj_dat.obj
 0002:0000e7a8       ??_C@_0N@CFBKAPGC@id?9smime?9cti?$AA@ 000747a8     libeay32:obj_dat.obj
 0002:0000e7b8       ??_C@_0N@PABBGIHI@id?9smime?9spq?$AA@ 000747b8     libeay32:obj_dat.obj
 0002:0000e7c8       ??_C@_0M@LHBAJBP@id?9smime?9cd?$AA@ 000747c8     libeay32:obj_dat.obj
 0002:0000e7d4       ??_C@_0N@DKFBIKP@id?9smime?9alg?$AA@ 000747d4     libeay32:obj_dat.obj
 0002:0000e7e4       ??_C@_0M@HFICCJDE@id?9smime?9aa?$AA@ 000747e4     libeay32:obj_dat.obj
 0002:0000e7f0       ??_C@_0M@EBLDBLEO@id?9smime?9ct?$AA@ 000747f0     libeay32:obj_dat.obj
 0002:0000e7fc       ??_C@_0N@GABIEKIN@id?9smime?9mod?$AA@ 000747fc     libeay32:obj_dat.obj
 0002:0000e80c       ??_C@_06DFGHEKNE@S?1MIME?$AA@ 0007480c     libeay32:obj_dat.obj
 0002:0000e814       ??_C@_05HHBEAKJJ@SMIME?$AA@ 00074814     libeay32:obj_dat.obj
 0002:0000e81c       ??_C@_05HGOIFJJD@pkcs5?$AA@ 0007481c     libeay32:obj_dat.obj
 0002:0000e824       ??_C@_05BCIEJMJH@pkcs1?$AA@ 00074824     libeay32:obj_dat.obj
 0002:0000e82c       ??_C@_0L@DJCLIPOH@X9?457?5CM?5?$DP?$AA@ 0007482c     libeay32:obj_dat.obj
 0002:0000e838       ??_C@_04CGFPFLFA@X9cm?$AA@ 00074838     libeay32:obj_dat.obj
 0002:0000e840       ??_C@_05PAJLFBHD@X9?457?$AA@ 00074840     libeay32:obj_dat.obj
 0002:0000e848       ??_C@_05OCCOPOJN@X9?957?$AA@ 00074848     libeay32:obj_dat.obj
 0002:0000e850       ??_C@_0BD@NMCDOJHL@ISO?5US?5Member?5Body?$AA@ 00074850     libeay32:obj_dat.obj
 0002:0000e864       ??_C@_06EKAADAMF@ISO?9US?$AA@ 00074864     libeay32:obj_dat.obj
 0002:0000e86c       ??_C@_0BA@BGDAEHGF@ISO?5Member?5Body?$AA@ 0007486c     libeay32:obj_dat.obj
 0002:0000e87c       ??_C@_0M@CMICFDOA@member?9body?$AA@ 0007487c     libeay32:obj_dat.obj
 0002:0000e888       ??_C@_03CMEHDJAL@iso?$AA@  00074888     libeay32:obj_dat.obj
 0002:0000e88c       ??_C@_03CBLMPEHH@ISO?$AA@  0007488c     libeay32:obj_dat.obj
 0002:0000e890       ??_C@_0N@CPJNIPDD@OCSP?5Signing?$AA@ 00074890     libeay32:obj_dat.obj
 0002:0000e8a0       ??_C@_0M@HBKJLKNM@OCSPSigning?$AA@ 000748a0     libeay32:obj_dat.obj
 0002:0000e8ac       ??_C@_0L@CABCENFK@CA?5Issuers?$AA@ 000748ac     libeay32:obj_dat.obj
 0002:0000e8b8       ??_C@_09GFPECPIH@caIssuers?$AA@ 000748b8     libeay32:obj_dat.obj
 0002:0000e8c4       ??_C@_04LOJOPNBE@OCSP?$AA@ 000748c4     libeay32:obj_dat.obj
 0002:0000e8cc       ??_C@_0BN@EILCOJAN@Authority?5Information?5Access?$AA@ 000748cc     libeay32:obj_dat.obj
 0002:0000e8ec       ??_C@_0BE@PLCGCINM@authorityInfoAccess?$AA@ 000748ec     libeay32:obj_dat.obj
 0002:0000e900       ??_C@_05BHKIKJBE@id?9ad?$AA@ 00074900     libeay32:obj_dat.obj
 0002:0000e908       ??_C@_05BDFHFBBC@id?9pe?$AA@ 00074908     libeay32:obj_dat.obj
 0002:0000e910       ??_C@_0M@DNNLEIMI@dnQualifier?$AA@ 00074910     libeay32:obj_dat.obj
 0002:0000e91c       ??_C@_04MEMAJGDJ@name?$AA@ 0007491c     libeay32:obj_dat.obj
 0002:0000e924       ??_C@_0BC@GLHEKHCC@Extension?5Request?$AA@ 00074924     libeay32:obj_dat.obj
 0002:0000e938       ??_C@_06EJACAMDF@extReq?$AA@ 00074938     libeay32:obj_dat.obj
 0002:0000e940       ??_C@_0BM@MEJAMAEO@Microsoft?5Extension?5Request?$AA@ 00074940     libeay32:obj_dat.obj
 0002:0000e95c       ??_C@_08HCCJAOPJ@msExtReq?$AA@ 0007495c     libeay32:obj_dat.obj
 0002:0000e968       ??_C@_0BG@JLHBEJLP@pbeWithSHA1AndDES?9CBC?$AA@ 00074968     libeay32:obj_dat.obj
 0002:0000e980       ??_C@_0N@GOPIPBOD@PBE?9SHA1?9DES?$AA@ 00074980     libeay32:obj_dat.obj
 0002:0000e990       ??_C@_0BF@CKDLCJKD@pbeWithMD5AndRC2?9CBC?$AA@ 00074990     libeay32:obj_dat.obj
 0002:0000e9a8       ??_C@_0P@IDPFKEHM@PBE?9MD5?9RC2?964?$AA@ 000749a8     libeay32:obj_dat.obj
 0002:0000e9b8       ??_C@_0BF@FOKDMACM@pbeWithMD2AndRC2?9CBC?$AA@ 000749b8     libeay32:obj_dat.obj
 0002:0000e9d0       ??_C@_0P@OHJEMJLF@PBE?9MD2?9RC2?964?$AA@ 000749d0     libeay32:obj_dat.obj
 0002:0000e9e0       ??_C@_0BE@CEEFMCAI@S?1MIME?5Capabilities?$AA@ 000749e0     libeay32:obj_dat.obj
 0002:0000e9f4       ??_C@_0L@LCBJGKJG@SMIME?9CAPS?$AA@ 000749f4     libeay32:obj_dat.obj
 0002:0000ea00       ??_C@_0L@CLELMECA@rc2?964?9cbc?$AA@ 00074a00     libeay32:obj_dat.obj
 0002:0000ea0c       ??_C@_0L@OPHBIFFL@RC2?964?9CBC?$AA@ 00074a0c     libeay32:obj_dat.obj
 0002:0000ea18       ??_C@_0BN@KPMBKEE@Policy?5Qualifier?5User?5Notice?$AA@ 00074a18     libeay32:obj_dat.obj
 0002:0000ea38       ??_C@_0O@CJFHFAHE@id?9qt?9unotice?$AA@ 00074a38     libeay32:obj_dat.obj
 0002:0000ea48       ??_C@_0BF@HPKIKKPI@Policy?5Qualifier?5CPS?$AA@ 00074a48     libeay32:obj_dat.obj
 0002:0000ea60       ??_C@_09MIPGHKGJ@id?9qt?9cps?$AA@ 00074a60     libeay32:obj_dat.obj
 0002:0000ea6c       ??_C@_0N@KANOAIP@hmacWithSHA1?$AA@ 00074a6c     libeay32:obj_dat.obj
 0002:0000ea7c       ??_C@_06DEJMPFNK@PBMAC1?$AA@ 00074a7c     libeay32:obj_dat.obj
 0002:0000ea84       ??_C@_05EPMADBBF@PBES2?$AA@ 00074a84     libeay32:obj_dat.obj
 0002:0000ea8c       ??_C@_07KAOEJCFK@x509Crl?$AA@ 00074a8c     libeay32:obj_dat.obj
 0002:0000ea94       ??_C@_0BA@BFAOBDKH@sdsiCertificate?$AA@ 00074a94     libeay32:obj_dat.obj
 0002:0000eaa4       ??_C@_0BA@EMOFOCJL@x509Certificate?$AA@ 00074aa4     libeay32:obj_dat.obj
 0002:0000eab4       ??_C@_0L@BCMHPPAO@localKeyID?$AA@ 00074ab4     libeay32:obj_dat.obj
 0002:0000eac0       ??_C@_0N@BGFMPLCM@friendlyName?$AA@ 00074ac0     libeay32:obj_dat.obj
 0002:0000ead0       ??_C@_0BA@KAKLKBBC@safeContentsBag?$AA@ 00074ad0     libeay32:obj_dat.obj
 0002:0000eae0       ??_C@_09DELDBPIE@secretBag?$AA@ 00074ae0     libeay32:obj_dat.obj
 0002:0000eaec       ??_C@_06JAFBIMLO@crlBag?$AA@ 00074aec     libeay32:obj_dat.obj
 0002:0000eaf4       ??_C@_07FDLMCII@certBag?$AA@ 00074af4     libeay32:obj_dat.obj
 0002:0000eafc       ??_C@_0BE@ELJKIANF@pkcs8ShroudedKeyBag?$AA@ 00074afc     libeay32:obj_dat.obj
 0002:0000eb10       ??_C@_06BFGNOIAI@keyBag?$AA@ 00074b10     libeay32:obj_dat.obj
 0002:0000eb18       ??_C@_0BL@CKNKIMON@pbeWithSHA1And40BitRC2?9CBC?$AA@ 00074b18     libeay32:obj_dat.obj
 0002:0000eb34       ??_C@_0BA@MNBMNMAN@PBE?9SHA1?9RC2?940?$AA@ 00074b34     libeay32:obj_dat.obj
 0002:0000eb44       ??_C@_0BM@DOLDINME@pbeWithSHA1And128BitRC2?9CBC?$AA@ 00074b44     libeay32:obj_dat.obj
 0002:0000eb60       ??_C@_0BB@FNLJPIMG@PBE?9SHA1?9RC2?9128?$AA@ 00074b60     libeay32:obj_dat.obj
 0002:0000eb74       ??_C@_0CB@NCMPKEGH@pbeWithSHA1And2?9KeyTripleDES?9CBC@ 00074b74     libeay32:obj_dat.obj
 0002:0000eb98       ??_C@_0O@HOHOOIGM@PBE?9SHA1?92DES?$AA@ 00074b98     libeay32:obj_dat.obj
 0002:0000eba8       ??_C@_0CB@FCNCEDP@pbeWithSHA1And3?9KeyTripleDES?9CBC@ 00074ba8     libeay32:obj_dat.obj
 0002:0000ebcc       ??_C@_0O@EDBOMBNM@PBE?9SHA1?93DES?$AA@ 00074bcc     libeay32:obj_dat.obj
 0002:0000ebdc       ??_C@_0BH@OCAEJMIL@pbeWithSHA1And40BitRC4?$AA@ 00074bdc     libeay32:obj_dat.obj
 0002:0000ebf4       ??_C@_0BA@ECFMCJKN@PBE?9SHA1?9RC4?940?$AA@ 00074bf4     libeay32:obj_dat.obj
 0002:0000ec04       ??_C@_0BI@LBIFCLPB@pbeWithSHA1And128BitRC4?$AA@ 00074c04     libeay32:obj_dat.obj
 0002:0000ec1c       ??_C@_0BB@ILOABLNL@PBE?9SHA1?9RC4?9128?$AA@ 00074c1c     libeay32:obj_dat.obj
 0002:0000ec30       ??_C@_0BD@PNDCMCDK@Strong?5Extranet?5ID?$AA@ 00074c30     libeay32:obj_dat.obj
 0002:0000ec44       ??_C@_07DKMNOLMH@SXNetID?$AA@ 00074c44     libeay32:obj_dat.obj
 0002:0000ec4c       ??_C@_0BA@JDBEMONE@Invalidity?5Date?$AA@ 00074c4c     libeay32:obj_dat.obj
 0002:0000ec5c       ??_C@_0P@BKEGCOMO@invalidityDate?$AA@ 00074c5c     libeay32:obj_dat.obj
 0002:0000ec6c       ??_C@_0BH@GODIEFKG@X509v3?5CRL?5Reason?5Code?$AA@ 00074c6c     libeay32:obj_dat.obj
 0002:0000ec84       ??_C@_09MCDAGILE@CRLReason?$AA@ 00074c84     libeay32:obj_dat.obj
 0002:0000ec90       ??_C@_0BL@HLNLPBHP@X509v3?5Delta?5CRL?5Indicator?$AA@ 00074c90     libeay32:obj_dat.obj
 0002:0000ecac       ??_C@_08ECNAKPJJ@deltaCRL?$AA@ 00074cac     libeay32:obj_dat.obj
 0002:0000ecb8       ??_C@_0BN@MDNLHLBL@Netscape?5Server?5Gated?5Crypto?$AA@ 00074cb8     libeay32:obj_dat.obj
 0002:0000ecd8       ??_C@_05LFIIINKG@nsSGC?$AA@ 00074cd8     libeay32:obj_dat.obj
 0002:0000ece0       ??_C@_0CA@IJODBCMB@Microsoft?5Encrypted?5File?5System?$AA@ 00074ce0     libeay32:obj_dat.obj
 0002:0000ed00       ??_C@_05NGOIPCN@msEFS?$AA@ 00074d00     libeay32:obj_dat.obj
 0002:0000ed08       ??_C@_0BO@FBDDCLK@Microsoft?5Server?5Gated?5Crypto?$AA@ 00074d08     libeay32:obj_dat.obj
 0002:0000ed28       ??_C@_05DDBMPPAI@msSGC?$AA@ 00074d28     libeay32:obj_dat.obj
 0002:0000ed30       ??_C@_0BN@GNMCHNOI@Microsoft?5Trust?5List?5Signing?$AA@ 00074d30     libeay32:obj_dat.obj
 0002:0000ed50       ??_C@_09HGCLLDPK@msCTLSign?$AA@ 00074d50     libeay32:obj_dat.obj
 0002:0000ed5c       ??_C@_0CC@GKFNEBFA@Microsoft?5Commercial?5Code?5Signin@ 00074d5c     libeay32:obj_dat.obj
 0002:0000ed80       ??_C@_09PDGAMFAO@msCodeCom?$AA@ 00074d80     libeay32:obj_dat.obj
 0002:0000ed8c       ??_C@_0CC@NDDHKAMP@Microsoft?5Individual?5Code?5Signin@ 00074d8c     libeay32:obj_dat.obj
 0002:0000edb0       ??_C@_09EMNNPEBE@msCodeInd?$AA@ 00074db0     libeay32:obj_dat.obj
 0002:0000edbc       ??_C@_0O@GMMBLMEE@Time?5Stamping?$AA@ 00074dbc     libeay32:obj_dat.obj
 0002:0000edcc       ??_C@_0N@LONEBHPN@timeStamping?$AA@ 00074dcc     libeay32:obj_dat.obj
 0002:0000eddc       ??_C@_0BC@BLBGFKKG@E?9mail?5Protection?$AA@ 00074ddc     libeay32:obj_dat.obj
 0002:0000edf0       ??_C@_0BA@NPCFDPCO@emailProtection?$AA@ 00074df0     libeay32:obj_dat.obj
 0002:0000ee00       ??_C@_0N@CHJHLHFC@Code?5Signing?$AA@ 00074e00     libeay32:obj_dat.obj
 0002:0000ee10       ??_C@_0M@OJNCNGJ@codeSigning?$AA@ 00074e10     libeay32:obj_dat.obj
 0002:0000ee1c       ??_C@_0BO@FEMCBEOF@TLS?5Web?5Client?5Authentication?$AA@ 00074e1c     libeay32:obj_dat.obj
 0002:0000ee3c       ??_C@_0L@HCMKLLOP@clientAuth?$AA@ 00074e3c     libeay32:obj_dat.obj
 0002:0000ee48       ??_C@_0BO@HPFOJNNE@TLS?5Web?5Server?5Authentication?$AA@ 00074e48     libeay32:obj_dat.obj
 0002:0000ee68       ??_C@_0L@CINGAJGN@serverAuth?$AA@ 00074e68     libeay32:obj_dat.obj
 0002:0000ee74       ??_C@_05DEJBPLJH@id?9kp?$AA@ 00074e74     libeay32:obj_dat.obj
 0002:0000ee7c       ??_C@_04EAPCHJAG@PKIX?$AA@ 00074e7c     libeay32:obj_dat.obj
 0002:0000ee84       ??_C@_0BK@KFMGFBEG@X509v3?5Extended?5Key?5Usage?$AA@ 00074e84     libeay32:obj_dat.obj
 0002:0000eea0       ??_C@_0BB@DGDLKPHD@extendedKeyUsage?$AA@ 00074ea0     libeay32:obj_dat.obj
 0002:0000eeb4       ??_C@_0BB@KGNEOBKL@zlib?5compression?$AA@ 00074eb4     libeay32:obj_dat.obj
 0002:0000eec8       ??_C@_04CHLIKDMF@ZLIB?$AA@ 00074ec8     libeay32:obj_dat.obj
 0002:0000eed0       ??_C@_0BH@CAEIMNHD@run?5length?5compression?$AA@ 00074ed0     libeay32:obj_dat.obj
 0002:0000eee8       ??_C@_03ELDBCICO@RLE?$AA@  00074ee8     libeay32:obj_dat.obj
 0002:0000eeec       ??_C@_07NLMEMEEK@rc5?9ofb?$AA@ 00074eec     libeay32:obj_dat.obj
 0002:0000eef4       ??_C@_07OAPEFCPM@RC5?9OFB?$AA@ 00074ef4     libeay32:obj_dat.obj
 0002:0000eefc       ??_C@_07JBBCHLPC@rc5?9cfb?$AA@ 00074efc     libeay32:obj_dat.obj
 0002:0000ef04       ??_C@_07KKCCONEE@RC5?9CFB?$AA@ 00074f04     libeay32:obj_dat.obj
 0002:0000ef0c       ??_C@_07LCLCOGMF@rc5?9ecb?$AA@ 00074f0c     libeay32:obj_dat.obj
 0002:0000ef14       ??_C@_07IJICHAHD@RC5?9ECB?$AA@ 00074f14     libeay32:obj_dat.obj
 0002:0000ef1c       ??_C@_07IPAAOCGP@rc5?9cbc?$AA@ 00074f1c     libeay32:obj_dat.obj
 0002:0000ef24       ??_C@_07LEDAHENJ@RC5?9CBC?$AA@ 00074f24     libeay32:obj_dat.obj
 0002:0000ef2c       ??_C@_0BB@DCJDAKFH@ripemd160WithRSA?$AA@ 00074f2c     libeay32:obj_dat.obj
 0002:0000ef40       ??_C@_0O@JPOIHGOH@RSA?9RIPEMD160?$AA@ 00074f40     libeay32:obj_dat.obj
 0002:0000ef50       ??_C@_09EDIPKBN@ripemd160?$AA@ 00074f50     libeay32:obj_dat.obj
 0002:0000ef5c       ??_C@_09DJDCAKJG@RIPEMD160?$AA@ 00074f5c     libeay32:obj_dat.obj
 0002:0000ef68       ??_C@_0O@GMANLAEO@dsaEncryption?$AA@ 00074f68     libeay32:obj_dat.obj
 0002:0000ef78       ??_C@_03ENFFABCE@DSA?$AA@  00074f78     libeay32:obj_dat.obj
 0002:0000ef7c       ??_C@_0M@KECGAPAA@sha1WithRSA?$AA@ 00074f7c     libeay32:obj_dat.obj
 0002:0000ef88       ??_C@_0L@EMMEGDKK@RSA?9SHA1?92?$AA@ 00074f88     libeay32:obj_dat.obj
 0002:0000ef94       ??_C@_08GOLKFMKI@md5?9sha1?$AA@ 00074f94     libeay32:obj_dat.obj
 0002:0000efa0       ??_C@_08EMIDHKIH@MD5?9SHA1?$AA@ 00074fa0     libeay32:obj_dat.obj
 0002:0000efac       ??_C@_0M@EFJKPOPH@dsaWithSHA1?$AA@ 00074fac     libeay32:obj_dat.obj
 0002:0000efb8       ??_C@_08IOHJAANG@DSA?9SHA1?$AA@ 00074fb8     libeay32:obj_dat.obj
 0002:0000efc4       ??_C@_0BG@JCFINJGL@pbeWithMD5AndCast5CBC?$AA@ 00074fc4     libeay32:obj_dat.obj
 0002:0000efdc       ??_C@_09ECHHPLBP@cast5?9ofb?$AA@ 00074fdc     libeay32:obj_dat.obj
 0002:0000efe8       ??_C@_09LEOLOMNK@CAST5?9OFB?$AA@ 00074fe8     libeay32:obj_dat.obj
 0002:0000eff4       ??_C@_09IKBEEKH@cast5?9cfb?$AA@ 00074ff4     libeay32:obj_dat.obj
 0002:0000f000       ??_C@_09PODNFDGC@CAST5?9CFB?$AA@ 00075000     libeay32:obj_dat.obj
 0002:0000f00c       ??_C@_09CLABNJJA@cast5?9ecb?$AA@ 0007500c     libeay32:obj_dat.obj
 0002:0000f018       ??_C@_09NNJNMOFF@CAST5?9ECB?$AA@ 00075018     libeay32:obj_dat.obj
 0002:0000f024       ??_C@_09BGLDNNDK@cast5?9cbc?$AA@ 00075024     libeay32:obj_dat.obj
 0002:0000f030       ??_C@_09OACPMKPP@CAST5?9CBC?$AA@ 00075030     libeay32:obj_dat.obj
 0002:0000f03c       ??_C@_0M@PPJNHBMP@description?$AA@ 0007503c     libeay32:obj_dat.obj
 0002:0000f048       ??_C@_05PHLGJONK@title?$AA@ 00075048     libeay32:obj_dat.obj
 0002:0000f050       ??_C@_0N@OMOHFKCJ@serialNumber?$AA@ 00075050     libeay32:obj_dat.obj
 0002:0000f060       ??_C@_0L@CNDCBNIN@md5WithRSA?$AA@ 00075060     libeay32:obj_dat.obj
 0002:0000f06c       ??_C@_0L@NACEPNFC@RSA?9NP?9MD5?$AA@ 0007506c     libeay32:obj_dat.obj
 0002:0000f078       ??_C@_0BP@EGHJGANM@X509v3?5CRL?5Distribution?5Points?$AA@ 00075078     libeay32:obj_dat.obj
 0002:0000f098       ??_C@_0BG@CCHGOEBE@crlDistributionPoints?$AA@ 00075098     libeay32:obj_dat.obj
 0002:0000f0b0       ??_C@_08PAKNLFON@initials?$AA@ 000750b0     libeay32:obj_dat.obj
 0002:0000f0bc       ??_C@_07LNKFHLHI@surname?$AA@ 000750bc     libeay32:obj_dat.obj
 0002:0000f0c4       ??_C@_02LONEIP@SN?$AA@     000750c4     libeay32:obj_dat.obj
 0002:0000f0c8       ??_C@_09GCBNJLNP@givenName?$AA@ 000750c8     libeay32:obj_dat.obj
 0002:0000f0d4       ??_C@_02BLJBNPCD@GN?$AA@   000750d4     libeay32:obj_dat.obj
 0002:0000f0d8       ??_C@_0L@CHEFJHBP@rc2?940?9cbc?$AA@ 000750d8     libeay32:obj_dat.obj
 0002:0000f0e4       ??_C@_0L@ODHPNGGE@RC2?940?9CBC?$AA@ 000750e4     libeay32:obj_dat.obj
 0002:0000f0f0       ??_C@_06GNNJIOGN@rc4?940?$AA@ 000750f0     libeay32:obj_dat.obj
 0002:0000f0f8       ??_C@_06KFMILCMH@RC4?940?$AA@ 000750f8     libeay32:obj_dat.obj
 0002:0000f100       ??_C@_0M@HGGNEPNN@mdc2WithRSA?$AA@ 00075100     libeay32:obj_dat.obj
 0002:0000f10c       ??_C@_08OMAMCKNL@RSA?9MDC2?$AA@ 0007510c     libeay32:obj_dat.obj
 0002:0000f118       ??_C@_04ELNKPKEC@mdc2?$AA@ 00075118     libeay32:obj_dat.obj
 0002:0000f120       ??_C@_04BCGEDMJI@MDC2?$AA@ 00075120     libeay32:obj_dat.obj
 0002:0000f128       ??_C@_06OBJCCDFN@bf?9ofb?$AA@ 00075128     libeay32:obj_dat.obj
 0002:0000f130       ??_C@_06CEHINCIL@BF?9OFB?$AA@ 00075130     libeay32:obj_dat.obj
 0002:0000f138       ??_C@_06KLEEJMOF@bf?9cfb?$AA@ 00075138     libeay32:obj_dat.obj
 0002:0000f140       ??_C@_06GOKOGNDD@BF?9CFB?$AA@ 00075140     libeay32:obj_dat.obj
 0002:0000f148       ??_C@_06IIOEABNC@bf?9ecb?$AA@ 00075148     libeay32:obj_dat.obj
 0002:0000f150       ??_C@_06ENAOPAAE@BF?9ECB?$AA@ 00075150     libeay32:obj_dat.obj
 0002:0000f158       ??_C@_06LFFGAFHI@bf?9cbc?$AA@ 00075158     libeay32:obj_dat.obj
 0002:0000f160       ??_C@_06HALMPEKO@BF?9CBC?$AA@ 00075160     libeay32:obj_dat.obj
 0002:0000f168       ??_C@_0CA@GODCHEHD@X509v3?5Authority?5Key?5Identifier?$AA@ 00075168     libeay32:obj_dat.obj
 0002:0000f188       ??_C@_0BH@ICHFALGD@authorityKeyIdentifier?$AA@ 00075188     libeay32:obj_dat.obj
 0002:0000f1a0       ??_C@_0BM@OOFGKLPK@X509v3?5Certificate?5Policies?$AA@ 000751a0     libeay32:obj_dat.obj
 0002:0000f1bc       ??_C@_0BE@OLMJNPEP@certificatePolicies?$AA@ 000751bc     libeay32:obj_dat.obj
 0002:0000f1d0       ??_C@_0BC@PCPNBDDJ@X509v3?5CRL?5Number?$AA@ 000751d0     libeay32:obj_dat.obj
 0002:0000f1e4       ??_C@_09JDPHHKMA@crlNumber?$AA@ 000751e4     libeay32:obj_dat.obj
 0002:0000f1f0       ??_C@_0BJ@FBHDAJML@X509v3?5Basic?5Constraints?$AA@ 000751f0     libeay32:obj_dat.obj
 0002:0000f20c       ??_C@_0BB@IKNGJCLO@basicConstraints?$AA@ 0007520c     libeay32:obj_dat.obj
 0002:0000f220       ??_C@_0BP@FMJCGPCG@X509v3?5Issuer?5Alternative?5Name?$AA@ 00075220     libeay32:obj_dat.obj
 0002:0000f240       ??_C@_0O@DLIFHFCD@issuerAltName?$AA@ 00075240     libeay32:obj_dat.obj
 0002:0000f250       ??_C@_0CA@OPCJJLNF@X509v3?5Subject?5Alternative?5Name?$AA@ 00075250     libeay32:obj_dat.obj
 0002:0000f270       ??_C@_0P@EOFJHHKD@subjectAltName?$AA@ 00075270     libeay32:obj_dat.obj
 0002:0000f280       ??_C@_0CA@CLGHAMIP@X509v3?5Private?5Key?5Usage?5Period?$AA@ 00075280     libeay32:obj_dat.obj
 0002:0000f2a0       ??_C@_0BG@JOIAJOMN@privateKeyUsagePeriod?$AA@ 000752a0     libeay32:obj_dat.obj
 0002:0000f2b8       ??_C@_0BB@BPPOKNBO@X509v3?5Key?5Usage?$AA@ 000752b8     libeay32:obj_dat.obj
 0002:0000f2cc       ??_C@_08BCICBOHF@keyUsage?$AA@ 000752cc     libeay32:obj_dat.obj
 0002:0000f2d8       ??_C@_0BO@ILPNOINJ@X509v3?5Subject?5Key?5Identifier?$AA@ 000752d8     libeay32:obj_dat.obj
 0002:0000f2f8       ??_C@_0BF@MOEDIMBI@subjectKeyIdentifier?$AA@ 000752f8     libeay32:obj_dat.obj
 0002:0000f310       ??_C@_05NDHEMDL@id?9ce?$AA@ 00075310     libeay32:obj_dat.obj
 0002:0000f318       ??_C@_08KPMCEEEO@desx?9cbc?$AA@ 00075318     libeay32:obj_dat.obj
 0002:0000f324       ??_C@_08BBKPFFGN@DESX?9CBC?$AA@ 00075324     libeay32:obj_dat.obj
 0002:0000f330       ??_C@_0BO@KKKBMKBD@Netscape?5Certificate?5Sequence?$AA@ 00075330     libeay32:obj_dat.obj
 0002:0000f350       ??_C@_0P@OCCBBJKK@nsCertSequence?$AA@ 00075350     libeay32:obj_dat.obj
 0002:0000f360       ??_C@_0BB@DCFBGIOA@Netscape?5Comment?$AA@ 00075360     libeay32:obj_dat.obj
 0002:0000f374       ??_C@_09BALDFHMJ@nsComment?$AA@ 00075374     libeay32:obj_dat.obj
 0002:0000f380       ??_C@_0BJ@GMBLEMAL@Netscape?5SSL?5Server?5Name?$AA@ 00075380     libeay32:obj_dat.obj
 0002:0000f39c       ??_C@_0BA@KNOKNJNE@nsSslServerName?$AA@ 0007539c     libeay32:obj_dat.obj
 0002:0000f3ac       ??_C@_0BH@EMEFHLC@Netscape?5CA?5Policy?5Url?$AA@ 000753ac     libeay32:obj_dat.obj
 0002:0000f3c4       ??_C@_0O@DHDIMJD@nsCaPolicyUrl?$AA@ 000753c4     libeay32:obj_dat.obj
 0002:0000f3d4       ??_C@_0BF@FKENIIHB@Netscape?5Renewal?5Url?$AA@ 000753d4     libeay32:obj_dat.obj
 0002:0000f3ec       ??_C@_0N@JILHKMLM@nsRenewalUrl?$AA@ 000753ec     libeay32:obj_dat.obj
 0002:0000f3fc       ??_C@_0BL@EMOMOFDB@Netscape?5CA?5Revocation?5Url?$AA@ 000753fc     libeay32:obj_dat.obj
 0002:0000f418       ??_C@_0BC@IKAPCMGG@nsCaRevocationUrl?$AA@ 00075418     libeay32:obj_dat.obj
 0002:0000f42c       ??_C@_0BI@BCDINENC@Netscape?5Revocation?5Url?$AA@ 0007542c     libeay32:obj_dat.obj
 0002:0000f444       ??_C@_0BA@DKPGPAKK@nsRevocationUrl?$AA@ 00075444     libeay32:obj_dat.obj
 0002:0000f454       ??_C@_0BC@DIHCABP@Netscape?5Base?5Url?$AA@ 00075454     libeay32:obj_dat.obj
 0002:0000f468       ??_C@_09OCIGDOMM@nsBaseUrl?$AA@ 00075468     libeay32:obj_dat.obj
 0002:0000f474       ??_C@_0BD@NFPBEMEE@Netscape?5Cert?5Type?$AA@ 00075474     libeay32:obj_dat.obj
 0002:0000f488       ??_C@_0L@IICLKDNB@nsCertType?$AA@ 00075488     libeay32:obj_dat.obj
 0002:0000f494       ??_C@_0BA@DDLLDHEM@dsaWithSHA1?9old?$AA@ 00075494     libeay32:obj_dat.obj
 0002:0000f4a4       ??_C@_0N@ONIKBKNK@DSA?9SHA1?9old?$AA@ 000754a4     libeay32:obj_dat.obj
 0002:0000f4b4       ??_C@_06KBOEGBGA@PBKDF2?$AA@ 000754b4     libeay32:obj_dat.obj
 0002:0000f4bc       ??_C@_0BG@IBNNJING@pbeWithSHA1AndRC2?9CBC?$AA@ 000754bc     libeay32:obj_dat.obj
 0002:0000f4d4       ??_C@_0BA@KKPEMNGH@PBE?9SHA1?9RC2?964?$AA@ 000754d4     libeay32:obj_dat.obj
 0002:0000f4e4       ??_C@_0BC@FFHHBCCH@dsaEncryption?9old?$AA@ 000754e4     libeay32:obj_dat.obj
 0002:0000f4f8       ??_C@_07PLHLFGGF@DSA?9old?$AA@ 000754f8     libeay32:obj_dat.obj
 0002:0000f500       ??_C@_0L@BEHMICBH@dsaWithSHA?$AA@ 00075500     libeay32:obj_dat.obj
 0002:0000f50c       ??_C@_07JGDBCPKH@DSA?9SHA?$AA@ 0007550c     libeay32:obj_dat.obj
 0002:0000f514       ??_C@_0BG@DALFFFBE@sha1WithRSAEncryption?$AA@ 00075514     libeay32:obj_dat.obj
 0002:0000f52c       ??_C@_08FBKDDLCN@RSA?9SHA1?$AA@ 0007552c     libeay32:obj_dat.obj
 0002:0000f538       ??_C@_04PGHFOLLE@sha1?$AA@ 00075538     libeay32:obj_dat.obj
 0002:0000f540       ??_C@_04KPMLCNGO@SHA1?$AA@ 00075540     libeay32:obj_dat.obj
 0002:0000f548       ??_C@_0N@LODGAID@des?9ede3?9ofb?$AA@ 00075548     libeay32:obj_dat.obj
 0002:0000f558       ??_C@_0N@JPPBGLEM@DES?9EDE3?9OFB?$AA@ 00075558     libeay32:obj_dat.obj
 0002:0000f568       ??_C@_0M@BOHDOFGF@des?9ede?9ofb?$AA@ 00075568     libeay32:obj_dat.obj
 0002:0000f574       ??_C@_0M@PDBPCBBK@DES?9EDE?9OFB?$AA@ 00075574     libeay32:obj_dat.obj
 0002:0000f580       ??_C@_0N@EBDFNPDL@des?9ede3?9cfb?$AA@ 00075580     libeay32:obj_dat.obj
 0002:0000f590       ??_C@_0N@NFCHNEPE@DES?9EDE3?9CFB?$AA@ 00075590     libeay32:obj_dat.obj
 0002:0000f5a0       ??_C@_0M@FEKFFKNN@des?9ede?9cfb?$AA@ 000755a0     libeay32:obj_dat.obj
 0002:0000f5ac       ??_C@_0M@LJMJJOKC@DES?9EDE?9CFB?$AA@ 000755ac     libeay32:obj_dat.obj
 0002:0000f5b8       ??_C@_0BD@JJEILMNP@Netscape?5Data?5Type?$AA@ 000755b8     libeay32:obj_dat.obj
 0002:0000f5cc       ??_C@_0L@FIMLGGPA@nsDataType?$AA@ 000755cc     libeay32:obj_dat.obj
 0002:0000f5d8       ??_C@_0BP@LHPGKGFM@Netscape?5Certificate?5Extension?$AA@ 000755d8     libeay32:obj_dat.obj
 0002:0000f5f8       ??_C@_09JDCKDNMG@nsCertExt?$AA@ 000755f8     libeay32:obj_dat.obj
 0002:0000f604       ??_C@_0BO@IAIBEBGO@Netscape?5Communications?5Corp?4?$AA@ 00075604     libeay32:obj_dat.obj
 0002:0000f624       ??_C@_08BDEPHMAF@Netscape?$AA@ 00075624     libeay32:obj_dat.obj
 0002:0000f630       ??_C@_0BO@LDCCNBPE@extendedCertificateAttributes?$AA@ 00075630     libeay32:obj_dat.obj
 0002:0000f650       ??_C@_0BE@MACPCAPF@unstructuredAddress?$AA@ 00075650     libeay32:obj_dat.obj
 0002:0000f664       ??_C@_0BC@OKHONEEM@challengePassword?$AA@ 00075664     libeay32:obj_dat.obj
 0002:0000f678       ??_C@_0BB@IPFGMODP@countersignature?$AA@ 00075678     libeay32:obj_dat.obj
 0002:0000f68c       ??_C@_0M@IJBJCCMP@signingTime?$AA@ 0007568c     libeay32:obj_dat.obj
 0002:0000f698       ??_C@_0O@JDGJDGC@messageDigest?$AA@ 00075698     libeay32:obj_dat.obj
 0002:0000f6a8       ??_C@_0M@DOEFOEJD@contentType?$AA@ 000756a8     libeay32:obj_dat.obj
 0002:0000f6b4       ??_C@_0BB@CJIILOEM@unstructuredName?$AA@ 000756b4     libeay32:obj_dat.obj
 0002:0000f6c8       ??_C@_0N@IHLBAGEP@emailAddress?$AA@ 000756c8     libeay32:obj_dat.obj
 0002:0000f6d8       ??_C@_05NKFNBGJP@pkcs9?$AA@ 000756d8     libeay32:obj_dat.obj
 0002:0000f6e0       ??_C@_08OGDEHPAF@idea?9ofb?$AA@ 000756e0     libeay32:obj_dat.obj
 0002:0000f6ec       ??_C@_08FIFJGOCG@IDEA?9OFB?$AA@ 000756ec     libeay32:obj_dat.obj
 0002:0000f6f8       ??_C@_07NLMBCAKN@des?9ofb?$AA@ 000756f8     libeay32:obj_dat.obj
 0002:0000f700       ??_C@_07OHFNLDCN@DES?9OFB?$AA@ 00075700     libeay32:obj_dat.obj
 0002:0000f708       ??_C@_0N@FPCHEGKG@des?9ede3?9cbc?$AA@ 00075708     libeay32:obj_dat.obj
 0002:0000f718       ??_C@_0N@MLDFENGJ@DES?9EDE3?9CBC?$AA@ 00075718     libeay32:obj_dat.obj
 0002:0000f728       ??_C@_0M@EKLHMDEA@des?9ede?9cbc?$AA@ 00075728     libeay32:obj_dat.obj
 0002:0000f734       ??_C@_0M@KHNLAHDP@DES?9EDE?9CBC?$AA@ 00075734     libeay32:obj_dat.obj
 0002:0000f740       ??_C@_0BF@LIDINENF@shaWithRSAEncryption?$AA@ 00075740     libeay32:obj_dat.obj
 0002:0000f758       ??_C@_07CMOFBHAL@RSA?9SHA?$AA@ 00075758     libeay32:obj_dat.obj
 0002:0000f760       ??_C@_03JNBDOPOP@sha?$AA@  00075760     libeay32:obj_dat.obj
 0002:0000f764       ??_C@_03JAOICCJD@SHA?$AA@  00075764     libeay32:obj_dat.obj
 0002:0000f768       ??_C@_07MGMBPEPC@rc2?9ofb?$AA@ 00075768     libeay32:obj_dat.obj
 0002:0000f770       ??_C@_07PNPBGCEE@RC2?9OFB?$AA@ 00075770     libeay32:obj_dat.obj
 0002:0000f778       ??_C@_07IMBHELEK@rc2?9cfb?$AA@ 00075778     libeay32:obj_dat.obj
 0002:0000f780       ??_C@_07LHCHNNPM@RC2?9CFB?$AA@ 00075780     libeay32:obj_dat.obj
 0002:0000f788       ??_C@_07KPLHNGHN@rc2?9ecb?$AA@ 00075788     libeay32:obj_dat.obj
 0002:0000f790       ??_C@_07JEIHEAML@RC2?9ECB?$AA@ 00075790     libeay32:obj_dat.obj
 0002:0000f798       ??_C@_07JCAFNCNH@rc2?9cbc?$AA@ 00075798     libeay32:obj_dat.obj
 0002:0000f7a0       ??_C@_07KJDFEEGB@RC2?9CBC?$AA@ 000757a0     libeay32:obj_dat.obj
 0002:0000f7a8       ??_C@_08IPECFNIK@idea?9ecb?$AA@ 000757a8     libeay32:obj_dat.obj
 0002:0000f7b4       ??_C@_08DBCPEMKJ@IDEA?9ECB?$AA@ 000757b4     libeay32:obj_dat.obj
 0002:0000f7c0       ??_C@_08KMOCMALN@idea?9cfb?$AA@ 000757c0     libeay32:obj_dat.obj
 0002:0000f7cc       ??_C@_08BCIPNBJO@IDEA?9CFB?$AA@ 000757cc     libeay32:obj_dat.obj
 0002:0000f7d8       ??_C@_08LCPAFJCA@idea?9cbc?$AA@ 000757d8     libeay32:obj_dat.obj
 0002:0000f7e4       ??_C@_08MJNEIAD@IDEA?9CBC?$AA@ 000757e4     libeay32:obj_dat.obj
 0002:0000f7f0       ??_C@_08LJCBLNOK@des?9ede3?$AA@ 000757f0     libeay32:obj_dat.obj
 0002:0000f7fc       ??_C@_08FEKFKCFJ@DES?9EDE3?$AA@ 000757fc     libeay32:obj_dat.obj
 0002:0000f808       ??_C@_07PILJICGA@des?9ede?$AA@ 00075808     libeay32:obj_dat.obj
 0002:0000f810       ??_C@_07MECFBBOA@DES?9EDE?$AA@ 00075810     libeay32:obj_dat.obj
 0002:0000f818       ??_C@_07IPAFAGII@des?9cbc?$AA@ 00075818     libeay32:obj_dat.obj
 0002:0000f820       ??_C@_07LDJJJFAI@DES?9CBC?$AA@ 00075820     libeay32:obj_dat.obj
 0002:0000f828       ??_C@_07JBBHJPBF@des?9cfb?$AA@ 00075828     libeay32:obj_dat.obj
 0002:0000f830       ??_C@_07KNILAMJF@DES?9CFB?$AA@ 00075830     libeay32:obj_dat.obj
 0002:0000f838       ??_C@_07LCLHACCC@des?9ecb?$AA@ 00075838     libeay32:obj_dat.obj
 0002:0000f840       ??_C@_07IOCLJBKC@DES?9ECB?$AA@ 00075840     libeay32:obj_dat.obj
 0002:0000f848       ??_C@_0P@HCMIBBEB@dhKeyAgreement?$AA@ 00075848     libeay32:obj_dat.obj
 0002:0000f858       ??_C@_05CALCPOBF@pkcs3?$AA@ 00075858     libeay32:obj_dat.obj
 0002:0000f860       ??_C@_0BE@CAMKAFJN@pkcs7?9encryptedData?$AA@ 00075860     libeay32:obj_dat.obj
 0002:0000f874       ??_C@_0BB@CJNFBHDI@pkcs7?9digestData?$AA@ 00075874     libeay32:obj_dat.obj
 0002:0000f888       ??_C@_0BN@LMEEMCPG@pkcs7?9signedAndEnvelopedData?$AA@ 00075888     libeay32:obj_dat.obj
 0002:0000f8a8       ??_C@_0BE@FAIIHMP@pkcs7?9envelopedData?$AA@ 000758a8     libeay32:obj_dat.obj
 0002:0000f8bc       ??_C@_0BB@PEKKHBEJ@pkcs7?9signedData?$AA@ 000758bc     libeay32:obj_dat.obj
 0002:0000f8d0       ??_C@_0L@BCKMJOMA@pkcs7?9data?$AA@ 000758d0     libeay32:obj_dat.obj
 0002:0000f8dc       ??_C@_05EENODLBB@pkcs7?$AA@ 000758dc     libeay32:obj_dat.obj
 0002:0000f8e4       ??_C@_03DICHAJGH@RSA?$AA@  000758e4     libeay32:obj_dat.obj
 0002:0000f8e8       ??_C@_0BH@LAMMAAM@organizationalUnitName?$AA@ 000758e8     libeay32:obj_dat.obj
 0002:0000f900       ??_C@_02LMLEEFAB@OU?$AA@   00075900     libeay32:obj_dat.obj
 0002:0000f904       ??_C@_0BB@GBCNPHLL@organizationName?$AA@ 00075904     libeay32:obj_dat.obj
 0002:0000f918       ??_C@_01MJMHLOMK@O?$AA@    00075918     libeay32:obj_dat.obj
 0002:0000f91c       ??_C@_0BE@NKDCJFMD@stateOrProvinceName?$AA@ 0007591c     libeay32:obj_dat.obj
 0002:0000f930       ??_C@_02LAJDCOFE@ST?$AA@   00075930     libeay32:obj_dat.obj
 0002:0000f934       ??_C@_0N@LEDCGGBI@localityName?$AA@ 00075934     libeay32:obj_dat.obj
 0002:0000f944       ??_C@_01OCOKONAJ@L?$AA@    00075944     libeay32:obj_dat.obj
 0002:0000f948       ??_C@_0M@NPBHECMC@countryName?$AA@ 00075948     libeay32:obj_dat.obj
 0002:0000f954       ??_C@_01GFHCPBMG@C?$AA@    00075954     libeay32:obj_dat.obj
 0002:0000f958       ??_C@_0L@OILMNBLH@commonName?$AA@ 00075958     libeay32:obj_dat.obj
 0002:0000f964       ??_C@_02BMJIHHPP@CN?$AA@   00075964     libeay32:obj_dat.obj
 0002:0000f968       ??_C@_04NMKEOMFB@X509?$AA@ 00075968     libeay32:obj_dat.obj
 0002:0000f970       ??_C@_0BL@NJHHPHOL@directory?5services?5?$CIX?4500?$CJ?$AA@ 00075970     libeay32:obj_dat.obj
 0002:0000f98c       ??_C@_04NGGFHBI@X500?$AA@  0007598c     libeay32:obj_dat.obj
 0002:0000f994       ??_C@_0BF@DAJHPIMK@pbeWithMD5AndDES?9CBC?$AA@ 00075994     libeay32:obj_dat.obj
 0002:0000f9ac       ??_C@_0M@KBNDBPIJ@PBE?9MD5?9DES?$AA@ 000759ac     libeay32:obj_dat.obj
 0002:0000f9b8       ??_C@_0BF@EEAPBBEF@pbeWithMD2AndDES?9CBC?$AA@ 000759b8     libeay32:obj_dat.obj
 0002:0000f9d0       ??_C@_0M@LMNGCPDB@PBE?9MD2?9DES?$AA@ 000759d0     libeay32:obj_dat.obj
 0002:0000f9dc       ??_C@_0BF@EEAHCNKC@md5WithRSAEncryption?$AA@ 000759dc     libeay32:obj_dat.obj
 0002:0000f9f4       ??_C@_07NOGKHCDB@RSA?9MD5?$AA@ 000759f4     libeay32:obj_dat.obj
 0002:0000f9fc       ??_C@_0BF@ODJKGOJ@md2WithRSAEncryption?$AA@ 000759fc     libeay32:obj_dat.obj
 0002:0000fa14       ??_C@_07JBCLOEPG@RSA?9MD2?$AA@ 00075a14     libeay32:obj_dat.obj
 0002:0000fa1c       ??_C@_0O@PCHNMHJE@rsaEncryption?$AA@ 00075a1c     libeay32:obj_dat.obj
 0002:0000fa2c       ??_C@_03OODGMOHK@rc4?$AA@  00075a2c     libeay32:obj_dat.obj
 0002:0000fa30       ??_C@_03HGEJCHKE@RC4?$AA@  00075a30     libeay32:obj_dat.obj
 0002:0000fa34       ??_C@_03PKBIKOHH@md5?$AA@  00075a34     libeay32:obj_dat.obj
 0002:0000fa38       ??_C@_03GCGHEHKJ@MD5?$AA@  00075a38     libeay32:obj_dat.obj
 0002:0000fa3c       ??_C@_03LFFJDILA@md2?$AA@  00075a3c     libeay32:obj_dat.obj
 0002:0000fa40       ??_C@_03CNCGNBGO@MD2?$AA@  00075a40     libeay32:obj_dat.obj
 0002:0000fa44       ??_C@_0BN@EBHJCEC@RSA?5Data?5Security?0?5Inc?4?5PKCS?$AA@ 00075a44     libeay32:obj_dat.obj
 0002:0000fa64       ??_C@_04GCKLMHGD@pkcs?$AA@ 00075a64     libeay32:obj_dat.obj
 0002:0000fa6c       ??_C@_0BI@MPBNCOIB@RSA?5Data?5Security?0?5Inc?4?$AA@ 00075a6c     libeay32:obj_dat.obj
 0002:0000fa84       ??_C@_06GGEMKGKC@rsadsi?$AA@ 00075a84     libeay32:obj_dat.obj
 0002:0000fa8c       ??_C@_09MLGAJAED@undefined?$AA@ 00075a8c     libeay32:obj_dat.obj
 0002:0000fa98       ??_C@_05DBLJEJPC@UNDEF?$AA@ 00075a98     libeay32:obj_dat.obj
 0002:0000faa0       ??_C@_0FB@EJHIDBFI@d?3?2wm653wehh?2platform?2mvv210?2src@ 00075aa0     libeay32:obj_dat.obj
 0002:0000faf4       ??_C@_04MDEFHJHM@?4?$CFlu?$AA@ 00075af4     libeay32:obj_dat.obj
 0002:0000fb00       ??_C@_0EO@DEEJNAGE@d?3?2wm653wehh?2platform?2mvv210?2src@ 00075b00     libeay32:rsa_crpt.obj
 0002:0000fb94       ??_C@_08DFMPDBMK@X509_SIG?$AA@ 00075b94     libeay32:x_sig.obj
 0002:0000fba0       ??_C@_05CJCEEADM@algor?$AA@ 00075ba0     libeay32:x_sig.obj
 0002:0000fba8       cmac_pkey_meth             00075ba8     libeay32:cm_pmeth.obj
 0002:0000fc14       ??_C@_06BHJHKMJC@hexkey?$AA@ 00075c14     libeay32:cm_pmeth.obj
 0002:0000fc1c       ??_C@_06KDGDAFPH@cipher?$AA@ 00075c1c     libeay32:cm_pmeth.obj
 0002:0000fc24       ??_C@_03ICHNJLJF@key?$AA@  00075c24     libeay32:cm_pmeth.obj
 0002:0000fc28       hmac_pkey_meth             00075c28     libeay32:hm_pmeth.obj
 0002:0000fc98       ??_C@_0EP@PNIBEDF@d?3?2wm653wehh?2platform?2mvv210?2src@ 00075c98     libeay32:hm_pmeth.obj
 0002:0000fce8       ec_pkey_meth               00075ce8     libeay32:ec_pmeth.obj
 0002:0000fd58       ??_C@_0EN@FGGHDHMC@d?3?2wm653wehh?2platform?2mvv210?2src@ 00075d58     libeay32:ec_pmeth.obj
 0002:0000fda8       ??_C@_0BC@BLCJLNNM@ec_paramgen_curve?$AA@ 00075da8     libeay32:ec_pmeth.obj
 0002:0000fdc0       dsa_pkey_meth              00075dc0     libeay32:dsa_pmeth.obj
 0002:0000fe30       ??_C@_0EP@KECMJLCG@d?3?2wm653wehh?2platform?2mvv210?2src@ 00075e30     libeay32:dsa_pmeth.obj
 0002:0000fe80       ??_C@_0BA@HDLNDIMK@dsa_paramgen_md?$AA@ 00075e80     libeay32:dsa_pmeth.obj
 0002:0000fe90       ??_C@_0BE@JHBKDNPA@dsa_paramgen_q_bits?$AA@ 00075e90     libeay32:dsa_pmeth.obj
 0002:0000fea4       ??_C@_0BC@DOMHFBFC@dsa_paramgen_bits?$AA@ 00075ea4     libeay32:dsa_pmeth.obj
 0002:0000feb8       dh_pkey_meth               00075eb8     libeay32:dh_pmeth.obj
 0002:0000ff28       ??_C@_0EN@BFMPENCA@d?3?2wm653wehh?2platform?2mvv210?2src@ 00075f28     libeay32:dh_pmeth.obj
 0002:0000ff78       ??_C@_0BG@POLEFOHA@dh_paramgen_generator?$AA@ 00075f78     libeay32:dh_pmeth.obj
 0002:0000ff90       ??_C@_0BG@LEMCDPBI@dh_paramgen_prime_len?$AA@ 00075f90     libeay32:dh_pmeth.obj
 0002:0000ffa8       rsa_pkey_meth              00075fa8     libeay32:rsa_pmeth.obj
 0002:00010018       ??_C@_0EP@PCLPIEEA@d?3?2wm653wehh?2platform?2mvv210?2src@ 00076018     libeay32:rsa_pmeth.obj
 0002:00010068       ??_C@_0BC@DMECNPFD@rsa_keygen_pubexp?$AA@ 00076068     libeay32:rsa_pmeth.obj
 0002:0001007c       ??_C@_0BA@GFPKPLAF@rsa_keygen_bits?$AA@ 0007607c     libeay32:rsa_pmeth.obj
 0002:0001008c       ??_C@_0BA@CIHMEEHB@rsa_pss_saltlen?$AA@ 0007608c     libeay32:rsa_pmeth.obj
 0002:0001009c       ??_C@_04JNCMEILM@x931?$AA@ 0007609c     libeay32:rsa_pmeth.obj
 0002:000100a4       ??_C@_04EIGNDHKO@oeap?$AA@ 000760a4     libeay32:rsa_pmeth.obj
 0002:000100ac       ??_C@_04CGFJFPFD@none?$AA@ 000760ac     libeay32:rsa_pmeth.obj
 0002:000100b4       ??_C@_06PDLHKEJK@sslv23?$AA@ 000760b4     libeay32:rsa_pmeth.obj
 0002:000100bc       ??_C@_0BB@BILFEOKG@rsa_padding_mode?$AA@ 000760bc     libeay32:rsa_pmeth.obj
 0002:000100d0       ??_C@_0EL@PAPNDPGN@d?3?2wm653wehh?2platform?2mvv210?2src@ 000760d0     libeay32:p_lib.obj
 0002:00010120       ??_C@_0FC@NEBNNILH@d?3?2wm653wehh?2platform?2mvv210?2src@ 00076120     libeay32:tb_pkmeth.obj
 0002:00010178       ??_C@_0FC@LCBCBJII@d?3?2wm653wehh?2platform?2mvv210?2src@ 00076178     libeay32:eng_table.obj
 0002:000101d0       ??_C@_0EJ@DIAKMCGH@d?3?2wm653wehh?2platform?2mvv210?2src@ 000761d0     libeay32:mem_dbg.obj
 0002:0001021c       lh_version                 0007621c     libeay32:lhash.obj
 0002:00010248       ??_C@_0EN@ECMNBMLE@d?3?2wm653wehh?2platform?2mvv210?2src@ 00076248     libeay32:lhash.obj
 0002:00010298       ??_C@_0EN@GMEKCP@d?3?2wm653wehh?2platform?2mvv210?2src@ 00076298     libeay32:b_print.obj
 0002:000102e8       ??_C@_06CBHGEMFM@?$DMNULL?$DO?$AA@ 000762e8     libeay32:b_print.obj
 0002:000102f0       ??_C@_0BB@JCEFLFJE@0123456789abcdef?$AA@ 000762f0     libeay32:b_print.obj
 0002:00010304       ??_C@_0BB@JGGOGLEG@0123456789ABCDEF?$AA@ 00076304     libeay32:b_print.obj
 0002:00010318       ??_C@_02MDDDDAID@0x?$AA@   00076318     libeay32:b_print.obj
 0002:0001031c       ??_C@_01GBGANLPD@0?$AA@    0007631c     libeay32:b_print.obj
 0002:00010320       ??_C@_07DKNGGOEP@doapr?$CI?$CJ?$AA@ 00076320     libeay32:b_print.obj
 0002:00010328       ??_C@_0FA@DONMMNBK@d?3?2wm653wehh?2platform?2mvv210?2src@ 00076328     libeay32:eng_lib.obj
 0002:00010378       ASN1_version               00076378     libeay32:asn1_lib.obj
 0002:000103a8       ??_C@_0EP@DFJJGEMF@d?3?2wm653wehh?2platform?2mvv210?2src@ 000763a8     libeay32:asn1_lib.obj
 0002:00010714       ??_C@_0N@KHICOJGI@ASN1_SET_ANY?$AA@ 00076714     libeay32:tasn_typ.obj
 0002:00010724       ??_C@_0BC@COPGMDLD@ASN1_SEQUENCE_ANY?$AA@ 00076724     libeay32:tasn_typ.obj
 0002:00010738       ??_C@_0BH@HEBAELGA@ASN1_OCTET_STRING_NDEF?$AA@ 00076738     libeay32:tasn_typ.obj
 0002:00010750       ??_C@_0O@JKANHMPI@ASN1_FBOOLEAN?$AA@ 00076750     libeay32:tasn_typ.obj
 0002:00010760       ??_C@_0O@BIDLBGAP@ASN1_TBOOLEAN?$AA@ 00076760     libeay32:tasn_typ.obj
 0002:00010770       ??_C@_0N@HMAPMMGF@ASN1_BOOLEAN?$AA@ 00076770     libeay32:tasn_typ.obj
 0002:00010780       ??_C@_0BA@CBHCBCAE@DIRECTORYSTRING?$AA@ 00076780     libeay32:tasn_typ.obj
 0002:00010790       ??_C@_0M@FANFDIEE@DISPLAYTEXT?$AA@ 00076790     libeay32:tasn_typ.obj
 0002:0001079c       ??_C@_0P@NDKOCAEJ@ASN1_PRINTABLE?$AA@ 0007679c     libeay32:tasn_typ.obj
 0002:000107ac       ??_C@_0O@NJFCFMGE@ASN1_SEQUENCE?$AA@ 000767ac     libeay32:tasn_typ.obj
 0002:000107bc       ??_C@_08FIDCPDIJ@ASN1_ANY?$AA@ 000767bc     libeay32:tasn_typ.obj
 0002:000107c8       ??_C@_0P@CHICPHIN@ASN1_BMPSTRING?$AA@ 000767c8     libeay32:tasn_typ.obj
 0002:000107d8       ??_C@_0BF@DMDDFBNJ@ASN1_UNIVERSALSTRING?$AA@ 000767d8     libeay32:tasn_typ.obj
 0002:000107f0       ??_C@_0BD@HMMCNBGD@ASN1_VISIBLESTRING?$AA@ 000767f0     libeay32:tasn_typ.obj
 0002:00010804       ??_C@_0BF@MPJFOIHC@ASN1_GENERALIZEDTIME?$AA@ 00076804     libeay32:tasn_typ.obj
 0002:0001081c       ??_C@_0N@OIMCLPEM@ASN1_UTCTIME?$AA@ 0007681c     libeay32:tasn_typ.obj
 0002:0001082c       ??_C@_0BD@EMMGLGMD@ASN1_GENERALSTRING?$AA@ 0007682c     libeay32:tasn_typ.obj
 0002:00010840       ??_C@_0P@KBFNFBLB@ASN1_IA5STRING?$AA@ 00076840     libeay32:tasn_typ.obj
 0002:00010850       ??_C@_0P@GDIFPLAP@ASN1_T61STRING?$AA@ 00076850     libeay32:tasn_typ.obj
 0002:00010860       ??_C@_0BF@CPDMNKCA@ASN1_PRINTABLESTRING?$AA@ 00076860     libeay32:tasn_typ.obj
 0002:00010878       ??_C@_0BA@LEPDCAOC@ASN1_UTF8STRING?$AA@ 00076878     libeay32:tasn_typ.obj
 0002:00010888       ??_C@_0M@BJNOJGBL@ASN1_OBJECT?$AA@ 00076888     libeay32:tasn_typ.obj
 0002:00010894       ??_C@_09NHFFCPKK@ASN1_NULL?$AA@ 00076894     libeay32:tasn_typ.obj
 0002:000108a0       ??_C@_0BC@PEBEKNCO@ASN1_OCTET_STRING?$AA@ 000768a0     libeay32:tasn_typ.obj
 0002:000108b4       ??_C@_0BA@LJHGDIKH@ASN1_BIT_STRING?$AA@ 000768b4     libeay32:tasn_typ.obj
 0002:000108c4       ??_C@_0BA@CLGIIAJD@ASN1_ENUMERATED?$AA@ 000768c4     libeay32:tasn_typ.obj
 0002:000108d4       ??_C@_0N@KIGEHGKE@ASN1_INTEGER?$AA@ 000768d4     libeay32:tasn_typ.obj
 0002:000108e8       ??_C@_0EM@IJKLDGFG@d?3?2wm653wehh?2platform?2mvv210?2src@ 000768e8     libeay32:a_int.obj
 0002:00010950       BN_version                 00076950     libeay32:bn_lib.obj
 0002:00010a80       ??_C@_0EL@EKPDCIGL@d?3?2wm653wehh?2platform?2mvv210?2src@ 00076a80     libeay32:bn_lib.obj
 0002:00010ad0       ??_C@_0EN@MBCJMNEM@d?3?2wm653wehh?2platform?2mvv210?2src@ 00076ad0     libeay32:bio_lib.obj
 0002:00010b20       ??_C@_01CLKCMJKC@?5?$AA@   00076b20     libeay32:bio_lib.obj
 0002:00010b28       ??_C@_0FB@OACJPALH@d?3?2wm653wehh?2platform?2mvv210?2src@ 00076b28     libeay32:obj_lib.obj
 0002:00010b90       ??_C@_0EN@HOIICIBH@d?3?2wm653wehh?2platform?2mvv210?2src@ 00076b90     libeay32:bn_print.obj
 0002:00010be0       ??_C@_04LJCFADJL@?$CF09u?$AA@ 00076be0     libeay32:bn_print.obj
 0002:00010be8       ??_C@_02GMHACPFF@?$CFu?$AA@ 00076be8     libeay32:bn_print.obj
 0002:00010bec       ??_C@_01JOAMLHOP@?9?$AA@   00076bec     libeay32:bn_print.obj
 0002:00010bf0       ??_C@_0EN@CHOOKOEN@d?3?2wm653wehh?2platform?2mvv210?2src@ 00076bf0     libeay32:bn_blind.obj
 0002:00010c40       ??_C@_0EL@BMHBHOHG@d?3?2wm653wehh?2platform?2mvv210?2src@ 00076c40     libeay32:bn_ctx.obj
 0002:00010c90       ??_C@_0EL@EPOPJPNF@d?3?2wm653wehh?2platform?2mvv210?2src@ 00076c90     libeay32:bn_gcd.obj
 0002:00010ce0       ??_C@_0EL@CLJGKANI@d?3?2wm653wehh?2platform?2mvv210?2src@ 00076ce0     libeay32:bn_add.obj
 0002:00010da0       ??_C@_0M@MMOLGLEG@X509_ALGORS?$AA@ 00076da0     libeay32:x_algor.obj
 0002:00010dac       ??_C@_0L@BNOBMJFK@algorithms?$AA@ 00076dac     libeay32:x_algor.obj
 0002:00010db8       ??_C@_0L@BFHONDPK@X509_ALGOR?$AA@ 00076db8     libeay32:x_algor.obj
 0002:00010dc4       ??_C@_09DAGAJHIH@parameter?$AA@ 00076dc4     libeay32:x_algor.obj
 0002:00010e50       ??_C@_0EP@IJPFBBNM@d?3?2wm653wehh?2platform?2mvv210?2src@ 00076e50     libeay32:tasn_dec.obj
 0002:00010ea0       ??_C@_05GCCLHHOK@Type?$DN?$AA@ 00076ea0     libeay32:tasn_dec.obj
 0002:00010ea8       ??_C@_07NHKPEHKF@?0?5Type?$DN?$AA@ 00076ea8     libeay32:tasn_dec.obj
 0002:00010eb0       ??_C@_06GPKHKFJE@Field?$DN?$AA@ 00076eb0     libeay32:tasn_dec.obj
 0002:00010eb8       ??_C@_0EP@DFHJPDGI@d?3?2wm653wehh?2platform?2mvv210?2src@ 00076eb8     libeay32:tasn_enc.obj
 0002:00010f08       ??_C@_0EP@PHBFPCHC@d?3?2wm653wehh?2platform?2mvv210?2src@ 00076f08     libeay32:tasn_new.obj
 0002:000112e0       ??_C@_0EN@ODDCBIPI@d?3?2wm653wehh?2platform?2mvv210?2src@ 000772e0     libeay32:evp_pbe.obj
 0002:00011330       ??_C@_05DLJFLBDA@TYPE?$DN?$AA@ 00077330     libeay32:evp_pbe.obj
 0002:00011338       ??_C@_0EL@CJHJHLOJ@d?3?2wm653wehh?2platform?2mvv210?2src@ 00077338     libeay32:cmac.obj
 0002:00011398       ??_C@_0EP@DFJOCJBM@d?3?2wm653wehh?2platform?2mvv210?2src@ 00077398     libeay32:v3_utl.obj
 0002:000113e8       ??_C@_05MAJJAKPI@FALSE?$AA@ 000773e8     libeay32:v3_utl.obj
 0002:000113f0       ??_C@_04HCDDPBNL@TRUE?$AA@ 000773f0     libeay32:v3_utl.obj
 0002:000113f8       ??_C@_07BDICHDDB@?0value?3?$AA@ 000773f8     libeay32:v3_utl.obj
 0002:00011400       ??_C@_06FONLLLNC@?0name?3?$AA@ 00077400     libeay32:v3_utl.obj
 0002:00011408       ??_C@_08PCLJGJAL@section?3?$AA@ 00077408     libeay32:v3_utl.obj
 0002:00011414       ??_C@_02KAJCLHKP@no?$AA@   00077414     libeay32:v3_utl.obj
 0002:00011418       ??_C@_02NFLNFON@NO?$AA@    00077418     libeay32:v3_utl.obj
 0002:0001141c       ??_C@_01EFFIKLCJ@n?$AA@    0007741c     libeay32:v3_utl.obj
 0002:00011420       ??_C@_01NANMIPIL@N?$AA@    00077420     libeay32:v3_utl.obj
 0002:00011424       ??_C@_05LAPONLG@false?$AA@ 00077424     libeay32:v3_utl.obj
 0002:0001142c       ??_C@_03ICICOMAL@yes?$AA@  0007742c     libeay32:v3_utl.obj
 0002:00011430       ??_C@_03IPHJCBHH@YES?$AA@  00077430     libeay32:v3_utl.obj
 0002:00011434       ??_C@_01EANLCPLP@y?$AA@    00077434     libeay32:v3_utl.obj
 0002:00011438       ??_C@_01NFFPALBN@Y?$AA@    00077438     libeay32:v3_utl.obj
 0002:0001143c       ??_C@_04LOAJBDKD@true?$AA@ 0007743c     libeay32:v3_utl.obj
 0002:00011444       ??_C@_0M@PCENNPGA@?$CFd?4?$CFd?4?$CFd?4?$CFd?$AA@ 00077444     libeay32:v3_utl.obj
 0002:00011478       ??_C@_0EL@KJLPEPL@d?3?2wm653wehh?2platform?2mvv210?2src@ 00077478     libeay32:ec_lib.obj
 0002:000114c4       ECDSA_version              000774c4     libeay32:ecs_lib.obj
 0002:000114f0       ??_C@_0EP@HDBDKLOP@d?3?2wm653wehh?2platform?2mvv210?2src@ 000774f0     libeay32:ecs_lib.obj
 0002:00011540       ??_C@_0EL@FFHGPJNM@d?3?2wm653wehh?2platform?2mvv210?2src@ 00077540     libeay32:ec_key.obj
 0002:00014a08       ??_C@_0HB@IIAMGFOE@?6?7IPSec?1IKE?1Oakley?5curve?5?$CD4?5over@ 0007aa08     libeay32:ec_curve.obj
 0002:00014a80       ??_C@_0HB@LGGCBEEP@?6?7IPSec?1IKE?1Oakley?5curve?5?$CD3?5over@ 0007aa80     libeay32:ec_curve.obj
 0002:00014af4       ??_C@_0CG@MLNHEHNL@WTLS?5curvs?5over?5a?5224?5bit?5prime?5@ 0007aaf4     libeay32:ec_curve.obj
 0002:00014b1c       ??_C@_0CG@JBBHINGJ@WTLS?5curve?5over?5a?5160?5bit?5prime?5@ 0007ab1c     libeay32:ec_curve.obj
 0002:00014b44       ??_C@_0CG@NOPNGNKB@WTLS?5curve?5over?5a?5112?5bit?5prime?5@ 0007ab44     libeay32:ec_curve.obj
 0002:00014b6c       ??_C@_0CH@PAECJHG@WTLS?5curve?5over?5a?5113?5bit?5binary@ 0007ab6c     libeay32:ec_curve.obj
 0002:00014b94       ??_C@_0CI@PHOKEIPD@X9?462?5curve?5over?5a?5431?5bit?5binar@ 0007ab94     libeay32:ec_curve.obj
 0002:00014bbc       ??_C@_0CI@GLMEIDGJ@X9?462?5curve?5over?5a?5368?5bit?5binar@ 0007abbc     libeay32:ec_curve.obj
 0002:00014be4       ??_C@_0CI@BDIPEOPL@X9?462?5curve?5over?5a?5359?5bit?5binar@ 0007abe4     libeay32:ec_curve.obj
 0002:00014c0c       ??_C@_0CI@PCOAONL@X9?462?5curve?5over?5a?5304?5bit?5binar@ 0007ac0c     libeay32:ec_curve.obj
 0002:00014c34       ??_C@_0CI@OMGMCAMF@X9?462?5curve?5over?5a?5272?5bit?5binar@ 0007ac34     libeay32:ec_curve.obj
 0002:00014c5c       ??_C@_0CI@IHGFALA@X9?462?5curve?5over?5a?5239?5bit?5binar@ 0007ac5c     libeay32:ec_curve.obj
 0002:00014c84       ??_C@_0CI@HADNJNCC@X9?462?5curve?5over?5a?5208?5bit?5binar@ 0007ac84     libeay32:ec_curve.obj
 0002:00014cac       ??_C@_0CI@CNNMGPOI@X9?462?5curve?5over?5a?5191?5bit?5binar@ 0007acac     libeay32:ec_curve.obj
 0002:00014cd4       ??_C@_0CI@HOBKKPME@X9?462?5curve?5over?5a?5176?5bit?5binar@ 0007acd4     libeay32:ec_curve.obj
 0002:00014cfc       ??_C@_0CI@CFPHBJDI@X9?462?5curve?5over?5a?5163?5bit?5binar@ 0007acfc     libeay32:ec_curve.obj
 0002:00014d24       ??_C@_0CM@EACJKLC@NIST?1SECG?5curve?5over?5a?5571?5bit?5b@ 0007ad24     libeay32:ec_curve.obj
 0002:00014d50       ??_C@_0CM@HDDNKCDK@NIST?1SECG?5curve?5over?5a?5409?5bit?5b@ 0007ad50     libeay32:ec_curve.obj
 0002:00014d7c       ??_C@_0CM@GFMOGKDK@NIST?1SECG?5curve?5over?5a?5283?5bit?5b@ 0007ad7c     libeay32:ec_curve.obj
 0002:00014da8       ??_C@_0CH@CLCLBOGN@SECG?5curve?5over?5a?5239?5bit?5binary@ 0007ada8     libeay32:ec_curve.obj
 0002:00014dd0       ??_C@_0DB@PNCPLOPN@NIST?1SECG?1WTLS?5curve?5over?5a?5233?5@ 0007add0     libeay32:ec_curve.obj
 0002:00014e04       ??_C@_0CH@HKDFCHME@SECG?5curve?5over?5a?5193?5bit?5binary@ 0007ae04     libeay32:ec_curve.obj
 0002:00014e2c       ??_C@_0CM@HCIKDLO@NIST?1SECG?5curve?5over?5a?5163?5bit?5b@ 0007ae2c     libeay32:ec_curve.obj
 0002:00014e58       ??_C@_0CH@GKKFHOF@SECG?5curve?5over?5a?5163?5bit?5binary@ 0007ae58     libeay32:ec_curve.obj
 0002:00014e80       ??_C@_0DB@KNLLOMAB@NIST?1SECG?1WTLS?5curve?5over?5a?5163?5@ 0007ae80     libeay32:ec_curve.obj
 0002:00014eb4       ??_C@_0CH@FJJEIBAL@SECG?5curve?5over?5a?5131?5bit?5binary@ 0007aeb4     libeay32:ec_curve.obj
 0002:00014edc       ??_C@_0CM@EPOILLGK@SECG?1WTLS?5curve?5over?5a?5131?5bit?5b@ 0007aedc     libeay32:ec_curve.obj
 0002:00014f08       ??_C@_0CH@OHOOPBHG@SECG?5curve?5over?5a?5113?5bit?5binary@ 0007af08     libeay32:ec_curve.obj
 0002:00014f30       ??_C@_0CM@IACJENLF@X9?462?1SECG?5curve?5over?5a?5256?5bit?5@ 0007af30     libeay32:ec_curve.obj
 0002:00014f5c       ??_C@_0CH@COBCAEEE@X9?462?5curve?5over?5a?5239?5bit?5prime@ 0007af5c     libeay32:ec_curve.obj
 0002:00014f84       ??_C@_0CH@BHJCBJE@X9?462?5curve?5over?5a?5192?5bit?5prime@ 0007af84     libeay32:ec_curve.obj
 0002:00014fac       ??_C@_0DB@HJIMEGJL@NIST?1X9?462?1SECG?5curve?5over?5a?5192@ 0007afac     libeay32:ec_curve.obj
 0002:00014fe0       ??_C@_0CL@NCEJLDDF@NIST?1SECG?5curve?5over?5a?5521?5bit?5p@ 0007afe0     libeay32:ec_curve.obj
 0002:0001500c       ??_C@_0CL@MPIFFEHD@NIST?1SECG?5curve?5over?5a?5384?5bit?5p@ 0007b00c     libeay32:ec_curve.obj
 0002:00015038       ??_C@_0CG@MBJIMJMI@SECG?5curve?5over?5a?5256?5bit?5prime?5@ 0007b038     libeay32:ec_curve.obj
 0002:00015060       ??_C@_0CL@NHPHHEEB@NIST?1SECG?5curve?5over?5a?5224?5bit?5p@ 0007b060     libeay32:ec_curve.obj
 0002:0001508c       ??_C@_0CG@IOHCCJAA@SECG?5curve?5over?5a?5224?5bit?5prime?5@ 0007b08c     libeay32:ec_curve.obj
 0002:000150b4       ??_C@_0CG@IFFAEDGD@SECG?5curve?5over?5a?5192?5bit?5prime?5@ 0007b0b4     libeay32:ec_curve.obj
 0002:000150dc       ??_C@_0CL@NDOOJKPB@SECG?1WTLS?5curve?5over?5a?5160?5bit?5p@ 0007b0dc     libeay32:ec_curve.obj
 0002:00015108       ??_C@_0CG@MDBLLOCO@SECG?5curve?5over?5a?5160?5bit?5prime?5@ 0007b108     libeay32:ec_curve.obj
 0002:00015130       ??_C@_0CG@DNCCBNMA@SECG?5curve?5over?5a?5128?5bit?5prime?5@ 0007b130     libeay32:ec_curve.obj
 0002:00015158       ??_C@_0CG@IMPBFOOG@SECG?5curve?5over?5a?5112?5bit?5prime?5@ 0007b158     libeay32:ec_curve.obj
 0002:00015180       ??_C@_0CL@JMAEHKDJ@SECG?1WTLS?5curve?5over?5a?5112?5bit?5p@ 0007b180     libeay32:ec_curve.obj
 0002:000151b0       ??_C@_0EN@GGBLGKDN@d?3?2wm653wehh?2platform?2mvv210?2src@ 0007b1b0     libeay32:ec_curve.obj
 0002:00015440       ??_C@_08CCPALKOP@priv_key?$AA@ 0007b440     libeay32:dsa_asn1.obj
 0002:0001544c       ??_C@_07CLGEADLH@pub_key?$AA@ 0007b44c     libeay32:dsa_asn1.obj
 0002:00015454       ??_C@_01JEJKBAGA@g?$AA@    0007b454     libeay32:dsa_asn1.obj
 0002:00015458       ??_C@_01IIACKFLH@q?$AA@    0007b458     libeay32:dsa_asn1.obj
 0002:0001545c       ??_C@_01JBBJJEPG@p?$AA@    0007b45c     libeay32:dsa_asn1.obj
 0002:00015460       ??_C@_07CPCPJPKL@version?$AA@ 0007b460     libeay32:dsa_asn1.obj
 0002:00015468       ??_C@_07ECLLFBLJ@DSA_SIG?$AA@ 0007b468     libeay32:dsa_asn1.obj
 0002:00015470       ??_C@_01LKDEMHDF@s?$AA@    0007b470     libeay32:dsa_asn1.obj
 0002:00015474       ??_C@_01KDCPPGHE@r?$AA@    0007b474     libeay32:dsa_asn1.obj
 0002:00015478       ??_C@_0EO@DLELNGDB@d?3?2wm653wehh?2platform?2mvv210?2src@ 0007b478     libeay32:dsa_asn1.obj
 0002:000154c8       DSA_version                0007b4c8     libeay32:dsa_lib.obj
 0002:000154f0       ??_C@_0EN@HPPIDPIC@d?3?2wm653wehh?2platform?2mvv210?2src@ 0007b4f0     libeay32:dsa_lib.obj
 0002:00015540       DH_version                 0007b540     libeay32:dh_lib.obj
 0002:00015578       ??_C@_0EL@PIAODHMF@d?3?2wm653wehh?2platform?2mvv210?2src@ 0007b578     libeay32:dh_lib.obj
 0002:000155c8       ??_C@_0EL@BNOPJFLP@d?3?2wm653wehh?2platform?2mvv210?2src@ 0007b5c8     libeay32:dh_gen.obj
 0002:00015614       ??_C@_0BC@MGHKLCAP@OpenSSL?5DH?5Method?$AA@ 0007b614     libeay32:dh_key.obj
 0002:00015628       ??_C@_0EL@KHODDKOC@d?3?2wm653wehh?2platform?2mvv210?2src@ 0007b628     libeay32:dh_key.obj
 0002:00015680       ??_C@_0EN@HNNJMEMO@d?3?2wm653wehh?2platform?2mvv210?2src@ 0007b680     libeay32:rsa_pss.obj
 0002:000156d0       ??_C@_0EO@IHJGGIGJ@d?3?2wm653wehh?2platform?2mvv210?2src@ 0007b6d0     libeay32:rsa_x931.obj
 0002:00015720       ??_C@_0EO@KJLCAEHF@d?3?2wm653wehh?2platform?2mvv210?2src@ 0007b720     libeay32:rsa_saos.obj
 0002:00015900       ??_C@_0EN@EGODLFJH@d?3?2wm653wehh?2platform?2mvv210?2src@ 0007b900     libeay32:cms_env.obj
 0002:00015950       RSA_version                0007b950     libeay32:rsa_lib.obj
 0002:00015978       ??_C@_0EN@MLDILJPH@d?3?2wm653wehh?2platform?2mvv210?2src@ 0007b978     libeay32:rsa_lib.obj
 0002:000159c8       ??_C@_0EN@CONJBLIN@d?3?2wm653wehh?2platform?2mvv210?2src@ 0007b9c8     libeay32:rsa_gen.obj
 0002:00015aa0       ??_C@_06IEOJBDIK@object?$AA@ 0007baa0     libeay32:x_attrib.obj
 0002:00015aa8       ??_C@_0P@IBKNNFL@X509_ATTRIBUTE?$AA@ 0007baa8     libeay32:x_attrib.obj
 0002:00015ab8       ??_C@_0N@MCAEPLPL@value?4single?$AA@ 0007bab8     libeay32:x_attrib.obj
 0002:00015ac8       ??_C@_09MPCDAIAO@value?4set?$AA@ 0007bac8     libeay32:x_attrib.obj
 0002:00015ad4       ??_C@_02DKCKIIND@?$CFs?$AA@ 0007bad4     libeay32:eng_ctrl.obj
 0002:00015ad8       ??_C@_0N@JAGKAFD@FILE?5pointer?$AA@ 0007bad8     libeay32:bss_file.obj
 0002:00015ae8       ??_C@_0EO@GEBEJMNG@d?3?2wm653wehh?2platform?2mvv210?2src@ 0007bae8     libeay32:bss_file.obj
 0002:00015b38       ??_C@_02HJPKOJGD@?8?$CJ?$AA@ 0007bb38     libeay32:bss_file.obj
 0002:00015b3c       ??_C@_03IMMLKIF@?8?0?8?$AA@ 0007bb3c     libeay32:bss_file.obj
 0002:00015b40       ??_C@_07JMDFGFFH@fopen?$CI?8?$AA@ 0007bb40     libeay32:bss_file.obj
 0002:00015b48       ??_C@_01PFHFFBPC@t?$AA@    0007bb48     libeay32:bss_file.obj
 0002:00015b4c       ??_C@_01OJONOECF@b?$AA@    0007bb4c     libeay32:bss_file.obj
 0002:00015b50       ??_C@_01NOFIACDB@w?$AA@    0007bb50     libeay32:bss_file.obj
 0002:00015b54       ??_C@_02CBLLGHLK@r?$CL?$AA@ 0007bb54     libeay32:bss_file.obj
 0002:00015b58       ??_C@_01MCMALHOG@a?$AA@    0007bb58     libeay32:bss_file.obj
 0002:00015b5c       ??_C@_02DPNLHKJD@a?$CL?$AA@ 0007bb5c     libeay32:bss_file.obj
 0002:00015b60       ??_C@_0EJ@IBNICOFA@d?3?2wm653wehh?2platform?2mvv210?2src@ 0007bb60     libeay32:ex_data.obj
 0002:00015bb0       ??_C@_0FC@BNEDDMOL@d?3?2wm653wehh?2platform?2mvv210?2src@ 0007bbb0     libeay32:tb_asnmth.obj
 0002:00015c08       ??_C@_0EP@DLKDJLKC@d?3?2wm653wehh?2platform?2mvv210?2src@ 0007bc08     libeay32:buffer.obj
 0002:00015c58       ??_C@_0EL@CLIEFBLC@d?3?2wm653wehh?2platform?2mvv210?2src@ 0007bc58     libeay32:bn_mod.obj
 0002:00015ca8       ??_C@_0EL@MKGMFIIF@d?3?2wm653wehh?2platform?2mvv210?2src@ 0007bca8     libeay32:bn_exp.obj
 0002:00015cf8       ??_C@_0EM@GFDFNKJ@d?3?2wm653wehh?2platform?2mvv210?2src@ 0007bcf8     libeay32:bn_rand.obj
 0002:00015d48       ??_C@_0EL@HJNLGKMO@d?3?2wm653wehh?2platform?2mvv210?2src@ 0007bd48     libeay32:bn_div.obj
 0002:00015d94       RAND_version               0007bd94     libeay32:md_rand.obj
 0002:00015dc0       ??_C@_0EO@OKPIHEJM@d?3?2wm653wehh?2platform?2mvv210?2src@ 0007bdc0     libeay32:md_rand.obj
 0002:00015e10       ??_C@_0EK@MHBHPLPP@You?5need?5to?5read?5the?5OpenSSL?5FAQ@ 0007be10     libeay32:md_rand.obj
 0002:00015e5c       ??_C@_0BF@KNMHCCP@?4?4?4?4?4?4?4?4?4?4?4?4?4?4?4?4?4?4?4?4?$AA@ 0007be5c     libeay32:md_rand.obj
 0002:00015e78       ??_C@_0EM@KNGHBEEM@d?3?2wm653wehh?2platform?2mvv210?2src@ 0007be78     libeay32:a_dup.obj
 0002:00015ec8       ??_C@_0EP@PHFMEFHI@d?3?2wm653wehh?2platform?2mvv210?2src@ 0007bec8     libeay32:a_bitstr.obj
 0002:00015f18       ??_C@_0EP@EEJMGOIG@d?3?2wm653wehh?2platform?2mvv210?2src@ 0007bf18     libeay32:tasn_utl.obj
 0002:00015f68       ??_C@_0BF@JMOFLBJO@keylen?5?$DM?$DN?5sizeof?5key?$AA@ 0007bf68     libeay32:p5_crpt2.obj
 0002:00015f80       ??_C@_0EO@DONPFFAH@d?3?2wm653wehh?2platform?2mvv210?2src@ 0007bf80     libeay32:p5_crpt2.obj
 0002:00015fd0       ??_C@_0FB@IJLBCKEP@d?3?2wm653wehh?2platform?2mvv210?2src@ 0007bfd0     libeay32:p12_crpt.obj
 0002:00016024       ??_C@_0CD@HMFJNEFL@EVP_CIPHER_iv_length?$CIcipher?$CJ?5?$DM?$DN?5@ 0007c024     libeay32:p5_crpt.obj
 0002:00016048       ??_C@_0DF@FHOHFFEB@EVP_CIPHER_key_length?$CIcipher?$CJ?5?$DM?$DN@ 0007c048     libeay32:p5_crpt.obj
 0002:00016080       ??_C@_0EN@DFHCIHFJ@d?3?2wm653wehh?2platform?2mvv210?2src@ 0007c080     libeay32:p5_crpt.obj
 0002:000160d0       EVP_version                0007c0d0     libeay32:evp_enc.obj
 0002:000160f8       ??_C@_0EN@FALCDJAN@d?3?2wm653wehh?2platform?2mvv210?2src@ 0007c0f8     libeay32:evp_enc.obj
 0002:00016148       ??_C@_0BM@NOPGEACO@bl?5?$DM?$DN?5?$CIint?$CJsizeof?$CIctx?9?$DObuf?$CJ?$AA@ 0007c148     libeay32:evp_enc.obj
 0002:00016164       ??_C@_0BF@NLHGELBH@b?5?$DM?$DN?5sizeof?5ctx?9?$DObuf?$AA@ 0007c164     libeay32:evp_enc.obj
 0002:0001617c       ??_C@_0BH@JPOFFCDO@b?5?$DM?$DN?5sizeof?5ctx?9?$DOfinal?$AA@ 0007c17c     libeay32:evp_enc.obj
 0002:00016194       ??_C@_0DG@IKOHIL@EVP_CIPHER_CTX_iv_length?$CIctx?$CJ?5?$DM?$DN@ 0007c194     libeay32:evp_enc.obj
 0002:000161d0       ??_C@_0FO@KIBMBINE@ctx?9?$DOcipher?9?$DOblock_size?5?$DN?$DN?51?5?$HM?$HM?5@ 0007c1d0     libeay32:evp_enc.obj
 0002:00016230       ??_C@_0EN@MHHCMNBH@d?3?2wm653wehh?2platform?2mvv210?2src@ 0007c230     libeay32:a_enum.obj
 0002:00016280       ??_C@_0EP@KFOAJJMD@d?3?2wm653wehh?2platform?2mvv210?2src@ 0007c280     libeay32:x509name.obj
 0002:000162d0       ??_C@_05DFCJAACA@name?$DN?$AA@ 0007c2d0     libeay32:x509name.obj
 0002:0001634c       v3_sinfo                   0007c34c     libeay32:v3_info.obj
 0002:00016384       v3_info                    0007c384     libeay32:v3_info.obj
 0002:000163bc       ??_C@_0BG@PFEKCAHJ@AUTHORITY_INFO_ACCESS?$AA@ 0007c3bc     libeay32:v3_info.obj
 0002:000163d4       ??_C@_0N@CJKIBDLK@GeneralNames?$AA@ 0007c3d4     libeay32:v3_info.obj
 0002:000163e4       ??_C@_0BD@IKHCEBLA@ACCESS_DESCRIPTION?$AA@ 0007c3e4     libeay32:v3_info.obj
 0002:000163f8       ??_C@_08CBBFJFMD@location?$AA@ 0007c3f8     libeay32:v3_info.obj
 0002:00016404       ??_C@_06GABBCIBA@method?$AA@ 0007c404     libeay32:v3_info.obj
 0002:0001640c       ??_C@_03NLJIHOMM@?5?9?5?$AA@ 0007c40c     libeay32:v3_info.obj
 0002:00016410       ??_C@_0FA@EJINBECP@d?3?2wm653wehh?2platform?2mvv210?2src@ 0007c410     libeay32:v3_info.obj
 0002:00016460       ??_C@_06KFEJCPI@value?$DN?$AA@ 0007c460     libeay32:v3_info.obj
 0002:00016468       ??_C@_0EP@JMDNBNIF@d?3?2wm653wehh?2platform?2mvv210?2src@ 0007c468     libeay32:conf_mod.obj
 0002:000164b8       ??_C@_01KMDKNFGN@?1?$AA@   0007c4b8     libeay32:conf_mod.obj
 0002:0001664c       ??_C@_0O@NFAAPMIG@GENERAL_NAMES?$AA@ 0007c64c     libeay32:v3_genn.obj
 0002:0001665c       ??_C@_0N@JCNPGCGM@GENERAL_NAME?$AA@ 0007c65c     libeay32:v3_genn.obj
 0002:0001666c       ??_C@_0P@KIENIEMD@d?4registeredID?$AA@ 0007c66c     libeay32:v3_genn.obj
 0002:0001667c       ??_C@_0M@PANAALJB@d?4iPAddress?$AA@ 0007c67c     libeay32:v3_genn.obj
 0002:00016688       ??_C@_0BM@CMCMADCA@d?4uniformResourceIdentifier?$AA@ 0007c688     libeay32:v3_genn.obj
 0002:000166a4       ??_C@_0P@OBCPPLOL@d?4ediPartyName?$AA@ 0007c6a4     libeay32:v3_genn.obj
 0002:000166b4       ??_C@_0BA@JLDFBFLN@d?4directoryName?$AA@ 0007c6b4     libeay32:v3_genn.obj
 0002:000166c4       ??_C@_0O@NKHOODFK@d?4x400Address?$AA@ 0007c6c4     libeay32:v3_genn.obj
 0002:000166d4       ??_C@_09HIBJABFB@d?4dNSName?$AA@ 0007c6d4     libeay32:v3_genn.obj
 0002:000166e0       ??_C@_0N@MMCCMIPN@d?4rfc822Name?$AA@ 0007c6e0     libeay32:v3_genn.obj
 0002:000166f0       ??_C@_0M@FGIBMCEL@d?4otherName?$AA@ 0007c6f0     libeay32:v3_genn.obj
 0002:000166fc       ??_C@_0N@GEILLNKP@EDIPARTYNAME?$AA@ 0007c6fc     libeay32:v3_genn.obj
 0002:0001670c       ??_C@_09EHIHAIPF@partyName?$AA@ 0007c70c     libeay32:v3_genn.obj
 0002:00016718       ??_C@_0N@KBFEHHDO@nameAssigner?$AA@ 0007c718     libeay32:v3_genn.obj
 0002:00016728       ??_C@_09MAFAINAH@OTHERNAME?$AA@ 0007c728     libeay32:v3_genn.obj
 0002:00016734       ??_C@_05MFEJDJP@value?$AA@ 0007c734     libeay32:v3_genn.obj
 0002:0001673c       ??_C@_07EEDOJOAA@type_id?$AA@ 0007c73c     libeay32:v3_genn.obj
 0002:000167cc       ??_C@_0BA@JCMMJNEE@X509_EXTENSIONS?$AA@ 0007c7cc     libeay32:x_exten.obj
 0002:000167dc       ??_C@_09KMFOEAAA@Extension?$AA@ 0007c7dc     libeay32:x_exten.obj
 0002:000167e8       ??_C@_0P@OMHBNPIC@X509_EXTENSION?$AA@ 0007c7e8     libeay32:x_exten.obj
 0002:000167f8       ??_C@_08CBBMEOFB@critical?$AA@ 0007c7f8     libeay32:x_exten.obj
 0002:00016808       ??_C@_0EM@NFBEAOGE@d?3?2wm653wehh?2platform?2mvv210?2src@ 0007c808     libeay32:ec_mult.obj
 0002:00016898       ??_C@_09FLJPBFIA@ECDSA_SIG?$AA@ 0007c898     libeay32:ecs_asn1.obj
 0002:000168a4       ??_C@_0BF@DJKLHCAL@OpenSSL?5ECDSA?5method?$AA@ 0007c8a4     libeay32:ecs_ossl.obj
 0002:000168c0       ??_C@_0FA@PJGMNPFB@d?3?2wm653wehh?2platform?2mvv210?2src@ 0007c8c0     libeay32:ecs_ossl.obj
 0002:00016914       ECDH_version               0007c914     libeay32:ech_lib.obj
 0002:00016940       ??_C@_0EO@JGKBLENE@d?3?2wm653wehh?2platform?2mvv210?2src@ 0007c940     libeay32:ech_lib.obj
 0002:000169c8       ??_C@_06CHOIGJDB@BIGNUM?$AA@ 0007c9c8     libeay32:x_bignum.obj
 0002:00016a08       ??_C@_05HIGAPBOG@ZLONG?$AA@ 0007ca08     libeay32:x_long.obj
 0002:00016a10       ??_C@_04KCJFIMMJ@LONG?$AA@ 0007ca10     libeay32:x_long.obj
 0002:00016a18       ??_C@_0EN@OBFIOJLM@d?3?2wm653wehh?2platform?2mvv210?2src@ 0007ca18     libeay32:x_long.obj
 0002:00016a68       ??_C@_04PEDNGLFL@?$CFld?6?$AA@ 0007ca68     libeay32:x_long.obj
 0002:00016a70       ??_C@_0EO@PHDJAHKO@d?3?2wm653wehh?2platform?2mvv210?2src@ 0007ca70     libeay32:dsa_sign.obj
 0002:00016ac0       ??_C@_0BD@IBKHKBJA@OpenSSL?5DSA?5method?$AA@ 0007cac0     libeay32:dsa_ossl.obj
 0002:00016ad8       ??_C@_0EO@MKGDCJCA@d?3?2wm653wehh?2platform?2mvv210?2src@ 0007cad8     libeay32:dsa_ossl.obj
 0002:00016b30       ??_C@_0EM@PNNGIHGB@d?3?2wm653wehh?2platform?2mvv210?2src@ 0007cb30     libeay32:bn_mont.obj
 0002:00017b88       ??_C@_0EO@FBMJEFIA@d?3?2wm653wehh?2platform?2mvv210?2src@ 0007db88     libeay32:rsa_oaep.obj
 0002:00017bd8       SHA1_version               0007dbd8     libeay32:sha1dgst.obj
 0002:00017c00       SHA256_version             0007dc00     libeay32:sha256.obj
 0002:00017d30       SHA512_version             0007dd30     libeay32:sha512.obj
 0002:00018dbc       ??_C@_0M@GJHAMFIP@CMS_Receipt?$AA@ 0007edbc     libeay32:cms_asn1.obj
 0002:00018dc8       ??_C@_0BJ@OPFDHHHB@originatorSignatureValue?$AA@ 0007edc8     libeay32:cms_asn1.obj
 0002:00018de4       ??_C@_0BD@KOFKAGLC@CMS_ReceiptRequest?$AA@ 0007ede4     libeay32:cms_asn1.obj
 0002:00018df8       ??_C@_0L@BBBJMFCF@receiptsTo?$AA@ 0007edf8     libeay32:cms_asn1.obj
 0002:00018e04       ??_C@_0N@CIHGCFJG@receiptsFrom?$AA@ 0007ee04     libeay32:cms_asn1.obj
 0002:00018e14       ??_C@_0BI@BHIBPADG@signedContentIdentifier?$AA@ 0007ee14     libeay32:cms_asn1.obj
 0002:00018e2c       ??_C@_0BB@JKAAKCKP@CMS_ReceiptsFrom?$AA@ 0007ee2c     libeay32:cms_asn1.obj
 0002:00018e40       ??_C@_0O@ECMNNMJA@d?4receiptList?$AA@ 0007ee40     libeay32:cms_asn1.obj
 0002:00018e50       ??_C@_0BB@DENHEDOF@d?4allOrFirstTier?$AA@ 0007ee50     libeay32:cms_asn1.obj
 0002:00018e64       ??_C@_0BG@NLALJKHJ@CMS_Attributes_Verify?$AA@ 0007ee64     libeay32:cms_asn1.obj
 0002:00018e7c       ??_C@_0BE@PAHMALPK@CMS_Attributes_Sign?$AA@ 0007ee7c     libeay32:cms_asn1.obj
 0002:00018e90       ??_C@_0P@KAJKPCJH@CMS_ATTRIBUTES?$AA@ 0007ee90     libeay32:cms_asn1.obj
 0002:00018ea0       ??_C@_0BA@ECDDPOHH@CMS_ContentInfo?$AA@ 0007eea0     libeay32:cms_asn1.obj
 0002:00018eb0       ??_C@_0BB@NELCELCK@d?4compressedData?$AA@ 0007eeb0     libeay32:cms_asn1.obj
 0002:00018ec4       ??_C@_0BE@NPCJHPOJ@d?4authenticatedData?$AA@ 0007eec4     libeay32:cms_asn1.obj
 0002:00018ed8       ??_C@_0BA@HJCBJEH@d?4encryptedData?$AA@ 0007eed8     libeay32:cms_asn1.obj
 0002:00018ee8       ??_C@_0P@HJCJOBOP@d?4digestedData?$AA@ 0007eee8     libeay32:cms_asn1.obj
 0002:00018ef8       ??_C@_0BA@CCFAJLBF@d?4envelopedData?$AA@ 0007eef8     libeay32:cms_asn1.obj
 0002:00018f08       ??_C@_0N@DDIMJOHE@d?4signedData?$AA@ 0007ef08     libeay32:cms_asn1.obj
 0002:00018f18       ??_C@_06OAPKPHLA@d?4data?$AA@ 0007ef18     libeay32:cms_asn1.obj
 0002:00018f20       ??_C@_0BD@IAIGGNCI@CMS_CompressedData?$AA@ 0007ef20     libeay32:cms_asn1.obj
 0002:00018f34       ??_C@_0BF@PNIPCJJ@compressionAlgorithm?$AA@ 0007ef34     libeay32:cms_asn1.obj
 0002:00018f4c       ??_C@_0BG@DOMHNMEC@CMS_AuthenticatedData?$AA@ 0007ef4c     libeay32:cms_asn1.obj
 0002:00018f64       ??_C@_0M@FBFPDIHA@unauthAttrs?$AA@ 0007ef64     libeay32:cms_asn1.obj
 0002:00018f70       ??_C@_03BADCJGEO@mac?$AA@  0007ef70     libeay32:cms_asn1.obj
 0002:00018f74       ??_C@_09HHELNNLD@authAttrs?$AA@ 0007ef74     libeay32:cms_asn1.obj
 0002:00018f80       ??_C@_0N@PGIFJMM@macAlgorithm?$AA@ 0007ef80     libeay32:cms_asn1.obj
 0002:00018f90       ??_C@_0BC@ONODDCLB@CMS_EncryptedData?$AA@ 0007ef90     libeay32:cms_asn1.obj
 0002:00018fa4       ??_C@_0BB@NNEFCOGL@CMS_DigestedData?$AA@ 0007efa4     libeay32:cms_asn1.obj
 0002:00018fb8       ??_C@_0BC@MICBLAOD@CMS_EnvelopedData?$AA@ 0007efb8     libeay32:cms_asn1.obj
 0002:00018fcc       ??_C@_0BB@JCNJKAMK@unprotectedAttrs?$AA@ 0007efcc     libeay32:cms_asn1.obj
 0002:00018fe0       ??_C@_0BF@OHLPJHAO@encryptedContentInfo?$AA@ 0007efe0     libeay32:cms_asn1.obj
 0002:00018ff8       ??_C@_0P@MHKJPFAE@recipientInfos?$AA@ 0007eff8     libeay32:cms_asn1.obj
 0002:00019008       ??_C@_0P@HMLDCEHI@originatorInfo?$AA@ 0007f008     libeay32:cms_asn1.obj
 0002:00019018       ??_C@_0BC@OIOGGOHC@CMS_RecipientInfo?$AA@ 0007f018     libeay32:cms_asn1.obj
 0002:0001902c       ??_C@_05CDKGAJPA@d?4ori?$AA@ 0007f02c     libeay32:cms_asn1.obj
 0002:00019034       ??_C@_06MMLMDIAL@d?4pwri?$AA@ 0007f034     libeay32:cms_asn1.obj
 0002:0001903c       ??_C@_07GNHCNHGA@d?4kekri?$AA@ 0007f03c     libeay32:cms_asn1.obj
 0002:00019044       ??_C@_06KOPOJGNL@d?4kari?$AA@ 0007f044     libeay32:cms_asn1.obj
 0002:0001904c       ??_C@_06MJDJDBHG@d?4ktri?$AA@ 0007f04c     libeay32:cms_asn1.obj
 0002:00019054       ??_C@_0BH@ELFPNLNE@CMS_OtherRecipientInfo?$AA@ 0007f054     libeay32:cms_asn1.obj
 0002:0001906c       ??_C@_08CPLCPCAK@oriValue?$AA@ 0007f06c     libeay32:cms_asn1.obj
 0002:00019078       ??_C@_07FAMFHMLO@oriType?$AA@ 0007f078     libeay32:cms_asn1.obj
 0002:00019080       ??_C@_0BK@KBPCOALF@CMS_PasswordRecipientInfo?$AA@ 0007f080     libeay32:cms_asn1.obj
 0002:0001909c       ??_C@_0BH@OGDBOKG@keyDerivationAlgorithm?$AA@ 0007f09c     libeay32:cms_asn1.obj
 0002:000190b4       ??_C@_0BF@NBHFGDNK@CMS_KEKRecipientInfo?$AA@ 0007f0b4     libeay32:cms_asn1.obj
 0002:000190cc       ??_C@_05NHGMHHPG@kekid?$AA@ 0007f0cc     libeay32:cms_asn1.obj
 0002:000190d4       ??_C@_0BC@MBEMIKEG@CMS_KEKIdentifier?$AA@ 0007f0d4     libeay32:cms_asn1.obj
 0002:000190e8       ??_C@_0O@NFJHJHKH@keyIdentifier?$AA@ 0007f0e8     libeay32:cms_asn1.obj
 0002:000190f8       ??_C@_0BK@FMJLFKK@CMS_KeyAgreeRecipientInfo?$AA@ 0007f0f8     libeay32:cms_asn1.obj
 0002:00019114       ??_C@_0BH@PJIHPFGD@recipientEncryptedKeys?$AA@ 0007f114     libeay32:cms_asn1.obj
 0002:0001912c       ??_C@_03BGILEBGG@ukm?$AA@  0007f12c     libeay32:cms_asn1.obj
 0002:00019130       ??_C@_0L@LNFLHOFG@originator?$AA@ 0007f130     libeay32:cms_asn1.obj
 0002:0001913c       ??_C@_0BO@EGGGKLC@CMS_OriginatorIdentifierOrKey?$AA@ 0007f13c     libeay32:cms_asn1.obj
 0002:0001915c       ??_C@_0BA@GMAGEPIK@d?4originatorKey?$AA@ 0007f15c     libeay32:cms_asn1.obj
 0002:0001916c       ??_C@_0BI@BANGJHOF@CMS_OriginatorPublicKey?$AA@ 0007f16c     libeay32:cms_asn1.obj
 0002:00019184       ??_C@_09IDENFCJL@publicKey?$AA@ 0007f184     libeay32:cms_asn1.obj
 0002:00019190       ??_C@_0BK@PEPAIBDP@CMS_RecipientEncryptedKey?$AA@ 0007f190     libeay32:cms_asn1.obj
 0002:000191ac       ??_C@_0CA@LLLOPIGI@CMS_KeyAgreeRecipientIdentifier?$AA@ 0007f1ac     libeay32:cms_asn1.obj
 0002:000191cc       ??_C@_08NDNCHPPH@d?4rKeyId?$AA@ 0007f1cc     libeay32:cms_asn1.obj
 0002:000191d8       ??_C@_0BL@KIFNEPBG@CMS_RecipientKeyIdentifier?$AA@ 0007f1d8     libeay32:cms_asn1.obj
 0002:000191f4       ??_C@_05BGEKGIIP@other?$AA@ 0007f1f4     libeay32:cms_asn1.obj
 0002:000191fc       ??_C@_04JNIHBGGH@date?$AA@ 0007f1fc     libeay32:cms_asn1.obj
 0002:00019204       ??_C@_0BG@MPKMCLOF@CMS_OtherKeyAttribute?$AA@ 0007f204     libeay32:cms_asn1.obj
 0002:0001921c       ??_C@_07CNMADOPK@keyAttr?$AA@ 0007f21c     libeay32:cms_asn1.obj
 0002:00019224       ??_C@_09FBOICBLA@keyAttrId?$AA@ 0007f224     libeay32:cms_asn1.obj
 0002:00019230       ??_C@_0BK@JKNAJMBM@CMS_KeyTransRecipientInfo?$AA@ 0007f230     libeay32:cms_asn1.obj
 0002:0001924c       ??_C@_0N@DJLGIBLA@encryptedKey?$AA@ 0007f24c     libeay32:cms_asn1.obj
 0002:0001925c       ??_C@_0BH@NBKKPKMP@keyEncryptionAlgorithm?$AA@ 0007f25c     libeay32:cms_asn1.obj
 0002:00019274       ??_C@_03FJBKBGPI@rid?$AA@  0007f274     libeay32:cms_asn1.obj
 0002:00019278       ??_C@_0BJ@IHPALOIM@CMS_EncryptedContentInfo?$AA@ 0007f278     libeay32:cms_asn1.obj
 0002:00019294       ??_C@_0BB@HAOJNDCF@encryptedContent?$AA@ 0007f294     libeay32:cms_asn1.obj
 0002:000192a8       ??_C@_0BL@JFGGCGJK@contentEncryptionAlgorithm?$AA@ 0007f2a8     libeay32:cms_asn1.obj
 0002:000192c4       ??_C@_0BD@BOLANDH@CMS_OriginatorInfo?$AA@ 0007f2c4     libeay32:cms_asn1.obj
 0002:000192d8       ??_C@_0P@IFJHOEIE@CMS_SignedData?$AA@ 0007f2d8     libeay32:cms_asn1.obj
 0002:000192e8       ??_C@_0M@OPIAHELE@signerInfos?$AA@ 0007f2e8     libeay32:cms_asn1.obj
 0002:000192f4       ??_C@_04GDKGHFBJ@crls?$AA@ 0007f2f4     libeay32:cms_asn1.obj
 0002:000192fc       ??_C@_0N@NGKEHKOM@certificates?$AA@ 0007f2fc     libeay32:cms_asn1.obj
 0002:0001930c       ??_C@_0BB@EFFJPOAL@encapContentInfo?$AA@ 0007f30c     libeay32:cms_asn1.obj
 0002:00019320       ??_C@_0BB@CMPBPEDI@digestAlgorithms?$AA@ 0007f320     libeay32:cms_asn1.obj
 0002:00019334       ??_C@_0BJ@MJACOINL@CMS_RevocationInfoChoice?$AA@ 0007f334     libeay32:cms_asn1.obj
 0002:00019350       ??_C@_05BEAHECAN@d?4crl?$AA@ 0007f350     libeay32:cms_asn1.obj
 0002:00019358       ??_C@_0BO@ONAFHMMC@CMS_OtherRevocationInfoFormat?$AA@ 0007f358     libeay32:cms_asn1.obj
 0002:00019378       ??_C@_0N@MOBLFMFA@otherRevInfo?$AA@ 0007f378     libeay32:cms_asn1.obj
 0002:00019388       ??_C@_0BD@HLCFDNLB@otherRevInfoFormat?$AA@ 0007f388     libeay32:cms_asn1.obj
 0002:0001939c       ??_C@_0P@HBMKILHF@CMS_SignerInfo?$AA@ 0007f39c     libeay32:cms_asn1.obj
 0002:000193ac       ??_C@_0O@PDNEMLFH@unsignedAttrs?$AA@ 0007f3ac     libeay32:cms_asn1.obj
 0002:000193bc       ??_C@_09CMIIOJHF@signature?$AA@ 0007f3bc     libeay32:cms_asn1.obj
 0002:000193c8       ??_C@_0BD@CBMBFDMH@signatureAlgorithm?$AA@ 0007f3c8     libeay32:cms_asn1.obj
 0002:000193dc       ??_C@_0M@MDGDHPDJ@signedAttrs?$AA@ 0007f3dc     libeay32:cms_asn1.obj
 0002:000193e8       ??_C@_0BA@OBGGJDDI@digestAlgorithm?$AA@ 0007f3e8     libeay32:cms_asn1.obj
 0002:000193f8       ??_C@_03OBKGHBJN@sid?$AA@  0007f3f8     libeay32:cms_asn1.obj
 0002:000193fc       ??_C@_0BM@FGCJFMKP@CMS_EncapsulatedContentInfo?$AA@ 0007f3fc     libeay32:cms_asn1.obj
 0002:00019418       ??_C@_08OOKAKDHE@eContent?$AA@ 0007f418     libeay32:cms_asn1.obj
 0002:00019424       ??_C@_0N@EBAJNGML@eContentType?$AA@ 0007f424     libeay32:cms_asn1.obj
 0002:00019434       ??_C@_0BF@HIKDPBH@CMS_SignerIdentifier?$AA@ 0007f434     libeay32:cms_asn1.obj
 0002:0001944c       ??_C@_0BH@LJLJDHKP@d?4subjectKeyIdentifier?$AA@ 0007f44c     libeay32:cms_asn1.obj
 0002:00019464       ??_C@_0BI@DNGDMGHK@d?4issuerAndSerialNumber?$AA@ 0007f464     libeay32:cms_asn1.obj
 0002:0001947c       ??_C@_0BH@CFNIJMB@CMS_CertificateChoices?$AA@ 0007f47c     libeay32:cms_asn1.obj
 0002:00019494       ??_C@_07JIJPKMF@d?4other?$AA@ 0007f494     libeay32:cms_asn1.obj
 0002:0001949c       ??_C@_0N@FODDOFO@d?4v2AttrCert?$AA@ 0007f49c     libeay32:cms_asn1.obj
 0002:000194ac       ??_C@_0N@OONEIFFN@d?4v1AttrCert?$AA@ 0007f4ac     libeay32:cms_asn1.obj
 0002:000194bc       ??_C@_0BG@NLAONGA@d?4extendedCertificate?$AA@ 0007f4bc     libeay32:cms_asn1.obj
 0002:000194d4       ??_C@_0O@MNFCNMPJ@d?4certificate?$AA@ 0007f4d4     libeay32:cms_asn1.obj
 0002:000194e4       ??_C@_0BL@CACJFKMB@CMS_OtherCertificateFormat?$AA@ 0007f4e4     libeay32:cms_asn1.obj
 0002:00019500       ??_C@_09CDBALEP@otherCert?$AA@ 0007f500     libeay32:cms_asn1.obj
 0002:0001950c       ??_C@_0BA@FEKMLOFK@otherCertFormat?$AA@ 0007f50c     libeay32:cms_asn1.obj
 0002:0001951c       ??_C@_0BK@GLMHLHML@CMS_IssuerAndSerialNumber?$AA@ 0007f51c     libeay32:cms_asn1.obj
 0002:00019538       ??_C@_06EAINIONG@issuer?$AA@ 0007f538     libeay32:cms_asn1.obj
 0002:00019540       ??_C@_0EN@MLHPIIH@d?3?2wm653wehh?2platform?2mvv210?2src@ 0007f540     libeay32:cms_lib.obj
 0002:00019590       ??_C@_0EN@CBCEBCDK@d?3?2wm653wehh?2platform?2mvv210?2src@ 0007f590     libeay32:cms_enc.obj
 0002:000195e0       ??_C@_0EM@PJNFBCEL@d?3?2wm653wehh?2platform?2mvv210?2src@ 0007f5e0     libeay32:cms_sd.obj
 0002:00019658       ??_C@_0O@MABGKINF@timestampsign?$AA@ 0007f658     libeay32:v3_purp.obj
 0002:00019668       ??_C@_0BD@HLGKGIIB@Time?5Stamp?5signing?$AA@ 0007f668     libeay32:v3_purp.obj
 0002:0001967c       ??_C@_0L@IMHCEJBK@ocsphelper?$AA@ 0007f67c     libeay32:v3_purp.obj
 0002:00019688       ??_C@_0M@NEPIMEJA@OCSP?5helper?$AA@ 0007f688     libeay32:v3_purp.obj
 0002:00019694       ??_C@_03OBJFJEBA@any?$AA@  0007f694     libeay32:v3_purp.obj
 0002:00019698       ??_C@_0M@NMNFLNDB@Any?5Purpose?$AA@ 0007f698     libeay32:v3_purp.obj
 0002:000196a4       ??_C@_07IOMCDAPH@crlsign?$AA@ 0007f6a4     libeay32:v3_purp.obj
 0002:000196ac       ??_C@_0M@MEKLJHLA@CRL?5signing?$AA@ 0007f6ac     libeay32:v3_purp.obj
 0002:000196b8       ??_C@_0N@BPFJELMP@smimeencrypt?$AA@ 0007f6b8     libeay32:v3_purp.obj
 0002:000196c8       ??_C@_0BC@DOGNOPGC@S?1MIME?5encryption?$AA@ 0007f6c8     libeay32:v3_purp.obj
 0002:000196dc       ??_C@_09JPGBHOKH@smimesign?$AA@ 0007f6dc     libeay32:v3_purp.obj
 0002:000196e8       ??_C@_0P@LNDEBCCO@S?1MIME?5signing?$AA@ 0007f6e8     libeay32:v3_purp.obj
 0002:000196f8       ??_C@_0M@GKHHMMAE@nssslserver?$AA@ 0007f6f8     libeay32:v3_purp.obj
 0002:00019704       ??_C@_0BE@BPEJPGJG@Netscape?5SSL?5server?$AA@ 0007f704     libeay32:v3_purp.obj
 0002:00019718       ??_C@_09FEILOJPJ@sslserver?$AA@ 0007f718     libeay32:v3_purp.obj
 0002:00019724       ??_C@_0L@PNDNFADH@SSL?5server?$AA@ 0007f724     libeay32:v3_purp.obj
 0002:00019730       ??_C@_09BLMJDCHK@sslclient?$AA@ 0007f730     libeay32:v3_purp.obj
 0002:0001973c       ??_C@_0L@LCHPILLE@SSL?5client?$AA@ 0007f73c     libeay32:v3_purp.obj
 0002:00019748       ??_C@_0FA@EPMAEJOB@d?3?2wm653wehh?2platform?2mvv210?2src@ 0007f748     libeay32:v3_purp.obj
 0002:00019798       ??_C@_0EO@PHNCOBFO@d?3?2wm653wehh?2platform?2mvv210?2src@ 0007f798     libeay32:pmeth_fn.obj
 0002:000197f0       AES_version                0007f7f0     libeay32:aes_misc.obj
 0002:00019818       ??_C@_0EO@LKMDOFNL@d?3?2wm653wehh?2platform?2mvv210?2src@ 0007f818     libeay32:cms_pwri.obj
 0002:00019868       ??_C@_0BI@NFPKAKEA@Eric?5Young?8s?5PKCS?$CD1?5RSA?$AA@ 0007f868     libeay32:rsa_eay.obj
 0002:00019880       ??_C@_0EN@FLFPHDGA@d?3?2wm653wehh?2platform?2mvv210?2src@ 0007f880     libeay32:rsa_eay.obj
 0002:000198d8       cmac_asn1_meth             0007f8d8     libeay32:cm_ameth.obj
 0002:00019944       ??_C@_0BE@GBIGMENL@OpenSSL?5CMAC?5method?$AA@ 0007f944     libeay32:cm_ameth.obj
 0002:00019958       hmac_asn1_meth             0007f958     libeay32:hm_ameth.obj
 0002:000199c4       ??_C@_0BE@BABEGANF@OpenSSL?5HMAC?5method?$AA@ 0007f9c4     libeay32:hm_ameth.obj
 0002:000199d8       ??_C@_0EP@LPMJCFIA@d?3?2wm653wehh?2platform?2mvv210?2src@ 0007f9d8     libeay32:hm_ameth.obj
 0002:00019a28       eckey_asn1_meth            0007fa28     libeay32:ec_ameth.obj
 0002:00019a94       ??_C@_0BF@DKDIFOGG@OpenSSL?5EC?5algorithm?$AA@ 0007fa94     libeay32:ec_ameth.obj
 0002:00019aac       ??_C@_02KNLLHFAA@EC?$AA@   0007faac     libeay32:ec_ameth.obj
 0002:00019ab0       ??_C@_0EN@OGHGAGHH@d?3?2wm653wehh?2platform?2mvv210?2src@ 0007fab0     libeay32:ec_ameth.obj
 0002:00019b00       ??_C@_05FJHKEHEO@pub?3?5?$AA@ 0007fb00     libeay32:ec_ameth.obj
 0002:00019b08       ??_C@_05PFPGJCCA@priv?3?$AA@ 0007fb08     libeay32:ec_ameth.obj
 0002:00019b10       ??_C@_0O@OPPPNLCD@?$CFs?3?5?$CI?$CFd?5bit?$CJ?6?$AA@ 0007fb10     libeay32:ec_ameth.obj
 0002:00019b20       ??_C@_0BB@DMDKLH@ECDSA?9Parameters?$AA@ 0007fb20     libeay32:ec_ameth.obj
 0002:00019b34       ??_C@_0L@FMJMEKAC@Public?9Key?$AA@ 0007fb34     libeay32:ec_ameth.obj
 0002:00019b40       ??_C@_0M@CJKOCIEC@Private?9Key?$AA@ 0007fb40     libeay32:ec_ameth.obj
 0002:00019b50       dsa_asn1_meths             0007fb50     libeay32:dsa_ameth.obj
 0002:00019d70       ??_C@_0EP@BEDNKKJD@d?3?2wm653wehh?2platform?2mvv210?2src@ 0007fd70     libeay32:dsa_ameth.obj
 0002:00019dc0       ??_C@_05LKAKAJND@G?3?5?5?5?$AA@ 0007fdc0     libeay32:dsa_ameth.obj
 0002:00019dc8       ??_C@_05GPIFOIFF@Q?3?5?5?5?$AA@ 0007fdc8     libeay32:dsa_ameth.obj
 0002:00019dd0       ??_C@_05KENJDLPA@P?3?5?5?5?$AA@ 0007fdd0     libeay32:dsa_ameth.obj
 0002:00019dd8       ??_C@_0P@LAFOADJN@DSA?9Parameters?$AA@ 0007fdd8     libeay32:dsa_ameth.obj
 0002:00019de8       ??_C@_05CFOBEMGI@s?3?5?5?5?$AA@ 0007fde8     libeay32:dsa_ameth.obj
 0002:00019df0       ??_C@_05OOLNJPMN@r?3?5?5?5?$AA@ 0007fdf0     libeay32:dsa_ameth.obj
 0002:00019df8       ??_C@_01EEMJAFIK@?6?$AA@   0007fdf8     libeay32:dsa_ameth.obj
 0002:00019e00       dh_asn1_meth               0007fe00     libeay32:dh_ameth.obj
 0002:00019e6c       ??_C@_0BJ@OPGBMMOB@OpenSSL?5PKCS?$CD3?5DH?5method?$AA@ 0007fe6c     libeay32:dh_ameth.obj
 0002:00019e88       ??_C@_02EPINMGPM@DH?$AA@   0007fe88     libeay32:dh_ameth.obj
 0002:00019e90       ??_C@_0EN@KFNOHMJF@d?3?2wm653wehh?2platform?2mvv210?2src@ 0007fe90     libeay32:dh_ameth.obj
 0002:00019ee0       ??_C@_0CF@KKPEILHE@recommended?9private?9length?3?5?$CFd?5b@ 0007fee0     libeay32:dh_ameth.obj
 0002:00019f08       ??_C@_0L@HDGHCIJF@generator?3?$AA@ 0007ff08     libeay32:dh_ameth.obj
 0002:00019f14       ??_C@_06POMKLBDA@prime?3?$AA@ 0007ff14     libeay32:dh_ameth.obj
 0002:00019f1c       ??_C@_0M@BCALNHOD@public?9key?3?$AA@ 0007ff1c     libeay32:dh_ameth.obj
 0002:00019f28       ??_C@_0N@MPONDEBM@private?9key?3?$AA@ 0007ff28     libeay32:dh_ameth.obj
 0002:00019f38       ??_C@_0BF@HJBOBPFM@PKCS?$CD3?5DH?5Parameters?$AA@ 0007ff38     libeay32:dh_ameth.obj
 0002:00019f50       ??_C@_0BF@NEOAIGKI@PKCS?$CD3?5DH?5Public?9Key?$AA@ 0007ff50     libeay32:dh_ameth.obj
 0002:00019f68       ??_C@_0BG@BPCFBOHI@PKCS?$CD3?5DH?5Private?9Key?$AA@ 0007ff68     libeay32:dh_ameth.obj
 0002:00019f80       rsa_asn1_meths             0007ff80     libeay32:rsa_ameth.obj
 0002:0001a058       ??_C@_0BD@MHOEKPBI@OpenSSL?5RSA?5method?$AA@ 00080058     libeay32:rsa_ameth.obj
 0002:0001a070       ??_C@_0EP@ECKOLFPF@d?3?2wm653wehh?2platform?2mvv210?2src@ 00080070     libeay32:rsa_ameth.obj
 0002:0001a0c0       ??_C@_0N@GNAMJPHF@coefficient?3?$AA@ 000800c0     libeay32:rsa_ameth.obj
 0002:0001a0d0       ??_C@_0L@OKKEHIPG@exponent2?3?$AA@ 000800d0     libeay32:rsa_ameth.obj
 0002:0001a0dc       ??_C@_0L@OIOCMGKP@exponent1?3?$AA@ 000800dc     libeay32:rsa_ameth.obj
 0002:0001a0e8       ??_C@_07NJNHFNM@prime2?3?$AA@ 000800e8     libeay32:rsa_ameth.obj
 0002:0001a0f0       ??_C@_07PNLMLIF@prime1?3?$AA@ 000800f0     libeay32:rsa_ameth.obj
 0002:0001a0f8       ??_C@_0BB@NFOLHHHJ@privateExponent?3?$AA@ 000800f8     libeay32:rsa_ameth.obj
 0002:0001a10c       ??_C@_08GIMLILAA@Modulus?3?$AA@ 0008010c     libeay32:rsa_ameth.obj
 0002:0001a118       ??_C@_09DALHJPOO@Exponent?3?$AA@ 00080118     libeay32:rsa_ameth.obj
 0002:0001a124       ??_C@_0BG@HAJOCCOP@Public?9Key?3?5?$CI?$CFd?5bit?$CJ?6?$AA@ 00080124     libeay32:rsa_ameth.obj
 0002:0001a13c       ??_C@_08OKDKAJKD@modulus?3?$AA@ 0008013c     libeay32:rsa_ameth.obj
 0002:0001a148       ??_C@_0BA@FAAMOFHC@publicExponent?3?$AA@ 00080148     libeay32:rsa_ameth.obj
 0002:0001a158       ??_C@_0BH@JHLDJION@Private?9Key?3?5?$CI?$CFd?5bit?$CJ?6?$AA@ 00080158     libeay32:rsa_ameth.obj
 0002:0001a170       ??_C@_0P@DDPOEOJA@0xbc?5?$CIdefault?$CJ?$AA@ 00080170     libeay32:rsa_ameth.obj
 0002:0001a180       ??_C@_0BA@LIMPMLCB@Trailer?5Field?3?5?$AA@ 00080180     libeay32:rsa_ameth.obj
 0002:0001a190       ??_C@_0N@LMKHLINK@20?5?$CIdefault?$CJ?$AA@ 00080190     libeay32:rsa_ameth.obj
 0002:0001a1a0       ??_C@_0O@KKNIODBM@Salt?5Length?3?5?$AA@ 000801a0     libeay32:rsa_ameth.obj
 0002:0001a1b0       ??_C@_0BJ@NNFOENLD@mgf1?5with?5sha1?5?$CIdefault?$CJ?$AA@ 000801b0     libeay32:rsa_ameth.obj
 0002:0001a1cc       ??_C@_07DNODLGKM@INVALID?$AA@ 000801cc     libeay32:rsa_ameth.obj
 0002:0001a1d4       ??_C@_06BIDGLIKJ@?5with?5?$AA@ 000801d4     libeay32:rsa_ameth.obj
 0002:0001a1dc       ??_C@_0BB@HEAMLCPA@Mask?5Algorithm?3?5?$AA@ 000801dc     libeay32:rsa_ameth.obj
 0002:0001a1f0       ??_C@_0P@ODEAMLKF@sha1?5?$CIdefault?$CJ?$AA@ 000801f0     libeay32:rsa_ameth.obj
 0002:0001a200       ??_C@_0BB@PMMDHLKH@Hash?5Algorithm?3?5?$AA@ 00080200     libeay32:rsa_ameth.obj
 0002:0001a214       ??_C@_0BL@KMBKPBGM@?5?$CIINVALID?5PSS?5PARAMETERS?$CJ?6?$AA@ 00080214     libeay32:rsa_ameth.obj
 0002:0001a230       ??_C@_0EM@LKCJBLMG@d?3?2wm653wehh?2platform?2mvv210?2src@ 00080230     libeay32:bn_recp.obj
 0002:0001a330       ??_C@_0M@DPMJHKGH@PBKDF2PARAM?$AA@ 00080330     libeay32:p5_pbev2.obj
 0002:0001a33c       ??_C@_03NBFGPAGA@prf?$AA@  0008033c     libeay32:p5_pbev2.obj
 0002:0001a340       ??_C@_09PKJJLJJD@keylength?$AA@ 00080340     libeay32:p5_pbev2.obj
 0002:0001a34c       ??_C@_04BKLHDIKK@iter?$AA@ 0008034c     libeay32:p5_pbev2.obj
 0002:0001a354       ??_C@_04OKLIMCN@salt?$AA@  00080354     libeay32:p5_pbev2.obj
 0002:0001a35c       ??_C@_09DHBCCKCK@PBE2PARAM?$AA@ 0008035c     libeay32:p5_pbev2.obj
 0002:0001a368       ??_C@_0L@HBBFMHKN@encryption?$AA@ 00080368     libeay32:p5_pbev2.obj
 0002:0001a374       ??_C@_07KEPFKPDN@keyfunc?$AA@ 00080374     libeay32:p5_pbev2.obj
 0002:0001a3c0       ??_C@_08CKLJFNPB@PBEPARAM?$AA@ 000803c0     libeay32:p5_pbe.obj
 0002:0001a3d0       ??_C@_0FA@NBNNIDCA@d?3?2wm653wehh?2platform?2mvv210?2src@ 000803d0     libeay32:p12_key.obj
 0002:0001a420       ??_C@_0FC@NLMGEGGH@d?3?2wm653wehh?2platform?2mvv210?2src@ 00080420     libeay32:tb_cipher.obj
 0002:0001a4b8       x509_name_ff               000804b8     libeay32:x_name.obj
 0002:0001a550       ??_C@_09KGNJKBNF@X509_NAME?$AA@ 00080550     libeay32:x_name.obj
 0002:0001a55c       ??_C@_0BD@FDNDONGH@X509_NAME_INTERNAL?$AA@ 0008055c     libeay32:x_name.obj
 0002:0001a570       ??_C@_04FABLJDN@Name?$AA@  00080570     libeay32:x_name.obj
 0002:0001a578       ??_C@_0BC@GJMCELDI@X509_NAME_ENTRIES?$AA@ 00080578     libeay32:x_name.obj
 0002:0001a58c       ??_C@_04IEOKPFHO@RDNS?$AA@ 0008058c     libeay32:x_name.obj
 0002:0001a594       ??_C@_0BA@KEPIIMOE@X509_NAME_ENTRY?$AA@ 00080594     libeay32:x_name.obj
 0002:0001a5a8       ??_C@_0EN@KBGECLLO@d?3?2wm653wehh?2platform?2mvv210?2src@ 000805a8     libeay32:x_name.obj
 0002:0001a774       ??_C@_07DLHCIBDH@default?$AA@ 00080774     libeay32:a_strnid.obj
 0002:0001a780       v3_alt                     00080780     libeay32:v3_alt.obj
 0002:0001a828       ??_C@_0O@KAIENCPE@Registered?5ID?$AA@ 00080828     libeay32:v3_alt.obj
 0002:0001a838       ??_C@_09DPMBDOD@?$DMinvalid?$DO?$AA@ 00080838     libeay32:v3_alt.obj
 0002:0001a844       ??_C@_0L@NGHMMCPJ@IP?5Address?$AA@ 00080844     libeay32:v3_alt.obj
 0002:0001a850       ??_C@_01JLIPDDHJ@?3?$AA@   00080850     libeay32:v3_alt.obj
 0002:0001a854       ??_C@_02EMFKHFLK@?$CFX?$AA@ 00080854     libeay32:v3_alt.obj
 0002:0001a858       ??_C@_07FDBCPIKC@DirName?$AA@ 00080858     libeay32:v3_alt.obj
 0002:0001a860       ??_C@_03GMOLNBOB@URI?$AA@  00080860     libeay32:v3_alt.obj
 0002:0001a864       ??_C@_03CBFPEBNE@DNS?$AA@  00080864     libeay32:v3_alt.obj
 0002:0001a868       ??_C@_05HKHCDHCL@email?$AA@ 00080868     libeay32:v3_alt.obj
 0002:0001a870       ??_C@_0N@EEELPIKD@EdiPartyName?$AA@ 00080870     libeay32:v3_alt.obj
 0002:0001a880       ??_C@_08EBDOEGJI@X400Name?$AA@ 00080880     libeay32:v3_alt.obj
 0002:0001a88c       ??_C@_0O@NHCJKCDC@?$DMunsupported?$DO?$AA@ 0008088c     libeay32:v3_alt.obj
 0002:0001a89c       ??_C@_09PAKBLAPA@othername?$AA@ 0008089c     libeay32:v3_alt.obj
 0002:0001a8a8       ??_C@_0BF@JMMIKJMP@IP?5Address?3?$DMinvalid?$DO?$AA@ 000808a8     libeay32:v3_alt.obj
 0002:0001a8c0       ??_C@_03NMJGLHB@?3?$CFX?$AA@ 000808c0     libeay32:v3_alt.obj
 0002:0001a8c4       ??_C@_0BH@OAMIHBGI@IP?5Address?3?$CFd?4?$CFd?4?$CFd?4?$CFd?$AA@ 000808c4     libeay32:v3_alt.obj
 0002:0001a8dc       ??_C@_09JDCPLDLD@DirName?3?5?$AA@ 000808dc     libeay32:v3_alt.obj
 0002:0001a8e8       ??_C@_06KCNJMDKO@URI?3?$CFs?$AA@ 000808e8     libeay32:v3_alt.obj
 0002:0001a8f0       ??_C@_06DNDEBJBH@DNS?3?$CFs?$AA@ 000808f0     libeay32:v3_alt.obj
 0002:0001a8f8       ??_C@_08LPBGKPKE@email?3?$CFs?$AA@ 000808f8     libeay32:v3_alt.obj
 0002:0001a904       ??_C@_0BL@HEOLJEB@EdiPartyName?3?$DMunsupported?$DO?$AA@ 00080904     libeay32:v3_alt.obj
 0002:0001a920       ??_C@_0BH@HDOLFIDG@X400Name?3?$DMunsupported?$DO?$AA@ 00080920     libeay32:v3_alt.obj
 0002:0001a938       ??_C@_0BI@PGFKPDEJ@othername?3?$DMunsupported?$DO?$AA@ 00080938     libeay32:v3_alt.obj
 0002:0001a950       ??_C@_0EP@GIOEMKKC@d?3?2wm653wehh?2platform?2mvv210?2src@ 00080950     libeay32:v3_alt.obj
 0002:0001a9a0       ??_C@_08LNPIPPMM@section?$DN?$AA@ 000809a0     libeay32:v3_alt.obj
 0002:0001a9ac       ??_C@_09DBGAJPPE@otherName?$AA@ 000809ac     libeay32:v3_alt.obj
 0002:0001a9b8       ??_C@_07KKGEJKPE@dirName?$AA@ 000809b8     libeay32:v3_alt.obj
 0002:0001a9c0       ??_C@_02MFEOMNPG@IP?$AA@   000809c0     libeay32:v3_alt.obj
 0002:0001a9c4       ??_C@_03FEOBNLIE@RID?$AA@  000809c4     libeay32:v3_alt.obj
 0002:0001a9c8       ??_C@_04COAGEIMF@copy?$AA@ 000809c8     libeay32:v3_alt.obj
 0002:0001a9d0       ??_C@_04HDMMNHEL@move?$AA@ 000809d0     libeay32:v3_alt.obj
 0002:0001a9d8       ??_C@_0EN@IDEDPOKO@d?3?2wm653wehh?2platform?2mvv210?2src@ 000809d8     libeay32:dso_lib.obj
 0002:0001aa28       CONF_version               00080a28     libeay32:conf_lib.obj
 0002:0001aa50       ??_C@_0EP@PNEKGEFM@d?3?2wm653wehh?2platform?2mvv210?2src@ 00080a50     libeay32:conf_lib.obj
 0002:0001aaa0       ??_C@_06NGDKEHGB@?5name?$DN?$AA@ 00080aa0     libeay32:conf_lib.obj
 0002:0001aaa8       ??_C@_06BDPCGOPM@group?$DN?$AA@ 00080aa8     libeay32:conf_lib.obj
 0002:0001aab0       ??_C@_02JDPG@rb?$AA@       00080ab0     libeay32:conf_lib.obj
 0002:0001aac8       ??_C@_0EP@ELMNNBNC@d?3?2wm653wehh?2platform?2mvv210?2src@ 00080ac8     libeay32:x509_obj.obj
 0002:0001ab18       ??_C@_0N@MJCHLFGM@NO?5X509_NAME?$AA@ 00080b18     libeay32:x509_obj.obj
 0002:0001ab84       ??_C@_0M@INJPOKDH@X509_PUBKEY?$AA@ 00080b84     libeay32:x_pubkey.obj
 0002:0001ab90       ??_C@_0L@PJCANJEE@public_key?$AA@ 00080b90     libeay32:x_pubkey.obj
 0002:0001aba0       ??_C@_0EP@OKMPOBJE@d?3?2wm653wehh?2platform?2mvv210?2src@ 00080ba0     libeay32:x_pubkey.obj
 0002:0001acb4       v3_idp                     00080cb4     libeay32:v3_crld.obj
 0002:0001acec       v3_freshest_crl            00080cec     libeay32:v3_crld.obj
 0002:0001ad24       v3_crld                    00080d24     libeay32:v3_crld.obj
 0002:0001ae88       ??_C@_0BD@ENBCPHJ@ISSUING_DIST_POINT?$AA@ 00080e88     libeay32:v3_crld.obj
 0002:0001ae9c       ??_C@_08DBIINPPL@onlyattr?$AA@ 00080e9c     libeay32:v3_crld.obj
 0002:0001aea8       ??_C@_0M@BECDICJC@indirectCRL?$AA@ 00080ea8     libeay32:v3_crld.obj
 0002:0001aeb4       ??_C@_0BA@FNMBIJDN@onlysomereasons?$AA@ 00080eb4     libeay32:v3_crld.obj
 0002:0001aec4       ??_C@_06PMNIEKCA@onlyCA?$AA@ 00080ec4     libeay32:v3_crld.obj
 0002:0001aecc       ??_C@_08CENLBPEH@onlyuser?$AA@ 00080ecc     libeay32:v3_crld.obj
 0002:0001aed8       ??_C@_0BA@BBHAIMOE@CRL_DIST_POINTS?$AA@ 00080ed8     libeay32:v3_crld.obj
 0002:0001aee8       ??_C@_0BG@CHNNADAE@CRLDistributionPoints?$AA@ 00080ee8     libeay32:v3_crld.obj
 0002:0001af00       ??_C@_0L@ELIKPJIH@DIST_POINT?$AA@ 00080f00     libeay32:v3_crld.obj
 0002:0001af0c       ??_C@_09GJHADLCP@CRLissuer?$AA@ 00080f0c     libeay32:v3_crld.obj
 0002:0001af18       ??_C@_07PFOCLIJD@reasons?$AA@ 00080f18     libeay32:v3_crld.obj
 0002:0001af20       ??_C@_09FBDFGJDL@distpoint?$AA@ 00080f20     libeay32:v3_crld.obj
 0002:0001af2c       ??_C@_0BA@MLHIPLLG@DIST_POINT_NAME?$AA@ 00080f2c     libeay32:v3_crld.obj
 0002:0001af3c       ??_C@_0BC@JDMJBKME@name?4relativename?$AA@ 00080f3c     libeay32:v3_crld.obj
 0002:0001af50       ??_C@_0O@HJHJCLAE@name?4fullname?$AA@ 00080f50     libeay32:v3_crld.obj
 0002:0001af60       ??_C@_0N@LOIIODKP@AACompromise?$AA@ 00080f60     libeay32:v3_crld.obj
 0002:0001af70       ??_C@_0O@PAGOKAK@AA?5Compromise?$AA@ 00080f70     libeay32:v3_crld.obj
 0002:0001af80       ??_C@_0BD@PBLGJKCE@privilegeWithdrawn?$AA@ 00080f80     libeay32:v3_crld.obj
 0002:0001af94       ??_C@_0BE@FJCCMGMM@Privilege?5Withdrawn?$AA@ 00080f94     libeay32:v3_crld.obj
 0002:0001afa8       ??_C@_0BA@FBHLCNLK@certificateHold?$AA@ 00080fa8     libeay32:v3_crld.obj
 0002:0001afb8       ??_C@_0BB@IPDHDNJD@Certificate?5Hold?$AA@ 00080fb8     libeay32:v3_crld.obj
 0002:0001afcc       ??_C@_0BF@IGJCOPF@cessationOfOperation?$AA@ 00080fcc     libeay32:v3_crld.obj
 0002:0001afe4       ??_C@_0BH@OLCOAMGF@Cessation?5Of?5Operation?$AA@ 00080fe4     libeay32:v3_crld.obj
 0002:0001affc       ??_C@_0L@NHCKNIFL@superseded?$AA@ 00080ffc     libeay32:v3_crld.obj
 0002:0001b008       ??_C@_0L@FBLGFHIM@Superseded?$AA@ 00081008     libeay32:v3_crld.obj
 0002:0001b014       ??_C@_0BD@BNOFAJLL@affiliationChanged?$AA@ 00081014     libeay32:v3_crld.obj
 0002:0001b028       ??_C@_0BE@EECEIFAP@Affiliation?5Changed?$AA@ 00081028     libeay32:v3_crld.obj
 0002:0001b03c       ??_C@_0N@NONEFGOE@CACompromise?$AA@ 0008103c     libeay32:v3_crld.obj
 0002:0001b04c       ??_C@_0O@OOGICOKH@CA?5Compromise?$AA@ 0008104c     libeay32:v3_crld.obj
 0002:0001b05c       ??_C@_0O@MCEAAJLH@keyCompromise?$AA@ 0008105c     libeay32:v3_crld.obj
 0002:0001b06c       ??_C@_0P@JENDIECI@Key?5Compromise?$AA@ 0008106c     libeay32:v3_crld.obj
 0002:0001b07c       ??_C@_06OJAIHGIC@unused?$AA@ 0008107c     libeay32:v3_crld.obj
 0002:0001b084       ??_C@_06CGLFEPBO@Unused?$AA@ 00081084     libeay32:v3_crld.obj
 0002:0001b090       ??_C@_0FA@EFIBGCB@d?3?2wm653wehh?2platform?2mvv210?2src@ 00081090     libeay32:v3_crld.obj
 0002:0001b0e0       ??_C@_08DGFAABGD@?$DMEMPTY?$DO?6?$AA@ 000810e0     libeay32:v3_crld.obj
 0002:0001b0ec       ??_C@_02KEGNLNML@?0?5?$AA@ 000810ec     libeay32:v3_crld.obj
 0002:0001b0f0       ??_C@_0L@NHIBCNGO@?$CF?$CKs?$CFs?3?6?$CF?$CKs?$AA@ 000810f0     libeay32:v3_crld.obj
 0002:0001b0fc       ??_C@_03HIJPJGOM@?$CF?$CKs?$AA@ 000810fc     libeay32:v3_crld.obj
 0002:0001b100       ??_C@_0BG@GIOHENJJ@?$CF?$CKsRelative?5Name?3?6?$CF?$CKs?$AA@ 00081100     libeay32:v3_crld.obj
 0002:0001b118       ??_C@_0P@DKAHDIGH@?$CF?$CKsFull?5Name?3?6?$AA@ 00081118     libeay32:v3_crld.obj
 0002:0001b128       ??_C@_0M@FCFDJGIC@?$CF?$CKs?$DMEMPTY?$DO?6?$AA@ 00081128     libeay32:v3_crld.obj
 0002:0001b134       ??_C@_0CA@IIIJNMJM@?$CF?$CKsOnly?5Attribute?5Certificates?6?$AA@ 00081134     libeay32:v3_crld.obj
 0002:0001b154       ??_C@_0BC@JDEOGEEL@Only?5Some?5Reasons?$AA@ 00081154     libeay32:v3_crld.obj
 0002:0001b168       ??_C@_0BB@FLBIDOKD@?$CF?$CKsIndirect?5CRL?6?$AA@ 00081168     libeay32:v3_crld.obj
 0002:0001b17c       ??_C@_0BJ@GKBBKMLO@?$CF?$CKsOnly?5CA?5Certificates?6?$AA@ 0008117c     libeay32:v3_crld.obj
 0002:0001b198       ??_C@_0BL@FLJCHEKF@?$CF?$CKsOnly?5User?5Certificates?6?$AA@ 00081198     libeay32:v3_crld.obj
 0002:0001b1b4       ??_C@_0BA@NBJIBLNE@?$CF?$CKsCRL?5Issuer?3?6?$AA@ 000811b4     libeay32:v3_crld.obj
 0002:0001b1c4       ??_C@_07MJENKMF@Reasons?$AA@ 000811c4     libeay32:v3_crld.obj
 0002:0001b1cc       ??_C@_0N@LGEOMMHB@relativename?$AA@ 000811cc     libeay32:v3_crld.obj
 0002:0001b1dc       ??_C@_08BMACPLOA@fullname?$AA@ 000811dc     libeay32:v3_crld.obj
 0002:0001b1e8       ??_C@_06PPFMJOEO@onlyAA?$AA@ 000811e8     libeay32:v3_crld.obj
 0002:0001b1f0       v3_inhibit_anyp            000811f0     libeay32:v3_int.obj
 0002:0001b228       v3_delta_crl               00081228     libeay32:v3_int.obj
 0002:0001b260       v3_crl_num                 00081260     libeay32:v3_int.obj
 0002:0001b30c       v3_policy_mappings         0008130c     libeay32:v3_pmaps.obj
 0002:0001b344       ??_C@_0BA@DHPBCFFC@POLICY_MAPPINGS?$AA@ 00081344     libeay32:v3_pmaps.obj
 0002:0001b354       ??_C@_0P@NLHMKCKF@POLICY_MAPPING?$AA@ 00081354     libeay32:v3_pmaps.obj
 0002:0001b364       ??_C@_0BE@FFIKMOKF@subjectDomainPolicy?$AA@ 00081364     libeay32:v3_pmaps.obj
 0002:0001b378       ??_C@_0BD@JILOPHFL@issuerDomainPolicy?$AA@ 00081378     libeay32:v3_pmaps.obj
 0002:0001b390       ??_C@_0FB@JMEEBLD@d?3?2wm653wehh?2platform?2mvv210?2src@ 00081390     libeay32:v3_pmaps.obj
 0002:0001b444       v3_name_constraints        00081444     libeay32:v3_ncons.obj
 0002:0001b4b8       ??_C@_0BB@MLLJAFMN@NAME_CONSTRAINTS?$AA@ 000814b8     libeay32:v3_ncons.obj
 0002:0001b4cc       ??_C@_0BB@HLFEMJKE@excludedSubtrees?$AA@ 000814cc     libeay32:v3_ncons.obj
 0002:0001b4e0       ??_C@_0BC@FACFJLFB@permittedSubtrees?$AA@ 000814e0     libeay32:v3_ncons.obj
 0002:0001b4f4       ??_C@_0BA@ECMIFHDE@GENERAL_SUBTREE?$AA@ 000814f4     libeay32:v3_ncons.obj
 0002:0001b504       ??_C@_07MEIENILC@maximum?$AA@ 00081504     libeay32:v3_ncons.obj
 0002:0001b50c       ??_C@_07CCOEHHFD@minimum?$AA@ 0008150c     libeay32:v3_ncons.obj
 0002:0001b514       ??_C@_04BHIIPFEC@base?$AA@ 00081514     libeay32:v3_ncons.obj
 0002:0001b520       ??_C@_0FB@NFBAFBGE@d?3?2wm653wehh?2platform?2mvv210?2src@ 00081520     libeay32:v3_ncons.obj
 0002:0001b574       ??_C@_08HPCEJEEF@excluded?$AA@ 00081574     libeay32:v3_ncons.obj
 0002:0001b580       ??_C@_09HAKFOFAM@permitted?$AA@ 00081580     libeay32:v3_ncons.obj
 0002:0001b58c       ??_C@_0BI@IFNIGPEJ@?$CFd?4?$CFd?4?$CFd?4?$CFd?1?$CFd?4?$CFd?4?$CFd?4?$CFd?$AA@ 0008158c     libeay32:v3_ncons.obj
 0002:0001b5a4       ??_C@_03HBLCMHJN@IP?3?$AA@ 000815a4     libeay32:v3_ncons.obj
 0002:0001b5a8       ??_C@_07GOIIHCND@?$CF?$CKs?$CFs?3?6?$AA@ 000815a8     libeay32:v3_ncons.obj
 0002:0001b5b0       ??_C@_09DPPIOGNM@Permitted?$AA@ 000815b0     libeay32:v3_ncons.obj
 0002:0001b5bc       ??_C@_08PNNFBGOG@Excluded?$AA@ 000815bc     libeay32:v3_ncons.obj
 0002:0001b5c8       v3_pci                     000815c8     libeay32:v3_pci.obj
 0002:0001b600       ??_C@_0BE@HDJEDONA@?$CF?$CKsPolicy?5Text?3?5?$CFs?6?$AA@ 00081600     libeay32:v3_pci.obj
 0002:0001b614       ??_C@_0BF@CGHJNACM@?$CF?$CKsPolicy?5Language?3?5?$AA@ 00081614     libeay32:v3_pci.obj
 0002:0001b62c       ??_C@_08MAJEGHKB@infinite?$AA@ 0008162c     libeay32:v3_pci.obj
 0002:0001b638       ??_C@_0BM@BMCPHDD@?$CF?$CKsPath?5Length?5Constraint?3?5?$AA@ 00081638     libeay32:v3_pci.obj
 0002:0001b654       ??_C@_05FHIGHPDA@text?3?$AA@ 00081654     libeay32:v3_pci.obj
 0002:0001b65c       ??_C@_05BOPHDICO@file?3?$AA@ 0008165c     libeay32:v3_pci.obj
 0002:0001b664       ??_C@_04ODCMNEMO@hex?3?$AA@ 00081664     libeay32:v3_pci.obj
 0002:0001b66c       ??_C@_06NJNJNICG@policy?$AA@ 0008166c     libeay32:v3_pci.obj
 0002:0001b674       ??_C@_07OGCPICFF@pathlen?$AA@ 00081674     libeay32:v3_pci.obj
 0002:0001b680       ??_C@_0EP@IAENADAP@d?3?2wm653wehh?2platform?2mvv210?2src@ 00081680     libeay32:v3_pci.obj
 0002:0001b6d0       ??_C@_08JGCCIMAA@language?$AA@ 000816d0     libeay32:v3_pci.obj
 0002:0001b6dc       v3_ocsp_serviceloc         000816dc     libeay32:v3_ocsp.obj
 0002:0001b714       v3_ocsp_nocheck            00081714     libeay32:v3_ocsp.obj
 0002:0001b74c       v3_ocsp_nonce              0008174c     libeay32:v3_ocsp.obj
 0002:0001b784       v3_crl_hold                00081784     libeay32:v3_ocsp.obj
 0002:0001b7bc       v3_crl_invdate             000817bc     libeay32:v3_ocsp.obj
 0002:0001b7f4       v3_ocsp_acutoff            000817f4     libeay32:v3_ocsp.obj
 0002:0001b82c       v3_ocsp_crlid              0008182c     libeay32:v3_ocsp.obj
 0002:0001b864       ??_C@_0N@IBJOMEDL@?$CF?$CKscrlTime?3?5?$AA@ 00081864     libeay32:v3_ocsp.obj
 0002:0001b874       ??_C@_0M@MLCMBODE@?$CF?$CKscrlNum?3?5?$AA@ 00081874     libeay32:v3_ocsp.obj
 0002:0001b880       ??_C@_0M@KIKBFHBJ@?$CF?$CKscrlUrl?3?5?$AA@ 00081880     libeay32:v3_ocsp.obj
 0002:0001b890       ??_C@_0FA@DGLJGNPA@d?3?2wm653wehh?2platform?2mvv210?2src@ 00081890     libeay32:v3_ocsp.obj
 0002:0001b8e0       ??_C@_04NFEJKGEM@?6?$CF?$CKs?$AA@ 000818e0     libeay32:v3_ocsp.obj
 0002:0001b8e8       ??_C@_0M@IHOINNJF@?$CF?$CKsIssuer?3?5?$AA@ 000818e8     libeay32:v3_ocsp.obj
 0002:0001b938       v3_policy_constraints      00081938     libeay32:v3_pcons.obj
 0002:0001b970       ??_C@_0BD@MMPNIEIJ@POLICY_CONSTRAINTS?$AA@ 00081970     libeay32:v3_pcons.obj
 0002:0001b984       ??_C@_0BF@MOMLJGAL@inhibitPolicyMapping?$AA@ 00081984     libeay32:v3_pcons.obj
 0002:0001b99c       ??_C@_0BG@HGJBEKFE@requireExplicitPolicy?$AA@ 0008199c     libeay32:v3_pcons.obj
 0002:0001b9b4       ??_C@_0BI@HNCHDEDI@Require?5Explicit?5Policy?$AA@ 000819b4     libeay32:v3_pcons.obj
 0002:0001b9cc       ??_C@_0BH@HMKHOMED@Inhibit?5Policy?5Mapping?$AA@ 000819cc     libeay32:v3_pcons.obj
 0002:0001b9e8       ??_C@_0FB@LMCBHCHN@d?3?2wm653wehh?2platform?2mvv210?2src@ 000819e8     libeay32:v3_pcons.obj
 0002:0001ba6c       v3_ocsp_accresp            00081a6c     libeay32:v3_extku.obj
 0002:0001baa4       v3_ext_ku                  00081aa4     libeay32:v3_extku.obj
 0002:0001badc       ??_C@_0BD@CKAGEBEF@EXTENDED_KEY_USAGE?$AA@ 00081adc     libeay32:v3_extku.obj
 0002:0001baf0       ??_C@_0FB@GJDJKHPC@d?3?2wm653wehh?2platform?2mvv210?2src@ 00081af0     libeay32:v3_extku.obj
 0002:0001bbcc       v3_sxnet                   00081bcc     libeay32:v3_sxnet.obj
 0002:0001bc04       ??_C@_05BPAJFIHK@SXNET?$AA@ 00081c04     libeay32:v3_sxnet.obj
 0002:0001bc0c       ??_C@_03NDFJNBKD@ids?$AA@  00081c0c     libeay32:v3_sxnet.obj
 0002:0001bc10       ??_C@_07FLDOGLPN@SXNETID?$AA@ 00081c10     libeay32:v3_sxnet.obj
 0002:0001bc18       ??_C@_04CCHAHKJA@user?$AA@ 00081c18     libeay32:v3_sxnet.obj
 0002:0001bc20       ??_C@_04LDDJGOBB@zone?$AA@ 00081c20     libeay32:v3_sxnet.obj
 0002:0001bc28       ??_C@_0BF@NMLBNADB@?6?$CF?$CKsZone?3?5?$CFs?0?5User?3?5?$AA@ 00081c28     libeay32:v3_sxnet.obj
 0002:0001bc40       ??_C@_0BI@GOEPAKBG@?$CF?$CKsVersion?3?5?$CFld?5?$CI0x?$CFlX?$CJ?$AA@ 00081c40     libeay32:v3_sxnet.obj
 0002:0001bc58       ??_C@_0FB@HGCMGHKH@d?3?2wm653wehh?2platform?2mvv210?2src@ 00081c58     libeay32:v3_sxnet.obj
 0002:0001bcac       v3_crl_reason              00081cac     libeay32:v3_enum.obj
 0002:0001bce4       ??_C@_0O@BILLKPKO@removeFromCRL?$AA@ 00081ce4     libeay32:v3_enum.obj
 0002:0001bcf4       ??_C@_0BA@GLPEKBIK@Remove?5From?5CRL?$AA@ 00081cf4     libeay32:v3_enum.obj
 0002:0001bd04       ??_C@_0M@MFMDLEDN@unspecified?$AA@ 00081d04     libeay32:v3_enum.obj
 0002:0001bd10       ??_C@_0M@NNPCGPMF@Unspecified?$AA@ 00081d10     libeay32:v3_enum.obj
 0002:0001bd1c       v3_akey_id                 00081d1c     libeay32:v3_akey.obj
 0002:0001bd54       ??_C@_06KCELPKEE@serial?$AA@ 00081d54     libeay32:v3_akey.obj
 0002:0001bd5c       ??_C@_05CNHMOIOC@keyid?$AA@ 00081d5c     libeay32:v3_akey.obj
 0002:0001bd68       ??_C@_0FA@BIHNLJGI@d?3?2wm653wehh?2platform?2mvv210?2src@ 00081d68     libeay32:v3_akey.obj
 0002:0001bdb8       ??_C@_06KHDOHNKC@always?$AA@ 00081db8     libeay32:v3_akey.obj
 0002:0001bf60       v3_cpols                   00081f60     libeay32:v3_cpols.obj
 0002:0001bf98       ??_C@_09DFHLGOKA@NOTICEREF?$AA@ 00081f98     libeay32:v3_cpols.obj
 0002:0001bfa4       ??_C@_09CFGHNILC@noticenos?$AA@ 00081fa4     libeay32:v3_cpols.obj
 0002:0001bfb0       ??_C@_0N@HEIPMDAG@organization?$AA@ 00081fb0     libeay32:v3_cpols.obj
 0002:0001bfc0       ??_C@_0L@HCNDPADF@USERNOTICE?$AA@ 00081fc0     libeay32:v3_cpols.obj
 0002:0001bfcc       ??_C@_07MHGINJOA@exptext?$AA@ 00081fcc     libeay32:v3_cpols.obj
 0002:0001bfd4       ??_C@_09FIKFDFH@noticeref?$AA@ 00081fd4     libeay32:v3_cpols.obj
 0002:0001bfe0       ??_C@_0P@POBJIHLD@POLICYQUALINFO?$AA@ 00081fe0     libeay32:v3_cpols.obj
 0002:0001bff0       ??_C@_07LEEILOKB@pqualid?$AA@ 00081ff0     libeay32:v3_cpols.obj
 0002:0001bff8       ??_C@_0N@JPAHANFF@d?4usernotice?$AA@ 00081ff8     libeay32:v3_cpols.obj
 0002:0001c008       ??_C@_08EECALGEF@d?4cpsuri?$AA@ 00082008     libeay32:v3_cpols.obj
 0002:0001c014       ??_C@_0L@POLPGHJK@POLICYINFO?$AA@ 00082014     libeay32:v3_cpols.obj
 0002:0001c020       ??_C@_0L@HMNGMMJI@qualifiers?$AA@ 00082020     libeay32:v3_cpols.obj
 0002:0001c02c       ??_C@_08NEBFOBH@policyid?$AA@ 0008202c     libeay32:v3_cpols.obj
 0002:0001c038       ??_C@_0BE@GJBJOOCP@CERTIFICATEPOLICIES?$AA@ 00082038     libeay32:v3_cpols.obj
 0002:0001c050       ??_C@_0FB@GCODJBIG@d?3?2wm653wehh?2platform?2mvv210?2src@ 00082050     libeay32:v3_cpols.obj
 0002:0001c0a4       ??_C@_0BG@IHHCDAMH@?$CF?$CKsExplicit?5Text?3?5?$CFs?6?$AA@ 000820a4     libeay32:v3_cpols.obj
 0002:0001c0bc       ??_C@_0O@EFHNHHDA@?$CF?$CKsNumber?$CFs?3?5?$AA@ 000820bc     libeay32:v3_cpols.obj
 0002:0001c0cc       ??_C@_0BF@OCNFPJOG@?$CF?$CKsOrganization?3?5?$CFs?6?$AA@ 000820cc     libeay32:v3_cpols.obj
 0002:0001c0e4       ??_C@_0O@OKDALMJE@noticeNumbers?$AA@ 000820e4     libeay32:v3_cpols.obj
 0002:0001c0f4       ??_C@_0N@EALKMFB@explicitText?$AA@ 000820f4     libeay32:v3_cpols.obj
 0002:0001c104       ??_C@_0M@ICGFCJNO@?$CF?$CKsCPS?3?5?$CFs?6?$AA@ 00082104     libeay32:v3_cpols.obj
 0002:0001c110       ??_C@_0BB@MMPKKFLI@?$CF?$CKsUser?5Notice?3?6?$AA@ 00082110     libeay32:v3_cpols.obj
 0002:0001c124       ??_C@_0BH@CHOAEJEJ@?$CF?$CKsUnknown?5Qualifier?3?5?$AA@ 00082124     libeay32:v3_cpols.obj
 0002:0001c13c       ??_C@_0M@BBFMFBLN@?$CF?$CKsPolicy?3?5?$AA@ 0008213c     libeay32:v3_cpols.obj
 0002:0001c148       ??_C@_0L@LADHLIJ@userNotice?$AA@ 00082148     libeay32:v3_cpols.obj
 0002:0001c154       ??_C@_03KKDAPHBH@CPS?$AA@  00082154     libeay32:v3_cpols.obj
 0002:0001c158       ??_C@_0BB@FIJMMMGE@policyIdentifier?$AA@ 00082158     libeay32:v3_cpols.obj
 0002:0001c16c       ??_C@_06MIFIGELF@ia5org?$AA@ 0008216c     libeay32:v3_cpols.obj
 0002:0001c1b8       v3_bcons                   000821b8     libeay32:v3_bcons.obj
 0002:0001c1f0       ??_C@_0BC@PKPCGCD@BASIC_CONSTRAINTS?$AA@ 000821f0     libeay32:v3_bcons.obj
 0002:0001c204       ??_C@_02DGMJAJHC@ca?$AA@   00082204     libeay32:v3_bcons.obj
 0002:0001c208       ??_C@_02JLAAGLDA@CA?$AA@   00082208     libeay32:v3_bcons.obj
 0002:0001c210       ??_C@_0FB@ICLPEECL@d?3?2wm653wehh?2platform?2mvv210?2src@ 00082210     libeay32:v3_bcons.obj
 0002:0001c2a8       v3_pkey_usage_period       000822a8     libeay32:v3_pku.obj
 0002:0001c2e0       ??_C@_0BC@CCOKACDM@PKEY_USAGE_PERIOD?$AA@ 000822e0     libeay32:v3_pku.obj
 0002:0001c2f4       ??_C@_08PJIFIJBI@notAfter?$AA@ 000822f4     libeay32:v3_pku.obj
 0002:0001c300       ??_C@_09MJPOMOII@notBefore?$AA@ 00082300     libeay32:v3_pku.obj
 0002:0001c30c       ??_C@_0M@FCHJLIHE@Not?5After?3?5?$AA@ 0008230c     libeay32:v3_pku.obj
 0002:0001c318       ??_C@_0N@KGLJEEMK@Not?5Before?3?5?$AA@ 00082318     libeay32:v3_pku.obj
 0002:0001c328       v3_key_usage               00082328     libeay32:v3_bitst.obj
 0002:0001c360       v3_nscert                  00082360     libeay32:v3_bitst.obj
 0002:0001c398       ??_C@_0N@LIFHMFCO@decipherOnly?$AA@ 00082398     libeay32:v3_bitst.obj
 0002:0001c3a8       ??_C@_0O@FKBAPCEG@Decipher?5Only?$AA@ 000823a8     libeay32:v3_bitst.obj
 0002:0001c3b8       ??_C@_0N@BEFDLIKF@encipherOnly?$AA@ 000823b8     libeay32:v3_bitst.obj
 0002:0001c3c8       ??_C@_0O@CANGKMJD@Encipher?5Only?$AA@ 000823c8     libeay32:v3_bitst.obj
 0002:0001c3d8       ??_C@_07IHBCCDFJ@cRLSign?$AA@ 000823d8     libeay32:v3_bitst.obj
 0002:0001c3e0       ??_C@_08OCJGKMAN@CRL?5Sign?$AA@ 000823e0     libeay32:v3_bitst.obj
 0002:0001c3ec       ??_C@_0M@ONBOOMGI@keyCertSign?$AA@ 000823ec     libeay32:v3_bitst.obj
 0002:0001c3f8       ??_C@_0BB@ELNGMDLH@Certificate?5Sign?$AA@ 000823f8     libeay32:v3_bitst.obj
 0002:0001c40c       ??_C@_0N@GONHKOEO@keyAgreement?$AA@ 0008240c     libeay32:v3_bitst.obj
 0002:0001c41c       ??_C@_0O@EOJOBCHL@Key?5Agreement?$AA@ 0008241c     libeay32:v3_bitst.obj
 0002:0001c42c       ??_C@_0BB@LBKKKIGO@dataEncipherment?$AA@ 0008242c     libeay32:v3_bitst.obj
 0002:0001c440       ??_C@_0BC@GNPIAJLP@Data?5Encipherment?$AA@ 00082440     libeay32:v3_bitst.obj
 0002:0001c454       ??_C@_0BA@MINCLOJG@keyEncipherment?$AA@ 00082454     libeay32:v3_bitst.obj
 0002:0001c464       ??_C@_0BB@KNACIBEN@Key?5Encipherment?$AA@ 00082464     libeay32:v3_bitst.obj
 0002:0001c478       ??_C@_0P@GPCNPOGO@nonRepudiation?$AA@ 00082478     libeay32:v3_bitst.obj
 0002:0001c488       ??_C@_0BA@DJCGBBAI@Non?5Repudiation?$AA@ 00082488     libeay32:v3_bitst.obj
 0002:0001c498       ??_C@_0BB@MFKHIIOM@digitalSignature?$AA@ 00082498     libeay32:v3_bitst.obj
 0002:0001c4ac       ??_C@_0BC@DPKEIPIO@Digital?5Signature?$AA@ 000824ac     libeay32:v3_bitst.obj
 0002:0001c4c0       ??_C@_05JLEIJNEE@objCA?$AA@ 000824c0     libeay32:v3_bitst.obj
 0002:0001c4c8       ??_C@_0BC@FAMHGMHB@Object?5Signing?5CA?$AA@ 000824c8     libeay32:v3_bitst.obj
 0002:0001c4dc       ??_C@_07FFHDGPMJ@emailCA?$AA@ 000824dc     libeay32:v3_bitst.obj
 0002:0001c4e4       ??_C@_09GIEMCMEO@S?1MIME?5CA?$AA@ 000824e4     libeay32:v3_bitst.obj
 0002:0001c4f0       ??_C@_05JHLHLOEK@sslCA?$AA@ 000824f0     libeay32:v3_bitst.obj
 0002:0001c4f8       ??_C@_06FMDLPOFJ@SSL?5CA?$AA@ 000824f8     libeay32:v3_bitst.obj
 0002:0001c500       ??_C@_08FINKBBAF@reserved?$AA@ 00082500     libeay32:v3_bitst.obj
 0002:0001c50c       ??_C@_07GIOKFKGL@objsign?$AA@ 0008250c     libeay32:v3_bitst.obj
 0002:0001c514       ??_C@_0P@DDHLFHHK@Object?5Signing?$AA@ 00082514     libeay32:v3_bitst.obj
 0002:0001c524       ??_C@_06HJHJCKIO@server?$AA@ 00082524     libeay32:v3_bitst.obj
 0002:0001c52c       ??_C@_0L@DCIAGJKL@SSL?5Server?$AA@ 0008252c     libeay32:v3_bitst.obj
 0002:0001c538       ??_C@_06DGDLPBAN@client?$AA@ 00082538     libeay32:v3_bitst.obj
 0002:0001c540       ??_C@_0L@HNMCLCCI@SSL?5Client?$AA@ 00082540     libeay32:v3_bitst.obj
 0002:0001c550       ??_C@_0FB@EKHJICLH@d?3?2wm653wehh?2platform?2mvv210?2src@ 00082550     libeay32:v3_bitst.obj
 0002:0001c5a4       v3_skey_id                 000825a4     libeay32:v3_skey.obj
 0002:0001c5e0       ??_C@_0FA@OIDMDEIP@d?3?2wm653wehh?2platform?2mvv210?2src@ 000825e0     libeay32:v3_skey.obj
 0002:0001c630       ??_C@_04OIJGJDKO@hash?$AA@ 00082630     libeay32:v3_skey.obj
 0002:0001c638       v3_ns_ia5_list             00082638     libeay32:v3_ia5.obj
 0002:0001c7f8       ??_C@_0EP@FPIPLDCG@d?3?2wm653wehh?2platform?2mvv210?2src@ 000827f8     libeay32:v3_ia5.obj
 0002:0001c848       ??_C@_0FA@GLNJJMIP@d?3?2wm653wehh?2platform?2mvv210?2src@ 00082848     libeay32:v3_conf.obj
 0002:0001c990       ??_C@_08JIPBBKBM@X509_REQ?$AA@ 00082990     libeay32:x_req.obj
 0002:0001c99c       ??_C@_07OBHFIHGJ@sig_alg?$AA@ 0008299c     libeay32:x_req.obj
 0002:0001c9a4       ??_C@_08JILJKJG@req_info?$AA@ 000829a4     libeay32:x_req.obj
 0002:0001c9b0       ??_C@_0O@EHCMNJCB@X509_REQ_INFO?$AA@ 000829b0     libeay32:x_req.obj
 0002:0001c9c0       ??_C@_0L@HNMJPKNA@attributes?$AA@ 000829c0     libeay32:x_req.obj
 0002:0001c9cc       ??_C@_06GKCAPDID@pubkey?$AA@ 000829cc     libeay32:x_req.obj
 0002:0001c9d4       ??_C@_07JNNGEGGO@subject?$AA@ 000829d4     libeay32:x_req.obj
 0002:0001c9e0       ??_C@_0EP@COKBPCCM@d?3?2wm653wehh?2platform?2mvv210?2src@ 000829e0     libeay32:x509_att.obj
 0002:0001ca30       ??_C@_0BE@LILBBPKE@OpenSSL?5ECDH?5method?$AA@ 00082a30     libeay32:ech_ossl.obj
 0002:0001ca48       ??_C@_0EP@EIICIEGK@d?3?2wm653wehh?2platform?2mvv210?2src@ 00082a48     libeay32:ech_ossl.obj
 0002:0001cb40       ??_C@_0EN@LKHNEOCI@d?3?2wm653wehh?2platform?2mvv210?2src@ 00082b40     libeay32:ecp_mont.obj
 0002:0001cc30       ??_C@_0EN@MFLMOEJL@d?3?2wm653wehh?2platform?2mvv210?2src@ 00082c30     libeay32:ecp_nist.obj
 0002:0001cd20       ??_C@_0EN@HKENHFKC@d?3?2wm653wehh?2platform?2mvv210?2src@ 00082d20     libeay32:ec2_smpl.obj
 0002:0001cd70       ??_C@_0EM@LBEFNFCH@d?3?2wm653wehh?2platform?2mvv210?2src@ 00082d70     libeay32:bn_exp2.obj
 0002:0001cf4c       ??_C@_08JGFBPDAP@X509_CRL?$AA@ 00082f4c     libeay32:x_crl.obj
 0002:0001cf58       ??_C@_03GJBFOAJL@crl?$AA@  00082f58     libeay32:x_crl.obj
 0002:0001cf5c       ??_C@_0O@IMOAEKCP@X509_CRL_INFO?$AA@ 00082f5c     libeay32:x_crl.obj
 0002:0001cf6c       ??_C@_07MIJFAMBD@revoked?$AA@ 00082f6c     libeay32:x_crl.obj
 0002:0001cf74       ??_C@_0L@BMOABHOK@nextUpdate?$AA@ 00082f74     libeay32:x_crl.obj
 0002:0001cf80       ??_C@_0L@MPDCJAIM@lastUpdate?$AA@ 00082f80     libeay32:x_crl.obj
 0002:0001cf8c       ??_C@_0N@JBPKOADN@X509_REVOKED?$AA@ 00082f8c     libeay32:x_crl.obj
 0002:0001cf9c       ??_C@_0L@ICCCPLKC@extensions?$AA@ 00082f9c     libeay32:x_crl.obj
 0002:0001cfa8       ??_C@_0P@HBDMPDNI@revocationDate?$AA@ 00082fa8     libeay32:x_crl.obj
 0002:0001cfb8       ??_C@_0EM@HLHJDKMD@d?3?2wm653wehh?2platform?2mvv210?2src@ 00082fb8     libeay32:x_crl.obj
 0002:0001d178       ??_C@_09NKDPGBBA@cert_info?$AA@ 00083178     libeay32:x_x509.obj
 0002:0001d184       ??_C@_09LCJGKABB@X509_CINF?$AA@ 00083184     libeay32:x_x509.obj
 0002:0001d190       ??_C@_0L@JMFHLKAL@subjectUID?$AA@ 00083190     libeay32:x_x509.obj
 0002:0001d19c       ??_C@_09KIIAMAEE@issuerUID?$AA@ 0008319c     libeay32:x_x509.obj
 0002:0001d1a8       ??_C@_08GCHKOCBP@validity?$AA@ 000831a8     libeay32:x_x509.obj
 0002:0001d1b8       ??_C@_0EM@EIEBKGJ@d?3?2wm653wehh?2platform?2mvv210?2src@ 000831b8     libeay32:cms_io.obj
 0002:0001d204       ??_C@_08POLPFBMC@SEQUENCE?$AA@ 00083204     libeay32:tasn_prn.obj
 0002:0001d210       ??_C@_03KPIFFHNE@SET?$AA@  00083210     libeay32:tasn_prn.obj
 0002:0001d214       ??_C@_0P@ONGHGJEC@message?5digest?$AA@ 00083214     libeay32:bio_md.obj
 0002:0001d224       ??_C@_0O@DIEIKEFB@memory?5buffer?$AA@ 00083224     libeay32:bss_mem.obj
 0002:0001d238       ??_C@_0EN@IFBMAPDF@d?3?2wm653wehh?2platform?2mvv210?2src@ 00083238     libeay32:bss_mem.obj
 0002:0001d288       ??_C@_0EM@CLBFFJNJ@d?3?2wm653wehh?2platform?2mvv210?2src@ 00083288     libeay32:cms_dd.obj
 0002:0001d2d8       ??_C@_0EN@GEIMIMFD@d?3?2wm653wehh?2platform?2mvv210?2src@ 000832d8     libeay32:bio_enc.obj
 0002:0001d344       ??_C@_09DHMKJJNA@ASN1_TIME?$AA@ 00083344     libeay32:a_time.obj
 0002:0001d350       ??_C@_0EN@IOPKJOHJ@d?3?2wm653wehh?2platform?2mvv210?2src@ 00083350     libeay32:a_time.obj
 0002:0001d3a0       X509_version               000833a0     libeay32:x509_vfy.obj
 0002:0001d3d0       ??_C@_0EO@ENFGJDHG@d?3?2wm653wehh?2platform?2mvv210?2src@ 000833d0     libeay32:m_sigver.obj
 0002:0001d420       ??_C@_0EM@MHADPNEH@d?3?2wm653wehh?2platform?2mvv210?2src@ 00083420     libeay32:p_sign.obj
 0002:0001d4f4       ??_C@_0BK@PILNOGHK@PROXY_CERT_INFO_EXTENSION?$AA@ 000834f4     libeay32:v3_pcia.obj
 0002:0001d510       ??_C@_0M@KKFBCGOG@proxyPolicy?$AA@ 00083510     libeay32:v3_pcia.obj
 0002:0001d51c       ??_C@_0BH@JBGKCLHC@pcPathLengthConstraint?$AA@ 0008351c     libeay32:v3_pcia.obj
 0002:0001d534       ??_C@_0N@CLKEFBDI@PROXY_POLICY?$AA@ 00083534     libeay32:v3_pcia.obj
 0002:0001d544       ??_C@_0P@BLMEJDMO@policyLanguage?$AA@ 00083544     libeay32:v3_pcia.obj
 0002:0001f680       ??_C@_0EP@ECCLNLMM@d?3?2wm653wehh?2platform?2mvv210?2src@ 00085680     libeay32:asn_pack.obj
 0002:0001f6d0       ??_C@_0EN@BMFEIIDL@d?3?2wm653wehh?2platform?2mvv210?2src@ 000856d0     libeay32:rsa_pk1.obj
 0002:0001f720       ??_C@_0EN@PDDHPBKJ@d?3?2wm653wehh?2platform?2mvv210?2src@ 00085720     libeay32:rsa_ssl.obj
 0002:0001f770       ??_C@_0EO@NNKDLJPI@d?3?2wm653wehh?2platform?2mvv210?2src@ 00085770     libeay32:rsa_none.obj
 0002:0001fb40       ??_C@_0O@DFJMHGOP@EC_PRIVATEKEY?$AA@ 00085b40     libeay32:ec_asn1.obj
 0002:0001fb50       ??_C@_0L@HHPOFMCB@parameters?$AA@ 00085b50     libeay32:ec_asn1.obj
 0002:0001fb5c       ??_C@_0L@BCENACFO@privateKey?$AA@ 00085b5c     libeay32:ec_asn1.obj
 0002:0001fb68       ??_C@_0P@PBBIGPFJ@ECPKPARAMETERS?$AA@ 00085b68     libeay32:ec_asn1.obj
 0002:0001fb78       ??_C@_0BD@HOIIAPI@value?4implicitlyCA?$AA@ 00085b78     libeay32:ec_asn1.obj
 0002:0001fb8c       ??_C@_0BB@KOECJJJ@value?4parameters?$AA@ 00085b8c     libeay32:ec_asn1.obj
 0002:0001fba0       ??_C@_0BC@JEJHGDNN@value?4named_curve?$AA@ 00085ba0     libeay32:ec_asn1.obj
 0002:0001fbb4       ??_C@_0N@ECDPFONH@ECPARAMETERS?$AA@ 00085bb4     libeay32:ec_asn1.obj
 0002:0001fbc4       ??_C@_08DKFAOMDI@cofactor?$AA@ 00085bc4     libeay32:ec_asn1.obj
 0002:0001fbd0       ??_C@_05NDNMCCJH@order?$AA@ 00085bd0     libeay32:ec_asn1.obj
 0002:0001fbd8       ??_C@_05HIKPKPAA@curve?$AA@ 00085bd8     libeay32:ec_asn1.obj
 0002:0001fbe0       ??_C@_07MJJGNICD@fieldID?$AA@ 00085be0     libeay32:ec_asn1.obj
 0002:0001fbe8       ??_C@_0M@BHDPNPCK@X9_62_CURVE?$AA@ 00085be8     libeay32:ec_asn1.obj
 0002:0001fbf4       ??_C@_04MENKDCKE@seed?$AA@ 00085bf4     libeay32:ec_asn1.obj
 0002:0001fbfc       ??_C@_0O@PGPIAKKH@X9_62_FIELDID?$AA@ 00085bfc     libeay32:ec_asn1.obj
 0002:0001fc0c       ??_C@_09OAOLGAOM@fieldType?$AA@ 00085c0c     libeay32:ec_asn1.obj
 0002:0001fc18       ??_C@_0L@NLMAKEBL@p?4char_two?$AA@ 00085c18     libeay32:ec_asn1.obj
 0002:0001fc24       ??_C@_07DPJEDCLB@p?4prime?$AA@ 00085c24     libeay32:ec_asn1.obj
 0002:0001fc2c       ??_C@_0BJ@CCODLOLO@X9_62_CHARACTERISTIC_TWO?$AA@ 00085c2c     libeay32:ec_asn1.obj
 0002:0001fc48       ??_C@_04GPMDFGEJ@type?$AA@ 00085c48     libeay32:ec_asn1.obj
 0002:0001fc50       ??_C@_01GOHFPIOK@m?$AA@    00085c50     libeay32:ec_asn1.obj
 0002:0001fc54       ??_C@_09DMGLCKOJ@p?4ppBasis?$AA@ 00085c54     libeay32:ec_asn1.obj
 0002:0001fc60       ??_C@_09LICBCEBD@p?4tpBasis?$AA@ 00085c60     libeay32:ec_asn1.obj
 0002:0001fc6c       ??_C@_09KOBBOOPN@p?4onBasis?$AA@ 00085c6c     libeay32:ec_asn1.obj
 0002:0001fc78       ??_C@_07PBHIMFBE@p?4other?$AA@ 00085c78     libeay32:ec_asn1.obj
 0002:0001fc80       ??_C@_0BC@NPDMPFCL@X9_62_PENTANOMIAL?$AA@ 00085c80     libeay32:ec_asn1.obj
 0002:0001fc94       ??_C@_02LAFHGHBM@k3?$AA@   00085c94     libeay32:ec_asn1.obj
 0002:0001fc98       ??_C@_02KJEMFGFN@k2?$AA@   00085c98     libeay32:ec_asn1.obj
 0002:0001fc9c       ??_C@_02ICGBAFJO@k1?$AA@   00085c9c     libeay32:ec_asn1.obj
 0002:0001fca0       ??_C@_0EM@BCOHHMGC@d?3?2wm653wehh?2platform?2mvv210?2src@ 00085ca0     libeay32:ec_asn1.obj
 0002:0001fd78       ??_C@_0BE@LDIFBBLG@PKCS8_PRIV_KEY_INFO?$AA@ 00085d78     libeay32:p8_pkey.obj
 0002:0001fd8c       ??_C@_04JMMJFDFL@pkey?$AA@ 00085d8c     libeay32:p8_pkey.obj
 0002:0001fd94       ??_C@_07PLCMOKAM@pkeyalg?$AA@ 00085d94     libeay32:p8_pkey.obj
 0002:0001fd9c       ??_C@_0BE@FPCNHCIJ@Generator?5?$CIhybrid?$CJ?3?$AA@ 00085d9c     libeay32:eck_prn.obj
 0002:0001fdb0       ??_C@_0BK@DOCPEENO@Generator?5?$CIuncompressed?$CJ?3?$AA@ 00085db0     libeay32:eck_prn.obj
 0002:0001fdcc       ??_C@_0BI@DFFFIKFB@Generator?5?$CIcompressed?$CJ?3?$AA@ 00085dcc     libeay32:eck_prn.obj
 0002:0001fde4       ??_C@_06LEJCPMLM@?$CF02x?$CFs?$AA@ 00085de4     libeay32:eck_prn.obj
 0002:0001fdf0       ??_C@_0EM@FLNGOIDD@d?3?2wm653wehh?2platform?2mvv210?2src@ 00085df0     libeay32:eck_prn.obj
 0002:0001fe3c       ??_C@_05PDHKGGIM@Seed?3?$AA@ 00085e3c     libeay32:eck_prn.obj
 0002:0001fe44       ??_C@_0L@IEMHODML@Cofactor?3?5?$AA@ 00085e44     libeay32:eck_prn.obj
 0002:0001fe50       ??_C@_07KOGOKIFH@Order?3?5?$AA@ 00085e50     libeay32:eck_prn.obj
 0002:0001fe58       ??_C@_05OKMHJIGA@B?3?5?5?5?$AA@ 00085e58     libeay32:eck_prn.obj
 0002:0001fe60       ??_C@_05GMFDOKMO@A?3?5?5?5?$AA@ 00085e60     libeay32:eck_prn.obj
 0002:0001fe68       ??_C@_06DBHHIIKM@Prime?3?$AA@ 00085e68     libeay32:eck_prn.obj
 0002:0001fe70       ??_C@_0M@JDIPGLHE@Polynomial?3?$AA@ 00085e70     libeay32:eck_prn.obj
 0002:0001fe7c       ??_C@_0BA@ENMKKION@Basis?5Type?3?5?$CFs?6?$AA@ 00085e7c     libeay32:eck_prn.obj
 0002:0001fe8c       ??_C@_0BA@KNKNOIFH@Field?5Type?3?5?$CFs?6?$AA@ 00085e8c     libeay32:eck_prn.obj
 0002:0001fe9c       ??_C@_0N@JOFLCJFF@ASN1?5OID?3?5?$CFs?$AA@ 00085e9c     libeay32:eck_prn.obj
 0002:0001feac       ??_C@_04HDOCAJNK@?$CFs?$CFs?$AA@ 00085eac     libeay32:t_pkey.obj
 0002:0001feb4       ??_C@_0M@IBLDKCHK@?5?$CINegative?$CJ?$AA@ 00085eb4     libeay32:t_pkey.obj
 0002:0001fec0       ??_C@_0BE@KHLFKPFC@?$CFs?5?$CFs?$CFlu?5?$CI?$CFs0x?$CFlx?$CJ?6?$AA@ 00085ec0     libeay32:t_pkey.obj
 0002:0001fed4       ??_C@_05NJJIPCOC@?$CFs?50?6?$AA@ 00085ed4     libeay32:t_pkey.obj
 0002:0001fee0       ??_C@_0EN@IAKMHMJK@d?3?2wm653wehh?2platform?2mvv210?2src@ 00085ee0     libeay32:ec_print.obj
 0002:0001ff30       ??_C@_0EP@EBOHPFGP@d?3?2wm653wehh?2platform?2mvv210?2src@ 00085f30     libeay32:pk7_lib.obj
 0002:0001ff80       ??_C@_03MKABNOCG@Dec?$AA@  00085f80     libeay32:t_x509.obj
 0002:0001ff84       ??_C@_03JPJOFNIA@Nov?$AA@  00085f84     libeay32:t_x509.obj
 0002:0001ff88       ??_C@_03BMAOKBAD@Oct?$AA@  00085f88     libeay32:t_x509.obj
 0002:0001ff8c       ??_C@_03GGCAPAJC@Sep?$AA@  00085f8c     libeay32:t_x509.obj
 0002:0001ff90       ??_C@_03IFJFEIGA@Aug?$AA@  00085f90     libeay32:t_x509.obj
 0002:0001ff94       ??_C@_03LBGABGKK@Jul?$AA@  00085f94     libeay32:t_x509.obj
 0002:0001ff98       ??_C@_03IDFGHECI@Jun?$AA@  00085f98     libeay32:t_x509.obj
 0002:0001ff9c       ??_C@_03CNMDKL@May?$AA@    00085f9c     libeay32:t_x509.obj
 0002:0001ffa0       ??_C@_03LEOLGMJP@Apr?$AA@  00085fa0     libeay32:t_x509.obj
 0002:0001ffa4       ??_C@_03ODNJBKGA@Mar?$AA@  00085fa4     libeay32:t_x509.obj
 0002:0001ffa8       ??_C@_03HJBDCHOM@Feb?$AA@  00085fa8     libeay32:t_x509.obj
 0002:0001ffac       ??_C@_03JIHJHPIE@Jan?$AA@  00085fac     libeay32:t_x509.obj
 0002:0001ffb0       ??_C@_0EN@JFBJIANP@d?3?2wm653wehh?2platform?2mvv210?2src@ 00085fb0     libeay32:t_x509.obj
 0002:00020000       ??_C@_0P@FGACABCD@Bad?5time?5value?$AA@ 00086000     libeay32:t_x509.obj
 0002:00020010       ??_C@_0BP@OGIOIJMK@?$CFs?5?$CF2d?5?$CF02d?3?$CF02d?3?$CF02d?$CF?4?$CKs?5?$CFd?$CFs?$AA@ 00086010     libeay32:t_x509.obj
 0002:00020030       ??_C@_04FIEKMBKB@?5GMT?$AA@ 00086030     libeay32:t_x509.obj
 0002:000200a8       ??_C@_06IJDLPEM@length?$AA@ 000860a8     libeay32:dh_asn1.obj
 0002:00020264       ??_C@_0P@PJJHDFJB@RSA_PSS_PARAMS?$AA@ 00086264     libeay32:rsa_asn1.obj
 0002:00020274       ??_C@_0N@KGDDKMLA@trailerField?$AA@ 00086274     libeay32:rsa_asn1.obj
 0002:00020284       ??_C@_0L@PKGNFOCE@saltLength?$AA@ 00086284     libeay32:rsa_asn1.obj
 0002:00020290       ??_C@_0BB@KKPGFJED@maskGenAlgorithm?$AA@ 00086290     libeay32:rsa_asn1.obj
 0002:000202a4       ??_C@_0O@DHJLLKEK@hashAlgorithm?$AA@ 000862a4     libeay32:rsa_asn1.obj
 0002:000202b4       ??_C@_04BBEMPLKC@iqmp?$AA@ 000862b4     libeay32:rsa_asn1.obj
 0002:000202bc       ??_C@_04PENPDGE@dmq1?$AA@  000862bc     libeay32:rsa_asn1.obj
 0002:000202c4       ??_C@_04OIPJJFD@dmp1?$AA@  000862c4     libeay32:rsa_asn1.obj
 0002:000202cc       ??_C@_01LPLHEDKD@d?$AA@    000862cc     libeay32:rsa_asn1.obj
 0002:000202d0       ??_C@_01KGKMHCOC@e?$AA@    000862d0     libeay32:rsa_asn1.obj
 0002:000202d4       ??_C@_02JPPHBJLD@?2?6?$AA@ 000862d4     libeay32:f_int.obj
 0002:000202d8       ??_C@_02PLJDPFIO@00?$AA@   000862d8     libeay32:f_int.obj
 0002:000202e0       ??_C@_0FA@NCEGPJFE@d?3?2wm653wehh?2platform?2mvv210?2src@ 000862e0     libeay32:p12_utl.obj
 0002:000203e8       ??_C@_02HDBGODGB@?2?2?$AA@ 000863e8     libeay32:a_strex.obj
 0002:000203ec       ??_C@_05JJPGCIKH@?2?$CF02X?$AA@ 000863ec     libeay32:a_strex.obj
 0002:000203f4       ??_C@_01KICIPPFI@?2?$AA@   000863f4     libeay32:a_strex.obj
 0002:000203f8       ??_C@_07FDBPKGOC@?2U?$CF04lX?$AA@ 000863f8     libeay32:a_strex.obj
 0002:00020400       ??_C@_07IOFGAIHD@?2W?$CF08lX?$AA@ 00086400     libeay32:a_strex.obj
 0002:00020408       ??_C@_0EO@POPABNG@d?3?2wm653wehh?2platform?2mvv210?2src@ 00086408     libeay32:a_strex.obj
 0002:00020458       ??_C@_01IPJKGB@?$CD?$AA@   00086458     libeay32:a_strex.obj
 0002:0002045c       ??_C@_01BJJEKLCA@?$CC?$AA@ 0008645c     libeay32:a_strex.obj
 0002:00020460       ??_C@_01NEMOKFLO@?$DN?$AA@ 00086460     libeay32:a_strex.obj
 0002:00020464       ??_C@_03MHLONNLM@?5?$DN?5?$AA@ 00086464     libeay32:a_strex.obj
 0002:00020468       ??_C@_01IHBHIGKO@?0?$AA@   00086468     libeay32:a_strex.obj
 0002:0002046c       ??_C@_01MIFGBAGJ@?$CL?$AA@ 0008646c     libeay32:a_strex.obj
 0002:00020470       ??_C@_02LNAEAIDO@?$DL?5?$AA@ 00086470     libeay32:a_strex.obj
 0002:00020474       ??_C@_03NPBFACHO@?5?$CL?5?$AA@ 00086474     libeay32:a_strex.obj
 0002:00020478       ??_C@_0M@PCEPOGPN@?8?$CI?$CJ?$CL?0?9?4?1?3?$DN?$DP?$AA@ 00086478     libeay32:a_mbstr.obj
 0002:00020484       ??_C@_08EOPONIBF@maxsize?$DN?$AA@ 00086484     libeay32:a_mbstr.obj
 0002:00020490       ??_C@_03JALODAI@?$CFld?$AA@ 00086490     libeay32:a_mbstr.obj
 0002:00020494       ??_C@_08JJBFGKFE@minsize?$DN?$AA@ 00086494     libeay32:a_mbstr.obj
 0002:000204a0       ??_C@_0EO@JLLBAGMI@d?3?2wm653wehh?2platform?2mvv210?2src@ 000864a0     libeay32:a_mbstr.obj
 0002:0002073c       ??_C@_06DPGELLJH@FORMAT?$AA@ 0008673c     libeay32:asn1_gen.obj
 0002:00020744       ??_C@_04HPGCGPG@FORM?$AA@  00086744     libeay32:asn1_gen.obj
 0002:0002074c       ??_C@_07JHDNPBBM@BITWRAP?$AA@ 0008674c     libeay32:asn1_gen.obj
 0002:00020754       ??_C@_07OAIMKKNN@SETWRAP?$AA@ 00086754     libeay32:asn1_gen.obj
 0002:0002075c       ??_C@_07LAEBDLGO@SEQWRAP?$AA@ 0008675c     libeay32:asn1_gen.obj
 0002:00020764       ??_C@_07KIEILLID@OCTWRAP?$AA@ 00086764     libeay32:asn1_gen.obj
 0002:0002076c       ??_C@_08PPMOEJGF@IMPLICIT?$AA@ 0008676c     libeay32:asn1_gen.obj
 0002:00020778       ??_C@_03PKFOHEJD@IMP?$AA@  00086778     libeay32:asn1_gen.obj
 0002:0002077c       ??_C@_08CNKBIFDO@EXPLICIT?$AA@ 0008677c     libeay32:asn1_gen.obj
 0002:00020788       ??_C@_03KKGFKKLA@EXP?$AA@  00086788     libeay32:asn1_gen.obj
 0002:0002078c       ??_C@_03NCPCKDJB@SEQ?$AA@  0008678c     libeay32:asn1_gen.obj
 0002:00020790       ??_C@_0O@DFADMOGA@NUMERICSTRING?$AA@ 00086790     libeay32:asn1_gen.obj
 0002:000207a0       ??_C@_07DBOJJFHC@NUMERIC?$AA@ 000867a0     libeay32:asn1_gen.obj
 0002:000207a8       ??_C@_06GBOJAPHH@GENSTR?$AA@ 000867a8     libeay32:asn1_gen.obj
 0002:000207b0       ??_C@_0O@OIKLOOAP@GeneralString?$AA@ 000867b0     libeay32:asn1_gen.obj
 0002:000207c0       ??_C@_0O@GENPGMAM@TELETEXSTRING?$AA@ 000867c0     libeay32:asn1_gen.obj
 0002:000207d0       ??_C@_09FMBHBANP@T61STRING?$AA@ 000867d0     libeay32:asn1_gen.obj
 0002:000207dc       ??_C@_03HMGPCGIG@T61?$AA@  000867dc     libeay32:asn1_gen.obj
 0002:000207e0       ??_C@_09OMDMMLJJ@PRINTABLE?$AA@ 000867e0     libeay32:asn1_gen.obj
 0002:000207ec       ??_C@_0BA@FKHILLED@PRINTABLESTRING?$AA@ 000867ec     libeay32:asn1_gen.obj
 0002:000207fc       ??_C@_07MCGNPFEO@VISIBLE?$AA@ 000867fc     libeay32:asn1_gen.obj
 0002:00020804       ??_C@_0O@KDAJCBO@VISIBLESTRING?$AA@ 00086804     libeay32:asn1_gen.obj
 0002:00020814       ??_C@_09BIBABMFN@BMPSTRING?$AA@ 00086814     libeay32:asn1_gen.obj
 0002:00020820       ??_C@_03CNFPPDJC@BMP?$AA@  00086820     libeay32:asn1_gen.obj
 0002:00020824       ??_C@_0L@PJIJIHJD@UTF8String?$AA@ 00086824     libeay32:asn1_gen.obj
 0002:00020830       ??_C@_04OOMJJNCF@UTF8?$AA@ 00086830     libeay32:asn1_gen.obj
 0002:00020838       ??_C@_09JOMPLKGB@IA5STRING?$AA@ 00086838     libeay32:asn1_gen.obj
 0002:00020844       ??_C@_03OLMOBCBF@IA5?$AA@  00086844     libeay32:asn1_gen.obj
 0002:00020848       ??_C@_04CBEPCLMK@UNIV?$AA@ 00086848     libeay32:asn1_gen.obj
 0002:00020850       ??_C@_0BA@EJHHDALK@UNIVERSALSTRING?$AA@ 00086850     libeay32:asn1_gen.obj
 0002:00020860       ??_C@_09MBLGEDKL@BITSTRING?$AA@ 00086860     libeay32:asn1_gen.obj
 0002:0002086c       ??_C@_06GOEDGPII@BITSTR?$AA@ 0008686c     libeay32:asn1_gen.obj
 0002:00020874       ??_C@_0M@JIDALIGG@OCTETSTRING?$AA@ 00086874     libeay32:asn1_gen.obj
 0002:00020880       ??_C@_03LBMHMDEB@OCT?$AA@  00086880     libeay32:asn1_gen.obj
 0002:00020884       ??_C@_07EECHABMP@GENTIME?$AA@ 00086884     libeay32:asn1_gen.obj
 0002:0002088c       ??_C@_0BA@LKNBIJBB@GENERALIZEDTIME?$AA@ 0008688c     libeay32:asn1_gen.obj
 0002:0002089c       ??_C@_03JCIJEFNJ@UTC?$AA@  0008689c     libeay32:asn1_gen.obj
 0002:000208a0       ??_C@_07HIOLDDN@UTCTIME?$AA@ 000868a0     libeay32:asn1_gen.obj
 0002:000208a8       ??_C@_06IAMCMNFI@OBJECT?$AA@ 000868a8     libeay32:asn1_gen.obj
 0002:000208b0       ??_C@_03PGJCFEMG@OID?$AA@  000868b0     libeay32:asn1_gen.obj
 0002:000208b4       ??_C@_0L@KNIEMAKM@ENUMERATED?$AA@ 000868b4     libeay32:asn1_gen.obj
 0002:000208c0       ??_C@_04PNKFCNMG@ENUM?$AA@ 000868c0     libeay32:asn1_gen.obj
 0002:000208c8       ??_C@_07EHCIHKNF@INTEGER?$AA@ 000868c8     libeay32:asn1_gen.obj
 0002:000208d0       ??_C@_03JMHEAPMO@INT?$AA@  000868d0     libeay32:asn1_gen.obj
 0002:000208d4       ??_C@_07JDEDMABE@BOOLEAN?$AA@ 000868d4     libeay32:asn1_gen.obj
 0002:000208dc       ??_C@_04PPJDIBFE@BOOL?$AA@ 000868dc     libeay32:asn1_gen.obj
 0002:000208e4       ??_C@_05NALEHOPE@Char?$DN?$AA@ 000868e4     libeay32:asn1_gen.obj
 0002:000208f0       ??_C@_0EP@NAHIMGLP@d?3?2wm653wehh?2platform?2mvv210?2src@ 000868f0     libeay32:asn1_gen.obj
 0002:00020940       ??_C@_07HMNLDFAL@BITLIST?$AA@ 00086940     libeay32:asn1_gen.obj
 0002:00020948       ??_C@_03IECIMIEG@HEX?$AA@  00086948     libeay32:asn1_gen.obj
 0002:0002094c       ??_C@_05CCNLIHFO@ASCII?$AA@ 0008694c     libeay32:asn1_gen.obj
 0002:00020954       ??_C@_04JBGFELJA@tag?$DN?$AA@ 00086954     libeay32:asn1_gen.obj
 0002:0002095c       ??_C@_07IOGEOOAA@string?$DN?$AA@ 0008695c     libeay32:asn1_gen.obj
 0002:00020964       ??_C@_05LKMDHMJN@WIN32?$AA@ 00086964     libeay32:conf_def.obj
 0002:0002096c       ??_C@_0BA@EEIGDPJJ@OpenSSL?5default?$AA@ 0008696c     libeay32:conf_def.obj
 0002:0002097c       CONF_def_version           0008697c     libeay32:conf_def.obj
 0002:000209a8       ??_C@_0EP@FLILJMGH@d?3?2wm653wehh?2platform?2mvv210?2src@ 000869a8     libeay32:conf_def.obj
 0002:000209f8       ??_C@_07PNLMPOMH@?$FL?$FL?$CFs?$FN?$FN?6?$AA@ 000869f8     libeay32:conf_def.obj
 0002:00020a00       ??_C@_0M@CLCLGKAH@?$FL?$CFs?$FN?5?$CFs?$DN?$CFs?6?$AA@ 00086a00     libeay32:conf_def.obj
 0002:00020a0c       ??_C@_05KFEICJBI@line?5?$AA@ 00086a0c     libeay32:conf_def.obj
 0002:00020a14       ??_C@_03OEJENCPE@ENV?$AA@  00086a14     libeay32:conf_api.obj
 0002:00020a18       ??_C@_0L@BFMFELMC@vv?5?$DN?$DN?5NULL?$AA@ 00086a18     libeay32:conf_api.obj
 0002:00020a28       ??_C@_0EP@PLCFAFHA@d?3?2wm653wehh?2platform?2mvv210?2src@ 00086a28     libeay32:conf_api.obj
 0002:00020fa4       ??_C@_0BA@JLGHGCLL@OCSP_SERVICELOC?$AA@ 00086fa4     libeay32:ocsp_asn.obj
 0002:00020fb4       ??_C@_07PAIKCKMF@locator?$AA@ 00086fb4     libeay32:ocsp_asn.obj
 0002:00020fbc       ??_C@_0L@JOKCDHBA@OCSP_CRLID?$AA@ 00086fbc     libeay32:ocsp_asn.obj
 0002:00020fc8       ??_C@_07BDEAJPPO@crlTime?$AA@ 00086fc8     libeay32:ocsp_asn.obj
 0002:00020fd0       ??_C@_06DLEHNACA@crlNum?$AA@ 00086fd0     libeay32:ocsp_asn.obj
 0002:00020fd8       ??_C@_06KAALCHHK@crlUrl?$AA@ 00086fd8     libeay32:ocsp_asn.obj
 0002:00020fe0       ??_C@_0P@CPCDLAO@OCSP_BASICRESP?$AA@ 00086fe0     libeay32:ocsp_asn.obj
 0002:00020ff0       ??_C@_0BA@OOPOFNLG@tbsResponseData?$AA@ 00086ff0     libeay32:ocsp_asn.obj
 0002:00021000       ??_C@_0O@GNAMNHBK@OCSP_RESPDATA?$AA@ 00087000     libeay32:ocsp_asn.obj
 0002:00021010       ??_C@_0BD@LEANHDON@responseExtensions?$AA@ 00087010     libeay32:ocsp_asn.obj
 0002:00021024       ??_C@_09NKKOBILA@responses?$AA@ 00087024     libeay32:ocsp_asn.obj
 0002:00021030       ??_C@_0L@KADAOIGF@producedAt?$AA@ 00087030     libeay32:ocsp_asn.obj
 0002:0002103c       ??_C@_0M@CPBMKBOK@responderId?$AA@ 0008703c     libeay32:ocsp_asn.obj
 0002:00021048       ??_C@_0BA@CEMENBMB@OCSP_SINGLERESP?$AA@ 00087048     libeay32:ocsp_asn.obj
 0002:00021058       ??_C@_0BB@BHCHCCEI@singleExtensions?$AA@ 00087058     libeay32:ocsp_asn.obj
 0002:0002106c       ??_C@_0L@BEDJFPDO@thisUpdate?$AA@ 0008706c     libeay32:ocsp_asn.obj
 0002:00021078       ??_C@_0L@IGGFAGC@certStatus?$AA@ 00087078     libeay32:ocsp_asn.obj
 0002:00021084       ??_C@_06JJGBHEJI@certId?$AA@ 00087084     libeay32:ocsp_asn.obj
 0002:0002108c       ??_C@_0BA@JBJHLNOJ@OCSP_CERTSTATUS?$AA@ 0008708c     libeay32:ocsp_asn.obj
 0002:0002109c       ??_C@_0O@ICNBHFHN@value?4unknown?$AA@ 0008709c     libeay32:ocsp_asn.obj
 0002:000210ac       ??_C@_0O@GCBEBIKI@value?4revoked?$AA@ 000870ac     libeay32:ocsp_asn.obj
 0002:000210bc       ??_C@_0L@MEIDNBL@value?4good?$AA@ 000870bc     libeay32:ocsp_asn.obj
 0002:000210c8       ??_C@_0BB@CFNKINIP@OCSP_REVOKEDINFO?$AA@ 000870c8     libeay32:ocsp_asn.obj
 0002:000210dc       ??_C@_0BB@JHENKMOK@revocationReason?$AA@ 000870dc     libeay32:ocsp_asn.obj
 0002:000210f0       ??_C@_0P@MHJPNEEK@revocationTime?$AA@ 000870f0     libeay32:ocsp_asn.obj
 0002:00021100       ??_C@_0M@JBDPBGBO@OCSP_RESPID?$AA@ 00087100     libeay32:ocsp_asn.obj
 0002:0002110c       ??_C@_0M@OFGLOCKB@value?4byKey?$AA@ 0008710c     libeay32:ocsp_asn.obj
 0002:00021118       ??_C@_0N@OFBDHEPF@value?4byName?$AA@ 00087118     libeay32:ocsp_asn.obj
 0002:00021128       ??_C@_0O@CDJMCFNM@OCSP_RESPONSE?$AA@ 00087128     libeay32:ocsp_asn.obj
 0002:00021138       ??_C@_0O@MMHCFEHM@responseBytes?$AA@ 00087138     libeay32:ocsp_asn.obj
 0002:00021148       ??_C@_0P@GEHCLFGI@responseStatus?$AA@ 00087148     libeay32:ocsp_asn.obj
 0002:00021158       ??_C@_0P@ONFJGMLI@OCSP_RESPBYTES?$AA@ 00087158     libeay32:ocsp_asn.obj
 0002:00021168       ??_C@_08HKMEAON@response?$AA@ 00087168     libeay32:ocsp_asn.obj
 0002:00021174       ??_C@_0N@FPIGADMM@responseType?$AA@ 00087174     libeay32:ocsp_asn.obj
 0002:00021184       ??_C@_0N@PCNOLOBD@OCSP_REQUEST?$AA@ 00087184     libeay32:ocsp_asn.obj
 0002:00021194       ??_C@_0BC@GKDKILGO@optionalSignature?$AA@ 00087194     libeay32:ocsp_asn.obj
 0002:000211a8       ??_C@_0L@OIGCAPNH@tbsRequest?$AA@ 000871a8     libeay32:ocsp_asn.obj
 0002:000211b4       ??_C@_0N@DDBEOJJA@OCSP_REQINFO?$AA@ 000871b4     libeay32:ocsp_asn.obj
 0002:000211c4       ??_C@_0BC@CPAMEDLH@requestExtensions?$AA@ 000871c4     libeay32:ocsp_asn.obj
 0002:000211d8       ??_C@_0M@NNJGDIDJ@requestList?$AA@ 000871d8     libeay32:ocsp_asn.obj
 0002:000211e4       ??_C@_0O@NHDBCFOA@requestorName?$AA@ 000871e4     libeay32:ocsp_asn.obj
 0002:000211f4       ??_C@_0M@IGPHKOAK@OCSP_ONEREQ?$AA@ 000871f4     libeay32:ocsp_asn.obj
 0002:00021200       ??_C@_0BI@PPJDGJOP@singleRequestExtensions?$AA@ 00087200     libeay32:ocsp_asn.obj
 0002:00021218       ??_C@_07GCNFCODJ@reqCert?$AA@ 00087218     libeay32:ocsp_asn.obj
 0002:00021220       ??_C@_0M@OCJEDPID@OCSP_CERTID?$AA@ 00087220     libeay32:ocsp_asn.obj
 0002:0002122c       ??_C@_0O@KPBFDKHB@issuerKeyHash?$AA@ 0008722c     libeay32:ocsp_asn.obj
 0002:0002123c       ??_C@_0P@EKEFMOEP@issuerNameHash?$AA@ 0008723c     libeay32:ocsp_asn.obj
 0002:0002124c       ??_C@_0P@OIPGPNII@OCSP_SIGNATURE?$AA@ 0008724c     libeay32:ocsp_asn.obj
 0002:0002125c       ??_C@_05HFDFJDL@certs?$AA@ 0008725c     libeay32:ocsp_asn.obj
 0002:000212bc       ??_C@_0BA@OPHCNPAP@AUTHORITY_KEYID?$AA@ 000872bc     libeay32:v3_akeya.obj
 0002:000212d0       ??_C@_0EP@FNGDBEGO@d?3?2wm653wehh?2platform?2mvv210?2src@ 000872d0     libeay32:a_verify.obj
 0002:000213bc       ??_C@_0O@DBIGEIKO@NETSCAPE_SPKI?$AA@ 000873bc     libeay32:x_spki.obj
 0002:000213cc       ??_C@_09JJGBLAHB@sig_algor?$AA@ 000873cc     libeay32:x_spki.obj
 0002:000213d8       ??_C@_05NBLLCIIN@spkac?$AA@ 000873d8     libeay32:x_spki.obj
 0002:000213e0       ??_C@_0P@OEBIEFNJ@NETSCAPE_SPKAC?$AA@ 000873e0     libeay32:x_spki.obj
 0002:000213f0       ??_C@_09DBEGHIJJ@challenge?$AA@ 000873f0     libeay32:x_spki.obj
 0002:000219a8       ??_C@_0BC@DLHIINOH@PKCS7_ATTR_VERIFY?$AA@ 000879a8     libeay32:pk7_asn1.obj
 0002:000219bc       ??_C@_0BA@IJMFEGLH@PKCS7_ATTR_SIGN?$AA@ 000879bc     libeay32:pk7_asn1.obj
 0002:000219cc       ??_C@_0BB@ODHHPICH@PKCS7_ATTRIBUTES?$AA@ 000879cc     libeay32:pk7_asn1.obj
 0002:000219e0       ??_C@_0N@NAILNAH@PKCS7_DIGEST?$AA@ 000879e0     libeay32:pk7_asn1.obj
 0002:000219f0       ??_C@_02EBCANADN@md?$AA@   000879f0     libeay32:pk7_asn1.obj
 0002:000219f4       ??_C@_0O@GIFGHKGC@PKCS7_ENCRYPT?$AA@ 000879f4     libeay32:pk7_asn1.obj
 0002:00021a04       ??_C@_0BE@LMHBPFDD@PKCS7_SIGN_ENVELOPE?$AA@ 00087a04     libeay32:pk7_asn1.obj
 0002:00021a18       ??_C@_0BC@INKEDPEG@PKCS7_ENC_CONTENT?$AA@ 00087a18     libeay32:pk7_asn1.obj
 0002:00021a2c       ??_C@_0N@IEAAACJL@content_type?$AA@ 00087a2c     libeay32:pk7_asn1.obj
 0002:00021a3c       ??_C@_0BB@MGPEFENK@PKCS7_RECIP_INFO?$AA@ 00087a3c     libeay32:pk7_asn1.obj
 0002:00021a50       ??_C@_07LBLKCHGJ@enc_key?$AA@ 00087a50     libeay32:pk7_asn1.obj
 0002:00021a58       ??_C@_0O@ODFHHMFC@key_enc_algor?$AA@ 00087a58     libeay32:pk7_asn1.obj
 0002:00021a68       ??_C@_0P@KCJMJLOD@PKCS7_ENVELOPE?$AA@ 00087a68     libeay32:pk7_asn1.obj
 0002:00021a78       ??_C@_08ENNDKKOI@enc_data?$AA@ 00087a78     libeay32:pk7_asn1.obj
 0002:00021a84       ??_C@_0O@HGJALPPJ@recipientinfo?$AA@ 00087a84     libeay32:pk7_asn1.obj
 0002:00021a94       ??_C@_0BI@POAIONGK@PKCS7_ISSUER_AND_SERIAL?$AA@ 00087a94     libeay32:pk7_asn1.obj
 0002:00021aac       ??_C@_0BC@BFFCPPDG@PKCS7_SIGNER_INFO?$AA@ 00087aac     libeay32:pk7_asn1.obj
 0002:00021ac0       ??_C@_0M@NNBFAOJK@unauth_attr?$AA@ 00087ac0     libeay32:pk7_asn1.obj
 0002:00021acc       ??_C@_0L@PJDBOMFC@enc_digest?$AA@ 00087acc     libeay32:pk7_asn1.obj
 0002:00021ad8       ??_C@_0P@KLFHBHJD@digest_enc_alg?$AA@ 00087ad8     libeay32:pk7_asn1.obj
 0002:00021ae8       ??_C@_09PLABOLFJ@auth_attr?$AA@ 00087ae8     libeay32:pk7_asn1.obj
 0002:00021af4       ??_C@_0L@OGBFEEJI@digest_alg?$AA@ 00087af4     libeay32:pk7_asn1.obj
 0002:00021b00       ??_C@_0BC@PMGLGNPO@issuer_and_serial?$AA@ 00087b00     libeay32:pk7_asn1.obj
 0002:00021b14       ??_C@_0N@CKBJFFNF@PKCS7_SIGNED?$AA@ 00087b14     libeay32:pk7_asn1.obj
 0002:00021b24       ??_C@_0M@KEDNAHBP@signer_info?$AA@ 00087b24     libeay32:pk7_asn1.obj
 0002:00021b30       ??_C@_04PHJBACIC@cert?$AA@ 00087b30     libeay32:pk7_asn1.obj
 0002:00021b38       ??_C@_08ODCIAOPM@contents?$AA@ 00087b38     libeay32:pk7_asn1.obj
 0002:00021b44       ??_C@_07MPDKKGPO@md_algs?$AA@ 00087b44     libeay32:pk7_asn1.obj
 0002:00021b4c       ??_C@_05BKMMPIPN@PKCS7?$AA@ 00087b4c     libeay32:pk7_asn1.obj
 0002:00021b54       ??_C@_0M@IDEHBFAL@d?4encrypted?$AA@ 00087b54     libeay32:pk7_asn1.obj
 0002:00021b60       ??_C@_08JOIJLLGO@d?4digest?$AA@ 00087b60     libeay32:pk7_asn1.obj
 0002:00021b6c       ??_C@_0BH@FHPJHCLF@d?4signed_and_enveloped?$AA@ 00087b6c     libeay32:pk7_asn1.obj
 0002:00021b84       ??_C@_0M@CLKMIMCI@d?4enveloped?$AA@ 00087b84     libeay32:pk7_asn1.obj
 0002:00021b90       ??_C@_06GOHGJFCL@d?4sign?$AA@ 00087b90     libeay32:pk7_asn1.obj
 0002:00021c38       ??_C@_0EN@IKCJFOCD@d?3?2wm653wehh?2platform?2mvv210?2src@ 00087c38     libeay32:ecp_smpl.obj
 0002:00022138       ??_C@_0EN@JCJEBHDE@d?3?2wm653wehh?2platform?2mvv210?2src@ 00088138     libeay32:ec2_mult.obj
 0002:000221c8       ??_C@_0EM@KOFLLDDI@d?3?2wm653wehh?2platform?2mvv210?2src@ 000881c8     libeay32:bn_gf2m.obj
 0002:00022258       ??_C@_08OPPGEJIL@X509_VAL?$AA@ 00088258     libeay32:x_val.obj
 0002:0002232c       ??_C@_0P@BDECDGPA@X509_CERT_PAIR?$AA@ 0008832c     libeay32:x_x509a.obj
 0002:0002233c       ??_C@_07KOIEOCCE@reverse?$AA@ 0008833c     libeay32:x_x509a.obj
 0002:00022344       ??_C@_07CJMBKHEI@forward?$AA@ 00088344     libeay32:x_x509a.obj
 0002:0002234c       ??_C@_0O@LJIIOIG@X509_CERT_AUX?$AA@ 0008834c     libeay32:x_x509a.obj
 0002:0002235c       ??_C@_05NKHOCLEE@alias?$AA@ 0008835c     libeay32:x_x509a.obj
 0002:00022364       ??_C@_06JPOFNODM@reject?$AA@ 00088364     libeay32:x_x509a.obj
 0002:0002236c       ??_C@_05BMJJJIHB@trust?$AA@ 0008836c     libeay32:x_x509a.obj
 0002:00022388       PEM_version                00088388     libeay32:pem_lib.obj
 0002:00022434       ??_C@_09FGHEBGDO@?$DMASN1?529?$DO?$AA@ 00088434     libeay32:asn1_par.obj
 0002:00022440       ??_C@_0O@DKDEPFLO@GENERALSTRING?$AA@ 00088440     libeay32:asn1_par.obj
 0002:00022450       ??_C@_0O@MABADFB@GRAPHICSTRING?$AA@ 00088450     libeay32:asn1_par.obj
 0002:00022460       ??_C@_0P@LNAMNBEL@VIDEOTEXSTRING?$AA@ 00088460     libeay32:asn1_par.obj
 0002:00022470       ??_C@_09ENNLEALE@?$DMASN1?515?$DO?$AA@ 00088470     libeay32:asn1_par.obj
 0002:0002247c       ??_C@_09EMBJCKID@?$DMASN1?514?$DO?$AA@ 0008847c     libeay32:asn1_par.obj
 0002:00022488       ??_C@_09EJFGDMAG@?$DMASN1?513?$DO?$AA@ 00088488     libeay32:asn1_par.obj
 0002:00022494       ??_C@_0L@DCBPGANN@UTF8STRING?$AA@ 00088494     libeay32:asn1_par.obj
 0002:000224a0       ??_C@_09EKNCOIGI@?$DMASN1?511?$DO?$AA@ 000884a0     libeay32:asn1_par.obj
 0002:000224ac       ??_C@_04PKFANLLI@REAL?$AA@ 000884ac     libeay32:asn1_par.obj
 0002:000224b4       ??_C@_08JHLDEHEK@EXTERNAL?$AA@ 000884b4     libeay32:asn1_par.obj
 0002:000224c0       ??_C@_0BC@HDOCNDIH@OBJECT?5DESCRIPTOR?$AA@ 000884c0     libeay32:asn1_par.obj
 0002:000224d4       ??_C@_0N@KPGGMDFC@OCTET?5STRING?$AA@ 000884d4     libeay32:asn1_par.obj
 0002:000224e4       ??_C@_0L@EKOKPLKE@BIT?5STRING?$AA@ 000884e4     libeay32:asn1_par.obj
 0002:000224f0       ??_C@_03NCODFONH@EOC?$AA@  000884f0     libeay32:asn1_par.obj
 0002:000224f4       ??_C@_09GPGAJHPD@?$CIunknown?$CJ?$AA@ 000884f4     libeay32:asn1_par.obj
 0002:00022548       ??_C@_0BK@EMDNDBLP@?$CF04d?$CF02d?$CF02d?$CF02d?$CF02d?$CF02dZ?$AA@ 00088548     libeay32:a_gentm.obj
 0002:00022568       ??_C@_0EO@HIOEHCAC@d?3?2wm653wehh?2platform?2mvv210?2src@ 00088568     libeay32:a_gentm.obj
 0002:000225f8       ??_C@_0BK@PMAAGDOP@?$CF02d?$CF02d?$CF02d?$CF02d?$CF02d?$CF02dZ?$AA@ 000885f8     libeay32:a_utctm.obj
 0002:00022618       ??_C@_0EO@DLENMAPA@d?3?2wm653wehh?2platform?2mvv210?2src@ 00088618     libeay32:a_utctm.obj
 0002:00022668       ??_C@_0L@CFEJKCOD@TSA?5server?$AA@ 00088668     libeay32:x509_trs.obj
 0002:00022674       ??_C@_0N@CAJJAOJD@OCSP?5request?$AA@ 00088674     libeay32:x509_trs.obj
 0002:00022684       ??_C@_0P@JHCOMJOI@OCSP?5responder?$AA@ 00088684     libeay32:x509_trs.obj
 0002:00022694       ??_C@_0O@EEPBMPKP@Object?5Signer?$AA@ 00088694     libeay32:x509_trs.obj
 0002:000226a4       ??_C@_0N@OEEPKGPL@S?1MIME?5email?$AA@ 000886a4     libeay32:x509_trs.obj
 0002:000226b4       ??_C@_0L@JNOGJJCA@compatible?$AA@ 000886b4     libeay32:x509_trs.obj
 0002:00022760       ??_C@_0L@MDHNNNKP@ssl_server?$AA@ 00088760     libeay32:x509_vpm.obj
 0002:0002276c       ??_C@_0L@IMDPAGCM@ssl_client?$AA@ 0008876c     libeay32:x509_vpm.obj
 0002:00022778       ??_C@_0L@GGDBHMO@smime_sign?$AA@ 00088778     libeay32:x509_vpm.obj
 0002:00022788       ??_C@_0EL@LDMNJGLH@d?3?2wm653wehh?2platform?2mvv210?2src@ 00088788     libeay32:ec_oct.obj
 0002:00022ac0       ??_C@_0BB@BIPBIGGF@PKCS12_AUTHSAFES?$AA@ 00088ac0     libeay32:p12_asn.obj
 0002:00022ad4       ??_C@_0BA@MCGBLIFE@PKCS12_SAFEBAGS?$AA@ 00088ad4     libeay32:p12_asn.obj
 0002:00022ae4       ??_C@_06CEIPPJF@attrib?$AA@ 00088ae4     libeay32:p12_asn.obj
 0002:00022aec       ??_C@_0P@EECFPDPC@PKCS12_SAFEBAG?$AA@ 00088aec     libeay32:p12_asn.obj
 0002:00022afc       ??_C@_09EBGANBLK@value?4bag?$AA@ 00088afc     libeay32:p12_asn.obj
 0002:00022b08       ??_C@_0M@NFMGHALF@value?4safes?$AA@ 00088b08     libeay32:p12_asn.obj
 0002:00022b14       ??_C@_0P@FIADCDOI@value?4shkeybag?$AA@ 00088b14     libeay32:p12_asn.obj
 0002:00022b24       ??_C@_0N@DOAHKDFI@value?4keybag?$AA@ 00088b24     libeay32:p12_asn.obj
 0002:00022b34       ??_C@_0M@BNPBMADO@PKCS12_BAGS?$AA@ 00088b34     libeay32:p12_asn.obj
 0002:00022b40       ??_C@_0P@OEFHMPFE@value?4sdsicert?$AA@ 00088b40     libeay32:p12_asn.obj
 0002:00022b50       ??_C@_0O@KKFHCJNP@value?4x509crl?$AA@ 00088b50     libeay32:p12_asn.obj
 0002:00022b60       ??_C@_0P@IGODMFMC@value?4x509cert?$AA@ 00088b60     libeay32:p12_asn.obj
 0002:00022b70       ??_C@_0M@PABGOMNF@value?4other?$AA@ 00088b70     libeay32:p12_asn.obj
 0002:00022b7c       ??_C@_0BA@LPMCLHLH@PKCS12_MAC_DATA?$AA@ 00088b7c     libeay32:p12_asn.obj
 0002:00022b8c       ??_C@_05DMLMEGOG@dinfo?$AA@ 00088b8c     libeay32:p12_asn.obj
 0002:00022b94       ??_C@_06CKOLGKJK@PKCS12?$AA@ 00088b94     libeay32:p12_asn.obj
 0002:00022b9c       ??_C@_09HFIAEJAG@authsafes?$AA@ 00088b9c     libeay32:p12_asn.obj
 0002:00022ba8       ??_C@_0CG@ELPNGFCJ@OpenSSL?5?8win32?8?5shared?5library?5m@ 00088ba8     libeay32:dso_win32.obj
 0002:00022bd0       ??_C@_01PKGAHCOL@?$CJ?$AA@ 00088bd0     libeay32:dso_win32.obj
 0002:00022bd4       ??_C@_09CCCHLKJP@filename?$CI?$AA@ 00088bd4     libeay32:dso_win32.obj
 0002:00022be0       ??_C@_0EP@KLFAEIED@d?3?2wm653wehh?2platform?2mvv210?2src@ 00088be0     libeay32:dso_win32.obj
 0002:00022c30       ??_C@_08MFAHALLH@symname?$CI?$AA@ 00088c30     libeay32:dso_win32.obj
 0002:00022c3c       ??_C@_06DAJAKOAL@?$CFs?4dll?$AA@ 00088c3c     libeay32:dso_win32.obj
 0002:00022c44       ??_C@_0BI@GJJDGJIM@CloseToolhelp32Snapshot?$AA@ 00088c44     libeay32:dso_win32.obj
 0002:00022c5c       ??_C@_0O@CNMFJJGO@Module32First?$AA@ 00088c5c     libeay32:dso_win32.obj
 0002:00022c6c       ??_C@_0N@KIGOLBLC@Module32Next?$AA@ 00088c6c     libeay32:dso_win32.obj
 0002:00022c7c       ??_C@_0BJ@JEFKDHMD@CreateToolhelp32Snapshot?$AA@ 00088c7c     libeay32:dso_win32.obj
 0002:00022c98       ??_C@_1BK@NKALKHPI@?$AAT?$AAO?$AAO?$AAL?$AAH?$AAE?$AAL?$AAP?$AA?4?$AAD?$AAL?$AAL?$AA?$AA@ 00088c98     libeay32:dso_win32.obj
 0002:00022cb8       ??_C@_0FA@NNAIMOGG@d?3?2wm653wehh?2platform?2mvv210?2src@ 00088cb8     libeay32:pk7_doit.obj
 0002:00022dd0       ??_C@_0CK@NJACHFBA@ctx?9?$DOlength?5?$DM?$DN?5?$CIint?$CJsizeof?$CIctx?9?$DO@ 00088dd0     libeay32:encode.obj
 0002:00022e00       ??_C@_0EM@EJBFCLJI@d?3?2wm653wehh?2platform?2mvv210?2src@ 00088e00     libeay32:encode.obj
 0002:00022e4c       ??_C@_0BP@KGJPJK@n?5?$DM?5?$CIint?$CJsizeof?$CIctx?9?$DOenc_data?$CJ?$AA@ 00088e4c     libeay32:encode.obj
 0002:00022e6c       ??_C@_04GABBLIPF@asn1?$AA@ 00088e6c     libeay32:bio_asn1.obj
 0002:00022e78       ??_C@_0EP@CPKJKHDC@d?3?2wm653wehh?2platform?2mvv210?2src@ 00088e78     libeay32:bio_asn1.obj
 0002:00022ec8       ??_C@_0BM@FIMHHPDL@ctx?9?$DObuflen?5?$DM?$DN?5ctx?9?$DObufsize?$AA@ 00088ec8     libeay32:bio_asn1.obj
 0002:00022ee4       ??_C@_0BA@CNEIDKOH@base64?5encoding?$AA@ 00088ee4     libeay32:bio_b64.obj
 0002:00022ef8       ??_C@_0EN@CHDAAPPK@d?3?2wm653wehh?2platform?2mvv210?2src@ 00088ef8     libeay32:bio_b64.obj
 0002:00022f48       ??_C@_0CH@JADBFJCL@ctx?9?$DObuf_off?$CLi?5?$DM?5?$CIint?$CJsizeof?$CIctx@ 00088f48     libeay32:bio_b64.obj
 0002:00022f70       ??_C@_0BN@FPMDFEFM@ctx?9?$DObuf_len?5?$DO?$DN?5ctx?9?$DObuf_off?$AA@ 00088f70     libeay32:bio_b64.obj
 0002:00022f90       ??_C@_0BC@BEKEPBME@ctx?9?$DOtmp_len?5?$DM?$DN?53?$AA@ 00088f90     libeay32:bio_b64.obj
 0002:00022fa4       ??_C@_0CG@NALBBCEM@ctx?9?$DObuf_off?5?$DM?$DN?5?$CIint?$CJsizeof?$CIctx?9@ 00088fa4     libeay32:bio_b64.obj
 0002:00022fcc       ??_C@_06NOLCFJLD@i?5?$DM?$DN?5n?$AA@ 00088fcc     libeay32:bio_b64.obj
 0002:00022fd4       ??_C@_0CG@LFOFKIIN@ctx?9?$DObuf_len?5?$DM?$DN?5?$CIint?$CJsizeof?$CIctx?9@ 00088fd4     libeay32:bio_b64.obj
 0002:00022ffc       ??_C@_0CF@ELLFOHKP@ctx?9?$DObuf_off?5?$DM?5?$CIint?$CJsizeof?$CIctx?9?$DO@ 00088ffc     libeay32:bio_b64.obj
 0002:00023024       ??_C@_06HOHPNJLC@buffer?$AA@ 00089024     libeay32:bf_buff.obj
 0002:00023030       ??_C@_0EN@HLACMGKH@d?3?2wm653wehh?2platform?2mvv210?2src@ 00089030     libeay32:bf_buff.obj
 0002:00023080       ??_C@_0EM@IBBLLJFJ@d?3?2wm653wehh?2platform?2mvv210?2src@ 00089080     libeay32:ec2_oct.obj
 0002:000230d0       ??_C@_0EM@OKKDHMMJ@d?3?2wm653wehh?2platform?2mvv210?2src@ 000890d0     libeay32:ecp_oct.obj
 0002:00023120       ??_C@_0FA@FLDKBPHG@d?3?2wm653wehh?2platform?2mvv210?2src@ 00089120     libeay32:pk7_attr.obj
 0002:00023190       ??_C@_0EM@FGPLHJJK@d?3?2wm653wehh?2platform?2mvv210?2src@ 00089190     libeay32:bn_sqrt.obj
 0002:000231dc       ??_C@_0BP@JCDKFDNH@OpenSSL?5default?5user?5interface?$AA@ 000891dc     libeay32:ui_openssl.obj
 0002:00023200       ??_C@_0EP@FLBPENKO@d?3?2wm653wehh?2platform?2mvv210?2src@ 00089200     libeay32:ui_openssl.obj
 0002:00023250       ??_C@_03EPNNLCDK@con?$AA@  00089250     libeay32:ui_openssl.obj
 0002:00023254       ??_C@_0BA@GANIJHKH@Verify?5failure?6?$AA@ 00089254     libeay32:ui_openssl.obj
 0002:00023264       ??_C@_0P@IOLEFIHN@Verifying?5?9?5?$CFs?$AA@ 00089264     libeay32:ui_openssl.obj
 0002:00023274       ??_C@_0BG@KLEAJEFJ@Illegal?5byte?5sequence?$AA@ 00089274     wcecompatex:string_extras.obj
 0002:0002328c       ??_C@_0BE@ICMCHPHH@Directory?5not?5empty?$AA@ 0008928c     wcecompatex:string_extras.obj
 0002:000232a0       ??_C@_0BJ@IHEHINLI@Function?5not?5implemented?$AA@ 000892a0     wcecompatex:string_extras.obj
 0002:000232bc       ??_C@_0BD@CLHBCGPB@No?5locks?5available?$AA@ 000892bc     wcecompatex:string_extras.obj
 0002:000232d0       ??_C@_0BC@BEDIHIDK@Filename?5too?5long?$AA@ 000892d0     wcecompatex:string_extras.obj
 0002:000232e4       ??_C@_0BK@JAEBMJJM@Resource?5deadlock?5avoided?$AA@ 000892e4     wcecompatex:string_extras.obj
 0002:00023300       ??_C@_0BB@FCBJFCAJ@Result?5too?5large?$AA@ 00089300     wcecompatex:string_extras.obj
 0002:00023314       ??_C@_0N@MMJPGLJK@Domain?5error?$AA@ 00089314     wcecompatex:string_extras.obj
 0002:00023324       ??_C@_0M@LHEPIIOM@Broken?5pipe?$AA@ 00089324     wcecompatex:string_extras.obj
 0002:00023330       ??_C@_0P@PKCJJLLM@Too?5many?5links?$AA@ 00089330     wcecompatex:string_extras.obj
 0002:00023340       ??_C@_0BG@DDBFNKBH@Read?9only?5file?5system?$AA@ 00089340     wcecompatex:string_extras.obj
 0002:00023358       ??_C@_0N@FEHLOILP@Invalid?5seek?$AA@ 00089358     wcecompatex:string_extras.obj
 0002:00023368       ??_C@_0BI@FEALHKLD@No?5space?5left?5on?5device?$AA@ 00089368     wcecompatex:string_extras.obj
 0002:00023380       ??_C@_0P@LFMMIPAE@File?5too?5large?$AA@ 00089380     wcecompatex:string_extras.obj
 0002:00023390       ??_C@_0CE@ONOKNLPF@Inappropriate?5I?1O?5control?5operat@ 00089390     wcecompatex:string_extras.obj
 0002:000233b4       ??_C@_0BE@INBJMKGG@Too?5many?5open?5files?$AA@ 000893b4     wcecompatex:string_extras.obj
 0002:000233c8       ??_C@_0BO@IIFBODJE@Too?5many?5open?5files?5in?5system?$AA@ 000893c8     wcecompatex:string_extras.obj
 0002:000233e8       ??_C@_0BB@HMGGCEBG@Invalid?5argument?$AA@ 000893e8     wcecompatex:string_extras.obj
 0002:000233fc       ??_C@_0P@NDHGCGKE@Is?5a?5directory?$AA@ 000893fc     wcecompatex:string_extras.obj
 0002:0002340c       ??_C@_0BA@CJBACOOL@Not?5a?5directory?$AA@ 0008940c     wcecompatex:string_extras.obj
 0002:0002341c       ??_C@_0P@NLEIANHE@No?5such?5device?$AA@ 0008941c     wcecompatex:string_extras.obj
 0002:0002342c       ??_C@_0O@OAMDNOCP@Improper?5link?$AA@ 0008942c     wcecompatex:string_extras.obj
 0002:0002343c       ??_C@_0M@NAAJNNGH@File?5exists?$AA@ 0008943c     wcecompatex:string_extras.obj
 0002:00023448       ??_C@_0BI@PDLELJEJ@Device?5or?5resource?5busy?$AA@ 00089448     wcecompatex:string_extras.obj
 0002:00023460       ??_C@_0O@NIPGCINC@Unknown?5error?$AA@ 00089460     wcecompatex:string_extras.obj
 0002:00023470       ??_C@_0M@LOEHLCJD@Bad?5address?$AA@ 00089470     wcecompatex:string_extras.obj
 0002:0002347c       ??_C@_0BC@HFNFNKAI@Permission?5denied?$AA@ 0008947c     wcecompatex:string_extras.obj
 0002:00023490       ??_C@_0BC@BAKIAKOF@Not?5enough?5memory?$AA@ 00089490     wcecompatex:string_extras.obj
 0002:000234a4       ??_C@_0CB@EPFKGNAK@Resource?5temporarily?5unavailable@ 000894a4     wcecompatex:string_extras.obj
 0002:000234c8       ??_C@_0BD@LOHELEP@No?5child?5processes?$AA@ 000894c8     wcecompatex:string_extras.obj
 0002:000234dc       ??_C@_0BE@NFGDDCEF@Bad?5file?5descriptor?$AA@ 000894dc     wcecompatex:string_extras.obj
 0002:000234f0       ??_C@_0BC@HKPNECK@Exec?5format?5error?$AA@ 000894f0     wcecompatex:string_extras.obj
 0002:00023504       ??_C@_0BC@MFFGCDFL@Arg?5list?5too?5long?$AA@ 00089504     wcecompatex:string_extras.obj
 0002:00023518       ??_C@_0BK@DPKMCKJ@No?5such?5device?5or?5address?$AA@ 00089518     wcecompatex:string_extras.obj
 0002:00023534       ??_C@_09FIANMNHE@I?1O?5error?$AA@ 00089534     wcecompatex:string_extras.obj
 0002:00023540       ??_C@_0BI@EAGLFFDI@Interrupted?5system?5call?$AA@ 00089540     wcecompatex:string_extras.obj
 0002:00023558       ??_C@_0BA@FKIAIBGA@No?5such?5process?$AA@ 00089558     wcecompatex:string_extras.obj
 0002:00023568       ??_C@_0BK@FMDHKPNF@No?5such?5file?5or?5directory?$AA@ 00089568     wcecompatex:string_extras.obj
 0002:00023584       ??_C@_0BI@BJFCGOHL@Operation?5not?5permitted?$AA@ 00089584     wcecompatex:string_extras.obj
 0002:0002359c       ??_C@_08INEPGKHH@No?5error?$AA@ 0008959c     wcecompatex:string_extras.obj
 0002:000235a8       ??_C@_08EDHMEBNP@December?$AA@ 000895a8     wcecompatex:time.obj
 0002:000235b4       ??_C@_08HCHEGEOA@November?$AA@ 000895b4     wcecompatex:time.obj
 0002:000235c0       ??_C@_07JJNFCEND@October?$AA@ 000895c0     wcecompatex:time.obj
 0002:000235c8       ??_C@_09BHHEALKD@September?$AA@ 000895c8     wcecompatex:time.obj
 0002:000235d4       ??_C@_06LBBHFDDG@August?$AA@ 000895d4     wcecompatex:time.obj
 0002:000235dc       ??_C@_04MIEPOIFP@July?$AA@ 000895dc     wcecompatex:time.obj
 0002:000235e4       ??_C@_04CNLMGBGM@June?$AA@ 000895e4     wcecompatex:time.obj
 0002:000235ec       ??_C@_05DMJDNLEJ@April?$AA@ 000895ec     wcecompatex:time.obj
 0002:000235f4       ??_C@_05HPCKOFNC@March?$AA@ 000895f4     wcecompatex:time.obj
 0002:000235fc       ??_C@_08GNJGEPFN@February?$AA@ 000895fc     wcecompatex:time.obj
 0002:00023608       ??_C@_07CGJPFGJA@January?$AA@ 00089608     wcecompatex:time.obj
 0002:00023610       ??_C@_08INBOOONO@Saturday?$AA@ 00089610     wcecompatex:time.obj
 0002:0002361c       ??_C@_06JECMNKMI@Friday?$AA@ 0008961c     wcecompatex:time.obj
 0002:00023624       ??_C@_08HACCIKIA@Thursday?$AA@ 00089624     wcecompatex:time.obj
 0002:00023630       ??_C@_09DLIGFAKA@Wednesday?$AA@ 00089630     wcecompatex:time.obj
 0002:0002363c       ??_C@_07BAAGCFCM@Tuesday?$AA@ 0008963c     wcecompatex:time.obj
 0002:00023644       ??_C@_06JLEDEDGH@Monday?$AA@ 00089644     wcecompatex:time.obj
 0002:0002364c       ??_C@_06OOPIFAJ@Sunday?$AA@ 0008964c     wcecompatex:time.obj
 0002:00023654       ??_C@_03FEFJNEK@Sat?$AA@   00089654     wcecompatex:time.obj
 0002:00023658       ??_C@_03IDIOELNC@Fri?$AA@  00089658     wcecompatex:time.obj
 0002:0002365c       ??_C@_03IOFIKPDN@Thu?$AA@  0008965c     wcecompatex:time.obj
 0002:00023660       ??_C@_03MHOMLAJA@Wed?$AA@  00089660     wcecompatex:time.obj
 0002:00023664       ??_C@_03NAGEINEP@Tue?$AA@  00089664     wcecompatex:time.obj
 0002:00023668       ??_C@_03PDAGKDH@Mon?$AA@   00089668     wcecompatex:time.obj
 0002:0002366c       ??_C@_03KOEHGMDN@Sun?$AA@  0008966c     wcecompatex:time.obj
 0002:0002368c       __IMPORT_DESCRIPTOR_COREDLL 0008968c     coredll:COREDLL.dll
 0002:000236a0       __NULL_IMPORT_DESCRIPTOR   000896a0     coredll:COREDLL.dll
 0003:00000000       __imp_sprintf              0008a000     coredll:COREDLL.dll
 0003:00000004       __imp_printf               0008a004     coredll:COREDLL.dll
 0003:00000008       __imp_strcmp               0008a008     coredll:COREDLL.dll
 0003:0000000c       __imp_memset               0008a00c     coredll:COREDLL.dll
 0003:00000010       __imp_memcpy               0008a010     coredll:COREDLL.dll
 0003:00000014       __imp___itod               0008a014     coredll:COREDLL.dll
 0003:00000018       __imp___muld               0008a018     coredll:COREDLL.dll
 0003:0000001c       __imp_memcmp               0008a01c     coredll:COREDLL.dll
 0003:00000020       __imp_MessageBoxW          0008a020     coredll:COREDLL.dll
 0003:00000024       __imp__vsnwprintf          0008a024     coredll:COREDLL.dll
 0003:00000028       __imp_MultiByteToWideChar  0008a028     coredll:COREDLL.dll
 0003:0000002c       __imp_strlen               0008a02c     coredll:COREDLL.dll
 0003:00000030       __imp__getstdfilex         0008a030     coredll:COREDLL.dll
 0003:00000034       __imp_fprintf              0008a034     coredll:COREDLL.dll
 0003:00000038       __imp_free                 0008a038     coredll:COREDLL.dll
 0003:0000003c       __imp_realloc              0008a03c     coredll:COREDLL.dll
 0003:00000040       __imp_malloc               0008a040     coredll:COREDLL.dll
 0003:00000044       __imp_strcpy               0008a044     coredll:COREDLL.dll
 0003:00000048       __imp_strncpy              0008a048     coredll:COREDLL.dll
 0003:0000004c       __imp_strchr               0008a04c     coredll:COREDLL.dll
 0003:00000050       __imp_memchr               0008a050     coredll:COREDLL.dll
 0003:00000054       __imp_qsort                0008a054     coredll:COREDLL.dll
 0003:00000058       __imp__isctype             0008a058     coredll:COREDLL.dll
 0003:0000005c       __imp_atoi                 0008a05c     coredll:COREDLL.dll
 0003:00000060       __imp___rt_udiv            0008a060     coredll:COREDLL.dll
 0003:00000064       __imp___ltd                0008a064     coredll:COREDLL.dll
 0003:00000068       __imp___negd               0008a068     coredll:COREDLL.dll
 0003:0000006c       __imp___dtoi               0008a06c     coredll:COREDLL.dll
 0003:00000070       __imp___subd               0008a070     coredll:COREDLL.dll
 0003:00000074       __imp___ged                0008a074     coredll:COREDLL.dll
 0003:00000078       __imp___rt_udiv64by64      0008a078     coredll:COREDLL.dll
 0003:0000007c       __imp___rt_urem64by64      0008a07c     coredll:COREDLL.dll
 0003:00000080       __imp_tolower              0008a080     coredll:COREDLL.dll
 0003:00000084       __imp_strncmp              0008a084     coredll:COREDLL.dll
 0003:00000088       __imp_sscanf               0008a088     coredll:COREDLL.dll
 0003:0000008c       __imp__strnicmp            0008a08c     coredll:COREDLL.dll
 0003:00000090       __imp_fclose               0008a090     coredll:COREDLL.dll
 0003:00000094       __imp_GetLastError         0008a094     coredll:COREDLL.dll
 0003:00000098       __imp_ferror               0008a098     coredll:COREDLL.dll
 0003:0000009c       __imp_fread                0008a09c     coredll:COREDLL.dll
 0003:000000a0       __imp_fwrite               0008a0a0     coredll:COREDLL.dll
 0003:000000a4       __imp__setmode             0008a0a4     coredll:COREDLL.dll
 0003:000000a8       __imp__fileno              0008a0a8     coredll:COREDLL.dll
 0003:000000ac       __imp_fopen                0008a0ac     coredll:COREDLL.dll
 0003:000000b0       __imp_fseek                0008a0b0     coredll:COREDLL.dll
 0003:000000b4       __imp_ftell                0008a0b4     coredll:COREDLL.dll
 0003:000000b8       __imp_feof                 0008a0b8     coredll:COREDLL.dll
 0003:000000bc       __imp_fflush               0008a0bc     coredll:COREDLL.dll
 0003:000000c0       __imp_strcat               0008a0c0     coredll:COREDLL.dll
 0003:000000c4       __imp_fgets                0008a0c4     coredll:COREDLL.dll
 0003:000000c8       __imp__wfopen              0008a0c8     coredll:COREDLL.dll
 0003:000000cc       __imp___rt_sdiv            0008a0cc     coredll:COREDLL.dll
 0003:000000d0       __imp___addd               0008a0d0     coredll:COREDLL.dll
 0003:000000d4       __imp_strrchr              0008a0d4     coredll:COREDLL.dll
 0003:000000d8       __imp_GetTickCount         0008a0d8     coredll:COREDLL.dll
 0003:000000dc       __imp_QueryPerformanceCounter 0008a0dc     coredll:COREDLL.dll
 0003:000000e0       __imp_GlobalMemoryStatus   0008a0e0     coredll:COREDLL.dll
 0003:000000e4       __imp_CryptReleaseContext  0008a0e4     coredll:COREDLL.dll
 0003:000000e8       __imp_CryptGenRandom       0008a0e8     coredll:COREDLL.dll
 0003:000000ec       __imp_CryptAcquireContextW 0008a0ec     coredll:COREDLL.dll
 0003:000000f0       __imp_GetVersionExW        0008a0f0     coredll:COREDLL.dll
 0003:000000f4       __imp_strtoul              0008a0f4     coredll:COREDLL.dll
 0003:000000f8       __imp__stricmp             0008a0f8     coredll:COREDLL.dll
 0003:000000fc       __imp_memmove              0008a0fc     coredll:COREDLL.dll
 0003:00000100       __imp_LoadLibraryW         0008a100     coredll:COREDLL.dll
 0003:00000104       __imp_SetLastError         0008a104     coredll:COREDLL.dll
 0003:00000108       __imp_FreeLibrary          0008a108     coredll:COREDLL.dll
 0003:0000010c       __imp_GetProcAddressA      0008a10c     coredll:COREDLL.dll
 0003:00000110       __imp_strstr               0008a110     coredll:COREDLL.dll
 0003:00000114       __imp_WideCharToMultiByte  0008a114     coredll:COREDLL.dll
 0003:00000118       __imp_fputs                0008a118     coredll:COREDLL.dll
 0003:0000011c       __imp_SystemTimeToFileTime 0008a11c     coredll:COREDLL.dll
 0003:00000120       __imp_GetSystemTime        0008a120     coredll:COREDLL.dll
 0003:00000124       __imp_FileTimeToSystemTime 0008a124     coredll:COREDLL.dll
 0003:00000128       __imp_LocalFree            0008a128     coredll:COREDLL.dll
 0003:0000012c       __imp__XcptFilter          0008a12c     coredll:COREDLL.dll
 0003:00000130       __imp___C_specific_handler 0008a130     coredll:COREDLL.dll
 0003:00000134       __imp_FindFirstFileW       0008a134     coredll:COREDLL.dll
 0003:00000138       __imp_FindClose            0008a138     coredll:COREDLL.dll
 0003:0000013c       __imp_FindNextFileW        0008a13c     coredll:COREDLL.dll
 0003:00000140       __imp_GetModuleFileNameW   0008a140     coredll:COREDLL.dll
 0003:00000144       \177COREDLL_NULL_THUNK_DATA 0008a144     coredll:COREDLL.dll
 0003:00000148       __xc_a                     0008a148     corelibc:crt0init.obj
 0003:0000014c       __xc_z                     0008a14c     corelibc:crt0init.obj
 0003:00000150       __xi_a                     0008a150     corelibc:crt0init.obj
 0003:00000154       __xi_z                     0008a154     corelibc:crt0init.obj
 0003:00000158       __xp_a                     0008a158     corelibc:crt0init.obj
 0003:0000015c       __xp_z                     0008a15c     corelibc:crt0init.obj
 0003:00000160       __xt_a                     0008a160     corelibc:crt0init.obj
 0003:00000164       __xt_z                     0008a164     corelibc:crt0init.obj
 0003:00000640       rand_ssleay_meth           0008a640     libeay32:md_rand.obj
 0003:00000a88       default_pctx               0008aa88     libeay32:tasn_prn.obj
 0003:00001180       ?messages@@3PAPADA         0008b180     wcecompatex:string_extras.obj
 0003:00001390       OPENSSL_NONPIC_relocated   0008b390     libeay32:cryptlib.obj
 0003:000013d4       app_pkey_methods           0008b3d4     libeay32:pmeth_lib.obj
 0003:00002a60       cleanse_ctr                0008ca60     libeay32:mem_clr.obj
 0003:00002c68       obj_cleanup_defer          0008cc68     libeay32:obj_dat.obj
 0003:000032f4       _environ                   0008d2f4     wcecompatex:env.obj
 0003:000032f8       _wenviron                  0008d2f8     wcecompatex:env.obj
 0003:000032fc       ?num_env_vars@@3HA         0008d2fc     wcecompatex:env.obj
 0003:00003340       errno                      0008d340     wcecompatex:errno.obj
 0003:00003344       ?_timezone@@3HA            0008d344     wcecompatex:timeb.obj
 0003:00003348       ?altzone@@3HA              0008d348     wcecompatex:timeb.obj
 0003:0000334c       ?timezone@@3HA             0008d34c     wcecompatex:timeb.obj
 0003:00003350       sigx_app                   0008d350     <common>
 0003:00003354       sig_app                    0008d354     <common>
 0003:00003358       __onexitend                0008d358     <common>
 0003:0000335c       __onexitbegin              0008d35c     <common>
 0003:00003360       _exitflag                  0008d360     <common>

 entry point at        0001:00053af0

 Static symbols

 0001:000005a0       init                       000115a0 f   libeay32:m_md5.obj
 0001:000005b4       update                     000115b4 f   libeay32:m_md5.obj
 0001:000005c8       final                      000115c8 f   libeay32:m_md5.obj
 0001:00002af4       default_malloc_ex          00013af4 f   libeay32:mem.obj
 0001:00002b14       default_realloc_ex         00013b14 f   libeay32:mem.obj
 0001:00002b34       default_malloc_locked_ex   00013b34 f   libeay32:mem.obj
 0001:00002ef8       pmeth_cmp_BSEARCH_CMP_FN   00013ef8 f   libeay32:pmeth_lib.obj
 0001:00003490       err_fns_check              00014490 f   libeay32:err.obj
 0001:000034f8       err_string_data_LHASH_HASH 000144f8 f   libeay32:err.obj
 0001:00003544       err_string_data_LHASH_COMP 00014544 f   libeay32:err.obj
 0001:00003554       int_err_get                00014554 f   libeay32:err.obj
 0001:00003600       int_err_del                00014600 f   libeay32:err.obj
 0001:0000365c       int_err_get_item           0001465c f   libeay32:err.obj
 0001:000036e0       int_err_set_item           000146e0 f   libeay32:err.obj
 0001:00003760       int_err_del_item           00014760 f   libeay32:err.obj
 0001:000037e4       err_state_LHASH_HASH       000147e4 f   libeay32:err.obj
 0001:000037fc       err_state_LHASH_COMP       000147fc f   libeay32:err.obj
 0001:0000380c       int_thread_get             0001480c f   libeay32:err.obj
 0001:000038c4       int_thread_release         000148c4 f   libeay32:err.obj
 0001:00003920       int_thread_get_item        00014920 f   libeay32:err.obj
 0001:000039c4       int_thread_set_item        000149c4 f   libeay32:err.obj
 0001:00003a68       int_err_get_next_lib       00014a68 f   libeay32:err.obj
 0001:00003ac0       ERR_STATE_free             00014ac0 f   libeay32:err.obj
 0001:00003e78       int_thread_del_item        00014e78 f   libeay32:err.obj
 0001:00004710       internal_find              00015710 f   libeay32:stack.obj
 0001:0000524c       sn_cmp_BSEARCH_CMP_FN      0001624c f   libeay32:obj_dat.obj
 0001:00005278       ln_cmp_BSEARCH_CMP_FN      00016278 f   libeay32:obj_dat.obj
 0001:00005554       obj_cmp_BSEARCH_CMP_FN     00016554 f   libeay32:obj_dat.obj
 0001:00005d90       rsa_get_public_exp         00016d90 f   libeay32:rsa_crpt.obj
 0001:000061c8       pkey_cmac_init             000171c8 f   libeay32:cm_pmeth.obj
 0001:000061f8       pkey_cmac_copy             000171f8 f   libeay32:cm_pmeth.obj
 0001:0000623c       pkey_cmac_cleanup          0001723c f   libeay32:cm_pmeth.obj
 0001:00006250       pkey_cmac_keygen           00017250 f   libeay32:cm_pmeth.obj
 0001:000062b0       int_update                 000172b0 f   libeay32:cm_pmeth.obj
 0001:000062d8       cmac_signctx_init          000172d8 f   libeay32:cm_pmeth.obj
 0001:00006304       cmac_signctx               00017304 f   libeay32:cm_pmeth.obj
 0001:00006318       pkey_cmac_ctrl             00017318 f   libeay32:cm_pmeth.obj
 0001:000063ec       pkey_cmac_ctrl_str         000173ec f   libeay32:cm_pmeth.obj
 0001:000064fc       pkey_hmac_init             000174fc f   libeay32:hm_pmeth.obj
 0001:00006560       pkey_hmac_copy             00017560 f   libeay32:hm_pmeth.obj
 0001:000065e8       pkey_hmac_cleanup          000175e8 f   libeay32:hm_pmeth.obj
 0001:00006634       pkey_hmac_keygen           00017634 f   libeay32:hm_pmeth.obj
 0001:00006688       int_update                 00017688 f   libeay32:hm_pmeth.obj
 0001:000066b4       hmac_signctx_init          000176b4 f   libeay32:hm_pmeth.obj
 0001:000066f4       hmac_signctx               000176f4 f   libeay32:hm_pmeth.obj
 0001:00006764       pkey_hmac_ctrl             00017764 f   libeay32:hm_pmeth.obj
 0001:000067fc       pkey_hmac_ctrl_str         000177fc f   libeay32:hm_pmeth.obj
 0001:000068bc       pkey_ec_init               000178bc f   libeay32:ec_pmeth.obj
 0001:00006900       pkey_ec_copy               00017900 f   libeay32:ec_pmeth.obj
 0001:00006960       pkey_ec_cleanup            00017960 f   libeay32:ec_pmeth.obj
 0001:00006990       pkey_ec_sign               00017990 f   libeay32:ec_pmeth.obj
 0001:00006a54       pkey_ec_verify             00017a54 f   libeay32:ec_pmeth.obj
 0001:00006ab4       pkey_ec_derive             00017ab4 f   libeay32:ec_pmeth.obj
 0001:00006b7c       pkey_ec_ctrl               00017b7c f   libeay32:ec_pmeth.obj
 0001:00006cc8       pkey_ec_ctrl_str           00017cc8 f   libeay32:ec_pmeth.obj
 0001:00006d74       pkey_ec_paramgen           00017d74 f   libeay32:ec_pmeth.obj
 0001:00006e08       pkey_ec_keygen             00017e08 f   libeay32:ec_pmeth.obj
 0001:00006e9c       pkey_dsa_init              00017e9c f   libeay32:dsa_pmeth.obj
 0001:00006f04       pkey_dsa_copy              00017f04 f   libeay32:dsa_pmeth.obj
 0001:00006f58       pkey_dsa_cleanup           00017f58 f   libeay32:dsa_pmeth.obj
 0001:00006f74       pkey_dsa_sign              00017f74 f   libeay32:dsa_pmeth.obj
 0001:00006fe8       pkey_dsa_verify            00017fe8 f   libeay32:dsa_pmeth.obj
 0001:00007048       pkey_dsa_ctrl              00018048 f   libeay32:dsa_pmeth.obj
 0001:00007240       pkey_dsa_ctrl_str          00018240 f   libeay32:dsa_pmeth.obj
 0001:00007348       pkey_dsa_paramgen          00018348 f   libeay32:dsa_pmeth.obj
 0001:000073f0       pkey_dsa_keygen            000183f0 f   libeay32:dsa_pmeth.obj
 0001:00007484       pkey_dh_init               00018484 f   libeay32:dh_pmeth.obj
 0001:000074e4       pkey_dh_copy               000184e4 f   libeay32:dh_pmeth.obj
 0001:00007530       pkey_dh_cleanup            00018530 f   libeay32:dh_pmeth.obj
 0001:0000754c       pkey_dh_ctrl               0001854c f   libeay32:dh_pmeth.obj
 0001:000075a0       pkey_dh_ctrl_str           000185a0 f   libeay32:dh_pmeth.obj
 0001:0000765c       pkey_dh_paramgen           0001865c f   libeay32:dh_pmeth.obj
 0001:000076e8       pkey_dh_keygen             000186e8 f   libeay32:dh_pmeth.obj
 0001:00007778       pkey_dh_derive             00018778 f   libeay32:dh_pmeth.obj
 0001:000077f4       pkey_rsa_init              000187f4 f   libeay32:rsa_pmeth.obj
 0001:0000786c       pkey_rsa_copy              0001886c f   libeay32:rsa_pmeth.obj
 0001:000078dc       setup_tbuf                 000188dc f   libeay32:rsa_pmeth.obj
 0001:00007928       pkey_rsa_cleanup           00018928 f   libeay32:rsa_pmeth.obj
 0001:00007968       pkey_rsa_sign              00018968 f   libeay32:rsa_pmeth.obj
 0001:00007b50       pkey_rsa_verifyrecover     00018b50 f   libeay32:rsa_pmeth.obj
 0001:00007d04       pkey_rsa_verify            00018d04 f   libeay32:rsa_pmeth.obj
 0001:00007e7c       pkey_rsa_encrypt           00018e7c f   libeay32:rsa_pmeth.obj
 0001:00007ec8       pkey_rsa_decrypt           00018ec8 f   libeay32:rsa_pmeth.obj
 0001:00007f14       check_padding_md           00018f14 f   libeay32:rsa_pmeth.obj
 0001:00007fa4       pkey_rsa_ctrl              00018fa4 f   libeay32:rsa_pmeth.obj
 0001:000082e4       pkey_rsa_ctrl_str          000192e4 f   libeay32:rsa_pmeth.obj
 0001:0000855c       pkey_rsa_keygen            0001955c f   libeay32:rsa_pmeth.obj
 0001:0000888c       pkey_set_type              0001988c f   libeay32:p_lib.obj
 0001:00008d28       int_cb_LHASH_DOALL_ARG     00019d28 f   libeay32:eng_table.obj
 0001:00008f90       app_info_LHASH_COMP        00019f90 f   libeay32:mem_dbg.obj
 0001:00008fa0       app_info_LHASH_HASH        00019fa0 f   libeay32:mem_dbg.obj
 0001:00008fd8       pop_info                   00019fd8 f   libeay32:mem_dbg.obj
 0001:000092a0       expand                     0001a2a0 f   libeay32:lhash.obj
 0001:000093d8       contract                   0001a3d8 f   libeay32:lhash.obj
 0001:000094d0       getrn                      0001a4d0 f   libeay32:lhash.obj
 0001:00009900       roundv                     0001a900 f   libeay32:b_print.obj
 0001:00009990       doapr_outch                0001a990 f   libeay32:b_print.obj
 0001:00009a84       fmtstr                     0001aa84 f   libeay32:b_print.obj
 0001:00009bb4       fmtint                     0001abb4 f   libeay32:b_print.obj
 0001:00009ef4       fmtfp                      0001aef4 f   libeay32:b_print.obj
 0001:0000a3e4       _dopr                      0001b3e4 f   libeay32:b_print.obj
 0001:0000abd8       asn1_get_length            0001bbd8 f   libeay32:asn1_lib.obj
 0001:0000be64       bn_expand_internal         0001ce64 f   libeay32:bn_lib.obj
 0001:0000e474       BN_POOL_get                0001f474 f   libeay32:bn_ctx.obj
 0001:0000e860       euclid                     0001f860 f   libeay32:bn_gcd.obj
 0001:0000e98c       BN_mod_inverse_no_branch   0001f98c f   libeay32:bn_gcd.obj
 0001:00010130       asn1_check_tlen            00021130 f   libeay32:tasn_dec.obj
 0001:00010330       asn1_template_ex_d2i       00021330 f   libeay32:tasn_dec.obj
 0001:0001054c       asn1_find_end              0002154c f   libeay32:tasn_dec.obj
 0001:000106a0       asn1_collect               000216a0 f   libeay32:tasn_dec.obj
 0001:000108fc       asn1_d2i_ex_primitive      000218fc f   libeay32:tasn_dec.obj
 0001:000116c4       asn1_template_noexp_d2i    000226c4 f   libeay32:tasn_dec.obj
 0001:00011ae0       asn1_template_ex_i2d       00022ae0 f   libeay32:tasn_enc.obj
 0001:00011e00       der_cmp                    00022e00 f   libeay32:tasn_enc.obj
 0001:00012020       asn1_i2d_ex_primitive      00023020 f   libeay32:tasn_enc.obj
 0001:000124f8       asn1_set_seq_out           000234f8 f   libeay32:tasn_enc.obj
 0001:00012740       asn1_item_flags_i2d        00023740 f   libeay32:tasn_enc.obj
 0001:00012934       asn1_item_ex_combine_new   00023934 f   libeay32:tasn_new.obj
 0001:00012c14       asn1_item_clear            00023c14 f   libeay32:tasn_new.obj
 0001:00012f64       asn1_item_combine_free     00023f64 f   libeay32:tasn_fre.obj
 0001:000132c8       obj_name_LHASH_HASH        000242c8 f   libeay32:o_names.obj
 0001:00013328       obj_name_LHASH_COMP        00024328 f   libeay32:o_names.obj
 0001:000134b0       sig_cmp_BSEARCH_CMP_FN     000244b0 f   libeay32:obj_xref.obj
 0001:000134c0       sigx_cmp_BSEARCH_CMP_FN    000244c0 f   libeay32:obj_xref.obj
 0001:00013630       pbe2_cmp_BSEARCH_CMP_FN    00024630 f   libeay32:evp_pbe.obj
 0001:0001449c       strip_spaces               0002549c f   libeay32:v3_utl.obj
 0001:00014814       ipv4_from_asc              00025814 f   libeay32:v3_utl.obj
 0001:00014bb4       ipv6_cb                    00025bb4 f   libeay32:v3_utl.obj
 0001:00014cc4       ipv6_from_asc              00025cc4 f   libeay32:v3_utl.obj
 0001:00016a7c       ecdsa_data_new             00027a7c f   libeay32:ecs_lib.obj
 0001:00016b70       ecdsa_data_dup             00027b70 f   libeay32:ecs_lib.obj
 0001:00016b90       ecdsa_data_free            00027b90 f   libeay32:ecs_lib.obj
 0001:00017254       ec_group_new_from_data     00028254 f   libeay32:ec_curve.obj
 0001:00017730       sig_cb                     00028730 f   libeay32:dsa_asn1.obj
 0001:000177c4       dsa_cb                     000287c4 f   libeay32:dsa_asn1.obj
 0001:00018420       trans_cb                   00029420 f   libeay32:pmeth_gn.obj
 0001:00018470       dsa_builtin_keygen         00029470 f   libeay32:dsa_key.obj
 0001:000188cc       dh_builtin_genparams       000298cc f   libeay32:dh_gen.obj
 0001:00018b24       generate_key               00029b24 f   libeay32:dh_key.obj
 0001:00018d3c       compute_key                00029d3c f   libeay32:dh_key.obj
 0001:00018ef4       dh_bn_mod_exp              00029ef4 f   libeay32:dh_key.obj
 0001:00018f7c       dh_init                    00029f7c f   libeay32:dh_key.obj
 0001:00018f94       dh_finish                  00029f94 f   libeay32:dh_key.obj
 0001:00019c6c       init                       0002ac6c f   libeay32:m_sha1.obj
 0001:00019c80       update                     0002ac80 f   libeay32:m_sha1.obj
 0001:00019c94       final                      0002ac94 f   libeay32:m_sha1.obj
 0001:00019cbc       init224                    0002acbc f   libeay32:m_sha1.obj
 0001:00019cd0       init256                    0002acd0 f   libeay32:m_sha1.obj
 0001:00019ce4       update256                  0002ace4 f   libeay32:m_sha1.obj
 0001:00019cf8       final256                   0002acf8 f   libeay32:m_sha1.obj
 0001:00019d14       init384                    0002ad14 f   libeay32:m_sha1.obj
 0001:00019d28       init512                    0002ad28 f   libeay32:m_sha1.obj
 0001:00019d3c       update512                  0002ad3c f   libeay32:m_sha1.obj
 0001:00019d50       final512                   0002ad50 f   libeay32:m_sha1.obj
 0001:00019de8       cms_RecipientInfo_ktri_encrypt 0002ade8 f   libeay32:cms_env.obj
 0001:00019f74       cms_RecipientInfo_kekri_encrypt 0002af74 f   libeay32:cms_env.obj
 0001:0001a558       rsa_builtin_keygen         0002b558 f   libeay32:rsa_gen.obj
 0001:0001ab40       ameth_cmp_BSEARCH_CMP_FN   0002bb40 f   libeay32:ameth_lib.obj
 0001:0001aef0       file_new                   0002bef0 f   libeay32:bss_file.obj
 0001:0001af0c       file_free                  0002bf0c f   libeay32:bss_file.obj
 0001:0001af68       file_read                  0002bf68 f   libeay32:bss_file.obj
 0001:0001b008       file_write                 0002c008 f   libeay32:bss_file.obj
 0001:0001b054       file_ctrl                  0002c054 f   libeay32:bss_file.obj
 0001:0001b2e8       file_gets                  0002c2e8 f   libeay32:bss_file.obj
 0001:0001b33c       file_puts                  0002c33c f   libeay32:bss_file.obj
 0001:0001b5b8       impl_check                 0002c5b8 f   libeay32:ex_data.obj
 0001:0001b60c       ex_class_item_LHASH_HASH   0002c60c f   libeay32:ex_data.obj
 0001:0001b614       ex_class_item_LHASH_COMP   0002c614 f   libeay32:ex_data.obj
 0001:0001b624       ex_data_check              0002c624 f   libeay32:ex_data.obj
 0001:0001b6a0       def_cleanup_util_cb        0002c6a0 f   libeay32:ex_data.obj
 0001:0001b6b0       def_cleanup_cb             0002c6b0 f   libeay32:ex_data.obj
 0001:0001b6d8       def_get_class              0002c6d8 f   libeay32:ex_data.obj
 0001:0001b7d4       def_add_index              0002c7d4 f   libeay32:ex_data.obj
 0001:0001b908       int_new_class              0002c908 f   libeay32:ex_data.obj
 0001:0001b960       int_cleanup                0002c960 f   libeay32:ex_data.obj
 0001:0001b9b4       int_get_new_index          0002c9b4 f   libeay32:ex_data.obj
 0001:0001bbb4       int_new_ex_data            0002cbb4 f   libeay32:ex_data.obj
 0001:0001bd30       int_dup_ex_data            0002cd30 f   libeay32:ex_data.obj
 0001:0001bed8       int_free_ex_data           0002ced8 f   libeay32:ex_data.obj
 0001:0001c0f8       look_str_cb                0002d0f8 f   libeay32:tb_asnmth.obj
 0001:0001ce24       MOD_EXP_CTIME_COPY_FROM_PREBUF 0002de24 f   libeay32:bn_exp.obj
 0001:0001dda4       bnrand                     0002eda4 f   libeay32:bn_rand.obj
 0001:0001e00c       bn_rand_range              0002f00c f   libeay32:bn_rand.obj
 0001:0001e7ec       ssleay_rand_cleanup        0002f7ec f   libeay32:md_rand.obj
 0001:0001e854       ssleay_rand_add            0002f854 f   libeay32:md_rand.obj
 0001:0001ebec       ssleay_rand_seed           0002fbec f   libeay32:md_rand.obj
 0001:0001ec2c       ssleay_rand_bytes          0002fc2c f   libeay32:md_rand.obj
 0001:0001f068       ssleay_rand_nopseudo_bytes 00030068 f   libeay32:md_rand.obj
 0001:0001f07c       ssleay_rand_pseudo_bytes   0003007c f   libeay32:md_rand.obj
 0001:0001f090       ssleay_rand_status         00030090 f   libeay32:md_rand.obj
 0001:00021b24       i2v_AUTHORITY_INFO_ACCESS  00032b24 f   libeay32:v3_info.obj
 0001:00021c60       v2i_AUTHORITY_INFO_ACCESS  00032c60 f   libeay32:v3_info.obj
 0001:000221c0       ext_cmp_BSEARCH_CMP_FN     000331c0 f   libeay32:v3_lib.obj
 0001:000223f4       ec_pre_comp_dup            000333f4 f   libeay32:ec_mult.obj
 0001:00022430       ec_pre_comp_free           00033430 f   libeay32:ec_mult.obj
 0001:000224ac       ec_pre_comp_clear_free     000334ac f   libeay32:ec_mult.obj
 0001:00022540       compute_wNAF               00033540 f   libeay32:ec_mult.obj
 0001:00023960       ecdsa_sign_setup           00034960 f   libeay32:ecs_ossl.obj
 0001:00023d48       ecdsa_do_sign              00034d48 f   libeay32:ecs_ossl.obj
 0001:00024130       ecdsa_do_verify            00035130 f   libeay32:ecs_ossl.obj
 0001:0002463c       ecdh_data_new              0003563c f   libeay32:ech_lib.obj
 0001:00024730       ecdh_data_dup              00035730 f   libeay32:ech_lib.obj
 0001:00024750       ecdh_data_free             00035750 f   libeay32:ech_lib.obj
 0001:00024958       bn_new                     00035958 f   libeay32:x_bignum.obj
 0001:00024980       bn_free                    00035980 f   libeay32:x_bignum.obj
 0001:000249bc       bn_i2c                     000359bc f   libeay32:x_bignum.obj
 0001:00024a2c       bn_c2i                     00035a2c f   libeay32:x_bignum.obj
 0001:00024aa4       long_new                   00035aa4 f   libeay32:x_long.obj
 0001:00024ab8       long_free                  00035ab8 f   libeay32:x_long.obj
 0001:00024ac4       long_i2c                   00035ac4 f   libeay32:x_long.obj
 0001:00024b7c       long_c2i                   00035b7c f   libeay32:x_long.obj
 0001:00024c70       long_print                 00035c70 f   libeay32:x_long.obj
 0001:00024d60       dsa_do_sign                00035d60 f   libeay32:dsa_ossl.obj
 0001:00024fb0       dsa_sign_setup             00035fb0 f   libeay32:dsa_ossl.obj
 0001:0002524c       dsa_do_verify              0003624c f   libeay32:dsa_ossl.obj
 0001:00025564       dsa_init                   00036564 f   libeay32:dsa_ossl.obj
 0001:0002557c       dsa_finish                 0003657c f   libeay32:dsa_ossl.obj
 0001:000255c0       BN_from_montgomery_word    000365c0 f   libeay32:bn_mont.obj
 0001:00025dac       witness                    00036dac f   libeay32:bn_prime.obj
 0001:00025eb8       probable_prime_dh          00036eb8 f   libeay32:bn_prime.obj
 0001:00025fdc       probable_prime_dh_safe     00036fdc f   libeay32:bn_prime.obj
 0001:00026fa0       sha1_block_data_order      00037fa0 f   libeay32:sha1dgst.obj
 0001:00027674       sha256_block_data_order    00038674 f   libeay32:sha256.obj
 0001:00027e04       sha512_block_data_order    00038e04 f   libeay32:sha512.obj
 0001:00028994       cms_si_cb                  00039994 f   libeay32:cms_asn1.obj
 0001:00028aa8       cms_ri_cb                  00039aa8 f   libeay32:cms_asn1.obj
 0001:00028b78       CMS_ContentInfo_adb        00039b78 f   libeay32:cms_asn1.obj
 0001:00028b84       cms_cb                     00039b84 f   libeay32:cms_asn1.obj
 0001:00029568       cms_get0_signed            0003a568 f   libeay32:cms_sd.obj
 0001:000295bc       cms_sd_set_version         0003a5bc f   libeay32:cms_sd.obj
 0001:00029a78       cms_SignerInfo_content_sign 0003aa78 f   libeay32:cms_sd.obj
 0001:00029d64       nid_cmp_BSEARCH_CMP_FN     0003ad64 f   libeay32:v3_purp.obj
 0001:00029dd0       setup_crldp                0003add0 f   libeay32:v3_purp.obj
 0001:00029f04       x509v3_cache_extensions    0003af04 f   libeay32:v3_purp.obj
 0001:0002a3e8       check_ca                   0003b3e8 f   libeay32:v3_purp.obj
 0001:0002a450       check_purpose_ssl_client   0003b450 f   libeay32:v3_purp.obj
 0001:0002a4e0       check_purpose_ssl_server   0003b4e0 f   libeay32:v3_purp.obj
 0001:0002a570       check_purpose_ns_ssl_server 0003b570 f   libeay32:v3_purp.obj
 0001:0002a5b0       purpose_smime              0003b5b0 f   libeay32:v3_purp.obj
 0001:0002a63c       check_purpose_smime_sign   0003b63c f   libeay32:v3_purp.obj
 0001:0002a684       check_purpose_smime_encrypt 0003b684 f   libeay32:v3_purp.obj
 0001:0002a6cc       check_purpose_crl_sign     0003b6cc f   libeay32:v3_purp.obj
 0001:0002a720       ocsp_helper                0003b720 f   libeay32:v3_purp.obj
 0001:0002a748       check_purpose_timestamp_sign 0003b748 f   libeay32:v3_purp.obj
 0001:0002a7e4       no_check                   0003b7e4 f   libeay32:v3_purp.obj
 0001:0002ae2c       kek_unwrap_key             0003be2c f   libeay32:cms_pwri.obj
 0001:0002afb0       kek_wrap_key               0003bfb0 f   libeay32:cms_pwri.obj
 0001:0002b428       RSA_eay_public_encrypt     0003c428 f   libeay32:rsa_eay.obj
 0001:0002b778       rsa_get_blinding           0003c778 f   libeay32:rsa_eay.obj
 0001:0002b8e8       rsa_blinding_convert       0003c8e8 f   libeay32:rsa_eay.obj
 0001:0002b970       RSA_eay_private_encrypt    0003c970 f   libeay32:rsa_eay.obj
 0001:0002bddc       RSA_eay_private_decrypt    0003cddc f   libeay32:rsa_eay.obj
 0001:0002c24c       RSA_eay_public_decrypt     0003d24c f   libeay32:rsa_eay.obj
 0001:0002c5c4       RSA_eay_mod_exp            0003d5c4 f   libeay32:rsa_eay.obj
 0001:0002cbe0       RSA_eay_init               0003dbe0 f   libeay32:rsa_eay.obj
 0001:0002cbf8       RSA_eay_finish             0003dbf8 f   libeay32:rsa_eay.obj
 0001:0002cc60       cmac_size                  0003dc60 f   libeay32:cm_ameth.obj
 0001:0002cc68       cmac_key_free              0003dc68 f   libeay32:cm_ameth.obj
 0001:0002cc84       hmac_size                  0003dc84 f   libeay32:hm_ameth.obj
 0001:0002cc8c       hmac_key_free              0003dc8c f   libeay32:hm_ameth.obj
 0001:0002ccc0       hmac_pkey_ctrl             0003dcc0 f   libeay32:hm_ameth.obj
 0001:0002ccd8       old_hmac_decode            0003dcd8 f   libeay32:hm_ameth.obj
 0001:0002cd38       old_hmac_encode            0003dd38 f   libeay32:hm_ameth.obj
 0001:0002cda8       eckey_param2type           0003dda8 f   libeay32:ec_ameth.obj
 0001:0002ce90       eckey_pub_encode           0003de90 f   libeay32:ec_ameth.obj
 0001:0002cf94       eckey_type2param           0003df94 f   libeay32:ec_ameth.obj
 0001:0002d0a0       eckey_pub_decode           0003e0a0 f   libeay32:ec_ameth.obj
 0001:0002d19c       eckey_pub_cmp              0003e19c f   libeay32:ec_ameth.obj
 0001:0002d204       eckey_priv_decode          0003e204 f   libeay32:ec_ameth.obj
 0001:0002d42c       eckey_priv_encode          0003e42c f   libeay32:ec_ameth.obj
 0001:0002d5c4       int_ec_size                0003e5c4 f   libeay32:ec_ameth.obj
 0001:0002d5d8       ec_bits                    0003e5d8 f   libeay32:ec_ameth.obj
 0001:0002d634       ec_missing_parameters      0003e634 f   libeay32:ec_ameth.obj
 0001:0002d658       ec_copy_parameters         0003e658 f   libeay32:ec_ameth.obj
 0001:0002d6a8       ec_cmp_parameters          0003e6a8 f   libeay32:ec_ameth.obj
 0001:0002d6ec       int_ec_free                0003e6ec f   libeay32:ec_ameth.obj
 0001:0002d700       do_EC_KEY_print            0003e700 f   libeay32:ec_ameth.obj
 0001:0002d994       eckey_param_decode         0003e994 f   libeay32:ec_ameth.obj
 0001:0002d9f8       eckey_param_encode         0003e9f8 f   libeay32:ec_ameth.obj
 0001:0002da0c       eckey_param_print          0003ea0c f   libeay32:ec_ameth.obj
 0001:0002da24       eckey_pub_print            0003ea24 f   libeay32:ec_ameth.obj
 0001:0002da3c       eckey_priv_print           0003ea3c f   libeay32:ec_ameth.obj
 0001:0002da54       old_ec_priv_decode         0003ea54 f   libeay32:ec_ameth.obj
 0001:0002dabc       old_ec_priv_encode         0003eabc f   libeay32:ec_ameth.obj
 0001:0002dad0       ec_pkey_ctrl               0003ead0 f   libeay32:ec_ameth.obj
 0001:0002dc24       dsa_pub_decode             0003ec24 f   libeay32:dsa_ameth.obj
 0001:0002ddd0       dsa_pub_encode             0003edd0 f   libeay32:dsa_ameth.obj
 0001:0002df0c       dsa_priv_decode            0003ef0c f   libeay32:dsa_ameth.obj
 0001:0002e1f8       dsa_priv_encode            0003f1f8 f   libeay32:dsa_ameth.obj
 0001:0002e350       int_dsa_size               0003f350 f   libeay32:dsa_ameth.obj
 0001:0002e364       dsa_bits                   0003f364 f   libeay32:dsa_ameth.obj
 0001:0002e37c       dsa_missing_parameters     0003f37c f   libeay32:dsa_ameth.obj
 0001:0002e3ac       dsa_copy_parameters        0003f3ac f   libeay32:dsa_ameth.obj
 0001:0002e460       dsa_cmp_parameters         0003f460 f   libeay32:dsa_ameth.obj
 0001:0002e4d4       dsa_pub_cmp                0003f4d4 f   libeay32:dsa_ameth.obj
 0001:0002e504       int_dsa_free               0003f504 f   libeay32:dsa_ameth.obj
 0001:0002e518       do_dsa_print               0003f518 f   libeay32:dsa_ameth.obj
 0001:0002e7a0       dsa_param_decode           0003f7a0 f   libeay32:dsa_ameth.obj
 0001:0002e804       dsa_param_encode           0003f804 f   libeay32:dsa_ameth.obj
 0001:0002e818       dsa_param_print            0003f818 f   libeay32:dsa_ameth.obj
 0001:0002e830       dsa_pub_print              0003f830 f   libeay32:dsa_ameth.obj
 0001:0002e848       dsa_priv_print             0003f848 f   libeay32:dsa_ameth.obj
 0001:0002e860       old_dsa_priv_decode        0003f860 f   libeay32:dsa_ameth.obj
 0001:0002e8c8       old_dsa_priv_encode        0003f8c8 f   libeay32:dsa_ameth.obj
 0001:0002e8dc       dsa_sig_print              0003f8dc f   libeay32:dsa_ameth.obj
 0001:0002ea6c       dsa_pkey_ctrl              0003fa6c f   libeay32:dsa_ameth.obj
 0001:0002ebc0       int_dh_free                0003fbc0 f   libeay32:dh_ameth.obj
 0001:0002ebd4       dh_pub_decode              0003fbd4 f   libeay32:dh_ameth.obj
 0001:0002ed44       dh_pub_encode              0003fd44 f   libeay32:dh_ameth.obj
 0001:0002ee58       dh_priv_decode             0003fe58 f   libeay32:dh_ameth.obj
 0001:0002ef8c       dh_priv_encode             0003ff8c f   libeay32:dh_ameth.obj
 0001:0002f0d8       dh_param_decode            000400d8 f   libeay32:dh_ameth.obj
 0001:0002f13c       dh_param_encode            0004013c f   libeay32:dh_ameth.obj
 0001:0002f150       do_dh_print                00040150 f   libeay32:dh_ameth.obj
 0001:0002f3dc       int_dh_size                000403dc f   libeay32:dh_ameth.obj
 0001:0002f3f0       dh_bits                    000403f0 f   libeay32:dh_ameth.obj
 0001:0002f408       dh_cmp_parameters          00040408 f   libeay32:dh_ameth.obj
 0001:0002f460       dh_copy_parameters         00040460 f   libeay32:dh_ameth.obj
 0001:0002f4e4       dh_missing_parameters      000404e4 f   libeay32:dh_ameth.obj
 0001:0002f504       dh_pub_cmp                 00040504 f   libeay32:dh_ameth.obj
 0001:0002f550       dh_param_print             00040550 f   libeay32:dh_ameth.obj
 0001:0002f574       dh_public_print            00040574 f   libeay32:dh_ameth.obj
 0001:0002f598       dh_private_print           00040598 f   libeay32:dh_ameth.obj
 0001:0002f5bc       rsa_pub_encode             000405bc f   libeay32:rsa_ameth.obj
 0001:0002f634       rsa_pub_decode             00040634 f   libeay32:rsa_ameth.obj
 0001:0002f6c4       rsa_pub_cmp                000406c4 f   libeay32:rsa_ameth.obj
 0001:0002f71c       old_rsa_priv_decode        0004071c f   libeay32:rsa_ameth.obj
 0001:0002f780       old_rsa_priv_encode        00040780 f   libeay32:rsa_ameth.obj
 0001:0002f794       rsa_priv_encode            00040794 f   libeay32:rsa_ameth.obj
 0001:0002f854       rsa_priv_decode            00040854 f   libeay32:rsa_ameth.obj
 0001:0002f8a0       int_rsa_size               000408a0 f   libeay32:rsa_ameth.obj
 0001:0002f8b4       rsa_bits                   000408b4 f   libeay32:rsa_ameth.obj
 0001:0002f8cc       int_rsa_free               000408cc f   libeay32:rsa_ameth.obj
 0001:0002f8e0       do_rsa_print               000408e0 f   libeay32:rsa_ameth.obj
 0001:0002fc7c       rsa_pub_print              00040c7c f   libeay32:rsa_ameth.obj
 0001:0002fc94       rsa_priv_print             00040c94 f   libeay32:rsa_ameth.obj
 0001:0002fcac       rsa_pss_decode             00040cac f   libeay32:rsa_ameth.obj
 0001:0002fd74       rsa_pss_param_print        00040d74 f   libeay32:rsa_ameth.obj
 0001:0002ffc8       rsa_sig_print              00040fc8 f   libeay32:rsa_ameth.obj
 0001:00030090       rsa_pkey_ctrl              00041090 f   libeay32:rsa_ameth.obj
 0001:00030180       rsa_item_verify            00041180 f   libeay32:rsa_ameth.obj
 0001:00030450       rsa_item_sign              00041450 f   libeay32:rsa_ameth.obj
 0001:00030d6c       readtimer                  00041d6c f   libeay32:rand_win.obj
 0001:0003167c       x509_name_ex_new           0004267c f   libeay32:x_name.obj
 0001:00031730       x509_name_ex_free          00042730 f   libeay32:x_name.obj
 0001:00031788       local_sk_X509_NAME_ENTRY_free 00042788 f   libeay32:x_name.obj
 0001:00031798       local_sk_X509_NAME_ENTRY_pop_free 00042798 f   libeay32:x_name.obj
 0001:000317b0       x509_name_encode           000427b0 f   libeay32:x_name.obj
 0001:00031918       x509_name_ex_print         00042918 f   libeay32:x_name.obj
 0001:00031944       asn1_string_canon          00042944 f   libeay32:x_name.obj
 0001:00031ab0       i2d_name_canon             00042ab0 f   libeay32:x_name.obj
 0001:00031b3c       x509_name_canon            00042b3c f   libeay32:x_name.obj
 0001:00031cc0       x509_name_ex_d2i           00042cc0 f   libeay32:x_name.obj
 0001:00031e7c       x509_name_ex_i2d           00042e7c f   libeay32:x_name.obj
 0001:00031ff0       table_cmp_BSEARCH_CMP_FN   00042ff0 f   libeay32:a_strnid.obj
 0001:000324b4       copy_issuer                000434b4 f   libeay32:v3_alt.obj
 0001:000325e4       copy_email                 000435e4 f   libeay32:v3_alt.obj
 0001:00032778       do_othername               00043778 f   libeay32:v3_alt.obj
 0001:00032854       do_dirname                 00043854 f   libeay32:v3_alt.obj
 0001:00032db0       v2i_issuer_alt             00043db0 f   libeay32:v3_alt.obj
 0001:00032ed4       v2i_subject_alt            00043ed4 f   libeay32:v3_alt.obj
 0001:00033940       pubkey_cb                  00044940 f   libeay32:x_pubkey.obj
 0001:00033bec       gnames_from_sectname       00044bec f   libeay32:v3_crld.obj
 0001:00033ca0       set_reasons                00044ca0 f   libeay32:v3_crld.obj
 0001:00033da8       print_reasons              00044da8 f   libeay32:v3_crld.obj
 0001:00033e80       dpn_cb                     00044e80 f   libeay32:v3_crld.obj
 0001:00033f3c       print_gens                 00044f3c f   libeay32:v3_crld.obj
 0001:00033fc4       print_distpoint            00044fc4 f   libeay32:v3_crld.obj
 0001:0003406c       i2r_idp                    0004506c f   libeay32:v3_crld.obj
 0001:0003419c       i2r_crldp                  0004519c f   libeay32:v3_crld.obj
 0001:00034330       set_dist_point_name        00045330 f   libeay32:v3_crld.obj
 0001:0003451c       crldp_from_section         0004551c f   libeay32:v3_crld.obj
 0001:00034608       v2i_crld                   00045608 f   libeay32:v3_crld.obj
 0001:000347c8       v2i_idp                    000457c8 f   libeay32:v3_crld.obj
 0001:00034994       s2i_asn1_int               00045994 f   libeay32:v3_int.obj
 0001:000349d8       i2v_POLICY_MAPPINGS        000459d8 f   libeay32:v3_pmaps.obj
 0001:00034a64       v2i_POLICY_MAPPINGS        00045a64 f   libeay32:v3_pmaps.obj
 0001:00034c74       v2i_NAME_CONSTRAINTS       00045c74 f   libeay32:v3_ncons.obj
 0001:00034e28       do_i2r_name_constraints    00045e28 f   libeay32:v3_ncons.obj
 0001:00034fd8       i2r_NAME_CONSTRAINTS       00045fd8 f   libeay32:v3_ncons.obj
 0001:00035034       i2r_pci                    00046034 f   libeay32:v3_pci.obj
 0001:00035114       process_pci_value          00046114 f   libeay32:v3_pci.obj
 0001:00035844       r2i_pci                    00046844 f   libeay32:v3_pci.obj
 0001:00035b8c       i2r_ocsp_crlid             00046b8c f   libeay32:v3_ocsp.obj
 0001:00035cc4       i2r_ocsp_acutoff           00046cc4 f   libeay32:v3_ocsp.obj
 0001:00035d24       i2r_object                 00046d24 f   libeay32:v3_ocsp.obj
 0001:00035d84       ocsp_nonce_new             00046d84 f   libeay32:v3_ocsp.obj
 0001:00035d94       i2d_ocsp_nonce             00046d94 f   libeay32:v3_ocsp.obj
 0001:00035dd0       d2i_ocsp_nonce             00046dd0 f   libeay32:v3_ocsp.obj
 0001:00035e84       ocsp_nonce_free            00046e84 f   libeay32:v3_ocsp.obj
 0001:00035e94       i2r_ocsp_nonce             00046e94 f   libeay32:v3_ocsp.obj
 0001:00035ef8       i2r_ocsp_nocheck           00046ef8 f   libeay32:v3_ocsp.obj
 0001:00035f00       s2i_ocsp_nocheck           00046f00 f   libeay32:v3_ocsp.obj
 0001:00035f10       i2r_ocsp_serviceloc        00046f10 f   libeay32:v3_ocsp.obj
 0001:00036020       i2v_POLICY_CONSTRAINTS     00047020 f   libeay32:v3_pcons.obj
 0001:00036064       v2i_POLICY_CONSTRAINTS     00047064 f   libeay32:v3_pcons.obj
 0001:000361e0       i2v_EXTENDED_KEY_USAGE     000471e0 f   libeay32:v3_extku.obj
 0001:00036258       v2i_EXTENDED_KEY_USAGE     00047258 f   libeay32:v3_extku.obj
 0001:0003638c       sxnet_i2r                  0004738c f   libeay32:v3_sxnet.obj
 0001:000366e0       sxnet_v2i                  000476e0 f   libeay32:v3_sxnet.obj
 0001:000367bc       i2v_AUTHORITY_KEYID        000477bc f   libeay32:v3_akey.obj
 0001:00036874       v2i_AUTHORITY_KEYID        00047874 f   libeay32:v3_akey.obj
 0001:00036b84       POLICYQUALINFO_adb         00047b84 f   libeay32:v3_cpols.obj
 0001:00036bcc       nref_nos                   00047bcc f   libeay32:v3_cpols.obj
 0001:00036ca8       notice_section             00047ca8 f   libeay32:v3_cpols.obj
 0001:00036f8c       print_qualifiers           00047f8c f   libeay32:v3_cpols.obj
 0001:0003717c       policy_section             0004817c f   libeay32:v3_cpols.obj
 0001:000374e8       i2r_certpol                000484e8 f   libeay32:v3_cpols.obj
 0001:0003758c       r2i_certpol                0004858c f   libeay32:v3_cpols.obj
 0001:00037878       i2v_BASIC_CONSTRAINTS      00048878 f   libeay32:v3_bcons.obj
 0001:000378bc       v2i_BASIC_CONSTRAINTS      000488bc f   libeay32:v3_bcons.obj
 0001:00037a10       i2r_PKEY_USAGE_PERIOD      00048a10 f   libeay32:v3_pku.obj
 0001:00037d44       s2i_skey_id                00048d44 f   libeay32:v3_skey.obj
 0001:00037ec8       i2s_ASN1_IA5STRING         00048ec8 f   libeay32:v3_ia5.obj
 0001:00037f50       s2i_ASN1_IA5STRING         00048f50 f   libeay32:v3_ia5.obj
 0001:00038084       nconf_get_string           00049084 f   libeay32:v3_conf.obj
 0001:00038094       nconf_get_section          00049094 f   libeay32:v3_conf.obj
 0001:000380a4       conf_lhash_get_string      000490a4 f   libeay32:v3_conf.obj
 0001:000380b4       conf_lhash_get_section     000490b4 f   libeay32:v3_conf.obj
 0001:000380c4       rinf_cb                    000490c4 f   libeay32:x_req.obj
 0001:0003866c       ecdh_compute_key           0004966c f   libeay32:ech_ossl.obj
 0001:0003aa10       crl_set_issuers            0004ba10 f   libeay32:x_crl.obj
 0001:0003ab9c       setup_idp                  0004bb9c f   libeay32:x_crl.obj
 0001:0003aca0       X509_REVOKED_cmp           0004bca0 f   libeay32:x_crl.obj
 0001:0003acc0       def_crl_verify             0004bcc0 f   libeay32:x_crl.obj
 0001:0003acf4       def_crl_lookup             0004bcf4 f   libeay32:x_crl.obj
 0001:0003ae80       crl_inf_cb                 0004be80 f   libeay32:x_crl.obj
 0001:0003aebc       crl_cb                     0004bebc f   libeay32:x_crl.obj
 0001:0003b120       x509_cb                    0004c120 f   libeay32:x_x509.obj
 0001:0003b2dc       md_new                     0004c2dc f   libeay32:bio_md.obj
 0001:0003b310       md_free                    0004c310 f   libeay32:bio_md.obj
 0001:0003b348       md_read                    0004c348 f   libeay32:bio_md.obj
 0001:0003b3d8       md_write                   0004c3d8 f   libeay32:bio_md.obj
 0001:0003b488       md_ctrl                    0004c488 f   libeay32:bio_md.obj
 0001:0003b5d4       md_callback_ctrl           0004c5d4 f   libeay32:bio_md.obj
 0001:0003b5fc       md_gets                    0004c5fc f   libeay32:bio_md.obj
 0001:0003b6d8       mem_new                    0004c6d8 f   libeay32:bss_mem.obj
 0001:0003b714       mem_free                   0004c714 f   libeay32:bss_mem.obj
 0001:0003b770       mem_read                   0004c770 f   libeay32:bss_mem.obj
 0001:0003b824       mem_write                  0004c824 f   libeay32:bss_mem.obj
 0001:0003b8dc       mem_ctrl                   0004c8dc f   libeay32:bss_mem.obj
 0001:0003ba1c       mem_gets                   0004ca1c f   libeay32:bss_mem.obj
 0001:0003baa8       mem_puts                   0004caa8 f   libeay32:bss_mem.obj
 0001:0003bae0       null_new                   0004cae0 f   libeay32:bss_null.obj
 0001:0003bafc       null_free                  0004cafc f   libeay32:bss_null.obj
 0001:0003bb0c       null_read                  0004cb0c f   libeay32:bss_null.obj
 0001:0003bb14       null_write                 0004cb14 f   libeay32:bss_null.obj
 0001:0003bb1c       null_ctrl                  0004cb1c f   libeay32:bss_null.obj
 0001:0003bb5c       null_gets                  0004cb5c f   libeay32:bss_null.obj
 0001:0003bb64       null_puts                  0004cb64 f   libeay32:bss_null.obj
 0001:0003bcac       enc_new                    0004ccac f   libeay32:bio_enc.obj
 0001:0003bd18       enc_free                   0004cd18 f   libeay32:bio_enc.obj
 0001:0003bd6c       enc_read                   0004cd6c f   libeay32:bio_enc.obj
 0001:0003bf0c       enc_write                  0004cf0c f   libeay32:bio_enc.obj
 0001:0003c054       enc_ctrl                   0004d054 f   libeay32:bio_enc.obj
 0001:0003c250       enc_callback_ctrl          0004d250 f   libeay32:bio_enc.obj
 0001:0003c4b8       do_sigver_init             0004d4b8 f   libeay32:m_sigver.obj
 0001:0003e204       X9_62_CHARACTERISTIC_TWO_adb 0004f204 f   libeay32:ec_asn1.obj
 0001:0003e21c       X9_62_FIELDID_adb          0004f21c f   libeay32:ec_asn1.obj
 0001:0003e258       ec_asn1_group2fieldid      0004f258 f   libeay32:ec_asn1.obj
 0001:0003e5cc       ec_asn1_group2curve        0004f5cc f   libeay32:ec_asn1.obj
 0001:0003e9b4       ec_asn1_group2parameters   0004f9b4 f   libeay32:ec_asn1.obj
 0001:0003ed48       ec_asn1_group2pkparameters 0004fd48 f   libeay32:ec_asn1.obj
 0001:0003ee48       ec_asn1_parameters2group   0004fe48 f   libeay32:ec_asn1.obj
 0001:0003f644       ec_asn1_pkparameters2group 00050644 f   libeay32:ec_asn1.obj
 0001:00040288       pkey_cb                    00051288 f   libeay32:p8_pkey.obj
 0001:00040420       print_bin                  00051420 f   libeay32:eck_prn.obj
 0001:00041534       dh_cb                      00052534 f   libeay32:dh_asn1.obj
 0001:000415c0       rsa_cb                     000525c0 f   libeay32:rsa_asn1.obj
 0001:000418b8       send_bio_chars             000528b8 f   libeay32:a_strex.obj
 0001:000418e8       do_esc_char                000528e8 f   libeay32:a_strex.obj
 0001:00041ad4       do_buf                     00052ad4 f   libeay32:a_strex.obj
 0001:00041c80       do_hex_dump                00052c80 f   libeay32:a_strex.obj
 0001:00041d0c       do_dump                    00052d0c f   libeay32:a_strex.obj
 0001:00041df8       do_print_ex                00052df8 f   libeay32:a_strex.obj
 0001:00041fc8       do_indent                  00052fc8 f   libeay32:a_strex.obj
 0001:00042028       do_name_ex                 00053028 f   libeay32:a_strex.obj
 0001:00042494       traverse_string            00053494 f   libeay32:a_mbstr.obj
 0001:00042594       in_utf8                    00053594 f   libeay32:a_mbstr.obj
 0001:000425a8       out_utf8                   000535a8 f   libeay32:a_mbstr.obj
 0001:000425dc       cpy_asc                    000535dc f   libeay32:a_mbstr.obj
 0001:000425fc       cpy_bmp                    000535fc f   libeay32:a_mbstr.obj
 0001:0004262c       cpy_univ                   0005362c f   libeay32:a_mbstr.obj
 0001:0004266c       cpy_utf8                   0005366c f   libeay32:a_mbstr.obj
 0001:000426a0       type_str                   000536a0 f   libeay32:a_mbstr.obj
 0001:00042c84       parse_tagging              00053c84 f   libeay32:asn1_gen.obj
 0001:00042dc4       append_exp                 00053dc4 f   libeay32:asn1_gen.obj
 0001:00042ea0       bitstr_cb                  00053ea0 f   libeay32:asn1_gen.obj
 0001:00042f6c       asn1_cb                    00053f6c f   libeay32:asn1_gen.obj
 0001:000433b4       asn1_str2type              000543b4 f   libeay32:asn1_gen.obj
 0001:00043bd0       asn1_multi                 00054bd0 f   libeay32:asn1_gen.obj
 0001:00043d30       def_create                 00054d30 f   libeay32:conf_def.obj
 0001:00043d84       def_init_default           00054d84 f   libeay32:conf_def.obj
 0001:00043dac       def_init_WIN32             00054dac f   libeay32:conf_def.obj
 0001:00043dd4       def_destroy_data           00054dd4 f   libeay32:conf_def.obj
 0001:00043df8       str_copy                   00054df8 f   libeay32:conf_def.obj
 0001:000441a4       dump_value_LHASH_DOALL_ARG 000551a4 f   libeay32:conf_def.obj
 0001:000441f8       def_dump                   000551f8 f   libeay32:conf_def.obj
 0001:0004421c       def_is_number              0005521c f   libeay32:conf_def.obj
 0001:00044234       def_to_int                 00055234 f   libeay32:conf_def.obj
 0001:0004423c       def_destroy                0005523c f   libeay32:conf_def.obj
 0001:00044270       clear_comments             00055270 f   libeay32:conf_def.obj
 0001:000443bc       def_load_bio               000553bc f   libeay32:conf_def.obj
 0001:00044bf4       def_load                   00055bf4 f   libeay32:conf_def.obj
 0001:00044e3c       conf_value_LHASH_HASH      00055e3c f   libeay32:conf_api.obj
 0001:00044e64       conf_value_LHASH_COMP      00055e64 f   libeay32:conf_api.obj
 0001:00045008       value_free_hash_LHASH_DOALL_ARG 00056008 f   libeay32:conf_api.obj
 0001:0004502c       value_free_stack_LHASH_DOALL 0005602c f   libeay32:conf_api.obj
 0001:00045590       PKCS7_adb                  00056590 f   libeay32:pk7_asn1.obj
 0001:0004559c       pk7_cb                     0005659c f   libeay32:pk7_asn1.obj
 0001:00045638       si_cb                      00056638 f   libeay32:pk7_asn1.obj
 0001:0004567c       ri_cb                      0005667c f   libeay32:pk7_asn1.obj
 0001:00047d7c       nist_cp_bn_0               00058d7c f   libeay32:bn_nist.obj
 0001:0004905c       gf2m_Mdouble               0005a05c f   libeay32:ec2_mult.obj
 0001:000491b8       gf2m_Madd                  0005a1b8 f   libeay32:ec2_mult.obj
 0001:00049330       gf2m_Mxy                   0005a330 f   libeay32:ec2_mult.obj
 0001:000496dc       ec_GF2m_montgomery_point_multiply 0005a6dc f   libeay32:ec2_mult.obj
 0001:00049c78       bn_GF2m_mul_1x1            0005ac78 f   libeay32:bn_gf2m.obj
 0001:0004b82c       julian_to_date             0005c82c f   libeay32:o_time.obj
 0001:0004bb8c       trust_compat               0005cb8c f   libeay32:x509_trs.obj
 0001:0004bbc0       obj_trust                  0005cbc0 f   libeay32:x509_trs.obj
 0001:0004bc90       trust_1oidany              0005cc90 f   libeay32:x509_trs.obj
 0001:0004bcfc       trust_1oid                 0005ccfc f   libeay32:x509_trs.obj
 0001:0004c12c       PKCS12_BAGS_adb            0005d12c f   libeay32:p12_asn.obj
 0001:0004c144       PKCS12_SAFEBAG_adb         0005d144 f   libeay32:p12_asn.obj
 0001:0004c678       LoadLibraryA               0005d678 f   libeay32:dso_win32.obj
 0001:0004c718       win32_load                 0005d718 f   libeay32:dso_win32.obj
 0001:0004c854       win32_unload               0005d854 f   libeay32:dso_win32.obj
 0001:0004c928       win32_bind_var             0005d928 f   libeay32:dso_win32.obj
 0001:0004ca3c       win32_bind_func            0005da3c f   libeay32:dso_win32.obj
 0001:0004cb50       win32_splitter             0005db50 f   libeay32:dso_win32.obj
 0001:0004cd84       win32_name_converter       0005dd84 f   libeay32:dso_win32.obj
 0001:0004ce6c       win32_pathbyaddr           0005de6c f   libeay32:dso_win32.obj
 0001:0004d094       win32_globallookup         0005e094 f   libeay32:dso_win32.obj
 0001:0004d22c       win32_joiner               0005e22c f   libeay32:dso_win32.obj
 0001:0004d564       win32_merger               0005e564 f   libeay32:dso_win32.obj
 0001:0004d7a0       PKCS7_get_octet_string     0005e7a0 f   libeay32:pk7_doit.obj
 0001:0004d800       PKCS7_bio_add_digest       0005e800 f   libeay32:pk7_doit.obj
 0001:0004d8f4       pkcs7_encode_rinfo         0005e8f4 f   libeay32:pk7_doit.obj
 0001:0004deb4       PKCS7_find_digest          0005eeb4 f   libeay32:pk7_doit.obj
 0001:0004e138       get_attribute              0005f138 f   libeay32:pk7_doit.obj
 0001:0004e1e0       add_attribute              0005f1e0 f   libeay32:pk7_doit.obj
 0001:0004e2fc       do_pkcs7_signed_attrib     0005f2fc f   libeay32:pk7_doit.obj
 0001:0004ee90       asn1_bio_free              0005fe90 f   libeay32:bio_asn1.obj
 0001:0004eee0       asn1_bio_flush_ex          0005fee0 f   libeay32:bio_asn1.obj
 0001:0004ef84       asn1_bio_read              0005ff84 f   libeay32:bio_asn1.obj
 0001:0004efac       asn1_bio_gets              0005ffac f   libeay32:bio_asn1.obj
 0001:0004efd4       asn1_bio_callback_ctrl     0005ffd4 f   libeay32:bio_asn1.obj
 0001:0004effc       asn1_bio_ctrl              0005fffc f   libeay32:bio_asn1.obj
 0001:0004f1a4       asn1_bio_new               000601a4 f   libeay32:bio_asn1.obj
 0001:0004f240       asn1_bio_write             00060240 f   libeay32:bio_asn1.obj
 0001:0004f474       asn1_bio_puts              00060474 f   libeay32:bio_asn1.obj
 0001:0004f4a0       b64_new                    000604a0 f   libeay32:bio_b64.obj
 0001:0004f510       b64_free                   00060510 f   libeay32:bio_b64.obj
 0001:0004f548       b64_read                   00060548 f   libeay32:bio_b64.obj
 0001:0004f9ec       b64_write                  000609ec f   libeay32:bio_b64.obj
 0001:0004fe2c       b64_ctrl                   00060e2c f   libeay32:bio_b64.obj
 0001:00050044       b64_callback_ctrl          00061044 f   libeay32:bio_b64.obj
 0001:0005006c       b64_puts                   0006106c f   libeay32:bio_b64.obj
 0001:00050098       buffer_new                 00061098 f   libeay32:bf_buff.obj
 0001:0005014c       buffer_free                0006114c f   libeay32:bf_buff.obj
 0001:000501a8       buffer_read                000611a8 f   libeay32:bf_buff.obj
 0001:000502e8       buffer_write               000612e8 f   libeay32:bf_buff.obj
 0001:000504a8       buffer_ctrl                000614a8 f   libeay32:bf_buff.obj
 0001:00050880       buffer_callback_ctrl       00061880 f   libeay32:bf_buff.obj
 0001:000508a8       buffer_gets                000618a8 f   libeay32:bf_buff.obj
 0001:000509b0       buffer_puts                000619b0 f   libeay32:bf_buff.obj
 0001:00052b30       write_string               00063b30 f   libeay32:ui_openssl.obj
 0001:00052b78       open_console               00063b78 f   libeay32:ui_openssl.obj
 0001:00052c04       close_console              00063c04 f   libeay32:ui_openssl.obj
 0001:00052c68       read_string                00063c68 f   libeay32:ui_openssl.obj
 0001:00052e04       cmp64                      00063e04 f   wcecompatex:time.obj
 0001:00052e50       topBit                     00063e50 f   wcecompatex:time.obj
 0001:00052fdc       div64                      00063fdc f   wcecompatex:time.obj
 0001:000539b4       doexit                     000649b4 f   corelibc:crt0dat.obj
 0001:00053b88       ?getCmdLineArg@@YA?AW4ArgType@@PAPA_WPA_WHPAURedirArg@@PA_N@Z 00064b88 f   wcecompatex:args.obj
 0001:00053eb4       ?qsort_stricmp@@YAHPBX0@Z  00064eb4 f   wcecompatex:args.obj
