 md4test

 Timestamp is 511c9adf (Thu Feb 14 17:05:51 2013)

 Preferred load address is 00010000

 Start         Length     Name                   Class
 0001:00000000 00054e14H .text                   CODE
 0002:00000000 00023820H .rdata                  DATA
 0002:00023820 00000014H .xdata                  DATA
 0002:00023834 00000014H .idata$2                DATA
 0002:00023848 00000014H .idata$3                DATA
 0002:0002385c 00000148H .idata$4                DATA
 0002:000239a4 0000000cH .idata$6                DATA
 0002:000239b0 00000000H .edata                  DATA
 0003:00000000 00000148H .idata$5                DATA
 0003:00000148 00000004H .CRT$XCA                DATA
 0003:0000014c 00000004H .CRT$XCZ                DATA
 0003:00000150 00000004H .CRT$XIA                DATA
 0003:00000154 00000004H .CRT$XIZ                DATA
 0003:00000158 00000004H .CRT$XPA                DATA
 0003:0000015c 00000004H .CRT$XPZ                DATA
 0003:00000160 00000004H .CRT$XTA                DATA
 0003:00000164 00000004H .CRT$XTZ                DATA
 0003:00000168 00001068H .data                   DATA
 0003:000011e0 00002061H .bss                    DATA
 0004:00000000 00003538H .pdata                  DATA

  Address         Publics by Value              Rva+Base     Lib:Object

 0000:00000000       ___safe_se_handler_count   00000000     <absolute>
 0000:00000000       ___safe_se_handler_table   00000000     <absolute>
 0001:00000000       main                       00011000 f   md4test.obj
 0001:00000128       EVP_MD_CTX_init            00011128 f   libeay32:digest.obj
 0001:00000140       EVP_MD_CTX_create          00011140 f   libeay32:digest.obj
 0001:00000178       EVP_DigestInit_ex          00011178 f   libeay32:digest.obj
 0001:00000390       EVP_DigestUpdate           00011390 f   libeay32:digest.obj
 0001:000003a8       EVP_DigestFinal_ex         000113a8 f   libeay32:digest.obj
 0001:00000454       EVP_MD_CTX_cleanup         00011454 f   libeay32:digest.obj
 0001:00000520       EVP_MD_CTX_copy_ex         00011520 f   libeay32:digest.obj
 0001:000006d0       EVP_Digest                 000116d0 f   libeay32:digest.obj
 0001:00000774       EVP_MD_CTX_destroy         00011774 f   libeay32:digest.obj
 0001:00000790       EVP_MD_CTX_copy            00011790 f   libeay32:digest.obj
 0001:00000800       EVP_md4                    00011800 f   libeay32:m_md4.obj
 0001:0000086c       CRYPTO_free_locked         0001186c f   libeay32:mem.obj
 0001:000008c8       CRYPTO_malloc              000118c8 f   libeay32:mem.obj
 0001:000009a8       CRYPTO_realloc             000119a8 f   libeay32:mem.obj
 0001:00000a90       CRYPTO_realloc_clean       00011a90 f   libeay32:mem.obj
 0001:00000bb4       CRYPTO_free                00011bb4 f   libeay32:mem.obj
 0001:00000c28       EVP_PKEY_meth_find         00011c28 f   libeay32:pmeth_lib.obj
 0001:00000cc0       EVP_PKEY_meth_free         00011cc0 f   libeay32:pmeth_lib.obj
 0001:00000cdc       EVP_PKEY_CTX_free          00011cdc f   libeay32:pmeth_lib.obj
 0001:00000d44       EVP_PKEY_CTX_ctrl          00011d44 f   libeay32:pmeth_lib.obj
 0001:00000e68       EVP_PKEY_CTX_get0_pkey     00011e68 f   libeay32:pmeth_lib.obj
 0001:00000e70       EVP_PKEY_CTX_new           00011e70 f   libeay32:pmeth_lib.obj
 0001:00000fec       EVP_PKEY_CTX_dup           00011fec f   libeay32:pmeth_lib.obj
 0001:00001128       ENGINE_get_digest_engine   00012128 f   libeay32:tb_digest.obj
 0001:00001144       ENGINE_get_digest          00012144 f   libeay32:tb_digest.obj
 0001:00001830       ERR_get_state              00012830 f   libeay32:err.obj
 0001:00001930       ERR_set_error_data         00012930 f   libeay32:err.obj
 0001:00001984       ERR_add_error_vdata        00012984 f   libeay32:err.obj
 0001:00001a58       ERR_set_mark               00012a58 f   libeay32:err.obj
 0001:00001a98       ERR_pop_to_mark            00012a98 f   libeay32:err.obj
 0001:00001c68       ERR_put_error              00012c68 f   libeay32:err.obj
 0001:00001d5c       ERR_clear_error            00012d5c f   libeay32:err.obj
 0001:00001dc8       ERR_add_error_data         00012dc8 f   libeay32:err.obj
 0001:00001de8       ERR_peek_last_error        00012de8 f   libeay32:err.obj
 0001:00001e14       engine_unlocked_init       00012e14 f   libeay32:eng_init.obj
 0001:00001e6c       engine_unlocked_finish     00012e6c f   libeay32:eng_init.obj
 0001:00001f30       ENGINE_init                00012f30 f   libeay32:eng_init.obj
 0001:00001fac       ENGINE_finish              00012fac f   libeay32:eng_init.obj
 0001:00002050       EVP_CIPHER_CTX_block_size  00013050 f   libeay32:evp_lib.obj
 0001:0000205c       EVP_Cipher                 0001305c f   libeay32:evp_lib.obj
 0001:00002078       EVP_CIPHER_CTX_cipher      00013078 f   libeay32:evp_lib.obj
 0001:00002080       EVP_CIPHER_CTX_flags       00013080 f   libeay32:evp_lib.obj
 0001:0000208c       EVP_CIPHER_iv_length       0001308c f   libeay32:evp_lib.obj
 0001:00002094       EVP_CIPHER_CTX_iv_length   00013094 f   libeay32:evp_lib.obj
 0001:000020a0       EVP_CIPHER_key_length      000130a0 f   libeay32:evp_lib.obj
 0001:000020a8       EVP_CIPHER_CTX_key_length  000130a8 f   libeay32:evp_lib.obj
 0001:000020b0       EVP_MD_block_size          000130b0 f   libeay32:evp_lib.obj
 0001:000020b8       EVP_MD_type                000130b8 f   libeay32:evp_lib.obj
 0001:000020c0       EVP_MD_pkey_type           000130c0 f   libeay32:evp_lib.obj
 0001:000020c8       EVP_MD_size                000130c8 f   libeay32:evp_lib.obj
 0001:00002114       EVP_MD_CTX_md              00013114 f   libeay32:evp_lib.obj
 0001:00002124       EVP_MD_CTX_set_flags       00013124 f   libeay32:evp_lib.obj
 0001:00002134       EVP_MD_CTX_clear_flags     00013134 f   libeay32:evp_lib.obj
 0001:00002144       EVP_MD_CTX_test_flags      00013144 f   libeay32:evp_lib.obj
 0001:00002150       EVP_CIPHER_get_asn1_iv     00013150 f   libeay32:evp_lib.obj
 0001:000021c8       EVP_CIPHER_set_asn1_iv     000131c8 f   libeay32:evp_lib.obj
 0001:00002218       EVP_CIPHER_type            00013218 f   libeay32:evp_lib.obj
 0001:00002348       EVP_CIPHER_param_to_asn1   00013348 f   libeay32:evp_lib.obj
 0001:00002390       EVP_CIPHER_asn1_to_param   00013390 f   libeay32:evp_lib.obj
 0001:000023d8       CRYPTO_destroy_dynlockid   000133d8 f   libeay32:cryptlib.obj
 0001:000024dc       CRYPTO_get_dynlock_value   000134dc f   libeay32:cryptlib.obj
 0001:00002578       CRYPTO_THREADID_current    00013578 f   libeay32:cryptlib.obj
 0001:000025f4       CRYPTO_THREADID_cmp        000135f4 f   libeay32:cryptlib.obj
 0001:00002608       CRYPTO_THREADID_cpy        00013608 f   libeay32:cryptlib.obj
 0001:0000261c       CRYPTO_THREADID_hash       0001361c f   libeay32:cryptlib.obj
 0001:00002624       OPENSSL_showfatal          00013624 f   libeay32:cryptlib.obj
 0001:000027ac       OpenSSLDie                 000137ac f   libeay32:cryptlib.obj
 0001:000027e0       CRYPTO_memcmp              000137e0 f   libeay32:cryptlib.obj
 0001:0000281c       CRYPTO_lock                0001381c f   libeay32:cryptlib.obj
 0001:000028e8       CRYPTO_add_lock            000138e8 f   libeay32:cryptlib.obj
 0001:00002974       OPENSSL_cleanse            00013974 f   libeay32:mem_clr.obj
 0001:000029d0       RSA_sign                   000139d0 f   libeay32:rsa_sign.obj
 0001:00002c14       int_rsa_verify             00013c14 f   libeay32:rsa_sign.obj
 0001:00003000       RSA_verify                 00014000 f   libeay32:rsa_sign.obj
 0001:00003078       MD4_Init                   00014078 f   libeay32:md4_dgst.obj
 0001:000030c8       md4_block_data_order       000140c8 f   libeay32:md4_dgst.obj
 0001:00003844       MD4_Update                 00014844 f   libeay32:md4_dgst.obj
 0001:0000394c       MD4_Final                  0001494c f   libeay32:md4_dgst.obj
 0001:00005f54       OBJ_nid2obj                00016f54 f   libeay32:obj_dat.obj
 0001:00006034       OBJ_nid2sn                 00017034 f   libeay32:obj_dat.obj
 0001:00006118       OBJ_nid2ln                 00017118 f   libeay32:obj_dat.obj
 0001:00006240       OBJ_bsearch_ex_            00017240 f   libeay32:obj_dat.obj
 0001:00006324       OBJ_bsearch_               00017324 f   libeay32:obj_dat.obj
 0001:0000634c       OBJ_obj2nid                0001734c f   libeay32:obj_dat.obj
 0001:00006414       OBJ_obj2txt                00017414 f   libeay32:obj_dat.obj
 0001:00006714       OBJ_ln2nid                 00017714 f   libeay32:obj_dat.obj
 0001:000067c4       OBJ_sn2nid                 000177c4 f   libeay32:obj_dat.obj
 0001:00006874       OBJ_txt2obj                00017874 f   libeay32:obj_dat.obj
 0001:00006968       sk_set_cmp_func            00017968 f   libeay32:stack.obj
 0001:00006984       sk_new                     00017984 f   libeay32:stack.obj
 0001:00006a0c       sk_insert                  00017a0c f   libeay32:stack.obj
 0001:00006ae4       sk_delete                  00017ae4 f   libeay32:stack.obj
 0001:00006b50       sk_push                    00017b50 f   libeay32:stack.obj
 0001:00006b64       sk_pop                     00017b64 f   libeay32:stack.obj
 0001:00006b98       sk_free                    00017b98 f   libeay32:stack.obj
 0001:00006bc4       sk_num                     00017bc4 f   libeay32:stack.obj
 0001:00006bd4       sk_value                   00017bd4 f   libeay32:stack.obj
 0001:00006c00       sk_set                     00017c00 f   libeay32:stack.obj
 0001:00006c34       sk_sort                    00017c34 f   libeay32:stack.obj
 0001:00006c70       sk_is_sorted               00017c70 f   libeay32:stack.obj
 0001:00006c80       sk_new_null                00017c80 f   libeay32:stack.obj
 0001:00006c94       sk_delete_ptr              00017c94 f   libeay32:stack.obj
 0001:00006da8       sk_find                    00017da8 f   libeay32:stack.obj
 0001:00006dbc       sk_pop_free                00017dbc f   libeay32:stack.obj
 0001:00006e24       EVP_PKEY_bits              00017e24 f   libeay32:p_lib.obj
 0001:00006e64       EVP_PKEY_size              00017e64 f   libeay32:p_lib.obj
 0001:00006ea4       EVP_PKEY_missing_parameters 00017ea4 f   libeay32:p_lib.obj
 0001:00006edc       EVP_PKEY_new               00017edc f   libeay32:p_lib.obj
 0001:00006f58       EVP_PKEY_type              00017f58 f   libeay32:p_lib.obj
 0001:00006f94       EVP_PKEY_id                00017f94 f   libeay32:p_lib.obj
 0001:00006f9c       EVP_PKEY_get_default_digest_nid 00017f9c f   libeay32:p_lib.obj
 0001:00006fe0       EVP_PKEY_copy_parameters   00017fe0 f   libeay32:p_lib.obj
 0001:000071cc       EVP_PKEY_set_type          000181cc f   libeay32:p_lib.obj
 0001:000071e4       EVP_PKEY_assign            000181e4 f   libeay32:p_lib.obj
 0001:0000721c       EVP_PKEY_free              0001821c f   libeay32:p_lib.obj
 0001:000072c8       EVP_get_cipherbyname       000182c8 f   libeay32:names.obj
 0001:000072dc       EVP_get_digestbyname       000182dc f   libeay32:names.obj
 0001:000072f0       ENGINE_get_pkey_meth_engine 000182f0 f   libeay32:tb_pkmeth.obj
 0001:0000730c       engine_pkey_meths_free     0001830c f   libeay32:tb_pkmeth.obj
 0001:0000738c       ENGINE_get_pkey_meth       0001838c f   libeay32:tb_pkmeth.obj
 0001:000073f0       engine_table_select        000183f0 f   libeay32:eng_table.obj
 0001:0000757c       engine_table_doall         0001857c f   libeay32:eng_table.obj
 0001:000075b0       CRYPTO_mem_ctrl            000185b0 f   libeay32:mem_dbg.obj
 0001:00007724       CRYPTO_is_mem_check_on     00018724 f   libeay32:mem_dbg.obj
 0001:000078a0       CRYPTO_push_info_          000188a0 f   libeay32:mem_dbg.obj
 0001:00007970       CRYPTO_pop_info            00018970 f   libeay32:mem_dbg.obj
 0001:000079b0       lh_free                    000189b0 f   libeay32:lhash.obj
 0001:00007a18       lh_doall                   00018a18 f   libeay32:lhash.obj
 0001:00007a6c       lh_doall_arg               00018a6c f   libeay32:lhash.obj
 0001:00007dd0       lh_strhash                 00018dd0 f   libeay32:lhash.obj
 0001:00007e3c       lh_num_items               00018e3c f   libeay32:lhash.obj
 0001:00007e4c       lh_new                     00018e4c f   libeay32:lhash.obj
 0001:00007f48       lh_insert                  00018f48 f   libeay32:lhash.obj
 0001:0000802c       lh_delete                  0001902c f   libeay32:lhash.obj
 0001:000080d8       lh_retrieve                000190d8 f   libeay32:lhash.obj
 0001:00008128       BUF_strlcpy                00019128 f   libeay32:buf_str.obj
 0001:00008178       BUF_strlcat                00019178 f   libeay32:buf_str.obj
 0001:000081b4       BUF_strndup                000191b4 f   libeay32:buf_str.obj
 0001:00008228       BUF_strdup                 00019228 f   libeay32:buf_str.obj
 0001:000092f0       BIO_vprintf                0001a2f0 f   libeay32:b_print.obj
 0001:000093b8       BIO_vsnprintf              0001a3b8 f   libeay32:b_print.obj
 0001:0000941c       BIO_printf                 0001a41c f   libeay32:b_print.obj
 0001:0000943c       BIO_snprintf               0001a43c f   libeay32:b_print.obj
 0001:0000945c       engine_free_util           0001a45c f   libeay32:eng_lib.obj
 0001:0000951c       ENGINE_free                0001a51c f   libeay32:eng_lib.obj
 0001:00009530       ASN1_TYPE_set_octetstring  0001a530 f   libeay32:evp_asn1.obj
 0001:00009590       ASN1_TYPE_get_octetstring  0001a590 f   libeay32:evp_asn1.obj
 0001:00009604       a2d_ASN1_OBJECT            0001a604 f   libeay32:a_object.obj
 0001:000099dc       i2t_ASN1_OBJECT            0001a9dc f   libeay32:a_object.obj
 0001:000099f0       i2a_ASN1_OBJECT            0001a9f0 f   libeay32:a_object.obj
 0001:00009acc       ASN1_OBJECT_new            0001aacc f   libeay32:a_object.obj
 0001:00009b48       ASN1_OBJECT_free           0001ab48 f   libeay32:a_object.obj
 0001:00009bc8       c2i_ASN1_OBJECT            0001abc8 f   libeay32:a_object.obj
 0001:00009d5c       d2i_ASN1_OBJECT            0001ad5c f   libeay32:a_object.obj
 0001:00009dfc       RSA_size                   0001adfc f   libeay32:rsa_crpt.obj
 0001:00009e20       RSA_public_encrypt         0001ae20 f   libeay32:rsa_crpt.obj
 0001:00009e4c       RSA_private_encrypt        0001ae4c f   libeay32:rsa_crpt.obj
 0001:00009e78       RSA_private_decrypt        0001ae78 f   libeay32:rsa_crpt.obj
 0001:00009ea4       RSA_public_decrypt         0001aea4 f   libeay32:rsa_crpt.obj
 0001:00009fb4       RSA_setup_blinding         0001afb4 f   libeay32:rsa_crpt.obj
 0001:0000a188       X509_SIG_it                0001b188 f   libeay32:x_sig.obj
 0001:0000a194       d2i_X509_SIG               0001b194 f   libeay32:x_sig.obj
 0001:0000a1ac       i2d_X509_SIG               0001b1ac f   libeay32:x_sig.obj
 0001:0000a1c4       X509_SIG_free              0001b1c4 f   libeay32:x_sig.obj
 0001:0000a1dc       ASN1_TYPE_get              0001b1dc f   libeay32:a_type.obj
 0001:0000a200       ASN1_TYPE_set              0001b200 f   libeay32:a_type.obj
 0001:0000a26c       ASN1_TYPE_set1             0001b26c f   libeay32:a_type.obj
 0001:0000a2e0       CMAC_CTX_new               0001b2e0 f   libeay32:cmac.obj
 0001:0000a320       CMAC_CTX_cleanup           0001b320 f   libeay32:cmac.obj
 0001:0000a36c       CMAC_CTX_free              0001b36c f   libeay32:cmac.obj
 0001:0000a388       CMAC_CTX_copy              0001b388 f   libeay32:cmac.obj
 0001:0000a418       CMAC_Init                  0001b418 f   libeay32:cmac.obj
 0001:0000a694       CMAC_Update                0001b694 f   libeay32:cmac.obj
 0001:0000a778       CMAC_Final                 0001b778 f   libeay32:cmac.obj
 0001:0000a878       X509V3_add_value           0001b878 f   libeay32:v3_utl.obj
 0001:0000a970       X509V3_add_value_uchar     0001b970 f   libeay32:v3_utl.obj
 0001:0000a980       X509V3_conf_free           0001b980 f   libeay32:v3_utl.obj
 0001:0000a9cc       X509V3_add_value_bool      0001b9cc f   libeay32:v3_utl.obj
 0001:0000a9f0       i2s_ASN1_ENUMERATED        0001b9f0 f   libeay32:v3_utl.obj
 0001:0000aa60       i2s_ASN1_INTEGER           0001ba60 f   libeay32:v3_utl.obj
 0001:0000aad0       s2i_ASN1_INTEGER           0001bad0 f   libeay32:v3_utl.obj
 0001:0000ac20       X509V3_add_value_int       0001bc20 f   libeay32:v3_utl.obj
 0001:0000ac74       X509V3_get_value_bool      0001bc74 f   libeay32:v3_utl.obj
 0001:0000ae30       X509V3_get_value_int       0001be30 f   libeay32:v3_utl.obj
 0001:0000af44       hex_to_string              0001bf44 f   libeay32:v3_utl.obj
 0001:0000b004       string_to_hex              0001c004 f   libeay32:v3_utl.obj
 0001:0000b1cc       name_cmp                   0001c1cc f   libeay32:v3_utl.obj
 0001:0000b2b0       X509V3_NAME_from_section   0001c2b0 f   libeay32:v3_utl.obj
 0001:0000b398       X509V3_parse_list          0001c398 f   libeay32:v3_utl.obj
 0001:0000b808       a2i_ipadd                  0001c808 f   libeay32:v3_utl.obj
 0001:0000b86c       a2i_IPADDRESS              0001c86c f   libeay32:v3_utl.obj
 0001:0000b8c8       a2i_IPADDRESS_NC           0001c8c8 f   libeay32:v3_utl.obj
 0001:0000b994       HMAC_Init_ex               0001c994 f   libeay32:hmac.obj
 0001:0000bb8c       HMAC_Update                0001cb8c f   libeay32:hmac.obj
 0001:0000bba0       HMAC_Final                 0001cba0 f   libeay32:hmac.obj
 0001:0000bc28       HMAC_CTX_init              0001cc28 f   libeay32:hmac.obj
 0001:0000bc50       HMAC_CTX_copy              0001cc50 f   libeay32:hmac.obj
 0001:0000bcd0       HMAC_CTX_cleanup           0001ccd0 f   libeay32:hmac.obj
 0001:0000bd08       HMAC_CTX_set_flags         0001cd08 f   libeay32:hmac.obj
 0001:0000bd3c       HMAC_Init                  0001cd3c f   libeay32:hmac.obj
 0001:0000bda0       HMAC                       0001cda0 f   libeay32:hmac.obj
 0001:0000be4c       ASN1_OCTET_STRING_dup      0001ce4c f   libeay32:a_octet.obj
 0001:0000be5c       ASN1_OCTET_STRING_set      0001ce5c f   libeay32:a_octet.obj
 0001:0000be6c       EC_GROUP_new               0001ce6c f   libeay32:ec_lib.obj
 0001:0000bf6c       EC_GROUP_method_of         0001cf6c f   libeay32:ec_lib.obj
 0001:0000bf74       EC_METHOD_get_field_type   0001cf74 f   libeay32:ec_lib.obj
 0001:0000bf7c       EC_GROUP_get0_generator    0001cf7c f   libeay32:ec_lib.obj
 0001:0000bf84       EC_GROUP_get_order         0001cf84 f   libeay32:ec_lib.obj
 0001:0000bfb8       EC_GROUP_get_cofactor      0001cfb8 f   libeay32:ec_lib.obj
 0001:0000bff0       EC_GROUP_set_curve_name    0001cff0 f   libeay32:ec_lib.obj
 0001:0000bff8       EC_GROUP_get_curve_name    0001cff8 f   libeay32:ec_lib.obj
 0001:0000c000       EC_GROUP_set_asn1_flag     0001d000 f   libeay32:ec_lib.obj
 0001:0000c008       EC_GROUP_get_asn1_flag     0001d008 f   libeay32:ec_lib.obj
 0001:0000c010       EC_GROUP_set_point_conversion_form 0001d010 f   libeay32:ec_lib.obj
 0001:0000c018       EC_GROUP_get_point_conversion_form 0001d018 f   libeay32:ec_lib.obj
 0001:0000c020       EC_GROUP_set_seed          0001d020 f   libeay32:ec_lib.obj
 0001:0000c0ac       EC_GROUP_get0_seed         0001d0ac f   libeay32:ec_lib.obj
 0001:0000c0b4       EC_GROUP_get_seed_len      0001d0b4 f   libeay32:ec_lib.obj
 0001:0000c0bc       EC_GROUP_set_curve_GFp     0001d0bc f   libeay32:ec_lib.obj
 0001:0000c124       EC_GROUP_get_curve_GFp     0001d124 f   libeay32:ec_lib.obj
 0001:0000c18c       EC_GROUP_set_curve_GF2m    0001d18c f   libeay32:ec_lib.obj
 0001:0000c1f4       EC_GROUP_get_curve_GF2m    0001d1f4 f   libeay32:ec_lib.obj
 0001:0000c258       EC_GROUP_get_degree        0001d258 f   libeay32:ec_lib.obj
 0001:0000c2b0       EC_EX_DATA_set_data        0001d2b0 f   libeay32:ec_lib.obj
 0001:0000c38c       EC_EX_DATA_get_data        0001d38c f   libeay32:ec_lib.obj
 0001:0000c3e0       EC_EX_DATA_free_data       0001d3e0 f   libeay32:ec_lib.obj
 0001:0000c468       EC_EX_DATA_free_all_data   0001d468 f   libeay32:ec_lib.obj
 0001:0000c4b8       EC_EX_DATA_clear_free_all_data 0001d4b8 f   libeay32:ec_lib.obj
 0001:0000c508       EC_POINT_new               0001d508 f   libeay32:ec_lib.obj
 0001:0000c5e8       EC_POINT_free              0001d5e8 f   libeay32:ec_lib.obj
 0001:0000c61c       EC_POINT_clear_free        0001d61c f   libeay32:ec_lib.obj
 0001:0000c678       EC_POINT_copy              0001d678 f   libeay32:ec_lib.obj
 0001:0000c70c       EC_POINT_dup               0001d70c f   libeay32:ec_lib.obj
 0001:0000c754       EC_POINT_set_to_infinity   0001d754 f   libeay32:ec_lib.obj
 0001:0000c7e0       EC_POINT_set_Jprojective_coordinates_GFp 0001d7e0 f   libeay32:ec_lib.obj
 0001:0000c894       EC_POINT_set_affine_coordinates_GFp 0001d894 f   libeay32:ec_lib.obj
 0001:0000c934       EC_POINT_set_affine_coordinates_GF2m 0001d934 f   libeay32:ec_lib.obj
 0001:0000c9d8       EC_POINT_get_affine_coordinates_GFp 0001d9d8 f   libeay32:ec_lib.obj
 0001:0000ca7c       EC_POINT_get_affine_coordinates_GF2m 0001da7c f   libeay32:ec_lib.obj
 0001:0000cb1c       EC_POINT_add               0001db1c f   libeay32:ec_lib.obj
 0001:0000cbd8       EC_POINT_dbl               0001dbd8 f   libeay32:ec_lib.obj
 0001:0000cc78       EC_POINT_invert            0001dc78 f   libeay32:ec_lib.obj
 0001:0000cd04       EC_POINT_is_at_infinity    0001dd04 f   libeay32:ec_lib.obj
 0001:0000cd8c       EC_POINT_is_on_curve       0001dd8c f   libeay32:ec_lib.obj
 0001:0000ce14       EC_POINT_cmp               0001de14 f   libeay32:ec_lib.obj
 0001:0000ceb4       EC_POINT_make_affine       0001deb4 f   libeay32:ec_lib.obj
 0001:0000cf3c       EC_POINTs_make_affine      0001df3c f   libeay32:ec_lib.obj
 0001:0000d004       EC_POINTs_mul              0001e004 f   libeay32:ec_lib.obj
 0001:0000d080       EC_POINT_mul               0001e080 f   libeay32:ec_lib.obj
 0001:0000d0d4       EC_GROUP_have_precompute_mult 0001e0d4 f   libeay32:ec_lib.obj
 0001:0000d11c       EC_GROUP_free              0001e11c f   libeay32:ec_lib.obj
 0001:0000d188       EC_GROUP_clear_free        0001e188 f   libeay32:ec_lib.obj
 0001:0000d22c       EC_GROUP_copy              0001e22c f   libeay32:ec_lib.obj
 0001:0000d440       EC_GROUP_dup               0001e440 f   libeay32:ec_lib.obj
 0001:0000d488       EC_GROUP_set_generator     0001e488 f   libeay32:ec_lib.obj
 0001:0000d568       EC_GROUP_cmp               0001e568 f   libeay32:ec_lib.obj
 0001:0000d7d4       ECDSA_do_sign_ex           0001e7d4 f   libeay32:ecs_sign.obj
 0001:0000d834       ECDSA_sign_ex              0001e834 f   libeay32:ecs_sign.obj
 0001:0000d8bc       ECDSA_sign_setup           0001e8bc f   libeay32:ecs_sign.obj
 0001:0000d90c       ECDSA_sign                 0001e90c f   libeay32:ecs_sign.obj
 0001:0000da98       ecdsa_check                0001ea98 f   libeay32:ecs_lib.obj
 0001:0000db14       ECDSA_size                 0001eb14 f   libeay32:ecs_lib.obj
 0001:0000dbcc       ECDSA_do_verify            0001ebcc f   libeay32:ecs_vrf.obj
 0001:0000dc20       ECDSA_verify               0001ec20 f   libeay32:ecs_vrf.obj
 0001:0000dc98       ECDH_compute_key           0001ec98 f   libeay32:ech_key.obj
 0001:0000dcf8       EC_KEY_new                 0001ecf8 f   libeay32:ec_key.obj
 0001:0000dd7c       EC_KEY_free                0001ed7c f   libeay32:ec_key.obj
 0001:0000de0c       EC_KEY_generate_key        0001ee0c f   libeay32:ec_key.obj
 0001:0000df68       EC_KEY_get0_group          0001ef68 f   libeay32:ec_key.obj
 0001:0000df70       EC_KEY_set_group           0001ef70 f   libeay32:ec_key.obj
 0001:0000dfb0       EC_KEY_get0_private_key    0001efb0 f   libeay32:ec_key.obj
 0001:0000dfb8       EC_KEY_get0_public_key     0001efb8 f   libeay32:ec_key.obj
 0001:0000dfc0       EC_KEY_set_public_key      0001efc0 f   libeay32:ec_key.obj
 0001:0000e004       EC_KEY_get_enc_flags       0001f004 f   libeay32:ec_key.obj
 0001:0000e00c       EC_KEY_set_enc_flags       0001f00c f   libeay32:ec_key.obj
 0001:0000e014       EC_KEY_get_conv_form       0001f014 f   libeay32:ec_key.obj
 0001:0000e01c       EC_KEY_get_key_method_data 0001f01c f   libeay32:ec_key.obj
 0001:0000e088       EC_KEY_insert_key_method_data 0001f088 f   libeay32:ec_key.obj
 0001:0000e548       EC_GROUP_new_by_curve_name 0001f548 f   libeay32:ec_curve.obj
 0001:0000e670       d2i_DSA_SIG                0001f670 f   libeay32:dsa_asn1.obj
 0001:0000e6e4       d2i_DSAPrivateKey          0001f6e4 f   libeay32:dsa_asn1.obj
 0001:0000e6fc       i2d_DSAPrivateKey          0001f6fc f   libeay32:dsa_asn1.obj
 0001:0000e714       d2i_DSAparams              0001f714 f   libeay32:dsa_asn1.obj
 0001:0000e72c       i2d_DSAparams              0001f72c f   libeay32:dsa_asn1.obj
 0001:0000e744       dsa_pub_internal_it        0001f744 f   libeay32:dsa_asn1.obj
 0001:0000e750       i2d_DSAPublicKey           0001f750 f   libeay32:dsa_asn1.obj
 0001:0000e768       DSA_sign                   0001f768 f   libeay32:dsa_asn1.obj
 0001:0000e7e8       DSA_verify                 0001f7e8 f   libeay32:dsa_asn1.obj
 0001:0000e868       DSA_new_method             0001f868 f   libeay32:dsa_lib.obj
 0001:0000ea18       DSA_free                   0001fa18 f   libeay32:dsa_lib.obj
 0001:0000eb0c       DSA_size                   0001fb0c f   libeay32:dsa_lib.obj
 0001:0000eb70       DSA_new                    0001fb70 f   libeay32:dsa_lib.obj
 0001:0000eb84       dsa_builtin_paramgen       0001fb84 f   libeay32:dsa_gen.obj
 0001:0000f318       evp_pkey_set_cb_translate  00020318 f   libeay32:pmeth_gn.obj
 0001:0000f46c       DSA_generate_key           0002046c f   libeay32:dsa_key.obj
 0001:0000f49c       DH_new_method              0002049c f   libeay32:dh_lib.obj
 0001:0000f654       DH_free                    00020654 f   libeay32:dh_lib.obj
 0001:0000f758       DH_size                    00020758 f   libeay32:dh_lib.obj
 0001:0000f77c       DH_new                     0002077c f   libeay32:dh_lib.obj
 0001:0000f974       DH_generate_parameters_ex  00020974 f   libeay32:dh_gen.obj
 0001:0000f9a4       DH_generate_key            000209a4 f   libeay32:dh_key.obj
 0001:0000f9c0       DH_compute_key             000209c0 f   libeay32:dh_key.obj
 0001:0000f9dc       DH_OpenSSL                 000209dc f   libeay32:dh_key.obj
 0001:0000fe78       BN_value_one               00020e78 f   libeay32:bn_lib.obj
 0001:0000fe84       BN_num_bits_word           00020e84 f   libeay32:bn_lib.obj
 0001:0000fec8       BN_num_bits                00020ec8 f   libeay32:bn_lib.obj
 0001:0000fefc       BN_clear_free              00020efc f   libeay32:bn_lib.obj
 0001:0000ff54       BN_free                    00020f54 f   libeay32:bn_lib.obj
 0001:0000ffac       BN_init                    00020fac f   libeay32:bn_lib.obj
 0001:0000ffc4       BN_new                     00020fc4 f   libeay32:bn_lib.obj
 0001:00010188       bn_expand2                 00021188 f   libeay32:bn_lib.obj
 0001:000101d4       BN_copy                    000211d4 f   libeay32:bn_lib.obj
 0001:0001029c       BN_set_word                0002129c f   libeay32:bn_lib.obj
 0001:000102f4       BN_bin2bn                  000212f4 f   libeay32:bn_lib.obj
 0001:000103f0       BN_bn2bin                  000213f0 f   libeay32:bn_lib.obj
 0001:0001044c       BN_ucmp                    0002144c f   libeay32:bn_lib.obj
 0001:000104b8       BN_cmp                     000214b8 f   libeay32:bn_lib.obj
 0001:00010580       BN_set_bit                 00021580 f   libeay32:bn_lib.obj
 0001:0001061c       BN_is_bit_set              0002161c f   libeay32:bn_lib.obj
 0001:0001065c       BN_mask_bits               0002165c f   libeay32:bn_lib.obj
 0001:000106f4       BN_set_negative            000216f4 f   libeay32:bn_lib.obj
 0001:00010714       BN_dup                     00021714 f   libeay32:bn_lib.obj
 0001:00010758       RSA_verify_PKCS1_PSS_mgf1  00021758 f   libeay32:rsa_pss.obj
 0001:00010c88       RSA_padding_add_PKCS1_PSS_mgf1 00021c88 f   libeay32:rsa_pss.obj
 0001:000110dc       RSA_padding_add_X931       000220dc f   libeay32:rsa_x931.obj
 0001:00011188       RSA_padding_check_X931     00022188 f   libeay32:rsa_x931.obj
 0001:000112b0       RSA_X931_hash_id           000222b0 f   libeay32:rsa_x931.obj
 0001:00011300       RSA_sign_ASN1_OCTET_STRING 00022300 f   libeay32:rsa_saos.obj
 0001:00011454       EVP_sha1                   00022454 f   libeay32:m_sha1.obj
 0001:00011510       X509_ALGOR_it              00022510 f   libeay32:x_algor.obj
 0001:0001151c       d2i_X509_ALGOR             0002251c f   libeay32:x_algor.obj
 0001:00011534       X509_ALGOR_new             00022534 f   libeay32:x_algor.obj
 0001:0001154c       X509_ALGOR_free            0002254c f   libeay32:x_algor.obj
 0001:00011564       X509_ALGOR_set0            00022564 f   libeay32:x_algor.obj
 0001:0001160c       X509_ALGOR_get0            0002260c f   libeay32:x_algor.obj
 0001:00011660       X509_ALGOR_set_md          00022660 f   libeay32:x_algor.obj
 0001:000116a0       CMS_RecipientInfo_ktri_get0_algs 000226a0 f   libeay32:cms_env.obj
 0001:000119fc       cms_EnvelopedData_init_bio 000229fc f   libeay32:cms_env.obj
 0001:00011b60       BN_bn2dec                  00022b60 f   libeay32:bn_print.obj
 0001:00011d4c       BN_hex2bn                  00022d4c f   libeay32:bn_print.obj
 0001:00011edc       BN_dec2bn                  00022edc f   libeay32:bn_print.obj
 0001:00012070       BN_asc2bn                  00023070 f   libeay32:bn_print.obj
 0001:000120f0       RSA_new_method             000230f0 f   libeay32:rsa_lib.obj
 0001:000122d4       RSA_free                   000232d4 f   libeay32:rsa_lib.obj
 0001:00012408       RSA_new                    00023408 f   libeay32:rsa_lib.obj
 0001:000129d4       RSA_generate_key_ex        000239d4 f   libeay32:rsa_gen.obj
 0001:00012a04       OBJ_dup                    00023a04 f   libeay32:obj_lib.obj
 0001:00012ba4       OBJ_cmp                    00023ba4 f   libeay32:obj_lib.obj
 0001:00012bd0       BIO_set                    00023bd0 f   libeay32:bio_lib.obj
 0001:00012c70       BIO_free                   00023c70 f   libeay32:bio_lib.obj
 0001:00012d34       BIO_clear_flags            00023d34 f   libeay32:bio_lib.obj
 0001:00012d44       BIO_test_flags             00023d44 f   libeay32:bio_lib.obj
 0001:00012d50       BIO_set_flags              00023d50 f   libeay32:bio_lib.obj
 0001:00012d60       BIO_read                   00023d60 f   libeay32:bio_lib.obj
 0001:00012e90       BIO_write                  00023e90 f   libeay32:bio_lib.obj
 0001:00012fc4       BIO_puts                   00023fc4 f   libeay32:bio_lib.obj
 0001:000130ec       BIO_gets                   000240ec f   libeay32:bio_lib.obj
 0001:00013214       BIO_indent                 00024214 f   libeay32:bio_lib.obj
 0001:00013270       BIO_ctrl                   00024270 f   libeay32:bio_lib.obj
 0001:0001336c       BIO_callback_ctrl          0002436c f   libeay32:bio_lib.obj
 0001:00013470       BIO_push                   00024470 f   libeay32:bio_lib.obj
 0001:000134c4       BIO_find_type              000244c4 f   libeay32:bio_lib.obj
 0001:0001350c       BIO_next                   0002450c f   libeay32:bio_lib.obj
 0001:0001351c       BIO_free_all               0002451c f   libeay32:bio_lib.obj
 0001:00013550       BIO_copy_next_retry        00024550 f   libeay32:bio_lib.obj
 0001:00013574       BIO_new                    00024574 f   libeay32:bio_lib.obj
 0001:000135ec       BIO_int_ctrl               000245ec f   libeay32:bio_lib.obj
 0001:00013610       BN_mod_word                00024610 f   libeay32:bn_word.obj
 0001:00013674       BN_div_word                00024674 f   libeay32:bn_word.obj
 0001:0001373c       BN_add_word                0002473c f   libeay32:bn_word.obj
 0001:00013848       BN_sub_word                00024848 f   libeay32:bn_word.obj
 0001:0001394c       BN_mul_word                0002494c f   libeay32:bn_word.obj
 0001:000139d8       BN_lshift1                 000249d8 f   libeay32:bn_shift.obj
 0001:00013aac       BN_rshift1                 00024aac f   libeay32:bn_shift.obj
 0001:00013b88       BN_lshift                  00024b88 f   libeay32:bn_shift.obj
 0001:00013cb4       BN_rshift                  00024cb4 f   libeay32:bn_shift.obj
 0001:00013e88       ASN1_put_eoc               00024e88 f   libeay32:asn1_lib.obj
 0001:00013ea8       ASN1_object_size           00024ea8 f   libeay32:asn1_lib.obj
 0001:00013ef8       ASN1_STRING_set            00024ef8 f   libeay32:asn1_lib.obj
 0001:00013fe8       ASN1_STRING_set0           00024fe8 f   libeay32:asn1_lib.obj
 0001:00014018       ASN1_STRING_type_new       00025018 f   libeay32:asn1_lib.obj
 0001:00014084       ASN1_STRING_free           00025084 f   libeay32:asn1_lib.obj
 0001:000140b8       ASN1_STRING_cmp            000250b8 f   libeay32:asn1_lib.obj
 0001:000140f8       ASN1_get_object            000250f8 f   libeay32:asn1_lib.obj
 0001:00014250       ASN1_put_object            00025250 f   libeay32:asn1_lib.obj
 0001:00014364       ASN1_STRING_copy           00025364 f   libeay32:asn1_lib.obj
 0001:000143b0       ASN1_STRING_new            000253b0 f   libeay32:asn1_lib.obj
 0001:000143c4       ASN1_STRING_dup            000253c4 f   libeay32:asn1_lib.obj
 0001:00014424       EVP_PKEY_asn1_get_count    00025424 f   libeay32:ameth_lib.obj
 0001:00014454       EVP_PKEY_asn1_get0         00025454 f   libeay32:ameth_lib.obj
 0001:0001449c       EVP_PKEY_asn1_find         0002549c f   libeay32:ameth_lib.obj
 0001:00014584       EVP_PKEY_asn1_find_str     00025584 f   libeay32:ameth_lib.obj
 0001:0001466c       EVP_PKEY_asn1_free         0002566c f   libeay32:ameth_lib.obj
 0001:000146b4       X509_ATTRIBUTE_SET_it      000256b4 f   libeay32:x_attrib.obj
 0001:000146c0       X509_ATTRIBUTE_it          000256c0 f   libeay32:x_attrib.obj
 0001:000146cc       X509_ATTRIBUTE_new         000256cc f   libeay32:x_attrib.obj
 0001:000146e4       X509_ATTRIBUTE_free        000256e4 f   libeay32:x_attrib.obj
 0001:000146fc       X509_ATTRIBUTE_dup         000256fc f   libeay32:x_attrib.obj
 0001:00014718       X509_ATTRIBUTE_create      00025718 f   libeay32:x_attrib.obj
 0001:00014894       OBJ_NAME_init              00025894 f   libeay32:o_names.obj
 0001:000148fc       OBJ_NAME_get               000258fc f   libeay32:o_names.obj
 0001:000149e0       OBJ_find_sigid_algs        000259e0 f   libeay32:obj_xref.obj
 0001:00014a80       OBJ_find_sigid_by_algs     00025a80 f   libeay32:obj_xref.obj
 0001:00014b4c       EVP_PBE_find               00025b4c f   libeay32:evp_pbe.obj
 0001:00014c10       EVP_PBE_CipherInit         00025c10 f   libeay32:evp_pbe.obj
 0001:00015240       BIO_new_file               00026240 f   libeay32:bss_file.obj
 0001:000158d8       CRYPTO_new_ex_data         000268d8 f   libeay32:ex_data.obj
 0001:00015924       CRYPTO_free_ex_data        00026924 f   libeay32:ex_data.obj
 0001:00015970       CRYPTO_set_ex_data         00026970 f   libeay32:ex_data.obj
 0001:00015a44       CRYPTO_get_ex_data         00026a44 f   libeay32:ex_data.obj
 0001:00015f34       ENGINE_get_pkey_asn1_meth_engine 00026f34 f   libeay32:tb_asnmth.obj
 0001:00015f50       engine_pkey_asn1_meths_free 00026f50 f   libeay32:tb_asnmth.obj
 0001:0001608c       ENGINE_pkey_asn1_find_str  0002708c f   libeay32:tb_asnmth.obj
 0001:0001612c       ENGINE_get_pkey_asn1_meth  0002712c f   libeay32:tb_asnmth.obj
 0001:00016190       RAND_get_rand_method       00027190 f   libeay32:rand_lib.obj
 0001:000161f8       RAND_seed                  000271f8 f   libeay32:rand_lib.obj
 0001:0001622c       RAND_add                   0002722c f   libeay32:rand_lib.obj
 0001:00016270       RAND_bytes                 00027270 f   libeay32:rand_lib.obj
 0001:000162b8       RAND_pseudo_bytes          000272b8 f   libeay32:rand_lib.obj
 0001:00016300       RAND_status                00027300 f   libeay32:rand_lib.obj
 0001:00016338       ASN1_INTEGER_it            00027338 f   libeay32:tasn_typ.obj
 0001:00016344       d2i_ASN1_INTEGER           00027344 f   libeay32:tasn_typ.obj
 0001:0001635c       i2d_ASN1_INTEGER           0002735c f   libeay32:tasn_typ.obj
 0001:00016374       ASN1_INTEGER_new           00027374 f   libeay32:tasn_typ.obj
 0001:0001638c       ASN1_INTEGER_free          0002738c f   libeay32:tasn_typ.obj
 0001:000163a4       ASN1_ENUMERATED_it         000273a4 f   libeay32:tasn_typ.obj
 0001:000163b0       ASN1_ENUMERATED_free       000273b0 f   libeay32:tasn_typ.obj
 0001:000163c8       ASN1_BIT_STRING_it         000273c8 f   libeay32:tasn_typ.obj
 0001:000163d4       ASN1_BIT_STRING_new        000273d4 f   libeay32:tasn_typ.obj
 0001:000163ec       ASN1_BIT_STRING_free       000273ec f   libeay32:tasn_typ.obj
 0001:00016404       ASN1_OCTET_STRING_it       00027404 f   libeay32:tasn_typ.obj
 0001:00016410       i2d_ASN1_OCTET_STRING      00027410 f   libeay32:tasn_typ.obj
 0001:00016428       ASN1_OCTET_STRING_new      00027428 f   libeay32:tasn_typ.obj
 0001:00016440       ASN1_OCTET_STRING_free     00027440 f   libeay32:tasn_typ.obj
 0001:00016458       ASN1_NULL_it               00027458 f   libeay32:tasn_typ.obj
 0001:00016464       ASN1_NULL_new              00027464 f   libeay32:tasn_typ.obj
 0001:0001647c       ASN1_OBJECT_it             0002747c f   libeay32:tasn_typ.obj
 0001:00016488       ASN1_UTF8STRING_it         00027488 f   libeay32:tasn_typ.obj
 0001:00016494       ASN1_IA5STRING_it          00027494 f   libeay32:tasn_typ.obj
 0001:000164a0       ASN1_GENERALIZEDTIME_it    000274a0 f   libeay32:tasn_typ.obj
 0001:000164ac       ASN1_ANY_it                000274ac f   libeay32:tasn_typ.obj
 0001:000164b8       ASN1_SEQUENCE_it           000274b8 f   libeay32:tasn_typ.obj
 0001:000164c4       d2i_ASN1_TYPE              000274c4 f   libeay32:tasn_typ.obj
 0001:000164dc       i2d_ASN1_TYPE              000274dc f   libeay32:tasn_typ.obj
 0001:000164f4       ASN1_TYPE_new              000274f4 f   libeay32:tasn_typ.obj
 0001:0001650c       ASN1_TYPE_free             0002750c f   libeay32:tasn_typ.obj
 0001:00016524       ASN1_PRINTABLE_it          00027524 f   libeay32:tasn_typ.obj
 0001:00016530       DISPLAYTEXT_it             00027530 f   libeay32:tasn_typ.obj
 0001:0001653c       DIRECTORYSTRING_it         0002753c f   libeay32:tasn_typ.obj
 0001:00016548       ASN1_BOOLEAN_it            00027548 f   libeay32:tasn_typ.obj
 0001:00016554       ASN1_FBOOLEAN_it           00027554 f   libeay32:tasn_typ.obj
 0001:00016560       ASN1_OCTET_STRING_NDEF_it  00027560 f   libeay32:tasn_typ.obj
 0001:0001656c       d2i_ASN1_SEQUENCE_ANY      0002756c f   libeay32:tasn_typ.obj
 0001:00016584       i2d_ASN1_SEQUENCE_ANY      00027584 f   libeay32:tasn_typ.obj
 0001:0001659c       i2d_ASN1_SET_ANY           0002759c f   libeay32:tasn_typ.obj
 0001:000165b4       ASN1_INTEGER_cmp           000275b4 f   libeay32:a_int.obj
 0001:000165fc       i2c_ASN1_INTEGER           000275fc f   libeay32:a_int.obj
 0001:00016750       c2i_ASN1_INTEGER           00027750 f   libeay32:a_int.obj
 0001:00016914       d2i_ASN1_UINTEGER          00027914 f   libeay32:a_int.obj
 0001:00016a84       ASN1_INTEGER_set           00027a84 f   libeay32:a_int.obj
 0001:00016b8c       ASN1_INTEGER_get           00027b8c f   libeay32:a_int.obj
 0001:00016c20       BN_to_ASN1_INTEGER         00027c20 f   libeay32:a_int.obj
 0001:00016d48       ASN1_INTEGER_to_BN         00027d48 f   libeay32:a_int.obj
 0001:00016dc0       BN_BLINDING_free           00027dc0 f   libeay32:bn_blind.obj
 0001:00016e1c       BN_BLINDING_invert_ex      00027e1c f   libeay32:bn_blind.obj
 0001:00016ea0       BN_BLINDING_thread_id      00027ea0 f   libeay32:bn_blind.obj
 0001:00016ea8       BN_BLINDING_new            00027ea8 f   libeay32:bn_blind.obj
 0001:00016f9c       BN_BLINDING_create_param   00027f9c f   libeay32:bn_blind.obj
 0001:00017178       BN_BLINDING_update         00028178 f   libeay32:bn_blind.obj
 0001:0001728c       BN_BLINDING_convert_ex     0002828c f   libeay32:bn_blind.obj
 0001:00017438       BN_CTX_new                 00028438 f   libeay32:bn_ctx.obj
 0001:000174c0       BN_CTX_free                000284c0 f   libeay32:bn_ctx.obj
 0001:0001753c       BN_CTX_start               0002853c f   libeay32:bn_ctx.obj
 0001:0001762c       BN_CTX_end                 0002862c f   libeay32:bn_ctx.obj
 0001:000176bc       BN_CTX_get                 000286bc f   libeay32:bn_ctx.obj
 0001:00017ba8       BN_gcd                     00028ba8 f   libeay32:bn_gcd.obj
 0001:00017c7c       BN_mod_inverse             00028c7c f   libeay32:bn_gcd.obj
 0001:000182f0       bn_mul_normal              000292f0 f   libeay32:bn_mul.obj
 0001:00018400       BN_mul                     00029400 f   libeay32:bn_mul.obj
 0001:00018520       BN_uadd                    00029520 f   libeay32:bn_add.obj
 0001:0001861c       BN_usub                    0002961c f   libeay32:bn_add.obj
 0001:000187c4       BN_sub                     000297c4 f   libeay32:bn_add.obj
 0001:000188bc       BN_add                     000298bc f   libeay32:bn_add.obj
 0001:00018970       ASN1_tag2bit               00029970 f   libeay32:tasn_dec.obj
 0001:00018988       asn1_ex_c2i                00029988 f   libeay32:tasn_dec.obj
 0001:00019860       ASN1_item_ex_d2i           0002a860 f   libeay32:tasn_dec.obj
 0001:0001a634       ASN1_item_d2i              0002b634 f   libeay32:tasn_dec.obj
 0001:0001a9e4       asn1_ex_i2c                0002b9e4 f   libeay32:tasn_enc.obj
 0001:0001acd0       ASN1_item_ex_i2d           0002bcd0 f   libeay32:tasn_enc.obj
 0001:0001b3a8       ASN1_item_i2d              0002c3a8 f   libeay32:tasn_enc.obj
 0001:0001b3bc       ASN1_primitive_new         0002c3bc f   libeay32:tasn_new.obj
 0001:0001b8f8       ASN1_item_ex_new           0002c8f8 f   libeay32:tasn_new.obj
 0001:0001b90c       ASN1_template_new          0002c90c f   libeay32:tasn_new.obj
 0001:0001b9e4       ASN1_item_new              0002c9e4 f   libeay32:tasn_new.obj
 0001:0001ba1c       ASN1_primitive_free        0002ca1c f   libeay32:tasn_fre.obj
 0001:0001bd90       ASN1_template_free         0002cd90 f   libeay32:tasn_fre.obj
 0001:0001be44       ASN1_item_free             0002ce44 f   libeay32:tasn_fre.obj
 0001:0001be64       ASN1_item_ex_free          0002ce64 f   libeay32:tasn_fre.obj
 0001:0001be78       EVP_CIPHER_CTX_init        0002ce78 f   libeay32:evp_enc.obj
 0001:0001be90       EVP_EncryptUpdate          0002ce90 f   libeay32:evp_enc.obj
 0001:0001c080       EVP_EncryptFinal_ex        0002d080 f   libeay32:evp_enc.obj
 0001:0001c1ac       EVP_DecryptUpdate          0002d1ac f   libeay32:evp_enc.obj
 0001:0001c328       EVP_DecryptFinal_ex        0002d328 f   libeay32:evp_enc.obj
 0001:0001c500       EVP_CIPHER_CTX_cleanup     0002d500 f   libeay32:evp_enc.obj
 0001:0001c58c       EVP_CIPHER_CTX_set_padding 0002d58c f   libeay32:evp_enc.obj
 0001:0001c5a8       EVP_CIPHER_CTX_ctrl        0002d5a8 f   libeay32:evp_enc.obj
 0001:0001c658       EVP_CIPHER_CTX_rand_key    0002d658 f   libeay32:evp_enc.obj
 0001:0001c6ac       EVP_CIPHER_CTX_copy        0002d6ac f   libeay32:evp_enc.obj
 0001:0001c7fc       EVP_CipherInit_ex          0002d7fc f   libeay32:evp_enc.obj
 0001:0001cb5c       EVP_CipherUpdate           0002db5c f   libeay32:evp_enc.obj
 0001:0001cba0       EVP_CipherFinal_ex         0002dba0 f   libeay32:evp_enc.obj
 0001:0001cbc8       EVP_EncryptInit_ex         0002dbc8 f   libeay32:evp_enc.obj
 0001:0001cbf0       EVP_DecryptInit_ex         0002dbf0 f   libeay32:evp_enc.obj
 0001:0001cc18       EVP_CIPHER_CTX_set_key_length 0002dc18 f   libeay32:evp_enc.obj
 0001:0001cca0       ASN1_ENUMERATED_get        0002dca0 f   libeay32:a_enum.obj
 0001:0001cd34       ASN1_ENUMERATED_to_BN      0002dd34 f   libeay32:a_enum.obj
 0001:0001cda8       X509_NAME_entry_count      0002dda8 f   libeay32:x509name.obj
 0001:0001cdcc       X509_NAME_get_index_by_OBJ 0002ddcc f   libeay32:x509name.obj
 0001:0001ce38       X509_NAME_get_entry        0002de38 f   libeay32:x509name.obj
 0001:0001ce80       X509_NAME_delete_entry     0002de80 f   libeay32:x509name.obj
 0001:0001cf54       X509_NAME_add_entry        0002df54 f   libeay32:x509name.obj
 0001:0001d0c0       X509_NAME_ENTRY_set_object 0002e0c0 f   libeay32:x509name.obj
 0001:0001d134       X509_NAME_ENTRY_set_data   0002e134 f   libeay32:x509name.obj
 0001:0001d214       X509_NAME_ENTRY_get_object 0002e214 f   libeay32:x509name.obj
 0001:0001d224       X509_NAME_ENTRY_get_data   0002e224 f   libeay32:x509name.obj
 0001:0001d234       X509_NAME_get_index_by_NID 0002e234 f   libeay32:x509name.obj
 0001:0001d270       X509_NAME_ENTRY_create_by_OBJ 0002e270 f   libeay32:x509name.obj
 0001:0001d31c       X509_NAME_ENTRY_create_by_txt 0002e31c f   libeay32:x509name.obj
 0001:0001d3c0       X509_NAME_add_entry_by_txt 0002e3c0 f   libeay32:x509name.obj
 0001:0001d418       ACCESS_DESCRIPTION_it      0002e418 f   libeay32:v3_info.obj
 0001:0001d424       ACCESS_DESCRIPTION_free    0002e424 f   libeay32:v3_info.obj
 0001:0001d43c       AUTHORITY_INFO_ACCESS_it   0002e43c f   libeay32:v3_info.obj
 0001:0001d790       X509_CRL_get_ext_d2i       0002e790 f   libeay32:x509_ext.obj
 0001:0001d7a8       X509_get_ext_count         0002e7a8 f   libeay32:x509_ext.obj
 0001:0001d7c0       X509_get_ext_by_NID        0002e7c0 f   libeay32:x509_ext.obj
 0001:0001d7d8       X509_get_ext               0002e7d8 f   libeay32:x509_ext.obj
 0001:0001d7f0       X509_get_ext_d2i           0002e7f0 f   libeay32:x509_ext.obj
 0001:0001d808       X509_REVOKED_get_ext_d2i   0002e808 f   libeay32:x509_ext.obj
 0001:0001d81c       CONF_parse_list            0002e81c f   libeay32:conf_mod.obj
 0001:0001d948       OTHERNAME_it               0002e948 f   libeay32:v3_genn.obj
 0001:0001d954       OTHERNAME_new              0002e954 f   libeay32:v3_genn.obj
 0001:0001d96c       EDIPARTYNAME_it            0002e96c f   libeay32:v3_genn.obj
 0001:0001d978       GENERAL_NAME_it            0002e978 f   libeay32:v3_genn.obj
 0001:0001d984       GENERAL_NAME_new           0002e984 f   libeay32:v3_genn.obj
 0001:0001d99c       GENERAL_NAME_free          0002e99c f   libeay32:v3_genn.obj
 0001:0001d9b4       GENERAL_NAMES_it           0002e9b4 f   libeay32:v3_genn.obj
 0001:0001d9c0       GENERAL_NAMES_new          0002e9c0 f   libeay32:v3_genn.obj
 0001:0001d9d8       GENERAL_NAMES_free         0002e9d8 f   libeay32:v3_genn.obj
 0001:0001d9f0       X509_get_issuer_name       0002e9f0 f   libeay32:x509_cmp.obj
 0001:0001d9fc       X509_get_subject_name      0002e9fc f   libeay32:x509_cmp.obj
 0001:0001da08       X509_get_serialNumber      0002ea08 f   libeay32:x509_cmp.obj
 0001:0001da14       X509_NAME_cmp              0002ea14 f   libeay32:x509_cmp.obj
 0001:0001daa4       X509_get_pubkey            0002eaa4 f   libeay32:x509_cmp.obj
 0001:0001dad8       X509_EXTENSION_it          0002ead8 f   libeay32:x_exten.obj
 0001:0001dafc       X509V3_EXT_get_nid         0002eafc f   libeay32:v3_lib.obj
 0001:0001db8c       X509V3_EXT_d2i             0002eb8c f   libeay32:v3_lib.obj
 0001:0001dc1c       X509V3_get_d2i             0002ec1c f   libeay32:v3_lib.obj
 0001:0001e128       ec_wNAF_mul                0002f128 f   libeay32:ec_mult.obj
 0001:0001ecd0       ec_wNAF_precompute_mult    0002fcd0 f   libeay32:ec_mult.obj
 0001:0001f1dc       ec_wNAF_have_precompute_mult 000301dc f   libeay32:ec_mult.obj
 0001:0001f218       d2i_ECDSA_SIG              00030218 f   libeay32:ecs_asn1.obj
 0001:0001f230       i2d_ECDSA_SIG              00030230 f   libeay32:ecs_asn1.obj
 0001:0001f248       ECDSA_SIG_new              00030248 f   libeay32:ecs_asn1.obj
 0001:0001f260       ECDSA_SIG_free             00030260 f   libeay32:ecs_asn1.obj
 0001:0001f278       ECDSA_OpenSSL              00030278 f   libeay32:ecs_ossl.obj
 0001:0001ff3c       ENGINE_get_default_ECDSA   00030f3c f   libeay32:tb_ecdsa.obj
 0001:0001ff58       ENGINE_get_ECDSA           00030f58 f   libeay32:tb_ecdsa.obj
 0001:000200b8       ecdh_check                 000310b8 f   libeay32:ech_lib.obj
 0001:0002033c       BN_rand                    0003133c f   libeay32:bn_rand.obj
 0001:0002036c       BN_pseudo_rand             0003136c f   libeay32:bn_rand.obj
 0001:00020584       BN_rand_range              00031584 f   libeay32:bn_rand.obj
 0001:000205a0       BN_pseudo_rand_range       000315a0 f   libeay32:bn_rand.obj
 0001:000205bc       EC_GROUP_new_curve_GFp     000315bc f   libeay32:ec_cvt.obj
 0001:00020688       EC_GROUP_new_curve_GF2m    00031688 f   libeay32:ec_cvt.obj
 0001:000206ec       BIGNUM_it                  000316ec f   libeay32:x_bignum.obj
 0001:000206f8       CBIGNUM_it                 000316f8 f   libeay32:x_bignum.obj
 0001:00020838       LONG_it                    00031838 f   libeay32:x_long.obj
 0001:00020844       ZLONG_it                   00031844 f   libeay32:x_long.obj
 0001:00020a38       ASN1_item_dup              00031a38 f   libeay32:a_dup.obj
 0001:00020acc       DSA_do_sign                00031acc f   libeay32:dsa_sign.obj
 0001:00020ae8       DSA_sign_setup             00031ae8 f   libeay32:dsa_sign.obj
 0001:00020b04       DSA_SIG_new                00031b04 f   libeay32:dsa_sign.obj
 0001:00020b3c       DSA_SIG_free               00031b3c f   libeay32:dsa_sign.obj
 0001:00020b78       DSA_do_verify              00031b78 f   libeay32:dsa_vrf.obj
 0001:00020b94       DSA_OpenSSL                00031b94 f   libeay32:dsa_ossl.obj
 0001:000213dc       ENGINE_get_default_DSA     000323dc f   libeay32:tb_dsa.obj
 0001:000213f8       ENGINE_get_DSA             000323f8 f   libeay32:tb_dsa.obj
 0001:00021400       BN_mod_exp_recp            00032400 f   libeay32:bn_exp.obj
 0001:0002180c       BN_mod_exp_mont_consttime  0003280c f   libeay32:bn_exp.obj
 0001:00021db0       BN_mod_exp_mont_word       00032db0 f   libeay32:bn_exp.obj
 0001:000221d0       BN_mod_exp_mont            000331d0 f   libeay32:bn_exp.obj
 0001:00022630       BN_mod_exp                 00033630 f   libeay32:bn_exp.obj
 0001:00022998       BN_from_montgomery         00033998 f   libeay32:bn_mont.obj
 0001:00022a04       BN_MONT_CTX_init           00033a04 f   libeay32:bn_mont.obj
 0001:00022a3c       BN_MONT_CTX_free           00033a3c f   libeay32:bn_mont.obj
 0001:00022a78       BN_MONT_CTX_set            00033a78 f   libeay32:bn_mont.obj
 0001:00022c40       BN_MONT_CTX_copy           00033c40 f   libeay32:bn_mont.obj
 0001:00022cbc       BN_mod_mul_montgomery      00033cbc f   libeay32:bn_mont.obj
 0001:00022d48       BN_MONT_CTX_new            00033d48 f   libeay32:bn_mont.obj
 0001:00022d8c       BN_MONT_CTX_set_locked     00033d8c f   libeay32:bn_mont.obj
 0001:00022e64       BN_div                     00033e64 f   libeay32:bn_div.obj
 0001:00023418       BN_GENCB_call              00034418 f   libeay32:bn_prime.obj
 0001:0002387c       BN_is_prime_fasttest_ex    0003487c f   libeay32:bn_prime.obj
 0001:00023c70       BN_generate_prime_ex       00034c70 f   libeay32:bn_prime.obj
 0001:00023fd8       ENGINE_get_default_DH      00034fd8 f   libeay32:tb_dh.obj
 0001:00023ff4       ENGINE_get_DH              00034ff4 f   libeay32:tb_dh.obj
 0001:00023ffc       DH_check_pub_key           00034ffc f   libeay32:dh_check.obj
 0001:00024098       PKCS1_MGF1                 00035098 f   libeay32:rsa_oaep.obj
 0001:000241c0       RSA_padding_add_PKCS1_OAEP 000351c0 f   libeay32:rsa_oaep.obj
 0001:000243b8       RSA_padding_check_PKCS1_OAEP 000353b8 f   libeay32:rsa_oaep.obj
 0001:00024628       SHA1_Init                  00035628 f   libeay32:sha1dgst.obj
 0001:000249e0       SHA1_Update                000359e0 f   libeay32:sha1dgst.obj
 0001:00024ae8       SHA1_Final                 00035ae8 f   libeay32:sha1dgst.obj
 0001:00024c58       SHA224_Init                00035c58 f   libeay32:sha256.obj
 0001:00024cd8       SHA256_Init                00035cd8 f   libeay32:sha256.obj
 0001:00025078       SHA256_Update              00036078 f   libeay32:sha256.obj
 0001:00025180       SHA256_Final               00036180 f   libeay32:sha256.obj
 0001:00025308       SHA384_Init                00036308 f   libeay32:sha512.obj
 0001:000253f8       SHA512_Init                000363f8 f   libeay32:sha512.obj
 0001:00025cc0       SHA512_Final               00036cc0 f   libeay32:sha512.obj
 0001:00025eec       SHA512_Update              00036eec f   libeay32:sha512.obj
 0001:0002603c       CMS_IssuerAndSerialNumber_it 0003703c f   libeay32:cms_asn1.obj
 0001:00026048       CMS_OtherCertificateFormat_it 00037048 f   libeay32:cms_asn1.obj
 0001:00026054       CMS_CertificateChoices_it  00037054 f   libeay32:cms_asn1.obj
 0001:00026060       CMS_SignerIdentifier_it    00037060 f   libeay32:cms_asn1.obj
 0001:0002606c       CMS_EncapsulatedContentInfo_it 0003706c f   libeay32:cms_asn1.obj
 0001:000260b4       CMS_SignerInfo_it          000370b4 f   libeay32:cms_asn1.obj
 0001:000260c0       CMS_OtherRevocationInfoFormat_it 000370c0 f   libeay32:cms_asn1.obj
 0001:000260cc       CMS_RevocationInfoChoice_it 000370cc f   libeay32:cms_asn1.obj
 0001:000260d8       CMS_SignedData_it          000370d8 f   libeay32:cms_asn1.obj
 0001:000260e4       CMS_OriginatorInfo_it      000370e4 f   libeay32:cms_asn1.obj
 0001:000260f0       CMS_EncryptedContentInfo_it 000370f0 f   libeay32:cms_asn1.obj
 0001:000260fc       CMS_KeyTransRecipientInfo_it 000370fc f   libeay32:cms_asn1.obj
 0001:00026108       CMS_OtherKeyAttribute_it   00037108 f   libeay32:cms_asn1.obj
 0001:00026114       CMS_RecipientKeyIdentifier_it 00037114 f   libeay32:cms_asn1.obj
 0001:00026120       CMS_KeyAgreeRecipientIdentifier_it 00037120 f   libeay32:cms_asn1.obj
 0001:0002612c       CMS_RecipientEncryptedKey_it 0003712c f   libeay32:cms_asn1.obj
 0001:00026138       CMS_OriginatorPublicKey_it 00037138 f   libeay32:cms_asn1.obj
 0001:00026144       CMS_OriginatorIdentifierOrKey_it 00037144 f   libeay32:cms_asn1.obj
 0001:00026150       CMS_KeyAgreeRecipientInfo_it 00037150 f   libeay32:cms_asn1.obj
 0001:0002615c       CMS_KEKIdentifier_it       0003715c f   libeay32:cms_asn1.obj
 0001:00026168       CMS_KEKRecipientInfo_it    00037168 f   libeay32:cms_asn1.obj
 0001:00026174       CMS_PasswordRecipientInfo_it 00037174 f   libeay32:cms_asn1.obj
 0001:00026180       CMS_OtherRecipientInfo_it  00037180 f   libeay32:cms_asn1.obj
 0001:00026214       CMS_RecipientInfo_it       00037214 f   libeay32:cms_asn1.obj
 0001:00026220       CMS_EnvelopedData_it       00037220 f   libeay32:cms_asn1.obj
 0001:0002622c       CMS_DigestedData_it        0003722c f   libeay32:cms_asn1.obj
 0001:00026238       CMS_EncryptedData_it       00037238 f   libeay32:cms_asn1.obj
 0001:00026244       CMS_AuthenticatedData_it   00037244 f   libeay32:cms_asn1.obj
 0001:00026250       CMS_CompressedData_it      00037250 f   libeay32:cms_asn1.obj
 0001:000262f4       CMS_Attributes_Sign_it     000372f4 f   libeay32:cms_asn1.obj
 0001:00026300       CMS_ReceiptsFrom_it        00037300 f   libeay32:cms_asn1.obj
 0001:0002630c       CMS_get0_content           0003730c f   libeay32:cms_lib.obj
 0001:000263fc       cms_DigestAlgorithm_init_bio 000373fc f   libeay32:cms_lib.obj
 0001:000264c4       cms_DigestAlgorithm_find_ctx 000374c4 f   libeay32:cms_lib.obj
 0001:00026594       cms_content_bio            00037594 f   libeay32:cms_lib.obj
 0001:000265f0       CMS_dataInit               000375f0 f   libeay32:cms_lib.obj
 0001:000266f4       CMS_dataFinal              000376f4 f   libeay32:cms_lib.obj
 0001:0002685c       cms_EncryptedContent_init_bio 0003785c f   libeay32:cms_enc.obj
 0001:00026c1c       cms_EncryptedData_init_bio 00037c1c f   libeay32:cms_enc.obj
 0001:00026e24       CMS_SignerInfo_get0_algs   00037e24 f   libeay32:cms_sd.obj
 0001:00026e64       CMS_SignerInfo_sign        00037e64 f   libeay32:cms_sd.obj
 0001:000270b0       cms_SignedData_init_bio    000380b0 f   libeay32:cms_sd.obj
 0001:00027314       cms_SignedData_final       00038314 f   libeay32:cms_sd.obj
 0001:000273a4       X509_PURPOSE_get0          000383a4 f   libeay32:v3_purp.obj
 0001:000273f0       X509_PURPOSE_get_by_id     000383f0 f   libeay32:v3_purp.obj
 0001:00027458       X509_supported_extension   00038458 f   libeay32:v3_purp.obj
 0001:00027ed0       X509_check_purpose         00038ed0 f   libeay32:v3_purp.obj
 0001:00027f68       EVP_PKEY_sign_init         00038f68 f   libeay32:pmeth_fn.obj
 0001:00027ff8       EVP_PKEY_sign              00038ff8 f   libeay32:pmeth_fn.obj
 0001:0002810c       EVP_PKEY_verify_init       0003910c f   libeay32:pmeth_fn.obj
 0001:0002819c       EVP_PKEY_verify            0003919c f   libeay32:pmeth_fn.obj
 0001:00028240       EVP_PKEY_encrypt_init      00039240 f   libeay32:pmeth_fn.obj
 0001:000282d0       EVP_PKEY_encrypt           000392d0 f   libeay32:pmeth_fn.obj
 0001:000283e4       AES_wrap_key               000393e4 f   libeay32:aes_wrap.obj
 0001:00028500       AES_set_encrypt_key        00039500 f   libeay32:aes_misc.obj
 0001:00028790       cms_RecipientInfo_pwri_crypt 00039790 f   libeay32:cms_pwri.obj
 0001:00028b00       RSA_PKCS1_SSLeay           00039b00 f   libeay32:rsa_eay.obj
 0001:0002a320       ENGINE_get_default_RSA     0003b320 f   libeay32:tb_rsa.obj
 0001:0002a33c       ENGINE_get_RSA             0003b33c f   libeay32:tb_rsa.obj
 0001:0002a344       bn_mul_add_words           0003b344 f   libeay32:bn_asm.obj
 0001:0002a39c       bn_mul_words               0003b39c f   libeay32:bn_asm.obj
 0001:0002a3e8       bn_sqr_words               0003b3e8 f   libeay32:bn_asm.obj
 0001:0002a414       bn_div_words               0003b414 f   libeay32:bn_asm.obj
 0001:0002a444       bn_add_words               0003b444 f   libeay32:bn_asm.obj
 0001:0002a498       bn_sub_words               0003b498 f   libeay32:bn_asm.obj
 0001:0002dfb0       PKCS5_PBKDF2_HMAC          0003efb0 f   libeay32:p5_crpt2.obj
 0001:0002e178       PKCS5_v2_PBKDF2_keyivgen   0003f178 f   libeay32:p5_crpt2.obj
 0001:0002e418       PKCS5_v2_PBE_keyivgen      0003f418 f   libeay32:p5_crpt2.obj
 0001:0002e5d4       PKCS12_PBE_keyivgen        0003f5d4 f   libeay32:p12_crpt.obj
 0001:0002e7c8       PKCS5_PBE_keyivgen         0003f7c8 f   libeay32:p5_crpt.obj
 0001:0002ea80       RAND_SSLeay                0003fa80 f   libeay32:md_rand.obj
 0001:0002f488       ENGINE_get_default_RAND    00040488 f   libeay32:tb_rand.obj
 0001:0002f4a4       ENGINE_get_RAND            000404a4 f   libeay32:tb_rand.obj
 0001:0002f4ac       BUF_MEM_new                000404ac f   libeay32:buffer.obj
 0001:0002f510       BUF_MEM_free               00040510 f   libeay32:buffer.obj
 0001:0002f550       BUF_MEM_grow               00040550 f   libeay32:buffer.obj
 0001:0002f658       BUF_MEM_grow_clean         00040658 f   libeay32:buffer.obj
 0001:0002f774       BN_nnmod                   00040774 f   libeay32:bn_mod.obj
 0001:0002f7f4       BN_mod_add                 000407f4 f   libeay32:bn_mod.obj
 0001:0002f830       BN_mod_add_quick           00040830 f   libeay32:bn_mod.obj
 0001:0002f888       BN_mod_sub_quick           00040888 f   libeay32:bn_mod.obj
 0001:0002f8d8       BN_mod_mul                 000408d8 f   libeay32:bn_mod.obj
 0001:0002f968       BN_mod_sqr                 00040968 f   libeay32:bn_mod.obj
 0001:0002f9ac       BN_mod_lshift1_quick       000409ac f   libeay32:bn_mod.obj
 0001:0002fa04       BN_mod_lshift_quick        00040a04 f   libeay32:bn_mod.obj
 0001:0002faf4       ASN1_BIT_STRING_set        00040af4 f   libeay32:a_bitstr.obj
 0001:0002fb04       i2c_ASN1_BIT_STRING        00040b04 f   libeay32:a_bitstr.obj
 0001:0002fc08       c2i_ASN1_BIT_STRING        00040c08 f   libeay32:a_bitstr.obj
 0001:0002fd4c       ASN1_BIT_STRING_set_bit    00040d4c f   libeay32:a_bitstr.obj
 0001:0002fe9c       ASN1_BIT_STRING_get_bit    00040e9c f   libeay32:a_bitstr.obj
 0001:0002fef8       asn1_get_choice_selector   00040ef8 f   libeay32:tasn_utl.obj
 0001:0002ff08       asn1_set_choice_selector   00040f08 f   libeay32:tasn_utl.obj
 0001:0002ff24       asn1_do_lock               00040f24 f   libeay32:tasn_utl.obj
 0001:0002ffa8       asn1_enc_init              00040fa8 f   libeay32:tasn_utl.obj
 0001:00030000       asn1_enc_free              00041000 f   libeay32:tasn_utl.obj
 0001:00030074       asn1_enc_save              00041074 f   libeay32:tasn_utl.obj
 0001:00030120       asn1_enc_restore           00041120 f   libeay32:tasn_utl.obj
 0001:000301c8       asn1_get_field_ptr         000411c8 f   libeay32:tasn_utl.obj
 0001:000301e0       asn1_do_adb                000411e0 f   libeay32:tasn_utl.obj
 0001:000302d8       ENGINE_get_cipher_engine   000412d8 f   libeay32:tb_cipher.obj
 0001:000302f4       ENGINE_get_cipher          000412f4 f   libeay32:tb_cipher.obj
 0001:00030358       X509_NAME_ENTRY_it         00041358 f   libeay32:x_name.obj
 0001:00030364       X509_NAME_ENTRY_new        00041364 f   libeay32:x_name.obj
 0001:0003037c       X509_NAME_ENTRY_free       0004137c f   libeay32:x_name.obj
 0001:00030394       X509_NAME_ENTRY_dup        00041394 f   libeay32:x_name.obj
 0001:000303b0       X509_NAME_ENTRIES_it       000413b0 f   libeay32:x_name.obj
 0001:000303bc       X509_NAME_it               000413bc f   libeay32:x_name.obj
 0001:000303c8       i2d_X509_NAME              000413c8 f   libeay32:x_name.obj
 0001:000303e0       X509_NAME_new              000413e0 f   libeay32:x_name.obj
 0001:000303f8       X509_NAME_free             000413f8 f   libeay32:x_name.obj
 0001:00030410       X509_NAME_dup              00041410 f   libeay32:x_name.obj
 0001:00030c9c       ASN1_PRINTABLE_type        00041c9c f   libeay32:a_print.obj
 0001:00030db0       ASN1_STRING_TABLE_get      00041db0 f   libeay32:a_strnid.obj
 0001:00030e2c       ASN1_STRING_set_by_NID     00041e2c f   libeay32:a_strnid.obj
 0001:00030eec       i2v_GENERAL_NAME           00041eec f   libeay32:v3_alt.obj
 0001:000310bc       GENERAL_NAME_print         000420bc f   libeay32:v3_alt.obj
 0001:000316c0       i2v_GENERAL_NAMES          000426c0 f   libeay32:v3_alt.obj
 0001:00031734       a2i_GENERAL_NAME           00042734 f   libeay32:v3_alt.obj
 0001:000319bc       v2i_GENERAL_NAME_ex        000429bc f   libeay32:v3_alt.obj
 0001:00031b30       v2i_GENERAL_NAME           00042b30 f   libeay32:v3_alt.obj
 0001:00031dec       v2i_GENERAL_NAMES          00042dec f   libeay32:v3_alt.obj
 0001:00031ebc       X509v3_get_ext_count       00042ebc f   libeay32:x509_v3.obj
 0001:00031edc       X509v3_get_ext_by_OBJ      00042edc f   libeay32:x509_v3.obj
 0001:00031f40       X509v3_get_ext             00042f40 f   libeay32:x509_v3.obj
 0001:00031f88       X509_EXTENSION_get_object  00042f88 f   libeay32:x509_v3.obj
 0001:00031f98       X509_EXTENSION_get_critical 00042f98 f   libeay32:x509_v3.obj
 0001:00031fb8       X509v3_get_ext_by_NID      00042fb8 f   libeay32:x509_v3.obj
 0001:00031ff4       DSO_convert_filename       00042ff4 f   libeay32:dso_lib.obj
 0001:00032134       CONF_set_nconf             00043134 f   libeay32:conf_lib.obj
 0001:00032178       NCONF_get_section          00043178 f   libeay32:conf_lib.obj
 0001:000321f4       NCONF_get_string           000431f4 f   libeay32:conf_lib.obj
 0001:0003228c       CONF_get_section           0004328c f   libeay32:conf_lib.obj
 0001:000322c8       CONF_get_string            000432c8 f   libeay32:conf_lib.obj
 0001:0003230c       CONF_free                  0004330c f   libeay32:conf_lib.obj
 0001:00032384       X509_NAME_oneline          00043384 f   libeay32:x509_obj.obj
 0001:00032754       X509_PUBKEY_it             00043754 f   libeay32:x_pubkey.obj
 0001:00032760       X509_PUBKEY_get            00043760 f   libeay32:x_pubkey.obj
 0001:00032910       X509_PUBKEY_set0_param     00043910 f   libeay32:x_pubkey.obj
 0001:00032990       X509_PUBKEY_get0_param     00043990 f   libeay32:x_pubkey.obj
 0001:00032cb8       DIST_POINT_NAME_it         00043cb8 f   libeay32:v3_crld.obj
 0001:00032cc4       DIST_POINT_it              00043cc4 f   libeay32:v3_crld.obj
 0001:00032cd0       DIST_POINT_free            00043cd0 f   libeay32:v3_crld.obj
 0001:00032ce8       CRL_DIST_POINTS_it         00043ce8 f   libeay32:v3_crld.obj
 0001:00032cf4       CRL_DIST_POINTS_free       00043cf4 f   libeay32:v3_crld.obj
 0001:00032d0c       ISSUING_DIST_POINT_it      00043d0c f   libeay32:v3_crld.obj
 0001:00032d18       ISSUING_DIST_POINT_free    00043d18 f   libeay32:v3_crld.obj
 0001:00033060       DIST_POINT_set_dpname      00044060 f   libeay32:v3_crld.obj
 0001:0003379c       POLICY_MAPPING_it          0004479c f   libeay32:v3_pmaps.obj
 0001:000337a8       POLICY_MAPPINGS_it         000447a8 f   libeay32:v3_pmaps.obj
 0001:000337b4       POLICY_MAPPING_free        000447b4 f   libeay32:v3_pmaps.obj
 0001:00033a38       GENERAL_SUBTREE_it         00044a38 f   libeay32:v3_ncons.obj
 0001:00033a44       NAME_CONSTRAINTS_it        00044a44 f   libeay32:v3_ncons.obj
 0001:00033a50       NAME_CONSTRAINTS_free      00044a50 f   libeay32:v3_ncons.obj
 0001:00034e08       POLICY_CONSTRAINTS_it      00045e08 f   libeay32:v3_pcons.obj
 0001:00034fc8       EXTENDED_KEY_USAGE_it      00045fc8 f   libeay32:v3_extku.obj
 0001:00035168       SXNETID_it                 00046168 f   libeay32:v3_sxnet.obj
 0001:00035174       SXNET_it                   00046174 f   libeay32:v3_sxnet.obj
 0001:00035250       SXNET_get_id_INTEGER       00046250 f   libeay32:v3_sxnet.obj
 0001:000352c0       SXNET_add_id_INTEGER       000462c0 f   libeay32:v3_sxnet.obj
 0001:00035468       SXNET_add_id_asc           00046468 f   libeay32:v3_sxnet.obj
 0001:00035554       i2s_ASN1_ENUMERATED_TABLE  00046554 f   libeay32:v3_enum.obj
 0001:00035948       CERTIFICATEPOLICIES_it     00046948 f   libeay32:v3_cpols.obj
 0001:00035954       POLICYINFO_it              00046954 f   libeay32:v3_cpols.obj
 0001:00035960       POLICYINFO_free            00046960 f   libeay32:v3_cpols.obj
 0001:00035984       POLICYQUALINFO_it          00046984 f   libeay32:v3_cpols.obj
 0001:00035990       POLICYQUALINFO_free        00046990 f   libeay32:v3_cpols.obj
 0001:000359a8       USERNOTICE_it              000469a8 f   libeay32:v3_cpols.obj
 0001:000359b4       NOTICEREF_it               000469b4 f   libeay32:v3_cpols.obj
 0001:00036648       BASIC_CONSTRAINTS_it       00047648 f   libeay32:v3_bcons.obj
 0001:00036654       BASIC_CONSTRAINTS_free     00047654 f   libeay32:v3_bcons.obj
 0001:000367f8       PKEY_USAGE_PERIOD_it       000477f8 f   libeay32:v3_pku.obj
 0001:000368b4       i2v_ASN1_BIT_STRING        000478b4 f   libeay32:v3_bitst.obj
 0001:00036918       v2i_ASN1_BIT_STRING        00047918 f   libeay32:v3_bitst.obj
 0001:00036a98       i2s_ASN1_OCTET_STRING      00047a98 f   libeay32:v3_skey.obj
 0001:00036ab4       s2i_ASN1_OCTET_STRING      00047ab4 f   libeay32:v3_skey.obj
 0001:00036de0       X509V3_get_section         00047de0 f   libeay32:v3_conf.obj
 0001:00036e50       X509V3_section_free        00047e50 f   libeay32:v3_conf.obj
 0001:00036eec       X509_REQ_INFO_it           00047eec f   libeay32:x_req.obj
 0001:00036ef8       X509_digest                00047ef8 f   libeay32:x_all.obj
 0001:00036f34       X509_CRL_digest            00047f34 f   libeay32:x_all.obj
 0001:00036f70       X509at_get_attr_count      00047f70 f   libeay32:x509_att.obj
 0001:00036f80       X509at_get_attr_by_OBJ     00047f80 f   libeay32:x509_att.obj
 0001:00036fe4       X509at_add1_attr           00047fe4 f   libeay32:x509_att.obj
 0001:000370b8       X509_ATTRIBUTE_set1_object 000480b8 f   libeay32:x509_att.obj
 0001:000370fc       X509_ATTRIBUTE_set1_data   000480fc f   libeay32:x509_att.obj
 0001:00037270       X509at_get_attr_by_NID     00048270 f   libeay32:x509_att.obj
 0001:000372ac       X509_ATTRIBUTE_create_by_OBJ 000482ac f   libeay32:x509_att.obj
 0001:00037380       X509_ATTRIBUTE_create_by_NID 00048380 f   libeay32:x509_att.obj
 0001:00037404       X509at_add1_attr_by_NID    00048404 f   libeay32:x509_att.obj
 0001:00037454       ECDH_OpenSSL               00048454 f   libeay32:ech_ossl.obj
 0001:000377ac       ENGINE_get_default_ECDH    000487ac f   libeay32:tb_ecdh.obj
 0001:000377c8       ENGINE_get_ECDH            000487c8 f   libeay32:tb_ecdh.obj
 0001:000377d0       ec_GFp_mont_group_init     000487d0 f   libeay32:ecp_mont.obj
 0001:000377f0       ec_GFp_mont_group_finish   000487f0 f   libeay32:ecp_mont.obj
 0001:0003783c       ec_GFp_mont_group_clear_finish 0004883c f   libeay32:ecp_mont.obj
 0001:00037888       ec_GFp_mont_group_copy     00048888 f   libeay32:ecp_mont.obj
 0001:00037958       ec_GFp_mont_group_set_curve 00048958 f   libeay32:ecp_mont.obj
 0001:00037ab8       ec_GFp_mont_field_mul      00048ab8 f   libeay32:ecp_mont.obj
 0001:00037b28       ec_GFp_mont_field_sqr      00048b28 f   libeay32:ecp_mont.obj
 0001:00037b94       ec_GFp_mont_field_encode   00048b94 f   libeay32:ecp_mont.obj
 0001:00037c04       ec_GFp_mont_field_decode   00048c04 f   libeay32:ecp_mont.obj
 0001:00037c64       ec_GFp_mont_field_set_to_one 00048c64 f   libeay32:ecp_mont.obj
 0001:00037cc8       EC_GFp_mont_method         00048cc8 f   libeay32:ecp_mont.obj
 0001:00037cd4       ec_GFp_nist_group_copy     00048cd4 f   libeay32:ecp_nist.obj
 0001:00037cf0       ec_GFp_nist_group_set_curve 00048cf0 f   libeay32:ecp_nist.obj
 0001:00037e3c       ec_GFp_nist_field_mul      00048e3c f   libeay32:ecp_nist.obj
 0001:00037f18       ec_GFp_nist_field_sqr      00048f18 f   libeay32:ecp_nist.obj
 0001:00037fe4       EC_GFp_nist_method         00048fe4 f   libeay32:ecp_nist.obj
 0001:00037ff0       ec_GF2m_simple_group_init  00048ff0 f   libeay32:ec2_smpl.obj
 0001:0003801c       ec_GF2m_simple_group_finish 0004901c f   libeay32:ec2_smpl.obj
 0001:00038044       ec_GF2m_simple_group_clear_finish 00049044 f   libeay32:ec2_smpl.obj
 0001:0003808c       ec_GF2m_simple_group_copy  0004908c f   libeay32:ec2_smpl.obj
 0001:000381d8       ec_GF2m_simple_group_set_curve 000491d8 f   libeay32:ec2_smpl.obj
 0001:00038348       ec_GF2m_simple_group_get_curve 00049348 f   libeay32:ec2_smpl.obj
 0001:000383c4       ec_GF2m_simple_group_get_degree 000493c4 f   libeay32:ec2_smpl.obj
 0001:000383dc       ec_GF2m_simple_group_check_discriminant 000493dc f   libeay32:ec2_smpl.obj
 0001:00038490       ec_GF2m_simple_point_init  00049490 f   libeay32:ec2_smpl.obj
 0001:000384bc       ec_GF2m_simple_point_finish 000494bc f   libeay32:ec2_smpl.obj
 0001:000384e4       ec_GF2m_simple_point_clear_finish 000494e4 f   libeay32:ec2_smpl.obj
 0001:00038514       ec_GF2m_simple_point_copy  00049514 f   libeay32:ec2_smpl.obj
 0001:0003857c       ec_GF2m_simple_point_set_to_infinity 0004957c f   libeay32:ec2_smpl.obj
 0001:000385a4       ec_GF2m_simple_point_set_affine_coordinates 000495a4 f   libeay32:ec2_smpl.obj
 0001:00038670       ec_GF2m_simple_point_get_affine_coordinates 00049670 f   libeay32:ec2_smpl.obj
 0001:00038760       ec_GF2m_simple_add         00049760 f   libeay32:ec2_smpl.obj
 0001:00038b64       ec_GF2m_simple_dbl         00049b64 f   libeay32:ec2_smpl.obj
 0001:00038b88       ec_GF2m_simple_invert      00049b88 f   libeay32:ec2_smpl.obj
 0001:00038bf4       ec_GF2m_simple_is_at_infinity 00049bf4 f   libeay32:ec2_smpl.obj
 0001:00038c08       ec_GF2m_simple_is_on_curve 00049c08 f   libeay32:ec2_smpl.obj
 0001:00038d98       ec_GF2m_simple_cmp         00049d98 f   libeay32:ec2_smpl.obj
 0001:00038f24       ec_GF2m_simple_make_affine 00049f24 f   libeay32:ec2_smpl.obj
 0001:00039028       ec_GF2m_simple_points_make_affine 0004a028 f   libeay32:ec2_smpl.obj
 0001:00039090       ec_GF2m_simple_field_mul   0004a090 f   libeay32:ec2_smpl.obj
 0001:000390cc       ec_GF2m_simple_field_sqr   0004a0cc f   libeay32:ec2_smpl.obj
 0001:000390f0       ec_GF2m_simple_field_div   0004a0f0 f   libeay32:ec2_smpl.obj
 0001:0003912c       EC_GF2m_simple_method      0004a12c f   libeay32:ec2_smpl.obj
 0001:00039138       BN_mod_exp2_mont           0004a138 f   libeay32:bn_exp2.obj
 0001:000397ec       bn_sqr_normal              0004a7ec f   libeay32:bn_sqr.obj
 0001:000398d8       BN_sqr                     0004a8d8 f   libeay32:bn_sqr.obj
 0001:00039a10       BN_RECP_CTX_init           0004aa10 f   libeay32:bn_recp.obj
 0001:00039a38       BN_RECP_CTX_free           0004aa38 f   libeay32:bn_recp.obj
 0001:00039a6c       BN_RECP_CTX_set            0004aa6c f   libeay32:bn_recp.obj
 0001:00039ab8       BN_reciprocal              0004aab8 f   libeay32:bn_recp.obj
 0001:00039b38       BN_div_recp                0004ab38 f   libeay32:bn_recp.obj
 0001:00039d94       BN_mod_mul_reciprocal      0004ad94 f   libeay32:bn_recp.obj
 0001:00039e40       X509_REVOKED_it            0004ae40 f   libeay32:x_crl.obj
 0001:00039e4c       X509_CRL_INFO_it           0004ae4c f   libeay32:x_crl.obj
 0001:0003a0dc       X509_CRL_it                0004b0dc f   libeay32:x_crl.obj
 0001:0003a55c       X509_CINF_it               0004b55c f   libeay32:x_x509.obj
 0001:0003a658       X509_it                    0004b658 f   libeay32:x_x509.obj
 0001:0003a664       X509_free                  0004b664 f   libeay32:x_x509.obj
 0001:0003a67c       CMS_stream                 0004b67c f   libeay32:cms_io.obj
 0001:0003a718       BIO_f_md                   0004b718 f   libeay32:bio_md.obj
 0001:0003aa84       BIO_s_mem                  0004ba84 f   libeay32:bss_mem.obj
 0001:0003aa90       BIO_new_mem_buf            0004ba90 f   libeay32:bss_mem.obj
 0001:0003af1c       BIO_s_null                 0004bf1c f   libeay32:bss_null.obj
 0001:0003afd0       cms_DigestedData_init_bio  0004bfd0 f   libeay32:cms_dd.obj
 0001:0003afe8       cms_DigestedData_do_final  0004bfe8 f   libeay32:cms_dd.obj
 0001:0003b0e8       BIO_f_cipher               0004c0e8 f   libeay32:bio_enc.obj
 0001:0003b6c0       ASN1_TIME_it               0004c6c0 f   libeay32:a_time.obj
 0001:0003b6cc       ASN1_TIME_free             0004c6cc f   libeay32:a_time.obj
 0001:0003b6e4       ASN1_TIME_adj              0004c6e4 f   libeay32:a_time.obj
 0001:0003b7b4       ASN1_TIME_check            0004c7b4 f   libeay32:a_time.obj
 0001:0003b7f0       CMS_signed_get_attr_count  0004c7f0 f   libeay32:cms_att.obj
 0001:0003b804       CMS_signed_get_attr_by_NID 0004c804 f   libeay32:cms_att.obj
 0001:0003b818       CMS_signed_add1_attr_by_NID 0004c818 f   libeay32:cms_att.obj
 0001:0003b848       X509_time_adj_ex           0004c848 f   libeay32:x509_vfy.obj
 0001:0003b8e4       X509_gmtime_adj            0004c8e4 f   libeay32:x509_vfy.obj
 0001:0003ba7c       EVP_DigestSignInit         0004ca7c f   libeay32:m_sigver.obj
 0001:0003baa4       EVP_DigestVerifyInit       0004caa4 f   libeay32:m_sigver.obj
 0001:0003bacc       EVP_DigestSignFinal        0004cacc f   libeay32:m_sigver.obj
 0001:0003bc0c       EVP_DigestVerifyFinal      0004cc0c f   libeay32:m_sigver.obj
 0001:0003bce0       EVP_SignFinal              0004cce0 f   libeay32:p_sign.obj
 0001:0003beac       PROXY_POLICY_it            0004ceac f   libeay32:v3_pcia.obj
 0001:0003beb8       PROXY_CERT_INFO_EXTENSION_it 0004ceb8 f   libeay32:v3_pcia.obj
 0001:0003bec4       PROXY_CERT_INFO_EXTENSION_new 0004cec4 f   libeay32:v3_pcia.obj
 0001:0003bedc       PROXY_CERT_INFO_EXTENSION_free 0004cedc f   libeay32:v3_pcia.obj
 0001:0003bef4       private_AES_set_encrypt_key 0004cef4 f   libeay32:aes_core.obj
 0001:0003c4d8       AES_encrypt                0004d4d8 f   libeay32:aes_core.obj
 0001:0003cc5c       d2i_PBE2PARAM              0004dc5c f   libeay32:p5_pbev2.obj
 0001:0003cc74       PBE2PARAM_free             0004dc74 f   libeay32:p5_pbev2.obj
 0001:0003cc8c       d2i_PBKDF2PARAM            0004dc8c f   libeay32:p5_pbev2.obj
 0001:0003cca4       PBKDF2PARAM_free           0004dca4 f   libeay32:p5_pbev2.obj
 0001:0003ccbc       ASN1_item_pack             0004dcbc f   libeay32:asn_pack.obj
 0001:0003cdac       RSA_padding_add_PKCS1_type_1 0004ddac f   libeay32:rsa_pk1.obj
 0001:0003ce40       RSA_padding_check_PKCS1_type_1 0004de40 f   libeay32:rsa_pk1.obj
 0001:0003cf88       RSA_padding_add_PKCS1_type_2 0004df88 f   libeay32:rsa_pk1.obj
 0001:0003d060       RSA_padding_check_PKCS1_type_2 0004e060 f   libeay32:rsa_pk1.obj
 0001:0003d174       RSA_padding_add_SSLv23     0004e174 f   libeay32:rsa_ssl.obj
 0001:0003d25c       RSA_padding_check_SSLv23   0004e25c f   libeay32:rsa_ssl.obj
 0001:0003d3cc       RSA_padding_add_none       0004e3cc f   libeay32:rsa_none.obj
 0001:0003d44c       RSA_padding_check_none     0004e44c f   libeay32:rsa_none.obj
 0001:0003d4c8       EC_GROUP_get_basis_type    0004e4c8 f   libeay32:ec_asn1.obj
 0001:0003d540       EC_GROUP_get_trinomial_basis 0004e540 f   libeay32:ec_asn1.obj
 0001:0003d5d4       EC_GROUP_get_pentanomial_basis 0004e5d4 f   libeay32:ec_asn1.obj
 0001:0003d6a0       X9_62_PENTANOMIAL_it       0004e6a0 f   libeay32:ec_asn1.obj
 0001:0003d6b8       X9_62_CHARACTERISTIC_TWO_it 0004e6b8 f   libeay32:ec_asn1.obj
 0001:0003d6d0       X9_62_FIELDID_it           0004e6d0 f   libeay32:ec_asn1.obj
 0001:0003d6dc       X9_62_CURVE_it             0004e6dc f   libeay32:ec_asn1.obj
 0001:0003d6e8       ECPARAMETERS_it            0004e6e8 f   libeay32:ec_asn1.obj
 0001:0003d6f4       ECPKPARAMETERS_it          0004e6f4 f   libeay32:ec_asn1.obj
 0001:0003ebf4       d2i_ECPKParameters         0004fbf4 f   libeay32:ec_asn1.obj
 0001:0003ecc0       i2d_ECPKParameters         0004fcc0 f   libeay32:ec_asn1.obj
 0001:0003ed64       d2i_ECPrivateKey           0004fd64 f   libeay32:ec_asn1.obj
 0001:0003f020       i2d_ECPrivateKey           00050020 f   libeay32:ec_asn1.obj
 0001:0003f3a4       i2d_ECParameters           000503a4 f   libeay32:ec_asn1.obj
 0001:0003f3f4       d2i_ECParameters           000503f4 f   libeay32:ec_asn1.obj
 0001:0003f4d8       o2i_ECPublicKey            000504d8 f   libeay32:ec_asn1.obj
 0001:0003f5ec       i2o_ECPublicKey            000505ec f   libeay32:ec_asn1.obj
 0001:0003f76c       PKCS8_PRIV_KEY_INFO_it     0005076c f   libeay32:p8_pkey.obj
 0001:0003f778       PKCS8_pkey_set0            00050778 f   libeay32:p8_pkey.obj
 0001:0003f828       PKCS8_pkey_get0            00050828 f   libeay32:p8_pkey.obj
 0001:0003fa10       ECPKParameters_print       00050a10 f   libeay32:eck_prn.obj
 0001:0003fff8       ASN1_bn_print              00050ff8 f   libeay32:t_pkey.obj
 0001:000401ec       EC_POINT_point2bn          000511ec f   libeay32:ec_print.obj
 0001:00040298       PKCS7_ctrl                 00051298 f   libeay32:pk7_lib.obj
 0001:000403bc       PKCS7_SIGNER_INFO_get0_algs 000513bc f   libeay32:pk7_lib.obj
 0001:000403ec       PKCS7_RECIP_INFO_get0_alg  000513ec f   libeay32:pk7_lib.obj
 0001:000403fc       PKCS7_stream               000513fc f   libeay32:pk7_lib.obj
 0001:000404d0       X509_signature_dump        000514d0 f   libeay32:t_x509.obj
 0001:000405bc       ASN1_STRING_print          000515bc f   libeay32:t_x509.obj
 0001:00040690       ASN1_GENERALIZEDTIME_print 00051690 f   libeay32:t_x509.obj
 0001:000408ac       X509_NAME_print            000518ac f   libeay32:t_x509.obj
 0001:00040a38       d2i_DHparams               00051a38 f   libeay32:dh_asn1.obj
 0001:00040a50       i2d_DHparams               00051a50 f   libeay32:dh_asn1.obj
 0001:00040ac4       RSA_PSS_PARAMS_it          00051ac4 f   libeay32:rsa_asn1.obj
 0001:00040ad0       d2i_RSA_PSS_PARAMS         00051ad0 f   libeay32:rsa_asn1.obj
 0001:00040ae8       RSA_PSS_PARAMS_new         00051ae8 f   libeay32:rsa_asn1.obj
 0001:00040b00       RSA_PSS_PARAMS_free        00051b00 f   libeay32:rsa_asn1.obj
 0001:00040b18       d2i_RSAPrivateKey          00051b18 f   libeay32:rsa_asn1.obj
 0001:00040b30       i2d_RSAPrivateKey          00051b30 f   libeay32:rsa_asn1.obj
 0001:00040b48       d2i_RSAPublicKey           00051b48 f   libeay32:rsa_asn1.obj
 0001:00040b60       i2d_RSAPublicKey           00051b60 f   libeay32:rsa_asn1.obj
 0001:00040b78       i2a_ASN1_INTEGER           00051b78 f   libeay32:f_int.obj
 0001:00040cc0       d2i_PBEPARAM               00051cc0 f   libeay32:p5_pbe.obj
 0001:00040cd8       PBEPARAM_free              00051cd8 f   libeay32:p5_pbe.obj
 0001:00040cf0       PKCS12_key_gen_uni         00051cf0 f   libeay32:p12_key.obj
 0001:000411f0       PKCS12_key_gen_asc         000521f0 f   libeay32:p12_key.obj
 0001:00041344       RAND_poll                  00052344 f   libeay32:rand_win.obj
 0001:00041f24       X509_NAME_print_ex         00052f24 f   libeay32:a_strex.obj
 0001:00041f68       ASN1_STRING_to_UTF8        00052f68 f   libeay32:a_strex.obj
 0001:000422cc       ASN1_mbstring_ncopy        000532cc f   libeay32:a_mbstr.obj
 0001:000427bc       ASN1_mbstring_copy         000537bc f   libeay32:a_mbstr.obj
 0001:00043458       ASN1_generate_v3           00054458 f   libeay32:asn1_gen.obj
 0001:00043888       NCONF_default              00054888 f   libeay32:conf_def.obj
 0001:00044808       _CONF_get_section          00055808 f   libeay32:conf_api.obj
 0001:00044850       _CONF_get_section_values   00055850 f   libeay32:conf_api.obj
 0001:00044870       _CONF_add_string           00055870 f   libeay32:conf_api.obj
 0001:000448e8       _CONF_get_string           000558e8 f   libeay32:conf_api.obj
 0001:00044a4c       _CONF_new_data             00055a4c f   libeay32:conf_api.obj
 0001:00044a9c       _CONF_new_section          00055a9c f   libeay32:conf_api.obj
 0001:00044c0c       _CONF_free_data            00055c0c f   libeay32:conf_api.obj
 0001:00044c60       MD5_Init                   00055c60 f   libeay32:md5_dgst.obj
 0001:00044cb0       md5_block_data_order       00055cb0 f   libeay32:md5_dgst.obj
 0001:000458ac       MD5_Update                 000568ac f   libeay32:md5_dgst.obj
 0001:000459b4       MD5_Final                  000569b4 f   libeay32:md5_dgst.obj
 0001:00045b04       OCSP_SIGNATURE_it          00056b04 f   libeay32:ocsp_asn.obj
 0001:00045b10       OCSP_CERTID_it             00056b10 f   libeay32:ocsp_asn.obj
 0001:00045b1c       OCSP_ONEREQ_it             00056b1c f   libeay32:ocsp_asn.obj
 0001:00045b28       OCSP_REQINFO_it            00056b28 f   libeay32:ocsp_asn.obj
 0001:00045b34       OCSP_RESPBYTES_it          00056b34 f   libeay32:ocsp_asn.obj
 0001:00045b40       OCSP_RESPID_it             00056b40 f   libeay32:ocsp_asn.obj
 0001:00045b4c       OCSP_REVOKEDINFO_it        00056b4c f   libeay32:ocsp_asn.obj
 0001:00045b58       OCSP_CERTSTATUS_it         00056b58 f   libeay32:ocsp_asn.obj
 0001:00045b64       OCSP_SINGLERESP_it         00056b64 f   libeay32:ocsp_asn.obj
 0001:00045b70       OCSP_RESPDATA_it           00056b70 f   libeay32:ocsp_asn.obj
 0001:00045b7c       OCSP_CRLID_it              00056b7c f   libeay32:ocsp_asn.obj
 0001:00045b88       OCSP_SERVICELOC_it         00056b88 f   libeay32:ocsp_asn.obj
 0001:00045b94       i2a_ASN1_STRING            00056b94 f   libeay32:f_string.obj
 0001:00045cb0       AUTHORITY_KEYID_it         00056cb0 f   libeay32:v3_akeya.obj
 0001:00045cbc       AUTHORITY_KEYID_new        00056cbc f   libeay32:v3_akeya.obj
 0001:00045cd4       AUTHORITY_KEYID_free       00056cd4 f   libeay32:v3_akeya.obj
 0001:00045cec       ASN1_item_verify           00056cec f   libeay32:a_verify.obj
 0001:00045f8c       NETSCAPE_SPKAC_it          00056f8c f   libeay32:x_spki.obj
 0001:00046028       PKCS7_it                   00057028 f   libeay32:pk7_asn1.obj
 0001:00046034       PKCS7_SIGNED_it            00057034 f   libeay32:pk7_asn1.obj
 0001:00046060       PKCS7_SIGNER_INFO_it       00057060 f   libeay32:pk7_asn1.obj
 0001:0004606c       PKCS7_ISSUER_AND_SERIAL_it 0005706c f   libeay32:pk7_asn1.obj
 0001:00046078       PKCS7_ENVELOPE_it          00057078 f   libeay32:pk7_asn1.obj
 0001:000460a4       PKCS7_RECIP_INFO_it        000570a4 f   libeay32:pk7_asn1.obj
 0001:000460b0       PKCS7_ENC_CONTENT_it       000570b0 f   libeay32:pk7_asn1.obj
 0001:000460bc       PKCS7_SIGN_ENVELOPE_it     000570bc f   libeay32:pk7_asn1.obj
 0001:000460c8       PKCS7_ENCRYPT_it           000570c8 f   libeay32:pk7_asn1.obj
 0001:000460d4       PKCS7_DIGEST_it            000570d4 f   libeay32:pk7_asn1.obj
 0001:000460e0       PKCS7_ATTR_SIGN_it         000570e0 f   libeay32:pk7_asn1.obj
 0001:000460ec       ASN1_item_digest           000570ec f   libeay32:a_digest.obj
 0001:0004616c       ec_GFp_simple_group_init   0005716c f   libeay32:ecp_smpl.obj
 0001:000461a0       ec_GFp_simple_group_finish 000571a0 f   libeay32:ecp_smpl.obj
 0001:000461c8       ec_GFp_simple_group_clear_finish 000571c8 f   libeay32:ecp_smpl.obj
 0001:000461f0       ec_GFp_simple_group_copy   000571f0 f   libeay32:ecp_smpl.obj
 0001:00046258       ec_GFp_simple_group_set_curve 00057258 f   libeay32:ecp_smpl.obj
 0001:00046424       ec_GFp_simple_group_get_curve 00057424 f   libeay32:ecp_smpl.obj
 0001:00046554       ec_GFp_simple_group_get_degree 00057554 f   libeay32:ecp_smpl.obj
 0001:00046568       ec_GFp_simple_group_check_discriminant 00057568 f   libeay32:ecp_smpl.obj
 0001:0004678c       ec_GFp_simple_point_init   0005778c f   libeay32:ecp_smpl.obj
 0001:000467c0       ec_GFp_simple_point_finish 000577c0 f   libeay32:ecp_smpl.obj
 0001:000467e8       ec_GFp_simple_point_clear_finish 000577e8 f   libeay32:ecp_smpl.obj
 0001:00046818       ec_GFp_simple_point_copy   00057818 f   libeay32:ecp_smpl.obj
 0001:00046880       ec_GFp_simple_point_set_to_infinity 00057880 f   libeay32:ecp_smpl.obj
 0001:000468a8       ec_GFp_simple_set_Jprojective_coordinates_GFp 000578a8 f   libeay32:ecp_smpl.obj
 0001:00046a58       ec_GFp_simple_get_Jprojective_coordinates_GFp 00057a58 f   libeay32:ecp_smpl.obj
 0001:00046ba8       ec_GFp_simple_point_set_affine_coordinates 00057ba8 f   libeay32:ecp_smpl.obj
 0001:00046c28       ec_GFp_simple_point_get_affine_coordinates 00057c28 f   libeay32:ecp_smpl.obj
 0001:00046f64       ec_GFp_simple_add          00057f64 f   libeay32:ecp_smpl.obj
 0001:00047574       ec_GFp_simple_dbl          00058574 f   libeay32:ecp_smpl.obj
 0001:00047a4c       ec_GFp_simple_invert       00058a4c f   libeay32:ecp_smpl.obj
 0001:00047a94       ec_GFp_simple_is_at_infinity 00058a94 f   libeay32:ecp_smpl.obj
 0001:00047aa8       ec_GFp_simple_is_on_curve  00058aa8 f   libeay32:ecp_smpl.obj
 0001:00047de8       ec_GFp_simple_cmp          00058de8 f   libeay32:ecp_smpl.obj
 0001:000480cc       ec_GFp_simple_make_affine  000590cc f   libeay32:ecp_smpl.obj
 0001:000481e8       ec_GFp_simple_points_make_affine 000591e8 f   libeay32:ecp_smpl.obj
 0001:000486e8       ec_GFp_simple_field_mul    000596e8 f   libeay32:ecp_smpl.obj
 0001:00048724       ec_GFp_simple_field_sqr    00059724 f   libeay32:ecp_smpl.obj
 0001:00048748       BN_get0_nist_prime_192     00059748 f   libeay32:bn_nist.obj
 0001:00048754       BN_get0_nist_prime_224     00059754 f   libeay32:bn_nist.obj
 0001:00048760       BN_get0_nist_prime_256     00059760 f   libeay32:bn_nist.obj
 0001:0004876c       BN_get0_nist_prime_384     0005976c f   libeay32:bn_nist.obj
 0001:00048778       BN_get0_nist_prime_521     00059778 f   libeay32:bn_nist.obj
 0001:000487d4       BN_nist_mod_192            000597d4 f   libeay32:bn_nist.obj
 0001:00048a9c       BN_nist_mod_224            00059a9c f   libeay32:bn_nist.obj
 0001:00048e00       BN_nist_mod_256            00059e00 f   libeay32:bn_nist.obj
 0001:000492bc       BN_nist_mod_384            0005a2bc f   libeay32:bn_nist.obj
 0001:00049880       BN_nist_mod_521            0005a880 f   libeay32:bn_nist.obj
 0001:0004a3e4       ec_GF2m_simple_mul         0005b3e4 f   libeay32:ec2_mult.obj
 0001:0004a660       ec_GF2m_precompute_mult    0005b660 f   libeay32:ec2_mult.obj
 0001:0004a670       ec_GF2m_have_precompute_mult 0005b670 f   libeay32:ec2_mult.obj
 0001:0004a818       BN_GF2m_add                0005b818 f   libeay32:bn_gf2m.obj
 0001:0004a90c       BN_GF2m_mod_arr            0005b90c f   libeay32:bn_gf2m.obj
 0001:0004ab84       BN_GF2m_mod_sqr_arr        0005bb84 f   libeay32:bn_gf2m.obj
 0001:0004ad0c       BN_GF2m_poly2arr           0005bd0c f   libeay32:bn_gf2m.obj
 0001:0004adb0       BN_GF2m_mod                0005bdb0 f   libeay32:bn_gf2m.obj
 0001:0004ae2c       BN_GF2m_mod_mul_arr        0005be2c f   libeay32:bn_gf2m.obj
 0001:0004b07c       BN_GF2m_mod_mul            0005c07c f   libeay32:bn_gf2m.obj
 0001:0004b140       BN_GF2m_mod_inv            0005c140 f   libeay32:bn_gf2m.obj
 0001:0004b580       BN_GF2m_mod_div            0005c580 f   libeay32:bn_gf2m.obj
 0001:0004b60c       BN_GF2m_mod_exp_arr        0005c60c f   libeay32:bn_gf2m.obj
 0001:0004b744       BN_GF2m_mod_sqrt_arr       0005c744 f   libeay32:bn_gf2m.obj
 0001:0004b7e0       BN_GF2m_mod_solve_quad_arr 0005c7e0 f   libeay32:bn_gf2m.obj
 0001:0004bb40       X509_VAL_it                0005cb40 f   libeay32:x_val.obj
 0001:0004bb4c       policy_cache_free          0005cb4c f   libeay32:pcy_cache.obj
 0001:0004bb90       X509_CERT_AUX_free         0005cb90 f   libeay32:x_x509a.obj
 0001:0004bba8       ASN1_tag2str               0005cba8 f   libeay32:asn1_par.obj
 0001:0004bbe8       ASN1_GENERALIZEDTIME_check 0005cbe8 f   libeay32:a_gentm.obj
 0001:0004bdc4       ASN1_GENERALIZEDTIME_adj   0005cdc4 f   libeay32:a_gentm.obj
 0001:0004bf08       ASN1_UTCTIME_check         0005cf08 f   libeay32:a_utctm.obj
 0001:0004c094       ASN1_UTCTIME_adj           0005d094 f   libeay32:a_utctm.obj
 0001:0004c204       OPENSSL_gmtime             0005d204 f   libeay32:o_time.obj
 0001:0004c37c       OPENSSL_gmtime_adj         0005d37c f   libeay32:o_time.obj
 0001:0004c730       EC_POINT_set_compressed_coordinates_GFp 0005d730 f   libeay32:ec_oct.obj
 0001:0004c828       EC_POINT_set_compressed_coordinates_GF2m 0005d828 f   libeay32:ec_oct.obj
 0001:0004c920       EC_POINT_point2oct         0005d920 f   libeay32:ec_oct.obj
 0001:0004ca30       EC_POINT_oct2point         0005da30 f   libeay32:ec_oct.obj
 0001:0004cb28       OPENSSL_asc2uni            0005db28 f   libeay32:p12_utl.obj
 0001:0004cbc8       UTF8_getc                  0005dbc8 f   libeay32:a_utf8.obj
 0001:0004cecc       UTF8_putc                  0005decc f   libeay32:a_utf8.obj
 0001:0004e4c0       PKCS7_dataInit             0005f4c0 f   libeay32:pk7_doit.obj
 0001:0004e9e4       PKCS7_SIGNER_INFO_sign     0005f9e4 f   libeay32:pk7_doit.obj
 0001:0004ed54       PKCS7_add_signed_attribute 0005fd54 f   libeay32:pk7_doit.obj
 0001:0004ee6c       PKCS7_dataFinal            0005fe6c f   libeay32:pk7_doit.obj
 0001:0004f298       policy_data_free           00060298 f   libeay32:pcy_data.obj
 0001:0004f2e0       EVP_EncodeInit             000602e0 f   libeay32:encode.obj
 0001:0004f2f8       EVP_EncodeBlock            000602f8 f   libeay32:encode.obj
 0001:0004f3d8       EVP_DecodeInit             000603d8 f   libeay32:encode.obj
 0001:0004f3f4       EVP_DecodeBlock            000603f4 f   libeay32:encode.obj
 0001:0004f518       EVP_EncodeUpdate           00060518 f   libeay32:encode.obj
 0001:0004f644       EVP_EncodeFinal            00060644 f   libeay32:encode.obj
 0001:0004f698       EVP_DecodeUpdate           00060698 f   libeay32:encode.obj
 0001:00051448       ec_GF2m_simple_set_compressed_coordinates 00062448 f   libeay32:ec2_oct.obj
 0001:000516dc       ec_GF2m_simple_point2oct   000626dc f   libeay32:ec2_oct.obj
 0001:00051a80       ec_GF2m_simple_oct2point   00062a80 f   libeay32:ec2_oct.obj
 0001:00051e2c       ec_GFp_simple_set_compressed_coordinates 00062e2c f   libeay32:ecp_oct.obj
 0001:00052278       ec_GFp_simple_point2oct    00063278 f   libeay32:ecp_oct.obj
 0001:000525e8       ec_GFp_simple_oct2point    000635e8 f   libeay32:ecp_oct.obj
 0001:00052958       PKCS12_MAC_DATA_it         00063958 f   libeay32:p12_asn.obj
 0001:00052970       PKCS12_BAGS_it             00063970 f   libeay32:p12_asn.obj
 0001:00052988       PKCS12_SAFEBAG_it          00063988 f   libeay32:p12_asn.obj
 0001:00052994       PKCS7_add0_attrib_signing_time 00063994 f   libeay32:pk7_attr.obj
 0001:00052a04       PKCS7_add1_attrib_digest   00063a04 f   libeay32:pk7_attr.obj
 0001:00052a70       UI_get_string_type         00063a70 f   libeay32:ui_lib.obj
 0001:00052a80       UI_get_input_flags         00063a80 f   libeay32:ui_lib.obj
 0001:00052a90       UI_get0_output_string      00063a90 f   libeay32:ui_lib.obj
 0001:00052aa0       UI_get0_action_string      00063aa0 f   libeay32:ui_lib.obj
 0001:00052acc       UI_get0_result_string      00063acc f   libeay32:ui_lib.obj
 0001:00052af0       UI_get0_test_string        00063af0 f   libeay32:ui_lib.obj
 0001:00052b14       BN_kronecker               00063b14 f   libeay32:bn_kron.obj
 0001:00052dc8       BN_mod_sqrt                00063dc8 f   libeay32:bn_sqrt.obj
 0001:00053820       raise                      00064820 f   wcecompatex:signal.obj
 0001:00053828       getenv                     00064828 f   wcecompatex:env.obj
 0001:00053bf4       w32_filetime_to_time_t     00064bf4 f   wcecompatex:time.obj
 0001:00053c94       time                       00064c94 f   wcecompatex:time.obj
 0001:00053cf8       dayOfYear                  00064cf8 f   wcecompatex:time.obj
 0001:00053dcc       gmtime                     00064dcc f   wcecompatex:time.obj
 0001:00053e8c       ?unicode2ascii@@YAXPB_WPAD@Z 00064e8c f   wcecompatex:ts_string.obj
 0001:00053ee0       ?ascii2unicode@@YAXPBDPA_WH@Z 00064ee0 f   wcecompatex:ts_string.obj
 0001:00053f80       ?unicode2ascii@@YAXPB_WPADH@Z 00064f80 f   wcecompatex:ts_string.obj
 0001:00054010       sprintf                    00065010 f   coredll:COREDLL.dll
 0001:00054020       printf                     00065020 f   coredll:COREDLL.dll
 0001:00054030       strcmp                     00065030 f   coredll:COREDLL.dll
 0001:00054040       strlen                     00065040 f   coredll:COREDLL.dll
 0001:00054050       memset                     00065050 f   coredll:COREDLL.dll
 0001:00054060       memcpy                     00065060 f   coredll:COREDLL.dll
 0001:00054070       free                       00065070 f   coredll:COREDLL.dll
 0001:00054080       realloc                    00065080 f   coredll:COREDLL.dll
 0001:00054090       malloc                     00065090 f   coredll:COREDLL.dll
 0001:000540a0       strcpy                     000650a0 f   coredll:COREDLL.dll
 0001:000540b0       strncpy                    000650b0 f   coredll:COREDLL.dll
 0001:000540c0       strchr                     000650c0 f   coredll:COREDLL.dll
 0001:000540d0       memcmp                     000650d0 f   coredll:COREDLL.dll
 0001:000540e0       MessageBoxW                000650e0 f   coredll:COREDLL.dll
 0001:000540f0       _vsnwprintf                000650f0 f   coredll:COREDLL.dll
 0001:00054100       MultiByteToWideChar        00065100 f   coredll:COREDLL.dll
 0001:00054110       _getstdfilex               00065110 f   coredll:COREDLL.dll
 0001:00054120       memchr                     00065120 f   coredll:COREDLL.dll
 0001:00054130       fprintf                    00065130 f   coredll:COREDLL.dll
 0001:00054140       atoi                       00065140 f   coredll:COREDLL.dll
 0001:00054150       _isctype                   00065150 f   coredll:COREDLL.dll
 0001:00054160       qsort                      00065160 f   coredll:COREDLL.dll
 0001:00054170       tolower                    00065170 f   coredll:COREDLL.dll
 0001:00054180       strncmp                    00065180 f   coredll:COREDLL.dll
 0001:00054190       sscanf                     00065190 f   coredll:COREDLL.dll
 0001:000541a0       _strnicmp                  000651a0 f   coredll:COREDLL.dll
 0001:000541b0       fclose                     000651b0 f   coredll:COREDLL.dll
 0001:000541c0       GetLastError               000651c0 f   coredll:COREDLL.dll
 0001:000541d0       ferror                     000651d0 f   coredll:COREDLL.dll
 0001:000541e0       fread                      000651e0 f   coredll:COREDLL.dll
 0001:000541f0       fwrite                     000651f0 f   coredll:COREDLL.dll
 0001:00054200       _setmode                   00065200 f   coredll:COREDLL.dll
 0001:00054210       _fileno                    00065210 f   coredll:COREDLL.dll
 0001:00054220       fopen                      00065220 f   coredll:COREDLL.dll
 0001:00054230       fseek                      00065230 f   coredll:COREDLL.dll
 0001:00054240       ftell                      00065240 f   coredll:COREDLL.dll
 0001:00054250       feof                       00065250 f   coredll:COREDLL.dll
 0001:00054260       fflush                     00065260 f   coredll:COREDLL.dll
 0001:00054270       strcat                     00065270 f   coredll:COREDLL.dll
 0001:00054280       fgets                      00065280 f   coredll:COREDLL.dll
 0001:00054290       _wfopen                    00065290 f   coredll:COREDLL.dll
 0001:000542a0       strrchr                    000652a0 f   coredll:COREDLL.dll
 0001:000542b0       strtoul                    000652b0 f   coredll:COREDLL.dll
 0001:000542c0       _stricmp                   000652c0 f   coredll:COREDLL.dll
 0001:000542d0       memmove                    000652d0 f   coredll:COREDLL.dll
 0001:000542e0       GetTickCount               000652e0 f   coredll:COREDLL.dll
 0001:000542f0       QueryPerformanceCounter    000652f0 f   coredll:COREDLL.dll
 0001:00054300       GlobalMemoryStatus         00065300 f   coredll:COREDLL.dll
 0001:00054310       CryptReleaseContext        00065310 f   coredll:COREDLL.dll
 0001:00054320       CryptGenRandom             00065320 f   coredll:COREDLL.dll
 0001:00054330       CryptAcquireContextW       00065330 f   coredll:COREDLL.dll
 0001:00054340       GetVersionExW              00065340 f   coredll:COREDLL.dll
 0001:00054350       LoadLibraryW               00065350 f   coredll:COREDLL.dll
 0001:00054360       SetLastError               00065360 f   coredll:COREDLL.dll
 0001:00054370       FreeLibrary                00065370 f   coredll:COREDLL.dll
 0001:00054380       GetProcAddressA            00065380 f   coredll:COREDLL.dll
 0001:00054390       strstr                     00065390 f   coredll:COREDLL.dll
 0001:000543a0       WideCharToMultiByte        000653a0 f   coredll:COREDLL.dll
 0001:000543b0       fputs                      000653b0 f   coredll:COREDLL.dll
 0001:000543c0       SystemTimeToFileTime       000653c0 f   coredll:COREDLL.dll
 0001:000543d0       GetSystemTime              000653d0 f   coredll:COREDLL.dll
 0001:000543e0       FileTimeToSystemTime       000653e0 f   coredll:COREDLL.dll
 0001:000543f0       _cinit                     000653f0 f   corelibc:crt0dat.obj
 0001:00054560       exit                       00065560 f   corelibc:crt0dat.obj
 0001:00054578       _exit                      00065578 f   corelibc:crt0dat.obj
 0001:00054598       WinMainCRTStartup          00065598 f   corelibc:pegwmain.obj
 0001:0005460c       WinMain                    0006560c f   wcecompatex:winmain.obj
 0001:00054968       ?processCmdLine@@YAHPA_WPAPAPAD@Z 00065968 f   wcecompatex:args.obj
 0001:00054da4       LocalFree                  00065da4 f   coredll:COREDLL.dll
 0001:00054db4       _XcptFilter                00065db4 f   coredll:COREDLL.dll
 0001:00054dc4       __C_specific_handler       00065dc4 f   coredll:COREDLL.dll
 0001:00054dd4       FindFirstFileW             00065dd4 f   coredll:COREDLL.dll
 0001:00054de4       FindClose                  00065de4 f   coredll:COREDLL.dll
 0001:00054df4       FindNextFileW              00065df4 f   coredll:COREDLL.dll
 0001:00054e04       GetModuleFileNameW         00065e04 f   coredll:COREDLL.dll
 0002:00000000       ??_C@_0CB@CPDBHAGM@e33b4ddc9c38f2199c3e7b164fcc0536@ 00066000     md4test.obj
 0002:00000024       ??_C@_0CB@CFIHJNHE@043f8582f241db351ce627e153e7f0e4@ 00066024     md4test.obj
 0002:00000048       ??_C@_0CB@JPPAOPLJ@d79e1c308aa5bbcdeea8ed63df412da9@ 00066048     md4test.obj
 0002:0000006c       ??_C@_0CB@HCABDOLN@d9130a8164549fe818874806e1c7014b@ 0006606c     md4test.obj
 0002:00000090       ??_C@_0CB@FEEHCNEJ@a448017aaf21d8525fc10ae87aa6729d@ 00066090     md4test.obj
 0002:000000b4       ??_C@_0CB@FDINHLIE@bde52cb31de33e46245e05fbdbd6fb24@ 000660b4     md4test.obj
 0002:000000d8       ??_C@_0CB@ILOKEOBC@31d6cfe0d16ae931b73c59d7e0c089c0@ 000660d8     md4test.obj
 0002:00000100       ??_C@_0FB@JDIKKJCI@12345678901234567890123456789012@ 00066100     md4test.obj
 0002:00000154       ??_C@_0DP@EFDPGBGM@ABCDEFGHIJKLMNOPQRSTUVWXYZabcdef@ 00066154     md4test.obj
 0002:00000194       ??_C@_0BL@JIGBPIBD@abcdefghijklmnopqrstuvwxyz?$AA@ 00066194     md4test.obj
 0002:000001b0       ??_C@_0P@ONGHGJEC@message?5digest?$AA@ 000661b0     md4test.obj
 0002:000001c0       ??_C@_03FIKCJHKP@abc?$AA@  000661c0     md4test.obj
 0002:000001c4       ??_C@_01MCMALHOG@a?$AA@    000661c4     md4test.obj
 0002:000001c6       ??_C@_00CNPNBAHC@?$AA@     000661c6     md4test.obj
 0002:000001c8       ??_C@_04NOJCDH@?$CF02x?$AA@ 000661c8     md4test.obj
 0002:000001d0       ??_C@_0M@NJKLCIBI@test?5?$CFd?5ok?6?$AA@ 000661d0     md4test.obj
 0002:000001dc       ??_C@_0BP@ODPFMBED@error?5calculating?5MD4?5on?5?8?$CFs?8?6?$AA@ 000661dc     md4test.obj
 0002:000001fc       ??_C@_0BG@IMOFIMJK@got?5?$CFs?5instead?5of?5?$CFs?6?$AA@ 000661fc     md4test.obj
 0002:00000218       ??_C@_0EM@DLBKEKNP@d?3?2wm653wehh?2platform?2mvv210?2src@ 00066218     libeay32:digest.obj
 0002:00000264       ??_C@_0CI@KPJFNDOF@ctx?9?$DOdigest?9?$DOmd_size?5?$DM?$DN?5EVP_MAX_@ 00066264     libeay32:digest.obj
 0002:000002e0       ??_C@_0EP@HIMPJABG@d?3?2wm653wehh?2platform?2mvv210?2src@ 000662e0     libeay32:pmeth_lib.obj
 0002:00000330       ??_C@_06IJPNAHC@digest?$AA@ 00066330     libeay32:pmeth_lib.obj
 0002:00000338       ??_C@_0FC@GLILKHMO@d?3?2wm653wehh?2platform?2mvv210?2src@ 00066338     libeay32:tb_digest.obj
 0002:000003b8       ??_C@_0DE@JBNNAKOP@called?5a?5function?5that?5was?5disab@ 000663b8     libeay32:err.obj
 0002:000003ec       ??_C@_0P@LPIEGNHB@internal?5error?$AA@ 000663ec     libeay32:err.obj
 0002:000003fc       ??_C@_0BI@MMHLKOF@passed?5a?5null?5parameter?$AA@ 000663fc     libeay32:err.obj
 0002:00000414       ??_C@_0CG@JFIACAPA@called?5a?5function?5you?5should?5not@ 00066414     libeay32:err.obj
 0002:0000043c       ??_C@_0P@BOLAOBGL@malloc?5failure?$AA@ 0006643c     libeay32:err.obj
 0002:0000044c       ??_C@_05FAMCFOJB@fatal?$AA@ 0006644c     libeay32:err.obj
 0002:00000454       ??_C@_0BB@LLCBNOLO@missing?5asn1?5eos?$AA@ 00066454     libeay32:err.obj
 0002:00000468       ??_C@_0BF@JKEELALH@asn1?5length?5mismatch?$AA@ 00066468     libeay32:err.obj
 0002:00000480       ??_C@_0BL@PKJJDDDF@expecting?5an?5asn1?5sequence?$AA@ 00066480     libeay32:err.obj
 0002:0000049c       ??_C@_0BJ@KHBMOGBI@bad?5get?5asn1?5object?5call?$AA@ 0006649c     libeay32:err.obj
 0002:000004b8       ??_C@_0BH@LJENPHMF@bad?5asn1?5object?5header?$AA@ 000664b8     libeay32:err.obj
 0002:000004d0       ??_C@_0BC@JPACPGKL@nested?5asn1?5error?$AA@ 000664d0     libeay32:err.obj
 0002:000004e4       ??_C@_06JPOPAJEJ@TS?5lib?$AA@ 000664e4     libeay32:err.obj
 0002:000004ec       ??_C@_08BIAIHGB@OCSP?5lib?$AA@ 000664ec     libeay32:err.obj
 0002:000004f8       ??_C@_0L@NEGIHAGL@ENGINE?5lib?$AA@ 000664f8     libeay32:err.obj
 0002:00000504       ??_C@_07HLMFDJCH@DSO?5lib?$AA@ 00066504     libeay32:err.obj
 0002:0000050c       ??_C@_08IAGEJILJ@RAND?5lib?$AA@ 0006650c     libeay32:err.obj
 0002:00000518       ??_C@_0L@FBHADCPC@PKCS12?5lib?$AA@ 00066518     libeay32:err.obj
 0002:00000524       ??_C@_0L@OHLIEDB@X509V3?5lib?$AA@ 00066524     libeay32:err.obj
 0002:00000530       ??_C@_09PFAKBDBP@PKCS7?5lib?$AA@ 00066530     libeay32:err.obj
 0002:0000053c       ??_C@_07HOAEPDCA@BIO?5lib?$AA@ 0006653c     libeay32:err.obj
 0002:00000544       ??_C@_07ILCPHDLL@SSL?5lib?$AA@ 00066544     libeay32:err.obj
 0002:0000054c       ??_C@_06FNJAJMKI@EC?5lib?$AA@ 0006654c     libeay32:err.obj
 0002:00000554       ??_C@_0L@GEIMIIEL@CRYPTO?5lib?$AA@ 00066554     libeay32:err.obj
 0002:00000560       ??_C@_08GDJNHNLC@CONF?5lib?$AA@ 00066560     libeay32:err.obj
 0002:0000056c       ??_C@_08HAFIEMCJ@ASN1?5lib?$AA@ 0006656c     libeay32:err.obj
 0002:00000578       ??_C@_08DGLLDICE@X509?5lib?$AA@ 00066578     libeay32:err.obj
 0002:00000584       ??_C@_07EBMPFIFH@DSA?5lib?$AA@ 00066584     libeay32:err.obj
 0002:0000058c       ??_C@_07MKPCAOAJ@PEM?5lib?$AA@ 0006658c     libeay32:err.obj
 0002:00000594       ??_C@_07LHMLCDLI@OBJ?5lib?$AA@ 00066594     libeay32:err.obj
 0002:0000059c       ??_C@_07PJHFFEFC@BUF?5lib?$AA@ 0006659c     libeay32:err.obj
 0002:000005a4       ??_C@_07BHNHKGFA@EVP?5lib?$AA@ 000665a4     libeay32:err.obj
 0002:000005ac       ??_C@_06JBCAGHNP@DH?5lib?$AA@ 000665ac     libeay32:err.obj
 0002:000005b4       ??_C@_07PLBLGAPL@RSA?5lib?$AA@ 000665b4     libeay32:err.obj
 0002:000005bc       ??_C@_06CEKJLBPI@BN?5lib?$AA@ 000665bc     libeay32:err.obj
 0002:000005c4       ??_C@_0L@NFMIFFDK@system?5lib?$AA@ 000665c4     libeay32:err.obj
 0002:000005d0       ??_C@_05FHPOAJDB@fread?$AA@ 000665d0     libeay32:err.obj
 0002:000005d8       ??_C@_07OPAOJOOA@opendir?$AA@ 000665d8     libeay32:err.obj
 0002:000005e0       ??_C@_0L@LNCNEFCG@WSAstartup?$AA@ 000665e0     libeay32:err.obj
 0002:000005ec       ??_C@_06MPKMECK@accept?$AA@ 000665ec     libeay32:err.obj
 0002:000005f4       ??_C@_06OODDLKLE@listen?$AA@ 000665f4     libeay32:err.obj
 0002:000005fc       ??_C@_04NPNJNMMP@bind?$AA@ 000665fc     libeay32:err.obj
 0002:00000604       ??_C@_0M@PBPOCKDG@ioctlsocket?$AA@ 00066604     libeay32:err.obj
 0002:00000610       ??_C@_06HBELJPBO@socket?$AA@ 00066610     libeay32:err.obj
 0002:00000618       ??_C@_0O@NKLJGHIL@getservbyname?$AA@ 00066618     libeay32:err.obj
 0002:00000628       ??_C@_07KAIBNCHO@connect?$AA@ 00066628     libeay32:err.obj
 0002:00000630       ??_C@_05FFKPLNPJ@fopen?$AA@ 00066630     libeay32:err.obj
 0002:00000638       ??_C@_0O@PBJMEGGG@HMAC?5routines?$AA@ 00066638     libeay32:err.obj
 0002:00000648       ??_C@_0N@MKJBFBO@CMS?5routines?$AA@ 00066648     libeay32:err.obj
 0002:00000658       ??_C@_0O@MDPFBMCI@FIPS?5routines?$AA@ 00066658     libeay32:err.obj
 0002:00000668       ??_C@_0O@LJIADBLP@OCSP?5routines?$AA@ 00066668     libeay32:err.obj
 0002:00000678       ??_C@_0BA@MMHCJFKD@engine?5routines?$AA@ 00066678     libeay32:err.obj
 0002:00000688       ??_C@_0BE@IMHDPIMO@time?5stamp?5routines?$AA@ 00066688     libeay32:err.obj
 0002:0000069c       ??_C@_0BF@BDHLAIEM@DSO?5support?5routines?$AA@ 0006669c     libeay32:err.obj
 0002:000006b4       ??_C@_0BI@GMPKPCPG@random?5number?5generator?$AA@ 000666b4     libeay32:err.obj
 0002:000006cc       ??_C@_0BA@KPFPMFD@PKCS12?5routines?$AA@ 000666cc     libeay32:err.obj
 0002:000006dc       ??_C@_0BB@LKDEPKLM@X509?5V3?5routines?$AA@ 000666dc     libeay32:err.obj
 0002:000006f0       ??_C@_0P@FBDCKDAN@PKCS7?5routines?$AA@ 000666f0     libeay32:err.obj
 0002:00000700       ??_C@_0N@HGNFKBOI@BIO?5routines?$AA@ 00066700     libeay32:err.obj
 0002:00000710       ??_C@_0N@GAIJLNCL@SSL?5routines?$AA@ 00066710     libeay32:err.obj
 0002:00000720       ??_C@_0BI@NNCFPCDI@elliptic?5curve?5routines?$AA@ 00066720     libeay32:err.obj
 0002:00000738       ??_C@_0BK@GOIAPJCF@common?5libcrypto?5routines?$AA@ 00066738     libeay32:err.obj
 0002:00000754       ??_C@_0BM@FNIFPKKP@configuration?5file?5routines?$AA@ 00066754     libeay32:err.obj
 0002:00000770       ??_C@_0BH@OKMDKJBH@asn1?5encoding?5routines?$AA@ 00066770     libeay32:err.obj
 0002:00000788       ??_C@_0BK@MLDIFNOG@x509?5certificate?5routines?$AA@ 00066788     libeay32:err.obj
 0002:000007a4       ??_C@_0N@EPLKEPHE@dsa?5routines?$AA@ 000667a4     libeay32:err.obj
 0002:000007b4       ??_C@_0N@PPOIEGDJ@PEM?5routines?$AA@ 000667b4     libeay32:err.obj
 0002:000007c4       ??_C@_0BL@GAJLDLEG@object?5identifier?5routines?$AA@ 000667c4     libeay32:err.obj
 0002:000007e0       ??_C@_0BH@GHBGFOKA@memory?5buffer?5routines?$AA@ 000667e0     libeay32:err.obj
 0002:000007f8       ??_C@_0BK@KCBHLAIJ@digital?5envelope?5routines?$AA@ 000667f8     libeay32:err.obj
 0002:00000814       ??_C@_0BI@BELEOFAM@Diffie?9Hellman?5routines?$AA@ 00066814     libeay32:err.obj
 0002:0000082c       ??_C@_0N@FLFIDGHD@rsa?5routines?$AA@ 0006682c     libeay32:err.obj
 0002:0000083c       ??_C@_0BA@BALAMMCD@bignum?5routines?$AA@ 0006683c     libeay32:err.obj
 0002:0000084c       ??_C@_0P@KJHLNCML@system?5library?$AA@ 0006684c     libeay32:err.obj
 0002:0000085c       ??_C@_0BA@JLJAKIKL@unknown?5library?$AA@ 0006685c     libeay32:err.obj
 0002:00000870       ??_C@_0EJ@LLHEHHLL@d?3?2wm653wehh?2platform?2mvv210?2src@ 00066870     libeay32:err.obj
 0002:000008bc       ??_C@_0BE@CGMKPIME@int_err_get?5?$CIerr?4c?$CJ?$AA@ 000668bc     libeay32:err.obj
 0002:000008d0       ??_C@_0BH@KBGLDIDO@int_thread_get?5?$CIerr?4c?$CJ?$AA@ 000668d0     libeay32:err.obj
 0002:000008e8       ??_C@_0FB@FHJDMCII@d?3?2wm653wehh?2platform?2mvv210?2src@ 000668e8     libeay32:eng_init.obj
 0002:00000940       ??_C@_0EN@HNCBNDLA@d?3?2wm653wehh?2platform?2mvv210?2src@ 00066940     libeay32:evp_lib.obj
 0002:00000990       ??_C@_0BD@LHHAEAAJ@l?5?$DM?$DN?5sizeof?$CIc?9?$DOiv?$CJ?$AA@ 00066990     libeay32:evp_lib.obj
 0002:000009a4       ??_C@_0BD@CKKMELBK@j?5?$DM?$DN?5sizeof?$CIc?9?$DOiv?$CJ?$AA@ 000669a4     libeay32:evp_lib.obj
 0002:00000a64       ??_C@_05NEEKIFMD@fips2?$AA@ 00066a64     libeay32:cryptlib.obj
 0002:00000a6c       ??_C@_04DJGCHAOD@fips?$AA@ 00066a6c     libeay32:cryptlib.obj
 0002:00000a74       ??_C@_04OLDKMDKP@comp?$AA@ 00066a74     libeay32:cryptlib.obj
 0002:00000a7c       ??_C@_05ODGDKDLF@store?$AA@ 00066a7c     libeay32:cryptlib.obj
 0002:00000a84       ??_C@_0M@FNJFEIGB@ec_pre_comp?$AA@ 00066a84     libeay32:cryptlib.obj
 0002:00000a90       ??_C@_02LAJDHPIK@bn?$AA@   00066a90     libeay32:cryptlib.obj
 0002:00000a94       ??_C@_04KDGGCKGB@ecdh?$AA@ 00066a94     libeay32:cryptlib.obj
 0002:00000a9c       ??_C@_02HCBHEC@ec?$AA@     00066a9c     libeay32:cryptlib.obj
 0002:00000aa0       ??_C@_05FGIDCBJD@ecdsa?$AA@ 00066aa0     libeay32:cryptlib.obj
 0002:00000aa8       ??_C@_02OGLLFMLI@ui?$AA@   00066aa8     libeay32:cryptlib.obj
 0002:00000aac       ??_C@_06LOBMEHPF@engine?$AA@ 00066aac     libeay32:cryptlib.obj
 0002:00000ab4       ??_C@_07HGGNMPAJ@dynlock?$AA@ 00066ab4     libeay32:cryptlib.obj
 0002:00000abc       ??_C@_03NOCNOBNG@dso?$AA@  00066abc     libeay32:cryptlib.obj
 0002:00000ac0       ??_C@_0O@PMFKBDME@debug_malloc2?$AA@ 00066ac0     libeay32:cryptlib.obj
 0002:00000ad0       ??_C@_02OCEEKELO@dh?$AA@   00066ad0     libeay32:cryptlib.obj
 0002:00000ad4       ??_C@_0N@BGAJKBNF@RSA_blinding?$AA@ 00066ad4     libeay32:cryptlib.obj
 0002:00000ae4       ??_C@_07OMHHFDME@readdir?$AA@ 00066ae4     libeay32:cryptlib.obj
 0002:00000aec       ??_C@_0O@BFBCKHPD@gethostbyname?$AA@ 00066aec     libeay32:cryptlib.obj
 0002:00000afc       ??_C@_03OHAMFFNA@BIO?$AA@  00066afc     libeay32:cryptlib.obj
 0002:00000b00       ??_C@_0N@CLEMOJNL@debug_malloc?$AA@ 00066b00     libeay32:cryptlib.obj
 0002:00000b10       ??_C@_05NFNCBLNG@rand2?$AA@ 00066b10     libeay32:cryptlib.obj
 0002:00000b18       ??_C@_04HKINGDKC@rand?$AA@ 00066b18     libeay32:cryptlib.obj
 0002:00000b20       ??_C@_0L@NKBFNPDB@ssl_method?$AA@ 00066b20     libeay32:cryptlib.obj
 0002:00000b2c       ??_C@_03DIMONNDD@ssl?$AA@  00066b2c     libeay32:cryptlib.obj
 0002:00000b30       ??_C@_0O@LOCLBOHA@ssl_sess_cert?$AA@ 00066b30     libeay32:cryptlib.obj
 0002:00000b40       ??_C@_0M@OAEAFGMD@ssl_session?$AA@ 00066b40     libeay32:cryptlib.obj
 0002:00000b4c       ??_C@_08INIFBEOB@ssl_cert?$AA@ 00066b4c     libeay32:cryptlib.obj
 0002:00000b58       ??_C@_07DNHKIAPH@ssl_ctx?$AA@ 00066b58     libeay32:cryptlib.obj
 0002:00000b60       ??_C@_0L@JCDDFIOK@x509_store?$AA@ 00066b60     libeay32:cryptlib.obj
 0002:00000b6c       ??_C@_08NBJJIGBN@evp_pkey?$AA@ 00066b6c     libeay32:cryptlib.obj
 0002:00000b78       ??_C@_03DFNMMEBL@rsa?$AA@  00066b78     libeay32:cryptlib.obj
 0002:00000b7c       ??_C@_03EAKOMMFI@dsa?$AA@  00066b7c     libeay32:cryptlib.obj
 0002:00000b80       ??_C@_08BHPLFFMD@x509_req?$AA@ 00066b80     libeay32:cryptlib.obj
 0002:00000b8c       ??_C@_08BJFLLMNA@x509_crl?$AA@ 00066b8c     libeay32:cryptlib.obj
 0002:00000b98       ??_C@_09HNLHIFBP@x509_pkey?$AA@ 00066b98     libeay32:cryptlib.obj
 0002:00000ba4       ??_C@_09DJEHILFA@x509_info?$AA@ 00066ba4     libeay32:cryptlib.obj
 0002:00000bb0       ??_C@_04BNGFMDFF@x509?$AA@ 00066bb0     libeay32:cryptlib.obj
 0002:00000bb8       ??_C@_07OALPHBKG@ex_data?$AA@ 00066bb8     libeay32:cryptlib.obj
 0002:00000bc0       ??_C@_03JIDPIAJI@err?$AA@  00066bc0     libeay32:cryptlib.obj
 0002:00000bc4       ??_C@_09OGFJIAEE@?$DM?$DMERROR?$DO?$DO?$AA@ 00066bc4     libeay32:cryptlib.obj
 0002:00000bd0       ??_C@_0EK@JACEKOIE@d?3?2wm653wehh?2platform?2mvv210?2src@ 00066bd0     libeay32:cryptlib.obj
 0002:00000c1c       ??_C@_1BO@DCCMIJEM@?$AAO?$AAp?$AAe?$AAn?$AAS?$AAS?$AAL?$AA?3?$AA?5?$AAF?$AAA?$AAT?$AAA?$AAL?$AA?$AA@ 00066c1c     libeay32:cryptlib.obj
 0002:00000c3c       ??_C@_1BE@NLCFDLCA@?$AAn?$AAo?$AA?5?$AAs?$AAt?$AAa?$AAc?$AAk?$AA?$DP?$AA?$AA@ 00066c3c     libeay32:cryptlib.obj
 0002:00000c50       ??_C@_0DG@JJAMFCAP@?$CFs?$CI?$CFd?$CJ?3?5OpenSSL?5internal?5error?0?5@ 00066c50     libeay32:cryptlib.obj
 0002:00000c88       ??_C@_0BA@LPBALOME@pointer?5?$CB?$DN?5NULL?$AA@ 00066c88     libeay32:cryptlib.obj
 0002:00000c98       ??_C@_0EO@NHOCECJL@d?3?2wm653wehh?2platform?2mvv210?2src@ 00066c98     libeay32:rsa_sign.obj
 0002:00000ce8       ??_C@_0DF@DGNAAHIE@signature?5has?5problems?0?5re?9make?5@ 00066ce8     libeay32:rsa_sign.obj
 0002:00000d20       MD4_version                00066d20     libeay32:md4_dgst.obj
 0002:00000d48       cmac_pkey_meth             00066d48     libeay32:cm_pmeth.obj
 0002:00000db4       ??_C@_06BHJHKMJC@hexkey?$AA@ 00066db4     libeay32:cm_pmeth.obj
 0002:00000dbc       ??_C@_06KDGDAFPH@cipher?$AA@ 00066dbc     libeay32:cm_pmeth.obj
 0002:00000dc4       ??_C@_03ICHNJLJF@key?$AA@  00066dc4     libeay32:cm_pmeth.obj
 0002:00000dc8       hmac_pkey_meth             00066dc8     libeay32:hm_pmeth.obj
 0002:00000e38       ??_C@_0EP@PNIBEDF@d?3?2wm653wehh?2platform?2mvv210?2src@ 00066e38     libeay32:hm_pmeth.obj
 0002:00000e88       ec_pkey_meth               00066e88     libeay32:ec_pmeth.obj
 0002:00000ef8       ??_C@_0EN@FGGHDHMC@d?3?2wm653wehh?2platform?2mvv210?2src@ 00066ef8     libeay32:ec_pmeth.obj
 0002:00000f48       ??_C@_0BC@BLCJLNNM@ec_paramgen_curve?$AA@ 00066f48     libeay32:ec_pmeth.obj
 0002:00000f60       dsa_pkey_meth              00066f60     libeay32:dsa_pmeth.obj
 0002:00000fd0       ??_C@_0EP@KECMJLCG@d?3?2wm653wehh?2platform?2mvv210?2src@ 00066fd0     libeay32:dsa_pmeth.obj
 0002:00001020       ??_C@_0BA@HDLNDIMK@dsa_paramgen_md?$AA@ 00067020     libeay32:dsa_pmeth.obj
 0002:00001030       ??_C@_0BE@JHBKDNPA@dsa_paramgen_q_bits?$AA@ 00067030     libeay32:dsa_pmeth.obj
 0002:00001044       ??_C@_0BC@DOMHFBFC@dsa_paramgen_bits?$AA@ 00067044     libeay32:dsa_pmeth.obj
 0002:00001058       dh_pkey_meth               00067058     libeay32:dh_pmeth.obj
 0002:000010c8       ??_C@_0EN@BFMPENCA@d?3?2wm653wehh?2platform?2mvv210?2src@ 000670c8     libeay32:dh_pmeth.obj
 0002:00001118       ??_C@_0BG@POLEFOHA@dh_paramgen_generator?$AA@ 00067118     libeay32:dh_pmeth.obj
 0002:00001130       ??_C@_0BG@LEMCDPBI@dh_paramgen_prime_len?$AA@ 00067130     libeay32:dh_pmeth.obj
 0002:00001148       rsa_pkey_meth              00067148     libeay32:rsa_pmeth.obj
 0002:000011b8       ??_C@_0EP@PCLPIEEA@d?3?2wm653wehh?2platform?2mvv210?2src@ 000671b8     libeay32:rsa_pmeth.obj
 0002:00001208       ??_C@_0BC@DMECNPFD@rsa_keygen_pubexp?$AA@ 00067208     libeay32:rsa_pmeth.obj
 0002:0000121c       ??_C@_0BA@GFPKPLAF@rsa_keygen_bits?$AA@ 0006721c     libeay32:rsa_pmeth.obj
 0002:0000122c       ??_C@_0BA@CIHMEEHB@rsa_pss_saltlen?$AA@ 0006722c     libeay32:rsa_pmeth.obj
 0002:0000123c       ??_C@_03OHCBHMED@pss?$AA@  0006723c     libeay32:rsa_pmeth.obj
 0002:00001240       ??_C@_04JNCMEILM@x931?$AA@ 00067240     libeay32:rsa_pmeth.obj
 0002:00001248       ??_C@_04EIGNDHKO@oeap?$AA@ 00067248     libeay32:rsa_pmeth.obj
 0002:00001250       ??_C@_04CGFJFPFD@none?$AA@ 00067250     libeay32:rsa_pmeth.obj
 0002:00001258       ??_C@_06PDLHKEJK@sslv23?$AA@ 00067258     libeay32:rsa_pmeth.obj
 0002:00001260       ??_C@_05BCIEJMJH@pkcs1?$AA@ 00067260     libeay32:rsa_pmeth.obj
 0002:00001268       ??_C@_0BB@BILFEOKG@rsa_padding_mode?$AA@ 00067268     libeay32:rsa_pmeth.obj
 0002:0000aa18       ??_C@_09FHIEKOPH@rsaesOaep?$AA@ 00070a18     libeay32:obj_dat.obj
 0002:0000aa24       ??_C@_0L@NCPDMLAN@RSAES?9OAEP?$AA@ 00070a24     libeay32:obj_dat.obj
 0002:0000aa30       ??_C@_0BG@MBIALEGA@aes?9256?9cbc?9hmac?9sha1?$AA@ 00070a30     libeay32:obj_dat.obj
 0002:0000aa48       ??_C@_0BG@NJKHMG@AES?9256?9CBC?9HMAC?9SHA1?$AA@ 00070a48     libeay32:obj_dat.obj
 0002:0000aa60       ??_C@_0BG@GKCPENNE@aes?9192?9cbc?9hmac?9sha1?$AA@ 00070a60     libeay32:obj_dat.obj
 0002:0000aa78       ??_C@_0BG@KLHGFOHC@AES?9192?9CBC?9HMAC?9SHA1?$AA@ 00070a78     libeay32:obj_dat.obj
 0002:0000aa90       ??_C@_0BG@CLBGODOC@aes?9128?9cbc?9hmac?9sha1?$AA@ 00070a90     libeay32:obj_dat.obj
 0002:0000aaa8       ??_C@_0BG@OKEPPAEE@AES?9128?9CBC?9HMAC?9SHA1?$AA@ 00070aa8     libeay32:obj_dat.obj
 0002:0000aac0       ??_C@_0N@EFPJLHOG@rc4?9hmac?9md5?$AA@ 00070ac0     libeay32:obj_dat.obj
 0002:0000aad0       ??_C@_0N@MFFPBCGK@RC4?9HMAC?9MD5?$AA@ 00070ad0     libeay32:obj_dat.obj
 0002:0000aae0       ??_C@_0M@FHDOMLNI@aes?9256?9xts?$AA@ 00070ae0     libeay32:obj_dat.obj
 0002:0000aaec       ??_C@_0M@ILDFFBFL@AES?9256?9XTS?$AA@ 00070aec     libeay32:obj_dat.obj
 0002:0000aaf8       ??_C@_0M@CGBMJDMF@aes?9128?9xts?$AA@ 00070af8     libeay32:obj_dat.obj
 0002:0000ab04       ??_C@_0M@PKBHAJEG@AES?9128?9XTS?$AA@ 00070b04     libeay32:obj_dat.obj
 0002:0000ab10       ??_C@_09FGGKIFKD@rsassaPss?$AA@ 00070b10     libeay32:obj_dat.obj
 0002:0000ab1c       ??_C@_0L@CPMAKEFG@RSASSA?9PSS?$AA@ 00070b1c     libeay32:obj_dat.obj
 0002:0000ab28       ??_C@_04HEIJMEIE@mgf1?$AA@ 00070b28     libeay32:obj_dat.obj
 0002:0000ab30       ??_C@_04CNDHACFO@MGF1?$AA@ 00070b30     libeay32:obj_dat.obj
 0002:0000ab38       ??_C@_0BH@FHBOBBKO@Any?5Extended?5Key?5Usage?$AA@ 00070b38     libeay32:obj_dat.obj
 0002:0000ab50       ??_C@_0BE@FKFLDMON@anyExtendedKeyUsage?$AA@ 00070b50     libeay32:obj_dat.obj
 0002:0000ab64       ??_C@_0BE@PHKLGFJC@id?9camellia256?9wrap?$AA@ 00070b64     libeay32:obj_dat.obj
 0002:0000ab78       ??_C@_0BE@GNMGGIAL@id?9camellia192?9wrap?$AA@ 00070b78     libeay32:obj_dat.obj
 0002:0000ab8c       ??_C@_0BE@JENMCLBD@id?9camellia128?9wrap?$AA@ 00070b8c     libeay32:obj_dat.obj
 0002:0000aba0       ??_C@_0M@MJDNCKAH@aes?9256?9ctr?$AA@ 00070ba0     libeay32:obj_dat.obj
 0002:0000abac       ??_C@_0M@BFDGLAIE@AES?9256?9CTR?$AA@ 00070bac     libeay32:obj_dat.obj
 0002:0000abb8       ??_C@_0M@BLIDAFIG@aes?9192?9ctr?$AA@ 00070bb8     libeay32:obj_dat.obj
 0002:0000abc4       ??_C@_0M@MHIIJPAF@AES?9192?9CTR?$AA@ 00070bc4     libeay32:obj_dat.obj
 0002:0000abd0       ??_C@_0M@LIBPHCBK@aes?9128?9ctr?$AA@ 00070bd0     libeay32:obj_dat.obj
 0002:0000abdc       ??_C@_0M@GEBEOIJJ@AES?9128?9CTR?$AA@ 00070bdc     libeay32:obj_dat.obj
 0002:0000abe8       ??_C@_0BD@OHLFOIJM@id?9aes256?9wrap?9pad?$AA@ 00070be8     libeay32:obj_dat.obj
 0002:0000abfc       ??_C@_0M@BNAOJBGM@aes?9256?9ccm?$AA@ 00070bfc     libeay32:obj_dat.obj
 0002:0000ac08       ??_C@_0O@EDMKMBKB@id?9aes256?9CCM?$AA@ 00070c08     libeay32:obj_dat.obj
 0002:0000ac18       ??_C@_0M@JCGMAGDL@aes?9256?9gcm?$AA@ 00070c18     libeay32:obj_dat.obj
 0002:0000ac24       ??_C@_0O@MMKIFGPG@id?9aes256?9GCM?$AA@ 00070c24     libeay32:obj_dat.obj
 0002:0000ac34       ??_C@_0BD@OPKMLKFB@id?9aes192?9wrap?9pad?$AA@ 00070c34     libeay32:obj_dat.obj
 0002:0000ac48       ??_C@_0M@MPLALOON@aes?9192?9ccm?$AA@ 00070c48     libeay32:obj_dat.obj
 0002:0000ac54       ??_C@_0O@JBHEOOCA@id?9aes192?9CCM?$AA@ 00070c54     libeay32:obj_dat.obj
 0002:0000ac64       ??_C@_0M@EANCCJLK@aes?9192?9gcm?$AA@ 00070c64     libeay32:obj_dat.obj
 0002:0000ac70       ??_C@_0O@BOBGHJHH@id?9aes192?9GCM?$AA@ 00070c70     libeay32:obj_dat.obj
 0002:0000ac80       ??_C@_0BD@HMJBEGNL@id?9aes128?9wrap?9pad?$AA@ 00070c80     libeay32:obj_dat.obj
 0002:0000ac94       ??_C@_0M@GMCMMJHB@aes?9128?9ccm?$AA@ 00070c94     libeay32:obj_dat.obj
 0002:0000aca0       ??_C@_0O@DCOIJJLM@id?9aes128?9CCM?$AA@ 00070ca0     libeay32:obj_dat.obj
 0002:0000acb0       ??_C@_0M@ODEOFOCG@aes?9128?9gcm?$AA@ 00070cb0     libeay32:obj_dat.obj
 0002:0000acbc       ??_C@_0O@LNIKAOOL@id?9aes128?9GCM?$AA@ 00070cbc     libeay32:obj_dat.obj
 0002:0000accc       ??_C@_04CJMGLDNC@cmac?$AA@ 00070ccc     libeay32:obj_dat.obj
 0002:0000acd4       ??_C@_04OFPMFBKK@CMAC?$AA@ 00070cd4     libeay32:obj_dat.obj
 0002:0000acdc       ??_C@_0BA@NJOHMDIG@id?9alg?9PWRI?9KEK?$AA@ 00070cdc     libeay32:obj_dat.obj
 0002:0000acec       ??_C@_07ILKEFPGB@dmdName?$AA@ 00070cec     libeay32:obj_dat.obj
 0002:0000acf4       ??_C@_0BE@MNOFELKF@deltaRevocationList?$AA@ 00070cf4     libeay32:obj_dat.obj
 0002:0000ad08       ??_C@_0BE@KGOGIPEN@supportedAlgorithms?$AA@ 00070d08     libeay32:obj_dat.obj
 0002:0000ad1c       ??_C@_0BA@EKKIBBF@houseIdentifier?$AA@ 00070d1c     libeay32:obj_dat.obj
 0002:0000ad2c       ??_C@_0N@FIGDLDDJ@uniqueMember?$AA@ 00070d2c     libeay32:obj_dat.obj
 0002:0000ad3c       ??_C@_0BC@IIJOGNNH@distinguishedName?$AA@ 00070d3c     libeay32:obj_dat.obj
 0002:0000ad50       ??_C@_0BE@FKAMNJMM@protocolInformation?$AA@ 00070d50     libeay32:obj_dat.obj
 0002:0000ad64       ??_C@_0BE@NNAGLFEM@enhancedSearchGuide?$AA@ 00070d64     libeay32:obj_dat.obj
 0002:0000ad78       ??_C@_0BF@GAAPBDAE@crossCertificatePair?$AA@ 00070d78     libeay32:obj_dat.obj
 0002:0000ad90       ??_C@_0BK@IMFDMOND@certificateRevocationList?$AA@ 00070d90     libeay32:obj_dat.obj
 0002:0000adac       ??_C@_0BI@EODAEBFG@authorityRevocationList?$AA@ 00070dac     libeay32:obj_dat.obj
 0002:0000adc4       ??_C@_0O@JJCNKCKK@cACertificate?$AA@ 00070dc4     libeay32:obj_dat.obj
 0002:0000add4       ??_C@_0BA@FEECIELF@userCertificate?$AA@ 00070dd4     libeay32:obj_dat.obj
 0002:0000ade4       ??_C@_0N@JHMNNHKM@userPassword?$AA@ 00070de4     libeay32:obj_dat.obj
 0002:0000adf4       ??_C@_07JJAENDGN@seeAlso?$AA@ 00070df4     libeay32:obj_dat.obj
 0002:0000adfc       ??_C@_0N@NAEJMDPF@roleOccupant?$AA@ 00070dfc     libeay32:obj_dat.obj
 0002:0000ae0c       ??_C@_05HEIBENID@owner?$AA@ 00070e0c     libeay32:obj_dat.obj
 0002:0000ae14       ??_C@_06HDFDANIG@member?$AA@ 00070e14     libeay32:obj_dat.obj
 0002:0000ae1c       ??_C@_0BM@NHJFOGBI@supportedApplicationContext?$AA@ 00070e1c     libeay32:obj_dat.obj
 0002:0000ae38       ??_C@_0BE@KHACCONJ@presentationAddress?$AA@ 00070e38     libeay32:obj_dat.obj
 0002:0000ae4c       ??_C@_0BI@MKMMOKIA@preferredDeliveryMethod?$AA@ 00070e4c     libeay32:obj_dat.obj
 0002:0000ae64       ??_C@_0BF@CMAFNEOO@destinationIndicator?$AA@ 00070e64     libeay32:obj_dat.obj
 0002:0000ae7c       ??_C@_0BC@DLLOJDNE@registeredAddress?$AA@ 00070e7c     libeay32:obj_dat.obj
 0002:0000ae90       ??_C@_0BI@OAHCBLEE@internationaliSDNNumber?$AA@ 00070e90     libeay32:obj_dat.obj
 0002:0000aea8       ??_C@_0M@MOCAHDLJ@x121Address?$AA@ 00070ea8     libeay32:obj_dat.obj
 0002:0000aeb4       ??_C@_0BJ@NDMMBDAB@facsimileTelephoneNumber?$AA@ 00070eb4     libeay32:obj_dat.obj
 0002:0000aed0       ??_C@_0BK@BBNEJJDC@teletexTerminalIdentifier?$AA@ 00070ed0     libeay32:obj_dat.obj
 0002:0000aeec       ??_C@_0M@MMDMBPMM@telexNumber?$AA@ 00070eec     libeay32:obj_dat.obj
 0002:0000aef8       ??_C@_0BA@NCAGJGBF@telephoneNumber?$AA@ 00070ef8     libeay32:obj_dat.obj
 0002:0000af08       ??_C@_0BL@DENBGONK@physicalDeliveryOfficeName?$AA@ 00070f08     libeay32:obj_dat.obj
 0002:0000af24       ??_C@_0O@PCCHCGPG@postOfficeBox?$AA@ 00070f24     libeay32:obj_dat.obj
 0002:0000af34       ??_C@_0O@KABBPKPG@postalAddress?$AA@ 00070f34     libeay32:obj_dat.obj
 0002:0000af44       ??_C@_0BB@GFJJGHBI@businessCategory?$AA@ 00070f44     libeay32:obj_dat.obj
 0002:0000af58       ??_C@_0M@MCCFGANF@searchGuide?$AA@ 00070f58     libeay32:obj_dat.obj
 0002:0000af64       ??_C@_0BF@DGGAJJCO@Permanent?5Identifier?$AA@ 00070f64     libeay32:obj_dat.obj
 0002:0000af7c       ??_C@_0BK@BMFCOPIC@id?9on?9permanentIdentifier?$AA@ 00070f7c     libeay32:obj_dat.obj
 0002:0000af98       ??_C@_0BE@KEJIKEFG@X509v3?5Freshest?5CRL?$AA@ 00070f98     libeay32:obj_dat.obj
 0002:0000afac       ??_C@_0M@PKNKMHEG@freshestCRL?$AA@ 00070fac     libeay32:obj_dat.obj
 0002:0000afb8       ??_C@_0BI@FMFOLFMC@Microsoft?5Local?5Key?5set?$AA@ 00070fb8     libeay32:obj_dat.obj
 0002:0000afd0       ??_C@_0M@LCODBGNO@LocalKeySet?$AA@ 00070fd0     libeay32:obj_dat.obj
 0002:0000afdc       ??_C@_04FOBGICMD@hmac?$AA@ 00070fdc     libeay32:obj_dat.obj
 0002:0000afe4       ??_C@_04JCCMGALL@HMAC?$AA@ 00070fe4     libeay32:obj_dat.obj
 0002:0000afec       ??_C@_0CJ@NCCJHEBD@GOST?5R?53410?92001?5Parameter?5Set?5C@ 00070fec     libeay32:obj_dat.obj
 0002:0000b018       ??_C@_0BO@LBPHKLOM@id?9GostR3410?92001?9ParamSet?9cc?$AA@ 00071018     libeay32:obj_dat.obj
 0002:0000b038       ??_C@_0DB@BGOOPLFE@GOST?5R?534?411?994?5with?5GOST?5R?534?41@ 00071038     libeay32:obj_dat.obj
 0002:0000b06c       ??_C@_0CH@JJNMILDM@id?9GostR3411?994?9with?9GostR3410?92@ 0007106c     libeay32:obj_dat.obj
 0002:0000b094       ??_C@_0CP@ILDIBBAJ@GOST?5R?534?411?994?5with?5GOST?5R?534?41@ 00071094     libeay32:obj_dat.obj
 0002:0000b0c4       ??_C@_0CF@FCIKJGLH@id?9GostR3411?994?9with?9GostR3410?99@ 000710c4     libeay32:obj_dat.obj
 0002:0000b0ec       ??_C@_0BK@IGCJADLM@GOST?534?410?92001?5Cryptocom?$AA@ 000710ec     libeay32:obj_dat.obj
 0002:0000b108       ??_C@_0L@PKDOCLKG@gost2001cc?$AA@ 00071108     libeay32:obj_dat.obj
 0002:0000b114       ??_C@_0BI@GJIILMEB@GOST?534?410?994?5Cryptocom?$AA@ 00071114     libeay32:obj_dat.obj
 0002:0000b12c       ??_C@_08LCDFMIFG@gost94cc?$AA@ 0007112c     libeay32:obj_dat.obj
 0002:0000b138       ??_C@_0CB@KNOPDNHN@GOST?528147?989?5Cryptocom?5ParamSet@ 00071138     libeay32:obj_dat.obj
 0002:0000b15c       ??_C@_0BD@MEAAKKFJ@id?9Gost28147?989?9cc?$AA@ 0007115c     libeay32:obj_dat.obj
 0002:0000b170       ??_C@_0BF@PGMBMCGF@id?9GostR3410?994?9bBis?$AA@ 00071170     libeay32:obj_dat.obj
 0002:0000b188       ??_C@_0BC@MKOAJFN@id?9GostR3410?994?9b?$AA@ 00071188     libeay32:obj_dat.obj
 0002:0000b19c       ??_C@_0BF@LBGBLILF@id?9GostR3410?994?9aBis?$AA@ 0007119c     libeay32:obj_dat.obj
 0002:0000b1b4       ??_C@_0BC@CHIDFKJO@id?9GostR3410?994?9a?$AA@ 000711b4     libeay32:obj_dat.obj
 0002:0000b1c8       ??_C@_0CK@GDLEHLKF@id?9GostR3410?92001?9CryptoPro?9XchB@ 000711c8     libeay32:obj_dat.obj
 0002:0000b1f4       ??_C@_0CK@PKFGBNKE@id?9GostR3410?92001?9CryptoPro?9XchA@ 000711f4     libeay32:obj_dat.obj
 0002:0000b220       ??_C@_0CH@DLGDIIGO@id?9GostR3410?92001?9CryptoPro?9C?9Pa@ 00071220     libeay32:obj_dat.obj
 0002:0000b248       ??_C@_0CH@PKONFHKO@id?9GostR3410?92001?9CryptoPro?9B?9Pa@ 00071248     libeay32:obj_dat.obj
 0002:0000b270       ??_C@_0CH@GDAPDBKP@id?9GostR3410?92001?9CryptoPro?9A?9Pa@ 00071270     libeay32:obj_dat.obj
 0002:0000b298       ??_C@_0BP@GEEJLPDI@id?9GostR3410?92001?9TestParamSet?$AA@ 00071298     libeay32:obj_dat.obj
 0002:0000b2b8       ??_C@_0CI@DAANNIN@id?9GostR3410?994?9CryptoPro?9XchC?9P@ 000712b8     libeay32:obj_dat.obj
 0002:0000b2e0       ??_C@_0CI@MCIOACEN@id?9GostR3410?994?9CryptoPro?9XchB?9P@ 000712e0     libeay32:obj_dat.obj
 0002:0000b308       ??_C@_0CI@FLGMGEEM@id?9GostR3410?994?9CryptoPro?9XchA?9P@ 00071308     libeay32:obj_dat.obj
 0002:0000b330       ??_C@_0CF@LMAJFDGB@id?9GostR3410?994?9CryptoPro?9D?9Para@ 00071330     libeay32:obj_dat.obj
 0002:0000b358       ??_C@_0CF@JFDCEGOC@id?9GostR3410?994?9CryptoPro?9C?9Para@ 00071358     libeay32:obj_dat.obj
 0002:0000b380       ??_C@_0CF@FELMJJCC@id?9GostR3410?994?9CryptoPro?9B?9Para@ 00071380     libeay32:obj_dat.obj
 0002:0000b3a8       ??_C@_0CF@MNFOPPCD@id?9GostR3410?994?9CryptoPro?9A?9Para@ 000713a8     libeay32:obj_dat.obj
 0002:0000b3d0       ??_C@_0BN@NAOAJFAF@id?9GostR3410?994?9TestParamSet?$AA@ 000713d0     libeay32:obj_dat.obj
 0002:0000b3f0       ??_C@_0CJ@IIADIAJH@id?9Gost28147?989?9CryptoPro?9RIC?91?9@ 000713f0     libeay32:obj_dat.obj
 0002:0000b41c       ??_C@_0CN@IIJDEMNM@id?9Gost28147?989?9CryptoPro?9Oscar?9@ 0007141c     libeay32:obj_dat.obj
 0002:0000b44c       ??_C@_0CN@EJBNJDBM@id?9Gost28147?989?9CryptoPro?9Oscar?9@ 0007144c     libeay32:obj_dat.obj
 0002:0000b47c       ??_C@_0CF@IEBLBMOP@id?9Gost28147?989?9CryptoPro?9D?9Para@ 0007147c     libeay32:obj_dat.obj
 0002:0000b4a4       ??_C@_0CF@KNCAAJGM@id?9Gost28147?989?9CryptoPro?9C?9Para@ 000714a4     libeay32:obj_dat.obj
 0002:0000b4cc       ??_C@_0CF@GMKONGKM@id?9Gost28147?989?9CryptoPro?9B?9Para@ 000714cc     libeay32:obj_dat.obj
 0002:0000b4f4       ??_C@_0CF@PFEMLAKN@id?9Gost28147?989?9CryptoPro?9A?9Para@ 000714f4     libeay32:obj_dat.obj
 0002:0000b51c       ??_C@_0BN@GKJFBLMI@id?9Gost28147?989?9TestParamSet?$AA@ 0007151c     libeay32:obj_dat.obj
 0002:0000b53c       ??_C@_0CC@DOHJLMBI@id?9GostR3411?994?9CryptoProParamSe@ 0007153c     libeay32:obj_dat.obj
 0002:0000b560       ??_C@_0BN@DPLCCDOE@id?9GostR3411?994?9TestParamSet?$AA@ 00071560     libeay32:obj_dat.obj
 0002:0000b580       ??_C@_0CA@BLJAEGEG@id?9Gost28147?989?9None?9KeyMeshing?$AA@ 00071580     libeay32:obj_dat.obj
 0002:0000b5a0       ??_C@_0CF@MMKONEIK@id?9Gost28147?989?9CryptoPro?9KeyMes@ 000715a0     libeay32:obj_dat.obj
 0002:0000b5c8       ??_C@_0BD@LGKAOLPL@GOST?5R?534?410?994?5DH?$AA@ 000715c8     libeay32:obj_dat.obj
 0002:0000b5dc       ??_C@_0BC@CEMDDFNK@id?9GostR3410?994DH?$AA@ 000715dc     libeay32:obj_dat.obj
 0002:0000b5f0       ??_C@_0BF@OKPANPLK@GOST?5R?534?410?92001?5DH?$AA@ 000715f0     libeay32:obj_dat.obj
 0002:0000b608       ??_C@_0BE@OBKEJCJB@id?9GostR3410?92001DH?$AA@ 00071608     libeay32:obj_dat.obj
 0002:0000b61c       ??_C@_0BE@FFELJBNB@GOST?5R?534?411?994?5PRF?$AA@ 0007161c     libeay32:obj_dat.obj
 0002:0000b630       ??_C@_0BB@LJIINAAP@prf?9gostr3411?994?$AA@ 00071630     libeay32:obj_dat.obj
 0002:0000b644       ??_C@_0BC@BPAGAEJB@GOST?528147?989?5MAC?$AA@ 00071644     libeay32:obj_dat.obj
 0002:0000b658       ??_C@_08JCNEGNFC@gost?9mac?$AA@ 00071658     libeay32:obj_dat.obj
 0002:0000b664       ??_C@_0L@INGOKGPP@gost89?9cnt?$AA@ 00071664     libeay32:obj_dat.obj
 0002:0000b670       ??_C@_0O@POKHNLDL@GOST?528147?989?$AA@ 00071670     libeay32:obj_dat.obj
 0002:0000b680       ??_C@_06KLPDHLCD@gost89?$AA@ 00071680     libeay32:obj_dat.obj
 0002:0000b688       ??_C@_0BA@JOCBNIHN@GOST?5R?534?410?994?$AA@ 00071688     libeay32:obj_dat.obj
 0002:0000b698       ??_C@_06BPJPGPFJ@gost94?$AA@ 00071698     libeay32:obj_dat.obj
 0002:0000b6a0       ??_C@_0BC@IBNIHBI@GOST?5R?534?410?92001?$AA@ 000716a0     libeay32:obj_dat.obj
 0002:0000b6b4       ??_C@_08KMPAMBCP@gost2001?$AA@ 000716b4     libeay32:obj_dat.obj
 0002:0000b6c0       ??_C@_0BD@BHKLGKNG@HMAC?5GOST?534?411?994?$AA@ 000716c0     libeay32:obj_dat.obj
 0002:0000b6d4       ??_C@_0BE@EBBOKDGI@id?9HMACGostR3411?994?$AA@ 000716d4     libeay32:obj_dat.obj
 0002:0000b6e8       ??_C@_0BA@KDEBPBMN@GOST?5R?534?411?994?$AA@ 000716e8     libeay32:obj_dat.obj
 0002:0000b6f8       ??_C@_09MIOJGGFD@md_gost94?$AA@ 000716f8     libeay32:obj_dat.obj
 0002:0000b704       ??_C@_0CF@PAGBHGOC@GOST?5R?534?411?994?5with?5GOST?5R?534?41@ 00071704     libeay32:obj_dat.obj
 0002:0000b72c       ??_C@_0CC@LCAPGDKC@id?9GostR3411?994?9with?9GostR3410?99@ 0007172c     libeay32:obj_dat.obj
 0002:0000b750       ??_C@_0CH@MPKKPBGC@GOST?5R?534?411?994?5with?5GOST?5R?534?41@ 00071750     libeay32:obj_dat.obj
 0002:0000b778       ??_C@_0CE@FCAOBIOC@id?9GostR3411?994?9with?9GostR3410?92@ 00071778     libeay32:obj_dat.obj
 0002:0000b79c       ??_C@_09JGBNPHGI@cryptocom?$AA@ 0007179c     libeay32:obj_dat.obj
 0002:0000b7a8       ??_C@_09PCHJFNLI@cryptopro?$AA@ 000717a8     libeay32:obj_dat.obj
 0002:0000b7b4       ??_C@_09DEGKDAEL@whirlpool?$AA@ 000717b4     libeay32:obj_dat.obj
 0002:0000b7c0       ??_C@_0BA@FMFCOCGA@dsa_with_SHA256?$AA@ 000717c0     libeay32:obj_dat.obj
 0002:0000b7d0       ??_C@_0BA@GLCLJGGH@dsa_with_SHA224?$AA@ 000717d0     libeay32:obj_dat.obj
 0002:0000b7e0       ??_C@_0P@FLKKCAHA@hmacWithSHA512?$AA@ 000717e0     libeay32:obj_dat.obj
 0002:0000b7f0       ??_C@_0P@CHEKODKF@hmacWithSHA384?$AA@ 000717f0     libeay32:obj_dat.obj
 0002:0000b800       ??_C@_0P@KFBIHFBB@hmacWithSHA256?$AA@ 00071800     libeay32:obj_dat.obj
 0002:0000b810       ??_C@_0P@JCGBABBG@hmacWithSHA224?$AA@ 00071810     libeay32:obj_dat.obj
 0002:0000b820       ??_C@_0M@KOBPMNIO@hmacWithMD5?$AA@ 00071820     libeay32:obj_dat.obj
 0002:0000b82c       ??_C@_0BC@DONDMJAG@ecdsa?9with?9SHA512?$AA@ 0007182c     libeay32:obj_dat.obj
 0002:0000b840       ??_C@_0BC@ECDDAKND@ecdsa?9with?9SHA384?$AA@ 00071840     libeay32:obj_dat.obj
 0002:0000b854       ??_C@_0BC@MAGBJMGH@ecdsa?9with?9SHA256?$AA@ 00071854     libeay32:obj_dat.obj
 0002:0000b868       ??_C@_0BC@PHBIOIGA@ecdsa?9with?9SHA224?$AA@ 00071868     libeay32:obj_dat.obj
 0002:0000b87c       ??_C@_0BF@INFCLNHO@ecdsa?9with?9Specified?$AA@ 0007187c     libeay32:obj_dat.obj
 0002:0000b894       ??_C@_0BH@GCJALNKM@ecdsa?9with?9Recommended?$AA@ 00071894     libeay32:obj_dat.obj
 0002:0000b8ac       ??_C@_0P@KDMMBOEP@id?9aes256?9wrap?$AA@ 000718ac     libeay32:obj_dat.obj
 0002:0000b8bc       ??_C@_0P@DJKBBDNG@id?9aes192?9wrap?$AA@ 000718bc     libeay32:obj_dat.obj
 0002:0000b8cc       ??_C@_0P@MALLFAMO@id?9aes128?9wrap?$AA@ 000718cc     libeay32:obj_dat.obj
 0002:0000b8dc       ??_C@_0BI@FNBGJEPL@id?9ct?9asciiTextWithCRLF?$AA@ 000718dc     libeay32:obj_dat.obj
 0002:0000b8f4       ??_C@_0BL@HEJKLKLL@id?9smime?9ct?9compressedData?$AA@ 000718f4     libeay32:obj_dat.obj
 0002:0000b910       ??_C@_0O@LBCGFGCI@CA?5Repository?$AA@ 00071910     libeay32:obj_dat.obj
 0002:0000b920       ??_C@_0N@CKNFLOGG@caRepository?$AA@ 00071920     libeay32:obj_dat.obj
 0002:0000b930       ??_C@_0BD@MGCOMIO@id?9it?9suppLangTags?$AA@ 00071930     libeay32:obj_dat.obj
 0002:0000b944       ??_C@_0BJ@CDGIGDFG@Diffie?9Hellman?5based?5MAC?$AA@ 00071944     libeay32:obj_dat.obj
 0002:0000b960       ??_C@_0O@MEHCKGFD@id?9DHBasedMac?$AA@ 00071960     libeay32:obj_dat.obj
 0002:0000b970       ??_C@_0BD@FANJCJAP@password?5based?5MAC?$AA@ 00071970     libeay32:obj_dat.obj
 0002:0000b984       ??_C@_0BE@HCNFOMHA@id?9PasswordBasedMAC?$AA@ 00071984     libeay32:obj_dat.obj
 0002:0000b998       ??_C@_09KBOMLGBN@hmac?9sha1?$AA@ 00071998     libeay32:obj_dat.obj
 0002:0000b9a4       ??_C@_09DDFKKHO@HMAC?9SHA1?$AA@ 000719a4     libeay32:obj_dat.obj
 0002:0000b9b0       ??_C@_08LPACCAD@hmac?9md5?$AA@ 000719b0     libeay32:obj_dat.obj
 0002:0000b9bc       ??_C@_08CABJBHIC@HMAC?9MD5?$AA@ 000719bc     libeay32:obj_dat.obj
 0002:0000b9c8       ??_C@_08JGLJJHP@seed?9cfb?$AA@ 000719c8     libeay32:obj_dat.obj
 0002:0000b9d4       ??_C@_08LHAGIIFM@SEED?9CFB?$AA@ 000719d4     libeay32:obj_dat.obj
 0002:0000b9e0       ??_C@_08EDLNCGMH@seed?9ofb?$AA@ 000719e0     libeay32:obj_dat.obj
 0002:0000b9ec       ??_C@_08PNNADHOE@SEED?9OFB?$AA@ 000719ec     libeay32:obj_dat.obj
 0002:0000b9f8       ??_C@_08BHHJAAOC@seed?9cbc?$AA@ 000719f8     libeay32:obj_dat.obj
 0002:0000ba04       ??_C@_08KJBEBBMB@SEED?9CBC?$AA@ 00071a04     libeay32:obj_dat.obj
 0002:0000ba10       ??_C@_08CKMLAEEI@seed?9ecb?$AA@ 00071a10     libeay32:obj_dat.obj
 0002:0000ba1c       ??_C@_08JEKGBFGL@SEED?9ECB?$AA@ 00071a1c     libeay32:obj_dat.obj
 0002:0000ba28       ??_C@_04LLEAHKNI@kisa?$AA@ 00071a28     libeay32:obj_dat.obj
 0002:0000ba30       ??_C@_04HHHKJIKA@KISA?$AA@ 00071a30     libeay32:obj_dat.obj
 0002:0000ba38       ??_C@_0BK@EMNEMCDI@X509v3?5Certificate?5Issuer?$AA@ 00071a38     libeay32:obj_dat.obj
 0002:0000ba54       ??_C@_0BC@NAJGKAHO@certificateIssuer?$AA@ 00071a54     libeay32:obj_dat.obj
 0002:0000ba68       ??_C@_0CC@MMIACGNM@X509v3?5Issuing?5Distrubution?5Poin@ 00071a68     libeay32:obj_dat.obj
 0002:0000ba8c       ??_C@_0BJ@OAOPOBMH@issuingDistributionPoint?$AA@ 00071a8c     libeay32:obj_dat.obj
 0002:0000baa8       ??_C@_0CE@OGGDDHCK@X509v3?5Subject?5Directory?5Attribu@ 00071aa8     libeay32:obj_dat.obj
 0002:0000bacc       ??_C@_0BL@GAJEKNCJ@subjectDirectoryAttributes?$AA@ 00071acc     libeay32:obj_dat.obj
 0002:0000bae8       ??_C@_0BB@EGAOKAEM@camellia?9256?9ofb?$AA@ 00071ae8     libeay32:obj_dat.obj
 0002:0000bafc       ??_C@_0BB@FFEGHOPL@CAMELLIA?9256?9OFB?$AA@ 00071afc     libeay32:obj_dat.obj
 0002:0000bb10       ??_C@_0BB@JELAIPMN@camellia?9192?9ofb?$AA@ 00071b10     libeay32:obj_dat.obj
 0002:0000bb24       ??_C@_0BB@IHPIFBHK@CAMELLIA?9192?9OFB?$AA@ 00071b24     libeay32:obj_dat.obj
 0002:0000bb38       ??_C@_0BB@DHCMPIFB@camellia?9128?9ofb?$AA@ 00071b38     libeay32:obj_dat.obj
 0002:0000bb4c       ??_C@_0BB@CEGECGOG@CAMELLIA?9128?9OFB?$AA@ 00071b4c     libeay32:obj_dat.obj
 0002:0000bb60       ??_C@_0BC@KNEDFCOB@camellia?9256?9cfb8?$AA@ 00071b60     libeay32:obj_dat.obj
 0002:0000bb74       ??_C@_0BC@PIFFDMBA@CAMELLIA?9256?9CFB8?$AA@ 00071b74     libeay32:obj_dat.obj
 0002:0000bb88       ??_C@_0BC@DHCOFPHI@camellia?9192?9cfb8?$AA@ 00071b88     libeay32:obj_dat.obj
 0002:0000bb9c       ??_C@_0BC@GCDIDBIJ@CAMELLIA?9192?9CFB8?$AA@ 00071b9c     libeay32:obj_dat.obj
 0002:0000bbb0       ??_C@_0BC@MODEBMGA@camellia?9128?9cfb8?$AA@ 00071bb0     libeay32:obj_dat.obj
 0002:0000bbc4       ??_C@_0BC@JLCCHCJB@CAMELLIA?9128?9CFB8?$AA@ 00071bc4     libeay32:obj_dat.obj
 0002:0000bbd8       ??_C@_0BC@HMIBOJKI@camellia?9256?9cfb1?$AA@ 00071bd8     libeay32:obj_dat.obj
 0002:0000bbec       ??_C@_0BC@CJJHIHFJ@CAMELLIA?9256?9CFB1?$AA@ 00071bec     libeay32:obj_dat.obj
 0002:0000bc00       ??_C@_0BC@OGOMOEDB@camellia?9192?9cfb1?$AA@ 00071c00     libeay32:obj_dat.obj
 0002:0000bc14       ??_C@_0BC@LDPKIKMA@CAMELLIA?9192?9CFB1?$AA@ 00071c14     libeay32:obj_dat.obj
 0002:0000bc28       ??_C@_0BC@BPPGKHCJ@camellia?9128?9cfb1?$AA@ 00071c28     libeay32:obj_dat.obj
 0002:0000bc3c       ??_C@_0BC@EKOAMJNI@CAMELLIA?9128?9CFB1?$AA@ 00071c3c     libeay32:obj_dat.obj
 0002:0000bc50       ??_C@_0BB@MNIBPPE@camellia?9256?9cfb?$AA@ 00071c50     libeay32:obj_dat.obj
 0002:0000bc64       ??_C@_0BB@BPJAMBED@CAMELLIA?9256?9CFB?$AA@ 00071c64     libeay32:obj_dat.obj
 0002:0000bc78       ??_C@_0BB@NOGGDAHF@camellia?9192?9cfb?$AA@ 00071c78     libeay32:obj_dat.obj
 0002:0000bc8c       ??_C@_0BB@MNCOOOMC@CAMELLIA?9192?9CFB?$AA@ 00071c8c     libeay32:obj_dat.obj
 0002:0000bca0       ??_C@_0BB@HNPKEHOJ@camellia?9128?9cfb?$AA@ 00071ca0     libeay32:obj_dat.obj
 0002:0000bcb4       ??_C@_0BB@GOLCJJFO@CAMELLIA?9128?9CFB?$AA@ 00071cb4     libeay32:obj_dat.obj
 0002:0000bcc8       ??_C@_0BB@CPHIICMD@camellia?9256?9ecb?$AA@ 00071cc8     libeay32:obj_dat.obj
 0002:0000bcdc       ??_C@_0BB@DMDAFMHE@CAMELLIA?9256?9ECB?$AA@ 00071cdc     libeay32:obj_dat.obj
 0002:0000bcf0       ??_C@_0BB@PNMGKNEC@camellia?9192?9ecb?$AA@ 00071cf0     libeay32:obj_dat.obj
 0002:0000bd04       ??_C@_0BB@OOIOHDPF@CAMELLIA?9192?9ECB?$AA@ 00071d04     libeay32:obj_dat.obj
 0002:0000bd18       ??_C@_0BB@FOFKNKNO@camellia?9128?9ecb?$AA@ 00071d18     libeay32:obj_dat.obj
 0002:0000bd2c       ??_C@_0BB@ENBCAEGJ@CAMELLIA?9128?9ECB?$AA@ 00071d2c     libeay32:obj_dat.obj
 0002:0000bd40       ??_C@_0BB@BCMKIGGJ@camellia?9256?9cbc?$AA@ 00071d40     libeay32:obj_dat.obj
 0002:0000bd54       ??_C@_0BB@BICFINO@CAMELLIA?9256?9CBC?$AA@ 00071d54     libeay32:obj_dat.obj
 0002:0000bd68       ??_C@_0BB@MAHEKJOI@camellia?9192?9cbc?$AA@ 00071d68     libeay32:obj_dat.obj
 0002:0000bd7c       ??_C@_0BB@NDDMHHFP@CAMELLIA?9192?9CBC?$AA@ 00071d7c     libeay32:obj_dat.obj
 0002:0000bd90       ??_C@_0BB@GDOINOHE@camellia?9128?9cbc?$AA@ 00071d90     libeay32:obj_dat.obj
 0002:0000bda4       ??_C@_0BB@HAKAAAMD@CAMELLIA?9128?9CBC?$AA@ 00071da4     libeay32:obj_dat.obj
 0002:0000bdb8       ??_C@_06DEKODPNG@ipsec4?$AA@ 00071db8     libeay32:obj_dat.obj
 0002:0000bdc0       ??_C@_0O@FENFAHJA@Oakley?9EC2N?94?$AA@ 00071dc0     libeay32:obj_dat.obj
 0002:0000bdd0       ??_C@_06HLOPKJBB@ipsec3?$AA@ 00071dd0     libeay32:obj_dat.obj
 0002:0000bdd8       ??_C@_0O@BLJEJBFH@Oakley?9EC2N?93?$AA@ 00071dd8     libeay32:obj_dat.obj
 0002:0000bde8       ??_C@_0BK@FPAAFIAO@X509v3?5Inhibit?5Any?5Policy?$AA@ 00071de8     libeay32:obj_dat.obj
 0002:0000be04       ??_C@_0BB@CFCCDKGF@inhibitAnyPolicy?$AA@ 00071e04     libeay32:obj_dat.obj
 0002:0000be18       ??_C@_0BH@NJBPACCN@X509v3?5Policy?5Mappings?$AA@ 00071e18     libeay32:obj_dat.obj
 0002:0000be30       ??_C@_0P@MEGGINDP@policyMappings?$AA@ 00071e30     libeay32:obj_dat.obj
 0002:0000be40       ??_C@_0BC@CEEMIAHF@X509v3?5Any?5Policy?$AA@ 00071e40     libeay32:obj_dat.obj
 0002:0000be54       ??_C@_09HBBJOJHB@anyPolicy?$AA@ 00071e54     libeay32:obj_dat.obj
 0002:0000be60       ??_C@_0BI@MNOLKEAO@wap?9wsg?9idm?9ecid?9wtls12?$AA@ 00071e60     libeay32:obj_dat.obj
 0002:0000be78       ??_C@_0BI@OGMGPHMN@wap?9wsg?9idm?9ecid?9wtls11?$AA@ 00071e78     libeay32:obj_dat.obj
 0002:0000be90       ??_C@_0BI@PPNNMGIM@wap?9wsg?9idm?9ecid?9wtls10?$AA@ 00071e90     libeay32:obj_dat.obj
 0002:0000bea8       ??_C@_0BH@DMKMEGHN@wap?9wsg?9idm?9ecid?9wtls9?$AA@ 00071ea8     libeay32:obj_dat.obj
 0002:0000bec0       ??_C@_0BH@CFLHHHDM@wap?9wsg?9idm?9ecid?9wtls8?$AA@ 00071ec0     libeay32:obj_dat.obj
 0002:0000bed8       ??_C@_0BH@KCCPGLPD@wap?9wsg?9idm?9ecid?9wtls7?$AA@ 00071ed8     libeay32:obj_dat.obj
 0002:0000bef0       ??_C@_0BH@LLDEFKLC@wap?9wsg?9idm?9ecid?9wtls6?$AA@ 00071ef0     libeay32:obj_dat.obj
 0002:0000bf08       ??_C@_0BH@JABJAJHB@wap?9wsg?9idm?9ecid?9wtls5?$AA@ 00071f08     libeay32:obj_dat.obj
 0002:0000bf20       ??_C@_0BH@IJACDIDA@wap?9wsg?9idm?9ecid?9wtls4?$AA@ 00071f20     libeay32:obj_dat.obj
 0002:0000bf38       ??_C@_0BH@MGEDKOPH@wap?9wsg?9idm?9ecid?9wtls3?$AA@ 00071f38     libeay32:obj_dat.obj
 0002:0000bf50       ??_C@_0BH@PEHFMMHF@wap?9wsg?9idm?9ecid?9wtls1?$AA@ 00071f50     libeay32:obj_dat.obj
 0002:0000bf68       ??_C@_09MPLFOIFJ@sect571r1?$AA@ 00071f68     libeay32:obj_dat.obj
 0002:0000bf74       ??_C@_09NMECHAKG@sect571k1?$AA@ 00071f74     libeay32:obj_dat.obj
 0002:0000bf80       ??_C@_09HDHNMPAD@sect409r1?$AA@ 00071f80     libeay32:obj_dat.obj
 0002:0000bf8c       ??_C@_09GAIKFHPM@sect409k1?$AA@ 00071f8c     libeay32:obj_dat.obj
 0002:0000bf98       ??_C@_09PKOJIHLL@sect283r1?$AA@ 00071f98     libeay32:obj_dat.obj
 0002:0000bfa4       ??_C@_09OJBOBPEE@sect283k1?$AA@ 00071fa4     libeay32:obj_dat.obj
 0002:0000bfb0       ??_C@_09PBHDMODB@sect239k1?$AA@ 00071fb0     libeay32:obj_dat.obj
 0002:0000bfbc       ??_C@_09INDJLGKK@sect233r1?$AA@ 00071fbc     libeay32:obj_dat.obj
 0002:0000bfc8       ??_C@_09JOMOCOFF@sect233k1?$AA@ 00071fc8     libeay32:obj_dat.obj
 0002:0000bfd4       ??_C@_09GKDAIPGG@sect193r2?$AA@ 00071fd4     libeay32:obj_dat.obj
 0002:0000bfe0       ??_C@_09EBBNNMKF@sect193r1?$AA@ 00071fe0     libeay32:obj_dat.obj
 0002:0000bfec       ??_C@_09OIGABILH@sect163r2?$AA@ 00071fec     libeay32:obj_dat.obj
 0002:0000bff8       ??_C@_09MDENELHE@sect163r1?$AA@ 00071ff8     libeay32:obj_dat.obj
 0002:0000c004       ??_C@_09NALKNDIL@sect163k1?$AA@ 00072004     libeay32:obj_dat.obj
 0002:0000c010       ??_C@_09IKIJFPEM@sect131r2?$AA@ 00072010     libeay32:obj_dat.obj
 0002:0000c01c       ??_C@_09KBKEAMIP@sect131r1?$AA@ 0007201c     libeay32:obj_dat.obj
 0002:0000c028       ??_C@_09FKEAMEKH@sect113r2?$AA@ 00072028     libeay32:obj_dat.obj
 0002:0000c034       ??_C@_09HBGNJHGE@sect113r1?$AA@ 00072034     libeay32:obj_dat.obj
 0002:0000c040       ??_C@_09PDBKEDDK@secp521r1?$AA@ 00072040     libeay32:obj_dat.obj
 0002:0000c04c       ??_C@_09FICNEILE@secp384r1?$AA@ 0007204c     libeay32:obj_dat.obj
 0002:0000c058       ??_C@_09NCBPAPNE@secp256k1?$AA@ 00072058     libeay32:obj_dat.obj
 0002:0000c064       ??_C@_09NJMBIDLA@secp224r1?$AA@ 00072064     libeay32:obj_dat.obj
 0002:0000c070       ??_C@_09MKDGBLEP@secp224k1?$AA@ 00072070     libeay32:obj_dat.obj
 0002:0000c07c       ??_C@_09BOBJAHCM@secp192k1?$AA@ 0007207c     libeay32:obj_dat.obj
 0002:0000c088       ??_C@_09OJKJDEK@secp160r2?$AA@ 00072088     libeay32:obj_dat.obj
 0002:0000c094       ??_C@_09CFLHMAIJ@secp160r1?$AA@ 00072094     libeay32:obj_dat.obj
 0002:0000c0a0       ??_C@_09DGEAFIHG@secp160k1?$AA@ 000720a0     libeay32:obj_dat.obj
 0002:0000c0ac       ??_C@_09DOKOBNGF@secp128r2?$AA@ 000720ac     libeay32:obj_dat.obj
 0002:0000c0b8       ??_C@_09BFIDEOKG@secp128r1?$AA@ 000720b8     libeay32:obj_dat.obj
 0002:0000c0c4       ??_C@_09BGLDIHNB@secp112r2?$AA@ 000720c4     libeay32:obj_dat.obj
 0002:0000c0d0       ??_C@_09DNJONEBC@secp112r1?$AA@ 000720d0     libeay32:obj_dat.obj
 0002:0000c0dc       ??_C@_0L@OFJKDCBG@c2tnb431r1?$AA@ 000720dc     libeay32:obj_dat.obj
 0002:0000c0e8       ??_C@_0L@BGFAFBLD@c2pnb368w1?$AA@ 000720e8     libeay32:obj_dat.obj
 0002:0000c0f4       ??_C@_0L@LFGCHHDN@c2tnb359v1?$AA@ 000720f4     libeay32:obj_dat.obj
 0002:0000c100       ??_C@_0L@NDMGBLKL@c2pnb304w1?$AA@ 00072100     libeay32:obj_dat.obj
 0002:0000c10c       ??_C@_0L@IPNBELMC@c2pnb272w1?$AA@ 0007210c     libeay32:obj_dat.obj
 0002:0000c118       ??_C@_0L@LLIHEIJA@c2onb239v5?$AA@ 00072118     libeay32:obj_dat.obj
 0002:0000c124       ??_C@_0L@KCJMHJNB@c2onb239v4?$AA@ 00072124     libeay32:obj_dat.obj
 0002:0000c130       ??_C@_0L@MDEIDDLK@c2tnb239v3?$AA@ 00072130     libeay32:obj_dat.obj
 0002:0000c13c       ??_C@_0L@NKFDACPL@c2tnb239v2?$AA@ 0007213c     libeay32:obj_dat.obj
 0002:0000c148       ??_C@_0L@PBHOFBDI@c2tnb239v1?$AA@ 00072148     libeay32:obj_dat.obj
 0002:0000c154       ??_C@_0L@FCEMHHLG@c2pnb208w1?$AA@ 00072154     libeay32:obj_dat.obj
 0002:0000c160       ??_C@_0L@LCBHAKHA@c2onb191v5?$AA@ 00072160     libeay32:obj_dat.obj
 0002:0000c16c       ??_C@_0L@KLAMDLDB@c2onb191v4?$AA@ 0007216c     libeay32:obj_dat.obj
 0002:0000c178       ??_C@_0L@MKNIHBFK@c2tnb191v3?$AA@ 00072178     libeay32:obj_dat.obj
 0002:0000c184       ??_C@_0L@NDMDEABL@c2tnb191v2?$AA@ 00072184     libeay32:obj_dat.obj
 0002:0000c190       ??_C@_0L@PIOOBDNI@c2tnb191v1?$AA@ 00072190     libeay32:obj_dat.obj
 0002:0000c19c       ??_C@_0L@IHOFMEAM@c2pnb176v1?$AA@ 0007219c     libeay32:obj_dat.obj
 0002:0000c1a8       ??_C@_0L@LPGNHPAM@c2pnb163v3?$AA@ 000721a8     libeay32:obj_dat.obj
 0002:0000c1b4       ??_C@_0L@KGHGEOEN@c2pnb163v2?$AA@ 000721b4     libeay32:obj_dat.obj
 0002:0000c1c0       ??_C@_0L@INFLBNIO@c2pnb163v1?$AA@ 000721c0     libeay32:obj_dat.obj
 0002:0000c1cc       ??_C@_07GLJEBFP@ppBasis?$AA@ 000721cc     libeay32:obj_dat.obj
 0002:0000c1d4       ??_C@_07ICPDEPKF@tpBasis?$AA@ 000721d4     libeay32:obj_dat.obj
 0002:0000c1dc       ??_C@_07JEMDIFEL@onBasis?$AA@ 000721dc     libeay32:obj_dat.obj
 0002:0000c1e4       ??_C@_0BM@PPOCDOAJ@id?9characteristic?9two?9basis?$AA@ 000721e4     libeay32:obj_dat.obj
 0002:0000c200       ??_C@_07KJBJKKHG@wap?9wsg?$AA@ 00072200     libeay32:obj_dat.obj
 0002:0000c208       ??_C@_03EOHJGACH@wap?$AA@  00072208     libeay32:obj_dat.obj
 0002:0000c20c       ??_C@_0N@GOPBJFID@certicom?9arc?$AA@ 0007220c     libeay32:obj_dat.obj
 0002:0000c21c       ??_C@_0BI@NDBFOMIA@identified?9organization?$AA@ 0007221c     libeay32:obj_dat.obj
 0002:0000c234       ??_C@_06DJABMLNO@sha224?$AA@ 00072234     libeay32:obj_dat.obj
 0002:0000c23c       ??_C@_06DANBNIHA@SHA224?$AA@ 0007223c     libeay32:obj_dat.obj
 0002:0000c244       ??_C@_06PAMKOKLI@sha512?$AA@ 00072244     libeay32:obj_dat.obj
 0002:0000c24c       ??_C@_06PJBKPJBG@SHA512?$AA@ 0007224c     libeay32:obj_dat.obj
 0002:0000c254       ??_C@_06IMCKCJGN@sha384?$AA@ 00072254     libeay32:obj_dat.obj
 0002:0000c25c       ??_C@_06IFPKDKMD@SHA384?$AA@ 0007225c     libeay32:obj_dat.obj
 0002:0000c264       ??_C@_06OHILPNJ@sha256?$AA@ 00072264     libeay32:obj_dat.obj
 0002:0000c26c       ??_C@_06HKIKMHH@SHA256?$AA@ 0007226c     libeay32:obj_dat.obj
 0002:0000c274       ??_C@_0BI@HODNLFBE@sha224WithRSAEncryption?$AA@ 00072274     libeay32:obj_dat.obj
 0002:0000c28c       ??_C@_0L@BPFBIPIP@RSA?9SHA224?$AA@ 0007228c     libeay32:obj_dat.obj
 0002:0000c298       ??_C@_0BI@CFKPHFJF@sha512WithRSAEncryption?$AA@ 00072298     libeay32:obj_dat.obj
 0002:0000c2b0       ??_C@_0L@NGJKKOOJ@RSA?9SHA512?$AA@ 000722b0     libeay32:obj_dat.obj
 0002:0000c2bc       ??_C@_0BI@LGPCJGLE@sha384WithRSAEncryption?$AA@ 000722bc     libeay32:obj_dat.obj
 0002:0000c2d4       ??_C@_0L@KKHKGNDM@RSA?9SHA384?$AA@ 000722d4     libeay32:obj_dat.obj
 0002:0000c2e0       ??_C@_0BI@OLMNBFHG@sha256WithRSAEncryption?$AA@ 000722e0     libeay32:obj_dat.obj
 0002:0000c2f8       ??_C@_0L@CICIPLII@RSA?9SHA256?$AA@ 000722f8     libeay32:obj_dat.obj
 0002:0000c304       ??_C@_0M@MLMKHJLC@Independent?$AA@ 00072304     libeay32:obj_dat.obj
 0002:0000c310       ??_C@_0BD@JMNHHICP@id?9ppl?9independent?$AA@ 00072310     libeay32:obj_dat.obj
 0002:0000c324       ??_C@_0BI@MLJLAGL@X509v3?5Name?5Constraints?$AA@ 00072324     libeay32:obj_dat.obj
 0002:0000c33c       ??_C@_0BA@NDBMPGLN@nameConstraints?$AA@ 0007233c     libeay32:obj_dat.obj
 0002:0000c34c       ??_C@_0M@FFLAPACB@Inherit?5all?$AA@ 0007234c     libeay32:obj_dat.obj
 0002:0000c358       ??_C@_0BC@PCEJIIF@id?9ppl?9inheritAll?$AA@ 00072358     libeay32:obj_dat.obj
 0002:0000c36c       ??_C@_0N@BEBFEGLC@Any?5language?$AA@ 0007236c     libeay32:obj_dat.obj
 0002:0000c37c       ??_C@_0BD@HNCKDFAM@id?9ppl?9anyLanguage?$AA@ 0007237c     libeay32:obj_dat.obj
 0002:0000c390       ??_C@_0BO@CCHFGBDO@Proxy?5Certificate?5Information?$AA@ 00072390     libeay32:obj_dat.obj
 0002:0000c3b0       ??_C@_0O@LOINHHBF@proxyCertInfo?$AA@ 000723b0     libeay32:obj_dat.obj
 0002:0000c3c0       ??_C@_06CAAPGDCJ@id?9ppl?$AA@ 000723c0     libeay32:obj_dat.obj
 0002:0000c3c8       ??_C@_0L@NCDHJCMF@postalCode?$AA@ 000723c8     libeay32:obj_dat.obj
 0002:0000c3d4       ??_C@_0O@GFJANBCD@streetAddress?$AA@ 000723d4     libeay32:obj_dat.obj
 0002:0000c3e4       ??_C@_06KFAFKEEH@street?$AA@ 000723e4     libeay32:obj_dat.obj
 0002:0000c3ec       ??_C@_0O@KGNFGAAA@des?9ede3?9cfb8?$AA@ 000723ec     libeay32:obj_dat.obj
 0002:0000c3fc       ??_C@_0O@KNJKKNCK@DES?9EDE3?9CFB8?$AA@ 000723fc     libeay32:obj_dat.obj
 0002:0000c40c       ??_C@_0O@HHBHNLEJ@des?9ede3?9cfb1?$AA@ 0007240c     libeay32:obj_dat.obj
 0002:0000c41c       ??_C@_0O@HMFIBGGD@DES?9EDE3?9CFB1?$AA@ 0007241c     libeay32:obj_dat.obj
 0002:0000c42c       ??_C@_08HKNDEPIP@des?9cfb8?$AA@ 0007242c     libeay32:obj_dat.obj
 0002:0000c438       ??_C@_08JHFHFADM@DES?9CFB8?$AA@ 00072438     libeay32:obj_dat.obj
 0002:0000c444       ??_C@_08KLBBPEMG@des?9cfb1?$AA@ 00072444     libeay32:obj_dat.obj
 0002:0000c450       ??_C@_08EGJFOLHF@DES?9CFB1?$AA@ 00072450     libeay32:obj_dat.obj
 0002:0000c45c       ??_C@_0N@GPAECIBG@aes?9256?9cfb8?$AA@ 0007245c     libeay32:obj_dat.obj
 0002:0000c46c       ??_C@_0N@BLGJPBBG@AES?9256?9CFB8?$AA@ 0007246c     libeay32:obj_dat.obj
 0002:0000c47c       ??_C@_0N@PFGJCFIP@aes?9192?9cfb8?$AA@ 0007247c     libeay32:obj_dat.obj
 0002:0000c48c       ??_C@_0N@IBAEPMIP@AES?9192?9CFB8?$AA@ 0007248c     libeay32:obj_dat.obj
 0002:0000c49c       ??_C@_0N@MHDGGJH@aes?9128?9cfb8?$AA@ 0007249c     libeay32:obj_dat.obj
 0002:0000c4ac       ??_C@_0N@HIBOLPJH@AES?9128?9CFB8?$AA@ 000724ac     libeay32:obj_dat.obj
 0002:0000c4bc       ??_C@_0N@LOMGJDFP@aes?9256?9cfb1?$AA@ 000724bc     libeay32:obj_dat.obj
 0002:0000c4cc       ??_C@_0N@MKKLEKFP@AES?9256?9CFB1?$AA@ 000724cc     libeay32:obj_dat.obj
 0002:0000c4dc       ??_C@_0N@CEKLJOMG@aes?9192?9cfb1?$AA@ 000724dc     libeay32:obj_dat.obj
 0002:0000c4ec       ??_C@_0N@FAMGEHMG@AES?9192?9CFB1?$AA@ 000724ec     libeay32:obj_dat.obj
 0002:0000c4fc       ??_C@_0N@NNLBNNNO@aes?9128?9cfb1?$AA@ 000724fc     libeay32:obj_dat.obj
 0002:0000c50c       ??_C@_0N@KJNMAENO@AES?9128?9CFB1?$AA@ 0007250c     libeay32:obj_dat.obj
 0002:0000c51c       ??_C@_0CD@POJHJMFG@Microsoft?5Universal?5Principal?5Na@ 0007251c     libeay32:obj_dat.obj
 0002:0000c540       ??_C@_05LKLAGLGM@msUPN?$AA@ 00072540     libeay32:obj_dat.obj
 0002:0000c548       ??_C@_0BJ@BHLLFCI@Microsoft?5Smartcardlogin?$AA@ 00072548     libeay32:obj_dat.obj
 0002:0000c564       ??_C@_0BB@MJPMDGHF@msSmartcardLogin?$AA@ 00072564     libeay32:obj_dat.obj
 0002:0000c578       ??_C@_0BM@PGMBEIHL@International?5Organizations?$AA@ 00072578     libeay32:obj_dat.obj
 0002:0000c594       ??_C@_0BM@PBBEOBAP@international?9organizations?$AA@ 00072594     libeay32:obj_dat.obj
 0002:0000c5b0       ??_C@_0BA@DDCJMADA@joint?9iso?9itu?9t?$AA@ 000725b0     libeay32:obj_dat.obj
 0002:0000c5c0       ??_C@_0BA@NPJCPIN@JOINT?9ISO?9ITU?9T?$AA@ 000725c0     libeay32:obj_dat.obj
 0002:0000c5d0       ??_C@_05EKLDHPCO@itu?9t?$AA@ 000725d0     libeay32:obj_dat.obj
 0002:0000c5d8       ??_C@_05LJGINOIA@ITU?9T?$AA@ 000725d8     libeay32:obj_dat.obj
 0002:0000c5e0       ??_C@_0BF@EIIDBKMM@rsaOAEPEncryptionSET?$AA@ 000725e0     libeay32:obj_dat.obj
 0002:0000c5f8       ??_C@_08PPLOLAOD@des?9cdmf?$AA@ 000725f8     libeay32:obj_dat.obj
 0002:0000c604       ??_C@_08IHLOILPC@DES?9CDMF?$AA@ 00072604     libeay32:obj_dat.obj
 0002:0000c610       ??_C@_0BA@JHOGHBHC@set?9brand?9Novus?$AA@ 00072610     libeay32:obj_dat.obj
 0002:0000c620       ??_C@_0BF@EKCBHCKG@set?9brand?9MasterCard?$AA@ 00072620     libeay32:obj_dat.obj
 0002:0000c638       ??_C@_0P@KADKEMKM@set?9brand?9Visa?$AA@ 00072638     libeay32:obj_dat.obj
 0002:0000c648       ??_C@_0O@ODFDKJIN@set?9brand?9JCB?$AA@ 00072648     libeay32:obj_dat.obj
 0002:0000c658       ??_C@_0BK@NGHCPIFJ@set?9brand?9AmericanExpress?$AA@ 00072658     libeay32:obj_dat.obj
 0002:0000c674       ??_C@_0BB@MJOMIBOM@set?9brand?9Diners?$AA@ 00072674     libeay32:obj_dat.obj
 0002:0000c688       ??_C@_0BD@EBDAHFCK@set?9brand?9IATA?9ATA?$AA@ 00072688     libeay32:obj_dat.obj
 0002:0000c69c       ??_C@_0BI@BMDLNIII@secure?5device?5signature?$AA@ 0007269c     libeay32:obj_dat.obj
 0002:0000c6b4       ??_C@_0BC@HILPEDHB@setAttr?9SecDevSig?$AA@ 000726b4     libeay32:obj_dat.obj
 0002:0000c6c8       ??_C@_0BH@FLMFBHA@ICC?5or?5token?5signature?$AA@ 000726c8     libeay32:obj_dat.obj
 0002:0000c6e0       ??_C@_0BC@KFHJNGAA@setAttr?9TokICCsig?$AA@ 000726e0     libeay32:obj_dat.obj
 0002:0000c6f4       ??_C@_0BC@EEELFHMJ@cleartext?5track?52?$AA@ 000726f4     libeay32:obj_dat.obj
 0002:0000c708       ??_C@_0BD@GDDCOMNC@setAttr?9T2cleartxt?$AA@ 00072708     libeay32:obj_dat.obj
 0002:0000c71c       ??_C@_0BC@MCHFBPJF@encrypted?5track?52?$AA@ 0007271c     libeay32:obj_dat.obj
 0002:0000c730       ??_C@_0O@GFEDKLID@setAttr?9T2Enc?$AA@ 00072730     libeay32:obj_dat.obj
 0002:0000c740       ??_C@_0BE@BANBLNDJ@generate?5cryptogram?$AA@ 00072740     libeay32:obj_dat.obj
 0002:0000c754       ??_C@_0BE@FJCINFHM@setAttr?9GenCryptgrm?$AA@ 00072754     libeay32:obj_dat.obj
 0002:0000c768       ??_C@_0BD@DMNGIJGO@setAttr?9IssCap?9Sig?$AA@ 00072768     libeay32:obj_dat.obj
 0002:0000c77c       ??_C@_0BC@FKLLNJMF@setAttr?9IssCap?9T2?$AA@ 0007277c     libeay32:obj_dat.obj
 0002:0000c790       ??_C@_0BD@CMJDLAHE@setAttr?9IssCap?9CVM?$AA@ 00072790     libeay32:obj_dat.obj
 0002:0000c7a4       ??_C@_0BG@ICNBHDJ@setAttr?9Token?9B0Prime?$AA@ 000727a4     libeay32:obj_dat.obj
 0002:0000c7bc       ??_C@_0BC@BMANBENP@setAttr?9Token?9EMV?$AA@ 000727bc     libeay32:obj_dat.obj
 0002:0000c7d0       ??_C@_0O@NOCONBCM@set?9addPolicy?$AA@ 000727d0     libeay32:obj_dat.obj
 0002:0000c7e0       ??_C@_0BB@MADMNAKK@set?9rootKeyThumb?$AA@ 000727e0     libeay32:obj_dat.obj
 0002:0000c7f4       ??_C@_0BE@HBDPGKCG@issuer?5capabilities?$AA@ 000727f4     libeay32:obj_dat.obj
 0002:0000c808       ??_C@_0P@OGFLCCKL@setAttr?9IssCap?$AA@ 00072808     libeay32:obj_dat.obj
 0002:0000c818       ??_C@_0BC@IKOKMCIL@setAttr?9TokenType?$AA@ 00072818     libeay32:obj_dat.obj
 0002:0000c82c       ??_C@_0BN@HEFBDPEB@payment?5gateway?5capabilities?$AA@ 0007282c     libeay32:obj_dat.obj
 0002:0000c84c       ??_C@_0BA@FAIFDKDK@setAttr?9PGWYcap?$AA@ 0007284c     libeay32:obj_dat.obj
 0002:0000c85c       ??_C@_0N@DCNKAAPN@setAttr?9Cert?$AA@ 0007285c     libeay32:obj_dat.obj
 0002:0000c86c       ??_C@_0BL@OLCLGJDA@setCext?9IssuerCapabilities?$AA@ 0007286c     libeay32:obj_dat.obj
 0002:0000c888       ??_C@_0BC@KMFGLCBL@setCext?9TokenType?$AA@ 00072888     libeay32:obj_dat.obj
 0002:0000c89c       ??_C@_0BD@FHFLAKJD@setCext?9Track2Data?$AA@ 0007289c     libeay32:obj_dat.obj
 0002:0000c8b0       ??_C@_0BI@FIIEHNL@setCext?9TokenIdentifier?$AA@ 000728b0     libeay32:obj_dat.obj
 0002:0000c8c8       ??_C@_0BJ@CNLNHONG@setCext?9PGWYcapabilities?$AA@ 000728c8     libeay32:obj_dat.obj
 0002:0000c8e4       ??_C@_0BB@HIAOOOIO@setCext?9setQualf?$AA@ 000728e4     libeay32:obj_dat.obj
 0002:0000c8f8       ??_C@_0P@DFHCPLJG@setCext?9setExt?$AA@ 000728f8     libeay32:obj_dat.obj
 0002:0000c908       ??_C@_0BC@BPADJLFJ@setCext?9tunneling?$AA@ 00072908     libeay32:obj_dat.obj
 0002:0000c91c       ??_C@_0BG@CMNKGOHO@setCext?9cCertRequired?$AA@ 0007291c     libeay32:obj_dat.obj
 0002:0000c934       ??_C@_0BC@ONMLOIHK@setCext?9merchData?$AA@ 00072934     libeay32:obj_dat.obj
 0002:0000c948       ??_C@_0BB@LHGCHNFD@setCext?9certType?$AA@ 00072948     libeay32:obj_dat.obj
 0002:0000c95c       ??_C@_0BD@MELPLACB@setCext?9hashedRoot?$AA@ 0007295c     libeay32:obj_dat.obj
 0002:0000c970       ??_C@_0BA@DLJGCPKK@set?9policy?9root?$AA@ 00072970     libeay32:obj_dat.obj
 0002:0000c980       ??_C@_0BI@MFPOFNGC@additional?5verification?$AA@ 00072980     libeay32:obj_dat.obj
 0002:0000c998       ??_C@_09GMOEIEJI@setext?9cv?$AA@ 00072998     libeay32:obj_dat.obj
 0002:0000c9a4       ??_C@_0O@PNAFPHHK@setext?9track2?$AA@ 000729a4     libeay32:obj_dat.obj
 0002:0000c9b4       ??_C@_0O@PNHGIFHA@setext?9pinAny?$AA@ 000729b4     libeay32:obj_dat.obj
 0002:0000c9c4       ??_C@_0BB@IKLFBNP@setext?9pinSecure?$AA@ 000729c4     libeay32:obj_dat.obj
 0002:0000c9d8       ??_C@_0BI@IMGNFPLI@merchant?5initiated?5auth?$AA@ 000729d8     libeay32:obj_dat.obj
 0002:0000c9f0       ??_C@_0O@IFMPKKOL@setext?9miAuth?$AA@ 000729f0     libeay32:obj_dat.obj
 0002:0000ca00       ??_C@_0BD@IMJHIOH@generic?5cryptogram?$AA@ 00072a00     libeay32:obj_dat.obj
 0002:0000ca14       ??_C@_0BA@NKJJMGPC@setext?9genCrypt?$AA@ 00072a14     libeay32:obj_dat.obj
 0002:0000ca24       ??_C@_0BJ@BPGLEKIJ@setct?9BCIDistributionTBS?$AA@ 00072a24     libeay32:obj_dat.obj
 0002:0000ca40       ??_C@_0BM@GINBKIMJ@setct?9CRLNotificationResTBS?$AA@ 00072a40     libeay32:obj_dat.obj
 0002:0000ca5c       ??_C@_0BJ@KMIJGANO@setct?9CRLNotificationTBS?$AA@ 00072a5c     libeay32:obj_dat.obj
 0002:0000ca78       ??_C@_0BB@KEDMFAIN@setct?9CertResTBE?$AA@ 00072a78     libeay32:obj_dat.obj
 0002:0000ca8c       ??_C@_0BC@KMAHLFJK@setct?9CertReqTBEX?$AA@ 00072a8c     libeay32:obj_dat.obj
 0002:0000caa0       ??_C@_0BB@NOPMADON@setct?9CertReqTBE?$AA@ 00072aa0     libeay32:obj_dat.obj
 0002:0000cab4       ??_C@_0BE@MIADHNEP@setct?9RegFormReqTBE?$AA@ 00072ab4     libeay32:obj_dat.obj
 0002:0000cac8       ??_C@_0BH@PFFPEIML@setct?9BatchAdminResTBE?$AA@ 00072ac8     libeay32:obj_dat.obj
 0002:0000cae0       ??_C@_0BH@IPJPBLKL@setct?9BatchAdminReqTBE?$AA@ 00072ae0     libeay32:obj_dat.obj
 0002:0000caf8       ??_C@_0BE@MGLMPAHD@setct?9CredRevResTBE?$AA@ 00072af8     libeay32:obj_dat.obj
 0002:0000cb0c       ??_C@_0BF@PGGAOKCB@setct?9CredRevReqTBEX?$AA@ 00072b0c     libeay32:obj_dat.obj
 0002:0000cb24       ??_C@_0BE@LMHMKDBD@setct?9CredRevReqTBE?$AA@ 00072b24     libeay32:obj_dat.obj
 0002:0000cb38       ??_C@_0BB@NFFENEIP@setct?9CredResTBE?$AA@ 00072b38     libeay32:obj_dat.obj
 0002:0000cb4c       ??_C@_0BC@ECHILMDC@setct?9CredReqTBEX?$AA@ 00072b4c     libeay32:obj_dat.obj
 0002:0000cb60       ??_C@_0BB@KPJEIHOP@setct?9CredReqTBE?$AA@ 00072b60     libeay32:obj_dat.obj
 0002:0000cb74       ??_C@_0BD@GIBDNMDG@setct?9CapRevResTBE?$AA@ 00072b74     libeay32:obj_dat.obj
 0002:0000cb88       ??_C@_0BE@PAHIPABC@setct?9CapRevReqTBEX?$AA@ 00072b88     libeay32:obj_dat.obj
 0002:0000cb9c       ??_C@_0BD@BCNDIPFG@setct?9CapRevReqTBE?$AA@ 00072b9c     libeay32:obj_dat.obj
 0002:0000cbb0       ??_C@_0BA@MEFGIEBL@setct?9CapResTBE?$AA@ 00072bb0     libeay32:obj_dat.obj
 0002:0000cbc0       ??_C@_0BB@LFALOJDP@setct?9CapReqTBEX?$AA@ 00072bc0     libeay32:obj_dat.obj
 0002:0000cbd4       ??_C@_0BA@LOJGNHHL@setct?9CapReqTBE?$AA@ 00072bd4     libeay32:obj_dat.obj
 0002:0000cbe4       ??_C@_0BF@KKFFJIHO@setct?9AuthRevResTBEB?$AA@ 00072be4     libeay32:obj_dat.obj
 0002:0000cbfc       ??_C@_0BE@MHAGABNC@setct?9AuthRevResTBE?$AA@ 00072bfc     libeay32:obj_dat.obj
 0002:0000cc10       ??_C@_0BE@LNMGFCLC@setct?9AuthRevReqTBE?$AA@ 00072c10     libeay32:obj_dat.obj
 0002:0000cc24       ??_C@_0BI@PALCIALL@setct?9AcqCardCodeMsgTBE?$AA@ 00072c24     libeay32:obj_dat.obj
 0002:0000cc3c       ??_C@_0BD@OMCOOIME@setct?9CapTokenTBEX?$AA@ 00072c3c     libeay32:obj_dat.obj
 0002:0000cc50       ??_C@_0BC@CIKKDLAH@setct?9CapTokenTBE?$AA@ 00072c50     libeay32:obj_dat.obj
 0002:0000cc64       ??_C@_0BD@DHGMJDKO@setct?9AuthTokenTBE?$AA@ 00072c64     libeay32:obj_dat.obj
 0002:0000cc78       ??_C@_0BC@OEOIIPOH@setct?9AuthResTBEX?$AA@ 00072c78     libeay32:obj_dat.obj
 0002:0000cc8c       ??_C@_0BB@IDPADFEK@setct?9AuthResTBE?$AA@ 00072c8c     libeay32:obj_dat.obj
 0002:0000cca0       ??_C@_0BB@PJDAGGCK@setct?9AuthReqTBE?$AA@ 00072ca0     libeay32:obj_dat.obj
 0002:0000ccb4       ??_C@_0BE@IBOAPLDD@setct?9PIUnsignedTBE?$AA@ 00072cb4     libeay32:obj_dat.obj
 0002:0000ccc8       ??_C@_0BG@JDDNBPAG@setct?9PIDualSignedTBE?$AA@ 00072cc8     libeay32:obj_dat.obj
 0002:0000cce0       ??_C@_0P@DLHKHMDJ@setct?9ErrorTBS?$AA@ 00072ce0     libeay32:obj_dat.obj
 0002:0000ccf0       ??_C@_0BE@OIDIJLCF@setct?9CertInqReqTBS?$AA@ 00072cf0     libeay32:obj_dat.obj
 0002:0000cd04       ??_C@_0BC@BIIFIBNO@setct?9CertResData?$AA@ 00072d04     libeay32:obj_dat.obj
 0002:0000cd18       ??_C@_0BB@MCGELGDK@setct?9CertReqTBS?$AA@ 00072d18     libeay32:obj_dat.obj
 0002:0000cd2c       ??_C@_0BC@FFENCANF@setct?9CertReqData?$AA@ 00072d2c     libeay32:obj_dat.obj
 0002:0000cd40       ??_C@_0BE@KOFLJLPI@setct?9RegFormResTBS?$AA@ 00072d40     libeay32:obj_dat.obj
 0002:0000cd54       ??_C@_0BG@DIBJJIJB@setct?9MeAqCInitResTBS?$AA@ 00072d54     libeay32:obj_dat.obj
 0002:0000cd6c       ??_C@_0BG@OMHIHPPP@setct?9CardCInitResTBS?$AA@ 00072d6c     libeay32:obj_dat.obj
 0002:0000cd84       ??_C@_0BI@IHGLAGGD@setct?9BatchAdminResData?$AA@ 00072d84     libeay32:obj_dat.obj
 0002:0000cd9c       ??_C@_0BI@MKKDKHGI@setct?9BatchAdminReqData?$AA@ 00072d9c     libeay32:obj_dat.obj
 0002:0000cdb4       ??_C@_0BC@CFHCKIIA@setct?9PCertResTBS?$AA@ 00072db4     libeay32:obj_dat.obj
 0002:0000cdc8       ??_C@_0BD@DDNGMNFC@setct?9PCertReqData?$AA@ 00072dc8     libeay32:obj_dat.obj
 0002:0000cddc       ??_C@_0BF@ECOCNOGF@setct?9CredRevResData?$AA@ 00072ddc     libeay32:obj_dat.obj
 0002:0000cdf4       ??_C@_0BF@OOMLDFOD@setct?9CredRevReqTBSX?$AA@ 00072df4     libeay32:obj_dat.obj
 0002:0000ce0c       ??_C@_0BE@KAOEBGME@setct?9CredRevReqTBS?$AA@ 00072e0c     libeay32:obj_dat.obj
 0002:0000ce20       ??_C@_0BC@PGPKIIHG@setct?9CredResData?$AA@ 00072e20     libeay32:obj_dat.obj
 0002:0000ce34       ??_C@_0BC@FKNDGDPA@setct?9CredReqTBSX?$AA@ 00072e34     libeay32:obj_dat.obj
 0002:0000ce48       ??_C@_0BB@LDAMDCDI@setct?9CredReqTBS?$AA@ 00072e48     libeay32:obj_dat.obj
 0002:0000ce5c       ??_C@_0BE@EEPKMEFG@setct?9CapRevResData?$AA@ 00072e5c     libeay32:obj_dat.obj
 0002:0000ce70       ??_C@_0BE@OINDCPNA@setct?9CapRevReqTBSX?$AA@ 00072e70     libeay32:obj_dat.obj
 0002:0000ce84       ??_C@_0BD@OELDKIB@setct?9CapRevReqTBS?$AA@ 00072e84     libeay32:obj_dat.obj
 0002:0000ce98       ??_C@_0BB@BIJNNHL@setct?9CapResData?$AA@ 00072e98     libeay32:obj_dat.obj
 0002:0000ceac       ??_C@_0BB@KNKADGPN@setct?9CapReqTBSX?$AA@ 00072eac     libeay32:obj_dat.obj
 0002:0000cec0       ??_C@_0BA@KCAOGCKM@setct?9CapReqTBS?$AA@ 00072ec0     libeay32:obj_dat.obj
 0002:0000ced0       ??_C@_0BE@NLJOLEAF@setct?9AuthRevResTBS?$AA@ 00072ed0     libeay32:obj_dat.obj
 0002:0000cee4       ??_C@_0BF@ODDCPHOK@setct?9AuthRevResData?$AA@ 00072ee4     libeay32:obj_dat.obj
 0002:0000cefc       ??_C@_0BE@KBFOOHGF@setct?9AuthRevReqTBS?$AA@ 00072efc     libeay32:obj_dat.obj
 0002:0000cf10       ??_C@_0BF@LAOAGKEH@setct?9AcqCardCodeMsg?$AA@ 00072f10     libeay32:obj_dat.obj
 0002:0000cf28       ??_C@_0BC@DEDCIONA@setct?9CapTokenTBS?$AA@ 00072f28     libeay32:obj_dat.obj
 0002:0000cf3c       ??_C@_0BD@BFGEHNIL@setct?9CapTokenData?$AA@ 00072f3c     libeay32:obj_dat.obj
 0002:0000cf50       ??_C@_0BD@CLPECGHJ@setct?9AuthTokenTBS?$AA@ 00072f50     libeay32:obj_dat.obj
 0002:0000cf64       ??_C@_0BC@PMEDFACF@setct?9AuthResTBSX?$AA@ 00072f64     libeay32:obj_dat.obj
 0002:0000cf78       ??_C@_0BB@JPGIIAJN@setct?9AuthResTBS?$AA@ 00072f78     libeay32:obj_dat.obj
 0002:0000cf8c       ??_C@_0BB@OFKINDPN@setct?9AuthReqTBS?$AA@ 00072f8c     libeay32:obj_dat.obj
 0002:0000cfa0       ??_C@_0P@NGDEPBBH@setct?9PResData?$AA@ 00072fa0     libeay32:obj_dat.obj
 0002:0000cfb0       ??_C@_0N@GIGHFPBJ@setct?9PI?9TBS?$AA@ 00072fb0     libeay32:obj_dat.obj
 0002:0000cfc0       ??_C@_0BD@GIEGHJGD@setct?9PInitResData?$AA@ 00072fc0     libeay32:obj_dat.obj
 0002:0000cfd4       ??_C@_0BC@DDFFKACM@setct?9CapTokenSeq?$AA@ 00072fd4     libeay32:obj_dat.obj
 0002:0000cfe8       ??_C@_0BI@CNLKCNFM@setct?9AuthRevResBaggage?$AA@ 00072fe8     libeay32:obj_dat.obj
 0002:0000d000       ??_C@_0BI@DEMAFNK@setct?9AuthRevReqBaggage?$AA@ 00073000     libeay32:obj_dat.obj
 0002:0000d018       ??_C@_0BF@EFHLGKOJ@setct?9AuthResBaggage?$AA@ 00073018     libeay32:obj_dat.obj
 0002:0000d030       ??_C@_0P@LPBKKIBL@setct?9HODInput?$AA@ 00073030     libeay32:obj_dat.obj
 0002:0000d040       ??_C@_0BF@BDFGFMFJ@setct?9PIDataUnsigned?$AA@ 00073040     libeay32:obj_dat.obj
 0002:0000d058       ??_C@_0N@PGCGIPOF@setct?9PIData?$AA@ 00073058     libeay32:obj_dat.obj
 0002:0000d068       ??_C@_08MNJJNIEC@setct?9PI?$AA@ 00073068     libeay32:obj_dat.obj
 0002:0000d074       ??_C@_0N@GHLAGDMC@setct?9OIData?$AA@ 00073074     libeay32:obj_dat.obj
 0002:0000d084       ??_C@_0O@PFJCCKAL@setct?9PANOnly?$AA@ 00073084     libeay32:obj_dat.obj
 0002:0000d094       ??_C@_0P@LAMDLEMO@setct?9PANToken?$AA@ 00073094     libeay32:obj_dat.obj
 0002:0000d0a4       ??_C@_0O@EKAPGBNN@setct?9PANData?$AA@ 000730a4     libeay32:obj_dat.obj
 0002:0000d0b4       ??_C@_09JHODGPNO@set?9brand?$AA@ 000730b4     libeay32:obj_dat.obj
 0002:0000d0c0       ??_C@_0BH@PDPIEGPA@certificate?5extensions?$AA@ 000730c0     libeay32:obj_dat.obj
 0002:0000d0d8       ??_C@_0M@KEIBDDC@set?9certExt?$AA@ 000730d8     libeay32:obj_dat.obj
 0002:0000d0e4       ??_C@_0L@LAAAKICM@set?9policy?$AA@ 000730e4     libeay32:obj_dat.obj
 0002:0000d0f0       ??_C@_08OFDIOKIA@set?9attr?$AA@ 000730f0     libeay32:obj_dat.obj
 0002:0000d0fc       ??_C@_0BD@LEIDLLNO@message?5extensions?$AA@ 000730fc     libeay32:obj_dat.obj
 0002:0000d110       ??_C@_0L@PKPEIEIJ@set?9msgExt?$AA@ 00073110     libeay32:obj_dat.obj
 0002:0000d11c       ??_C@_0O@HJGLMADJ@content?5types?$AA@ 0007311c     libeay32:obj_dat.obj
 0002:0000d12c       ??_C@_09EJPBIJJA@set?9ctype?$AA@ 0007312c     libeay32:obj_dat.obj
 0002:0000d138       ??_C@_0BP@KEIHJPNF@Secure?5Electronic?5Transactions?$AA@ 00073138     libeay32:obj_dat.obj
 0002:0000d158       ??_C@_06KKEMDFAF@id?9set?$AA@ 00073158     libeay32:obj_dat.obj
 0002:0000d160       ??_C@_09NNMENHIH@pseudonym?$AA@ 00073160     libeay32:obj_dat.obj
 0002:0000d16c       ??_C@_0BE@DAEHFOO@generationQualifier?$AA@ 0007316c     libeay32:obj_dat.obj
 0002:0000d180       ??_C@_0BJ@KCNAIDP@id?9hex?9multipart?9message?$AA@ 00073180     libeay32:obj_dat.obj
 0002:0000d19c       ??_C@_0BH@ILCJEHBB@id?9hex?9partial?9message?$AA@ 0007319c     libeay32:obj_dat.obj
 0002:0000d1b4       ??_C@_0BA@MOFCNIEE@mime?9mhs?9bodies?$AA@ 000731b4     libeay32:obj_dat.obj
 0002:0000d1c4       ??_C@_0BC@NIFMCBEJ@mime?9mhs?9headings?$AA@ 000731c4     libeay32:obj_dat.obj
 0002:0000d1d8       ??_C@_08DNBACEKK@MIME?5MHS?$AA@ 000731d8     libeay32:obj_dat.obj
 0002:0000d1e4       ??_C@_08HLONPBDI@mime?9mhs?$AA@ 000731e4     libeay32:obj_dat.obj
 0002:0000d1f0       ??_C@_0BF@EFCCADKK@x500UniqueIdentifier?$AA@ 000731f0     libeay32:obj_dat.obj
 0002:0000d208       ??_C@_0BC@KCCHJGGO@documentPublisher?$AA@ 00073208     libeay32:obj_dat.obj
 0002:0000d21c       ??_C@_05KNIAAKIP@audio?$AA@ 0007321c     libeay32:obj_dat.obj
 0002:0000d224       ??_C@_0M@KIABODOB@dITRedirect?$AA@ 00073224     libeay32:obj_dat.obj
 0002:0000d230       ??_C@_0BC@CBOFINFC@personalSignature?$AA@ 00073230     libeay32:obj_dat.obj
 0002:0000d244       ??_C@_0BG@FLFPEGPE@subtreeMaximumQuality?$AA@ 00073244     libeay32:obj_dat.obj
 0002:0000d25c       ??_C@_0BG@HMOECBMF@subtreeMinimumQuality?$AA@ 0007325c     libeay32:obj_dat.obj
 0002:0000d274       ??_C@_0BD@EHDOPADK@singleLevelQuality?$AA@ 00073274     libeay32:obj_dat.obj
 0002:0000d288       ??_C@_0L@LMCCHBHL@dSAQuality?$AA@ 00073288     libeay32:obj_dat.obj
 0002:0000d294       ??_C@_0N@POAALOHC@buildingName?$AA@ 00073294     libeay32:obj_dat.obj
 0002:0000d2a4       ??_C@_0BF@OFOHKDCI@mailPreferenceOption?$AA@ 000732a4     libeay32:obj_dat.obj
 0002:0000d2bc       ??_C@_0N@DGNBNBGJ@janetMailbox?$AA@ 000732bc     libeay32:obj_dat.obj
 0002:0000d2cc       ??_C@_0BF@IANLBJMF@organizationalStatus?$AA@ 000732cc     libeay32:obj_dat.obj
 0002:0000d2e4       ??_C@_0BE@MGDAFGCM@friendlyCountryName?$AA@ 000732e4     libeay32:obj_dat.obj
 0002:0000d2f8       ??_C@_0BF@JICDDEFM@pagerTelephoneNumber?$AA@ 000732f8     libeay32:obj_dat.obj
 0002:0000d310       ??_C@_0BG@DCPABLLG@mobileTelephoneNumber?$AA@ 00073310     libeay32:obj_dat.obj
 0002:0000d328       ??_C@_0O@CCHLDBGG@personalTitle?$AA@ 00073328     libeay32:obj_dat.obj
 0002:0000d338       ??_C@_0BC@NPJKACJF@homePostalAddress?$AA@ 00073338     libeay32:obj_dat.obj
 0002:0000d34c       ??_C@_0P@OJOOFNGB@associatedName?$AA@ 0007334c     libeay32:obj_dat.obj
 0002:0000d35c       ??_C@_0BB@MEFMIBKO@associatedDomain?$AA@ 0007335c     libeay32:obj_dat.obj
 0002:0000d370       ??_C@_0M@GHEAGPOE@cNAMERecord?$AA@ 00073370     libeay32:obj_dat.obj
 0002:0000d37c       ??_C@_09OCFHDJJF@sOARecord?$AA@ 0007337c     libeay32:obj_dat.obj
 0002:0000d388       ??_C@_08FBLONLGA@nSRecord?$AA@ 00073388     libeay32:obj_dat.obj
 0002:0000d394       ??_C@_08DFFJPLPD@mXRecord?$AA@ 00073394     libeay32:obj_dat.obj
 0002:0000d3a0       ??_C@_0BF@MIIMJDJB@pilotAttributeType27?$AA@ 000733a0     libeay32:obj_dat.obj
 0002:0000d3b8       ??_C@_07IBNMBOJB@aRecord?$AA@ 000733b8     libeay32:obj_dat.obj
 0002:0000d3c0       ??_C@_0P@ECLEJAJJ@lastModifiedBy?$AA@ 000733c0     libeay32:obj_dat.obj
 0002:0000d3d0       ??_C@_0BB@LHLABCIP@lastModifiedTime?$AA@ 000733d0     libeay32:obj_dat.obj
 0002:0000d3e4       ??_C@_0N@CEOKELFP@otherMailbox?$AA@ 000733e4     libeay32:obj_dat.obj
 0002:0000d3f4       ??_C@_09EMBFDNKC@secretary?$AA@ 000733f4     libeay32:obj_dat.obj
 0002:0000d400       ??_C@_0BE@CPLAKLNE@homeTelephoneNumber?$AA@ 00073400     libeay32:obj_dat.obj
 0002:0000d414       ??_C@_0BB@COFKDFJ@documentLocation?$AA@ 00073414     libeay32:obj_dat.obj
 0002:0000d428       ??_C@_0P@DABDJKFB@documentAuthor?$AA@ 00073428     libeay32:obj_dat.obj
 0002:0000d438       ??_C@_0BA@GHOLKFM@documentVersion?$AA@ 00073438     libeay32:obj_dat.obj
 0002:0000d448       ??_C@_0O@BDIDABAC@documentTitle?$AA@ 00073448     libeay32:obj_dat.obj
 0002:0000d458       ??_C@_0BD@MEPJGCEO@documentIdentifier?$AA@ 00073458     libeay32:obj_dat.obj
 0002:0000d46c       ??_C@_07JPLKDPHP@manager?$AA@ 0007346c     libeay32:obj_dat.obj
 0002:0000d474       ??_C@_04OODOLJMA@host?$AA@ 00073474     libeay32:obj_dat.obj
 0002:0000d47c       ??_C@_09CCPGMHEM@userClass?$AA@ 0007347c     libeay32:obj_dat.obj
 0002:0000d488       ??_C@_05DOIFDPKA@photo?$AA@ 00073488     libeay32:obj_dat.obj
 0002:0000d490       ??_C@_0L@DGKNANFO@roomNumber?$AA@ 00073490     libeay32:obj_dat.obj
 0002:0000d49c       ??_C@_0P@PAMFCEKP@favouriteDrink?$AA@ 0007349c     libeay32:obj_dat.obj
 0002:0000d4ac       ??_C@_04NIDJFNBE@info?$AA@ 000734ac     libeay32:obj_dat.obj
 0002:0000d4b4       ??_C@_0O@PDNFEOHL@rfc822Mailbox?$AA@ 000734b4     libeay32:obj_dat.obj
 0002:0000d4c4       ??_C@_04FFKLPPHM@mail?$AA@ 000734c4     libeay32:obj_dat.obj
 0002:0000d4cc       ??_C@_0BF@HDIIKJDI@textEncodedORAddress?$AA@ 000734cc     libeay32:obj_dat.obj
 0002:0000d4e4       ??_C@_06LPELCIKE@userId?$AA@ 000734e4     libeay32:obj_dat.obj
 0002:0000d4ec       ??_C@_03MJDGODDN@UID?$AA@  000734ec     libeay32:obj_dat.obj
 0002:0000d4f0       ??_C@_0BE@DDFOMMI@qualityLabelledData?$AA@ 000734f0     libeay32:obj_dat.obj
 0002:0000d504       ??_C@_08MPJGPMC@pilotDSA?$AA@ 00073504     libeay32:obj_dat.obj
 0002:0000d510       ??_C@_0BC@PLDKCMI@pilotOrganization?$AA@ 00073510     libeay32:obj_dat.obj
 0002:0000d524       ??_C@_0BF@CONLNHDI@simpleSecurityObject?$AA@ 00073524     libeay32:obj_dat.obj
 0002:0000d53c       ??_C@_0BA@LKHIAMBK@friendlyCountry?$AA@ 0007353c     libeay32:obj_dat.obj
 0002:0000d54c       ??_C@_0BE@OPAPHNCO@domainRelatedObject?$AA@ 0007354c     libeay32:obj_dat.obj
 0002:0000d560       ??_C@_09BOCGGGMK@dNSDomain?$AA@ 00073560     libeay32:obj_dat.obj
 0002:0000d56c       ??_C@_0BA@KIAIOBLD@rFC822localPart?$AA@ 0007356c     libeay32:obj_dat.obj
 0002:0000d57c       ??_C@_0P@OAPEDDHP@documentSeries?$AA@ 0007357c     libeay32:obj_dat.obj
 0002:0000d58c       ??_C@_04EKFCMFOP@room?$AA@ 0007358c     libeay32:obj_dat.obj
 0002:0000d594       ??_C@_08JEEDKNPB@document?$AA@ 00073594     libeay32:obj_dat.obj
 0002:0000d5a0       ??_C@_07PMDLEBNF@account?$AA@ 000735a0     libeay32:obj_dat.obj
 0002:0000d5a8       ??_C@_0M@NCGDCEIP@pilotPerson?$AA@ 000735a8     libeay32:obj_dat.obj
 0002:0000d5b4       ??_C@_0M@MCCFCPKP@pilotObject?$AA@ 000735b4     libeay32:obj_dat.obj
 0002:0000d5c0       ??_C@_0BK@LELMGJGD@caseIgnoreIA5StringSyntax?$AA@ 000735c0     libeay32:obj_dat.obj
 0002:0000d5dc       ??_C@_0BA@KPIIGILK@iA5StringSyntax?$AA@ 000735dc     libeay32:obj_dat.obj
 0002:0000d5ec       ??_C@_0M@DLMEDAFC@pilotGroups?$AA@ 000735ec     libeay32:obj_dat.obj
 0002:0000d5f8       ??_C@_0BB@MJFNAIDM@pilotObjectClass?$AA@ 000735f8     libeay32:obj_dat.obj
 0002:0000d60c       ??_C@_0BF@CDEFHHCF@pilotAttributeSyntax?$AA@ 0007360c     libeay32:obj_dat.obj
 0002:0000d624       ??_C@_0BD@NEGIHOAI@pilotAttributeType?$AA@ 00073624     libeay32:obj_dat.obj
 0002:0000d638       ??_C@_05KIBFDOPF@pilot?$AA@ 00073638     libeay32:obj_dat.obj
 0002:0000d640       ??_C@_03BIDCBJP@ucl?$AA@   00073640     libeay32:obj_dat.obj
 0002:0000d644       ??_C@_04PJOLNDGD@data?$AA@ 00073644     libeay32:obj_dat.obj
 0002:0000d64c       ??_C@_0BI@EEABHGCD@Hold?5Instruction?5Reject?$AA@ 0007364c     libeay32:obj_dat.obj
 0002:0000d664       ??_C@_0BG@BDAACIJE@holdInstructionReject?$AA@ 00073664     libeay32:obj_dat.obj
 0002:0000d67c       ??_C@_0BN@IJKNPIFC@Hold?5Instruction?5Call?5Issuer?$AA@ 0007367c     libeay32:obj_dat.obj
 0002:0000d69c       ??_C@_0BK@ENEKHHMB@holdInstructionCallIssuer?$AA@ 0007369c     libeay32:obj_dat.obj
 0002:0000d6b8       ??_C@_0BG@ECBIHNGK@Hold?5Instruction?5None?$AA@ 000736b8     libeay32:obj_dat.obj
 0002:0000d6d0       ??_C@_0BE@KPEIPHPJ@holdInstructionNone?$AA@ 000736d0     libeay32:obj_dat.obj
 0002:0000d6e4       ??_C@_0BG@LHBPDMAN@Hold?5Instruction?5Code?$AA@ 000736e4     libeay32:obj_dat.obj
 0002:0000d6fc       ??_C@_0BE@FKEPLGJO@holdInstructionCode?$AA@ 000736fc     libeay32:obj_dat.obj
 0002:0000d710       ??_C@_0M@JMFNEPEI@aes?9256?9cfb?$AA@ 00073710     libeay32:obj_dat.obj
 0002:0000d71c       ??_C@_0M@EAFGNFML@AES?9256?9CFB?$AA@ 0007371c     libeay32:obj_dat.obj
 0002:0000d728       ??_C@_0M@NGILPAPA@aes?9256?9ofb?$AA@ 00073728     libeay32:obj_dat.obj
 0002:0000d734       ??_C@_0M@KIAGKHD@AES?9256?9OFB?$AA@ 00073734     libeay32:obj_dat.obj
 0002:0000d740       ??_C@_0M@ICEPNGNF@aes?9256?9cbc?$AA@ 00073740     libeay32:obj_dat.obj
 0002:0000d74c       ??_C@_0M@FOEEEMFG@AES?9256?9CBC?$AA@ 0007374c     libeay32:obj_dat.obj
 0002:0000d758       ??_C@_0M@LPPNNCHP@aes?9256?9ecb?$AA@ 00073758     libeay32:obj_dat.obj
 0002:0000d764       ??_C@_0M@GDPGEIPM@AES?9256?9ECB?$AA@ 00073764     libeay32:obj_dat.obj
 0002:0000d770       ??_C@_0M@EOODGAMJ@aes?9192?9cfb?$AA@ 00073770     libeay32:obj_dat.obj
 0002:0000d77c       ??_C@_0M@JCOIPKEK@AES?9192?9CFB?$AA@ 0007377c     libeay32:obj_dat.obj
 0002:0000d788       ??_C@_0M@EDFNPHB@aes?9192?9ofb?$AA@ 00073788     libeay32:obj_dat.obj
 0002:0000d794       ??_C@_0M@NIDOEFPC@AES?9192?9OFB?$AA@ 00073794     libeay32:obj_dat.obj
 0002:0000d7a0       ??_C@_0M@FAPBPJFE@aes?9192?9cbc?$AA@ 000737a0     libeay32:obj_dat.obj
 0002:0000d7ac       ??_C@_0M@IMPKGDNH@AES?9192?9CBC?$AA@ 000737ac     libeay32:obj_dat.obj
 0002:0000d7b8       ??_C@_0M@GNEDPNPO@aes?9192?9ecb?$AA@ 000737b8     libeay32:obj_dat.obj
 0002:0000d7c4       ??_C@_0M@LBEIGHHN@AES?9192?9ECB?$AA@ 000737c4     libeay32:obj_dat.obj
 0002:0000d7d0       ??_C@_0M@ONHPBHFF@aes?9128?9cfb?$AA@ 000737d0     libeay32:obj_dat.obj
 0002:0000d7dc       ??_C@_0M@DBHEINNG@AES?9128?9CFB?$AA@ 000737dc     libeay32:obj_dat.obj
 0002:0000d7e8       ??_C@_0M@KHKJKION@aes?9128?9ofb?$AA@ 000737e8     libeay32:obj_dat.obj
 0002:0000d7f4       ??_C@_0M@HLKCDCGO@AES?9128?9OFB?$AA@ 000737f4     libeay32:obj_dat.obj
 0002:0000d800       ??_C@_0M@PDGNIOMI@aes?9128?9cbc?$AA@ 00073800     libeay32:obj_dat.obj
 0002:0000d80c       ??_C@_0M@CPGGBEEL@AES?9128?9CBC?$AA@ 0007380c     libeay32:obj_dat.obj
 0002:0000d818       ??_C@_0M@MONPIKGC@aes?9128?9ecb?$AA@ 00073818     libeay32:obj_dat.obj
 0002:0000d824       ??_C@_0M@BCNEBAOB@AES?9128?9ECB?$AA@ 00073824     libeay32:obj_dat.obj
 0002:0000d830       ??_C@_0BD@HDEEGCLB@Microsoft?5CSP?5Name?$AA@ 00073830     libeay32:obj_dat.obj
 0002:0000d844       ??_C@_07BPKAKPJK@CSPName?$AA@ 00073844     libeay32:obj_dat.obj
 0002:0000d84c       ??_C@_0BA@DGJNDOPM@ecdsa?9with?9SHA1?$AA@ 0007384c     libeay32:obj_dat.obj
 0002:0000d85c       ??_C@_0L@JJFEINOP@prime256v1?$AA@ 0007385c     libeay32:obj_dat.obj
 0002:0000d868       ??_C@_0L@HMEBAKJL@prime239v3?$AA@ 00073868     libeay32:obj_dat.obj
 0002:0000d874       ??_C@_0L@GFFKDLNK@prime239v2?$AA@ 00073874     libeay32:obj_dat.obj
 0002:0000d880       ??_C@_0L@EOHHGIBJ@prime239v1?$AA@ 00073880     libeay32:obj_dat.obj
 0002:0000d88c       ??_C@_0L@GHGEOHJF@prime192v3?$AA@ 0007388c     libeay32:obj_dat.obj
 0002:0000d898       ??_C@_0L@HOHPNGNE@prime192v2?$AA@ 00073898     libeay32:obj_dat.obj
 0002:0000d8a4       ??_C@_0L@FFFCIFBH@prime192v1?$AA@ 000738a4     libeay32:obj_dat.obj
 0002:0000d8b0       ??_C@_0P@NEOBKIMO@id?9ecPublicKey?$AA@ 000738b0     libeay32:obj_dat.obj
 0002:0000d8c0       ??_C@_0BJ@HECCMKCN@characteristic?9two?9field?$AA@ 000738c0     libeay32:obj_dat.obj
 0002:0000d8dc       ??_C@_0M@LGLKIODB@prime?9field?$AA@ 000738dc     libeay32:obj_dat.obj
 0002:0000d8e8       ??_C@_0L@HAOKGHPF@ANSI?5X9?462?$AA@ 000738e8     libeay32:obj_dat.obj
 0002:0000d8f4       ??_C@_0L@LBMOMFCJ@ansi?9X9?962?$AA@ 000738f4     libeay32:obj_dat.obj
 0002:0000d900       ??_C@_0BP@DEKFNCEH@X509v3?5No?5Revocation?5Available?$AA@ 00073900     libeay32:obj_dat.obj
 0002:0000d920       ??_C@_0L@ECGDAGCK@noRevAvail?$AA@ 00073920     libeay32:obj_dat.obj
 0002:0000d92c       ??_C@_0BE@IECCFFCH@X509v3?5AC?5Targeting?$AA@ 0007392c     libeay32:obj_dat.obj
 0002:0000d940       ??_C@_0BC@JINDJNPM@targetInformation?$AA@ 00073940     libeay32:obj_dat.obj
 0002:0000d954       ??_C@_0BK@DNMBLGM@X509v3?5Policy?5Constraints?$AA@ 00073954     libeay32:obj_dat.obj
 0002:0000d970       ??_C@_0BC@IJLMCBHD@policyConstraints?$AA@ 00073970     libeay32:obj_dat.obj
 0002:0000d984       ??_C@_04IAMNPBLO@role?$AA@ 00073984     libeay32:obj_dat.obj
 0002:0000d98c       ??_C@_0BA@PEFFHNFH@id?9aca?9encAttrs?$AA@ 0007398c     libeay32:obj_dat.obj
 0002:0000d99c       ??_C@_0BL@OMFIOBLF@Subject?5Information?5Access?$AA@ 0007399c     libeay32:obj_dat.obj
 0002:0000d9b8       ??_C@_0BC@IEIBIKBA@subjectInfoAccess?$AA@ 000739b8     libeay32:obj_dat.obj
 0002:0000d9cc       ??_C@_0M@BKAIKGEL@ac?9proxying?$AA@ 000739cc     libeay32:obj_dat.obj
 0002:0000d9d8       ??_C@_0BF@JDOFKNPK@md4WithRSAEncryption?$AA@ 000739d8     libeay32:obj_dat.obj
 0002:0000d9f0       ??_C@_07MHHBEDHA@RSA?9MD4?$AA@ 000739f0     libeay32:obj_dat.obj
 0002:0000d9f8       ??_C@_09ECGCCLFI@clearance?$AA@ 000739f8     libeay32:obj_dat.obj
 0002:0000da04       ??_C@_0BJ@MAOJIBHF@Selected?5Attribute?5Types?$AA@ 00073a04     libeay32:obj_dat.obj
 0002:0000da20       ??_C@_0BJ@BDDNHDDA@selected?9attribute?9types?$AA@ 00073a20     libeay32:obj_dat.obj
 0002:0000da3c       ??_C@_04HIBGFPH@NULL?$AA@  00073a3c     libeay32:obj_dat.obj
 0002:0000da44       ??_C@_06HFDFFJHI@Domain?$AA@ 00073a44     libeay32:obj_dat.obj
 0002:0000da4c       ??_C@_06LKIIGAOE@domain?$AA@ 00073a4c     libeay32:obj_dat.obj
 0002:0000da54       ??_C@_0BA@DMAKFKAH@domainComponent?$AA@ 00073a54     libeay32:obj_dat.obj
 0002:0000da64       ??_C@_02KMHJBPDH@DC?$AA@   00073a64     libeay32:obj_dat.obj
 0002:0000da68       ??_C@_08GPNKJGDG@dcObject?$AA@ 00073a68     libeay32:obj_dat.obj
 0002:0000da74       ??_C@_08KAGHKPKK@dcobject?$AA@ 00073a74     libeay32:obj_dat.obj
 0002:0000da80       ??_C@_0M@CEEPHGPL@Enterprises?$AA@ 00073a80     libeay32:obj_dat.obj
 0002:0000da8c       ??_C@_0M@DMHOKNAD@enterprises?$AA@ 00073a8c     libeay32:obj_dat.obj
 0002:0000da98       ??_C@_04JEGKNAHI@Mail?$AA@ 00073a98     libeay32:obj_dat.obj
 0002:0000daa0       ??_C@_06JDJOGLHO@SNMPv2?$AA@ 00073aa0     libeay32:obj_dat.obj
 0002:0000daa8       ??_C@_06DKHMNHOO@snmpv2?$AA@ 00073aa8     libeay32:obj_dat.obj
 0002:0000dab0       ??_C@_08EDKKPLCC@Security?$AA@ 00073ab0     libeay32:obj_dat.obj
 0002:0000dabc       ??_C@_08MBFLHJIB@security?$AA@ 00073abc     libeay32:obj_dat.obj
 0002:0000dac8       ??_C@_07CFINJGKH@Private?$AA@ 00073ac8     libeay32:obj_dat.obj
 0002:0000dad0       ??_C@_07NMPLPEPB@private?$AA@ 00073ad0     libeay32:obj_dat.obj
 0002:0000dad8       ??_C@_0N@FKCIGJFM@Experimental?$AA@ 00073ad8     libeay32:obj_dat.obj
 0002:0000dae8       ??_C@_0N@OJFGCCKJ@experimental?$AA@ 00073ae8     libeay32:obj_dat.obj
 0002:0000daf8       ??_C@_0L@ENAJINDB@Management?$AA@ 00073af8     libeay32:obj_dat.obj
 0002:0000db04       ??_C@_04PFNCJACF@mgmt?$AA@ 00073b04     libeay32:obj_dat.obj
 0002:0000db0c       ??_C@_09EOAFACM@Directory?$AA@ 00073b0c     libeay32:obj_dat.obj
 0002:0000db18       ??_C@_09ELLNFDPM@directory?$AA@ 00073b18     libeay32:obj_dat.obj
 0002:0000db24       ??_C@_04BAMKDBHE@iana?$AA@ 00073b24     libeay32:obj_dat.obj
 0002:0000db2c       ??_C@_04NMPANDAM@IANA?$AA@ 00073b2c     libeay32:obj_dat.obj
 0002:0000db34       ??_C@_03CIOFGCAJ@dod?$AA@  00073b34     libeay32:obj_dat.obj
 0002:0000db38       ??_C@_03CFBOKPHF@DOD?$AA@  00073b38     libeay32:obj_dat.obj
 0002:0000db3c       ??_C@_03MADHIGOI@org?$AA@  00073b3c     libeay32:obj_dat.obj
 0002:0000db40       ??_C@_03MNMMELJE@ORG?$AA@  00073b40     libeay32:obj_dat.obj
 0002:0000db44       ??_C@_0CA@FIOIBJEO@directory?5services?5?9?5algorithms?$AA@ 00073b44     libeay32:obj_dat.obj
 0002:0000db64       ??_C@_0P@NMIAKCBG@X500algorithms?$AA@ 00073b64     libeay32:obj_dat.obj
 0002:0000db74       ??_C@_0N@JHANBHGC@rsaSignature?$AA@ 00073b74     libeay32:obj_dat.obj
 0002:0000db84       ??_C@_09JPNFBOJG@algorithm?$AA@ 00073b84     libeay32:obj_dat.obj
 0002:0000db90       ??_C@_0L@INBPOG@Trust?5Root?$AA@ 00073b90     libeay32:obj_dat.obj
 0002:0000db9c       ??_C@_09LNEPAILM@trustRoot?$AA@ 00073b9c     libeay32:obj_dat.obj
 0002:0000dba8       ??_C@_04LNEJFJGI@path?$AA@ 00073ba8     libeay32:obj_dat.obj
 0002:0000dbb0       ??_C@_05HDPIMK@valid?$AA@  00073bb0     libeay32:obj_dat.obj
 0002:0000dbb8       ??_C@_0BF@MPEDLKDP@Extended?5OCSP?5Status?$AA@ 00073bb8     libeay32:obj_dat.obj
 0002:0000dbd0       ??_C@_0P@EGENIBNC@extendedStatus?$AA@ 00073bd0     libeay32:obj_dat.obj
 0002:0000dbe0       ??_C@_0BF@CEIKAD@OCSP?5Service?5Locator?$AA@ 00073be0     libeay32:obj_dat.obj
 0002:0000dbf8       ??_C@_0P@LCDAPLHC@serviceLocator?$AA@ 00073bf8     libeay32:obj_dat.obj
 0002:0000dc08       ??_C@_0BE@JAFPABJB@OCSP?5Archive?5Cutoff?$AA@ 00073c08     libeay32:obj_dat.obj
 0002:0000dc1c       ??_C@_0O@FIEDPKGI@archiveCutoff?$AA@ 00073c1c     libeay32:obj_dat.obj
 0002:0000dc2c       ??_C@_0O@HFOALJCG@OCSP?5No?5Check?$AA@ 00073c2c     libeay32:obj_dat.obj
 0002:0000dc3c       ??_C@_07MCKMCKHJ@noCheck?$AA@ 00073c3c     libeay32:obj_dat.obj
 0002:0000dc44       ??_C@_0BK@JKKLNLEI@Acceptable?5OCSP?5Responses?$AA@ 00073c44     libeay32:obj_dat.obj
 0002:0000dc60       ??_C@_0BE@FBPDIHIK@acceptableResponses?$AA@ 00073c60     libeay32:obj_dat.obj
 0002:0000dc74       ??_C@_0M@LCLKJALE@OCSP?5CRL?5ID?$AA@ 00073c74     libeay32:obj_dat.obj
 0002:0000dc80       ??_C@_05NOENOBME@CrlID?$AA@ 00073c80     libeay32:obj_dat.obj
 0002:0000dc88       ??_C@_0L@NCNDEJFL@OCSP?5Nonce?$AA@ 00073c88     libeay32:obj_dat.obj
 0002:0000dc94       ??_C@_05OJOPLPHH@Nonce?$AA@ 00073c94     libeay32:obj_dat.obj
 0002:0000dc9c       ??_C@_0BE@ONEEPEOL@Basic?5OCSP?5Response?$AA@ 00073c9c     libeay32:obj_dat.obj
 0002:0000dcb0       ??_C@_0BC@KFAFMFFF@basicOCSPResponse?$AA@ 00073cb0     libeay32:obj_dat.obj
 0002:0000dcc4       ??_C@_07JCKMJMPC@ad?5dvcs?$AA@ 00073cc4     libeay32:obj_dat.obj
 0002:0000dccc       ??_C@_07JCCJJKFE@AD_DVCS?$AA@ 00073ccc     libeay32:obj_dat.obj
 0002:0000dcd4       ??_C@_0BB@NMPPBOGK@AD?5Time?5Stamping?$AA@ 00073cd4     libeay32:obj_dat.obj
 0002:0000dce8       ??_C@_0BA@PBBONLHE@ad_timestamping?$AA@ 00073ce8     libeay32:obj_dat.obj
 0002:0000dcf8       ??_C@_0BD@DDALHPCH@id?9cct?9PKIResponse?$AA@ 00073cf8     libeay32:obj_dat.obj
 0002:0000dd0c       ??_C@_0P@FNCPPGJO@id?9cct?9PKIData?$AA@ 00073d0c     libeay32:obj_dat.obj
 0002:0000dd1c       ??_C@_0L@CDHPLMPE@id?9cct?9crs?$AA@ 00073d1c     libeay32:obj_dat.obj
 0002:0000dd28       ??_C@_0BH@DJONLBHI@id?9qcs?9pkixQCSyntax?9v1?$AA@ 00073d28     libeay32:obj_dat.obj
 0002:0000dd40       ??_C@_0M@FBOAJIIJ@id?9aca?9role?$AA@ 00073d40     libeay32:obj_dat.obj
 0002:0000dd4c       ??_C@_0N@HOPCGOGP@id?9aca?9group?$AA@ 00073d4c     libeay32:obj_dat.obj
 0002:0000dd5c       ??_C@_0BI@IDHFJBKH@id?9aca?9chargingIdentity?$AA@ 00073d5c     libeay32:obj_dat.obj
 0002:0000dd74       ??_C@_0BG@GFJCFEAI@id?9aca?9accessIdentity?$AA@ 00073d74     libeay32:obj_dat.obj
 0002:0000dd8c       ??_C@_0BK@OFEDAOCA@id?9aca?9authenticationInfo?$AA@ 00073d8c     libeay32:obj_dat.obj
 0002:0000dda8       ??_C@_0BK@BJMNIGCJ@id?9pda?9countryOfResidence?$AA@ 00073da8     libeay32:obj_dat.obj
 0002:0000ddc4       ??_C@_0BM@KMGEGNAB@id?9pda?9countryOfCitizenship?$AA@ 00073dc4     libeay32:obj_dat.obj
 0002:0000dde0       ??_C@_0O@JMCFNPFD@id?9pda?9gender?$AA@ 00073de0     libeay32:obj_dat.obj
 0002:0000ddf0       ??_C@_0BE@NIFFDBPJ@id?9pda?9placeOfBirth?$AA@ 00073df0     libeay32:obj_dat.obj
 0002:0000de04       ??_C@_0BD@BADJMIPF@id?9pda?9dateOfBirth?$AA@ 00073e04     libeay32:obj_dat.obj
 0002:0000de18       ??_C@_0BD@IGLADCFL@id?9on?9personalData?$AA@ 00073e18     libeay32:obj_dat.obj
 0002:0000de2c       ??_C@_0BN@MIGHDJON@id?9cmc?9confirmCertAcceptance?$AA@ 00073e2c     libeay32:obj_dat.obj
 0002:0000de4c       ??_C@_0BG@EEIJMDPB@id?9cmc?9popLinkWitness?$AA@ 00073e4c     libeay32:obj_dat.obj
 0002:0000de64       ??_C@_0BF@GGLCNKGO@id?9cmc?9popLinkRandom?$AA@ 00073e64     libeay32:obj_dat.obj
 0002:0000de7c       ??_C@_0BE@JKLJLIIH@id?9cmc?9queryPending?$AA@ 00073e7c     libeay32:obj_dat.obj
 0002:0000de90       ??_C@_0BE@CKMFMMDP@id?9cmc?9responseInfo?$AA@ 00073e90     libeay32:obj_dat.obj
 0002:0000dea4       ??_C@_0P@PCIOIKNC@id?9cmc?9regInfo?$AA@ 00073ea4     libeay32:obj_dat.obj
 0002:0000deb4       ??_C@_0BF@BOEAJJNI@id?9cmc?9revokeRequest?$AA@ 00073eb4     libeay32:obj_dat.obj
 0002:0000decc       ??_C@_0O@OIGIOBJ@id?9cmc?9getCRL?$AA@ 00073ecc     libeay32:obj_dat.obj
 0002:0000dedc       ??_C@_0P@GMDPJKDO@id?9cmc?9getCert?$AA@ 00073edc     libeay32:obj_dat.obj
 0002:0000deec       ??_C@_0BF@BMODAINP@id?9cmc?9lraPOPWitness?$AA@ 00073eec     libeay32:obj_dat.obj
 0002:0000df04       ??_C@_0BE@KBIPLENG@id?9cmc?9decryptedPOP?$AA@ 00073f04     libeay32:obj_dat.obj
 0002:0000df18       ??_C@_0BE@NILMJFN@id?9cmc?9encryptedPOP?$AA@ 00073f18     libeay32:obj_dat.obj
 0002:0000df2c       ??_C@_0BF@HLOCACJF@id?9cmc?9addExtensions?$AA@ 00073f2c     libeay32:obj_dat.obj
 0002:0000df44       ??_C@_0BG@JLHHNNCH@id?9cmc?9recipientNonce?$AA@ 00073f44     libeay32:obj_dat.obj
 0002:0000df5c       ??_C@_0BD@BCMJDDMP@id?9cmc?9senderNonce?$AA@ 00073f5c     libeay32:obj_dat.obj
 0002:0000df70       ??_C@_0BF@GEJAHBF@id?9cmc?9transactionId?$AA@ 00073f70     libeay32:obj_dat.obj
 0002:0000df88       ??_C@_0BC@LLJKCHEN@id?9cmc?9dataReturn?$AA@ 00073f88     libeay32:obj_dat.obj
 0002:0000df9c       ??_C@_0BF@IDAHNDCK@id?9cmc?9identityProof?$AA@ 00073f9c     libeay32:obj_dat.obj
 0002:0000dfb4       ??_C@_0BG@PPIINOMK@id?9cmc?9identification?$AA@ 00073fb4     libeay32:obj_dat.obj
 0002:0000dfcc       ??_C@_0BC@CMNEPEAI@id?9cmc?9statusInfo?$AA@ 00073fcc     libeay32:obj_dat.obj
 0002:0000dfe0       ??_C@_0O@OBGPPBGA@id?9alg?9dh?9pop?$AA@ 00073fe0     libeay32:obj_dat.obj
 0002:0000dff0       ??_C@_0BI@KIODNBCM@id?9alg?9dh?9sig?9hmac?9sha1?$AA@ 00073ff0     libeay32:obj_dat.obj
 0002:0000e008       ??_C@_0BD@LAAJOBHI@id?9alg?9noSignature?$AA@ 00074008     libeay32:obj_dat.obj
 0002:0000e01c       ??_C@_0N@KIJONBNA@id?9alg?9des40?$AA@ 0007401c     libeay32:obj_dat.obj
 0002:0000e02c       ??_C@_0BD@EEAPBNJJ@id?9regInfo?9certReq?$AA@ 0007402c     libeay32:obj_dat.obj
 0002:0000e040       ??_C@_0BF@FHFGHAHE@id?9regInfo?9utf8Pairs?$AA@ 00074040     libeay32:obj_dat.obj
 0002:0000e058       ??_C@_0BL@GHBPLPHM@id?9regCtrl?9protocolEncrKey?$AA@ 00074058     libeay32:obj_dat.obj
 0002:0000e074       ??_C@_0BF@GFJPNJIG@id?9regCtrl?9oldCertID?$AA@ 00074074     libeay32:obj_dat.obj
 0002:0000e08c       ??_C@_0BN@ONKHMAOP@id?9regCtrl?9pkiArchiveOptions?$AA@ 0007408c     libeay32:obj_dat.obj
 0002:0000e0ac       ??_C@_0BO@GJKPPLPL@id?9regCtrl?9pkiPublicationInfo?$AA@ 000740ac     libeay32:obj_dat.obj
 0002:0000e0cc       ??_C@_0BJ@FBKKLLKP@id?9regCtrl?9authenticator?$AA@ 000740cc     libeay32:obj_dat.obj
 0002:0000e0e8       ??_C@_0BE@JDMKCIPE@id?9regCtrl?9regToken?$AA@ 000740e8     libeay32:obj_dat.obj
 0002:0000e0fc       ??_C@_0L@BGHMJHOP@id?9regInfo?$AA@ 000740fc     libeay32:obj_dat.obj
 0002:0000e108       ??_C@_0L@FDGKGANK@id?9regCtrl?$AA@ 00074108     libeay32:obj_dat.obj
 0002:0000e114       ??_C@_0BF@CLCJJGFI@id?9it?9origPKIMessage?$AA@ 00074114     libeay32:obj_dat.obj
 0002:0000e12c       ??_C@_0BG@KCBHNMIK@id?9it?9confirmWaitTime?$AA@ 0007412c     libeay32:obj_dat.obj
 0002:0000e144       ??_C@_0BG@MKDHCJKF@id?9it?9implicitConfirm?$AA@ 00074144     libeay32:obj_dat.obj
 0002:0000e15c       ??_C@_0BE@FOOOCPMH@id?9it?9revPassphrase?$AA@ 0007415c     libeay32:obj_dat.obj
 0002:0000e170       ??_C@_0BG@KPIIFBLH@id?9it?9keyPairParamRep?$AA@ 00074170     libeay32:obj_dat.obj
 0002:0000e188       ??_C@_0BG@LGJDGAPG@id?9it?9keyPairParamReq?$AA@ 00074188     libeay32:obj_dat.obj
 0002:0000e1a0       ??_C@_0BL@HBPHBFLO@id?9it?9subscriptionResponse?$AA@ 000741a0     libeay32:obj_dat.obj
 0002:0000e1bc       ??_C@_0BK@MKGCMKGI@id?9it?9subscriptionRequest?$AA@ 000741bc     libeay32:obj_dat.obj
 0002:0000e1d8       ??_C@_0BG@BPLKDJPD@id?9it?9unsupportedOIDs?$AA@ 000741d8     libeay32:obj_dat.obj
 0002:0000e1f0       ??_C@_0BB@NHKBGJFG@id?9it?9currentCRL?$AA@ 000741f0     libeay32:obj_dat.obj
 0002:0000e204       ??_C@_0BG@OAKEHPLC@id?9it?9caKeyUpdateInfo?$AA@ 00074204     libeay32:obj_dat.obj
 0002:0000e21c       ??_C@_0BH@JFBOPDCH@id?9it?9preferredSymmAlg?$AA@ 0007421c     libeay32:obj_dat.obj
 0002:0000e234       ??_C@_0BG@FKIDIODL@id?9it?9encKeyPairTypes?$AA@ 00074234     libeay32:obj_dat.obj
 0002:0000e24c       ??_C@_0BH@POCENFBA@id?9it?9signKeyPairTypes?$AA@ 0007424c     libeay32:obj_dat.obj
 0002:0000e264       ??_C@_0BE@GJACIPND@id?9it?9caProtEncCert?$AA@ 00074264     libeay32:obj_dat.obj
 0002:0000e278       ??_C@_04FFLIHJGD@dvcs?$AA@ 00074278     libeay32:obj_dat.obj
 0002:0000e280       ??_C@_04JJICJLBL@DVCS?$AA@ 00074280     libeay32:obj_dat.obj
 0002:0000e288       ??_C@_0L@DECDDCGF@IPSec?5User?$AA@ 00074288     libeay32:obj_dat.obj
 0002:0000e294       ??_C@_09GOHJKOFF@ipsecUser?$AA@ 00074294     libeay32:obj_dat.obj
 0002:0000e2a0       ??_C@_0N@EKDIOGLO@IPSec?5Tunnel?$AA@ 000742a0     libeay32:obj_dat.obj
 0002:0000e2b0       ??_C@_0M@GMMHFFHI@ipsecTunnel?$AA@ 000742b0     libeay32:obj_dat.obj
 0002:0000e2bc       ??_C@_0BB@JEJDAICO@IPSec?5End?5System?$AA@ 000742bc     libeay32:obj_dat.obj
 0002:0000e2d0       ??_C@_0P@MKBFMAPP@ipsecEndSystem?$AA@ 000742d0     libeay32:obj_dat.obj
 0002:0000e2e0       ??_C@_0L@HLNNPJEH@textNotice?$AA@ 000742e0     libeay32:obj_dat.obj
 0002:0000e2ec       ??_C@_0BG@JCJJBMAI@sbgp?9routerIdentifier?$AA@ 000742ec     libeay32:obj_dat.obj
 0002:0000e304       ??_C@_0BG@OJEHJDKA@sbgp?9autonomousSysNum?$AA@ 00074304     libeay32:obj_dat.obj
 0002:0000e31c       ??_C@_0BB@NNCKCHBC@sbgp?9ipAddrBlock?$AA@ 0007431c     libeay32:obj_dat.obj
 0002:0000e330       ??_C@_0L@DLGBNBJE@aaControls?$AA@ 00074330     libeay32:obj_dat.obj
 0002:0000e33c       ??_C@_0N@FPEEOJCI@ac?9targeting?$AA@ 0007433c     libeay32:obj_dat.obj
 0002:0000e34c       ??_C@_0P@CIOHPJGC@ac?9auditEntity?$AA@ 0007434c     libeay32:obj_dat.obj
 0002:0000e35c       ??_C@_0N@FPMNLLM@qcStatements?$AA@ 0007435c     libeay32:obj_dat.obj
 0002:0000e36c       ??_C@_0P@KFKDECPH@Biometric?5Info?$AA@ 0007436c     libeay32:obj_dat.obj
 0002:0000e37c       ??_C@_0O@MPIIPAHM@biometricInfo?$AA@ 0007437c     libeay32:obj_dat.obj
 0002:0000e38c       ??_C@_0P@MMOAAMFD@id?9mod?9cmp2000?$AA@ 0007438c     libeay32:obj_dat.obj
 0002:0000e39c       ??_C@_0M@GHDGNJKI@id?9mod?9dvcs?$AA@ 0007439c     libeay32:obj_dat.obj
 0002:0000e3a8       ??_C@_0M@EACKLPKH@id?9mod?9ocsp?$AA@ 000743a8     libeay32:obj_dat.obj
 0002:0000e3b4       ??_C@_0BK@GAJOODEK@id?9mod?9timestamp?9protocol?$AA@ 000743b4     libeay32:obj_dat.obj
 0002:0000e3d0       ??_C@_0BG@EPPFBJNH@id?9mod?9attribute?9cert?$AA@ 000743d0     libeay32:obj_dat.obj
 0002:0000e3e8       ??_C@_0BJ@IGODAJIK@id?9mod?9qualified?9cert?993?$AA@ 000743e8     libeay32:obj_dat.obj
 0002:0000e404       ??_C@_0BJ@GENFLKHG@id?9mod?9qualified?9cert?988?$AA@ 00074404     libeay32:obj_dat.obj
 0002:0000e420       ??_C@_0L@MONEHBKH@id?9mod?9cmp?$AA@ 00074420     libeay32:obj_dat.obj
 0002:0000e42c       ??_C@_0BG@NAFGGBFM@id?9mod?9kea?9profile?993?$AA@ 0007442c     libeay32:obj_dat.obj
 0002:0000e444       ??_C@_0BG@DCGANCKA@id?9mod?9kea?9profile?988?$AA@ 00074444     libeay32:obj_dat.obj
 0002:0000e45c       ??_C@_0L@KPDLDADF@id?9mod?9cmc?$AA@ 0007445c     libeay32:obj_dat.obj
 0002:0000e468       ??_C@_0M@GHFPFJPB@id?9mod?9crmf?$AA@ 00074468     libeay32:obj_dat.obj
 0002:0000e474       ??_C@_0BF@EOKAKKIK@id?9pkix1?9implicit?993?$AA@ 00074474     libeay32:obj_dat.obj
 0002:0000e48c       ??_C@_0BF@JEALIPIC@id?9pkix1?9explicit?993?$AA@ 0007448c     libeay32:obj_dat.obj
 0002:0000e4a4       ??_C@_0BF@KMJGBJHG@id?9pkix1?9implicit?988?$AA@ 000744a4     libeay32:obj_dat.obj
 0002:0000e4bc       ??_C@_0BF@HGDNDMHO@id?9pkix1?9explicit?988?$AA@ 000744bc     libeay32:obj_dat.obj
 0002:0000e4d4       ??_C@_06PONIBOCI@id?9cct?$AA@ 000744d4     libeay32:obj_dat.obj
 0002:0000e4dc       ??_C@_06ELIJBHPL@id?9qcs?$AA@ 000744dc     libeay32:obj_dat.obj
 0002:0000e4e4       ??_C@_06GDGEDALH@id?9aca?$AA@ 000744e4     libeay32:obj_dat.obj
 0002:0000e4ec       ??_C@_06IOIOBGMI@id?9pda?$AA@ 000744ec     libeay32:obj_dat.obj
 0002:0000e4f4       ??_C@_05OHNJGMJE@id?9on?$AA@ 000744f4     libeay32:obj_dat.obj
 0002:0000e4fc       ??_C@_06PBMFLHLE@id?9cmc?$AA@ 000744fc     libeay32:obj_dat.obj
 0002:0000e504       ??_C@_06DOGCNAAM@id?9alg?$AA@ 00074504     libeay32:obj_dat.obj
 0002:0000e50c       ??_C@_07OMHOPMIM@id?9pkip?$AA@ 0007450c     libeay32:obj_dat.obj
 0002:0000e514       ??_C@_05FDHJOKPN@id?9it?$AA@ 00074514     libeay32:obj_dat.obj
 0002:0000e51c       ??_C@_05EBEMBIDF@id?9qt?$AA@ 0007451c     libeay32:obj_dat.obj
 0002:0000e524       ??_C@_0M@FNAFBNKE@id?9pkix?9mod?$AA@ 00074524     libeay32:obj_dat.obj
 0002:0000e530       ??_C@_03ODADJPDG@md4?$AA@  00074530     libeay32:obj_dat.obj
 0002:0000e534       ??_C@_03HLHMHGOI@MD4?$AA@  00074534     libeay32:obj_dat.obj
 0002:0000e538       ??_C@_0CB@MICJDGGH@id?9smime?9cti?9ets?9proofOfCreation@ 00074538     libeay32:obj_dat.obj
 0002:0000e55c       ??_C@_0CB@DDLMHEBC@id?9smime?9cti?9ets?9proofOfApproval@ 0007455c     libeay32:obj_dat.obj
 0002:0000e580       ??_C@_0BP@ODCAFFCM@id?9smime?9cti?9ets?9proofOfSender?$AA@ 00074580     libeay32:obj_dat.obj
 0002:0000e5a0       ??_C@_0CB@ICJGPMEP@id?9smime?9cti?9ets?9proofOfDelivery@ 000745a0     libeay32:obj_dat.obj
 0002:0000e5c4       ??_C@_0CA@HNGOKBGC@id?9smime?9cti?9ets?9proofOfReceipt?$AA@ 000745c4     libeay32:obj_dat.obj
 0002:0000e5e4       ??_C@_0BP@BCHFEGHC@id?9smime?9cti?9ets?9proofOfOrigin?$AA@ 000745e4     libeay32:obj_dat.obj
 0002:0000e604       ??_C@_0BN@GPAAHNOH@id?9smime?9spq?9ets?9sqt?9unotice?$AA@ 00074604     libeay32:obj_dat.obj
 0002:0000e624       ??_C@_0BJ@IMNKDGEG@id?9smime?9spq?9ets?9sqt?9uri?$AA@ 00074624     libeay32:obj_dat.obj
 0002:0000e640       ??_C@_0BB@BMOBKAGE@id?9smime?9cd?9ldap?$AA@ 00074640     libeay32:obj_dat.obj
 0002:0000e654       ??_C@_0BI@FIFDKKFJ@id?9smime?9alg?9CMSRC2wrap?$AA@ 00074654     libeay32:obj_dat.obj
 0002:0000e66c       ??_C@_0BJ@FOFHEIDB@id?9smime?9alg?9CMS3DESwrap?$AA@ 0007466c     libeay32:obj_dat.obj
 0002:0000e688       ??_C@_0BC@COOODKPD@id?9smime?9alg?9ESDH?$AA@ 00074688     libeay32:obj_dat.obj
 0002:0000e69c       ??_C@_0BF@JNCPAJCA@id?9smime?9alg?9RC2wrap?$AA@ 0007469c     libeay32:obj_dat.obj
 0002:0000e6b4       ??_C@_0BG@HHELPNAK@id?9smime?9alg?93DESwrap?$AA@ 000746b4     libeay32:obj_dat.obj
 0002:0000e6cc       ??_C@_0BJ@FIJMOHBJ@id?9smime?9alg?9ESDHwithRC2?$AA@ 000746cc     libeay32:obj_dat.obj
 0002:0000e6e8       ??_C@_0BK@JNJOCCCB@id?9smime?9alg?9ESDHwith3DES?$AA@ 000746e8     libeay32:obj_dat.obj
 0002:0000e704       ??_C@_0BF@KEMAMBKF@id?9smime?9aa?9dvcs?9dvc?$AA@ 00074704     libeay32:obj_dat.obj
 0002:0000e71c       ??_C@_0BK@HDBIPLFI@id?9smime?9aa?9signatureType?$AA@ 0007471c     libeay32:obj_dat.obj
 0002:0000e738       ??_C@_0CB@BEMKNJGO@id?9smime?9aa?9ets?9archiveTimeStamp@ 00074738     libeay32:obj_dat.obj
 0002:0000e75c       ??_C@_0CB@CJNBPJE@id?9smime?9aa?9ets?9certCRLTimestamp@ 0007475c     libeay32:obj_dat.obj
 0002:0000e780       ??_C@_0BN@HGLOGOFI@id?9smime?9aa?9ets?9escTimeStamp?$AA@ 00074780     libeay32:obj_dat.obj
 0002:0000e7a0       ??_C@_0CB@GOCEFPFO@id?9smime?9aa?9ets?9revocationValues@ 000747a0     libeay32:obj_dat.obj
 0002:0000e7c4       ??_C@_0BL@IFKOLDIG@id?9smime?9aa?9ets?9certValues?$AA@ 000747c4     libeay32:obj_dat.obj
 0002:0000e7e0       ??_C@_0BP@BCHJHNFO@id?9smime?9aa?9ets?9RevocationRefs?$AA@ 000747e0     libeay32:obj_dat.obj
 0002:0000e800       ??_C@_0CA@NKIOCHLG@id?9smime?9aa?9ets?9CertificateRefs?$AA@ 00074800     libeay32:obj_dat.obj
 0002:0000e820       ??_C@_0CB@GHKINGOH@id?9smime?9aa?9ets?9contentTimestamp@ 00074820     libeay32:obj_dat.obj
 0002:0000e844       ??_C@_0BN@JFIFOPBH@id?9smime?9aa?9ets?9otherSigCert?$AA@ 00074844     libeay32:obj_dat.obj
 0002:0000e864       ??_C@_0BL@KDJDAGDC@id?9smime?9aa?9ets?9signerAttr?$AA@ 00074864     libeay32:obj_dat.obj
 0002:0000e880       ??_C@_0BP@EODAELPO@id?9smime?9aa?9ets?9signerLocation?$AA@ 00074880     libeay32:obj_dat.obj
 0002:0000e8a0       ??_C@_0BP@OLIFPEIM@id?9smime?9aa?9ets?9commitmentType?$AA@ 000748a0     libeay32:obj_dat.obj
 0002:0000e8c0       ??_C@_0BM@GKFMJCFL@id?9smime?9aa?9ets?9sigPolicyId?$AA@ 000748c0     libeay32:obj_dat.obj
 0002:0000e8dc       ??_C@_0BL@DHJOIJNE@id?9smime?9aa?9timeStampToken?$AA@ 000748dc     libeay32:obj_dat.obj
 0002:0000e8f8       ??_C@_0BO@CEEOANBD@id?9smime?9aa?9smimeEncryptCerts?$AA@ 000748f8     libeay32:obj_dat.obj
 0002:0000e918       ??_C@_0BP@LHGJLGIB@id?9smime?9aa?9signingCertificate?$AA@ 00074918     libeay32:obj_dat.obj
 0002:0000e938       ??_C@_0BK@LAPEFMP@id?9smime?9aa?9encrypKeyPref?$AA@ 00074938     libeay32:obj_dat.obj
 0002:0000e954       ??_C@_0BN@LEFAEFL@id?9smime?9aa?9contentReference?$AA@ 00074954     libeay32:obj_dat.obj
 0002:0000e974       ??_C@_0BN@NFAAOKEA@id?9smime?9aa?9equivalentLabels?$AA@ 00074974     libeay32:obj_dat.obj
 0002:0000e994       ??_C@_0BF@CFNHFPDB@id?9smime?9aa?9macValue?$AA@ 00074994     libeay32:obj_dat.obj
 0002:0000e9ac       ??_C@_0BO@KMJGIAMK@id?9smime?9aa?9contentIdentifier?$AA@ 000749ac     libeay32:obj_dat.obj
 0002:0000e9cc       ??_C@_0BN@GCCNOJCG@id?9smime?9aa?9encapContentType?$AA@ 000749cc     libeay32:obj_dat.obj
 0002:0000e9ec       ??_C@_0BJ@LJLDKMDH@id?9smime?9aa?9msgSigDigest?$AA@ 000749ec     libeay32:obj_dat.obj
 0002:0000ea08       ??_C@_0BI@EMGPJFHB@id?9smime?9aa?9contentHint?$AA@ 00074a08     libeay32:obj_dat.obj
 0002:0000ea20       ??_C@_0BM@OEKGBMLE@id?9smime?9aa?9mlExpandHistory?$AA@ 00074a20     libeay32:obj_dat.obj
 0002:0000ea3c       ??_C@_0BK@DNJNJILO@id?9smime?9aa?9securityLabel?$AA@ 00074a3c     libeay32:obj_dat.obj
 0002:0000ea58       ??_C@_0BL@LMGNMPFD@id?9smime?9aa?9receiptRequest?$AA@ 00074a58     libeay32:obj_dat.obj
 0002:0000ea74       ??_C@_0BN@POKJLKJJ@id?9smime?9ct?9DVCSResponseData?$AA@ 00074a74     libeay32:obj_dat.obj
 0002:0000ea94       ??_C@_0BM@MFKPCEGN@id?9smime?9ct?9DVCSRequestData?$AA@ 00074a94     libeay32:obj_dat.obj
 0002:0000eab0       ??_C@_0BI@BGKPNMK@id?9smime?9ct?9contentInfo?$AA@ 00074ab0     libeay32:obj_dat.obj
 0002:0000eac8       ??_C@_0BE@FKPPBHI@id?9smime?9ct?9TDTInfo?$AA@ 00074ac8     libeay32:obj_dat.obj
 0002:0000eadc       ??_C@_0BE@KHNGFDDI@id?9smime?9ct?9TSTInfo?$AA@ 00074adc     libeay32:obj_dat.obj
 0002:0000eaf0       ??_C@_0BI@DBILCLFJ@id?9smime?9ct?9publishCert?$AA@ 00074af0     libeay32:obj_dat.obj
 0002:0000eb08       ??_C@_0BF@KGEHGOF@id?9smime?9ct?9authData?$AA@ 00074b08     libeay32:obj_dat.obj
 0002:0000eb20       ??_C@_0BE@GCHIHBHA@id?9smime?9ct?9receipt?$AA@ 00074b20     libeay32:obj_dat.obj
 0002:0000eb34       ??_C@_0BP@CCCOHHAI@id?9smime?9mod?9ets?9eSigPolicy?997?$AA@ 00074b34     libeay32:obj_dat.obj
 0002:0000eb54       ??_C@_0BP@KEHEABPA@id?9smime?9mod?9ets?9eSigPolicy?988?$AA@ 00074b54     libeay32:obj_dat.obj
 0002:0000eb74       ??_C@_0BP@POGMGJII@id?9smime?9mod?9ets?9eSignature?997?$AA@ 00074b74     libeay32:obj_dat.obj
 0002:0000eb94       ??_C@_0BP@HIDGBPHA@id?9smime?9mod?9ets?9eSignature?988?$AA@ 00074b94     libeay32:obj_dat.obj
 0002:0000ebb4       ??_C@_0BE@PEENABNJ@id?9smime?9mod?9msg?9v3?$AA@ 00074bb4     libeay32:obj_dat.obj
 0002:0000ebc8       ??_C@_0BB@LBBEMNBN@id?9smime?9mod?9oid?$AA@ 00074bc8     libeay32:obj_dat.obj
 0002:0000ebdc       ??_C@_0BB@MKJLIPEJ@id?9smime?9mod?9ess?$AA@ 00074bdc     libeay32:obj_dat.obj
 0002:0000ebf0       ??_C@_0BB@PJEIFOOP@id?9smime?9mod?9cms?$AA@ 00074bf0     libeay32:obj_dat.obj
 0002:0000ec04       ??_C@_0N@CFBKAPGC@id?9smime?9cti?$AA@ 00074c04     libeay32:obj_dat.obj
 0002:0000ec14       ??_C@_0N@PABBGIHI@id?9smime?9spq?$AA@ 00074c14     libeay32:obj_dat.obj
 0002:0000ec24       ??_C@_0M@LHBAJBP@id?9smime?9cd?$AA@ 00074c24     libeay32:obj_dat.obj
 0002:0000ec30       ??_C@_0N@DKFBIKP@id?9smime?9alg?$AA@ 00074c30     libeay32:obj_dat.obj
 0002:0000ec40       ??_C@_0M@HFICCJDE@id?9smime?9aa?$AA@ 00074c40     libeay32:obj_dat.obj
 0002:0000ec4c       ??_C@_0M@EBLDBLEO@id?9smime?9ct?$AA@ 00074c4c     libeay32:obj_dat.obj
 0002:0000ec58       ??_C@_0N@GABIEKIN@id?9smime?9mod?$AA@ 00074c58     libeay32:obj_dat.obj
 0002:0000ec68       ??_C@_06DFGHEKNE@S?1MIME?$AA@ 00074c68     libeay32:obj_dat.obj
 0002:0000ec70       ??_C@_05HHBEAKJJ@SMIME?$AA@ 00074c70     libeay32:obj_dat.obj
 0002:0000ec78       ??_C@_05HGOIFJJD@pkcs5?$AA@ 00074c78     libeay32:obj_dat.obj
 0002:0000ec80       ??_C@_0L@DJCLIPOH@X9?457?5CM?5?$DP?$AA@ 00074c80     libeay32:obj_dat.obj
 0002:0000ec8c       ??_C@_04CGFPFLFA@X9cm?$AA@ 00074c8c     libeay32:obj_dat.obj
 0002:0000ec94       ??_C@_05PAJLFBHD@X9?457?$AA@ 00074c94     libeay32:obj_dat.obj
 0002:0000ec9c       ??_C@_05OCCOPOJN@X9?957?$AA@ 00074c9c     libeay32:obj_dat.obj
 0002:0000eca4       ??_C@_0BD@NMCDOJHL@ISO?5US?5Member?5Body?$AA@ 00074ca4     libeay32:obj_dat.obj
 0002:0000ecb8       ??_C@_06EKAADAMF@ISO?9US?$AA@ 00074cb8     libeay32:obj_dat.obj
 0002:0000ecc0       ??_C@_0BA@BGDAEHGF@ISO?5Member?5Body?$AA@ 00074cc0     libeay32:obj_dat.obj
 0002:0000ecd0       ??_C@_0M@CMICFDOA@member?9body?$AA@ 00074cd0     libeay32:obj_dat.obj
 0002:0000ecdc       ??_C@_03CMEHDJAL@iso?$AA@  00074cdc     libeay32:obj_dat.obj
 0002:0000ece0       ??_C@_03CBLMPEHH@ISO?$AA@  00074ce0     libeay32:obj_dat.obj
 0002:0000ece4       ??_C@_0N@CPJNIPDD@OCSP?5Signing?$AA@ 00074ce4     libeay32:obj_dat.obj
 0002:0000ecf4       ??_C@_0M@HBKJLKNM@OCSPSigning?$AA@ 00074cf4     libeay32:obj_dat.obj
 0002:0000ed00       ??_C@_0L@CABCENFK@CA?5Issuers?$AA@ 00074d00     libeay32:obj_dat.obj
 0002:0000ed0c       ??_C@_09GFPECPIH@caIssuers?$AA@ 00074d0c     libeay32:obj_dat.obj
 0002:0000ed18       ??_C@_04LOJOPNBE@OCSP?$AA@ 00074d18     libeay32:obj_dat.obj
 0002:0000ed20       ??_C@_0BN@EILCOJAN@Authority?5Information?5Access?$AA@ 00074d20     libeay32:obj_dat.obj
 0002:0000ed40       ??_C@_0BE@PLCGCINM@authorityInfoAccess?$AA@ 00074d40     libeay32:obj_dat.obj
 0002:0000ed54       ??_C@_05BHKIKJBE@id?9ad?$AA@ 00074d54     libeay32:obj_dat.obj
 0002:0000ed5c       ??_C@_05BDFHFBBC@id?9pe?$AA@ 00074d5c     libeay32:obj_dat.obj
 0002:0000ed64       ??_C@_0M@DNNLEIMI@dnQualifier?$AA@ 00074d64     libeay32:obj_dat.obj
 0002:0000ed70       ??_C@_04MEMAJGDJ@name?$AA@ 00074d70     libeay32:obj_dat.obj
 0002:0000ed78       ??_C@_0BC@GLHEKHCC@Extension?5Request?$AA@ 00074d78     libeay32:obj_dat.obj
 0002:0000ed8c       ??_C@_06EJACAMDF@extReq?$AA@ 00074d8c     libeay32:obj_dat.obj
 0002:0000ed94       ??_C@_0BM@MEJAMAEO@Microsoft?5Extension?5Request?$AA@ 00074d94     libeay32:obj_dat.obj
 0002:0000edb0       ??_C@_08HCCJAOPJ@msExtReq?$AA@ 00074db0     libeay32:obj_dat.obj
 0002:0000edbc       ??_C@_0BG@JLHBEJLP@pbeWithSHA1AndDES?9CBC?$AA@ 00074dbc     libeay32:obj_dat.obj
 0002:0000edd4       ??_C@_0N@GOPIPBOD@PBE?9SHA1?9DES?$AA@ 00074dd4     libeay32:obj_dat.obj
 0002:0000ede4       ??_C@_0BF@CKDLCJKD@pbeWithMD5AndRC2?9CBC?$AA@ 00074de4     libeay32:obj_dat.obj
 0002:0000edfc       ??_C@_0P@IDPFKEHM@PBE?9MD5?9RC2?964?$AA@ 00074dfc     libeay32:obj_dat.obj
 0002:0000ee0c       ??_C@_0BF@FOKDMACM@pbeWithMD2AndRC2?9CBC?$AA@ 00074e0c     libeay32:obj_dat.obj
 0002:0000ee24       ??_C@_0P@OHJEMJLF@PBE?9MD2?9RC2?964?$AA@ 00074e24     libeay32:obj_dat.obj
 0002:0000ee34       ??_C@_0BE@CEEFMCAI@S?1MIME?5Capabilities?$AA@ 00074e34     libeay32:obj_dat.obj
 0002:0000ee48       ??_C@_0L@LCBJGKJG@SMIME?9CAPS?$AA@ 00074e48     libeay32:obj_dat.obj
 0002:0000ee54       ??_C@_0L@CLELMECA@rc2?964?9cbc?$AA@ 00074e54     libeay32:obj_dat.obj
 0002:0000ee60       ??_C@_0L@OPHBIFFL@RC2?964?9CBC?$AA@ 00074e60     libeay32:obj_dat.obj
 0002:0000ee6c       ??_C@_0BN@KPMBKEE@Policy?5Qualifier?5User?5Notice?$AA@ 00074e6c     libeay32:obj_dat.obj
 0002:0000ee8c       ??_C@_0O@CJFHFAHE@id?9qt?9unotice?$AA@ 00074e8c     libeay32:obj_dat.obj
 0002:0000ee9c       ??_C@_0BF@HPKIKKPI@Policy?5Qualifier?5CPS?$AA@ 00074e9c     libeay32:obj_dat.obj
 0002:0000eeb4       ??_C@_09MIPGHKGJ@id?9qt?9cps?$AA@ 00074eb4     libeay32:obj_dat.obj
 0002:0000eec0       ??_C@_0N@KANOAIP@hmacWithSHA1?$AA@ 00074ec0     libeay32:obj_dat.obj
 0002:0000eed0       ??_C@_06DEJMPFNK@PBMAC1?$AA@ 00074ed0     libeay32:obj_dat.obj
 0002:0000eed8       ??_C@_05EPMADBBF@PBES2?$AA@ 00074ed8     libeay32:obj_dat.obj
 0002:0000eee0       ??_C@_07KAOEJCFK@x509Crl?$AA@ 00074ee0     libeay32:obj_dat.obj
 0002:0000eee8       ??_C@_0BA@BFAOBDKH@sdsiCertificate?$AA@ 00074ee8     libeay32:obj_dat.obj
 0002:0000eef8       ??_C@_0BA@EMOFOCJL@x509Certificate?$AA@ 00074ef8     libeay32:obj_dat.obj
 0002:0000ef08       ??_C@_0L@BCMHPPAO@localKeyID?$AA@ 00074f08     libeay32:obj_dat.obj
 0002:0000ef14       ??_C@_0N@BGFMPLCM@friendlyName?$AA@ 00074f14     libeay32:obj_dat.obj
 0002:0000ef24       ??_C@_0BA@KAKLKBBC@safeContentsBag?$AA@ 00074f24     libeay32:obj_dat.obj
 0002:0000ef34       ??_C@_09DELDBPIE@secretBag?$AA@ 00074f34     libeay32:obj_dat.obj
 0002:0000ef40       ??_C@_06JAFBIMLO@crlBag?$AA@ 00074f40     libeay32:obj_dat.obj
 0002:0000ef48       ??_C@_07FDLMCII@certBag?$AA@ 00074f48     libeay32:obj_dat.obj
 0002:0000ef50       ??_C@_0BE@ELJKIANF@pkcs8ShroudedKeyBag?$AA@ 00074f50     libeay32:obj_dat.obj
 0002:0000ef64       ??_C@_06BFGNOIAI@keyBag?$AA@ 00074f64     libeay32:obj_dat.obj
 0002:0000ef6c       ??_C@_0BL@CKNKIMON@pbeWithSHA1And40BitRC2?9CBC?$AA@ 00074f6c     libeay32:obj_dat.obj
 0002:0000ef88       ??_C@_0BA@MNBMNMAN@PBE?9SHA1?9RC2?940?$AA@ 00074f88     libeay32:obj_dat.obj
 0002:0000ef98       ??_C@_0BM@DOLDINME@pbeWithSHA1And128BitRC2?9CBC?$AA@ 00074f98     libeay32:obj_dat.obj
 0002:0000efb4       ??_C@_0BB@FNLJPIMG@PBE?9SHA1?9RC2?9128?$AA@ 00074fb4     libeay32:obj_dat.obj
 0002:0000efc8       ??_C@_0CB@NCMPKEGH@pbeWithSHA1And2?9KeyTripleDES?9CBC@ 00074fc8     libeay32:obj_dat.obj
 0002:0000efec       ??_C@_0O@HOHOOIGM@PBE?9SHA1?92DES?$AA@ 00074fec     libeay32:obj_dat.obj
 0002:0000effc       ??_C@_0CB@FCNCEDP@pbeWithSHA1And3?9KeyTripleDES?9CBC@ 00074ffc     libeay32:obj_dat.obj
 0002:0000f020       ??_C@_0O@EDBOMBNM@PBE?9SHA1?93DES?$AA@ 00075020     libeay32:obj_dat.obj
 0002:0000f030       ??_C@_0BH@OCAEJMIL@pbeWithSHA1And40BitRC4?$AA@ 00075030     libeay32:obj_dat.obj
 0002:0000f048       ??_C@_0BA@ECFMCJKN@PBE?9SHA1?9RC4?940?$AA@ 00075048     libeay32:obj_dat.obj
 0002:0000f058       ??_C@_0BI@LBIFCLPB@pbeWithSHA1And128BitRC4?$AA@ 00075058     libeay32:obj_dat.obj
 0002:0000f070       ??_C@_0BB@ILOABLNL@PBE?9SHA1?9RC4?9128?$AA@ 00075070     libeay32:obj_dat.obj
 0002:0000f084       ??_C@_0BD@PNDCMCDK@Strong?5Extranet?5ID?$AA@ 00075084     libeay32:obj_dat.obj
 0002:0000f098       ??_C@_07DKMNOLMH@SXNetID?$AA@ 00075098     libeay32:obj_dat.obj
 0002:0000f0a0       ??_C@_0BA@JDBEMONE@Invalidity?5Date?$AA@ 000750a0     libeay32:obj_dat.obj
 0002:0000f0b0       ??_C@_0P@BKEGCOMO@invalidityDate?$AA@ 000750b0     libeay32:obj_dat.obj
 0002:0000f0c0       ??_C@_0BH@GODIEFKG@X509v3?5CRL?5Reason?5Code?$AA@ 000750c0     libeay32:obj_dat.obj
 0002:0000f0d8       ??_C@_09MCDAGILE@CRLReason?$AA@ 000750d8     libeay32:obj_dat.obj
 0002:0000f0e4       ??_C@_0BL@HLNLPBHP@X509v3?5Delta?5CRL?5Indicator?$AA@ 000750e4     libeay32:obj_dat.obj
 0002:0000f100       ??_C@_08ECNAKPJJ@deltaCRL?$AA@ 00075100     libeay32:obj_dat.obj
 0002:0000f10c       ??_C@_0BN@MDNLHLBL@Netscape?5Server?5Gated?5Crypto?$AA@ 0007510c     libeay32:obj_dat.obj
 0002:0000f12c       ??_C@_05LFIIINKG@nsSGC?$AA@ 0007512c     libeay32:obj_dat.obj
 0002:0000f134       ??_C@_0CA@IJODBCMB@Microsoft?5Encrypted?5File?5System?$AA@ 00075134     libeay32:obj_dat.obj
 0002:0000f154       ??_C@_05NGOIPCN@msEFS?$AA@ 00075154     libeay32:obj_dat.obj
 0002:0000f15c       ??_C@_0BO@FBDDCLK@Microsoft?5Server?5Gated?5Crypto?$AA@ 0007515c     libeay32:obj_dat.obj
 0002:0000f17c       ??_C@_05DDBMPPAI@msSGC?$AA@ 0007517c     libeay32:obj_dat.obj
 0002:0000f184       ??_C@_0BN@GNMCHNOI@Microsoft?5Trust?5List?5Signing?$AA@ 00075184     libeay32:obj_dat.obj
 0002:0000f1a4       ??_C@_09HGCLLDPK@msCTLSign?$AA@ 000751a4     libeay32:obj_dat.obj
 0002:0000f1b0       ??_C@_0CC@GKFNEBFA@Microsoft?5Commercial?5Code?5Signin@ 000751b0     libeay32:obj_dat.obj
 0002:0000f1d4       ??_C@_09PDGAMFAO@msCodeCom?$AA@ 000751d4     libeay32:obj_dat.obj
 0002:0000f1e0       ??_C@_0CC@NDDHKAMP@Microsoft?5Individual?5Code?5Signin@ 000751e0     libeay32:obj_dat.obj
 0002:0000f204       ??_C@_09EMNNPEBE@msCodeInd?$AA@ 00075204     libeay32:obj_dat.obj
 0002:0000f210       ??_C@_0O@GMMBLMEE@Time?5Stamping?$AA@ 00075210     libeay32:obj_dat.obj
 0002:0000f220       ??_C@_0N@LONEBHPN@timeStamping?$AA@ 00075220     libeay32:obj_dat.obj
 0002:0000f230       ??_C@_0BC@BLBGFKKG@E?9mail?5Protection?$AA@ 00075230     libeay32:obj_dat.obj
 0002:0000f244       ??_C@_0BA@NPCFDPCO@emailProtection?$AA@ 00075244     libeay32:obj_dat.obj
 0002:0000f254       ??_C@_0N@CHJHLHFC@Code?5Signing?$AA@ 00075254     libeay32:obj_dat.obj
 0002:0000f264       ??_C@_0M@OJNCNGJ@codeSigning?$AA@ 00075264     libeay32:obj_dat.obj
 0002:0000f270       ??_C@_0BO@FEMCBEOF@TLS?5Web?5Client?5Authentication?$AA@ 00075270     libeay32:obj_dat.obj
 0002:0000f290       ??_C@_0L@HCMKLLOP@clientAuth?$AA@ 00075290     libeay32:obj_dat.obj
 0002:0000f29c       ??_C@_0BO@HPFOJNNE@TLS?5Web?5Server?5Authentication?$AA@ 0007529c     libeay32:obj_dat.obj
 0002:0000f2bc       ??_C@_0L@CINGAJGN@serverAuth?$AA@ 000752bc     libeay32:obj_dat.obj
 0002:0000f2c8       ??_C@_05DEJBPLJH@id?9kp?$AA@ 000752c8     libeay32:obj_dat.obj
 0002:0000f2d0       ??_C@_04EAPCHJAG@PKIX?$AA@ 000752d0     libeay32:obj_dat.obj
 0002:0000f2d8       ??_C@_0BK@KFMGFBEG@X509v3?5Extended?5Key?5Usage?$AA@ 000752d8     libeay32:obj_dat.obj
 0002:0000f2f4       ??_C@_0BB@DGDLKPHD@extendedKeyUsage?$AA@ 000752f4     libeay32:obj_dat.obj
 0002:0000f308       ??_C@_0BB@KGNEOBKL@zlib?5compression?$AA@ 00075308     libeay32:obj_dat.obj
 0002:0000f31c       ??_C@_04CHLIKDMF@ZLIB?$AA@ 0007531c     libeay32:obj_dat.obj
 0002:0000f324       ??_C@_0BH@CAEIMNHD@run?5length?5compression?$AA@ 00075324     libeay32:obj_dat.obj
 0002:0000f33c       ??_C@_03ELDBCICO@RLE?$AA@  0007533c     libeay32:obj_dat.obj
 0002:0000f340       ??_C@_07NLMEMEEK@rc5?9ofb?$AA@ 00075340     libeay32:obj_dat.obj
 0002:0000f348       ??_C@_07OAPEFCPM@RC5?9OFB?$AA@ 00075348     libeay32:obj_dat.obj
 0002:0000f350       ??_C@_07JBBCHLPC@rc5?9cfb?$AA@ 00075350     libeay32:obj_dat.obj
 0002:0000f358       ??_C@_07KKCCONEE@RC5?9CFB?$AA@ 00075358     libeay32:obj_dat.obj
 0002:0000f360       ??_C@_07LCLCOGMF@rc5?9ecb?$AA@ 00075360     libeay32:obj_dat.obj
 0002:0000f368       ??_C@_07IJICHAHD@RC5?9ECB?$AA@ 00075368     libeay32:obj_dat.obj
 0002:0000f370       ??_C@_07IPAAOCGP@rc5?9cbc?$AA@ 00075370     libeay32:obj_dat.obj
 0002:0000f378       ??_C@_07LEDAHENJ@RC5?9CBC?$AA@ 00075378     libeay32:obj_dat.obj
 0002:0000f380       ??_C@_0BB@DCJDAKFH@ripemd160WithRSA?$AA@ 00075380     libeay32:obj_dat.obj
 0002:0000f394       ??_C@_0O@JPOIHGOH@RSA?9RIPEMD160?$AA@ 00075394     libeay32:obj_dat.obj
 0002:0000f3a4       ??_C@_09EDIPKBN@ripemd160?$AA@ 000753a4     libeay32:obj_dat.obj
 0002:0000f3b0       ??_C@_09DJDCAKJG@RIPEMD160?$AA@ 000753b0     libeay32:obj_dat.obj
 0002:0000f3bc       ??_C@_0O@GMANLAEO@dsaEncryption?$AA@ 000753bc     libeay32:obj_dat.obj
 0002:0000f3cc       ??_C@_03ENFFABCE@DSA?$AA@  000753cc     libeay32:obj_dat.obj
 0002:0000f3d0       ??_C@_0M@KECGAPAA@sha1WithRSA?$AA@ 000753d0     libeay32:obj_dat.obj
 0002:0000f3dc       ??_C@_0L@EMMEGDKK@RSA?9SHA1?92?$AA@ 000753dc     libeay32:obj_dat.obj
 0002:0000f3e8       ??_C@_08GOLKFMKI@md5?9sha1?$AA@ 000753e8     libeay32:obj_dat.obj
 0002:0000f3f4       ??_C@_08EMIDHKIH@MD5?9SHA1?$AA@ 000753f4     libeay32:obj_dat.obj
 0002:0000f400       ??_C@_0M@EFJKPOPH@dsaWithSHA1?$AA@ 00075400     libeay32:obj_dat.obj
 0002:0000f40c       ??_C@_08IOHJAANG@DSA?9SHA1?$AA@ 0007540c     libeay32:obj_dat.obj
 0002:0000f418       ??_C@_0BG@JCFINJGL@pbeWithMD5AndCast5CBC?$AA@ 00075418     libeay32:obj_dat.obj
 0002:0000f430       ??_C@_09ECHHPLBP@cast5?9ofb?$AA@ 00075430     libeay32:obj_dat.obj
 0002:0000f43c       ??_C@_09LEOLOMNK@CAST5?9OFB?$AA@ 0007543c     libeay32:obj_dat.obj
 0002:0000f448       ??_C@_09IKBEEKH@cast5?9cfb?$AA@ 00075448     libeay32:obj_dat.obj
 0002:0000f454       ??_C@_09PODNFDGC@CAST5?9CFB?$AA@ 00075454     libeay32:obj_dat.obj
 0002:0000f460       ??_C@_09CLABNJJA@cast5?9ecb?$AA@ 00075460     libeay32:obj_dat.obj
 0002:0000f46c       ??_C@_09NNJNMOFF@CAST5?9ECB?$AA@ 0007546c     libeay32:obj_dat.obj
 0002:0000f478       ??_C@_09BGLDNNDK@cast5?9cbc?$AA@ 00075478     libeay32:obj_dat.obj
 0002:0000f484       ??_C@_09OACPMKPP@CAST5?9CBC?$AA@ 00075484     libeay32:obj_dat.obj
 0002:0000f490       ??_C@_0M@PPJNHBMP@description?$AA@ 00075490     libeay32:obj_dat.obj
 0002:0000f49c       ??_C@_05PHLGJONK@title?$AA@ 0007549c     libeay32:obj_dat.obj
 0002:0000f4a4       ??_C@_0N@OMOHFKCJ@serialNumber?$AA@ 000754a4     libeay32:obj_dat.obj
 0002:0000f4b4       ??_C@_0L@CNDCBNIN@md5WithRSA?$AA@ 000754b4     libeay32:obj_dat.obj
 0002:0000f4c0       ??_C@_0L@NACEPNFC@RSA?9NP?9MD5?$AA@ 000754c0     libeay32:obj_dat.obj
 0002:0000f4cc       ??_C@_0BP@EGHJGANM@X509v3?5CRL?5Distribution?5Points?$AA@ 000754cc     libeay32:obj_dat.obj
 0002:0000f4ec       ??_C@_0BG@CCHGOEBE@crlDistributionPoints?$AA@ 000754ec     libeay32:obj_dat.obj
 0002:0000f504       ??_C@_08PAKNLFON@initials?$AA@ 00075504     libeay32:obj_dat.obj
 0002:0000f510       ??_C@_07LNKFHLHI@surname?$AA@ 00075510     libeay32:obj_dat.obj
 0002:0000f518       ??_C@_02LONEIP@SN?$AA@     00075518     libeay32:obj_dat.obj
 0002:0000f51c       ??_C@_09GCBNJLNP@givenName?$AA@ 0007551c     libeay32:obj_dat.obj
 0002:0000f528       ??_C@_02BLJBNPCD@GN?$AA@   00075528     libeay32:obj_dat.obj
 0002:0000f52c       ??_C@_0L@CHEFJHBP@rc2?940?9cbc?$AA@ 0007552c     libeay32:obj_dat.obj
 0002:0000f538       ??_C@_0L@ODHPNGGE@RC2?940?9CBC?$AA@ 00075538     libeay32:obj_dat.obj
 0002:0000f544       ??_C@_06GNNJIOGN@rc4?940?$AA@ 00075544     libeay32:obj_dat.obj
 0002:0000f54c       ??_C@_06KFMILCMH@RC4?940?$AA@ 0007554c     libeay32:obj_dat.obj
 0002:0000f554       ??_C@_0M@HGGNEPNN@mdc2WithRSA?$AA@ 00075554     libeay32:obj_dat.obj
 0002:0000f560       ??_C@_08OMAMCKNL@RSA?9MDC2?$AA@ 00075560     libeay32:obj_dat.obj
 0002:0000f56c       ??_C@_04ELNKPKEC@mdc2?$AA@ 0007556c     libeay32:obj_dat.obj
 0002:0000f574       ??_C@_04BCGEDMJI@MDC2?$AA@ 00075574     libeay32:obj_dat.obj
 0002:0000f57c       ??_C@_06OBJCCDFN@bf?9ofb?$AA@ 0007557c     libeay32:obj_dat.obj
 0002:0000f584       ??_C@_06CEHINCIL@BF?9OFB?$AA@ 00075584     libeay32:obj_dat.obj
 0002:0000f58c       ??_C@_06KLEEJMOF@bf?9cfb?$AA@ 0007558c     libeay32:obj_dat.obj
 0002:0000f594       ??_C@_06GOKOGNDD@BF?9CFB?$AA@ 00075594     libeay32:obj_dat.obj
 0002:0000f59c       ??_C@_06IIOEABNC@bf?9ecb?$AA@ 0007559c     libeay32:obj_dat.obj
 0002:0000f5a4       ??_C@_06ENAOPAAE@BF?9ECB?$AA@ 000755a4     libeay32:obj_dat.obj
 0002:0000f5ac       ??_C@_06LFFGAFHI@bf?9cbc?$AA@ 000755ac     libeay32:obj_dat.obj
 0002:0000f5b4       ??_C@_06HALMPEKO@BF?9CBC?$AA@ 000755b4     libeay32:obj_dat.obj
 0002:0000f5bc       ??_C@_0CA@GODCHEHD@X509v3?5Authority?5Key?5Identifier?$AA@ 000755bc     libeay32:obj_dat.obj
 0002:0000f5dc       ??_C@_0BH@ICHFALGD@authorityKeyIdentifier?$AA@ 000755dc     libeay32:obj_dat.obj
 0002:0000f5f4       ??_C@_0BM@OOFGKLPK@X509v3?5Certificate?5Policies?$AA@ 000755f4     libeay32:obj_dat.obj
 0002:0000f610       ??_C@_0BE@OLMJNPEP@certificatePolicies?$AA@ 00075610     libeay32:obj_dat.obj
 0002:0000f624       ??_C@_0BC@PCPNBDDJ@X509v3?5CRL?5Number?$AA@ 00075624     libeay32:obj_dat.obj
 0002:0000f638       ??_C@_09JDPHHKMA@crlNumber?$AA@ 00075638     libeay32:obj_dat.obj
 0002:0000f644       ??_C@_0BJ@FBHDAJML@X509v3?5Basic?5Constraints?$AA@ 00075644     libeay32:obj_dat.obj
 0002:0000f660       ??_C@_0BB@IKNGJCLO@basicConstraints?$AA@ 00075660     libeay32:obj_dat.obj
 0002:0000f674       ??_C@_0BP@FMJCGPCG@X509v3?5Issuer?5Alternative?5Name?$AA@ 00075674     libeay32:obj_dat.obj
 0002:0000f694       ??_C@_0O@DLIFHFCD@issuerAltName?$AA@ 00075694     libeay32:obj_dat.obj
 0002:0000f6a4       ??_C@_0CA@OPCJJLNF@X509v3?5Subject?5Alternative?5Name?$AA@ 000756a4     libeay32:obj_dat.obj
 0002:0000f6c4       ??_C@_0P@EOFJHHKD@subjectAltName?$AA@ 000756c4     libeay32:obj_dat.obj
 0002:0000f6d4       ??_C@_0CA@CLGHAMIP@X509v3?5Private?5Key?5Usage?5Period?$AA@ 000756d4     libeay32:obj_dat.obj
 0002:0000f6f4       ??_C@_0BG@JOIAJOMN@privateKeyUsagePeriod?$AA@ 000756f4     libeay32:obj_dat.obj
 0002:0000f70c       ??_C@_0BB@BPPOKNBO@X509v3?5Key?5Usage?$AA@ 0007570c     libeay32:obj_dat.obj
 0002:0000f720       ??_C@_08BCICBOHF@keyUsage?$AA@ 00075720     libeay32:obj_dat.obj
 0002:0000f72c       ??_C@_0BO@ILPNOINJ@X509v3?5Subject?5Key?5Identifier?$AA@ 0007572c     libeay32:obj_dat.obj
 0002:0000f74c       ??_C@_0BF@MOEDIMBI@subjectKeyIdentifier?$AA@ 0007574c     libeay32:obj_dat.obj
 0002:0000f764       ??_C@_05NDHEMDL@id?9ce?$AA@ 00075764     libeay32:obj_dat.obj
 0002:0000f76c       ??_C@_08KPMCEEEO@desx?9cbc?$AA@ 0007576c     libeay32:obj_dat.obj
 0002:0000f778       ??_C@_08BBKPFFGN@DESX?9CBC?$AA@ 00075778     libeay32:obj_dat.obj
 0002:0000f784       ??_C@_0BO@KKKBMKBD@Netscape?5Certificate?5Sequence?$AA@ 00075784     libeay32:obj_dat.obj
 0002:0000f7a4       ??_C@_0P@OCCBBJKK@nsCertSequence?$AA@ 000757a4     libeay32:obj_dat.obj
 0002:0000f7b4       ??_C@_0BB@DCFBGIOA@Netscape?5Comment?$AA@ 000757b4     libeay32:obj_dat.obj
 0002:0000f7c8       ??_C@_09BALDFHMJ@nsComment?$AA@ 000757c8     libeay32:obj_dat.obj
 0002:0000f7d4       ??_C@_0BJ@GMBLEMAL@Netscape?5SSL?5Server?5Name?$AA@ 000757d4     libeay32:obj_dat.obj
 0002:0000f7f0       ??_C@_0BA@KNOKNJNE@nsSslServerName?$AA@ 000757f0     libeay32:obj_dat.obj
 0002:0000f800       ??_C@_0BH@EMEFHLC@Netscape?5CA?5Policy?5Url?$AA@ 00075800     libeay32:obj_dat.obj
 0002:0000f818       ??_C@_0O@DHDIMJD@nsCaPolicyUrl?$AA@ 00075818     libeay32:obj_dat.obj
 0002:0000f828       ??_C@_0BF@FKENIIHB@Netscape?5Renewal?5Url?$AA@ 00075828     libeay32:obj_dat.obj
 0002:0000f840       ??_C@_0N@JILHKMLM@nsRenewalUrl?$AA@ 00075840     libeay32:obj_dat.obj
 0002:0000f850       ??_C@_0BL@EMOMOFDB@Netscape?5CA?5Revocation?5Url?$AA@ 00075850     libeay32:obj_dat.obj
 0002:0000f86c       ??_C@_0BC@IKAPCMGG@nsCaRevocationUrl?$AA@ 0007586c     libeay32:obj_dat.obj
 0002:0000f880       ??_C@_0BI@BCDINENC@Netscape?5Revocation?5Url?$AA@ 00075880     libeay32:obj_dat.obj
 0002:0000f898       ??_C@_0BA@DKPGPAKK@nsRevocationUrl?$AA@ 00075898     libeay32:obj_dat.obj
 0002:0000f8a8       ??_C@_0BC@DIHCABP@Netscape?5Base?5Url?$AA@ 000758a8     libeay32:obj_dat.obj
 0002:0000f8bc       ??_C@_09OCIGDOMM@nsBaseUrl?$AA@ 000758bc     libeay32:obj_dat.obj
 0002:0000f8c8       ??_C@_0BD@NFPBEMEE@Netscape?5Cert?5Type?$AA@ 000758c8     libeay32:obj_dat.obj
 0002:0000f8dc       ??_C@_0L@IICLKDNB@nsCertType?$AA@ 000758dc     libeay32:obj_dat.obj
 0002:0000f8e8       ??_C@_0BA@DDLLDHEM@dsaWithSHA1?9old?$AA@ 000758e8     libeay32:obj_dat.obj
 0002:0000f8f8       ??_C@_0N@ONIKBKNK@DSA?9SHA1?9old?$AA@ 000758f8     libeay32:obj_dat.obj
 0002:0000f908       ??_C@_06KBOEGBGA@PBKDF2?$AA@ 00075908     libeay32:obj_dat.obj
 0002:0000f910       ??_C@_0BG@IBNNJING@pbeWithSHA1AndRC2?9CBC?$AA@ 00075910     libeay32:obj_dat.obj
 0002:0000f928       ??_C@_0BA@KKPEMNGH@PBE?9SHA1?9RC2?964?$AA@ 00075928     libeay32:obj_dat.obj
 0002:0000f938       ??_C@_0BC@FFHHBCCH@dsaEncryption?9old?$AA@ 00075938     libeay32:obj_dat.obj
 0002:0000f94c       ??_C@_07PLHLFGGF@DSA?9old?$AA@ 0007594c     libeay32:obj_dat.obj
 0002:0000f954       ??_C@_0L@BEHMICBH@dsaWithSHA?$AA@ 00075954     libeay32:obj_dat.obj
 0002:0000f960       ??_C@_07JGDBCPKH@DSA?9SHA?$AA@ 00075960     libeay32:obj_dat.obj
 0002:0000f968       ??_C@_0BG@DALFFFBE@sha1WithRSAEncryption?$AA@ 00075968     libeay32:obj_dat.obj
 0002:0000f980       ??_C@_08FBKDDLCN@RSA?9SHA1?$AA@ 00075980     libeay32:obj_dat.obj
 0002:0000f98c       ??_C@_04PGHFOLLE@sha1?$AA@ 0007598c     libeay32:obj_dat.obj
 0002:0000f994       ??_C@_04KPMLCNGO@SHA1?$AA@ 00075994     libeay32:obj_dat.obj
 0002:0000f99c       ??_C@_0N@LODGAID@des?9ede3?9ofb?$AA@ 0007599c     libeay32:obj_dat.obj
 0002:0000f9ac       ??_C@_0N@JPPBGLEM@DES?9EDE3?9OFB?$AA@ 000759ac     libeay32:obj_dat.obj
 0002:0000f9bc       ??_C@_0M@BOHDOFGF@des?9ede?9ofb?$AA@ 000759bc     libeay32:obj_dat.obj
 0002:0000f9c8       ??_C@_0M@PDBPCBBK@DES?9EDE?9OFB?$AA@ 000759c8     libeay32:obj_dat.obj
 0002:0000f9d4       ??_C@_0N@EBDFNPDL@des?9ede3?9cfb?$AA@ 000759d4     libeay32:obj_dat.obj
 0002:0000f9e4       ??_C@_0N@NFCHNEPE@DES?9EDE3?9CFB?$AA@ 000759e4     libeay32:obj_dat.obj
 0002:0000f9f4       ??_C@_0M@FEKFFKNN@des?9ede?9cfb?$AA@ 000759f4     libeay32:obj_dat.obj
 0002:0000fa00       ??_C@_0M@LJMJJOKC@DES?9EDE?9CFB?$AA@ 00075a00     libeay32:obj_dat.obj
 0002:0000fa0c       ??_C@_0BD@JJEILMNP@Netscape?5Data?5Type?$AA@ 00075a0c     libeay32:obj_dat.obj
 0002:0000fa20       ??_C@_0L@FIMLGGPA@nsDataType?$AA@ 00075a20     libeay32:obj_dat.obj
 0002:0000fa2c       ??_C@_0BP@LHPGKGFM@Netscape?5Certificate?5Extension?$AA@ 00075a2c     libeay32:obj_dat.obj
 0002:0000fa4c       ??_C@_09JDCKDNMG@nsCertExt?$AA@ 00075a4c     libeay32:obj_dat.obj
 0002:0000fa58       ??_C@_0BO@IAIBEBGO@Netscape?5Communications?5Corp?4?$AA@ 00075a58     libeay32:obj_dat.obj
 0002:0000fa78       ??_C@_08BDEPHMAF@Netscape?$AA@ 00075a78     libeay32:obj_dat.obj
 0002:0000fa84       ??_C@_0BO@LDCCNBPE@extendedCertificateAttributes?$AA@ 00075a84     libeay32:obj_dat.obj
 0002:0000faa4       ??_C@_0BE@MACPCAPF@unstructuredAddress?$AA@ 00075aa4     libeay32:obj_dat.obj
 0002:0000fab8       ??_C@_0BC@OKHONEEM@challengePassword?$AA@ 00075ab8     libeay32:obj_dat.obj
 0002:0000facc       ??_C@_0BB@IPFGMODP@countersignature?$AA@ 00075acc     libeay32:obj_dat.obj
 0002:0000fae0       ??_C@_0M@IJBJCCMP@signingTime?$AA@ 00075ae0     libeay32:obj_dat.obj
 0002:0000faec       ??_C@_0O@JDGJDGC@messageDigest?$AA@ 00075aec     libeay32:obj_dat.obj
 0002:0000fafc       ??_C@_0M@DOEFOEJD@contentType?$AA@ 00075afc     libeay32:obj_dat.obj
 0002:0000fb08       ??_C@_0BB@CJIILOEM@unstructuredName?$AA@ 00075b08     libeay32:obj_dat.obj
 0002:0000fb1c       ??_C@_0N@IHLBAGEP@emailAddress?$AA@ 00075b1c     libeay32:obj_dat.obj
 0002:0000fb2c       ??_C@_05NKFNBGJP@pkcs9?$AA@ 00075b2c     libeay32:obj_dat.obj
 0002:0000fb34       ??_C@_08OGDEHPAF@idea?9ofb?$AA@ 00075b34     libeay32:obj_dat.obj
 0002:0000fb40       ??_C@_08FIFJGOCG@IDEA?9OFB?$AA@ 00075b40     libeay32:obj_dat.obj
 0002:0000fb4c       ??_C@_07NLMBCAKN@des?9ofb?$AA@ 00075b4c     libeay32:obj_dat.obj
 0002:0000fb54       ??_C@_07OHFNLDCN@DES?9OFB?$AA@ 00075b54     libeay32:obj_dat.obj
 0002:0000fb5c       ??_C@_0N@FPCHEGKG@des?9ede3?9cbc?$AA@ 00075b5c     libeay32:obj_dat.obj
 0002:0000fb6c       ??_C@_0N@MLDFENGJ@DES?9EDE3?9CBC?$AA@ 00075b6c     libeay32:obj_dat.obj
 0002:0000fb7c       ??_C@_0M@EKLHMDEA@des?9ede?9cbc?$AA@ 00075b7c     libeay32:obj_dat.obj
 0002:0000fb88       ??_C@_0M@KHNLAHDP@DES?9EDE?9CBC?$AA@ 00075b88     libeay32:obj_dat.obj
 0002:0000fb94       ??_C@_0BF@LIDINENF@shaWithRSAEncryption?$AA@ 00075b94     libeay32:obj_dat.obj
 0002:0000fbac       ??_C@_07CMOFBHAL@RSA?9SHA?$AA@ 00075bac     libeay32:obj_dat.obj
 0002:0000fbb4       ??_C@_03JNBDOPOP@sha?$AA@  00075bb4     libeay32:obj_dat.obj
 0002:0000fbb8       ??_C@_03JAOICCJD@SHA?$AA@  00075bb8     libeay32:obj_dat.obj
 0002:0000fbbc       ??_C@_07MGMBPEPC@rc2?9ofb?$AA@ 00075bbc     libeay32:obj_dat.obj
 0002:0000fbc4       ??_C@_07PNPBGCEE@RC2?9OFB?$AA@ 00075bc4     libeay32:obj_dat.obj
 0002:0000fbcc       ??_C@_07IMBHELEK@rc2?9cfb?$AA@ 00075bcc     libeay32:obj_dat.obj
 0002:0000fbd4       ??_C@_07LHCHNNPM@RC2?9CFB?$AA@ 00075bd4     libeay32:obj_dat.obj
 0002:0000fbdc       ??_C@_07KPLHNGHN@rc2?9ecb?$AA@ 00075bdc     libeay32:obj_dat.obj
 0002:0000fbe4       ??_C@_07JEIHEAML@RC2?9ECB?$AA@ 00075be4     libeay32:obj_dat.obj
 0002:0000fbec       ??_C@_07JCAFNCNH@rc2?9cbc?$AA@ 00075bec     libeay32:obj_dat.obj
 0002:0000fbf4       ??_C@_07KJDFEEGB@RC2?9CBC?$AA@ 00075bf4     libeay32:obj_dat.obj
 0002:0000fbfc       ??_C@_08IPECFNIK@idea?9ecb?$AA@ 00075bfc     libeay32:obj_dat.obj
 0002:0000fc08       ??_C@_08DBCPEMKJ@IDEA?9ECB?$AA@ 00075c08     libeay32:obj_dat.obj
 0002:0000fc14       ??_C@_08KMOCMALN@idea?9cfb?$AA@ 00075c14     libeay32:obj_dat.obj
 0002:0000fc20       ??_C@_08BCIPNBJO@IDEA?9CFB?$AA@ 00075c20     libeay32:obj_dat.obj
 0002:0000fc2c       ??_C@_08LCPAFJCA@idea?9cbc?$AA@ 00075c2c     libeay32:obj_dat.obj
 0002:0000fc38       ??_C@_08MJNEIAD@IDEA?9CBC?$AA@ 00075c38     libeay32:obj_dat.obj
 0002:0000fc44       ??_C@_08LJCBLNOK@des?9ede3?$AA@ 00075c44     libeay32:obj_dat.obj
 0002:0000fc50       ??_C@_08FEKFKCFJ@DES?9EDE3?$AA@ 00075c50     libeay32:obj_dat.obj
 0002:0000fc5c       ??_C@_07PILJICGA@des?9ede?$AA@ 00075c5c     libeay32:obj_dat.obj
 0002:0000fc64       ??_C@_07MECFBBOA@DES?9EDE?$AA@ 00075c64     libeay32:obj_dat.obj
 0002:0000fc6c       ??_C@_07IPAFAGII@des?9cbc?$AA@ 00075c6c     libeay32:obj_dat.obj
 0002:0000fc74       ??_C@_07LDJJJFAI@DES?9CBC?$AA@ 00075c74     libeay32:obj_dat.obj
 0002:0000fc7c       ??_C@_07JBBHJPBF@des?9cfb?$AA@ 00075c7c     libeay32:obj_dat.obj
 0002:0000fc84       ??_C@_07KNILAMJF@DES?9CFB?$AA@ 00075c84     libeay32:obj_dat.obj
 0002:0000fc8c       ??_C@_07LCLHACCC@des?9ecb?$AA@ 00075c8c     libeay32:obj_dat.obj
 0002:0000fc94       ??_C@_07IOCLJBKC@DES?9ECB?$AA@ 00075c94     libeay32:obj_dat.obj
 0002:0000fc9c       ??_C@_0P@HCMIBBEB@dhKeyAgreement?$AA@ 00075c9c     libeay32:obj_dat.obj
 0002:0000fcac       ??_C@_05CALCPOBF@pkcs3?$AA@ 00075cac     libeay32:obj_dat.obj
 0002:0000fcb4       ??_C@_0BE@CAMKAFJN@pkcs7?9encryptedData?$AA@ 00075cb4     libeay32:obj_dat.obj
 0002:0000fcc8       ??_C@_0BB@CJNFBHDI@pkcs7?9digestData?$AA@ 00075cc8     libeay32:obj_dat.obj
 0002:0000fcdc       ??_C@_0BN@LMEEMCPG@pkcs7?9signedAndEnvelopedData?$AA@ 00075cdc     libeay32:obj_dat.obj
 0002:0000fcfc       ??_C@_0BE@FAIIHMP@pkcs7?9envelopedData?$AA@ 00075cfc     libeay32:obj_dat.obj
 0002:0000fd10       ??_C@_0BB@PEKKHBEJ@pkcs7?9signedData?$AA@ 00075d10     libeay32:obj_dat.obj
 0002:0000fd24       ??_C@_0L@BCKMJOMA@pkcs7?9data?$AA@ 00075d24     libeay32:obj_dat.obj
 0002:0000fd30       ??_C@_05EENODLBB@pkcs7?$AA@ 00075d30     libeay32:obj_dat.obj
 0002:0000fd38       ??_C@_03DICHAJGH@RSA?$AA@  00075d38     libeay32:obj_dat.obj
 0002:0000fd3c       ??_C@_0BH@LAMMAAM@organizationalUnitName?$AA@ 00075d3c     libeay32:obj_dat.obj
 0002:0000fd54       ??_C@_02LMLEEFAB@OU?$AA@   00075d54     libeay32:obj_dat.obj
 0002:0000fd58       ??_C@_0BB@GBCNPHLL@organizationName?$AA@ 00075d58     libeay32:obj_dat.obj
 0002:0000fd6c       ??_C@_01MJMHLOMK@O?$AA@    00075d6c     libeay32:obj_dat.obj
 0002:0000fd70       ??_C@_0BE@NKDCJFMD@stateOrProvinceName?$AA@ 00075d70     libeay32:obj_dat.obj
 0002:0000fd84       ??_C@_02LAJDCOFE@ST?$AA@   00075d84     libeay32:obj_dat.obj
 0002:0000fd88       ??_C@_0N@LEDCGGBI@localityName?$AA@ 00075d88     libeay32:obj_dat.obj
 0002:0000fd98       ??_C@_01OCOKONAJ@L?$AA@    00075d98     libeay32:obj_dat.obj
 0002:0000fd9c       ??_C@_0M@NPBHECMC@countryName?$AA@ 00075d9c     libeay32:obj_dat.obj
 0002:0000fda8       ??_C@_01GFHCPBMG@C?$AA@    00075da8     libeay32:obj_dat.obj
 0002:0000fdac       ??_C@_0L@OILMNBLH@commonName?$AA@ 00075dac     libeay32:obj_dat.obj
 0002:0000fdb8       ??_C@_02BMJIHHPP@CN?$AA@   00075db8     libeay32:obj_dat.obj
 0002:0000fdbc       ??_C@_04NMKEOMFB@X509?$AA@ 00075dbc     libeay32:obj_dat.obj
 0002:0000fdc4       ??_C@_0BL@NJHHPHOL@directory?5services?5?$CIX?4500?$CJ?$AA@ 00075dc4     libeay32:obj_dat.obj
 0002:0000fde0       ??_C@_04NGGFHBI@X500?$AA@  00075de0     libeay32:obj_dat.obj
 0002:0000fde8       ??_C@_0BF@DAJHPIMK@pbeWithMD5AndDES?9CBC?$AA@ 00075de8     libeay32:obj_dat.obj
 0002:0000fe00       ??_C@_0M@KBNDBPIJ@PBE?9MD5?9DES?$AA@ 00075e00     libeay32:obj_dat.obj
 0002:0000fe0c       ??_C@_0BF@EEAPBBEF@pbeWithMD2AndDES?9CBC?$AA@ 00075e0c     libeay32:obj_dat.obj
 0002:0000fe24       ??_C@_0M@LMNGCPDB@PBE?9MD2?9DES?$AA@ 00075e24     libeay32:obj_dat.obj
 0002:0000fe30       ??_C@_0BF@EEAHCNKC@md5WithRSAEncryption?$AA@ 00075e30     libeay32:obj_dat.obj
 0002:0000fe48       ??_C@_07NOGKHCDB@RSA?9MD5?$AA@ 00075e48     libeay32:obj_dat.obj
 0002:0000fe50       ??_C@_0BF@ODJKGOJ@md2WithRSAEncryption?$AA@ 00075e50     libeay32:obj_dat.obj
 0002:0000fe68       ??_C@_07JBCLOEPG@RSA?9MD2?$AA@ 00075e68     libeay32:obj_dat.obj
 0002:0000fe70       ??_C@_0O@PCHNMHJE@rsaEncryption?$AA@ 00075e70     libeay32:obj_dat.obj
 0002:0000fe80       ??_C@_03OODGMOHK@rc4?$AA@  00075e80     libeay32:obj_dat.obj
 0002:0000fe84       ??_C@_03HGEJCHKE@RC4?$AA@  00075e84     libeay32:obj_dat.obj
 0002:0000fe88       ??_C@_03PKBIKOHH@md5?$AA@  00075e88     libeay32:obj_dat.obj
 0002:0000fe8c       ??_C@_03GCGHEHKJ@MD5?$AA@  00075e8c     libeay32:obj_dat.obj
 0002:0000fe90       ??_C@_03LFFJDILA@md2?$AA@  00075e90     libeay32:obj_dat.obj
 0002:0000fe94       ??_C@_03CNCGNBGO@MD2?$AA@  00075e94     libeay32:obj_dat.obj
 0002:0000fe98       ??_C@_0BN@EBHJCEC@RSA?5Data?5Security?0?5Inc?4?5PKCS?$AA@ 00075e98     libeay32:obj_dat.obj
 0002:0000feb8       ??_C@_04GCKLMHGD@pkcs?$AA@ 00075eb8     libeay32:obj_dat.obj
 0002:0000fec0       ??_C@_0BI@MPBNCOIB@RSA?5Data?5Security?0?5Inc?4?$AA@ 00075ec0     libeay32:obj_dat.obj
 0002:0000fed8       ??_C@_06GGEMKGKC@rsadsi?$AA@ 00075ed8     libeay32:obj_dat.obj
 0002:0000fee0       ??_C@_09MLGAJAED@undefined?$AA@ 00075ee0     libeay32:obj_dat.obj
 0002:0000feec       ??_C@_05DBLJEJPC@UNDEF?$AA@ 00075eec     libeay32:obj_dat.obj
 0002:0000fef8       ??_C@_0FB@EJHIDBFI@d?3?2wm653wehh?2platform?2mvv210?2src@ 00075ef8     libeay32:obj_dat.obj
 0002:0000ff4c       ??_C@_04MDEFHJHM@?4?$CFlu?$AA@ 00075f4c     libeay32:obj_dat.obj
 0002:0000ff54       STACK_version              00075f54     libeay32:stack.obj
 0002:0000ff80       ??_C@_0EN@GOCHBJJG@d?3?2wm653wehh?2platform?2mvv210?2src@ 00075f80     libeay32:stack.obj
 0002:0000ffd0       ??_C@_0EL@PAPNDPGN@d?3?2wm653wehh?2platform?2mvv210?2src@ 00075fd0     libeay32:p_lib.obj
 0002:00010020       ??_C@_0FC@NEBNNILH@d?3?2wm653wehh?2platform?2mvv210?2src@ 00076020     libeay32:tb_pkmeth.obj
 0002:00010078       ??_C@_0FC@LCBCBJII@d?3?2wm653wehh?2platform?2mvv210?2src@ 00076078     libeay32:eng_table.obj
 0002:000100d0       ??_C@_0EJ@DIAKMCGH@d?3?2wm653wehh?2platform?2mvv210?2src@ 000760d0     libeay32:mem_dbg.obj
 0002:0001011c       lh_version                 0007611c     libeay32:lhash.obj
 0002:00010148       ??_C@_0EN@ECMNBMLE@d?3?2wm653wehh?2platform?2mvv210?2src@ 00076148     libeay32:lhash.obj
 0002:00010198       ??_C@_0FA@OIJOADBF@d?3?2wm653wehh?2platform?2mvv210?2src@ 00076198     libeay32:buf_str.obj
 0002:000101e8       ??_C@_0EN@GMEKCP@d?3?2wm653wehh?2platform?2mvv210?2src@ 000761e8     libeay32:b_print.obj
 0002:00010238       ??_C@_06CBHGEMFM@?$DMNULL?$DO?$AA@ 00076238     libeay32:b_print.obj
 0002:00010240       ??_C@_0BB@JCEFLFJE@0123456789abcdef?$AA@ 00076240     libeay32:b_print.obj
 0002:00010254       ??_C@_0BB@JGGOGLEG@0123456789ABCDEF?$AA@ 00076254     libeay32:b_print.obj
 0002:00010268       ??_C@_02MDDDDAID@0x?$AA@   00076268     libeay32:b_print.obj
 0002:0001026c       ??_C@_01GBGANLPD@0?$AA@    0007626c     libeay32:b_print.obj
 0002:00010270       ??_C@_07DKNGGOEP@doapr?$CI?$CJ?$AA@ 00076270     libeay32:b_print.obj
 0002:00010278       ??_C@_0FA@DONMMNBK@d?3?2wm653wehh?2platform?2mvv210?2src@ 00076278     libeay32:eng_lib.obj
 0002:000102c8       ??_C@_0EP@KDEOOFHE@d?3?2wm653wehh?2platform?2mvv210?2src@ 000762c8     libeay32:evp_asn1.obj
 0002:00010318       ??_C@_0EP@EOLMKMCC@d?3?2wm653wehh?2platform?2mvv210?2src@ 00076318     libeay32:a_object.obj
 0002:00010368       ??_C@_09OJNEAJGG@?$DMINVALID?$DO?$AA@ 00076368     libeay32:a_object.obj
 0002:00010378       ??_C@_0EO@DEEJNAGE@d?3?2wm653wehh?2platform?2mvv210?2src@ 00076378     libeay32:rsa_crpt.obj
 0002:0001040c       ??_C@_08DFMPDBMK@X509_SIG?$AA@ 0007640c     libeay32:x_sig.obj
 0002:00010418       ??_C@_05CJCEEADM@algor?$AA@ 00076418     libeay32:x_sig.obj
 0002:00010420       ??_C@_0EL@CJHJHLOJ@d?3?2wm653wehh?2platform?2mvv210?2src@ 00076420     libeay32:cmac.obj
 0002:00010480       ??_C@_0EP@DFJOCJBM@d?3?2wm653wehh?2platform?2mvv210?2src@ 00076480     libeay32:v3_utl.obj
 0002:000104d0       ??_C@_05MAJJAKPI@FALSE?$AA@ 000764d0     libeay32:v3_utl.obj
 0002:000104d8       ??_C@_04HCDDPBNL@TRUE?$AA@ 000764d8     libeay32:v3_utl.obj
 0002:000104e0       ??_C@_07BDICHDDB@?0value?3?$AA@ 000764e0     libeay32:v3_utl.obj
 0002:000104e8       ??_C@_06FONLLLNC@?0name?3?$AA@ 000764e8     libeay32:v3_utl.obj
 0002:000104f0       ??_C@_08PCLJGJAL@section?3?$AA@ 000764f0     libeay32:v3_utl.obj
 0002:000104fc       ??_C@_02KAJCLHKP@no?$AA@   000764fc     libeay32:v3_utl.obj
 0002:00010500       ??_C@_02NFLNFON@NO?$AA@    00076500     libeay32:v3_utl.obj
 0002:00010504       ??_C@_01EFFIKLCJ@n?$AA@    00076504     libeay32:v3_utl.obj
 0002:00010508       ??_C@_01NANMIPIL@N?$AA@    00076508     libeay32:v3_utl.obj
 0002:0001050c       ??_C@_05LAPONLG@false?$AA@ 0007650c     libeay32:v3_utl.obj
 0002:00010514       ??_C@_03ICICOMAL@yes?$AA@  00076514     libeay32:v3_utl.obj
 0002:00010518       ??_C@_03IPHJCBHH@YES?$AA@  00076518     libeay32:v3_utl.obj
 0002:0001051c       ??_C@_01EANLCPLP@y?$AA@    0007651c     libeay32:v3_utl.obj
 0002:00010520       ??_C@_01NFFPALBN@Y?$AA@    00076520     libeay32:v3_utl.obj
 0002:00010524       ??_C@_04LOAJBDKD@true?$AA@ 00076524     libeay32:v3_utl.obj
 0002:0001052c       ??_C@_0M@PCENNPGA@?$CFd?4?$CFd?4?$CFd?4?$CFd?$AA@ 0007652c     libeay32:v3_utl.obj
 0002:00010538       ??_C@_0CF@JFAAPJDH@len?$DO?$DN0?5?$CG?$CG?5len?$DM?$DN?$CIint?$CJsizeof?$CIctx?9?$DO@ 00076538     libeay32:hmac.obj
 0002:00010560       ??_C@_0BL@OKHNPHMK@j?5?$DM?$DN?5?$CIint?$CJsizeof?$CIctx?9?$DOkey?$CJ?$AA@ 00076560     libeay32:hmac.obj
 0002:00010580       ??_C@_0EL@FKOMILBN@d?3?2wm653wehh?2platform?2mvv210?2src@ 00076580     libeay32:hmac.obj
 0002:000105f8       ??_C@_0EL@KJLPEPL@d?3?2wm653wehh?2platform?2mvv210?2src@ 000765f8     libeay32:ec_lib.obj
 0002:00010644       ECDSA_version              00076644     libeay32:ecs_lib.obj
 0002:00010670       ??_C@_0EP@HDBDKLOP@d?3?2wm653wehh?2platform?2mvv210?2src@ 00076670     libeay32:ecs_lib.obj
 0002:000106c0       ??_C@_0EL@FFHGPJNM@d?3?2wm653wehh?2platform?2mvv210?2src@ 000766c0     libeay32:ec_key.obj
 0002:00013b88       ??_C@_0HB@IIAMGFOE@?6?7IPSec?1IKE?1Oakley?5curve?5?$CD4?5over@ 00079b88     libeay32:ec_curve.obj
 0002:00013c00       ??_C@_0HB@LGGCBEEP@?6?7IPSec?1IKE?1Oakley?5curve?5?$CD3?5over@ 00079c00     libeay32:ec_curve.obj
 0002:00013c74       ??_C@_0CG@MLNHEHNL@WTLS?5curvs?5over?5a?5224?5bit?5prime?5@ 00079c74     libeay32:ec_curve.obj
 0002:00013c9c       ??_C@_0CG@JBBHINGJ@WTLS?5curve?5over?5a?5160?5bit?5prime?5@ 00079c9c     libeay32:ec_curve.obj
 0002:00013cc4       ??_C@_0CG@NOPNGNKB@WTLS?5curve?5over?5a?5112?5bit?5prime?5@ 00079cc4     libeay32:ec_curve.obj
 0002:00013cec       ??_C@_0CH@PAECJHG@WTLS?5curve?5over?5a?5113?5bit?5binary@ 00079cec     libeay32:ec_curve.obj
 0002:00013d14       ??_C@_0CI@PHOKEIPD@X9?462?5curve?5over?5a?5431?5bit?5binar@ 00079d14     libeay32:ec_curve.obj
 0002:00013d3c       ??_C@_0CI@GLMEIDGJ@X9?462?5curve?5over?5a?5368?5bit?5binar@ 00079d3c     libeay32:ec_curve.obj
 0002:00013d64       ??_C@_0CI@BDIPEOPL@X9?462?5curve?5over?5a?5359?5bit?5binar@ 00079d64     libeay32:ec_curve.obj
 0002:00013d8c       ??_C@_0CI@PCOAONL@X9?462?5curve?5over?5a?5304?5bit?5binar@ 00079d8c     libeay32:ec_curve.obj
 0002:00013db4       ??_C@_0CI@OMGMCAMF@X9?462?5curve?5over?5a?5272?5bit?5binar@ 00079db4     libeay32:ec_curve.obj
 0002:00013ddc       ??_C@_0CI@IHGFALA@X9?462?5curve?5over?5a?5239?5bit?5binar@ 00079ddc     libeay32:ec_curve.obj
 0002:00013e04       ??_C@_0CI@HADNJNCC@X9?462?5curve?5over?5a?5208?5bit?5binar@ 00079e04     libeay32:ec_curve.obj
 0002:00013e2c       ??_C@_0CI@CNNMGPOI@X9?462?5curve?5over?5a?5191?5bit?5binar@ 00079e2c     libeay32:ec_curve.obj
 0002:00013e54       ??_C@_0CI@HOBKKPME@X9?462?5curve?5over?5a?5176?5bit?5binar@ 00079e54     libeay32:ec_curve.obj
 0002:00013e7c       ??_C@_0CI@CFPHBJDI@X9?462?5curve?5over?5a?5163?5bit?5binar@ 00079e7c     libeay32:ec_curve.obj
 0002:00013ea4       ??_C@_0CM@EACJKLC@NIST?1SECG?5curve?5over?5a?5571?5bit?5b@ 00079ea4     libeay32:ec_curve.obj
 0002:00013ed0       ??_C@_0CM@HDDNKCDK@NIST?1SECG?5curve?5over?5a?5409?5bit?5b@ 00079ed0     libeay32:ec_curve.obj
 0002:00013efc       ??_C@_0CM@GFMOGKDK@NIST?1SECG?5curve?5over?5a?5283?5bit?5b@ 00079efc     libeay32:ec_curve.obj
 0002:00013f28       ??_C@_0CH@CLCLBOGN@SECG?5curve?5over?5a?5239?5bit?5binary@ 00079f28     libeay32:ec_curve.obj
 0002:00013f50       ??_C@_0DB@PNCPLOPN@NIST?1SECG?1WTLS?5curve?5over?5a?5233?5@ 00079f50     libeay32:ec_curve.obj
 0002:00013f84       ??_C@_0CH@HKDFCHME@SECG?5curve?5over?5a?5193?5bit?5binary@ 00079f84     libeay32:ec_curve.obj
 0002:00013fac       ??_C@_0CM@HCIKDLO@NIST?1SECG?5curve?5over?5a?5163?5bit?5b@ 00079fac     libeay32:ec_curve.obj
 0002:00013fd8       ??_C@_0CH@GKKFHOF@SECG?5curve?5over?5a?5163?5bit?5binary@ 00079fd8     libeay32:ec_curve.obj
 0002:00014000       ??_C@_0DB@KNLLOMAB@NIST?1SECG?1WTLS?5curve?5over?5a?5163?5@ 0007a000     libeay32:ec_curve.obj
 0002:00014034       ??_C@_0CH@FJJEIBAL@SECG?5curve?5over?5a?5131?5bit?5binary@ 0007a034     libeay32:ec_curve.obj
 0002:0001405c       ??_C@_0CM@EPOILLGK@SECG?1WTLS?5curve?5over?5a?5131?5bit?5b@ 0007a05c     libeay32:ec_curve.obj
 0002:00014088       ??_C@_0CH@OHOOPBHG@SECG?5curve?5over?5a?5113?5bit?5binary@ 0007a088     libeay32:ec_curve.obj
 0002:000140b0       ??_C@_0CM@IACJENLF@X9?462?1SECG?5curve?5over?5a?5256?5bit?5@ 0007a0b0     libeay32:ec_curve.obj
 0002:000140dc       ??_C@_0CH@COBCAEEE@X9?462?5curve?5over?5a?5239?5bit?5prime@ 0007a0dc     libeay32:ec_curve.obj
 0002:00014104       ??_C@_0CH@BHJCBJE@X9?462?5curve?5over?5a?5192?5bit?5prime@ 0007a104     libeay32:ec_curve.obj
 0002:0001412c       ??_C@_0DB@HJIMEGJL@NIST?1X9?462?1SECG?5curve?5over?5a?5192@ 0007a12c     libeay32:ec_curve.obj
 0002:00014160       ??_C@_0CL@NCEJLDDF@NIST?1SECG?5curve?5over?5a?5521?5bit?5p@ 0007a160     libeay32:ec_curve.obj
 0002:0001418c       ??_C@_0CL@MPIFFEHD@NIST?1SECG?5curve?5over?5a?5384?5bit?5p@ 0007a18c     libeay32:ec_curve.obj
 0002:000141b8       ??_C@_0CG@MBJIMJMI@SECG?5curve?5over?5a?5256?5bit?5prime?5@ 0007a1b8     libeay32:ec_curve.obj
 0002:000141e0       ??_C@_0CL@NHPHHEEB@NIST?1SECG?5curve?5over?5a?5224?5bit?5p@ 0007a1e0     libeay32:ec_curve.obj
 0002:0001420c       ??_C@_0CG@IOHCCJAA@SECG?5curve?5over?5a?5224?5bit?5prime?5@ 0007a20c     libeay32:ec_curve.obj
 0002:00014234       ??_C@_0CG@IFFAEDGD@SECG?5curve?5over?5a?5192?5bit?5prime?5@ 0007a234     libeay32:ec_curve.obj
 0002:0001425c       ??_C@_0CL@NDOOJKPB@SECG?1WTLS?5curve?5over?5a?5160?5bit?5p@ 0007a25c     libeay32:ec_curve.obj
 0002:00014288       ??_C@_0CG@MDBLLOCO@SECG?5curve?5over?5a?5160?5bit?5prime?5@ 0007a288     libeay32:ec_curve.obj
 0002:000142b0       ??_C@_0CG@DNCCBNMA@SECG?5curve?5over?5a?5128?5bit?5prime?5@ 0007a2b0     libeay32:ec_curve.obj
 0002:000142d8       ??_C@_0CG@IMPBFOOG@SECG?5curve?5over?5a?5112?5bit?5prime?5@ 0007a2d8     libeay32:ec_curve.obj
 0002:00014300       ??_C@_0CL@JMAEHKDJ@SECG?1WTLS?5curve?5over?5a?5112?5bit?5p@ 0007a300     libeay32:ec_curve.obj
 0002:00014330       ??_C@_0EN@GGBLGKDN@d?3?2wm653wehh?2platform?2mvv210?2src@ 0007a330     libeay32:ec_curve.obj
 0002:000145c0       ??_C@_08CCPALKOP@priv_key?$AA@ 0007a5c0     libeay32:dsa_asn1.obj
 0002:000145cc       ??_C@_07CLGEADLH@pub_key?$AA@ 0007a5cc     libeay32:dsa_asn1.obj
 0002:000145d4       ??_C@_01JEJKBAGA@g?$AA@    0007a5d4     libeay32:dsa_asn1.obj
 0002:000145d8       ??_C@_01IIACKFLH@q?$AA@    0007a5d8     libeay32:dsa_asn1.obj
 0002:000145dc       ??_C@_01JBBJJEPG@p?$AA@    0007a5dc     libeay32:dsa_asn1.obj
 0002:000145e0       ??_C@_07CPCPJPKL@version?$AA@ 0007a5e0     libeay32:dsa_asn1.obj
 0002:000145e8       ??_C@_07ECLLFBLJ@DSA_SIG?$AA@ 0007a5e8     libeay32:dsa_asn1.obj
 0002:000145f0       ??_C@_01LKDEMHDF@s?$AA@    0007a5f0     libeay32:dsa_asn1.obj
 0002:000145f4       ??_C@_01KDCPPGHE@r?$AA@    0007a5f4     libeay32:dsa_asn1.obj
 0002:000145f8       ??_C@_0EO@DLELNGDB@d?3?2wm653wehh?2platform?2mvv210?2src@ 0007a5f8     libeay32:dsa_asn1.obj
 0002:00014648       DSA_version                0007a648     libeay32:dsa_lib.obj
 0002:00014670       ??_C@_0EN@HPPIDPIC@d?3?2wm653wehh?2platform?2mvv210?2src@ 0007a670     libeay32:dsa_lib.obj
 0002:000146c0       DH_version                 0007a6c0     libeay32:dh_lib.obj
 0002:000146f8       ??_C@_0EL@PIAODHMF@d?3?2wm653wehh?2platform?2mvv210?2src@ 0007a6f8     libeay32:dh_lib.obj
 0002:00014748       ??_C@_0EL@BNOPJFLP@d?3?2wm653wehh?2platform?2mvv210?2src@ 0007a748     libeay32:dh_gen.obj
 0002:00014794       ??_C@_0BC@MGHKLCAP@OpenSSL?5DH?5Method?$AA@ 0007a794     libeay32:dh_key.obj
 0002:000147a8       ??_C@_0EL@KHODDKOC@d?3?2wm653wehh?2platform?2mvv210?2src@ 0007a7a8     libeay32:dh_key.obj
 0002:00014810       BN_version                 0007a810     libeay32:bn_lib.obj
 0002:00014940       ??_C@_0EL@EKPDCIGL@d?3?2wm653wehh?2platform?2mvv210?2src@ 0007a940     libeay32:bn_lib.obj
 0002:00014998       ??_C@_0EN@HNNJMEMO@d?3?2wm653wehh?2platform?2mvv210?2src@ 0007a998     libeay32:rsa_pss.obj
 0002:000149e8       ??_C@_0EO@IHJGGIGJ@d?3?2wm653wehh?2platform?2mvv210?2src@ 0007a9e8     libeay32:rsa_x931.obj
 0002:00014a38       ??_C@_0EO@KJLCAEHF@d?3?2wm653wehh?2platform?2mvv210?2src@ 0007aa38     libeay32:rsa_saos.obj
 0002:00014c88       ??_C@_0M@MMOLGLEG@X509_ALGORS?$AA@ 0007ac88     libeay32:x_algor.obj
 0002:00014c94       ??_C@_0L@BNOBMJFK@algorithms?$AA@ 0007ac94     libeay32:x_algor.obj
 0002:00014ca0       ??_C@_0L@BFHONDPK@X509_ALGOR?$AA@ 0007aca0     libeay32:x_algor.obj
 0002:00014cac       ??_C@_09DAGAJHIH@parameter?$AA@ 0007acac     libeay32:x_algor.obj
 0002:00014cb8       ??_C@_0EN@EGODLFJH@d?3?2wm653wehh?2platform?2mvv210?2src@ 0007acb8     libeay32:cms_env.obj
 0002:00014d20       ??_C@_0EN@HOIICIBH@d?3?2wm653wehh?2platform?2mvv210?2src@ 0007ad20     libeay32:bn_print.obj
 0002:00014d70       ??_C@_04LJCFADJL@?$CF09u?$AA@ 0007ad70     libeay32:bn_print.obj
 0002:00014d78       ??_C@_02GMHACPFF@?$CFu?$AA@ 0007ad78     libeay32:bn_print.obj
 0002:00014d7c       ??_C@_01JOAMLHOP@?9?$AA@   0007ad7c     libeay32:bn_print.obj
 0002:00014d80       RSA_version                0007ad80     libeay32:rsa_lib.obj
 0002:00014da8       ??_C@_0EN@MLDILJPH@d?3?2wm653wehh?2platform?2mvv210?2src@ 0007ada8     libeay32:rsa_lib.obj
 0002:00014df8       ??_C@_0EN@CONJBLIN@d?3?2wm653wehh?2platform?2mvv210?2src@ 0007adf8     libeay32:rsa_gen.obj
 0002:00014e48       ??_C@_0FB@OACJPALH@d?3?2wm653wehh?2platform?2mvv210?2src@ 0007ae48     libeay32:obj_lib.obj
 0002:00014ea0       ??_C@_0EN@MBCJMNEM@d?3?2wm653wehh?2platform?2mvv210?2src@ 0007aea0     libeay32:bio_lib.obj
 0002:00014ef0       ??_C@_01CLKCMJKC@?5?$AA@   0007aef0     libeay32:bio_lib.obj
 0002:00014ef4       ASN1_version               0007aef4     libeay32:asn1_lib.obj
 0002:00014f20       ??_C@_0EP@DFJJGEMF@d?3?2wm653wehh?2platform?2mvv210?2src@ 0007af20     libeay32:asn1_lib.obj
 0002:00014ff8       ??_C@_06IEOJBDIK@object?$AA@ 0007aff8     libeay32:x_attrib.obj
 0002:00015000       ??_C@_0P@IBKNNFL@X509_ATTRIBUTE?$AA@ 0007b000     libeay32:x_attrib.obj
 0002:00015010       ??_C@_0N@MCAEPLPL@value?4single?$AA@ 0007b010     libeay32:x_attrib.obj
 0002:00015020       ??_C@_09MPCDAIAO@value?4set?$AA@ 0007b020     libeay32:x_attrib.obj
 0002:000153b8       ??_C@_0EN@ODDCBIPI@d?3?2wm653wehh?2platform?2mvv210?2src@ 0007b3b8     libeay32:evp_pbe.obj
 0002:00015408       ??_C@_05DLJFLBDA@TYPE?$DN?$AA@ 0007b408     libeay32:evp_pbe.obj
 0002:00015410       ??_C@_02DKCKIIND@?$CFs?$AA@ 0007b410     libeay32:eng_ctrl.obj
 0002:00015414       ??_C@_0N@JAGKAFD@FILE?5pointer?$AA@ 0007b414     libeay32:bss_file.obj
 0002:00015428       ??_C@_0EO@GEBEJMNG@d?3?2wm653wehh?2platform?2mvv210?2src@ 0007b428     libeay32:bss_file.obj
 0002:00015478       ??_C@_02HJPKOJGD@?8?$CJ?$AA@ 0007b478     libeay32:bss_file.obj
 0002:0001547c       ??_C@_03IMMLKIF@?8?0?8?$AA@ 0007b47c     libeay32:bss_file.obj
 0002:00015480       ??_C@_07JMDFGFFH@fopen?$CI?8?$AA@ 0007b480     libeay32:bss_file.obj
 0002:00015488       ??_C@_01PFHFFBPC@t?$AA@    0007b488     libeay32:bss_file.obj
 0002:0001548c       ??_C@_01OJONOECF@b?$AA@    0007b48c     libeay32:bss_file.obj
 0002:00015490       ??_C@_01NOFIACDB@w?$AA@    0007b490     libeay32:bss_file.obj
 0002:00015494       ??_C@_02CBLLGHLK@r?$CL?$AA@ 0007b494     libeay32:bss_file.obj
 0002:00015498       ??_C@_02DPNLHKJD@a?$CL?$AA@ 0007b498     libeay32:bss_file.obj
 0002:000154a0       ??_C@_0EJ@IBNICOFA@d?3?2wm653wehh?2platform?2mvv210?2src@ 0007b4a0     libeay32:ex_data.obj
 0002:000154f0       ??_C@_0FC@BNEDDMOL@d?3?2wm653wehh?2platform?2mvv210?2src@ 0007b4f0     libeay32:tb_asnmth.obj
 0002:00015860       ??_C@_0N@KHICOJGI@ASN1_SET_ANY?$AA@ 0007b860     libeay32:tasn_typ.obj
 0002:00015870       ??_C@_0BC@COPGMDLD@ASN1_SEQUENCE_ANY?$AA@ 0007b870     libeay32:tasn_typ.obj
 0002:00015884       ??_C@_0BH@HEBAELGA@ASN1_OCTET_STRING_NDEF?$AA@ 0007b884     libeay32:tasn_typ.obj
 0002:0001589c       ??_C@_0O@JKANHMPI@ASN1_FBOOLEAN?$AA@ 0007b89c     libeay32:tasn_typ.obj
 0002:000158ac       ??_C@_0O@BIDLBGAP@ASN1_TBOOLEAN?$AA@ 0007b8ac     libeay32:tasn_typ.obj
 0002:000158bc       ??_C@_0N@HMAPMMGF@ASN1_BOOLEAN?$AA@ 0007b8bc     libeay32:tasn_typ.obj
 0002:000158cc       ??_C@_0BA@CBHCBCAE@DIRECTORYSTRING?$AA@ 0007b8cc     libeay32:tasn_typ.obj
 0002:000158dc       ??_C@_0M@FANFDIEE@DISPLAYTEXT?$AA@ 0007b8dc     libeay32:tasn_typ.obj
 0002:000158e8       ??_C@_0P@NDKOCAEJ@ASN1_PRINTABLE?$AA@ 0007b8e8     libeay32:tasn_typ.obj
 0002:000158f8       ??_C@_0O@NJFCFMGE@ASN1_SEQUENCE?$AA@ 0007b8f8     libeay32:tasn_typ.obj
 0002:00015908       ??_C@_08FIDCPDIJ@ASN1_ANY?$AA@ 0007b908     libeay32:tasn_typ.obj
 0002:00015914       ??_C@_0P@CHICPHIN@ASN1_BMPSTRING?$AA@ 0007b914     libeay32:tasn_typ.obj
 0002:00015924       ??_C@_0BF@DMDDFBNJ@ASN1_UNIVERSALSTRING?$AA@ 0007b924     libeay32:tasn_typ.obj
 0002:0001593c       ??_C@_0BD@HMMCNBGD@ASN1_VISIBLESTRING?$AA@ 0007b93c     libeay32:tasn_typ.obj
 0002:00015950       ??_C@_0BF@MPJFOIHC@ASN1_GENERALIZEDTIME?$AA@ 0007b950     libeay32:tasn_typ.obj
 0002:00015968       ??_C@_0N@OIMCLPEM@ASN1_UTCTIME?$AA@ 0007b968     libeay32:tasn_typ.obj
 0002:00015978       ??_C@_0BD@EMMGLGMD@ASN1_GENERALSTRING?$AA@ 0007b978     libeay32:tasn_typ.obj
 0002:0001598c       ??_C@_0P@KBFNFBLB@ASN1_IA5STRING?$AA@ 0007b98c     libeay32:tasn_typ.obj
 0002:0001599c       ??_C@_0P@GDIFPLAP@ASN1_T61STRING?$AA@ 0007b99c     libeay32:tasn_typ.obj
 0002:000159ac       ??_C@_0BF@CPDMNKCA@ASN1_PRINTABLESTRING?$AA@ 0007b9ac     libeay32:tasn_typ.obj
 0002:000159c4       ??_C@_0BA@LEPDCAOC@ASN1_UTF8STRING?$AA@ 0007b9c4     libeay32:tasn_typ.obj
 0002:000159d4       ??_C@_0M@BJNOJGBL@ASN1_OBJECT?$AA@ 0007b9d4     libeay32:tasn_typ.obj
 0002:000159e0       ??_C@_09NHFFCPKK@ASN1_NULL?$AA@ 0007b9e0     libeay32:tasn_typ.obj
 0002:000159ec       ??_C@_0BC@PEBEKNCO@ASN1_OCTET_STRING?$AA@ 0007b9ec     libeay32:tasn_typ.obj
 0002:00015a00       ??_C@_0BA@LJHGDIKH@ASN1_BIT_STRING?$AA@ 0007ba00     libeay32:tasn_typ.obj
 0002:00015a10       ??_C@_0BA@CLGIIAJD@ASN1_ENUMERATED?$AA@ 0007ba10     libeay32:tasn_typ.obj
 0002:00015a20       ??_C@_0N@KIGEHGKE@ASN1_INTEGER?$AA@ 0007ba20     libeay32:tasn_typ.obj
 0002:00015a30       ??_C@_0EM@IJKLDGFG@d?3?2wm653wehh?2platform?2mvv210?2src@ 0007ba30     libeay32:a_int.obj
 0002:00015a80       ??_C@_0EN@CHOOKOEN@d?3?2wm653wehh?2platform?2mvv210?2src@ 0007ba80     libeay32:bn_blind.obj
 0002:00015ad0       ??_C@_0EL@BMHBHOHG@d?3?2wm653wehh?2platform?2mvv210?2src@ 0007bad0     libeay32:bn_ctx.obj
 0002:00015b20       ??_C@_0EL@EPOPJPNF@d?3?2wm653wehh?2platform?2mvv210?2src@ 0007bb20     libeay32:bn_gcd.obj
 0002:00015b70       ??_C@_0EL@CLJGKANI@d?3?2wm653wehh?2platform?2mvv210?2src@ 0007bb70     libeay32:bn_add.obj
 0002:00015c40       ??_C@_0EP@IJPFBBNM@d?3?2wm653wehh?2platform?2mvv210?2src@ 0007bc40     libeay32:tasn_dec.obj
 0002:00015c90       ??_C@_05GCCLHHOK@Type?$DN?$AA@ 0007bc90     libeay32:tasn_dec.obj
 0002:00015c98       ??_C@_07NHKPEHKF@?0?5Type?$DN?$AA@ 0007bc98     libeay32:tasn_dec.obj
 0002:00015ca0       ??_C@_06GPKHKFJE@Field?$DN?$AA@ 0007bca0     libeay32:tasn_dec.obj
 0002:00015ca8       ??_C@_0EP@DFHJPDGI@d?3?2wm653wehh?2platform?2mvv210?2src@ 0007bca8     libeay32:tasn_enc.obj
 0002:00015cf8       ??_C@_0EP@PHBFPCHC@d?3?2wm653wehh?2platform?2mvv210?2src@ 0007bcf8     libeay32:tasn_new.obj
 0002:00015d48       EVP_version                0007bd48     libeay32:evp_enc.obj
 0002:00015d70       ??_C@_0EN@FALCDJAN@d?3?2wm653wehh?2platform?2mvv210?2src@ 0007bd70     libeay32:evp_enc.obj
 0002:00015dc0       ??_C@_0BM@NOPGEACO@bl?5?$DM?$DN?5?$CIint?$CJsizeof?$CIctx?9?$DObuf?$CJ?$AA@ 0007bdc0     libeay32:evp_enc.obj
 0002:00015ddc       ??_C@_0BF@NLHGELBH@b?5?$DM?$DN?5sizeof?5ctx?9?$DObuf?$AA@ 0007bddc     libeay32:evp_enc.obj
 0002:00015df4       ??_C@_0BH@JPOFFCDO@b?5?$DM?$DN?5sizeof?5ctx?9?$DOfinal?$AA@ 0007bdf4     libeay32:evp_enc.obj
 0002:00015e0c       ??_C@_0DG@IKOHIL@EVP_CIPHER_CTX_iv_length?$CIctx?$CJ?5?$DM?$DN@ 0007be0c     libeay32:evp_enc.obj
 0002:00015e48       ??_C@_0FO@KIBMBINE@ctx?9?$DOcipher?9?$DOblock_size?5?$DN?$DN?51?5?$HM?$HM?5@ 0007be48     libeay32:evp_enc.obj
 0002:00015ea8       ??_C@_0EN@MHHCMNBH@d?3?2wm653wehh?2platform?2mvv210?2src@ 0007bea8     libeay32:a_enum.obj
 0002:00015ef8       ??_C@_0EP@KFOAJJMD@d?3?2wm653wehh?2platform?2mvv210?2src@ 0007bef8     libeay32:x509name.obj
 0002:00015f48       ??_C@_05DFCJAACA@name?$DN?$AA@ 0007bf48     libeay32:x509name.obj
 0002:00015fc4       v3_sinfo                   0007bfc4     libeay32:v3_info.obj
 0002:00015ffc       v3_info                    0007bffc     libeay32:v3_info.obj
 0002:00016034       ??_C@_0BG@PFEKCAHJ@AUTHORITY_INFO_ACCESS?$AA@ 0007c034     libeay32:v3_info.obj
 0002:0001604c       ??_C@_0N@CJKIBDLK@GeneralNames?$AA@ 0007c04c     libeay32:v3_info.obj
 0002:0001605c       ??_C@_0BD@IKHCEBLA@ACCESS_DESCRIPTION?$AA@ 0007c05c     libeay32:v3_info.obj
 0002:00016070       ??_C@_08CBBFJFMD@location?$AA@ 0007c070     libeay32:v3_info.obj
 0002:0001607c       ??_C@_06GABBCIBA@method?$AA@ 0007c07c     libeay32:v3_info.obj
 0002:00016084       ??_C@_03NLJIHOMM@?5?9?5?$AA@ 0007c084     libeay32:v3_info.obj
 0002:00016088       ??_C@_0FA@EJINBECP@d?3?2wm653wehh?2platform?2mvv210?2src@ 0007c088     libeay32:v3_info.obj
 0002:000160d8       ??_C@_06KFEJCPI@value?$DN?$AA@ 0007c0d8     libeay32:v3_info.obj
 0002:000160e0       ??_C@_0EP@JMDNBNIF@d?3?2wm653wehh?2platform?2mvv210?2src@ 0007c0e0     libeay32:conf_mod.obj
 0002:00016130       ??_C@_01KMDKNFGN@?1?$AA@   0007c130     libeay32:conf_mod.obj
 0002:000162c4       ??_C@_0O@NFAAPMIG@GENERAL_NAMES?$AA@ 0007c2c4     libeay32:v3_genn.obj
 0002:000162d4       ??_C@_0N@JCNPGCGM@GENERAL_NAME?$AA@ 0007c2d4     libeay32:v3_genn.obj
 0002:000162e4       ??_C@_0P@KIENIEMD@d?4registeredID?$AA@ 0007c2e4     libeay32:v3_genn.obj
 0002:000162f4       ??_C@_0M@PANAALJB@d?4iPAddress?$AA@ 0007c2f4     libeay32:v3_genn.obj
 0002:00016300       ??_C@_0BM@CMCMADCA@d?4uniformResourceIdentifier?$AA@ 0007c300     libeay32:v3_genn.obj
 0002:0001631c       ??_C@_0P@OBCPPLOL@d?4ediPartyName?$AA@ 0007c31c     libeay32:v3_genn.obj
 0002:0001632c       ??_C@_0BA@JLDFBFLN@d?4directoryName?$AA@ 0007c32c     libeay32:v3_genn.obj
 0002:0001633c       ??_C@_0O@NKHOODFK@d?4x400Address?$AA@ 0007c33c     libeay32:v3_genn.obj
 0002:0001634c       ??_C@_09HIBJABFB@d?4dNSName?$AA@ 0007c34c     libeay32:v3_genn.obj
 0002:00016358       ??_C@_0N@MMCCMIPN@d?4rfc822Name?$AA@ 0007c358     libeay32:v3_genn.obj
 0002:00016368       ??_C@_0M@FGIBMCEL@d?4otherName?$AA@ 0007c368     libeay32:v3_genn.obj
 0002:00016374       ??_C@_0N@GEILLNKP@EDIPARTYNAME?$AA@ 0007c374     libeay32:v3_genn.obj
 0002:00016384       ??_C@_09EHIHAIPF@partyName?$AA@ 0007c384     libeay32:v3_genn.obj
 0002:00016390       ??_C@_0N@KBFEHHDO@nameAssigner?$AA@ 0007c390     libeay32:v3_genn.obj
 0002:000163a0       ??_C@_09MAFAINAH@OTHERNAME?$AA@ 0007c3a0     libeay32:v3_genn.obj
 0002:000163ac       ??_C@_05MFEJDJP@value?$AA@ 0007c3ac     libeay32:v3_genn.obj
 0002:000163b4       ??_C@_07EEDOJOAA@type_id?$AA@ 0007c3b4     libeay32:v3_genn.obj
 0002:00016444       ??_C@_0BA@JCMMJNEE@X509_EXTENSIONS?$AA@ 0007c444     libeay32:x_exten.obj
 0002:00016454       ??_C@_09KMFOEAAA@Extension?$AA@ 0007c454     libeay32:x_exten.obj
 0002:00016460       ??_C@_0P@OMHBNPIC@X509_EXTENSION?$AA@ 0007c460     libeay32:x_exten.obj
 0002:00016470       ??_C@_08CBBMEOFB@critical?$AA@ 0007c470     libeay32:x_exten.obj
 0002:00016480       ??_C@_0EM@NFBEAOGE@d?3?2wm653wehh?2platform?2mvv210?2src@ 0007c480     libeay32:ec_mult.obj
 0002:00016510       ??_C@_09FLJPBFIA@ECDSA_SIG?$AA@ 0007c510     libeay32:ecs_asn1.obj
 0002:0001651c       ??_C@_0BF@DJKLHCAL@OpenSSL?5ECDSA?5method?$AA@ 0007c51c     libeay32:ecs_ossl.obj
 0002:00016538       ??_C@_0FA@PJGMNPFB@d?3?2wm653wehh?2platform?2mvv210?2src@ 0007c538     libeay32:ecs_ossl.obj
 0002:0001658c       ECDH_version               0007c58c     libeay32:ech_lib.obj
 0002:000165b8       ??_C@_0EO@JGKBLENE@d?3?2wm653wehh?2platform?2mvv210?2src@ 0007c5b8     libeay32:ech_lib.obj
 0002:00016608       ??_C@_0EM@GFDFNKJ@d?3?2wm653wehh?2platform?2mvv210?2src@ 0007c608     libeay32:bn_rand.obj
 0002:0001668c       ??_C@_06CHOIGJDB@BIGNUM?$AA@ 0007c68c     libeay32:x_bignum.obj
 0002:000166cc       ??_C@_05HIGAPBOG@ZLONG?$AA@ 0007c6cc     libeay32:x_long.obj
 0002:000166d4       ??_C@_04KCJFIMMJ@LONG?$AA@ 0007c6d4     libeay32:x_long.obj
 0002:000166e0       ??_C@_0EN@OBFIOJLM@d?3?2wm653wehh?2platform?2mvv210?2src@ 0007c6e0     libeay32:x_long.obj
 0002:00016730       ??_C@_04PEDNGLFL@?$CFld?6?$AA@ 0007c730     libeay32:x_long.obj
 0002:00016738       ??_C@_0EM@KNGHBEEM@d?3?2wm653wehh?2platform?2mvv210?2src@ 0007c738     libeay32:a_dup.obj
 0002:00016788       ??_C@_0EO@PHDJAHKO@d?3?2wm653wehh?2platform?2mvv210?2src@ 0007c788     libeay32:dsa_sign.obj
 0002:000167d8       ??_C@_0BD@IBKHKBJA@OpenSSL?5DSA?5method?$AA@ 0007c7d8     libeay32:dsa_ossl.obj
 0002:000167f0       ??_C@_0EO@MKGDCJCA@d?3?2wm653wehh?2platform?2mvv210?2src@ 0007c7f0     libeay32:dsa_ossl.obj
 0002:00016848       ??_C@_0EL@MKGMFIIF@d?3?2wm653wehh?2platform?2mvv210?2src@ 0007c848     libeay32:bn_exp.obj
 0002:00016898       ??_C@_0EM@PNNGIHGB@d?3?2wm653wehh?2platform?2mvv210?2src@ 0007c898     libeay32:bn_mont.obj
 0002:000168e8       ??_C@_0EL@HJNLGKMO@d?3?2wm653wehh?2platform?2mvv210?2src@ 0007c8e8     libeay32:bn_div.obj
 0002:00017940       ??_C@_0EO@FBMJEFIA@d?3?2wm653wehh?2platform?2mvv210?2src@ 0007d940     libeay32:rsa_oaep.obj
 0002:00017990       SHA1_version               0007d990     libeay32:sha1dgst.obj
 0002:000179b8       SHA256_version             0007d9b8     libeay32:sha256.obj
 0002:00017ae8       SHA512_version             0007dae8     libeay32:sha512.obj
 0002:00018b74       ??_C@_0M@GJHAMFIP@CMS_Receipt?$AA@ 0007eb74     libeay32:cms_asn1.obj
 0002:00018b80       ??_C@_0BJ@OPFDHHHB@originatorSignatureValue?$AA@ 0007eb80     libeay32:cms_asn1.obj
 0002:00018b9c       ??_C@_0BD@KOFKAGLC@CMS_ReceiptRequest?$AA@ 0007eb9c     libeay32:cms_asn1.obj
 0002:00018bb0       ??_C@_0L@BBBJMFCF@receiptsTo?$AA@ 0007ebb0     libeay32:cms_asn1.obj
 0002:00018bbc       ??_C@_0N@CIHGCFJG@receiptsFrom?$AA@ 0007ebbc     libeay32:cms_asn1.obj
 0002:00018bcc       ??_C@_0BI@BHIBPADG@signedContentIdentifier?$AA@ 0007ebcc     libeay32:cms_asn1.obj
 0002:00018be4       ??_C@_0BB@JKAAKCKP@CMS_ReceiptsFrom?$AA@ 0007ebe4     libeay32:cms_asn1.obj
 0002:00018bf8       ??_C@_0O@ECMNNMJA@d?4receiptList?$AA@ 0007ebf8     libeay32:cms_asn1.obj
 0002:00018c08       ??_C@_0BB@DENHEDOF@d?4allOrFirstTier?$AA@ 0007ec08     libeay32:cms_asn1.obj
 0002:00018c1c       ??_C@_0BG@NLALJKHJ@CMS_Attributes_Verify?$AA@ 0007ec1c     libeay32:cms_asn1.obj
 0002:00018c34       ??_C@_0BE@PAHMALPK@CMS_Attributes_Sign?$AA@ 0007ec34     libeay32:cms_asn1.obj
 0002:00018c48       ??_C@_0P@KAJKPCJH@CMS_ATTRIBUTES?$AA@ 0007ec48     libeay32:cms_asn1.obj
 0002:00018c58       ??_C@_0BA@ECDDPOHH@CMS_ContentInfo?$AA@ 0007ec58     libeay32:cms_asn1.obj
 0002:00018c68       ??_C@_0BB@NELCELCK@d?4compressedData?$AA@ 0007ec68     libeay32:cms_asn1.obj
 0002:00018c7c       ??_C@_0BE@NPCJHPOJ@d?4authenticatedData?$AA@ 0007ec7c     libeay32:cms_asn1.obj
 0002:00018c90       ??_C@_0BA@HJCBJEH@d?4encryptedData?$AA@ 0007ec90     libeay32:cms_asn1.obj
 0002:00018ca0       ??_C@_0P@HJCJOBOP@d?4digestedData?$AA@ 0007eca0     libeay32:cms_asn1.obj
 0002:00018cb0       ??_C@_0BA@CCFAJLBF@d?4envelopedData?$AA@ 0007ecb0     libeay32:cms_asn1.obj
 0002:00018cc0       ??_C@_0N@DDIMJOHE@d?4signedData?$AA@ 0007ecc0     libeay32:cms_asn1.obj
 0002:00018cd0       ??_C@_06OAPKPHLA@d?4data?$AA@ 0007ecd0     libeay32:cms_asn1.obj
 0002:00018cd8       ??_C@_0BD@IAIGGNCI@CMS_CompressedData?$AA@ 0007ecd8     libeay32:cms_asn1.obj
 0002:00018cec       ??_C@_0BF@PNIPCJJ@compressionAlgorithm?$AA@ 0007ecec     libeay32:cms_asn1.obj
 0002:00018d04       ??_C@_0BG@DOMHNMEC@CMS_AuthenticatedData?$AA@ 0007ed04     libeay32:cms_asn1.obj
 0002:00018d1c       ??_C@_0M@FBFPDIHA@unauthAttrs?$AA@ 0007ed1c     libeay32:cms_asn1.obj
 0002:00018d28       ??_C@_03BADCJGEO@mac?$AA@  0007ed28     libeay32:cms_asn1.obj
 0002:00018d2c       ??_C@_09HHELNNLD@authAttrs?$AA@ 0007ed2c     libeay32:cms_asn1.obj
 0002:00018d38       ??_C@_0N@PGIFJMM@macAlgorithm?$AA@ 0007ed38     libeay32:cms_asn1.obj
 0002:00018d48       ??_C@_0BC@ONODDCLB@CMS_EncryptedData?$AA@ 0007ed48     libeay32:cms_asn1.obj
 0002:00018d5c       ??_C@_0BB@NNEFCOGL@CMS_DigestedData?$AA@ 0007ed5c     libeay32:cms_asn1.obj
 0002:00018d70       ??_C@_0BC@MICBLAOD@CMS_EnvelopedData?$AA@ 0007ed70     libeay32:cms_asn1.obj
 0002:00018d84       ??_C@_0BB@JCNJKAMK@unprotectedAttrs?$AA@ 0007ed84     libeay32:cms_asn1.obj
 0002:00018d98       ??_C@_0BF@OHLPJHAO@encryptedContentInfo?$AA@ 0007ed98     libeay32:cms_asn1.obj
 0002:00018db0       ??_C@_0P@MHKJPFAE@recipientInfos?$AA@ 0007edb0     libeay32:cms_asn1.obj
 0002:00018dc0       ??_C@_0P@HMLDCEHI@originatorInfo?$AA@ 0007edc0     libeay32:cms_asn1.obj
 0002:00018dd0       ??_C@_0BC@OIOGGOHC@CMS_RecipientInfo?$AA@ 0007edd0     libeay32:cms_asn1.obj
 0002:00018de4       ??_C@_05CDKGAJPA@d?4ori?$AA@ 0007ede4     libeay32:cms_asn1.obj
 0002:00018dec       ??_C@_06MMLMDIAL@d?4pwri?$AA@ 0007edec     libeay32:cms_asn1.obj
 0002:00018df4       ??_C@_07GNHCNHGA@d?4kekri?$AA@ 0007edf4     libeay32:cms_asn1.obj
 0002:00018dfc       ??_C@_06KOPOJGNL@d?4kari?$AA@ 0007edfc     libeay32:cms_asn1.obj
 0002:00018e04       ??_C@_06MJDJDBHG@d?4ktri?$AA@ 0007ee04     libeay32:cms_asn1.obj
 0002:00018e0c       ??_C@_0BH@ELFPNLNE@CMS_OtherRecipientInfo?$AA@ 0007ee0c     libeay32:cms_asn1.obj
 0002:00018e24       ??_C@_08CPLCPCAK@oriValue?$AA@ 0007ee24     libeay32:cms_asn1.obj
 0002:00018e30       ??_C@_07FAMFHMLO@oriType?$AA@ 0007ee30     libeay32:cms_asn1.obj
 0002:00018e38       ??_C@_0BK@KBPCOALF@CMS_PasswordRecipientInfo?$AA@ 0007ee38     libeay32:cms_asn1.obj
 0002:00018e54       ??_C@_0BH@OGDBOKG@keyDerivationAlgorithm?$AA@ 0007ee54     libeay32:cms_asn1.obj
 0002:00018e6c       ??_C@_0BF@NBHFGDNK@CMS_KEKRecipientInfo?$AA@ 0007ee6c     libeay32:cms_asn1.obj
 0002:00018e84       ??_C@_05NHGMHHPG@kekid?$AA@ 0007ee84     libeay32:cms_asn1.obj
 0002:00018e8c       ??_C@_0BC@MBEMIKEG@CMS_KEKIdentifier?$AA@ 0007ee8c     libeay32:cms_asn1.obj
 0002:00018ea0       ??_C@_0O@NFJHJHKH@keyIdentifier?$AA@ 0007eea0     libeay32:cms_asn1.obj
 0002:00018eb0       ??_C@_0BK@FMJLFKK@CMS_KeyAgreeRecipientInfo?$AA@ 0007eeb0     libeay32:cms_asn1.obj
 0002:00018ecc       ??_C@_0BH@PJIHPFGD@recipientEncryptedKeys?$AA@ 0007eecc     libeay32:cms_asn1.obj
 0002:00018ee4       ??_C@_03BGILEBGG@ukm?$AA@  0007eee4     libeay32:cms_asn1.obj
 0002:00018ee8       ??_C@_0L@LNFLHOFG@originator?$AA@ 0007eee8     libeay32:cms_asn1.obj
 0002:00018ef4       ??_C@_0BO@EGGGKLC@CMS_OriginatorIdentifierOrKey?$AA@ 0007eef4     libeay32:cms_asn1.obj
 0002:00018f14       ??_C@_0BA@GMAGEPIK@d?4originatorKey?$AA@ 0007ef14     libeay32:cms_asn1.obj
 0002:00018f24       ??_C@_0BI@BANGJHOF@CMS_OriginatorPublicKey?$AA@ 0007ef24     libeay32:cms_asn1.obj
 0002:00018f3c       ??_C@_09IDENFCJL@publicKey?$AA@ 0007ef3c     libeay32:cms_asn1.obj
 0002:00018f48       ??_C@_0BK@PEPAIBDP@CMS_RecipientEncryptedKey?$AA@ 0007ef48     libeay32:cms_asn1.obj
 0002:00018f64       ??_C@_0CA@LLLOPIGI@CMS_KeyAgreeRecipientIdentifier?$AA@ 0007ef64     libeay32:cms_asn1.obj
 0002:00018f84       ??_C@_08NDNCHPPH@d?4rKeyId?$AA@ 0007ef84     libeay32:cms_asn1.obj
 0002:00018f90       ??_C@_0BL@KIFNEPBG@CMS_RecipientKeyIdentifier?$AA@ 0007ef90     libeay32:cms_asn1.obj
 0002:00018fac       ??_C@_05BGEKGIIP@other?$AA@ 0007efac     libeay32:cms_asn1.obj
 0002:00018fb4       ??_C@_04JNIHBGGH@date?$AA@ 0007efb4     libeay32:cms_asn1.obj
 0002:00018fbc       ??_C@_0BG@MPKMCLOF@CMS_OtherKeyAttribute?$AA@ 0007efbc     libeay32:cms_asn1.obj
 0002:00018fd4       ??_C@_07CNMADOPK@keyAttr?$AA@ 0007efd4     libeay32:cms_asn1.obj
 0002:00018fdc       ??_C@_09FBOICBLA@keyAttrId?$AA@ 0007efdc     libeay32:cms_asn1.obj
 0002:00018fe8       ??_C@_0BK@JKNAJMBM@CMS_KeyTransRecipientInfo?$AA@ 0007efe8     libeay32:cms_asn1.obj
 0002:00019004       ??_C@_0N@DJLGIBLA@encryptedKey?$AA@ 0007f004     libeay32:cms_asn1.obj
 0002:00019014       ??_C@_0BH@NBKKPKMP@keyEncryptionAlgorithm?$AA@ 0007f014     libeay32:cms_asn1.obj
 0002:0001902c       ??_C@_03FJBKBGPI@rid?$AA@  0007f02c     libeay32:cms_asn1.obj
 0002:00019030       ??_C@_0BJ@IHPALOIM@CMS_EncryptedContentInfo?$AA@ 0007f030     libeay32:cms_asn1.obj
 0002:0001904c       ??_C@_0BB@HAOJNDCF@encryptedContent?$AA@ 0007f04c     libeay32:cms_asn1.obj
 0002:00019060       ??_C@_0BL@JFGGCGJK@contentEncryptionAlgorithm?$AA@ 0007f060     libeay32:cms_asn1.obj
 0002:0001907c       ??_C@_0BD@BOLANDH@CMS_OriginatorInfo?$AA@ 0007f07c     libeay32:cms_asn1.obj
 0002:00019090       ??_C@_0P@IFJHOEIE@CMS_SignedData?$AA@ 0007f090     libeay32:cms_asn1.obj
 0002:000190a0       ??_C@_0M@OPIAHELE@signerInfos?$AA@ 0007f0a0     libeay32:cms_asn1.obj
 0002:000190ac       ??_C@_04GDKGHFBJ@crls?$AA@ 0007f0ac     libeay32:cms_asn1.obj
 0002:000190b4       ??_C@_0N@NGKEHKOM@certificates?$AA@ 0007f0b4     libeay32:cms_asn1.obj
 0002:000190c4       ??_C@_0BB@EFFJPOAL@encapContentInfo?$AA@ 0007f0c4     libeay32:cms_asn1.obj
 0002:000190d8       ??_C@_0BB@CMPBPEDI@digestAlgorithms?$AA@ 0007f0d8     libeay32:cms_asn1.obj
 0002:000190ec       ??_C@_0BJ@MJACOINL@CMS_RevocationInfoChoice?$AA@ 0007f0ec     libeay32:cms_asn1.obj
 0002:00019108       ??_C@_05BEAHECAN@d?4crl?$AA@ 0007f108     libeay32:cms_asn1.obj
 0002:00019110       ??_C@_0BO@ONAFHMMC@CMS_OtherRevocationInfoFormat?$AA@ 0007f110     libeay32:cms_asn1.obj
 0002:00019130       ??_C@_0N@MOBLFMFA@otherRevInfo?$AA@ 0007f130     libeay32:cms_asn1.obj
 0002:00019140       ??_C@_0BD@HLCFDNLB@otherRevInfoFormat?$AA@ 0007f140     libeay32:cms_asn1.obj
 0002:00019154       ??_C@_0P@HBMKILHF@CMS_SignerInfo?$AA@ 0007f154     libeay32:cms_asn1.obj
 0002:00019164       ??_C@_0O@PDNEMLFH@unsignedAttrs?$AA@ 0007f164     libeay32:cms_asn1.obj
 0002:00019174       ??_C@_09CMIIOJHF@signature?$AA@ 0007f174     libeay32:cms_asn1.obj
 0002:00019180       ??_C@_0BD@CBMBFDMH@signatureAlgorithm?$AA@ 0007f180     libeay32:cms_asn1.obj
 0002:00019194       ??_C@_0M@MDGDHPDJ@signedAttrs?$AA@ 0007f194     libeay32:cms_asn1.obj
 0002:000191a0       ??_C@_0BA@OBGGJDDI@digestAlgorithm?$AA@ 0007f1a0     libeay32:cms_asn1.obj
 0002:000191b0       ??_C@_03OBKGHBJN@sid?$AA@  0007f1b0     libeay32:cms_asn1.obj
 0002:000191b4       ??_C@_0BM@FGCJFMKP@CMS_EncapsulatedContentInfo?$AA@ 0007f1b4     libeay32:cms_asn1.obj
 0002:000191d0       ??_C@_08OOKAKDHE@eContent?$AA@ 0007f1d0     libeay32:cms_asn1.obj
 0002:000191dc       ??_C@_0N@EBAJNGML@eContentType?$AA@ 0007f1dc     libeay32:cms_asn1.obj
 0002:000191ec       ??_C@_0BF@HIKDPBH@CMS_SignerIdentifier?$AA@ 0007f1ec     libeay32:cms_asn1.obj
 0002:00019204       ??_C@_0BH@LJLJDHKP@d?4subjectKeyIdentifier?$AA@ 0007f204     libeay32:cms_asn1.obj
 0002:0001921c       ??_C@_0BI@DNGDMGHK@d?4issuerAndSerialNumber?$AA@ 0007f21c     libeay32:cms_asn1.obj
 0002:00019234       ??_C@_0BH@CFNIJMB@CMS_CertificateChoices?$AA@ 0007f234     libeay32:cms_asn1.obj
 0002:0001924c       ??_C@_07JIJPKMF@d?4other?$AA@ 0007f24c     libeay32:cms_asn1.obj
 0002:00019254       ??_C@_0N@FODDOFO@d?4v2AttrCert?$AA@ 0007f254     libeay32:cms_asn1.obj
 0002:00019264       ??_C@_0N@OONEIFFN@d?4v1AttrCert?$AA@ 0007f264     libeay32:cms_asn1.obj
 0002:00019274       ??_C@_0BG@NLAONGA@d?4extendedCertificate?$AA@ 0007f274     libeay32:cms_asn1.obj
 0002:0001928c       ??_C@_0O@MNFCNMPJ@d?4certificate?$AA@ 0007f28c     libeay32:cms_asn1.obj
 0002:0001929c       ??_C@_0BL@CACJFKMB@CMS_OtherCertificateFormat?$AA@ 0007f29c     libeay32:cms_asn1.obj
 0002:000192b8       ??_C@_09CDBALEP@otherCert?$AA@ 0007f2b8     libeay32:cms_asn1.obj
 0002:000192c4       ??_C@_0BA@FEKMLOFK@otherCertFormat?$AA@ 0007f2c4     libeay32:cms_asn1.obj
 0002:000192d4       ??_C@_0BK@GLMHLHML@CMS_IssuerAndSerialNumber?$AA@ 0007f2d4     libeay32:cms_asn1.obj
 0002:000192f0       ??_C@_06EAINIONG@issuer?$AA@ 0007f2f0     libeay32:cms_asn1.obj
 0002:000192f8       ??_C@_0EN@MLHPIIH@d?3?2wm653wehh?2platform?2mvv210?2src@ 0007f2f8     libeay32:cms_lib.obj
 0002:00019348       ??_C@_0EN@CBCEBCDK@d?3?2wm653wehh?2platform?2mvv210?2src@ 0007f348     libeay32:cms_enc.obj
 0002:00019398       ??_C@_0EM@PJNFBCEL@d?3?2wm653wehh?2platform?2mvv210?2src@ 0007f398     libeay32:cms_sd.obj
 0002:00019410       ??_C@_0O@MABGKINF@timestampsign?$AA@ 0007f410     libeay32:v3_purp.obj
 0002:00019420       ??_C@_0BD@HLGKGIIB@Time?5Stamp?5signing?$AA@ 0007f420     libeay32:v3_purp.obj
 0002:00019434       ??_C@_0L@IMHCEJBK@ocsphelper?$AA@ 0007f434     libeay32:v3_purp.obj
 0002:00019440       ??_C@_0M@NEPIMEJA@OCSP?5helper?$AA@ 0007f440     libeay32:v3_purp.obj
 0002:0001944c       ??_C@_03OBJFJEBA@any?$AA@  0007f44c     libeay32:v3_purp.obj
 0002:00019450       ??_C@_0M@NMNFLNDB@Any?5Purpose?$AA@ 0007f450     libeay32:v3_purp.obj
 0002:0001945c       ??_C@_07IOMCDAPH@crlsign?$AA@ 0007f45c     libeay32:v3_purp.obj
 0002:00019464       ??_C@_0M@MEKLJHLA@CRL?5signing?$AA@ 0007f464     libeay32:v3_purp.obj
 0002:00019470       ??_C@_0N@BPFJELMP@smimeencrypt?$AA@ 0007f470     libeay32:v3_purp.obj
 0002:00019480       ??_C@_0BC@DOGNOPGC@S?1MIME?5encryption?$AA@ 0007f480     libeay32:v3_purp.obj
 0002:00019494       ??_C@_09JPGBHOKH@smimesign?$AA@ 0007f494     libeay32:v3_purp.obj
 0002:000194a0       ??_C@_0P@LNDEBCCO@S?1MIME?5signing?$AA@ 0007f4a0     libeay32:v3_purp.obj
 0002:000194b0       ??_C@_0M@GKHHMMAE@nssslserver?$AA@ 0007f4b0     libeay32:v3_purp.obj
 0002:000194bc       ??_C@_0BE@BPEJPGJG@Netscape?5SSL?5server?$AA@ 0007f4bc     libeay32:v3_purp.obj
 0002:000194d0       ??_C@_09FEILOJPJ@sslserver?$AA@ 0007f4d0     libeay32:v3_purp.obj
 0002:000194dc       ??_C@_0L@PNDNFADH@SSL?5server?$AA@ 0007f4dc     libeay32:v3_purp.obj
 0002:000194e8       ??_C@_09BLMJDCHK@sslclient?$AA@ 0007f4e8     libeay32:v3_purp.obj
 0002:000194f4       ??_C@_0L@LCHPILLE@SSL?5client?$AA@ 0007f4f4     libeay32:v3_purp.obj
 0002:00019500       ??_C@_0FA@EPMAEJOB@d?3?2wm653wehh?2platform?2mvv210?2src@ 0007f500     libeay32:v3_purp.obj
 0002:00019550       ??_C@_0EO@PHNCOBFO@d?3?2wm653wehh?2platform?2mvv210?2src@ 0007f550     libeay32:pmeth_fn.obj
 0002:000195a8       AES_version                0007f5a8     libeay32:aes_misc.obj
 0002:000195d0       ??_C@_0EO@LKMDOFNL@d?3?2wm653wehh?2platform?2mvv210?2src@ 0007f5d0     libeay32:cms_pwri.obj
 0002:00019620       ??_C@_0BI@NFPKAKEA@Eric?5Young?8s?5PKCS?$CD1?5RSA?$AA@ 0007f620     libeay32:rsa_eay.obj
 0002:00019638       ??_C@_0EN@FLFPHDGA@d?3?2wm653wehh?2platform?2mvv210?2src@ 0007f638     libeay32:rsa_eay.obj
 0002:00019690       cmac_asn1_meth             0007f690     libeay32:cm_ameth.obj
 0002:000196fc       ??_C@_0BE@GBIGMENL@OpenSSL?5CMAC?5method?$AA@ 0007f6fc     libeay32:cm_ameth.obj
 0002:00019710       hmac_asn1_meth             0007f710     libeay32:hm_ameth.obj
 0002:0001977c       ??_C@_0BE@BABEGANF@OpenSSL?5HMAC?5method?$AA@ 0007f77c     libeay32:hm_ameth.obj
 0002:00019790       ??_C@_0EP@LPMJCFIA@d?3?2wm653wehh?2platform?2mvv210?2src@ 0007f790     libeay32:hm_ameth.obj
 0002:000197e0       eckey_asn1_meth            0007f7e0     libeay32:ec_ameth.obj
 0002:0001984c       ??_C@_0BF@DKDIFOGG@OpenSSL?5EC?5algorithm?$AA@ 0007f84c     libeay32:ec_ameth.obj
 0002:00019864       ??_C@_02KNLLHFAA@EC?$AA@   0007f864     libeay32:ec_ameth.obj
 0002:00019868       ??_C@_0EN@OGHGAGHH@d?3?2wm653wehh?2platform?2mvv210?2src@ 0007f868     libeay32:ec_ameth.obj
 0002:000198b8       ??_C@_05FJHKEHEO@pub?3?5?$AA@ 0007f8b8     libeay32:ec_ameth.obj
 0002:000198c0       ??_C@_05PFPGJCCA@priv?3?$AA@ 0007f8c0     libeay32:ec_ameth.obj
 0002:000198c8       ??_C@_0O@OPPPNLCD@?$CFs?3?5?$CI?$CFd?5bit?$CJ?6?$AA@ 0007f8c8     libeay32:ec_ameth.obj
 0002:000198d8       ??_C@_0BB@DMDKLH@ECDSA?9Parameters?$AA@ 0007f8d8     libeay32:ec_ameth.obj
 0002:000198ec       ??_C@_0L@FMJMEKAC@Public?9Key?$AA@ 0007f8ec     libeay32:ec_ameth.obj
 0002:000198f8       ??_C@_0M@CJKOCIEC@Private?9Key?$AA@ 0007f8f8     libeay32:ec_ameth.obj
 0002:00019908       dsa_asn1_meths             0007f908     libeay32:dsa_ameth.obj
 0002:00019b28       ??_C@_0EP@BEDNKKJD@d?3?2wm653wehh?2platform?2mvv210?2src@ 0007fb28     libeay32:dsa_ameth.obj
 0002:00019b78       ??_C@_05LKAKAJND@G?3?5?5?5?$AA@ 0007fb78     libeay32:dsa_ameth.obj
 0002:00019b80       ??_C@_05GPIFOIFF@Q?3?5?5?5?$AA@ 0007fb80     libeay32:dsa_ameth.obj
 0002:00019b88       ??_C@_05KENJDLPA@P?3?5?5?5?$AA@ 0007fb88     libeay32:dsa_ameth.obj
 0002:00019b90       ??_C@_0P@LAFOADJN@DSA?9Parameters?$AA@ 0007fb90     libeay32:dsa_ameth.obj
 0002:00019ba0       ??_C@_05CFOBEMGI@s?3?5?5?5?$AA@ 0007fba0     libeay32:dsa_ameth.obj
 0002:00019ba8       ??_C@_05OOLNJPMN@r?3?5?5?5?$AA@ 0007fba8     libeay32:dsa_ameth.obj
 0002:00019bb0       ??_C@_01EEMJAFIK@?6?$AA@   0007fbb0     libeay32:dsa_ameth.obj
 0002:00019bb8       dh_asn1_meth               0007fbb8     libeay32:dh_ameth.obj
 0002:00019c24       ??_C@_0BJ@OPGBMMOB@OpenSSL?5PKCS?$CD3?5DH?5method?$AA@ 0007fc24     libeay32:dh_ameth.obj
 0002:00019c40       ??_C@_02EPINMGPM@DH?$AA@   0007fc40     libeay32:dh_ameth.obj
 0002:00019c48       ??_C@_0EN@KFNOHMJF@d?3?2wm653wehh?2platform?2mvv210?2src@ 0007fc48     libeay32:dh_ameth.obj
 0002:00019c98       ??_C@_0CF@KKPEILHE@recommended?9private?9length?3?5?$CFd?5b@ 0007fc98     libeay32:dh_ameth.obj
 0002:00019cc0       ??_C@_0L@HDGHCIJF@generator?3?$AA@ 0007fcc0     libeay32:dh_ameth.obj
 0002:00019ccc       ??_C@_06POMKLBDA@prime?3?$AA@ 0007fccc     libeay32:dh_ameth.obj
 0002:00019cd4       ??_C@_0M@BCALNHOD@public?9key?3?$AA@ 0007fcd4     libeay32:dh_ameth.obj
 0002:00019ce0       ??_C@_0N@MPONDEBM@private?9key?3?$AA@ 0007fce0     libeay32:dh_ameth.obj
 0002:00019cf0       ??_C@_0BF@HJBOBPFM@PKCS?$CD3?5DH?5Parameters?$AA@ 0007fcf0     libeay32:dh_ameth.obj
 0002:00019d08       ??_C@_0BF@NEOAIGKI@PKCS?$CD3?5DH?5Public?9Key?$AA@ 0007fd08     libeay32:dh_ameth.obj
 0002:00019d20       ??_C@_0BG@BPCFBOHI@PKCS?$CD3?5DH?5Private?9Key?$AA@ 0007fd20     libeay32:dh_ameth.obj
 0002:00019d38       rsa_asn1_meths             0007fd38     libeay32:rsa_ameth.obj
 0002:00019e10       ??_C@_0BD@MHOEKPBI@OpenSSL?5RSA?5method?$AA@ 0007fe10     libeay32:rsa_ameth.obj
 0002:00019e28       ??_C@_0EP@ECKOLFPF@d?3?2wm653wehh?2platform?2mvv210?2src@ 0007fe28     libeay32:rsa_ameth.obj
 0002:00019e78       ??_C@_0N@GNAMJPHF@coefficient?3?$AA@ 0007fe78     libeay32:rsa_ameth.obj
 0002:00019e88       ??_C@_0L@OKKEHIPG@exponent2?3?$AA@ 0007fe88     libeay32:rsa_ameth.obj
 0002:00019e94       ??_C@_0L@OIOCMGKP@exponent1?3?$AA@ 0007fe94     libeay32:rsa_ameth.obj
 0002:00019ea0       ??_C@_07NJNHFNM@prime2?3?$AA@ 0007fea0     libeay32:rsa_ameth.obj
 0002:00019ea8       ??_C@_07PNLMLIF@prime1?3?$AA@ 0007fea8     libeay32:rsa_ameth.obj
 0002:00019eb0       ??_C@_0BB@NFOLHHHJ@privateExponent?3?$AA@ 0007feb0     libeay32:rsa_ameth.obj
 0002:00019ec4       ??_C@_08GIMLILAA@Modulus?3?$AA@ 0007fec4     libeay32:rsa_ameth.obj
 0002:00019ed0       ??_C@_09DALHJPOO@Exponent?3?$AA@ 0007fed0     libeay32:rsa_ameth.obj
 0002:00019edc       ??_C@_0BG@HAJOCCOP@Public?9Key?3?5?$CI?$CFd?5bit?$CJ?6?$AA@ 0007fedc     libeay32:rsa_ameth.obj
 0002:00019ef4       ??_C@_08OKDKAJKD@modulus?3?$AA@ 0007fef4     libeay32:rsa_ameth.obj
 0002:00019f00       ??_C@_0BA@FAAMOFHC@publicExponent?3?$AA@ 0007ff00     libeay32:rsa_ameth.obj
 0002:00019f10       ??_C@_0BH@JHLDJION@Private?9Key?3?5?$CI?$CFd?5bit?$CJ?6?$AA@ 0007ff10     libeay32:rsa_ameth.obj
 0002:00019f28       ??_C@_0P@DDPOEOJA@0xbc?5?$CIdefault?$CJ?$AA@ 0007ff28     libeay32:rsa_ameth.obj
 0002:00019f38       ??_C@_0BA@LIMPMLCB@Trailer?5Field?3?5?$AA@ 0007ff38     libeay32:rsa_ameth.obj
 0002:00019f48       ??_C@_0N@LMKHLINK@20?5?$CIdefault?$CJ?$AA@ 0007ff48     libeay32:rsa_ameth.obj
 0002:00019f58       ??_C@_0O@KKNIODBM@Salt?5Length?3?5?$AA@ 0007ff58     libeay32:rsa_ameth.obj
 0002:00019f68       ??_C@_0BJ@NNFOENLD@mgf1?5with?5sha1?5?$CIdefault?$CJ?$AA@ 0007ff68     libeay32:rsa_ameth.obj
 0002:00019f84       ??_C@_07DNODLGKM@INVALID?$AA@ 0007ff84     libeay32:rsa_ameth.obj
 0002:00019f8c       ??_C@_06BIDGLIKJ@?5with?5?$AA@ 0007ff8c     libeay32:rsa_ameth.obj
 0002:00019f94       ??_C@_0BB@HEAMLCPA@Mask?5Algorithm?3?5?$AA@ 0007ff94     libeay32:rsa_ameth.obj
 0002:00019fa8       ??_C@_0P@ODEAMLKF@sha1?5?$CIdefault?$CJ?$AA@ 0007ffa8     libeay32:rsa_ameth.obj
 0002:00019fb8       ??_C@_0BB@PMMDHLKH@Hash?5Algorithm?3?5?$AA@ 0007ffb8     libeay32:rsa_ameth.obj
 0002:00019fcc       ??_C@_0BL@KMBKPBGM@?5?$CIINVALID?5PSS?5PARAMETERS?$CJ?6?$AA@ 0007ffcc     libeay32:rsa_ameth.obj
 0002:00019fe8       ??_C@_0BF@JMOFLBJO@keylen?5?$DM?$DN?5sizeof?5key?$AA@ 0007ffe8     libeay32:p5_crpt2.obj
 0002:0001a000       ??_C@_0EO@DONPFFAH@d?3?2wm653wehh?2platform?2mvv210?2src@ 00080000     libeay32:p5_crpt2.obj
 0002:0001a050       ??_C@_0FB@IJLBCKEP@d?3?2wm653wehh?2platform?2mvv210?2src@ 00080050     libeay32:p12_crpt.obj
 0002:0001a0a4       ??_C@_0CD@HMFJNEFL@EVP_CIPHER_iv_length?$CIcipher?$CJ?5?$DM?$DN?5@ 000800a4     libeay32:p5_crpt.obj
 0002:0001a0c8       ??_C@_0DF@FHOHFFEB@EVP_CIPHER_key_length?$CIcipher?$CJ?5?$DM?$DN@ 000800c8     libeay32:p5_crpt.obj
 0002:0001a100       ??_C@_0EN@DFHCIHFJ@d?3?2wm653wehh?2platform?2mvv210?2src@ 00080100     libeay32:p5_crpt.obj
 0002:0001a150       RAND_version               00080150     libeay32:md_rand.obj
 0002:0001a178       ??_C@_0EO@OKPIHEJM@d?3?2wm653wehh?2platform?2mvv210?2src@ 00080178     libeay32:md_rand.obj
 0002:0001a1c8       ??_C@_0EK@MHBHPLPP@You?5need?5to?5read?5the?5OpenSSL?5FAQ@ 000801c8     libeay32:md_rand.obj
 0002:0001a214       ??_C@_0BF@KNMHCCP@?4?4?4?4?4?4?4?4?4?4?4?4?4?4?4?4?4?4?4?4?$AA@ 00080214     libeay32:md_rand.obj
 0002:0001a230       ??_C@_0EP@DLKDJLKC@d?3?2wm653wehh?2platform?2mvv210?2src@ 00080230     libeay32:buffer.obj
 0002:0001a280       ??_C@_0EL@CLIEFBLC@d?3?2wm653wehh?2platform?2mvv210?2src@ 00080280     libeay32:bn_mod.obj
 0002:0001a2d0       ??_C@_0EP@PHFMEFHI@d?3?2wm653wehh?2platform?2mvv210?2src@ 000802d0     libeay32:a_bitstr.obj
 0002:0001a320       ??_C@_0EP@EEJMGOIG@d?3?2wm653wehh?2platform?2mvv210?2src@ 00080320     libeay32:tasn_utl.obj
 0002:0001a370       ??_C@_0FC@NLMGEGGH@d?3?2wm653wehh?2platform?2mvv210?2src@ 00080370     libeay32:tb_cipher.obj
 0002:0001a408       x509_name_ff               00080408     libeay32:x_name.obj
 0002:0001a4a0       ??_C@_09KGNJKBNF@X509_NAME?$AA@ 000804a0     libeay32:x_name.obj
 0002:0001a4ac       ??_C@_0BD@FDNDONGH@X509_NAME_INTERNAL?$AA@ 000804ac     libeay32:x_name.obj
 0002:0001a4c0       ??_C@_04FABLJDN@Name?$AA@  000804c0     libeay32:x_name.obj
 0002:0001a4c8       ??_C@_0BC@GJMCELDI@X509_NAME_ENTRIES?$AA@ 000804c8     libeay32:x_name.obj
 0002:0001a4dc       ??_C@_04IEOKPFHO@RDNS?$AA@ 000804dc     libeay32:x_name.obj
 0002:0001a4e4       ??_C@_0BA@KEPIIMOE@X509_NAME_ENTRY?$AA@ 000804e4     libeay32:x_name.obj
 0002:0001a4f8       ??_C@_0EN@KBGECLLO@d?3?2wm653wehh?2platform?2mvv210?2src@ 000804f8     libeay32:x_name.obj
 0002:0001a6c4       ??_C@_07DLHCIBDH@default?$AA@ 000806c4     libeay32:a_strnid.obj
 0002:0001a6d0       v3_alt                     000806d0     libeay32:v3_alt.obj
 0002:0001a778       ??_C@_0O@KAIENCPE@Registered?5ID?$AA@ 00080778     libeay32:v3_alt.obj
 0002:0001a788       ??_C@_09DPMBDOD@?$DMinvalid?$DO?$AA@ 00080788     libeay32:v3_alt.obj
 0002:0001a794       ??_C@_0L@NGHMMCPJ@IP?5Address?$AA@ 00080794     libeay32:v3_alt.obj
 0002:0001a7a0       ??_C@_01JLIPDDHJ@?3?$AA@   000807a0     libeay32:v3_alt.obj
 0002:0001a7a4       ??_C@_02EMFKHFLK@?$CFX?$AA@ 000807a4     libeay32:v3_alt.obj
 0002:0001a7a8       ??_C@_07FDBCPIKC@DirName?$AA@ 000807a8     libeay32:v3_alt.obj
 0002:0001a7b0       ??_C@_03GMOLNBOB@URI?$AA@  000807b0     libeay32:v3_alt.obj
 0002:0001a7b4       ??_C@_03CBFPEBNE@DNS?$AA@  000807b4     libeay32:v3_alt.obj
 0002:0001a7b8       ??_C@_05HKHCDHCL@email?$AA@ 000807b8     libeay32:v3_alt.obj
 0002:0001a7c0       ??_C@_0N@EEELPIKD@EdiPartyName?$AA@ 000807c0     libeay32:v3_alt.obj
 0002:0001a7d0       ??_C@_08EBDOEGJI@X400Name?$AA@ 000807d0     libeay32:v3_alt.obj
 0002:0001a7dc       ??_C@_0O@NHCJKCDC@?$DMunsupported?$DO?$AA@ 000807dc     libeay32:v3_alt.obj
 0002:0001a7ec       ??_C@_09PAKBLAPA@othername?$AA@ 000807ec     libeay32:v3_alt.obj
 0002:0001a7f8       ??_C@_0BF@JMMIKJMP@IP?5Address?3?$DMinvalid?$DO?$AA@ 000807f8     libeay32:v3_alt.obj
 0002:0001a810       ??_C@_03NMJGLHB@?3?$CFX?$AA@ 00080810     libeay32:v3_alt.obj
 0002:0001a814       ??_C@_0BH@OAMIHBGI@IP?5Address?3?$CFd?4?$CFd?4?$CFd?4?$CFd?$AA@ 00080814     libeay32:v3_alt.obj
 0002:0001a82c       ??_C@_09JDCPLDLD@DirName?3?5?$AA@ 0008082c     libeay32:v3_alt.obj
 0002:0001a838       ??_C@_06KCNJMDKO@URI?3?$CFs?$AA@ 00080838     libeay32:v3_alt.obj
 0002:0001a840       ??_C@_06DNDEBJBH@DNS?3?$CFs?$AA@ 00080840     libeay32:v3_alt.obj
 0002:0001a848       ??_C@_08LPBGKPKE@email?3?$CFs?$AA@ 00080848     libeay32:v3_alt.obj
 0002:0001a854       ??_C@_0BL@HEOLJEB@EdiPartyName?3?$DMunsupported?$DO?$AA@ 00080854     libeay32:v3_alt.obj
 0002:0001a870       ??_C@_0BH@HDOLFIDG@X400Name?3?$DMunsupported?$DO?$AA@ 00080870     libeay32:v3_alt.obj
 0002:0001a888       ??_C@_0BI@PGFKPDEJ@othername?3?$DMunsupported?$DO?$AA@ 00080888     libeay32:v3_alt.obj
 0002:0001a8a0       ??_C@_0EP@GIOEMKKC@d?3?2wm653wehh?2platform?2mvv210?2src@ 000808a0     libeay32:v3_alt.obj
 0002:0001a8f0       ??_C@_08LNPIPPMM@section?$DN?$AA@ 000808f0     libeay32:v3_alt.obj
 0002:0001a8fc       ??_C@_09DBGAJPPE@otherName?$AA@ 000808fc     libeay32:v3_alt.obj
 0002:0001a908       ??_C@_07KKGEJKPE@dirName?$AA@ 00080908     libeay32:v3_alt.obj
 0002:0001a910       ??_C@_02MFEOMNPG@IP?$AA@   00080910     libeay32:v3_alt.obj
 0002:0001a914       ??_C@_03FEOBNLIE@RID?$AA@  00080914     libeay32:v3_alt.obj
 0002:0001a918       ??_C@_04COAGEIMF@copy?$AA@ 00080918     libeay32:v3_alt.obj
 0002:0001a920       ??_C@_04HDMMNHEL@move?$AA@ 00080920     libeay32:v3_alt.obj
 0002:0001a928       ??_C@_0EN@IDEDPOKO@d?3?2wm653wehh?2platform?2mvv210?2src@ 00080928     libeay32:dso_lib.obj
 0002:0001a978       CONF_version               00080978     libeay32:conf_lib.obj
 0002:0001a9a0       ??_C@_0EP@PNEKGEFM@d?3?2wm653wehh?2platform?2mvv210?2src@ 000809a0     libeay32:conf_lib.obj
 0002:0001a9f0       ??_C@_06NGDKEHGB@?5name?$DN?$AA@ 000809f0     libeay32:conf_lib.obj
 0002:0001a9f8       ??_C@_06BDPCGOPM@group?$DN?$AA@ 000809f8     libeay32:conf_lib.obj
 0002:0001aa00       ??_C@_02JDPG@rb?$AA@       00080a00     libeay32:conf_lib.obj
 0002:0001aa68       ??_C@_0EP@ELMNNBNC@d?3?2wm653wehh?2platform?2mvv210?2src@ 00080a68     libeay32:x509_obj.obj
 0002:0001aab8       ??_C@_0N@MJCHLFGM@NO?5X509_NAME?$AA@ 00080ab8     libeay32:x509_obj.obj
 0002:0001ab24       ??_C@_0M@INJPOKDH@X509_PUBKEY?$AA@ 00080b24     libeay32:x_pubkey.obj
 0002:0001ab30       ??_C@_0L@PJCANJEE@public_key?$AA@ 00080b30     libeay32:x_pubkey.obj
 0002:0001ab40       ??_C@_0EP@OKMPOBJE@d?3?2wm653wehh?2platform?2mvv210?2src@ 00080b40     libeay32:x_pubkey.obj
 0002:0001ac54       v3_idp                     00080c54     libeay32:v3_crld.obj
 0002:0001ac8c       v3_freshest_crl            00080c8c     libeay32:v3_crld.obj
 0002:0001acc4       v3_crld                    00080cc4     libeay32:v3_crld.obj
 0002:0001ae28       ??_C@_0BD@ENBCPHJ@ISSUING_DIST_POINT?$AA@ 00080e28     libeay32:v3_crld.obj
 0002:0001ae3c       ??_C@_08DBIINPPL@onlyattr?$AA@ 00080e3c     libeay32:v3_crld.obj
 0002:0001ae48       ??_C@_0M@BECDICJC@indirectCRL?$AA@ 00080e48     libeay32:v3_crld.obj
 0002:0001ae54       ??_C@_0BA@FNMBIJDN@onlysomereasons?$AA@ 00080e54     libeay32:v3_crld.obj
 0002:0001ae64       ??_C@_06PMNIEKCA@onlyCA?$AA@ 00080e64     libeay32:v3_crld.obj
 0002:0001ae6c       ??_C@_08CENLBPEH@onlyuser?$AA@ 00080e6c     libeay32:v3_crld.obj
 0002:0001ae78       ??_C@_0BA@BBHAIMOE@CRL_DIST_POINTS?$AA@ 00080e78     libeay32:v3_crld.obj
 0002:0001ae88       ??_C@_0BG@CHNNADAE@CRLDistributionPoints?$AA@ 00080e88     libeay32:v3_crld.obj
 0002:0001aea0       ??_C@_0L@ELIKPJIH@DIST_POINT?$AA@ 00080ea0     libeay32:v3_crld.obj
 0002:0001aeac       ??_C@_09GJHADLCP@CRLissuer?$AA@ 00080eac     libeay32:v3_crld.obj
 0002:0001aeb8       ??_C@_07PFOCLIJD@reasons?$AA@ 00080eb8     libeay32:v3_crld.obj
 0002:0001aec0       ??_C@_09FBDFGJDL@distpoint?$AA@ 00080ec0     libeay32:v3_crld.obj
 0002:0001aecc       ??_C@_0BA@MLHIPLLG@DIST_POINT_NAME?$AA@ 00080ecc     libeay32:v3_crld.obj
 0002:0001aedc       ??_C@_0BC@JDMJBKME@name?4relativename?$AA@ 00080edc     libeay32:v3_crld.obj
 0002:0001aef0       ??_C@_0O@HJHJCLAE@name?4fullname?$AA@ 00080ef0     libeay32:v3_crld.obj
 0002:0001af00       ??_C@_0N@LOIIODKP@AACompromise?$AA@ 00080f00     libeay32:v3_crld.obj
 0002:0001af10       ??_C@_0O@PAGOKAK@AA?5Compromise?$AA@ 00080f10     libeay32:v3_crld.obj
 0002:0001af20       ??_C@_0BD@PBLGJKCE@privilegeWithdrawn?$AA@ 00080f20     libeay32:v3_crld.obj
 0002:0001af34       ??_C@_0BE@FJCCMGMM@Privilege?5Withdrawn?$AA@ 00080f34     libeay32:v3_crld.obj
 0002:0001af48       ??_C@_0BA@FBHLCNLK@certificateHold?$AA@ 00080f48     libeay32:v3_crld.obj
 0002:0001af58       ??_C@_0BB@IPDHDNJD@Certificate?5Hold?$AA@ 00080f58     libeay32:v3_crld.obj
 0002:0001af6c       ??_C@_0BF@IGJCOPF@cessationOfOperation?$AA@ 00080f6c     libeay32:v3_crld.obj
 0002:0001af84       ??_C@_0BH@OLCOAMGF@Cessation?5Of?5Operation?$AA@ 00080f84     libeay32:v3_crld.obj
 0002:0001af9c       ??_C@_0L@NHCKNIFL@superseded?$AA@ 00080f9c     libeay32:v3_crld.obj
 0002:0001afa8       ??_C@_0L@FBLGFHIM@Superseded?$AA@ 00080fa8     libeay32:v3_crld.obj
 0002:0001afb4       ??_C@_0BD@BNOFAJLL@affiliationChanged?$AA@ 00080fb4     libeay32:v3_crld.obj
 0002:0001afc8       ??_C@_0BE@EECEIFAP@Affiliation?5Changed?$AA@ 00080fc8     libeay32:v3_crld.obj
 0002:0001afdc       ??_C@_0N@NONEFGOE@CACompromise?$AA@ 00080fdc     libeay32:v3_crld.obj
 0002:0001afec       ??_C@_0O@OOGICOKH@CA?5Compromise?$AA@ 00080fec     libeay32:v3_crld.obj
 0002:0001affc       ??_C@_0O@MCEAAJLH@keyCompromise?$AA@ 00080ffc     libeay32:v3_crld.obj
 0002:0001b00c       ??_C@_0P@JENDIECI@Key?5Compromise?$AA@ 0008100c     libeay32:v3_crld.obj
 0002:0001b01c       ??_C@_06OJAIHGIC@unused?$AA@ 0008101c     libeay32:v3_crld.obj
 0002:0001b024       ??_C@_06CGLFEPBO@Unused?$AA@ 00081024     libeay32:v3_crld.obj
 0002:0001b030       ??_C@_0FA@EFIBGCB@d?3?2wm653wehh?2platform?2mvv210?2src@ 00081030     libeay32:v3_crld.obj
 0002:0001b080       ??_C@_08DGFAABGD@?$DMEMPTY?$DO?6?$AA@ 00081080     libeay32:v3_crld.obj
 0002:0001b08c       ??_C@_02KEGNLNML@?0?5?$AA@ 0008108c     libeay32:v3_crld.obj
 0002:0001b090       ??_C@_0L@NHIBCNGO@?$CF?$CKs?$CFs?3?6?$CF?$CKs?$AA@ 00081090     libeay32:v3_crld.obj
 0002:0001b09c       ??_C@_03HIJPJGOM@?$CF?$CKs?$AA@ 0008109c     libeay32:v3_crld.obj
 0002:0001b0a0       ??_C@_0BG@GIOHENJJ@?$CF?$CKsRelative?5Name?3?6?$CF?$CKs?$AA@ 000810a0     libeay32:v3_crld.obj
 0002:0001b0b8       ??_C@_0P@DKAHDIGH@?$CF?$CKsFull?5Name?3?6?$AA@ 000810b8     libeay32:v3_crld.obj
 0002:0001b0c8       ??_C@_0M@FCFDJGIC@?$CF?$CKs?$DMEMPTY?$DO?6?$AA@ 000810c8     libeay32:v3_crld.obj
 0002:0001b0d4       ??_C@_0CA@IIIJNMJM@?$CF?$CKsOnly?5Attribute?5Certificates?6?$AA@ 000810d4     libeay32:v3_crld.obj
 0002:0001b0f4       ??_C@_0BC@JDEOGEEL@Only?5Some?5Reasons?$AA@ 000810f4     libeay32:v3_crld.obj
 0002:0001b108       ??_C@_0BB@FLBIDOKD@?$CF?$CKsIndirect?5CRL?6?$AA@ 00081108     libeay32:v3_crld.obj
 0002:0001b11c       ??_C@_0BJ@GKBBKMLO@?$CF?$CKsOnly?5CA?5Certificates?6?$AA@ 0008111c     libeay32:v3_crld.obj
 0002:0001b138       ??_C@_0BL@FLJCHEKF@?$CF?$CKsOnly?5User?5Certificates?6?$AA@ 00081138     libeay32:v3_crld.obj
 0002:0001b154       ??_C@_0BA@NBJIBLNE@?$CF?$CKsCRL?5Issuer?3?6?$AA@ 00081154     libeay32:v3_crld.obj
 0002:0001b164       ??_C@_07MJENKMF@Reasons?$AA@ 00081164     libeay32:v3_crld.obj
 0002:0001b16c       ??_C@_0N@LGEOMMHB@relativename?$AA@ 0008116c     libeay32:v3_crld.obj
 0002:0001b17c       ??_C@_08BMACPLOA@fullname?$AA@ 0008117c     libeay32:v3_crld.obj
 0002:0001b188       ??_C@_06PPFMJOEO@onlyAA?$AA@ 00081188     libeay32:v3_crld.obj
 0002:0001b190       v3_inhibit_anyp            00081190     libeay32:v3_int.obj
 0002:0001b1c8       v3_delta_crl               000811c8     libeay32:v3_int.obj
 0002:0001b200       v3_crl_num                 00081200     libeay32:v3_int.obj
 0002:0001b2ac       v3_policy_mappings         000812ac     libeay32:v3_pmaps.obj
 0002:0001b2e4       ??_C@_0BA@DHPBCFFC@POLICY_MAPPINGS?$AA@ 000812e4     libeay32:v3_pmaps.obj
 0002:0001b2f4       ??_C@_0P@NLHMKCKF@POLICY_MAPPING?$AA@ 000812f4     libeay32:v3_pmaps.obj
 0002:0001b304       ??_C@_0BE@FFIKMOKF@subjectDomainPolicy?$AA@ 00081304     libeay32:v3_pmaps.obj
 0002:0001b318       ??_C@_0BD@JILOPHFL@issuerDomainPolicy?$AA@ 00081318     libeay32:v3_pmaps.obj
 0002:0001b330       ??_C@_0FB@JMEEBLD@d?3?2wm653wehh?2platform?2mvv210?2src@ 00081330     libeay32:v3_pmaps.obj
 0002:0001b3e4       v3_name_constraints        000813e4     libeay32:v3_ncons.obj
 0002:0001b458       ??_C@_0BB@MLLJAFMN@NAME_CONSTRAINTS?$AA@ 00081458     libeay32:v3_ncons.obj
 0002:0001b46c       ??_C@_0BB@HLFEMJKE@excludedSubtrees?$AA@ 0008146c     libeay32:v3_ncons.obj
 0002:0001b480       ??_C@_0BC@FACFJLFB@permittedSubtrees?$AA@ 00081480     libeay32:v3_ncons.obj
 0002:0001b494       ??_C@_0BA@ECMIFHDE@GENERAL_SUBTREE?$AA@ 00081494     libeay32:v3_ncons.obj
 0002:0001b4a4       ??_C@_07MEIENILC@maximum?$AA@ 000814a4     libeay32:v3_ncons.obj
 0002:0001b4ac       ??_C@_07CCOEHHFD@minimum?$AA@ 000814ac     libeay32:v3_ncons.obj
 0002:0001b4b4       ??_C@_04BHIIPFEC@base?$AA@ 000814b4     libeay32:v3_ncons.obj
 0002:0001b4c0       ??_C@_0FB@NFBAFBGE@d?3?2wm653wehh?2platform?2mvv210?2src@ 000814c0     libeay32:v3_ncons.obj
 0002:0001b514       ??_C@_08HPCEJEEF@excluded?$AA@ 00081514     libeay32:v3_ncons.obj
 0002:0001b520       ??_C@_09HAKFOFAM@permitted?$AA@ 00081520     libeay32:v3_ncons.obj
 0002:0001b52c       ??_C@_0BI@IFNIGPEJ@?$CFd?4?$CFd?4?$CFd?4?$CFd?1?$CFd?4?$CFd?4?$CFd?4?$CFd?$AA@ 0008152c     libeay32:v3_ncons.obj
 0002:0001b544       ??_C@_03HBLCMHJN@IP?3?$AA@ 00081544     libeay32:v3_ncons.obj
 0002:0001b548       ??_C@_07GOIIHCND@?$CF?$CKs?$CFs?3?6?$AA@ 00081548     libeay32:v3_ncons.obj
 0002:0001b550       ??_C@_09DPPIOGNM@Permitted?$AA@ 00081550     libeay32:v3_ncons.obj
 0002:0001b55c       ??_C@_08PNNFBGOG@Excluded?$AA@ 0008155c     libeay32:v3_ncons.obj
 0002:0001b568       v3_pci                     00081568     libeay32:v3_pci.obj
 0002:0001b5a0       ??_C@_0BE@HDJEDONA@?$CF?$CKsPolicy?5Text?3?5?$CFs?6?$AA@ 000815a0     libeay32:v3_pci.obj
 0002:0001b5b4       ??_C@_0BF@CGHJNACM@?$CF?$CKsPolicy?5Language?3?5?$AA@ 000815b4     libeay32:v3_pci.obj
 0002:0001b5cc       ??_C@_08MAJEGHKB@infinite?$AA@ 000815cc     libeay32:v3_pci.obj
 0002:0001b5d8       ??_C@_0BM@BMCPHDD@?$CF?$CKsPath?5Length?5Constraint?3?5?$AA@ 000815d8     libeay32:v3_pci.obj
 0002:0001b5f4       ??_C@_05FHIGHPDA@text?3?$AA@ 000815f4     libeay32:v3_pci.obj
 0002:0001b5fc       ??_C@_05BOPHDICO@file?3?$AA@ 000815fc     libeay32:v3_pci.obj
 0002:0001b604       ??_C@_04ODCMNEMO@hex?3?$AA@ 00081604     libeay32:v3_pci.obj
 0002:0001b60c       ??_C@_06NJNJNICG@policy?$AA@ 0008160c     libeay32:v3_pci.obj
 0002:0001b614       ??_C@_07OGCPICFF@pathlen?$AA@ 00081614     libeay32:v3_pci.obj
 0002:0001b620       ??_C@_0EP@IAENADAP@d?3?2wm653wehh?2platform?2mvv210?2src@ 00081620     libeay32:v3_pci.obj
 0002:0001b670       ??_C@_08JGCCIMAA@language?$AA@ 00081670     libeay32:v3_pci.obj
 0002:0001b67c       v3_ocsp_serviceloc         0008167c     libeay32:v3_ocsp.obj
 0002:0001b6b4       v3_ocsp_nocheck            000816b4     libeay32:v3_ocsp.obj
 0002:0001b6ec       v3_ocsp_nonce              000816ec     libeay32:v3_ocsp.obj
 0002:0001b724       v3_crl_hold                00081724     libeay32:v3_ocsp.obj
 0002:0001b75c       v3_crl_invdate             0008175c     libeay32:v3_ocsp.obj
 0002:0001b794       v3_ocsp_acutoff            00081794     libeay32:v3_ocsp.obj
 0002:0001b7cc       v3_ocsp_crlid              000817cc     libeay32:v3_ocsp.obj
 0002:0001b804       ??_C@_0N@IBJOMEDL@?$CF?$CKscrlTime?3?5?$AA@ 00081804     libeay32:v3_ocsp.obj
 0002:0001b814       ??_C@_0M@MLCMBODE@?$CF?$CKscrlNum?3?5?$AA@ 00081814     libeay32:v3_ocsp.obj
 0002:0001b820       ??_C@_0M@KIKBFHBJ@?$CF?$CKscrlUrl?3?5?$AA@ 00081820     libeay32:v3_ocsp.obj
 0002:0001b830       ??_C@_0FA@DGLJGNPA@d?3?2wm653wehh?2platform?2mvv210?2src@ 00081830     libeay32:v3_ocsp.obj
 0002:0001b880       ??_C@_04NFEJKGEM@?6?$CF?$CKs?$AA@ 00081880     libeay32:v3_ocsp.obj
 0002:0001b888       ??_C@_0M@IHOINNJF@?$CF?$CKsIssuer?3?5?$AA@ 00081888     libeay32:v3_ocsp.obj
 0002:0001b8d8       v3_policy_constraints      000818d8     libeay32:v3_pcons.obj
 0002:0001b910       ??_C@_0BD@MMPNIEIJ@POLICY_CONSTRAINTS?$AA@ 00081910     libeay32:v3_pcons.obj
 0002:0001b924       ??_C@_0BF@MOMLJGAL@inhibitPolicyMapping?$AA@ 00081924     libeay32:v3_pcons.obj
 0002:0001b93c       ??_C@_0BG@HGJBEKFE@requireExplicitPolicy?$AA@ 0008193c     libeay32:v3_pcons.obj
 0002:0001b954       ??_C@_0BI@HNCHDEDI@Require?5Explicit?5Policy?$AA@ 00081954     libeay32:v3_pcons.obj
 0002:0001b96c       ??_C@_0BH@HMKHOMED@Inhibit?5Policy?5Mapping?$AA@ 0008196c     libeay32:v3_pcons.obj
 0002:0001b988       ??_C@_0FB@LMCBHCHN@d?3?2wm653wehh?2platform?2mvv210?2src@ 00081988     libeay32:v3_pcons.obj
 0002:0001ba0c       v3_ocsp_accresp            00081a0c     libeay32:v3_extku.obj
 0002:0001ba44       v3_ext_ku                  00081a44     libeay32:v3_extku.obj
 0002:0001ba7c       ??_C@_0BD@CKAGEBEF@EXTENDED_KEY_USAGE?$AA@ 00081a7c     libeay32:v3_extku.obj
 0002:0001ba90       ??_C@_0FB@GJDJKHPC@d?3?2wm653wehh?2platform?2mvv210?2src@ 00081a90     libeay32:v3_extku.obj
 0002:0001bb6c       v3_sxnet                   00081b6c     libeay32:v3_sxnet.obj
 0002:0001bba4       ??_C@_05BPAJFIHK@SXNET?$AA@ 00081ba4     libeay32:v3_sxnet.obj
 0002:0001bbac       ??_C@_03NDFJNBKD@ids?$AA@  00081bac     libeay32:v3_sxnet.obj
 0002:0001bbb0       ??_C@_07FLDOGLPN@SXNETID?$AA@ 00081bb0     libeay32:v3_sxnet.obj
 0002:0001bbb8       ??_C@_04CCHAHKJA@user?$AA@ 00081bb8     libeay32:v3_sxnet.obj
 0002:0001bbc0       ??_C@_04LDDJGOBB@zone?$AA@ 00081bc0     libeay32:v3_sxnet.obj
 0002:0001bbc8       ??_C@_0BF@NMLBNADB@?6?$CF?$CKsZone?3?5?$CFs?0?5User?3?5?$AA@ 00081bc8     libeay32:v3_sxnet.obj
 0002:0001bbe0       ??_C@_0BI@GOEPAKBG@?$CF?$CKsVersion?3?5?$CFld?5?$CI0x?$CFlX?$CJ?$AA@ 00081be0     libeay32:v3_sxnet.obj
 0002:0001bbf8       ??_C@_0FB@HGCMGHKH@d?3?2wm653wehh?2platform?2mvv210?2src@ 00081bf8     libeay32:v3_sxnet.obj
 0002:0001bc4c       v3_crl_reason              00081c4c     libeay32:v3_enum.obj
 0002:0001bc84       ??_C@_0O@BILLKPKO@removeFromCRL?$AA@ 00081c84     libeay32:v3_enum.obj
 0002:0001bc94       ??_C@_0BA@GLPEKBIK@Remove?5From?5CRL?$AA@ 00081c94     libeay32:v3_enum.obj
 0002:0001bca4       ??_C@_0M@MFMDLEDN@unspecified?$AA@ 00081ca4     libeay32:v3_enum.obj
 0002:0001bcb0       ??_C@_0M@NNPCGPMF@Unspecified?$AA@ 00081cb0     libeay32:v3_enum.obj
 0002:0001bcbc       v3_akey_id                 00081cbc     libeay32:v3_akey.obj
 0002:0001bcf4       ??_C@_06KCELPKEE@serial?$AA@ 00081cf4     libeay32:v3_akey.obj
 0002:0001bcfc       ??_C@_05CNHMOIOC@keyid?$AA@ 00081cfc     libeay32:v3_akey.obj
 0002:0001bd08       ??_C@_0FA@BIHNLJGI@d?3?2wm653wehh?2platform?2mvv210?2src@ 00081d08     libeay32:v3_akey.obj
 0002:0001bd58       ??_C@_06KHDOHNKC@always?$AA@ 00081d58     libeay32:v3_akey.obj
 0002:0001bf00       v3_cpols                   00081f00     libeay32:v3_cpols.obj
 0002:0001bf38       ??_C@_09DFHLGOKA@NOTICEREF?$AA@ 00081f38     libeay32:v3_cpols.obj
 0002:0001bf44       ??_C@_09CFGHNILC@noticenos?$AA@ 00081f44     libeay32:v3_cpols.obj
 0002:0001bf50       ??_C@_0N@HEIPMDAG@organization?$AA@ 00081f50     libeay32:v3_cpols.obj
 0002:0001bf60       ??_C@_0L@HCNDPADF@USERNOTICE?$AA@ 00081f60     libeay32:v3_cpols.obj
 0002:0001bf6c       ??_C@_07MHGINJOA@exptext?$AA@ 00081f6c     libeay32:v3_cpols.obj
 0002:0001bf74       ??_C@_09FIKFDFH@noticeref?$AA@ 00081f74     libeay32:v3_cpols.obj
 0002:0001bf80       ??_C@_0P@POBJIHLD@POLICYQUALINFO?$AA@ 00081f80     libeay32:v3_cpols.obj
 0002:0001bf90       ??_C@_07LEEILOKB@pqualid?$AA@ 00081f90     libeay32:v3_cpols.obj
 0002:0001bf98       ??_C@_0N@JPAHANFF@d?4usernotice?$AA@ 00081f98     libeay32:v3_cpols.obj
 0002:0001bfa8       ??_C@_08EECALGEF@d?4cpsuri?$AA@ 00081fa8     libeay32:v3_cpols.obj
 0002:0001bfb4       ??_C@_0L@POLPGHJK@POLICYINFO?$AA@ 00081fb4     libeay32:v3_cpols.obj
 0002:0001bfc0       ??_C@_0L@HMNGMMJI@qualifiers?$AA@ 00081fc0     libeay32:v3_cpols.obj
 0002:0001bfcc       ??_C@_08NEBFOBH@policyid?$AA@ 00081fcc     libeay32:v3_cpols.obj
 0002:0001bfd8       ??_C@_0BE@GJBJOOCP@CERTIFICATEPOLICIES?$AA@ 00081fd8     libeay32:v3_cpols.obj
 0002:0001bff0       ??_C@_0FB@GCODJBIG@d?3?2wm653wehh?2platform?2mvv210?2src@ 00081ff0     libeay32:v3_cpols.obj
 0002:0001c044       ??_C@_0BG@IHHCDAMH@?$CF?$CKsExplicit?5Text?3?5?$CFs?6?$AA@ 00082044     libeay32:v3_cpols.obj
 0002:0001c05c       ??_C@_0O@EFHNHHDA@?$CF?$CKsNumber?$CFs?3?5?$AA@ 0008205c     libeay32:v3_cpols.obj
 0002:0001c06c       ??_C@_0BF@OCNFPJOG@?$CF?$CKsOrganization?3?5?$CFs?6?$AA@ 0008206c     libeay32:v3_cpols.obj
 0002:0001c084       ??_C@_0O@OKDALMJE@noticeNumbers?$AA@ 00082084     libeay32:v3_cpols.obj
 0002:0001c094       ??_C@_0N@EALKMFB@explicitText?$AA@ 00082094     libeay32:v3_cpols.obj
 0002:0001c0a4       ??_C@_0M@ICGFCJNO@?$CF?$CKsCPS?3?5?$CFs?6?$AA@ 000820a4     libeay32:v3_cpols.obj
 0002:0001c0b0       ??_C@_0BB@MMPKKFLI@?$CF?$CKsUser?5Notice?3?6?$AA@ 000820b0     libeay32:v3_cpols.obj
 0002:0001c0c4       ??_C@_0BH@CHOAEJEJ@?$CF?$CKsUnknown?5Qualifier?3?5?$AA@ 000820c4     libeay32:v3_cpols.obj
 0002:0001c0dc       ??_C@_0M@BBFMFBLN@?$CF?$CKsPolicy?3?5?$AA@ 000820dc     libeay32:v3_cpols.obj
 0002:0001c0e8       ??_C@_0L@LADHLIJ@userNotice?$AA@ 000820e8     libeay32:v3_cpols.obj
 0002:0001c0f4       ??_C@_03KKDAPHBH@CPS?$AA@  000820f4     libeay32:v3_cpols.obj
 0002:0001c0f8       ??_C@_0BB@FIJMMMGE@policyIdentifier?$AA@ 000820f8     libeay32:v3_cpols.obj
 0002:0001c10c       ??_C@_06MIFIGELF@ia5org?$AA@ 0008210c     libeay32:v3_cpols.obj
 0002:0001c158       v3_bcons                   00082158     libeay32:v3_bcons.obj
 0002:0001c190       ??_C@_0BC@PKPCGCD@BASIC_CONSTRAINTS?$AA@ 00082190     libeay32:v3_bcons.obj
 0002:0001c1a4       ??_C@_02DGMJAJHC@ca?$AA@   000821a4     libeay32:v3_bcons.obj
 0002:0001c1a8       ??_C@_02JLAAGLDA@CA?$AA@   000821a8     libeay32:v3_bcons.obj
 0002:0001c1b0       ??_C@_0FB@ICLPEECL@d?3?2wm653wehh?2platform?2mvv210?2src@ 000821b0     libeay32:v3_bcons.obj
 0002:0001c248       v3_pkey_usage_period       00082248     libeay32:v3_pku.obj
 0002:0001c280       ??_C@_0BC@CCOKACDM@PKEY_USAGE_PERIOD?$AA@ 00082280     libeay32:v3_pku.obj
 0002:0001c294       ??_C@_08PJIFIJBI@notAfter?$AA@ 00082294     libeay32:v3_pku.obj
 0002:0001c2a0       ??_C@_09MJPOMOII@notBefore?$AA@ 000822a0     libeay32:v3_pku.obj
 0002:0001c2ac       ??_C@_0M@FCHJLIHE@Not?5After?3?5?$AA@ 000822ac     libeay32:v3_pku.obj
 0002:0001c2b8       ??_C@_0N@KGLJEEMK@Not?5Before?3?5?$AA@ 000822b8     libeay32:v3_pku.obj
 0002:0001c2c8       v3_key_usage               000822c8     libeay32:v3_bitst.obj
 0002:0001c300       v3_nscert                  00082300     libeay32:v3_bitst.obj
 0002:0001c338       ??_C@_0N@LIFHMFCO@decipherOnly?$AA@ 00082338     libeay32:v3_bitst.obj
 0002:0001c348       ??_C@_0O@FKBAPCEG@Decipher?5Only?$AA@ 00082348     libeay32:v3_bitst.obj
 0002:0001c358       ??_C@_0N@BEFDLIKF@encipherOnly?$AA@ 00082358     libeay32:v3_bitst.obj
 0002:0001c368       ??_C@_0O@CANGKMJD@Encipher?5Only?$AA@ 00082368     libeay32:v3_bitst.obj
 0002:0001c378       ??_C@_07IHBCCDFJ@cRLSign?$AA@ 00082378     libeay32:v3_bitst.obj
 0002:0001c380       ??_C@_08OCJGKMAN@CRL?5Sign?$AA@ 00082380     libeay32:v3_bitst.obj
 0002:0001c38c       ??_C@_0M@ONBOOMGI@keyCertSign?$AA@ 0008238c     libeay32:v3_bitst.obj
 0002:0001c398       ??_C@_0BB@ELNGMDLH@Certificate?5Sign?$AA@ 00082398     libeay32:v3_bitst.obj
 0002:0001c3ac       ??_C@_0N@GONHKOEO@keyAgreement?$AA@ 000823ac     libeay32:v3_bitst.obj
 0002:0001c3bc       ??_C@_0O@EOJOBCHL@Key?5Agreement?$AA@ 000823bc     libeay32:v3_bitst.obj
 0002:0001c3cc       ??_C@_0BB@LBKKKIGO@dataEncipherment?$AA@ 000823cc     libeay32:v3_bitst.obj
 0002:0001c3e0       ??_C@_0BC@GNPIAJLP@Data?5Encipherment?$AA@ 000823e0     libeay32:v3_bitst.obj
 0002:0001c3f4       ??_C@_0BA@MINCLOJG@keyEncipherment?$AA@ 000823f4     libeay32:v3_bitst.obj
 0002:0001c404       ??_C@_0BB@KNACIBEN@Key?5Encipherment?$AA@ 00082404     libeay32:v3_bitst.obj
 0002:0001c418       ??_C@_0P@GPCNPOGO@nonRepudiation?$AA@ 00082418     libeay32:v3_bitst.obj
 0002:0001c428       ??_C@_0BA@DJCGBBAI@Non?5Repudiation?$AA@ 00082428     libeay32:v3_bitst.obj
 0002:0001c438       ??_C@_0BB@MFKHIIOM@digitalSignature?$AA@ 00082438     libeay32:v3_bitst.obj
 0002:0001c44c       ??_C@_0BC@DPKEIPIO@Digital?5Signature?$AA@ 0008244c     libeay32:v3_bitst.obj
 0002:0001c460       ??_C@_05JLEIJNEE@objCA?$AA@ 00082460     libeay32:v3_bitst.obj
 0002:0001c468       ??_C@_0BC@FAMHGMHB@Object?5Signing?5CA?$AA@ 00082468     libeay32:v3_bitst.obj
 0002:0001c47c       ??_C@_07FFHDGPMJ@emailCA?$AA@ 0008247c     libeay32:v3_bitst.obj
 0002:0001c484       ??_C@_09GIEMCMEO@S?1MIME?5CA?$AA@ 00082484     libeay32:v3_bitst.obj
 0002:0001c490       ??_C@_05JHLHLOEK@sslCA?$AA@ 00082490     libeay32:v3_bitst.obj
 0002:0001c498       ??_C@_06FMDLPOFJ@SSL?5CA?$AA@ 00082498     libeay32:v3_bitst.obj
 0002:0001c4a0       ??_C@_08FINKBBAF@reserved?$AA@ 000824a0     libeay32:v3_bitst.obj
 0002:0001c4ac       ??_C@_07GIOKFKGL@objsign?$AA@ 000824ac     libeay32:v3_bitst.obj
 0002:0001c4b4       ??_C@_0P@DDHLFHHK@Object?5Signing?$AA@ 000824b4     libeay32:v3_bitst.obj
 0002:0001c4c4       ??_C@_06HJHJCKIO@server?$AA@ 000824c4     libeay32:v3_bitst.obj
 0002:0001c4cc       ??_C@_0L@DCIAGJKL@SSL?5Server?$AA@ 000824cc     libeay32:v3_bitst.obj
 0002:0001c4d8       ??_C@_06DGDLPBAN@client?$AA@ 000824d8     libeay32:v3_bitst.obj
 0002:0001c4e0       ??_C@_0L@HNMCLCCI@SSL?5Client?$AA@ 000824e0     libeay32:v3_bitst.obj
 0002:0001c4f0       ??_C@_0FB@EKHJICLH@d?3?2wm653wehh?2platform?2mvv210?2src@ 000824f0     libeay32:v3_bitst.obj
 0002:0001c544       v3_skey_id                 00082544     libeay32:v3_skey.obj
 0002:0001c580       ??_C@_0FA@OIDMDEIP@d?3?2wm653wehh?2platform?2mvv210?2src@ 00082580     libeay32:v3_skey.obj
 0002:0001c5d0       ??_C@_04OIJGJDKO@hash?$AA@ 000825d0     libeay32:v3_skey.obj
 0002:0001c5d8       v3_ns_ia5_list             000825d8     libeay32:v3_ia5.obj
 0002:0001c798       ??_C@_0EP@FPIPLDCG@d?3?2wm653wehh?2platform?2mvv210?2src@ 00082798     libeay32:v3_ia5.obj
 0002:0001c7e8       ??_C@_0FA@GLNJJMIP@d?3?2wm653wehh?2platform?2mvv210?2src@ 000827e8     libeay32:v3_conf.obj
 0002:0001c930       ??_C@_08JIPBBKBM@X509_REQ?$AA@ 00082930     libeay32:x_req.obj
 0002:0001c93c       ??_C@_07OBHFIHGJ@sig_alg?$AA@ 0008293c     libeay32:x_req.obj
 0002:0001c944       ??_C@_08JILJKJG@req_info?$AA@ 00082944     libeay32:x_req.obj
 0002:0001c950       ??_C@_0O@EHCMNJCB@X509_REQ_INFO?$AA@ 00082950     libeay32:x_req.obj
 0002:0001c960       ??_C@_0L@HNMJPKNA@attributes?$AA@ 00082960     libeay32:x_req.obj
 0002:0001c96c       ??_C@_06GKCAPDID@pubkey?$AA@ 0008296c     libeay32:x_req.obj
 0002:0001c974       ??_C@_07JNNGEGGO@subject?$AA@ 00082974     libeay32:x_req.obj
 0002:0001c980       ??_C@_0EP@COKBPCCM@d?3?2wm653wehh?2platform?2mvv210?2src@ 00082980     libeay32:x509_att.obj
 0002:0001c9d0       ??_C@_0BE@LILBBPKE@OpenSSL?5ECDH?5method?$AA@ 000829d0     libeay32:ech_ossl.obj
 0002:0001c9e8       ??_C@_0EP@EIICIEGK@d?3?2wm653wehh?2platform?2mvv210?2src@ 000829e8     libeay32:ech_ossl.obj
 0002:0001cae0       ??_C@_0EN@LKHNEOCI@d?3?2wm653wehh?2platform?2mvv210?2src@ 00082ae0     libeay32:ecp_mont.obj
 0002:0001cbd0       ??_C@_0EN@MFLMOEJL@d?3?2wm653wehh?2platform?2mvv210?2src@ 00082bd0     libeay32:ecp_nist.obj
 0002:0001ccc0       ??_C@_0EN@HKENHFKC@d?3?2wm653wehh?2platform?2mvv210?2src@ 00082cc0     libeay32:ec2_smpl.obj
 0002:0001cd10       ??_C@_0EM@LBEFNFCH@d?3?2wm653wehh?2platform?2mvv210?2src@ 00082d10     libeay32:bn_exp2.obj
 0002:0001cd60       ??_C@_0EM@LKCJBLMG@d?3?2wm653wehh?2platform?2mvv210?2src@ 00082d60     libeay32:bn_recp.obj
 0002:0001cf3c       ??_C@_08JGFBPDAP@X509_CRL?$AA@ 00082f3c     libeay32:x_crl.obj
 0002:0001cf48       ??_C@_03GJBFOAJL@crl?$AA@  00082f48     libeay32:x_crl.obj
 0002:0001cf4c       ??_C@_0O@IMOAEKCP@X509_CRL_INFO?$AA@ 00082f4c     libeay32:x_crl.obj
 0002:0001cf5c       ??_C@_07MIJFAMBD@revoked?$AA@ 00082f5c     libeay32:x_crl.obj
 0002:0001cf64       ??_C@_0L@BMOABHOK@nextUpdate?$AA@ 00082f64     libeay32:x_crl.obj
 0002:0001cf70       ??_C@_0L@MPDCJAIM@lastUpdate?$AA@ 00082f70     libeay32:x_crl.obj
 0002:0001cf7c       ??_C@_0N@JBPKOADN@X509_REVOKED?$AA@ 00082f7c     libeay32:x_crl.obj
 0002:0001cf8c       ??_C@_0L@ICCCPLKC@extensions?$AA@ 00082f8c     libeay32:x_crl.obj
 0002:0001cf98       ??_C@_0P@HBDMPDNI@revocationDate?$AA@ 00082f98     libeay32:x_crl.obj
 0002:0001cfa8       ??_C@_0EM@HLHJDKMD@d?3?2wm653wehh?2platform?2mvv210?2src@ 00082fa8     libeay32:x_crl.obj
 0002:0001d168       ??_C@_09NKDPGBBA@cert_info?$AA@ 00083168     libeay32:x_x509.obj
 0002:0001d174       ??_C@_09LCJGKABB@X509_CINF?$AA@ 00083174     libeay32:x_x509.obj
 0002:0001d180       ??_C@_0L@JMFHLKAL@subjectUID?$AA@ 00083180     libeay32:x_x509.obj
 0002:0001d18c       ??_C@_09KIIAMAEE@issuerUID?$AA@ 0008318c     libeay32:x_x509.obj
 0002:0001d198       ??_C@_08GCHKOCBP@validity?$AA@ 00083198     libeay32:x_x509.obj
 0002:0001d1a8       ??_C@_0EM@EIEBKGJ@d?3?2wm653wehh?2platform?2mvv210?2src@ 000831a8     libeay32:cms_io.obj
 0002:0001d1f4       ??_C@_08POLPFBMC@SEQUENCE?$AA@ 000831f4     libeay32:tasn_prn.obj
 0002:0001d200       ??_C@_03KPIFFHNE@SET?$AA@  00083200     libeay32:tasn_prn.obj
 0002:0001d204       ??_C@_0O@DIEIKEFB@memory?5buffer?$AA@ 00083204     libeay32:bss_mem.obj
 0002:0001d218       ??_C@_0EN@IFBMAPDF@d?3?2wm653wehh?2platform?2mvv210?2src@ 00083218     libeay32:bss_mem.obj
 0002:0001d268       ??_C@_0EM@CLBFFJNJ@d?3?2wm653wehh?2platform?2mvv210?2src@ 00083268     libeay32:cms_dd.obj
 0002:0001d2b8       ??_C@_0EN@GEIMIMFD@d?3?2wm653wehh?2platform?2mvv210?2src@ 000832b8     libeay32:bio_enc.obj
 0002:0001d324       ??_C@_09DHMKJJNA@ASN1_TIME?$AA@ 00083324     libeay32:a_time.obj
 0002:0001d330       ??_C@_0EN@IOPKJOHJ@d?3?2wm653wehh?2platform?2mvv210?2src@ 00083330     libeay32:a_time.obj
 0002:0001d380       X509_version               00083380     libeay32:x509_vfy.obj
 0002:0001d3b0       ??_C@_0EO@ENFGJDHG@d?3?2wm653wehh?2platform?2mvv210?2src@ 000833b0     libeay32:m_sigver.obj
 0002:0001d400       ??_C@_0EM@MHADPNEH@d?3?2wm653wehh?2platform?2mvv210?2src@ 00083400     libeay32:p_sign.obj
 0002:0001d4d4       ??_C@_0BK@PILNOGHK@PROXY_CERT_INFO_EXTENSION?$AA@ 000834d4     libeay32:v3_pcia.obj
 0002:0001d4f0       ??_C@_0M@KKFBCGOG@proxyPolicy?$AA@ 000834f0     libeay32:v3_pcia.obj
 0002:0001d4fc       ??_C@_0BH@JBGKCLHC@pcPathLengthConstraint?$AA@ 000834fc     libeay32:v3_pcia.obj
 0002:0001d514       ??_C@_0N@CLKEFBDI@PROXY_POLICY?$AA@ 00083514     libeay32:v3_pcia.obj
 0002:0001d524       ??_C@_0P@BLMEJDMO@policyLanguage?$AA@ 00083524     libeay32:v3_pcia.obj
 0002:0001f710       ??_C@_0M@DPMJHKGH@PBKDF2PARAM?$AA@ 00085710     libeay32:p5_pbev2.obj
 0002:0001f71c       ??_C@_03NBFGPAGA@prf?$AA@  0008571c     libeay32:p5_pbev2.obj
 0002:0001f720       ??_C@_09PKJJLJJD@keylength?$AA@ 00085720     libeay32:p5_pbev2.obj
 0002:0001f72c       ??_C@_04BKLHDIKK@iter?$AA@ 0008572c     libeay32:p5_pbev2.obj
 0002:0001f734       ??_C@_04OKLIMCN@salt?$AA@  00085734     libeay32:p5_pbev2.obj
 0002:0001f73c       ??_C@_09DHBCCKCK@PBE2PARAM?$AA@ 0008573c     libeay32:p5_pbev2.obj
 0002:0001f748       ??_C@_0L@HBBFMHKN@encryption?$AA@ 00085748     libeay32:p5_pbev2.obj
 0002:0001f754       ??_C@_07KEPFKPDN@keyfunc?$AA@ 00085754     libeay32:p5_pbev2.obj
 0002:0001f760       ??_C@_0EP@ECCLNLMM@d?3?2wm653wehh?2platform?2mvv210?2src@ 00085760     libeay32:asn_pack.obj
 0002:0001f7b0       ??_C@_0EN@BMFEIIDL@d?3?2wm653wehh?2platform?2mvv210?2src@ 000857b0     libeay32:rsa_pk1.obj
 0002:0001f800       ??_C@_0EN@PDDHPBKJ@d?3?2wm653wehh?2platform?2mvv210?2src@ 00085800     libeay32:rsa_ssl.obj
 0002:0001f850       ??_C@_0EO@NNKDLJPI@d?3?2wm653wehh?2platform?2mvv210?2src@ 00085850     libeay32:rsa_none.obj
 0002:0001fc20       ??_C@_0O@DFJMHGOP@EC_PRIVATEKEY?$AA@ 00085c20     libeay32:ec_asn1.obj
 0002:0001fc30       ??_C@_0L@HHPOFMCB@parameters?$AA@ 00085c30     libeay32:ec_asn1.obj
 0002:0001fc3c       ??_C@_0L@BCENACFO@privateKey?$AA@ 00085c3c     libeay32:ec_asn1.obj
 0002:0001fc48       ??_C@_0P@PBBIGPFJ@ECPKPARAMETERS?$AA@ 00085c48     libeay32:ec_asn1.obj
 0002:0001fc58       ??_C@_0BD@HOIIAPI@value?4implicitlyCA?$AA@ 00085c58     libeay32:ec_asn1.obj
 0002:0001fc6c       ??_C@_0BB@KOECJJJ@value?4parameters?$AA@ 00085c6c     libeay32:ec_asn1.obj
 0002:0001fc80       ??_C@_0BC@JEJHGDNN@value?4named_curve?$AA@ 00085c80     libeay32:ec_asn1.obj
 0002:0001fc94       ??_C@_0N@ECDPFONH@ECPARAMETERS?$AA@ 00085c94     libeay32:ec_asn1.obj
 0002:0001fca4       ??_C@_08DKFAOMDI@cofactor?$AA@ 00085ca4     libeay32:ec_asn1.obj
 0002:0001fcb0       ??_C@_05NDNMCCJH@order?$AA@ 00085cb0     libeay32:ec_asn1.obj
 0002:0001fcb8       ??_C@_05HIKPKPAA@curve?$AA@ 00085cb8     libeay32:ec_asn1.obj
 0002:0001fcc0       ??_C@_07MJJGNICD@fieldID?$AA@ 00085cc0     libeay32:ec_asn1.obj
 0002:0001fcc8       ??_C@_0M@BHDPNPCK@X9_62_CURVE?$AA@ 00085cc8     libeay32:ec_asn1.obj
 0002:0001fcd4       ??_C@_04MENKDCKE@seed?$AA@ 00085cd4     libeay32:ec_asn1.obj
 0002:0001fcdc       ??_C@_0O@PGPIAKKH@X9_62_FIELDID?$AA@ 00085cdc     libeay32:ec_asn1.obj
 0002:0001fcec       ??_C@_09OAOLGAOM@fieldType?$AA@ 00085cec     libeay32:ec_asn1.obj
 0002:0001fcf8       ??_C@_0L@NLMAKEBL@p?4char_two?$AA@ 00085cf8     libeay32:ec_asn1.obj
 0002:0001fd04       ??_C@_07DPJEDCLB@p?4prime?$AA@ 00085d04     libeay32:ec_asn1.obj
 0002:0001fd0c       ??_C@_0BJ@CCODLOLO@X9_62_CHARACTERISTIC_TWO?$AA@ 00085d0c     libeay32:ec_asn1.obj
 0002:0001fd28       ??_C@_04GPMDFGEJ@type?$AA@ 00085d28     libeay32:ec_asn1.obj
 0002:0001fd30       ??_C@_01GOHFPIOK@m?$AA@    00085d30     libeay32:ec_asn1.obj
 0002:0001fd34       ??_C@_09DMGLCKOJ@p?4ppBasis?$AA@ 00085d34     libeay32:ec_asn1.obj
 0002:0001fd40       ??_C@_09LICBCEBD@p?4tpBasis?$AA@ 00085d40     libeay32:ec_asn1.obj
 0002:0001fd4c       ??_C@_09KOBBOOPN@p?4onBasis?$AA@ 00085d4c     libeay32:ec_asn1.obj
 0002:0001fd58       ??_C@_07PBHIMFBE@p?4other?$AA@ 00085d58     libeay32:ec_asn1.obj
 0002:0001fd60       ??_C@_0BC@NPDMPFCL@X9_62_PENTANOMIAL?$AA@ 00085d60     libeay32:ec_asn1.obj
 0002:0001fd74       ??_C@_02LAFHGHBM@k3?$AA@   00085d74     libeay32:ec_asn1.obj
 0002:0001fd78       ??_C@_02KJEMFGFN@k2?$AA@   00085d78     libeay32:ec_asn1.obj
 0002:0001fd7c       ??_C@_02ICGBAFJO@k1?$AA@   00085d7c     libeay32:ec_asn1.obj
 0002:0001fd80       ??_C@_0EM@BCOHHMGC@d?3?2wm653wehh?2platform?2mvv210?2src@ 00085d80     libeay32:ec_asn1.obj
 0002:0001fe58       ??_C@_0BE@LDIFBBLG@PKCS8_PRIV_KEY_INFO?$AA@ 00085e58     libeay32:p8_pkey.obj
 0002:0001fe6c       ??_C@_04JMMJFDFL@pkey?$AA@ 00085e6c     libeay32:p8_pkey.obj
 0002:0001fe74       ??_C@_07PLCMOKAM@pkeyalg?$AA@ 00085e74     libeay32:p8_pkey.obj
 0002:0001fe7c       ??_C@_0BE@FPCNHCIJ@Generator?5?$CIhybrid?$CJ?3?$AA@ 00085e7c     libeay32:eck_prn.obj
 0002:0001fe90       ??_C@_0BK@DOCPEENO@Generator?5?$CIuncompressed?$CJ?3?$AA@ 00085e90     libeay32:eck_prn.obj
 0002:0001feac       ??_C@_0BI@DFFFIKFB@Generator?5?$CIcompressed?$CJ?3?$AA@ 00085eac     libeay32:eck_prn.obj
 0002:0001fec4       ??_C@_06LEJCPMLM@?$CF02x?$CFs?$AA@ 00085ec4     libeay32:eck_prn.obj
 0002:0001fed0       ??_C@_0EM@FLNGOIDD@d?3?2wm653wehh?2platform?2mvv210?2src@ 00085ed0     libeay32:eck_prn.obj
 0002:0001ff1c       ??_C@_05PDHKGGIM@Seed?3?$AA@ 00085f1c     libeay32:eck_prn.obj
 0002:0001ff24       ??_C@_0L@IEMHODML@Cofactor?3?5?$AA@ 00085f24     libeay32:eck_prn.obj
 0002:0001ff30       ??_C@_07KOGOKIFH@Order?3?5?$AA@ 00085f30     libeay32:eck_prn.obj
 0002:0001ff38       ??_C@_05OKMHJIGA@B?3?5?5?5?$AA@ 00085f38     libeay32:eck_prn.obj
 0002:0001ff40       ??_C@_05GMFDOKMO@A?3?5?5?5?$AA@ 00085f40     libeay32:eck_prn.obj
 0002:0001ff48       ??_C@_06DBHHIIKM@Prime?3?$AA@ 00085f48     libeay32:eck_prn.obj
 0002:0001ff50       ??_C@_0M@JDIPGLHE@Polynomial?3?$AA@ 00085f50     libeay32:eck_prn.obj
 0002:0001ff5c       ??_C@_0BA@ENMKKION@Basis?5Type?3?5?$CFs?6?$AA@ 00085f5c     libeay32:eck_prn.obj
 0002:0001ff6c       ??_C@_0BA@KNKNOIFH@Field?5Type?3?5?$CFs?6?$AA@ 00085f6c     libeay32:eck_prn.obj
 0002:0001ff7c       ??_C@_0N@JOFLCJFF@ASN1?5OID?3?5?$CFs?$AA@ 00085f7c     libeay32:eck_prn.obj
 0002:0001ff8c       ??_C@_04HDOCAJNK@?$CFs?$CFs?$AA@ 00085f8c     libeay32:t_pkey.obj
 0002:0001ff94       ??_C@_0M@IBLDKCHK@?5?$CINegative?$CJ?$AA@ 00085f94     libeay32:t_pkey.obj
 0002:0001ffa0       ??_C@_0BE@KHLFKPFC@?$CFs?5?$CFs?$CFlu?5?$CI?$CFs0x?$CFlx?$CJ?6?$AA@ 00085fa0     libeay32:t_pkey.obj
 0002:0001ffb4       ??_C@_05NJJIPCOC@?$CFs?50?6?$AA@ 00085fb4     libeay32:t_pkey.obj
 0002:0001ffc0       ??_C@_0EN@IAKMHMJK@d?3?2wm653wehh?2platform?2mvv210?2src@ 00085fc0     libeay32:ec_print.obj
 0002:00020010       ??_C@_0EP@EBOHPFGP@d?3?2wm653wehh?2platform?2mvv210?2src@ 00086010     libeay32:pk7_lib.obj
 0002:00020060       ??_C@_03MKABNOCG@Dec?$AA@  00086060     libeay32:t_x509.obj
 0002:00020064       ??_C@_03JPJOFNIA@Nov?$AA@  00086064     libeay32:t_x509.obj
 0002:00020068       ??_C@_03BMAOKBAD@Oct?$AA@  00086068     libeay32:t_x509.obj
 0002:0002006c       ??_C@_03GGCAPAJC@Sep?$AA@  0008606c     libeay32:t_x509.obj
 0002:00020070       ??_C@_03IFJFEIGA@Aug?$AA@  00086070     libeay32:t_x509.obj
 0002:00020074       ??_C@_03LBGABGKK@Jul?$AA@  00086074     libeay32:t_x509.obj
 0002:00020078       ??_C@_03IDFGHECI@Jun?$AA@  00086078     libeay32:t_x509.obj
 0002:0002007c       ??_C@_03CNMDKL@May?$AA@    0008607c     libeay32:t_x509.obj
 0002:00020080       ??_C@_03LEOLGMJP@Apr?$AA@  00086080     libeay32:t_x509.obj
 0002:00020084       ??_C@_03ODNJBKGA@Mar?$AA@  00086084     libeay32:t_x509.obj
 0002:00020088       ??_C@_03HJBDCHOM@Feb?$AA@  00086088     libeay32:t_x509.obj
 0002:0002008c       ??_C@_03JIHJHPIE@Jan?$AA@  0008608c     libeay32:t_x509.obj
 0002:00020090       ??_C@_0EN@JFBJIANP@d?3?2wm653wehh?2platform?2mvv210?2src@ 00086090     libeay32:t_x509.obj
 0002:000200e0       ??_C@_0P@FGACABCD@Bad?5time?5value?$AA@ 000860e0     libeay32:t_x509.obj
 0002:000200f0       ??_C@_0BP@OGIOIJMK@?$CFs?5?$CF2d?5?$CF02d?3?$CF02d?3?$CF02d?$CF?4?$CKs?5?$CFd?$CFs?$AA@ 000860f0     libeay32:t_x509.obj
 0002:00020110       ??_C@_04FIEKMBKB@?5GMT?$AA@ 00086110     libeay32:t_x509.obj
 0002:00020188       ??_C@_06IJDLPEM@length?$AA@ 00086188     libeay32:dh_asn1.obj
 0002:00020344       ??_C@_0P@PJJHDFJB@RSA_PSS_PARAMS?$AA@ 00086344     libeay32:rsa_asn1.obj
 0002:00020354       ??_C@_0N@KGDDKMLA@trailerField?$AA@ 00086354     libeay32:rsa_asn1.obj
 0002:00020364       ??_C@_0L@PKGNFOCE@saltLength?$AA@ 00086364     libeay32:rsa_asn1.obj
 0002:00020370       ??_C@_0BB@KKPGFJED@maskGenAlgorithm?$AA@ 00086370     libeay32:rsa_asn1.obj
 0002:00020384       ??_C@_0O@DHJLLKEK@hashAlgorithm?$AA@ 00086384     libeay32:rsa_asn1.obj
 0002:00020394       ??_C@_04BBEMPLKC@iqmp?$AA@ 00086394     libeay32:rsa_asn1.obj
 0002:0002039c       ??_C@_04PENPDGE@dmq1?$AA@  0008639c     libeay32:rsa_asn1.obj
 0002:000203a4       ??_C@_04OIPJJFD@dmp1?$AA@  000863a4     libeay32:rsa_asn1.obj
 0002:000203ac       ??_C@_01LPLHEDKD@d?$AA@    000863ac     libeay32:rsa_asn1.obj
 0002:000203b0       ??_C@_01KGKMHCOC@e?$AA@    000863b0     libeay32:rsa_asn1.obj
 0002:000203b4       ??_C@_02JPPHBJLD@?2?6?$AA@ 000863b4     libeay32:f_int.obj
 0002:000203b8       ??_C@_02PLJDPFIO@00?$AA@   000863b8     libeay32:f_int.obj
 0002:00020400       ??_C@_08CKLJFNPB@PBEPARAM?$AA@ 00086400     libeay32:p5_pbe.obj
 0002:00020410       ??_C@_0FA@NBNNIDCA@d?3?2wm653wehh?2platform?2mvv210?2src@ 00086410     libeay32:p12_key.obj
 0002:00020518       ??_C@_02HDBGODGB@?2?2?$AA@ 00086518     libeay32:a_strex.obj
 0002:0002051c       ??_C@_05JJPGCIKH@?2?$CF02X?$AA@ 0008651c     libeay32:a_strex.obj
 0002:00020524       ??_C@_01KICIPPFI@?2?$AA@   00086524     libeay32:a_strex.obj
 0002:00020528       ??_C@_07FDBPKGOC@?2U?$CF04lX?$AA@ 00086528     libeay32:a_strex.obj
 0002:00020530       ??_C@_07IOFGAIHD@?2W?$CF08lX?$AA@ 00086530     libeay32:a_strex.obj
 0002:00020538       ??_C@_0EO@POPABNG@d?3?2wm653wehh?2platform?2mvv210?2src@ 00086538     libeay32:a_strex.obj
 0002:00020588       ??_C@_01IPJKGB@?$CD?$AA@   00086588     libeay32:a_strex.obj
 0002:0002058c       ??_C@_01BJJEKLCA@?$CC?$AA@ 0008658c     libeay32:a_strex.obj
 0002:00020590       ??_C@_01NEMOKFLO@?$DN?$AA@ 00086590     libeay32:a_strex.obj
 0002:00020594       ??_C@_03MHLONNLM@?5?$DN?5?$AA@ 00086594     libeay32:a_strex.obj
 0002:00020598       ??_C@_01IHBHIGKO@?0?$AA@   00086598     libeay32:a_strex.obj
 0002:0002059c       ??_C@_01MIFGBAGJ@?$CL?$AA@ 0008659c     libeay32:a_strex.obj
 0002:000205a0       ??_C@_02LNAEAIDO@?$DL?5?$AA@ 000865a0     libeay32:a_strex.obj
 0002:000205a4       ??_C@_03NPBFACHO@?5?$CL?5?$AA@ 000865a4     libeay32:a_strex.obj
 0002:000205a8       ??_C@_0M@PCEPOGPN@?8?$CI?$CJ?$CL?0?9?4?1?3?$DN?$DP?$AA@ 000865a8     libeay32:a_mbstr.obj
 0002:000205b4       ??_C@_08EOPONIBF@maxsize?$DN?$AA@ 000865b4     libeay32:a_mbstr.obj
 0002:000205c0       ??_C@_03JALODAI@?$CFld?$AA@ 000865c0     libeay32:a_mbstr.obj
 0002:000205c4       ??_C@_08JJBFGKFE@minsize?$DN?$AA@ 000865c4     libeay32:a_mbstr.obj
 0002:000205d0       ??_C@_0EO@JLLBAGMI@d?3?2wm653wehh?2platform?2mvv210?2src@ 000865d0     libeay32:a_mbstr.obj
 0002:0002086c       ??_C@_06DPGELLJH@FORMAT?$AA@ 0008686c     libeay32:asn1_gen.obj
 0002:00020874       ??_C@_04HPGCGPG@FORM?$AA@  00086874     libeay32:asn1_gen.obj
 0002:0002087c       ??_C@_07JHDNPBBM@BITWRAP?$AA@ 0008687c     libeay32:asn1_gen.obj
 0002:00020884       ??_C@_07OAIMKKNN@SETWRAP?$AA@ 00086884     libeay32:asn1_gen.obj
 0002:0002088c       ??_C@_07LAEBDLGO@SEQWRAP?$AA@ 0008688c     libeay32:asn1_gen.obj
 0002:00020894       ??_C@_07KIEILLID@OCTWRAP?$AA@ 00086894     libeay32:asn1_gen.obj
 0002:0002089c       ??_C@_08PPMOEJGF@IMPLICIT?$AA@ 0008689c     libeay32:asn1_gen.obj
 0002:000208a8       ??_C@_03PKFOHEJD@IMP?$AA@  000868a8     libeay32:asn1_gen.obj
 0002:000208ac       ??_C@_08CNKBIFDO@EXPLICIT?$AA@ 000868ac     libeay32:asn1_gen.obj
 0002:000208b8       ??_C@_03KKGFKKLA@EXP?$AA@  000868b8     libeay32:asn1_gen.obj
 0002:000208bc       ??_C@_03NCPCKDJB@SEQ?$AA@  000868bc     libeay32:asn1_gen.obj
 0002:000208c0       ??_C@_0O@DFADMOGA@NUMERICSTRING?$AA@ 000868c0     libeay32:asn1_gen.obj
 0002:000208d0       ??_C@_07DBOJJFHC@NUMERIC?$AA@ 000868d0     libeay32:asn1_gen.obj
 0002:000208d8       ??_C@_06GBOJAPHH@GENSTR?$AA@ 000868d8     libeay32:asn1_gen.obj
 0002:000208e0       ??_C@_0O@OIKLOOAP@GeneralString?$AA@ 000868e0     libeay32:asn1_gen.obj
 0002:000208f0       ??_C@_0O@GENPGMAM@TELETEXSTRING?$AA@ 000868f0     libeay32:asn1_gen.obj
 0002:00020900       ??_C@_09FMBHBANP@T61STRING?$AA@ 00086900     libeay32:asn1_gen.obj
 0002:0002090c       ??_C@_03HMGPCGIG@T61?$AA@  0008690c     libeay32:asn1_gen.obj
 0002:00020910       ??_C@_09OMDMMLJJ@PRINTABLE?$AA@ 00086910     libeay32:asn1_gen.obj
 0002:0002091c       ??_C@_0BA@FKHILLED@PRINTABLESTRING?$AA@ 0008691c     libeay32:asn1_gen.obj
 0002:0002092c       ??_C@_07MCGNPFEO@VISIBLE?$AA@ 0008692c     libeay32:asn1_gen.obj
 0002:00020934       ??_C@_0O@KDAJCBO@VISIBLESTRING?$AA@ 00086934     libeay32:asn1_gen.obj
 0002:00020944       ??_C@_09BIBABMFN@BMPSTRING?$AA@ 00086944     libeay32:asn1_gen.obj
 0002:00020950       ??_C@_03CNFPPDJC@BMP?$AA@  00086950     libeay32:asn1_gen.obj
 0002:00020954       ??_C@_0L@PJIJIHJD@UTF8String?$AA@ 00086954     libeay32:asn1_gen.obj
 0002:00020960       ??_C@_04OOMJJNCF@UTF8?$AA@ 00086960     libeay32:asn1_gen.obj
 0002:00020968       ??_C@_09JOMPLKGB@IA5STRING?$AA@ 00086968     libeay32:asn1_gen.obj
 0002:00020974       ??_C@_03OLMOBCBF@IA5?$AA@  00086974     libeay32:asn1_gen.obj
 0002:00020978       ??_C@_04CBEPCLMK@UNIV?$AA@ 00086978     libeay32:asn1_gen.obj
 0002:00020980       ??_C@_0BA@EJHHDALK@UNIVERSALSTRING?$AA@ 00086980     libeay32:asn1_gen.obj
 0002:00020990       ??_C@_09MBLGEDKL@BITSTRING?$AA@ 00086990     libeay32:asn1_gen.obj
 0002:0002099c       ??_C@_06GOEDGPII@BITSTR?$AA@ 0008699c     libeay32:asn1_gen.obj
 0002:000209a4       ??_C@_0M@JIDALIGG@OCTETSTRING?$AA@ 000869a4     libeay32:asn1_gen.obj
 0002:000209b0       ??_C@_03LBMHMDEB@OCT?$AA@  000869b0     libeay32:asn1_gen.obj
 0002:000209b4       ??_C@_07EECHABMP@GENTIME?$AA@ 000869b4     libeay32:asn1_gen.obj
 0002:000209bc       ??_C@_0BA@LKNBIJBB@GENERALIZEDTIME?$AA@ 000869bc     libeay32:asn1_gen.obj
 0002:000209cc       ??_C@_03JCIJEFNJ@UTC?$AA@  000869cc     libeay32:asn1_gen.obj
 0002:000209d0       ??_C@_07HIOLDDN@UTCTIME?$AA@ 000869d0     libeay32:asn1_gen.obj
 0002:000209d8       ??_C@_06IAMCMNFI@OBJECT?$AA@ 000869d8     libeay32:asn1_gen.obj
 0002:000209e0       ??_C@_03PGJCFEMG@OID?$AA@  000869e0     libeay32:asn1_gen.obj
 0002:000209e4       ??_C@_0L@KNIEMAKM@ENUMERATED?$AA@ 000869e4     libeay32:asn1_gen.obj
 0002:000209f0       ??_C@_04PNKFCNMG@ENUM?$AA@ 000869f0     libeay32:asn1_gen.obj
 0002:000209f8       ??_C@_07EHCIHKNF@INTEGER?$AA@ 000869f8     libeay32:asn1_gen.obj
 0002:00020a00       ??_C@_03JMHEAPMO@INT?$AA@  00086a00     libeay32:asn1_gen.obj
 0002:00020a04       ??_C@_07JDEDMABE@BOOLEAN?$AA@ 00086a04     libeay32:asn1_gen.obj
 0002:00020a0c       ??_C@_04PPJDIBFE@BOOL?$AA@ 00086a0c     libeay32:asn1_gen.obj
 0002:00020a14       ??_C@_05NALEHOPE@Char?$DN?$AA@ 00086a14     libeay32:asn1_gen.obj
 0002:00020a20       ??_C@_0EP@NAHIMGLP@d?3?2wm653wehh?2platform?2mvv210?2src@ 00086a20     libeay32:asn1_gen.obj
 0002:00020a70       ??_C@_07HMNLDFAL@BITLIST?$AA@ 00086a70     libeay32:asn1_gen.obj
 0002:00020a78       ??_C@_03IECIMIEG@HEX?$AA@  00086a78     libeay32:asn1_gen.obj
 0002:00020a7c       ??_C@_05CCNLIHFO@ASCII?$AA@ 00086a7c     libeay32:asn1_gen.obj
 0002:00020a84       ??_C@_04JBGFELJA@tag?$DN?$AA@ 00086a84     libeay32:asn1_gen.obj
 0002:00020a8c       ??_C@_07IOGEOOAA@string?$DN?$AA@ 00086a8c     libeay32:asn1_gen.obj
 0002:00020a94       ??_C@_05LKMDHMJN@WIN32?$AA@ 00086a94     libeay32:conf_def.obj
 0002:00020a9c       ??_C@_0BA@EEIGDPJJ@OpenSSL?5default?$AA@ 00086a9c     libeay32:conf_def.obj
 0002:00020aac       CONF_def_version           00086aac     libeay32:conf_def.obj
 0002:00020ad8       ??_C@_0EP@FLILJMGH@d?3?2wm653wehh?2platform?2mvv210?2src@ 00086ad8     libeay32:conf_def.obj
 0002:00020b28       ??_C@_07PNLMPOMH@?$FL?$FL?$CFs?$FN?$FN?6?$AA@ 00086b28     libeay32:conf_def.obj
 0002:00020b30       ??_C@_0M@CLCLGKAH@?$FL?$CFs?$FN?5?$CFs?$DN?$CFs?6?$AA@ 00086b30     libeay32:conf_def.obj
 0002:00020b3c       ??_C@_05KFEICJBI@line?5?$AA@ 00086b3c     libeay32:conf_def.obj
 0002:00020b44       ??_C@_03OEJENCPE@ENV?$AA@  00086b44     libeay32:conf_api.obj
 0002:00020b48       ??_C@_0L@BFMFELMC@vv?5?$DN?$DN?5NULL?$AA@ 00086b48     libeay32:conf_api.obj
 0002:00020b58       ??_C@_0EP@PLCFAFHA@d?3?2wm653wehh?2platform?2mvv210?2src@ 00086b58     libeay32:conf_api.obj
 0002:00020ba8       MD5_version                00086ba8     libeay32:md5_dgst.obj
 0002:000210fc       ??_C@_0BA@JLGHGCLL@OCSP_SERVICELOC?$AA@ 000870fc     libeay32:ocsp_asn.obj
 0002:0002110c       ??_C@_07PAIKCKMF@locator?$AA@ 0008710c     libeay32:ocsp_asn.obj
 0002:00021114       ??_C@_0L@JOKCDHBA@OCSP_CRLID?$AA@ 00087114     libeay32:ocsp_asn.obj
 0002:00021120       ??_C@_07BDEAJPPO@crlTime?$AA@ 00087120     libeay32:ocsp_asn.obj
 0002:00021128       ??_C@_06DLEHNACA@crlNum?$AA@ 00087128     libeay32:ocsp_asn.obj
 0002:00021130       ??_C@_06KAALCHHK@crlUrl?$AA@ 00087130     libeay32:ocsp_asn.obj
 0002:00021138       ??_C@_0P@CPCDLAO@OCSP_BASICRESP?$AA@ 00087138     libeay32:ocsp_asn.obj
 0002:00021148       ??_C@_0BA@OOPOFNLG@tbsResponseData?$AA@ 00087148     libeay32:ocsp_asn.obj
 0002:00021158       ??_C@_0O@GNAMNHBK@OCSP_RESPDATA?$AA@ 00087158     libeay32:ocsp_asn.obj
 0002:00021168       ??_C@_0BD@LEANHDON@responseExtensions?$AA@ 00087168     libeay32:ocsp_asn.obj
 0002:0002117c       ??_C@_09NKKOBILA@responses?$AA@ 0008717c     libeay32:ocsp_asn.obj
 0002:00021188       ??_C@_0L@KADAOIGF@producedAt?$AA@ 00087188     libeay32:ocsp_asn.obj
 0002:00021194       ??_C@_0M@CPBMKBOK@responderId?$AA@ 00087194     libeay32:ocsp_asn.obj
 0002:000211a0       ??_C@_0BA@CEMENBMB@OCSP_SINGLERESP?$AA@ 000871a0     libeay32:ocsp_asn.obj
 0002:000211b0       ??_C@_0BB@BHCHCCEI@singleExtensions?$AA@ 000871b0     libeay32:ocsp_asn.obj
 0002:000211c4       ??_C@_0L@BEDJFPDO@thisUpdate?$AA@ 000871c4     libeay32:ocsp_asn.obj
 0002:000211d0       ??_C@_0L@IGGFAGC@certStatus?$AA@ 000871d0     libeay32:ocsp_asn.obj
 0002:000211dc       ??_C@_06JJGBHEJI@certId?$AA@ 000871dc     libeay32:ocsp_asn.obj
 0002:000211e4       ??_C@_0BA@JBJHLNOJ@OCSP_CERTSTATUS?$AA@ 000871e4     libeay32:ocsp_asn.obj
 0002:000211f4       ??_C@_0O@ICNBHFHN@value?4unknown?$AA@ 000871f4     libeay32:ocsp_asn.obj
 0002:00021204       ??_C@_0O@GCBEBIKI@value?4revoked?$AA@ 00087204     libeay32:ocsp_asn.obj
 0002:00021214       ??_C@_0L@MEIDNBL@value?4good?$AA@ 00087214     libeay32:ocsp_asn.obj
 0002:00021220       ??_C@_0BB@CFNKINIP@OCSP_REVOKEDINFO?$AA@ 00087220     libeay32:ocsp_asn.obj
 0002:00021234       ??_C@_0BB@JHENKMOK@revocationReason?$AA@ 00087234     libeay32:ocsp_asn.obj
 0002:00021248       ??_C@_0P@MHJPNEEK@revocationTime?$AA@ 00087248     libeay32:ocsp_asn.obj
 0002:00021258       ??_C@_0M@JBDPBGBO@OCSP_RESPID?$AA@ 00087258     libeay32:ocsp_asn.obj
 0002:00021264       ??_C@_0M@OFGLOCKB@value?4byKey?$AA@ 00087264     libeay32:ocsp_asn.obj
 0002:00021270       ??_C@_0N@OFBDHEPF@value?4byName?$AA@ 00087270     libeay32:ocsp_asn.obj
 0002:00021280       ??_C@_0O@CDJMCFNM@OCSP_RESPONSE?$AA@ 00087280     libeay32:ocsp_asn.obj
 0002:00021290       ??_C@_0O@MMHCFEHM@responseBytes?$AA@ 00087290     libeay32:ocsp_asn.obj
 0002:000212a0       ??_C@_0P@GEHCLFGI@responseStatus?$AA@ 000872a0     libeay32:ocsp_asn.obj
 0002:000212b0       ??_C@_0P@ONFJGMLI@OCSP_RESPBYTES?$AA@ 000872b0     libeay32:ocsp_asn.obj
 0002:000212c0       ??_C@_08HKMEAON@response?$AA@ 000872c0     libeay32:ocsp_asn.obj
 0002:000212cc       ??_C@_0N@FPIGADMM@responseType?$AA@ 000872cc     libeay32:ocsp_asn.obj
 0002:000212dc       ??_C@_0N@PCNOLOBD@OCSP_REQUEST?$AA@ 000872dc     libeay32:ocsp_asn.obj
 0002:000212ec       ??_C@_0BC@GKDKILGO@optionalSignature?$AA@ 000872ec     libeay32:ocsp_asn.obj
 0002:00021300       ??_C@_0L@OIGCAPNH@tbsRequest?$AA@ 00087300     libeay32:ocsp_asn.obj
 0002:0002130c       ??_C@_0N@DDBEOJJA@OCSP_REQINFO?$AA@ 0008730c     libeay32:ocsp_asn.obj
 0002:0002131c       ??_C@_0BC@CPAMEDLH@requestExtensions?$AA@ 0008731c     libeay32:ocsp_asn.obj
 0002:00021330       ??_C@_0M@NNJGDIDJ@requestList?$AA@ 00087330     libeay32:ocsp_asn.obj
 0002:0002133c       ??_C@_0O@NHDBCFOA@requestorName?$AA@ 0008733c     libeay32:ocsp_asn.obj
 0002:0002134c       ??_C@_0M@IGPHKOAK@OCSP_ONEREQ?$AA@ 0008734c     libeay32:ocsp_asn.obj
 0002:00021358       ??_C@_0BI@PPJDGJOP@singleRequestExtensions?$AA@ 00087358     libeay32:ocsp_asn.obj
 0002:00021370       ??_C@_07GCNFCODJ@reqCert?$AA@ 00087370     libeay32:ocsp_asn.obj
 0002:00021378       ??_C@_0M@OCJEDPID@OCSP_CERTID?$AA@ 00087378     libeay32:ocsp_asn.obj
 0002:00021384       ??_C@_0O@KPBFDKHB@issuerKeyHash?$AA@ 00087384     libeay32:ocsp_asn.obj
 0002:00021394       ??_C@_0P@EKEFMOEP@issuerNameHash?$AA@ 00087394     libeay32:ocsp_asn.obj
 0002:000213a4       ??_C@_0P@OIPGPNII@OCSP_SIGNATURE?$AA@ 000873a4     libeay32:ocsp_asn.obj
 0002:000213b4       ??_C@_05HFDFJDL@certs?$AA@ 000873b4     libeay32:ocsp_asn.obj
 0002:00021414       ??_C@_0BA@OPHCNPAP@AUTHORITY_KEYID?$AA@ 00087414     libeay32:v3_akeya.obj
 0002:00021428       ??_C@_0EP@FNGDBEGO@d?3?2wm653wehh?2platform?2mvv210?2src@ 00087428     libeay32:a_verify.obj
 0002:00021514       ??_C@_0O@DBIGEIKO@NETSCAPE_SPKI?$AA@ 00087514     libeay32:x_spki.obj
 0002:00021524       ??_C@_09JJGBLAHB@sig_algor?$AA@ 00087524     libeay32:x_spki.obj
 0002:00021530       ??_C@_05NBLLCIIN@spkac?$AA@ 00087530     libeay32:x_spki.obj
 0002:00021538       ??_C@_0P@OEBIEFNJ@NETSCAPE_SPKAC?$AA@ 00087538     libeay32:x_spki.obj
 0002:00021548       ??_C@_09DBEGHIJJ@challenge?$AA@ 00087548     libeay32:x_spki.obj
 0002:00021b00       ??_C@_0BC@DLHIINOH@PKCS7_ATTR_VERIFY?$AA@ 00087b00     libeay32:pk7_asn1.obj
 0002:00021b14       ??_C@_0BA@IJMFEGLH@PKCS7_ATTR_SIGN?$AA@ 00087b14     libeay32:pk7_asn1.obj
 0002:00021b24       ??_C@_0BB@ODHHPICH@PKCS7_ATTRIBUTES?$AA@ 00087b24     libeay32:pk7_asn1.obj
 0002:00021b38       ??_C@_0N@NAILNAH@PKCS7_DIGEST?$AA@ 00087b38     libeay32:pk7_asn1.obj
 0002:00021b48       ??_C@_02EBCANADN@md?$AA@   00087b48     libeay32:pk7_asn1.obj
 0002:00021b4c       ??_C@_0O@GIFGHKGC@PKCS7_ENCRYPT?$AA@ 00087b4c     libeay32:pk7_asn1.obj
 0002:00021b5c       ??_C@_0BE@LMHBPFDD@PKCS7_SIGN_ENVELOPE?$AA@ 00087b5c     libeay32:pk7_asn1.obj
 0002:00021b70       ??_C@_0BC@INKEDPEG@PKCS7_ENC_CONTENT?$AA@ 00087b70     libeay32:pk7_asn1.obj
 0002:00021b84       ??_C@_0N@IEAAACJL@content_type?$AA@ 00087b84     libeay32:pk7_asn1.obj
 0002:00021b94       ??_C@_0BB@MGPEFENK@PKCS7_RECIP_INFO?$AA@ 00087b94     libeay32:pk7_asn1.obj
 0002:00021ba8       ??_C@_07LBLKCHGJ@enc_key?$AA@ 00087ba8     libeay32:pk7_asn1.obj
 0002:00021bb0       ??_C@_0O@ODFHHMFC@key_enc_algor?$AA@ 00087bb0     libeay32:pk7_asn1.obj
 0002:00021bc0       ??_C@_0P@KCJMJLOD@PKCS7_ENVELOPE?$AA@ 00087bc0     libeay32:pk7_asn1.obj
 0002:00021bd0       ??_C@_08ENNDKKOI@enc_data?$AA@ 00087bd0     libeay32:pk7_asn1.obj
 0002:00021bdc       ??_C@_0O@HGJALPPJ@recipientinfo?$AA@ 00087bdc     libeay32:pk7_asn1.obj
 0002:00021bec       ??_C@_0BI@POAIONGK@PKCS7_ISSUER_AND_SERIAL?$AA@ 00087bec     libeay32:pk7_asn1.obj
 0002:00021c04       ??_C@_0BC@BFFCPPDG@PKCS7_SIGNER_INFO?$AA@ 00087c04     libeay32:pk7_asn1.obj
 0002:00021c18       ??_C@_0M@NNBFAOJK@unauth_attr?$AA@ 00087c18     libeay32:pk7_asn1.obj
 0002:00021c24       ??_C@_0L@PJDBOMFC@enc_digest?$AA@ 00087c24     libeay32:pk7_asn1.obj
 0002:00021c30       ??_C@_0P@KLFHBHJD@digest_enc_alg?$AA@ 00087c30     libeay32:pk7_asn1.obj
 0002:00021c40       ??_C@_09PLABOLFJ@auth_attr?$AA@ 00087c40     libeay32:pk7_asn1.obj
 0002:00021c4c       ??_C@_0L@OGBFEEJI@digest_alg?$AA@ 00087c4c     libeay32:pk7_asn1.obj
 0002:00021c58       ??_C@_0BC@PMGLGNPO@issuer_and_serial?$AA@ 00087c58     libeay32:pk7_asn1.obj
 0002:00021c6c       ??_C@_0N@CKBJFFNF@PKCS7_SIGNED?$AA@ 00087c6c     libeay32:pk7_asn1.obj
 0002:00021c7c       ??_C@_0M@KEDNAHBP@signer_info?$AA@ 00087c7c     libeay32:pk7_asn1.obj
 0002:00021c88       ??_C@_04PHJBACIC@cert?$AA@ 00087c88     libeay32:pk7_asn1.obj
 0002:00021c90       ??_C@_08ODCIAOPM@contents?$AA@ 00087c90     libeay32:pk7_asn1.obj
 0002:00021c9c       ??_C@_07MPDKKGPO@md_algs?$AA@ 00087c9c     libeay32:pk7_asn1.obj
 0002:00021ca4       ??_C@_05BKMMPIPN@PKCS7?$AA@ 00087ca4     libeay32:pk7_asn1.obj
 0002:00021cac       ??_C@_0M@IDEHBFAL@d?4encrypted?$AA@ 00087cac     libeay32:pk7_asn1.obj
 0002:00021cb8       ??_C@_08JOIJLLGO@d?4digest?$AA@ 00087cb8     libeay32:pk7_asn1.obj
 0002:00021cc4       ??_C@_0BH@FHPJHCLF@d?4signed_and_enveloped?$AA@ 00087cc4     libeay32:pk7_asn1.obj
 0002:00021cdc       ??_C@_0M@CLKMIMCI@d?4enveloped?$AA@ 00087cdc     libeay32:pk7_asn1.obj
 0002:00021ce8       ??_C@_06GOHGJFCL@d?4sign?$AA@ 00087ce8     libeay32:pk7_asn1.obj
 0002:00021d90       ??_C@_0EN@IKCJFOCD@d?3?2wm653wehh?2platform?2mvv210?2src@ 00087d90     libeay32:ecp_smpl.obj
 0002:00022290       ??_C@_0EN@JCJEBHDE@d?3?2wm653wehh?2platform?2mvv210?2src@ 00088290     libeay32:ec2_mult.obj
 0002:00022320       ??_C@_0EM@KOFLLDDI@d?3?2wm653wehh?2platform?2mvv210?2src@ 00088320     libeay32:bn_gf2m.obj
 0002:000223b0       ??_C@_08OPPGEJIL@X509_VAL?$AA@ 000883b0     libeay32:x_val.obj
 0002:00022484       ??_C@_0P@BDECDGPA@X509_CERT_PAIR?$AA@ 00088484     libeay32:x_x509a.obj
 0002:00022494       ??_C@_07KOIEOCCE@reverse?$AA@ 00088494     libeay32:x_x509a.obj
 0002:0002249c       ??_C@_07CJMBKHEI@forward?$AA@ 0008849c     libeay32:x_x509a.obj
 0002:000224a4       ??_C@_0O@LJIIOIG@X509_CERT_AUX?$AA@ 000884a4     libeay32:x_x509a.obj
 0002:000224b4       ??_C@_05NKHOCLEE@alias?$AA@ 000884b4     libeay32:x_x509a.obj
 0002:000224bc       ??_C@_06JPOFNODM@reject?$AA@ 000884bc     libeay32:x_x509a.obj
 0002:000224c4       ??_C@_05BMJJJIHB@trust?$AA@ 000884c4     libeay32:x_x509a.obj
 0002:000224e0       PEM_version                000884e0     libeay32:pem_lib.obj
 0002:0002258c       ??_C@_09FGHEBGDO@?$DMASN1?529?$DO?$AA@ 0008858c     libeay32:asn1_par.obj
 0002:00022598       ??_C@_0O@DKDEPFLO@GENERALSTRING?$AA@ 00088598     libeay32:asn1_par.obj
 0002:000225a8       ??_C@_0O@MABADFB@GRAPHICSTRING?$AA@ 000885a8     libeay32:asn1_par.obj
 0002:000225b8       ??_C@_0P@LNAMNBEL@VIDEOTEXSTRING?$AA@ 000885b8     libeay32:asn1_par.obj
 0002:000225c8       ??_C@_09ENNLEALE@?$DMASN1?515?$DO?$AA@ 000885c8     libeay32:asn1_par.obj
 0002:000225d4       ??_C@_09EMBJCKID@?$DMASN1?514?$DO?$AA@ 000885d4     libeay32:asn1_par.obj
 0002:000225e0       ??_C@_09EJFGDMAG@?$DMASN1?513?$DO?$AA@ 000885e0     libeay32:asn1_par.obj
 0002:000225ec       ??_C@_0L@DCBPGANN@UTF8STRING?$AA@ 000885ec     libeay32:asn1_par.obj
 0002:000225f8       ??_C@_09EKNCOIGI@?$DMASN1?511?$DO?$AA@ 000885f8     libeay32:asn1_par.obj
 0002:00022604       ??_C@_04PKFANLLI@REAL?$AA@ 00088604     libeay32:asn1_par.obj
 0002:0002260c       ??_C@_08JHLDEHEK@EXTERNAL?$AA@ 0008860c     libeay32:asn1_par.obj
 0002:00022618       ??_C@_0BC@HDOCNDIH@OBJECT?5DESCRIPTOR?$AA@ 00088618     libeay32:asn1_par.obj
 0002:0002262c       ??_C@_0N@KPGGMDFC@OCTET?5STRING?$AA@ 0008862c     libeay32:asn1_par.obj
 0002:0002263c       ??_C@_0L@EKOKPLKE@BIT?5STRING?$AA@ 0008863c     libeay32:asn1_par.obj
 0002:00022648       ??_C@_03NCODFONH@EOC?$AA@  00088648     libeay32:asn1_par.obj
 0002:0002264c       ??_C@_09GPGAJHPD@?$CIunknown?$CJ?$AA@ 0008864c     libeay32:asn1_par.obj
 0002:000226a0       ??_C@_0BK@EMDNDBLP@?$CF04d?$CF02d?$CF02d?$CF02d?$CF02d?$CF02dZ?$AA@ 000886a0     libeay32:a_gentm.obj
 0002:000226c0       ??_C@_0EO@HIOEHCAC@d?3?2wm653wehh?2platform?2mvv210?2src@ 000886c0     libeay32:a_gentm.obj
 0002:00022750       ??_C@_0BK@PMAAGDOP@?$CF02d?$CF02d?$CF02d?$CF02d?$CF02d?$CF02dZ?$AA@ 00088750     libeay32:a_utctm.obj
 0002:00022770       ??_C@_0EO@DLENMAPA@d?3?2wm653wehh?2platform?2mvv210?2src@ 00088770     libeay32:a_utctm.obj
 0002:000227c0       ??_C@_0L@CFEJKCOD@TSA?5server?$AA@ 000887c0     libeay32:x509_trs.obj
 0002:000227cc       ??_C@_0N@CAJJAOJD@OCSP?5request?$AA@ 000887cc     libeay32:x509_trs.obj
 0002:000227dc       ??_C@_0P@JHCOMJOI@OCSP?5responder?$AA@ 000887dc     libeay32:x509_trs.obj
 0002:000227ec       ??_C@_0O@EEPBMPKP@Object?5Signer?$AA@ 000887ec     libeay32:x509_trs.obj
 0002:000227fc       ??_C@_0N@OEEPKGPL@S?1MIME?5email?$AA@ 000887fc     libeay32:x509_trs.obj
 0002:0002280c       ??_C@_0L@JNOGJJCA@compatible?$AA@ 0008880c     libeay32:x509_trs.obj
 0002:000228b8       ??_C@_0L@MDHNNNKP@ssl_server?$AA@ 000888b8     libeay32:x509_vpm.obj
 0002:000228c4       ??_C@_0L@IMDPAGCM@ssl_client?$AA@ 000888c4     libeay32:x509_vpm.obj
 0002:000228d0       ??_C@_0L@GGDBHMO@smime_sign?$AA@ 000888d0     libeay32:x509_vpm.obj
 0002:000228e0       ??_C@_0EL@LDMNJGLH@d?3?2wm653wehh?2platform?2mvv210?2src@ 000888e0     libeay32:ec_oct.obj
 0002:00022930       ??_C@_0FA@NCEGPJFE@d?3?2wm653wehh?2platform?2mvv210?2src@ 00088930     libeay32:p12_utl.obj
 0002:00022980       ??_C@_0CG@ELPNGFCJ@OpenSSL?5?8win32?8?5shared?5library?5m@ 00088980     libeay32:dso_win32.obj
 0002:000229a8       ??_C@_01PKGAHCOL@?$CJ?$AA@ 000889a8     libeay32:dso_win32.obj
 0002:000229ac       ??_C@_09CCCHLKJP@filename?$CI?$AA@ 000889ac     libeay32:dso_win32.obj
 0002:000229b8       ??_C@_0EP@KLFAEIED@d?3?2wm653wehh?2platform?2mvv210?2src@ 000889b8     libeay32:dso_win32.obj
 0002:00022a08       ??_C@_08MFAHALLH@symname?$CI?$AA@ 00088a08     libeay32:dso_win32.obj
 0002:00022a14       ??_C@_06DAJAKOAL@?$CFs?4dll?$AA@ 00088a14     libeay32:dso_win32.obj
 0002:00022a1c       ??_C@_0BI@GJJDGJIM@CloseToolhelp32Snapshot?$AA@ 00088a1c     libeay32:dso_win32.obj
 0002:00022a34       ??_C@_0O@CNMFJJGO@Module32First?$AA@ 00088a34     libeay32:dso_win32.obj
 0002:00022a44       ??_C@_0N@KIGOLBLC@Module32Next?$AA@ 00088a44     libeay32:dso_win32.obj
 0002:00022a54       ??_C@_0BJ@JEFKDHMD@CreateToolhelp32Snapshot?$AA@ 00088a54     libeay32:dso_win32.obj
 0002:00022a70       ??_C@_1BK@NKALKHPI@?$AAT?$AAO?$AAO?$AAL?$AAH?$AAE?$AAL?$AAP?$AA?4?$AAD?$AAL?$AAL?$AA?$AA@ 00088a70     libeay32:dso_win32.obj
 0002:00022a90       ??_C@_0FA@NNAIMOGG@d?3?2wm653wehh?2platform?2mvv210?2src@ 00088a90     libeay32:pk7_doit.obj
 0002:00022ba8       ??_C@_0CK@NJACHFBA@ctx?9?$DOlength?5?$DM?$DN?5?$CIint?$CJsizeof?$CIctx?9?$DO@ 00088ba8     libeay32:encode.obj
 0002:00022bd8       ??_C@_0EM@EJBFCLJI@d?3?2wm653wehh?2platform?2mvv210?2src@ 00088bd8     libeay32:encode.obj
 0002:00022c24       ??_C@_0BP@KGJPJK@n?5?$DM?5?$CIint?$CJsizeof?$CIctx?9?$DOenc_data?$CJ?$AA@ 00088c24     libeay32:encode.obj
 0002:00022c44       ??_C@_04GABBLIPF@asn1?$AA@ 00088c44     libeay32:bio_asn1.obj
 0002:00022c50       ??_C@_0EP@CPKJKHDC@d?3?2wm653wehh?2platform?2mvv210?2src@ 00088c50     libeay32:bio_asn1.obj
 0002:00022ca0       ??_C@_0BM@FIMHHPDL@ctx?9?$DObuflen?5?$DM?$DN?5ctx?9?$DObufsize?$AA@ 00088ca0     libeay32:bio_asn1.obj
 0002:00022cbc       ??_C@_0BA@CNEIDKOH@base64?5encoding?$AA@ 00088cbc     libeay32:bio_b64.obj
 0002:00022cd0       ??_C@_0EN@CHDAAPPK@d?3?2wm653wehh?2platform?2mvv210?2src@ 00088cd0     libeay32:bio_b64.obj
 0002:00022d20       ??_C@_0CH@JADBFJCL@ctx?9?$DObuf_off?$CLi?5?$DM?5?$CIint?$CJsizeof?$CIctx@ 00088d20     libeay32:bio_b64.obj
 0002:00022d48       ??_C@_0BN@FPMDFEFM@ctx?9?$DObuf_len?5?$DO?$DN?5ctx?9?$DObuf_off?$AA@ 00088d48     libeay32:bio_b64.obj
 0002:00022d68       ??_C@_0BC@BEKEPBME@ctx?9?$DOtmp_len?5?$DM?$DN?53?$AA@ 00088d68     libeay32:bio_b64.obj
 0002:00022d7c       ??_C@_0CG@NALBBCEM@ctx?9?$DObuf_off?5?$DM?$DN?5?$CIint?$CJsizeof?$CIctx?9@ 00088d7c     libeay32:bio_b64.obj
 0002:00022da4       ??_C@_06NOLCFJLD@i?5?$DM?$DN?5n?$AA@ 00088da4     libeay32:bio_b64.obj
 0002:00022dac       ??_C@_0CG@LFOFKIIN@ctx?9?$DObuf_len?5?$DM?$DN?5?$CIint?$CJsizeof?$CIctx?9@ 00088dac     libeay32:bio_b64.obj
 0002:00022dd4       ??_C@_0CF@ELLFOHKP@ctx?9?$DObuf_off?5?$DM?5?$CIint?$CJsizeof?$CIctx?9?$DO@ 00088dd4     libeay32:bio_b64.obj
 0002:00022dfc       ??_C@_06HOHPNJLC@buffer?$AA@ 00088dfc     libeay32:bf_buff.obj
 0002:00022e08       ??_C@_0EN@HLACMGKH@d?3?2wm653wehh?2platform?2mvv210?2src@ 00088e08     libeay32:bf_buff.obj
 0002:00022e58       ??_C@_0EM@IBBLLJFJ@d?3?2wm653wehh?2platform?2mvv210?2src@ 00088e58     libeay32:ec2_oct.obj
 0002:00022ea8       ??_C@_0EM@OKKDHMMJ@d?3?2wm653wehh?2platform?2mvv210?2src@ 00088ea8     libeay32:ecp_oct.obj
 0002:000231e0       ??_C@_0BB@BIPBIGGF@PKCS12_AUTHSAFES?$AA@ 000891e0     libeay32:p12_asn.obj
 0002:000231f4       ??_C@_0BA@MCGBLIFE@PKCS12_SAFEBAGS?$AA@ 000891f4     libeay32:p12_asn.obj
 0002:00023204       ??_C@_06CEIPPJF@attrib?$AA@ 00089204     libeay32:p12_asn.obj
 0002:0002320c       ??_C@_0P@EECFPDPC@PKCS12_SAFEBAG?$AA@ 0008920c     libeay32:p12_asn.obj
 0002:0002321c       ??_C@_09EBGANBLK@value?4bag?$AA@ 0008921c     libeay32:p12_asn.obj
 0002:00023228       ??_C@_0M@NFMGHALF@value?4safes?$AA@ 00089228     libeay32:p12_asn.obj
 0002:00023234       ??_C@_0P@FIADCDOI@value?4shkeybag?$AA@ 00089234     libeay32:p12_asn.obj
 0002:00023244       ??_C@_0N@DOAHKDFI@value?4keybag?$AA@ 00089244     libeay32:p12_asn.obj
 0002:00023254       ??_C@_0M@BNPBMADO@PKCS12_BAGS?$AA@ 00089254     libeay32:p12_asn.obj
 0002:00023260       ??_C@_0P@OEFHMPFE@value?4sdsicert?$AA@ 00089260     libeay32:p12_asn.obj
 0002:00023270       ??_C@_0O@KKFHCJNP@value?4x509crl?$AA@ 00089270     libeay32:p12_asn.obj
 0002:00023280       ??_C@_0P@IGODMFMC@value?4x509cert?$AA@ 00089280     libeay32:p12_asn.obj
 0002:00023290       ??_C@_0M@PABGOMNF@value?4other?$AA@ 00089290     libeay32:p12_asn.obj
 0002:0002329c       ??_C@_0BA@LPMCLHLH@PKCS12_MAC_DATA?$AA@ 0008929c     libeay32:p12_asn.obj
 0002:000232ac       ??_C@_05DMLMEGOG@dinfo?$AA@ 000892ac     libeay32:p12_asn.obj
 0002:000232b4       ??_C@_06CKOLGKJK@PKCS12?$AA@ 000892b4     libeay32:p12_asn.obj
 0002:000232bc       ??_C@_09HFIAEJAG@authsafes?$AA@ 000892bc     libeay32:p12_asn.obj
 0002:000232c8       ??_C@_0FA@FLDKBPHG@d?3?2wm653wehh?2platform?2mvv210?2src@ 000892c8     libeay32:pk7_attr.obj
 0002:00023338       ??_C@_0EM@FGPLHJJK@d?3?2wm653wehh?2platform?2mvv210?2src@ 00089338     libeay32:bn_sqrt.obj
 0002:00023384       ??_C@_0BP@JCDKFDNH@OpenSSL?5default?5user?5interface?$AA@ 00089384     libeay32:ui_openssl.obj
 0002:000233a8       ??_C@_0EP@FLBPENKO@d?3?2wm653wehh?2platform?2mvv210?2src@ 000893a8     libeay32:ui_openssl.obj
 0002:000233f8       ??_C@_03EPNNLCDK@con?$AA@  000893f8     libeay32:ui_openssl.obj
 0002:000233fc       ??_C@_0BA@GANIJHKH@Verify?5failure?6?$AA@ 000893fc     libeay32:ui_openssl.obj
 0002:0002340c       ??_C@_0P@IOLEFIHN@Verifying?5?9?5?$CFs?$AA@ 0008940c     libeay32:ui_openssl.obj
 0002:0002341c       ??_C@_0BG@KLEAJEFJ@Illegal?5byte?5sequence?$AA@ 0008941c     wcecompatex:string_extras.obj
 0002:00023434       ??_C@_0BE@ICMCHPHH@Directory?5not?5empty?$AA@ 00089434     wcecompatex:string_extras.obj
 0002:00023448       ??_C@_0BJ@IHEHINLI@Function?5not?5implemented?$AA@ 00089448     wcecompatex:string_extras.obj
 0002:00023464       ??_C@_0BD@CLHBCGPB@No?5locks?5available?$AA@ 00089464     wcecompatex:string_extras.obj
 0002:00023478       ??_C@_0BC@BEDIHIDK@Filename?5too?5long?$AA@ 00089478     wcecompatex:string_extras.obj
 0002:0002348c       ??_C@_0BK@JAEBMJJM@Resource?5deadlock?5avoided?$AA@ 0008948c     wcecompatex:string_extras.obj
 0002:000234a8       ??_C@_0BB@FCBJFCAJ@Result?5too?5large?$AA@ 000894a8     wcecompatex:string_extras.obj
 0002:000234bc       ??_C@_0N@MMJPGLJK@Domain?5error?$AA@ 000894bc     wcecompatex:string_extras.obj
 0002:000234cc       ??_C@_0M@LHEPIIOM@Broken?5pipe?$AA@ 000894cc     wcecompatex:string_extras.obj
 0002:000234d8       ??_C@_0P@PKCJJLLM@Too?5many?5links?$AA@ 000894d8     wcecompatex:string_extras.obj
 0002:000234e8       ??_C@_0BG@DDBFNKBH@Read?9only?5file?5system?$AA@ 000894e8     wcecompatex:string_extras.obj
 0002:00023500       ??_C@_0N@FEHLOILP@Invalid?5seek?$AA@ 00089500     wcecompatex:string_extras.obj
 0002:00023510       ??_C@_0BI@FEALHKLD@No?5space?5left?5on?5device?$AA@ 00089510     wcecompatex:string_extras.obj
 0002:00023528       ??_C@_0P@LFMMIPAE@File?5too?5large?$AA@ 00089528     wcecompatex:string_extras.obj
 0002:00023538       ??_C@_0CE@ONOKNLPF@Inappropriate?5I?1O?5control?5operat@ 00089538     wcecompatex:string_extras.obj
 0002:0002355c       ??_C@_0BE@INBJMKGG@Too?5many?5open?5files?$AA@ 0008955c     wcecompatex:string_extras.obj
 0002:00023570       ??_C@_0BO@IIFBODJE@Too?5many?5open?5files?5in?5system?$AA@ 00089570     wcecompatex:string_extras.obj
 0002:00023590       ??_C@_0BB@HMGGCEBG@Invalid?5argument?$AA@ 00089590     wcecompatex:string_extras.obj
 0002:000235a4       ??_C@_0P@NDHGCGKE@Is?5a?5directory?$AA@ 000895a4     wcecompatex:string_extras.obj
 0002:000235b4       ??_C@_0BA@CJBACOOL@Not?5a?5directory?$AA@ 000895b4     wcecompatex:string_extras.obj
 0002:000235c4       ??_C@_0P@NLEIANHE@No?5such?5device?$AA@ 000895c4     wcecompatex:string_extras.obj
 0002:000235d4       ??_C@_0O@OAMDNOCP@Improper?5link?$AA@ 000895d4     wcecompatex:string_extras.obj
 0002:000235e4       ??_C@_0M@NAAJNNGH@File?5exists?$AA@ 000895e4     wcecompatex:string_extras.obj
 0002:000235f0       ??_C@_0BI@PDLELJEJ@Device?5or?5resource?5busy?$AA@ 000895f0     wcecompatex:string_extras.obj
 0002:00023608       ??_C@_0O@NIPGCINC@Unknown?5error?$AA@ 00089608     wcecompatex:string_extras.obj
 0002:00023618       ??_C@_0M@LOEHLCJD@Bad?5address?$AA@ 00089618     wcecompatex:string_extras.obj
 0002:00023624       ??_C@_0BC@HFNFNKAI@Permission?5denied?$AA@ 00089624     wcecompatex:string_extras.obj
 0002:00023638       ??_C@_0BC@BAKIAKOF@Not?5enough?5memory?$AA@ 00089638     wcecompatex:string_extras.obj
 0002:0002364c       ??_C@_0CB@EPFKGNAK@Resource?5temporarily?5unavailable@ 0008964c     wcecompatex:string_extras.obj
 0002:00023670       ??_C@_0BD@LOHELEP@No?5child?5processes?$AA@ 00089670     wcecompatex:string_extras.obj
 0002:00023684       ??_C@_0BE@NFGDDCEF@Bad?5file?5descriptor?$AA@ 00089684     wcecompatex:string_extras.obj
 0002:00023698       ??_C@_0BC@HKPNECK@Exec?5format?5error?$AA@ 00089698     wcecompatex:string_extras.obj
 0002:000236ac       ??_C@_0BC@MFFGCDFL@Arg?5list?5too?5long?$AA@ 000896ac     wcecompatex:string_extras.obj
 0002:000236c0       ??_C@_0BK@DPKMCKJ@No?5such?5device?5or?5address?$AA@ 000896c0     wcecompatex:string_extras.obj
 0002:000236dc       ??_C@_09FIANMNHE@I?1O?5error?$AA@ 000896dc     wcecompatex:string_extras.obj
 0002:000236e8       ??_C@_0BI@EAGLFFDI@Interrupted?5system?5call?$AA@ 000896e8     wcecompatex:string_extras.obj
 0002:00023700       ??_C@_0BA@FKIAIBGA@No?5such?5process?$AA@ 00089700     wcecompatex:string_extras.obj
 0002:00023710       ??_C@_0BK@FMDHKPNF@No?5such?5file?5or?5directory?$AA@ 00089710     wcecompatex:string_extras.obj
 0002:0002372c       ??_C@_0BI@BJFCGOHL@Operation?5not?5permitted?$AA@ 0008972c     wcecompatex:string_extras.obj
 0002:00023744       ??_C@_08INEPGKHH@No?5error?$AA@ 00089744     wcecompatex:string_extras.obj
 0002:00023750       ??_C@_08EDHMEBNP@December?$AA@ 00089750     wcecompatex:time.obj
 0002:0002375c       ??_C@_08HCHEGEOA@November?$AA@ 0008975c     wcecompatex:time.obj
 0002:00023768       ??_C@_07JJNFCEND@October?$AA@ 00089768     wcecompatex:time.obj
 0002:00023770       ??_C@_09BHHEALKD@September?$AA@ 00089770     wcecompatex:time.obj
 0002:0002377c       ??_C@_06LBBHFDDG@August?$AA@ 0008977c     wcecompatex:time.obj
 0002:00023784       ??_C@_04MIEPOIFP@July?$AA@ 00089784     wcecompatex:time.obj
 0002:0002378c       ??_C@_04CNLMGBGM@June?$AA@ 0008978c     wcecompatex:time.obj
 0002:00023794       ??_C@_05DMJDNLEJ@April?$AA@ 00089794     wcecompatex:time.obj
 0002:0002379c       ??_C@_05HPCKOFNC@March?$AA@ 0008979c     wcecompatex:time.obj
 0002:000237a4       ??_C@_08GNJGEPFN@February?$AA@ 000897a4     wcecompatex:time.obj
 0002:000237b0       ??_C@_07CGJPFGJA@January?$AA@ 000897b0     wcecompatex:time.obj
 0002:000237b8       ??_C@_08INBOOONO@Saturday?$AA@ 000897b8     wcecompatex:time.obj
 0002:000237c4       ??_C@_06JECMNKMI@Friday?$AA@ 000897c4     wcecompatex:time.obj
 0002:000237cc       ??_C@_08HACCIKIA@Thursday?$AA@ 000897cc     wcecompatex:time.obj
 0002:000237d8       ??_C@_09DLIGFAKA@Wednesday?$AA@ 000897d8     wcecompatex:time.obj
 0002:000237e4       ??_C@_07BAAGCFCM@Tuesday?$AA@ 000897e4     wcecompatex:time.obj
 0002:000237ec       ??_C@_06JLEDEDGH@Monday?$AA@ 000897ec     wcecompatex:time.obj
 0002:000237f4       ??_C@_06OOPIFAJ@Sunday?$AA@ 000897f4     wcecompatex:time.obj
 0002:000237fc       ??_C@_03FEFJNEK@Sat?$AA@   000897fc     wcecompatex:time.obj
 0002:00023800       ??_C@_03IDIOELNC@Fri?$AA@  00089800     wcecompatex:time.obj
 0002:00023804       ??_C@_03IOFIKPDN@Thu?$AA@  00089804     wcecompatex:time.obj
 0002:00023808       ??_C@_03MHOMLAJA@Wed?$AA@  00089808     wcecompatex:time.obj
 0002:0002380c       ??_C@_03NAGEINEP@Tue?$AA@  0008980c     wcecompatex:time.obj
 0002:00023810       ??_C@_03PDAGKDH@Mon?$AA@   00089810     wcecompatex:time.obj
 0002:00023814       ??_C@_03KOEHGMDN@Sun?$AA@  00089814     wcecompatex:time.obj
 0002:00023834       __IMPORT_DESCRIPTOR_COREDLL 00089834     coredll:COREDLL.dll
 0002:00023848       __NULL_IMPORT_DESCRIPTOR   00089848     coredll:COREDLL.dll
 0003:00000000       __imp_sprintf              0008a000     coredll:COREDLL.dll
 0003:00000004       __imp_printf               0008a004     coredll:COREDLL.dll
 0003:00000008       __imp_strcmp               0008a008     coredll:COREDLL.dll
 0003:0000000c       __imp_strlen               0008a00c     coredll:COREDLL.dll
 0003:00000010       __imp_memset               0008a010     coredll:COREDLL.dll
 0003:00000014       __imp_memcpy               0008a014     coredll:COREDLL.dll
 0003:00000018       __imp_free                 0008a018     coredll:COREDLL.dll
 0003:0000001c       __imp_realloc              0008a01c     coredll:COREDLL.dll
 0003:00000020       __imp_malloc               0008a020     coredll:COREDLL.dll
 0003:00000024       __imp_strcpy               0008a024     coredll:COREDLL.dll
 0003:00000028       __imp_strncpy              0008a028     coredll:COREDLL.dll
 0003:0000002c       __imp_strchr               0008a02c     coredll:COREDLL.dll
 0003:00000030       __imp___itod               0008a030     coredll:COREDLL.dll
 0003:00000034       __imp___muld               0008a034     coredll:COREDLL.dll
 0003:00000038       __imp_memcmp               0008a038     coredll:COREDLL.dll
 0003:0000003c       __imp_MessageBoxW          0008a03c     coredll:COREDLL.dll
 0003:00000040       __imp__vsnwprintf          0008a040     coredll:COREDLL.dll
 0003:00000044       __imp_MultiByteToWideChar  0008a044     coredll:COREDLL.dll
 0003:00000048       __imp__getstdfilex         0008a048     coredll:COREDLL.dll
 0003:0000004c       __imp_memchr               0008a04c     coredll:COREDLL.dll
 0003:00000050       __imp_fprintf              0008a050     coredll:COREDLL.dll
 0003:00000054       __imp_atoi                 0008a054     coredll:COREDLL.dll
 0003:00000058       __imp__isctype             0008a058     coredll:COREDLL.dll
 0003:0000005c       __imp_qsort                0008a05c     coredll:COREDLL.dll
 0003:00000060       __imp___rt_udiv            0008a060     coredll:COREDLL.dll
 0003:00000064       __imp___ltd                0008a064     coredll:COREDLL.dll
 0003:00000068       __imp___negd               0008a068     coredll:COREDLL.dll
 0003:0000006c       __imp___dtoi               0008a06c     coredll:COREDLL.dll
 0003:00000070       __imp___subd               0008a070     coredll:COREDLL.dll
 0003:00000074       __imp___ged                0008a074     coredll:COREDLL.dll
 0003:00000078       __imp___rt_udiv64by64      0008a078     coredll:COREDLL.dll
 0003:0000007c       __imp___rt_urem64by64      0008a07c     coredll:COREDLL.dll
 0003:00000080       __imp_tolower              0008a080     coredll:COREDLL.dll
 0003:00000084       __imp_strncmp              0008a084     coredll:COREDLL.dll
 0003:00000088       __imp_sscanf               0008a088     coredll:COREDLL.dll
 0003:0000008c       __imp__strnicmp            0008a08c     coredll:COREDLL.dll
 0003:00000090       __imp_fclose               0008a090     coredll:COREDLL.dll
 0003:00000094       __imp_GetLastError         0008a094     coredll:COREDLL.dll
 0003:00000098       __imp_ferror               0008a098     coredll:COREDLL.dll
 0003:0000009c       __imp_fread                0008a09c     coredll:COREDLL.dll
 0003:000000a0       __imp_fwrite               0008a0a0     coredll:COREDLL.dll
 0003:000000a4       __imp__setmode             0008a0a4     coredll:COREDLL.dll
 0003:000000a8       __imp__fileno              0008a0a8     coredll:COREDLL.dll
 0003:000000ac       __imp_fopen                0008a0ac     coredll:COREDLL.dll
 0003:000000b0       __imp_fseek                0008a0b0     coredll:COREDLL.dll
 0003:000000b4       __imp_ftell                0008a0b4     coredll:COREDLL.dll
 0003:000000b8       __imp_feof                 0008a0b8     coredll:COREDLL.dll
 0003:000000bc       __imp_fflush               0008a0bc     coredll:COREDLL.dll
 0003:000000c0       __imp_strcat               0008a0c0     coredll:COREDLL.dll
 0003:000000c4       __imp_fgets                0008a0c4     coredll:COREDLL.dll
 0003:000000c8       __imp__wfopen              0008a0c8     coredll:COREDLL.dll
 0003:000000cc       __imp_strrchr              0008a0cc     coredll:COREDLL.dll
 0003:000000d0       __imp___rt_sdiv            0008a0d0     coredll:COREDLL.dll
 0003:000000d4       __imp___addd               0008a0d4     coredll:COREDLL.dll
 0003:000000d8       __imp_strtoul              0008a0d8     coredll:COREDLL.dll
 0003:000000dc       __imp__stricmp             0008a0dc     coredll:COREDLL.dll
 0003:000000e0       __imp_memmove              0008a0e0     coredll:COREDLL.dll
 0003:000000e4       __imp_GetTickCount         0008a0e4     coredll:COREDLL.dll
 0003:000000e8       __imp_QueryPerformanceCounter 0008a0e8     coredll:COREDLL.dll
 0003:000000ec       __imp_GlobalMemoryStatus   0008a0ec     coredll:COREDLL.dll
 0003:000000f0       __imp_CryptReleaseContext  0008a0f0     coredll:COREDLL.dll
 0003:000000f4       __imp_CryptGenRandom       0008a0f4     coredll:COREDLL.dll
 0003:000000f8       __imp_CryptAcquireContextW 0008a0f8     coredll:COREDLL.dll
 0003:000000fc       __imp_GetVersionExW        0008a0fc     coredll:COREDLL.dll
 0003:00000100       __imp_LoadLibraryW         0008a100     coredll:COREDLL.dll
 0003:00000104       __imp_SetLastError         0008a104     coredll:COREDLL.dll
 0003:00000108       __imp_FreeLibrary          0008a108     coredll:COREDLL.dll
 0003:0000010c       __imp_GetProcAddressA      0008a10c     coredll:COREDLL.dll
 0003:00000110       __imp_strstr               0008a110     coredll:COREDLL.dll
 0003:00000114       __imp_WideCharToMultiByte  0008a114     coredll:COREDLL.dll
 0003:00000118       __imp_fputs                0008a118     coredll:COREDLL.dll
 0003:0000011c       __imp_SystemTimeToFileTime 0008a11c     coredll:COREDLL.dll
 0003:00000120       __imp_GetSystemTime        0008a120     coredll:COREDLL.dll
 0003:00000124       __imp_FileTimeToSystemTime 0008a124     coredll:COREDLL.dll
 0003:00000128       __imp_LocalFree            0008a128     coredll:COREDLL.dll
 0003:0000012c       __imp__XcptFilter          0008a12c     coredll:COREDLL.dll
 0003:00000130       __imp___C_specific_handler 0008a130     coredll:COREDLL.dll
 0003:00000134       __imp_FindFirstFileW       0008a134     coredll:COREDLL.dll
 0003:00000138       __imp_FindClose            0008a138     coredll:COREDLL.dll
 0003:0000013c       __imp_FindNextFileW        0008a13c     coredll:COREDLL.dll
 0003:00000140       __imp_GetModuleFileNameW   0008a140     coredll:COREDLL.dll
 0003:00000144       \177COREDLL_NULL_THUNK_DATA 0008a144     coredll:COREDLL.dll
 0003:00000148       __xc_a                     0008a148     corelibc:crt0init.obj
 0003:0000014c       __xc_z                     0008a14c     corelibc:crt0init.obj
 0003:00000150       __xi_a                     0008a150     corelibc:crt0init.obj
 0003:00000154       __xi_z                     0008a154     corelibc:crt0init.obj
 0003:00000158       __xp_a                     0008a158     corelibc:crt0init.obj
 0003:0000015c       __xp_z                     0008a15c     corelibc:crt0init.obj
 0003:00000160       __xt_a                     0008a160     corelibc:crt0init.obj
 0003:00000164       __xt_z                     0008a164     corelibc:crt0init.obj
 0003:0000077c       rand_ssleay_meth           0008a77c     libeay32:md_rand.obj
 0003:00000950       default_pctx               0008a950     libeay32:tasn_prn.obj
 0003:00001050       ?messages@@3PAPADA         0008b050     wcecompatex:string_extras.obj
 0003:00001244       app_pkey_methods           0008b244     libeay32:pmeth_lib.obj
 0003:000028d0       OPENSSL_NONPIC_relocated   0008c8d0     libeay32:cryptlib.obj
 0003:00002900       cleanse_ctr                0008c900     libeay32:mem_clr.obj
 0003:00002b08       obj_cleanup_defer          0008cb08     libeay32:obj_dat.obj
 0003:000031d4       _environ                   0008d1d4     wcecompatex:env.obj
 0003:000031d8       _wenviron                  0008d1d8     wcecompatex:env.obj
 0003:000031dc       ?num_env_vars@@3HA         0008d1dc     wcecompatex:env.obj
 0003:00003220       errno                      0008d220     wcecompatex:errno.obj
 0003:00003224       ?_timezone@@3HA            0008d224     wcecompatex:timeb.obj
 0003:00003228       ?altzone@@3HA              0008d228     wcecompatex:timeb.obj
 0003:0000322c       ?timezone@@3HA             0008d22c     wcecompatex:timeb.obj
 0003:00003230       sigx_app                   0008d230     <common>
 0003:00003234       sig_app                    0008d234     <common>
 0003:00003238       __onexitend                0008d238     <common>
 0003:0000323c       __onexitbegin              0008d23c     <common>
 0003:00003240       _exitflag                  0008d240     <common>

 entry point at        0001:00054598

 Static symbols

 0001:000007bc       init                       000117bc f   libeay32:m_md4.obj
 0001:000007d0       update                     000117d0 f   libeay32:m_md4.obj
 0001:000007e4       final                      000117e4 f   libeay32:m_md4.obj
 0001:0000080c       default_malloc_ex          0001180c f   libeay32:mem.obj
 0001:0000082c       default_realloc_ex         0001182c f   libeay32:mem.obj
 0001:0000084c       default_malloc_locked_ex   0001184c f   libeay32:mem.obj
 0001:00000c10       pmeth_cmp_BSEARCH_CMP_FN   00011c10 f   libeay32:pmeth_lib.obj
 0001:000011a8       err_fns_check              000121a8 f   libeay32:err.obj
 0001:00001210       err_string_data_LHASH_HASH 00012210 f   libeay32:err.obj
 0001:0000125c       err_string_data_LHASH_COMP 0001225c f   libeay32:err.obj
 0001:0000126c       int_err_get                0001226c f   libeay32:err.obj
 0001:00001318       int_err_del                00012318 f   libeay32:err.obj
 0001:00001374       int_err_get_item           00012374 f   libeay32:err.obj
 0001:000013f8       int_err_set_item           000123f8 f   libeay32:err.obj
 0001:00001478       int_err_del_item           00012478 f   libeay32:err.obj
 0001:000014fc       err_state_LHASH_HASH       000124fc f   libeay32:err.obj
 0001:00001514       err_state_LHASH_COMP       00012514 f   libeay32:err.obj
 0001:00001524       int_thread_get             00012524 f   libeay32:err.obj
 0001:000015dc       int_thread_release         000125dc f   libeay32:err.obj
 0001:00001638       int_thread_get_item        00012638 f   libeay32:err.obj
 0001:000016dc       int_thread_set_item        000126dc f   libeay32:err.obj
 0001:00001780       int_err_get_next_lib       00012780 f   libeay32:err.obj
 0001:000017d8       ERR_STATE_free             000127d8 f   libeay32:err.obj
 0001:00001b90       int_thread_del_item        00012b90 f   libeay32:err.obj
 0001:00003a9c       pkey_cmac_init             00014a9c f   libeay32:cm_pmeth.obj
 0001:00003acc       pkey_cmac_copy             00014acc f   libeay32:cm_pmeth.obj
 0001:00003b10       pkey_cmac_cleanup          00014b10 f   libeay32:cm_pmeth.obj
 0001:00003b24       pkey_cmac_keygen           00014b24 f   libeay32:cm_pmeth.obj
 0001:00003b84       int_update                 00014b84 f   libeay32:cm_pmeth.obj
 0001:00003bac       cmac_signctx_init          00014bac f   libeay32:cm_pmeth.obj
 0001:00003bd8       cmac_signctx               00014bd8 f   libeay32:cm_pmeth.obj
 0001:00003bec       pkey_cmac_ctrl             00014bec f   libeay32:cm_pmeth.obj
 0001:00003cc0       pkey_cmac_ctrl_str         00014cc0 f   libeay32:cm_pmeth.obj
 0001:00003dd0       pkey_hmac_init             00014dd0 f   libeay32:hm_pmeth.obj
 0001:00003e34       pkey_hmac_copy             00014e34 f   libeay32:hm_pmeth.obj
 0001:00003ebc       pkey_hmac_cleanup          00014ebc f   libeay32:hm_pmeth.obj
 0001:00003f08       pkey_hmac_keygen           00014f08 f   libeay32:hm_pmeth.obj
 0001:00003f5c       int_update                 00014f5c f   libeay32:hm_pmeth.obj
 0001:00003f88       hmac_signctx_init          00014f88 f   libeay32:hm_pmeth.obj
 0001:00003fc8       hmac_signctx               00014fc8 f   libeay32:hm_pmeth.obj
 0001:00004038       pkey_hmac_ctrl             00015038 f   libeay32:hm_pmeth.obj
 0001:000040d0       pkey_hmac_ctrl_str         000150d0 f   libeay32:hm_pmeth.obj
 0001:00004190       pkey_ec_init               00015190 f   libeay32:ec_pmeth.obj
 0001:000041d4       pkey_ec_copy               000151d4 f   libeay32:ec_pmeth.obj
 0001:00004234       pkey_ec_cleanup            00015234 f   libeay32:ec_pmeth.obj
 0001:00004264       pkey_ec_sign               00015264 f   libeay32:ec_pmeth.obj
 0001:00004328       pkey_ec_verify             00015328 f   libeay32:ec_pmeth.obj
 0001:00004388       pkey_ec_derive             00015388 f   libeay32:ec_pmeth.obj
 0001:00004450       pkey_ec_ctrl               00015450 f   libeay32:ec_pmeth.obj
 0001:0000459c       pkey_ec_ctrl_str           0001559c f   libeay32:ec_pmeth.obj
 0001:00004648       pkey_ec_paramgen           00015648 f   libeay32:ec_pmeth.obj
 0001:000046dc       pkey_ec_keygen             000156dc f   libeay32:ec_pmeth.obj
 0001:00004770       pkey_dsa_init              00015770 f   libeay32:dsa_pmeth.obj
 0001:000047d8       pkey_dsa_copy              000157d8 f   libeay32:dsa_pmeth.obj
 0001:0000482c       pkey_dsa_cleanup           0001582c f   libeay32:dsa_pmeth.obj
 0001:00004848       pkey_dsa_sign              00015848 f   libeay32:dsa_pmeth.obj
 0001:000048bc       pkey_dsa_verify            000158bc f   libeay32:dsa_pmeth.obj
 0001:0000491c       pkey_dsa_ctrl              0001591c f   libeay32:dsa_pmeth.obj
 0001:00004b14       pkey_dsa_ctrl_str          00015b14 f   libeay32:dsa_pmeth.obj
 0001:00004c1c       pkey_dsa_paramgen          00015c1c f   libeay32:dsa_pmeth.obj
 0001:00004cc4       pkey_dsa_keygen            00015cc4 f   libeay32:dsa_pmeth.obj
 0001:00004d58       pkey_dh_init               00015d58 f   libeay32:dh_pmeth.obj
 0001:00004db8       pkey_dh_copy               00015db8 f   libeay32:dh_pmeth.obj
 0001:00004e04       pkey_dh_cleanup            00015e04 f   libeay32:dh_pmeth.obj
 0001:00004e20       pkey_dh_ctrl               00015e20 f   libeay32:dh_pmeth.obj
 0001:00004e74       pkey_dh_ctrl_str           00015e74 f   libeay32:dh_pmeth.obj
 0001:00004f30       pkey_dh_paramgen           00015f30 f   libeay32:dh_pmeth.obj
 0001:00004fbc       pkey_dh_keygen             00015fbc f   libeay32:dh_pmeth.obj
 0001:0000504c       pkey_dh_derive             0001604c f   libeay32:dh_pmeth.obj
 0001:000050c8       pkey_rsa_init              000160c8 f   libeay32:rsa_pmeth.obj
 0001:00005140       pkey_rsa_copy              00016140 f   libeay32:rsa_pmeth.obj
 0001:000051b0       setup_tbuf                 000161b0 f   libeay32:rsa_pmeth.obj
 0001:000051fc       pkey_rsa_cleanup           000161fc f   libeay32:rsa_pmeth.obj
 0001:0000523c       pkey_rsa_sign              0001623c f   libeay32:rsa_pmeth.obj
 0001:00005424       pkey_rsa_verifyrecover     00016424 f   libeay32:rsa_pmeth.obj
 0001:000055d8       pkey_rsa_verify            000165d8 f   libeay32:rsa_pmeth.obj
 0001:00005750       pkey_rsa_encrypt           00016750 f   libeay32:rsa_pmeth.obj
 0001:0000579c       pkey_rsa_decrypt           0001679c f   libeay32:rsa_pmeth.obj
 0001:000057e8       check_padding_md           000167e8 f   libeay32:rsa_pmeth.obj
 0001:00005878       pkey_rsa_ctrl              00016878 f   libeay32:rsa_pmeth.obj
 0001:00005bb8       pkey_rsa_ctrl_str          00016bb8 f   libeay32:rsa_pmeth.obj
 0001:00005e30       pkey_rsa_keygen            00016e30 f   libeay32:rsa_pmeth.obj
 0001:00005ef8       sn_cmp_BSEARCH_CMP_FN      00016ef8 f   libeay32:obj_dat.obj
 0001:00005f24       ln_cmp_BSEARCH_CMP_FN      00016f24 f   libeay32:obj_dat.obj
 0001:00006200       obj_cmp_BSEARCH_CMP_FN     00017200 f   libeay32:obj_dat.obj
 0001:00006ce4       internal_find              00017ce4 f   libeay32:stack.obj
 0001:0000708c       pkey_set_type              0001808c f   libeay32:p_lib.obj
 0001:00007550       int_cb_LHASH_DOALL_ARG     00018550 f   libeay32:eng_table.obj
 0001:000077b8       app_info_LHASH_COMP        000187b8 f   libeay32:mem_dbg.obj
 0001:000077c8       app_info_LHASH_HASH        000187c8 f   libeay32:mem_dbg.obj
 0001:00007800       pop_info                   00018800 f   libeay32:mem_dbg.obj
 0001:00007ac8       expand                     00018ac8 f   libeay32:lhash.obj
 0001:00007c00       contract                   00018c00 f   libeay32:lhash.obj
 0001:00007cf8       getrn                      00018cf8 f   libeay32:lhash.obj
 0001:00008258       roundv                     00019258 f   libeay32:b_print.obj
 0001:000082e8       doapr_outch                000192e8 f   libeay32:b_print.obj
 0001:000083dc       fmtstr                     000193dc f   libeay32:b_print.obj
 0001:0000850c       fmtint                     0001950c f   libeay32:b_print.obj
 0001:0000884c       fmtfp                      0001984c f   libeay32:b_print.obj
 0001:00008d3c       _dopr                      00019d3c f   libeay32:b_print.obj
 0001:00009ed0       rsa_get_public_exp         0001aed0 f   libeay32:rsa_crpt.obj
 0001:0000aea8       strip_spaces               0001bea8 f   libeay32:v3_utl.obj
 0001:0000b220       ipv4_from_asc              0001c220 f   libeay32:v3_utl.obj
 0001:0000b5c0       ipv6_cb                    0001c5c0 f   libeay32:v3_utl.obj
 0001:0000b6d0       ipv6_from_asc              0001c6d0 f   libeay32:v3_utl.obj
 0001:0000d940       ecdsa_data_new             0001e940 f   libeay32:ecs_lib.obj
 0001:0000da34       ecdsa_data_dup             0001ea34 f   libeay32:ecs_lib.obj
 0001:0000da54       ecdsa_data_free            0001ea54 f   libeay32:ecs_lib.obj
 0001:0000e118       ec_group_new_from_data     0001f118 f   libeay32:ec_curve.obj
 0001:0000e5f4       sig_cb                     0001f5f4 f   libeay32:dsa_asn1.obj
 0001:0000e688       dsa_cb                     0001f688 f   libeay32:dsa_asn1.obj
 0001:0000f2e4       trans_cb                   000202e4 f   libeay32:pmeth_gn.obj
 0001:0000f334       dsa_builtin_keygen         00020334 f   libeay32:dsa_key.obj
 0001:0000f790       dh_builtin_genparams       00020790 f   libeay32:dh_gen.obj
 0001:0000f9e8       generate_key               000209e8 f   libeay32:dh_key.obj
 0001:0000fc00       compute_key                00020c00 f   libeay32:dh_key.obj
 0001:0000fdb8       dh_bn_mod_exp              00020db8 f   libeay32:dh_key.obj
 0001:0000fe40       dh_init                    00020e40 f   libeay32:dh_key.obj
 0001:0000fe58       dh_finish                  00020e58 f   libeay32:dh_key.obj
 0001:0001003c       bn_expand_internal         0002103c f   libeay32:bn_lib.obj
 0001:00011410       init                       00022410 f   libeay32:m_sha1.obj
 0001:00011424       update                     00022424 f   libeay32:m_sha1.obj
 0001:00011438       final                      00022438 f   libeay32:m_sha1.obj
 0001:00011460       init224                    00022460 f   libeay32:m_sha1.obj
 0001:00011474       init256                    00022474 f   libeay32:m_sha1.obj
 0001:00011488       update256                  00022488 f   libeay32:m_sha1.obj
 0001:0001149c       final256                   0002249c f   libeay32:m_sha1.obj
 0001:000114b8       init384                    000224b8 f   libeay32:m_sha1.obj
 0001:000114cc       init512                    000224cc f   libeay32:m_sha1.obj
 0001:000114e0       update512                  000224e0 f   libeay32:m_sha1.obj
 0001:000114f4       final512                   000224f4 f   libeay32:m_sha1.obj
 0001:0001171c       cms_RecipientInfo_ktri_encrypt 0002271c f   libeay32:cms_env.obj
 0001:000118a8       cms_RecipientInfo_kekri_encrypt 000228a8 f   libeay32:cms_env.obj
 0001:0001241c       rsa_builtin_keygen         0002341c f   libeay32:rsa_gen.obj
 0001:00013dcc       asn1_get_length            00024dcc f   libeay32:asn1_lib.obj
 0001:0001440c       ameth_cmp_BSEARCH_CMP_FN   0002540c f   libeay32:ameth_lib.obj
 0001:000147bc       obj_name_LHASH_HASH        000257bc f   libeay32:o_names.obj
 0001:0001481c       obj_name_LHASH_COMP        0002581c f   libeay32:o_names.obj
 0001:000149a4       sig_cmp_BSEARCH_CMP_FN     000259a4 f   libeay32:obj_xref.obj
 0001:000149b4       sigx_cmp_BSEARCH_CMP_FN    000259b4 f   libeay32:obj_xref.obj
 0001:00014b24       pbe2_cmp_BSEARCH_CMP_FN    00025b24 f   libeay32:evp_pbe.obj
 0001:00014dc8       file_new                   00025dc8 f   libeay32:bss_file.obj
 0001:00014de4       file_free                  00025de4 f   libeay32:bss_file.obj
 0001:00014e40       file_read                  00025e40 f   libeay32:bss_file.obj
 0001:00014ee0       file_write                 00025ee0 f   libeay32:bss_file.obj
 0001:00014f2c       file_ctrl                  00025f2c f   libeay32:bss_file.obj
 0001:000151c0       file_gets                  000261c0 f   libeay32:bss_file.obj
 0001:00015214       file_puts                  00026214 f   libeay32:bss_file.obj
 0001:00015490       impl_check                 00026490 f   libeay32:ex_data.obj
 0001:000154e4       ex_class_item_LHASH_HASH   000264e4 f   libeay32:ex_data.obj
 0001:000154ec       ex_class_item_LHASH_COMP   000264ec f   libeay32:ex_data.obj
 0001:000154fc       ex_data_check              000264fc f   libeay32:ex_data.obj
 0001:00015578       def_cleanup_util_cb        00026578 f   libeay32:ex_data.obj
 0001:00015588       def_cleanup_cb             00026588 f   libeay32:ex_data.obj
 0001:000155b0       def_get_class              000265b0 f   libeay32:ex_data.obj
 0001:000156ac       def_add_index              000266ac f   libeay32:ex_data.obj
 0001:000157e0       int_new_class              000267e0 f   libeay32:ex_data.obj
 0001:00015838       int_cleanup                00026838 f   libeay32:ex_data.obj
 0001:0001588c       int_get_new_index          0002688c f   libeay32:ex_data.obj
 0001:00015a8c       int_new_ex_data            00026a8c f   libeay32:ex_data.obj
 0001:00015c08       int_dup_ex_data            00026c08 f   libeay32:ex_data.obj
 0001:00015db0       int_free_ex_data           00026db0 f   libeay32:ex_data.obj
 0001:00015fd0       look_str_cb                00026fd0 f   libeay32:tb_asnmth.obj
 0001:0001735c       BN_POOL_get                0002835c f   libeay32:bn_ctx.obj
 0001:00017748       euclid                     00028748 f   libeay32:bn_gcd.obj
 0001:00017874       BN_mod_inverse_no_branch   00028874 f   libeay32:bn_gcd.obj
 0001:00018ce0       asn1_check_tlen            00029ce0 f   libeay32:tasn_dec.obj
 0001:00018ee0       asn1_template_ex_d2i       00029ee0 f   libeay32:tasn_dec.obj
 0001:000190fc       asn1_find_end              0002a0fc f   libeay32:tasn_dec.obj
 0001:00019250       asn1_collect               0002a250 f   libeay32:tasn_dec.obj
 0001:000194ac       asn1_d2i_ex_primitive      0002a4ac f   libeay32:tasn_dec.obj
 0001:0001a274       asn1_template_noexp_d2i    0002b274 f   libeay32:tasn_dec.obj
 0001:0001a690       asn1_template_ex_i2d       0002b690 f   libeay32:tasn_enc.obj
 0001:0001a9b0       der_cmp                    0002b9b0 f   libeay32:tasn_enc.obj
 0001:0001abd0       asn1_i2d_ex_primitive      0002bbd0 f   libeay32:tasn_enc.obj
 0001:0001b0a8       asn1_set_seq_out           0002c0a8 f   libeay32:tasn_enc.obj
 0001:0001b2f0       asn1_item_flags_i2d        0002c2f0 f   libeay32:tasn_enc.obj
 0001:0001b4e4       asn1_item_ex_combine_new   0002c4e4 f   libeay32:tasn_new.obj
 0001:0001b7c4       asn1_item_clear            0002c7c4 f   libeay32:tasn_new.obj
 0001:0001bb14       asn1_item_combine_free     0002cb14 f   libeay32:tasn_fre.obj
 0001:0001d448       i2v_AUTHORITY_INFO_ACCESS  0002e448 f   libeay32:v3_info.obj
 0001:0001d584       v2i_AUTHORITY_INFO_ACCESS  0002e584 f   libeay32:v3_info.obj
 0001:0001dae4       ext_cmp_BSEARCH_CMP_FN     0002eae4 f   libeay32:v3_lib.obj
 0001:0001dd18       ec_pre_comp_dup            0002ed18 f   libeay32:ec_mult.obj
 0001:0001dd54       ec_pre_comp_free           0002ed54 f   libeay32:ec_mult.obj
 0001:0001ddd0       ec_pre_comp_clear_free     0002edd0 f   libeay32:ec_mult.obj
 0001:0001de64       compute_wNAF               0002ee64 f   libeay32:ec_mult.obj
 0001:0001f284       ecdsa_sign_setup           00030284 f   libeay32:ecs_ossl.obj
 0001:0001f66c       ecdsa_do_sign              0003066c f   libeay32:ecs_ossl.obj
 0001:0001fa54       ecdsa_do_verify            00030a54 f   libeay32:ecs_ossl.obj
 0001:0001ff60       ecdh_data_new              00030f60 f   libeay32:ech_lib.obj
 0001:00020054       ecdh_data_dup              00031054 f   libeay32:ech_lib.obj
 0001:00020074       ecdh_data_free             00031074 f   libeay32:ech_lib.obj
 0001:00020134       bnrand                     00031134 f   libeay32:bn_rand.obj
 0001:0002039c       bn_rand_range              0003139c f   libeay32:bn_rand.obj
 0001:00020704       bn_new                     00031704 f   libeay32:x_bignum.obj
 0001:0002072c       bn_free                    0003172c f   libeay32:x_bignum.obj
 0001:00020768       bn_i2c                     00031768 f   libeay32:x_bignum.obj
 0001:000207d8       bn_c2i                     000317d8 f   libeay32:x_bignum.obj
 0001:00020850       long_new                   00031850 f   libeay32:x_long.obj
 0001:00020864       long_free                  00031864 f   libeay32:x_long.obj
 0001:00020870       long_i2c                   00031870 f   libeay32:x_long.obj
 0001:00020928       long_c2i                   00031928 f   libeay32:x_long.obj
 0001:00020a1c       long_print                 00031a1c f   libeay32:x_long.obj
 0001:00020ba0       dsa_do_sign                00031ba0 f   libeay32:dsa_ossl.obj
 0001:00020df0       dsa_sign_setup             00031df0 f   libeay32:dsa_ossl.obj
 0001:0002108c       dsa_do_verify              0003208c f   libeay32:dsa_ossl.obj
 0001:000213a4       dsa_init                   000323a4 f   libeay32:dsa_ossl.obj
 0001:000213bc       dsa_finish                 000323bc f   libeay32:dsa_ossl.obj
 0001:00021770       MOD_EXP_CTIME_COPY_FROM_PREBUF 00032770 f   libeay32:bn_exp.obj
 0001:000226f0       BN_from_montgomery_word    000336f0 f   libeay32:bn_mont.obj
 0001:00023490       witness                    00034490 f   libeay32:bn_prime.obj
 0001:0002359c       probable_prime_dh          0003459c f   libeay32:bn_prime.obj
 0001:000236c0       probable_prime_dh_safe     000346c0 f   libeay32:bn_prime.obj
 0001:00024684       sha1_block_data_order      00035684 f   libeay32:sha1dgst.obj
 0001:00024d58       sha256_block_data_order    00035d58 f   libeay32:sha256.obj
 0001:000254e8       sha512_block_data_order    000364e8 f   libeay32:sha512.obj
 0001:00026078       cms_si_cb                  00037078 f   libeay32:cms_asn1.obj
 0001:0002618c       cms_ri_cb                  0003718c f   libeay32:cms_asn1.obj
 0001:0002625c       CMS_ContentInfo_adb        0003725c f   libeay32:cms_asn1.obj
 0001:00026268       cms_cb                     00037268 f   libeay32:cms_asn1.obj
 0001:00026c4c       cms_get0_signed            00037c4c f   libeay32:cms_sd.obj
 0001:00026ca0       cms_sd_set_version         00037ca0 f   libeay32:cms_sd.obj
 0001:0002715c       cms_SignerInfo_content_sign 0003815c f   libeay32:cms_sd.obj
 0001:00027448       nid_cmp_BSEARCH_CMP_FN     00038448 f   libeay32:v3_purp.obj
 0001:000274b4       setup_crldp                000384b4 f   libeay32:v3_purp.obj
 0001:000275e8       x509v3_cache_extensions    000385e8 f   libeay32:v3_purp.obj
 0001:00027acc       check_ca                   00038acc f   libeay32:v3_purp.obj
 0001:00027b34       check_purpose_ssl_client   00038b34 f   libeay32:v3_purp.obj
 0001:00027bc4       check_purpose_ssl_server   00038bc4 f   libeay32:v3_purp.obj
 0001:00027c54       check_purpose_ns_ssl_server 00038c54 f   libeay32:v3_purp.obj
 0001:00027c94       purpose_smime              00038c94 f   libeay32:v3_purp.obj
 0001:00027d20       check_purpose_smime_sign   00038d20 f   libeay32:v3_purp.obj
 0001:00027d68       check_purpose_smime_encrypt 00038d68 f   libeay32:v3_purp.obj
 0001:00027db0       check_purpose_crl_sign     00038db0 f   libeay32:v3_purp.obj
 0001:00027e04       ocsp_helper                00038e04 f   libeay32:v3_purp.obj
 0001:00027e2c       check_purpose_timestamp_sign 00038e2c f   libeay32:v3_purp.obj
 0001:00027ec8       no_check                   00038ec8 f   libeay32:v3_purp.obj
 0001:00028510       kek_unwrap_key             00039510 f   libeay32:cms_pwri.obj
 0001:00028694       kek_wrap_key               00039694 f   libeay32:cms_pwri.obj
 0001:00028b0c       RSA_eay_public_encrypt     00039b0c f   libeay32:rsa_eay.obj
 0001:00028e5c       rsa_get_blinding           00039e5c f   libeay32:rsa_eay.obj
 0001:00028fcc       rsa_blinding_convert       00039fcc f   libeay32:rsa_eay.obj
 0001:00029054       RSA_eay_private_encrypt    0003a054 f   libeay32:rsa_eay.obj
 0001:000294c0       RSA_eay_private_decrypt    0003a4c0 f   libeay32:rsa_eay.obj
 0001:00029930       RSA_eay_public_decrypt     0003a930 f   libeay32:rsa_eay.obj
 0001:00029ca8       RSA_eay_mod_exp            0003aca8 f   libeay32:rsa_eay.obj
 0001:0002a2c4       RSA_eay_init               0003b2c4 f   libeay32:rsa_eay.obj
 0001:0002a2dc       RSA_eay_finish             0003b2dc f   libeay32:rsa_eay.obj
 0001:0002a4f8       cmac_size                  0003b4f8 f   libeay32:cm_ameth.obj
 0001:0002a500       cmac_key_free              0003b500 f   libeay32:cm_ameth.obj
 0001:0002a51c       hmac_size                  0003b51c f   libeay32:hm_ameth.obj
 0001:0002a524       hmac_key_free              0003b524 f   libeay32:hm_ameth.obj
 0001:0002a558       hmac_pkey_ctrl             0003b558 f   libeay32:hm_ameth.obj
 0001:0002a570       old_hmac_decode            0003b570 f   libeay32:hm_ameth.obj
 0001:0002a5d0       old_hmac_encode            0003b5d0 f   libeay32:hm_ameth.obj
 0001:0002a640       eckey_param2type           0003b640 f   libeay32:ec_ameth.obj
 0001:0002a728       eckey_pub_encode           0003b728 f   libeay32:ec_ameth.obj
 0001:0002a82c       eckey_type2param           0003b82c f   libeay32:ec_ameth.obj
 0001:0002a938       eckey_pub_decode           0003b938 f   libeay32:ec_ameth.obj
 0001:0002aa34       eckey_pub_cmp              0003ba34 f   libeay32:ec_ameth.obj
 0001:0002aa9c       eckey_priv_decode          0003ba9c f   libeay32:ec_ameth.obj
 0001:0002acc4       eckey_priv_encode          0003bcc4 f   libeay32:ec_ameth.obj
 0001:0002ae5c       int_ec_size                0003be5c f   libeay32:ec_ameth.obj
 0001:0002ae70       ec_bits                    0003be70 f   libeay32:ec_ameth.obj
 0001:0002aecc       ec_missing_parameters      0003becc f   libeay32:ec_ameth.obj
 0001:0002aef0       ec_copy_parameters         0003bef0 f   libeay32:ec_ameth.obj
 0001:0002af40       ec_cmp_parameters          0003bf40 f   libeay32:ec_ameth.obj
 0001:0002af84       int_ec_free                0003bf84 f   libeay32:ec_ameth.obj
 0001:0002af98       do_EC_KEY_print            0003bf98 f   libeay32:ec_ameth.obj
 0001:0002b22c       eckey_param_decode         0003c22c f   libeay32:ec_ameth.obj
 0001:0002b290       eckey_param_encode         0003c290 f   libeay32:ec_ameth.obj
 0001:0002b2a4       eckey_param_print          0003c2a4 f   libeay32:ec_ameth.obj
 0001:0002b2bc       eckey_pub_print            0003c2bc f   libeay32:ec_ameth.obj
 0001:0002b2d4       eckey_priv_print           0003c2d4 f   libeay32:ec_ameth.obj
 0001:0002b2ec       old_ec_priv_decode         0003c2ec f   libeay32:ec_ameth.obj
 0001:0002b354       old_ec_priv_encode         0003c354 f   libeay32:ec_ameth.obj
 0001:0002b368       ec_pkey_ctrl               0003c368 f   libeay32:ec_ameth.obj
 0001:0002b4bc       dsa_pub_decode             0003c4bc f   libeay32:dsa_ameth.obj
 0001:0002b668       dsa_pub_encode             0003c668 f   libeay32:dsa_ameth.obj
 0001:0002b7a4       dsa_priv_decode            0003c7a4 f   libeay32:dsa_ameth.obj
 0001:0002ba90       dsa_priv_encode            0003ca90 f   libeay32:dsa_ameth.obj
 0001:0002bbe8       int_dsa_size               0003cbe8 f   libeay32:dsa_ameth.obj
 0001:0002bbfc       dsa_bits                   0003cbfc f   libeay32:dsa_ameth.obj
 0001:0002bc14       dsa_missing_parameters     0003cc14 f   libeay32:dsa_ameth.obj
 0001:0002bc44       dsa_copy_parameters        0003cc44 f   libeay32:dsa_ameth.obj
 0001:0002bcf8       dsa_cmp_parameters         0003ccf8 f   libeay32:dsa_ameth.obj
 0001:0002bd6c       dsa_pub_cmp                0003cd6c f   libeay32:dsa_ameth.obj
 0001:0002bd9c       int_dsa_free               0003cd9c f   libeay32:dsa_ameth.obj
 0001:0002bdb0       do_dsa_print               0003cdb0 f   libeay32:dsa_ameth.obj
 0001:0002c038       dsa_param_decode           0003d038 f   libeay32:dsa_ameth.obj
 0001:0002c09c       dsa_param_encode           0003d09c f   libeay32:dsa_ameth.obj
 0001:0002c0b0       dsa_param_print            0003d0b0 f   libeay32:dsa_ameth.obj
 0001:0002c0c8       dsa_pub_print              0003d0c8 f   libeay32:dsa_ameth.obj
 0001:0002c0e0       dsa_priv_print             0003d0e0 f   libeay32:dsa_ameth.obj
 0001:0002c0f8       old_dsa_priv_decode        0003d0f8 f   libeay32:dsa_ameth.obj
 0001:0002c160       old_dsa_priv_encode        0003d160 f   libeay32:dsa_ameth.obj
 0001:0002c174       dsa_sig_print              0003d174 f   libeay32:dsa_ameth.obj
 0001:0002c304       dsa_pkey_ctrl              0003d304 f   libeay32:dsa_ameth.obj
 0001:0002c458       int_dh_free                0003d458 f   libeay32:dh_ameth.obj
 0001:0002c46c       dh_pub_decode              0003d46c f   libeay32:dh_ameth.obj
 0001:0002c5dc       dh_pub_encode              0003d5dc f   libeay32:dh_ameth.obj
 0001:0002c6f0       dh_priv_decode             0003d6f0 f   libeay32:dh_ameth.obj
 0001:0002c824       dh_priv_encode             0003d824 f   libeay32:dh_ameth.obj
 0001:0002c970       dh_param_decode            0003d970 f   libeay32:dh_ameth.obj
 0001:0002c9d4       dh_param_encode            0003d9d4 f   libeay32:dh_ameth.obj
 0001:0002c9e8       do_dh_print                0003d9e8 f   libeay32:dh_ameth.obj
 0001:0002cc74       int_dh_size                0003dc74 f   libeay32:dh_ameth.obj
 0001:0002cc88       dh_bits                    0003dc88 f   libeay32:dh_ameth.obj
 0001:0002cca0       dh_cmp_parameters          0003dca0 f   libeay32:dh_ameth.obj
 0001:0002ccf8       dh_copy_parameters         0003dcf8 f   libeay32:dh_ameth.obj
 0001:0002cd7c       dh_missing_parameters      0003dd7c f   libeay32:dh_ameth.obj
 0001:0002cd9c       dh_pub_cmp                 0003dd9c f   libeay32:dh_ameth.obj
 0001:0002cde8       dh_param_print             0003dde8 f   libeay32:dh_ameth.obj
 0001:0002ce0c       dh_public_print            0003de0c f   libeay32:dh_ameth.obj
 0001:0002ce30       dh_private_print           0003de30 f   libeay32:dh_ameth.obj
 0001:0002ce54       rsa_pub_encode             0003de54 f   libeay32:rsa_ameth.obj
 0001:0002cecc       rsa_pub_decode             0003decc f   libeay32:rsa_ameth.obj
 0001:0002cf5c       rsa_pub_cmp                0003df5c f   libeay32:rsa_ameth.obj
 0001:0002cfb4       old_rsa_priv_decode        0003dfb4 f   libeay32:rsa_ameth.obj
 0001:0002d018       old_rsa_priv_encode        0003e018 f   libeay32:rsa_ameth.obj
 0001:0002d02c       rsa_priv_encode            0003e02c f   libeay32:rsa_ameth.obj
 0001:0002d0ec       rsa_priv_decode            0003e0ec f   libeay32:rsa_ameth.obj
 0001:0002d138       int_rsa_size               0003e138 f   libeay32:rsa_ameth.obj
 0001:0002d14c       rsa_bits                   0003e14c f   libeay32:rsa_ameth.obj
 0001:0002d164       int_rsa_free               0003e164 f   libeay32:rsa_ameth.obj
 0001:0002d178       do_rsa_print               0003e178 f   libeay32:rsa_ameth.obj
 0001:0002d514       rsa_pub_print              0003e514 f   libeay32:rsa_ameth.obj
 0001:0002d52c       rsa_priv_print             0003e52c f   libeay32:rsa_ameth.obj
 0001:0002d544       rsa_pss_decode             0003e544 f   libeay32:rsa_ameth.obj
 0001:0002d60c       rsa_pss_param_print        0003e60c f   libeay32:rsa_ameth.obj
 0001:0002d860       rsa_sig_print              0003e860 f   libeay32:rsa_ameth.obj
 0001:0002d928       rsa_pkey_ctrl              0003e928 f   libeay32:rsa_ameth.obj
 0001:0002da18       rsa_item_verify            0003ea18 f   libeay32:rsa_ameth.obj
 0001:0002dce8       rsa_item_sign              0003ece8 f   libeay32:rsa_ameth.obj
 0001:0002ea8c       ssleay_rand_cleanup        0003fa8c f   libeay32:md_rand.obj
 0001:0002eaf4       ssleay_rand_add            0003faf4 f   libeay32:md_rand.obj
 0001:0002ee8c       ssleay_rand_seed           0003fe8c f   libeay32:md_rand.obj
 0001:0002eecc       ssleay_rand_bytes          0003fecc f   libeay32:md_rand.obj
 0001:0002f308       ssleay_rand_nopseudo_bytes 00040308 f   libeay32:md_rand.obj
 0001:0002f31c       ssleay_rand_pseudo_bytes   0004031c f   libeay32:md_rand.obj
 0001:0002f330       ssleay_rand_status         00040330 f   libeay32:md_rand.obj
 0001:0003042c       x509_name_ex_new           0004142c f   libeay32:x_name.obj
 0001:000304e0       x509_name_ex_free          000414e0 f   libeay32:x_name.obj
 0001:00030538       local_sk_X509_NAME_ENTRY_free 00041538 f   libeay32:x_name.obj
 0001:00030548       local_sk_X509_NAME_ENTRY_pop_free 00041548 f   libeay32:x_name.obj
 0001:00030560       x509_name_encode           00041560 f   libeay32:x_name.obj
 0001:000306c8       x509_name_ex_print         000416c8 f   libeay32:x_name.obj
 0001:000306f4       asn1_string_canon          000416f4 f   libeay32:x_name.obj
 0001:00030860       i2d_name_canon             00041860 f   libeay32:x_name.obj
 0001:000308ec       x509_name_canon            000418ec f   libeay32:x_name.obj
 0001:00030a70       x509_name_ex_d2i           00041a70 f   libeay32:x_name.obj
 0001:00030c2c       x509_name_ex_i2d           00041c2c f   libeay32:x_name.obj
 0001:00030da0       table_cmp_BSEARCH_CMP_FN   00041da0 f   libeay32:a_strnid.obj
 0001:00031264       copy_issuer                00042264 f   libeay32:v3_alt.obj
 0001:00031394       copy_email                 00042394 f   libeay32:v3_alt.obj
 0001:00031528       do_othername               00042528 f   libeay32:v3_alt.obj
 0001:00031604       do_dirname                 00042604 f   libeay32:v3_alt.obj
 0001:00031b60       v2i_issuer_alt             00042b60 f   libeay32:v3_alt.obj
 0001:00031c84       v2i_subject_alt            00042c84 f   libeay32:v3_alt.obj
 0001:00032340       init                       00043340 f   libeay32:m_md5.obj
 0001:00032354       update                     00043354 f   libeay32:m_md5.obj
 0001:00032368       final                      00043368 f   libeay32:m_md5.obj
 0001:00032734       pubkey_cb                  00043734 f   libeay32:x_pubkey.obj
 0001:000329e0       gnames_from_sectname       000439e0 f   libeay32:v3_crld.obj
 0001:00032a94       set_reasons                00043a94 f   libeay32:v3_crld.obj
 0001:00032b9c       print_reasons              00043b9c f   libeay32:v3_crld.obj
 0001:00032c74       dpn_cb                     00043c74 f   libeay32:v3_crld.obj
 0001:00032d30       print_gens                 00043d30 f   libeay32:v3_crld.obj
 0001:00032db8       print_distpoint            00043db8 f   libeay32:v3_crld.obj
 0001:00032e60       i2r_idp                    00043e60 f   libeay32:v3_crld.obj
 0001:00032f90       i2r_crldp                  00043f90 f   libeay32:v3_crld.obj
 0001:00033124       set_dist_point_name        00044124 f   libeay32:v3_crld.obj
 0001:00033310       crldp_from_section         00044310 f   libeay32:v3_crld.obj
 0001:000333fc       v2i_crld                   000443fc f   libeay32:v3_crld.obj
 0001:000335bc       v2i_idp                    000445bc f   libeay32:v3_crld.obj
 0001:00033788       s2i_asn1_int               00044788 f   libeay32:v3_int.obj
 0001:000337cc       i2v_POLICY_MAPPINGS        000447cc f   libeay32:v3_pmaps.obj
 0001:00033858       v2i_POLICY_MAPPINGS        00044858 f   libeay32:v3_pmaps.obj
 0001:00033a68       v2i_NAME_CONSTRAINTS       00044a68 f   libeay32:v3_ncons.obj
 0001:00033c1c       do_i2r_name_constraints    00044c1c f   libeay32:v3_ncons.obj
 0001:00033dcc       i2r_NAME_CONSTRAINTS       00044dcc f   libeay32:v3_ncons.obj
 0001:00033e28       i2r_pci                    00044e28 f   libeay32:v3_pci.obj
 0001:00033f08       process_pci_value          00044f08 f   libeay32:v3_pci.obj
 0001:00034638       r2i_pci                    00045638 f   libeay32:v3_pci.obj
 0001:00034980       i2r_ocsp_crlid             00045980 f   libeay32:v3_ocsp.obj
 0001:00034ab8       i2r_ocsp_acutoff           00045ab8 f   libeay32:v3_ocsp.obj
 0001:00034b18       i2r_object                 00045b18 f   libeay32:v3_ocsp.obj
 0001:00034b78       ocsp_nonce_new             00045b78 f   libeay32:v3_ocsp.obj
 0001:00034b88       i2d_ocsp_nonce             00045b88 f   libeay32:v3_ocsp.obj
 0001:00034bc4       d2i_ocsp_nonce             00045bc4 f   libeay32:v3_ocsp.obj
 0001:00034c78       ocsp_nonce_free            00045c78 f   libeay32:v3_ocsp.obj
 0001:00034c88       i2r_ocsp_nonce             00045c88 f   libeay32:v3_ocsp.obj
 0001:00034cec       i2r_ocsp_nocheck           00045cec f   libeay32:v3_ocsp.obj
 0001:00034cf4       s2i_ocsp_nocheck           00045cf4 f   libeay32:v3_ocsp.obj
 0001:00034d04       i2r_ocsp_serviceloc        00045d04 f   libeay32:v3_ocsp.obj
 0001:00034e14       i2v_POLICY_CONSTRAINTS     00045e14 f   libeay32:v3_pcons.obj
 0001:00034e58       v2i_POLICY_CONSTRAINTS     00045e58 f   libeay32:v3_pcons.obj
 0001:00034fd4       i2v_EXTENDED_KEY_USAGE     00045fd4 f   libeay32:v3_extku.obj
 0001:0003504c       v2i_EXTENDED_KEY_USAGE     0004604c f   libeay32:v3_extku.obj
 0001:00035180       sxnet_i2r                  00046180 f   libeay32:v3_sxnet.obj
 0001:000354d4       sxnet_v2i                  000464d4 f   libeay32:v3_sxnet.obj
 0001:000355b0       i2v_AUTHORITY_KEYID        000465b0 f   libeay32:v3_akey.obj
 0001:00035668       v2i_AUTHORITY_KEYID        00046668 f   libeay32:v3_akey.obj
 0001:00035978       POLICYQUALINFO_adb         00046978 f   libeay32:v3_cpols.obj
 0001:000359c0       nref_nos                   000469c0 f   libeay32:v3_cpols.obj
 0001:00035a9c       notice_section             00046a9c f   libeay32:v3_cpols.obj
 0001:00035d80       print_qualifiers           00046d80 f   libeay32:v3_cpols.obj
 0001:00035f70       policy_section             00046f70 f   libeay32:v3_cpols.obj
 0001:000362dc       i2r_certpol                000472dc f   libeay32:v3_cpols.obj
 0001:00036380       r2i_certpol                00047380 f   libeay32:v3_cpols.obj
 0001:0003666c       i2v_BASIC_CONSTRAINTS      0004766c f   libeay32:v3_bcons.obj
 0001:000366b0       v2i_BASIC_CONSTRAINTS      000476b0 f   libeay32:v3_bcons.obj
 0001:00036804       i2r_PKEY_USAGE_PERIOD      00047804 f   libeay32:v3_pku.obj
 0001:00036b38       s2i_skey_id                00047b38 f   libeay32:v3_skey.obj
 0001:00036cbc       i2s_ASN1_IA5STRING         00047cbc f   libeay32:v3_ia5.obj
 0001:00036d44       s2i_ASN1_IA5STRING         00047d44 f   libeay32:v3_ia5.obj
 0001:00036e78       nconf_get_string           00047e78 f   libeay32:v3_conf.obj
 0001:00036e88       nconf_get_section          00047e88 f   libeay32:v3_conf.obj
 0001:00036e98       conf_lhash_get_string      00047e98 f   libeay32:v3_conf.obj
 0001:00036ea8       conf_lhash_get_section     00047ea8 f   libeay32:v3_conf.obj
 0001:00036eb8       rinf_cb                    00047eb8 f   libeay32:x_req.obj
 0001:00037460       ecdh_compute_key           00048460 f   libeay32:ech_ossl.obj
 0001:00039e58       crl_set_issuers            0004ae58 f   libeay32:x_crl.obj
 0001:00039fe4       setup_idp                  0004afe4 f   libeay32:x_crl.obj
 0001:0003a0e8       X509_REVOKED_cmp           0004b0e8 f   libeay32:x_crl.obj
 0001:0003a108       def_crl_verify             0004b108 f   libeay32:x_crl.obj
 0001:0003a13c       def_crl_lookup             0004b13c f   libeay32:x_crl.obj
 0001:0003a2c8       crl_inf_cb                 0004b2c8 f   libeay32:x_crl.obj
 0001:0003a304       crl_cb                     0004b304 f   libeay32:x_crl.obj
 0001:0003a568       x509_cb                    0004b568 f   libeay32:x_x509.obj
 0001:0003a724       md_new                     0004b724 f   libeay32:bio_md.obj
 0001:0003a758       md_free                    0004b758 f   libeay32:bio_md.obj
 0001:0003a790       md_read                    0004b790 f   libeay32:bio_md.obj
 0001:0003a820       md_write                   0004b820 f   libeay32:bio_md.obj
 0001:0003a8d0       md_ctrl                    0004b8d0 f   libeay32:bio_md.obj
 0001:0003aa1c       md_callback_ctrl           0004ba1c f   libeay32:bio_md.obj
 0001:0003aa44       md_gets                    0004ba44 f   libeay32:bio_md.obj
 0001:0003ab20       mem_new                    0004bb20 f   libeay32:bss_mem.obj
 0001:0003ab5c       mem_free                   0004bb5c f   libeay32:bss_mem.obj
 0001:0003abb8       mem_read                   0004bbb8 f   libeay32:bss_mem.obj
 0001:0003ac6c       mem_write                  0004bc6c f   libeay32:bss_mem.obj
 0001:0003ad24       mem_ctrl                   0004bd24 f   libeay32:bss_mem.obj
 0001:0003ae64       mem_gets                   0004be64 f   libeay32:bss_mem.obj
 0001:0003aef0       mem_puts                   0004bef0 f   libeay32:bss_mem.obj
 0001:0003af28       null_new                   0004bf28 f   libeay32:bss_null.obj
 0001:0003af44       null_free                  0004bf44 f   libeay32:bss_null.obj
 0001:0003af54       null_read                  0004bf54 f   libeay32:bss_null.obj
 0001:0003af5c       null_write                 0004bf5c f   libeay32:bss_null.obj
 0001:0003af64       null_ctrl                  0004bf64 f   libeay32:bss_null.obj
 0001:0003afa4       null_gets                  0004bfa4 f   libeay32:bss_null.obj
 0001:0003afac       null_puts                  0004bfac f   libeay32:bss_null.obj
 0001:0003b0f4       enc_new                    0004c0f4 f   libeay32:bio_enc.obj
 0001:0003b160       enc_free                   0004c160 f   libeay32:bio_enc.obj
 0001:0003b1b4       enc_read                   0004c1b4 f   libeay32:bio_enc.obj
 0001:0003b354       enc_write                  0004c354 f   libeay32:bio_enc.obj
 0001:0003b49c       enc_ctrl                   0004c49c f   libeay32:bio_enc.obj
 0001:0003b698       enc_callback_ctrl          0004c698 f   libeay32:bio_enc.obj
 0001:0003b900       do_sigver_init             0004c900 f   libeay32:m_sigver.obj
 0001:0003d6ac       X9_62_CHARACTERISTIC_TWO_adb 0004e6ac f   libeay32:ec_asn1.obj
 0001:0003d6c4       X9_62_FIELDID_adb          0004e6c4 f   libeay32:ec_asn1.obj
 0001:0003d700       ec_asn1_group2fieldid      0004e700 f   libeay32:ec_asn1.obj
 0001:0003da74       ec_asn1_group2curve        0004ea74 f   libeay32:ec_asn1.obj
 0001:0003de5c       ec_asn1_group2parameters   0004ee5c f   libeay32:ec_asn1.obj
 0001:0003e1f0       ec_asn1_group2pkparameters 0004f1f0 f   libeay32:ec_asn1.obj
 0001:0003e2f0       ec_asn1_parameters2group   0004f2f0 f   libeay32:ec_asn1.obj
 0001:0003eaec       ec_asn1_pkparameters2group 0004faec f   libeay32:ec_asn1.obj
 0001:0003f730       pkey_cb                    00050730 f   libeay32:p8_pkey.obj
 0001:0003f8c8       print_bin                  000508c8 f   libeay32:eck_prn.obj
 0001:000409dc       dh_cb                      000519dc f   libeay32:dh_asn1.obj
 0001:00040a68       rsa_cb                     00051a68 f   libeay32:rsa_asn1.obj
 0001:000412c8       readtimer                  000522c8 f   libeay32:rand_win.obj
 0001:0004141c       send_bio_chars             0005241c f   libeay32:a_strex.obj
 0001:0004144c       do_esc_char                0005244c f   libeay32:a_strex.obj
 0001:00041638       do_buf                     00052638 f   libeay32:a_strex.obj
 0001:000417e4       do_hex_dump                000527e4 f   libeay32:a_strex.obj
 0001:00041870       do_dump                    00052870 f   libeay32:a_strex.obj
 0001:0004195c       do_print_ex                0005295c f   libeay32:a_strex.obj
 0001:00041b2c       do_indent                  00052b2c f   libeay32:a_strex.obj
 0001:00041b8c       do_name_ex                 00052b8c f   libeay32:a_strex.obj
 0001:00041ff8       traverse_string            00052ff8 f   libeay32:a_mbstr.obj
 0001:000420f8       in_utf8                    000530f8 f   libeay32:a_mbstr.obj
 0001:0004210c       out_utf8                   0005310c f   libeay32:a_mbstr.obj
 0001:00042140       cpy_asc                    00053140 f   libeay32:a_mbstr.obj
 0001:00042160       cpy_bmp                    00053160 f   libeay32:a_mbstr.obj
 0001:00042190       cpy_univ                   00053190 f   libeay32:a_mbstr.obj
 0001:000421d0       cpy_utf8                   000531d0 f   libeay32:a_mbstr.obj
 0001:00042204       type_str                   00053204 f   libeay32:a_mbstr.obj
 0001:000427e8       parse_tagging              000537e8 f   libeay32:asn1_gen.obj
 0001:00042928       append_exp                 00053928 f   libeay32:asn1_gen.obj
 0001:00042a04       bitstr_cb                  00053a04 f   libeay32:asn1_gen.obj
 0001:00042ad0       asn1_cb                    00053ad0 f   libeay32:asn1_gen.obj
 0001:00042f18       asn1_str2type              00053f18 f   libeay32:asn1_gen.obj
 0001:00043734       asn1_multi                 00054734 f   libeay32:asn1_gen.obj
 0001:00043894       def_create                 00054894 f   libeay32:conf_def.obj
 0001:000438e8       def_init_default           000548e8 f   libeay32:conf_def.obj
 0001:00043910       def_init_WIN32             00054910 f   libeay32:conf_def.obj
 0001:00043938       def_destroy_data           00054938 f   libeay32:conf_def.obj
 0001:0004395c       str_copy                   0005495c f   libeay32:conf_def.obj
 0001:00043d08       dump_value_LHASH_DOALL_ARG 00054d08 f   libeay32:conf_def.obj
 0001:00043d5c       def_dump                   00054d5c f   libeay32:conf_def.obj
 0001:00043d80       def_is_number              00054d80 f   libeay32:conf_def.obj
 0001:00043d98       def_to_int                 00054d98 f   libeay32:conf_def.obj
 0001:00043da0       def_destroy                00054da0 f   libeay32:conf_def.obj
 0001:00043dd4       clear_comments             00054dd4 f   libeay32:conf_def.obj
 0001:00043f20       def_load_bio               00054f20 f   libeay32:conf_def.obj
 0001:00044758       def_load                   00055758 f   libeay32:conf_def.obj
 0001:000449a0       conf_value_LHASH_HASH      000559a0 f   libeay32:conf_api.obj
 0001:000449c8       conf_value_LHASH_COMP      000559c8 f   libeay32:conf_api.obj
 0001:00044b6c       value_free_hash_LHASH_DOALL_ARG 00055b6c f   libeay32:conf_api.obj
 0001:00044b90       value_free_stack_LHASH_DOALL 00055b90 f   libeay32:conf_api.obj
 0001:00045f98       PKCS7_adb                  00056f98 f   libeay32:pk7_asn1.obj
 0001:00045fa4       pk7_cb                     00056fa4 f   libeay32:pk7_asn1.obj
 0001:00046040       si_cb                      00057040 f   libeay32:pk7_asn1.obj
 0001:00046084       ri_cb                      00057084 f   libeay32:pk7_asn1.obj
 0001:00048784       nist_cp_bn_0               00059784 f   libeay32:bn_nist.obj
 0001:00049a64       gf2m_Mdouble               0005aa64 f   libeay32:ec2_mult.obj
 0001:00049bc0       gf2m_Madd                  0005abc0 f   libeay32:ec2_mult.obj
 0001:00049d38       gf2m_Mxy                   0005ad38 f   libeay32:ec2_mult.obj
 0001:0004a0e4       ec_GF2m_montgomery_point_multiply 0005b0e4 f   libeay32:ec2_mult.obj
 0001:0004a680       bn_GF2m_mul_1x1            0005b680 f   libeay32:bn_gf2m.obj
 0001:0004c234       julian_to_date             0005d234 f   libeay32:o_time.obj
 0001:0004c594       trust_compat               0005d594 f   libeay32:x509_trs.obj
 0001:0004c5c8       obj_trust                  0005d5c8 f   libeay32:x509_trs.obj
 0001:0004c698       trust_1oidany              0005d698 f   libeay32:x509_trs.obj
 0001:0004c704       trust_1oid                 0005d704 f   libeay32:x509_trs.obj
 0001:0004d0e4       LoadLibraryA               0005e0e4 f   libeay32:dso_win32.obj
 0001:0004d184       win32_load                 0005e184 f   libeay32:dso_win32.obj
 0001:0004d2c0       win32_unload               0005e2c0 f   libeay32:dso_win32.obj
 0001:0004d394       win32_bind_var             0005e394 f   libeay32:dso_win32.obj
 0001:0004d4a8       win32_bind_func            0005e4a8 f   libeay32:dso_win32.obj
 0001:0004d5bc       win32_splitter             0005e5bc f   libeay32:dso_win32.obj
 0001:0004d7f0       win32_name_converter       0005e7f0 f   libeay32:dso_win32.obj
 0001:0004d8d8       win32_pathbyaddr           0005e8d8 f   libeay32:dso_win32.obj
 0001:0004db00       win32_globallookup         0005eb00 f   libeay32:dso_win32.obj
 0001:0004dc98       win32_joiner               0005ec98 f   libeay32:dso_win32.obj
 0001:0004dfd0       win32_merger               0005efd0 f   libeay32:dso_win32.obj
 0001:0004e20c       PKCS7_get_octet_string     0005f20c f   libeay32:pk7_doit.obj
 0001:0004e26c       PKCS7_bio_add_digest       0005f26c f   libeay32:pk7_doit.obj
 0001:0004e360       pkcs7_encode_rinfo         0005f360 f   libeay32:pk7_doit.obj
 0001:0004e920       PKCS7_find_digest          0005f920 f   libeay32:pk7_doit.obj
 0001:0004eba4       get_attribute              0005fba4 f   libeay32:pk7_doit.obj
 0001:0004ec4c       add_attribute              0005fc4c f   libeay32:pk7_doit.obj
 0001:0004ed68       do_pkcs7_signed_attrib     0005fd68 f   libeay32:pk7_doit.obj
 0001:0004f8fc       asn1_bio_free              000608fc f   libeay32:bio_asn1.obj
 0001:0004f94c       asn1_bio_flush_ex          0006094c f   libeay32:bio_asn1.obj
 0001:0004f9f0       asn1_bio_read              000609f0 f   libeay32:bio_asn1.obj
 0001:0004fa18       asn1_bio_gets              00060a18 f   libeay32:bio_asn1.obj
 0001:0004fa40       asn1_bio_callback_ctrl     00060a40 f   libeay32:bio_asn1.obj
 0001:0004fa68       asn1_bio_ctrl              00060a68 f   libeay32:bio_asn1.obj
 0001:0004fc10       asn1_bio_new               00060c10 f   libeay32:bio_asn1.obj
 0001:0004fcac       asn1_bio_write             00060cac f   libeay32:bio_asn1.obj
 0001:0004fee0       asn1_bio_puts              00060ee0 f   libeay32:bio_asn1.obj
 0001:0004ff0c       b64_new                    00060f0c f   libeay32:bio_b64.obj
 0001:0004ff7c       b64_free                   00060f7c f   libeay32:bio_b64.obj
 0001:0004ffb4       b64_read                   00060fb4 f   libeay32:bio_b64.obj
 0001:00050458       b64_write                  00061458 f   libeay32:bio_b64.obj
 0001:00050898       b64_ctrl                   00061898 f   libeay32:bio_b64.obj
 0001:00050ab0       b64_callback_ctrl          00061ab0 f   libeay32:bio_b64.obj
 0001:00050ad8       b64_puts                   00061ad8 f   libeay32:bio_b64.obj
 0001:00050b04       buffer_new                 00061b04 f   libeay32:bf_buff.obj
 0001:00050bb8       buffer_free                00061bb8 f   libeay32:bf_buff.obj
 0001:00050c14       buffer_read                00061c14 f   libeay32:bf_buff.obj
 0001:00050d54       buffer_write               00061d54 f   libeay32:bf_buff.obj
 0001:00050f14       buffer_ctrl                00061f14 f   libeay32:bf_buff.obj
 0001:000512ec       buffer_callback_ctrl       000622ec f   libeay32:bf_buff.obj
 0001:00051314       buffer_gets                00062314 f   libeay32:bf_buff.obj
 0001:0005141c       buffer_puts                0006241c f   libeay32:bf_buff.obj
 0001:00052964       PKCS12_BAGS_adb            00063964 f   libeay32:p12_asn.obj
 0001:0005297c       PKCS12_SAFEBAG_adb         0006397c f   libeay32:p12_asn.obj
 0001:000535d8       write_string               000645d8 f   libeay32:ui_openssl.obj
 0001:00053620       open_console               00064620 f   libeay32:ui_openssl.obj
 0001:000536ac       close_console              000646ac f   libeay32:ui_openssl.obj
 0001:00053710       read_string                00064710 f   libeay32:ui_openssl.obj
 0001:000538ac       cmp64                      000648ac f   wcecompatex:time.obj
 0001:000538f8       topBit                     000648f8 f   wcecompatex:time.obj
 0001:00053a84       div64                      00064a84 f   wcecompatex:time.obj
 0001:0005445c       doexit                     0006545c f   corelibc:crt0dat.obj
 0001:00054630       ?getCmdLineArg@@YA?AW4ArgType@@PAPA_WPA_WHPAURedirArg@@PA_N@Z 00065630 f   wcecompatex:args.obj
 0001:0005495c       ?qsort_stricmp@@YAHPBX0@Z  0006595c f   wcecompatex:args.obj
