 mdc2test

 Timestamp is 511c9ae2 (Thu Feb 14 17:05:54 2013)

 Preferred load address is 00010000

 Start         Length     Name                   Class
 0001:00000000 0005501cH .text                   CODE
 0002:00000000 00024810H .rdata                  DATA
 0002:00024810 00000014H .xdata                  DATA
 0002:00024824 00000014H .idata$2                DATA
 0002:00024838 00000014H .idata$3                DATA
 0002:0002484c 00000148H .idata$4                DATA
 0002:00024994 0000000cH .idata$6                DATA
 0002:000249a0 00000000H .edata                  DATA
 0003:00000000 00000148H .idata$5                DATA
 0003:00000148 00000004H .CRT$XCA                DATA
 0003:0000014c 00000004H .CRT$XCZ                DATA
 0003:00000150 00000004H .CRT$XIA                DATA
 0003:00000154 00000004H .CRT$XIZ                DATA
 0003:00000158 00000004H .CRT$XPA                DATA
 0003:0000015c 00000004H .CRT$XPZ                DATA
 0003:00000160 00000004H .CRT$XTA                DATA
 0003:00000164 00000004H .CRT$XTZ                DATA
 0003:00000168 00001050H .data                   DATA
 0003:000011c0 00002011H .bss                    DATA
 0004:00000000 00003560H .pdata                  DATA

  Address         Publics by Value              Rva+Base     Lib:Object

 0000:00000000       ___safe_se_handler_count   00000000     <absolute>
 0000:00000000       ___safe_se_handler_table   00000000     <absolute>
 0001:00000000       main                       00011000 f   mdc2test.obj
 0001:000001c4       EVP_MD_CTX_init            000111c4 f   libeay32:digest.obj
 0001:000001dc       EVP_MD_CTX_create          000111dc f   libeay32:digest.obj
 0001:00000214       EVP_DigestInit_ex          00011214 f   libeay32:digest.obj
 0001:0000042c       EVP_DigestUpdate           0001142c f   libeay32:digest.obj
 0001:00000444       EVP_DigestFinal_ex         00011444 f   libeay32:digest.obj
 0001:000004f0       EVP_MD_CTX_cleanup         000114f0 f   libeay32:digest.obj
 0001:000005bc       EVP_MD_CTX_copy_ex         000115bc f   libeay32:digest.obj
 0001:0000076c       EVP_Digest                 0001176c f   libeay32:digest.obj
 0001:00000810       EVP_MD_CTX_destroy         00011810 f   libeay32:digest.obj
 0001:0000082c       EVP_MD_CTX_copy            0001182c f   libeay32:digest.obj
 0001:0000089c       EVP_mdc2                   0001189c f   libeay32:m_mdc2.obj
 0001:00000908       CRYPTO_free_locked         00011908 f   libeay32:mem.obj
 0001:00000964       CRYPTO_malloc              00011964 f   libeay32:mem.obj
 0001:00000a44       CRYPTO_realloc             00011a44 f   libeay32:mem.obj
 0001:00000b2c       CRYPTO_realloc_clean       00011b2c f   libeay32:mem.obj
 0001:00000c50       CRYPTO_free                00011c50 f   libeay32:mem.obj
 0001:00000cc4       EVP_PKEY_meth_find         00011cc4 f   libeay32:pmeth_lib.obj
 0001:00000d5c       EVP_PKEY_meth_free         00011d5c f   libeay32:pmeth_lib.obj
 0001:00000d78       EVP_PKEY_CTX_free          00011d78 f   libeay32:pmeth_lib.obj
 0001:00000de0       EVP_PKEY_CTX_ctrl          00011de0 f   libeay32:pmeth_lib.obj
 0001:00000f04       EVP_PKEY_CTX_get0_pkey     00011f04 f   libeay32:pmeth_lib.obj
 0001:00000f0c       EVP_PKEY_CTX_new           00011f0c f   libeay32:pmeth_lib.obj
 0001:00001088       EVP_PKEY_CTX_dup           00012088 f   libeay32:pmeth_lib.obj
 0001:000011c4       ENGINE_get_digest_engine   000121c4 f   libeay32:tb_digest.obj
 0001:000011e0       ENGINE_get_digest          000121e0 f   libeay32:tb_digest.obj
 0001:000018cc       ERR_get_state              000128cc f   libeay32:err.obj
 0001:000019cc       ERR_set_error_data         000129cc f   libeay32:err.obj
 0001:00001a20       ERR_add_error_vdata        00012a20 f   libeay32:err.obj
 0001:00001af4       ERR_set_mark               00012af4 f   libeay32:err.obj
 0001:00001b34       ERR_pop_to_mark            00012b34 f   libeay32:err.obj
 0001:00001d04       ERR_put_error              00012d04 f   libeay32:err.obj
 0001:00001df8       ERR_clear_error            00012df8 f   libeay32:err.obj
 0001:00001e64       ERR_add_error_data         00012e64 f   libeay32:err.obj
 0001:00001e84       ERR_peek_last_error        00012e84 f   libeay32:err.obj
 0001:00001eb0       engine_unlocked_init       00012eb0 f   libeay32:eng_init.obj
 0001:00001f08       engine_unlocked_finish     00012f08 f   libeay32:eng_init.obj
 0001:00001fcc       ENGINE_init                00012fcc f   libeay32:eng_init.obj
 0001:00002048       ENGINE_finish              00013048 f   libeay32:eng_init.obj
 0001:000020ec       EVP_CIPHER_CTX_block_size  000130ec f   libeay32:evp_lib.obj
 0001:000020f8       EVP_Cipher                 000130f8 f   libeay32:evp_lib.obj
 0001:00002114       EVP_CIPHER_CTX_cipher      00013114 f   libeay32:evp_lib.obj
 0001:0000211c       EVP_CIPHER_CTX_flags       0001311c f   libeay32:evp_lib.obj
 0001:00002128       EVP_CIPHER_iv_length       00013128 f   libeay32:evp_lib.obj
 0001:00002130       EVP_CIPHER_CTX_iv_length   00013130 f   libeay32:evp_lib.obj
 0001:0000213c       EVP_CIPHER_key_length      0001313c f   libeay32:evp_lib.obj
 0001:00002144       EVP_CIPHER_CTX_key_length  00013144 f   libeay32:evp_lib.obj
 0001:0000214c       EVP_MD_block_size          0001314c f   libeay32:evp_lib.obj
 0001:00002154       EVP_MD_type                00013154 f   libeay32:evp_lib.obj
 0001:0000215c       EVP_MD_pkey_type           0001315c f   libeay32:evp_lib.obj
 0001:00002164       EVP_MD_size                00013164 f   libeay32:evp_lib.obj
 0001:000021b0       EVP_MD_CTX_md              000131b0 f   libeay32:evp_lib.obj
 0001:000021c0       EVP_MD_CTX_set_flags       000131c0 f   libeay32:evp_lib.obj
 0001:000021d0       EVP_MD_CTX_clear_flags     000131d0 f   libeay32:evp_lib.obj
 0001:000021e0       EVP_MD_CTX_test_flags      000131e0 f   libeay32:evp_lib.obj
 0001:000021ec       EVP_CIPHER_get_asn1_iv     000131ec f   libeay32:evp_lib.obj
 0001:00002264       EVP_CIPHER_set_asn1_iv     00013264 f   libeay32:evp_lib.obj
 0001:000022b4       EVP_CIPHER_type            000132b4 f   libeay32:evp_lib.obj
 0001:000023e4       EVP_CIPHER_param_to_asn1   000133e4 f   libeay32:evp_lib.obj
 0001:0000242c       EVP_CIPHER_asn1_to_param   0001342c f   libeay32:evp_lib.obj
 0001:00002474       CRYPTO_destroy_dynlockid   00013474 f   libeay32:cryptlib.obj
 0001:00002578       CRYPTO_get_dynlock_value   00013578 f   libeay32:cryptlib.obj
 0001:00002614       CRYPTO_THREADID_current    00013614 f   libeay32:cryptlib.obj
 0001:00002690       CRYPTO_THREADID_cmp        00013690 f   libeay32:cryptlib.obj
 0001:000026a4       CRYPTO_THREADID_cpy        000136a4 f   libeay32:cryptlib.obj
 0001:000026b8       CRYPTO_THREADID_hash       000136b8 f   libeay32:cryptlib.obj
 0001:000026c0       OPENSSL_showfatal          000136c0 f   libeay32:cryptlib.obj
 0001:00002848       OpenSSLDie                 00013848 f   libeay32:cryptlib.obj
 0001:0000287c       CRYPTO_memcmp              0001387c f   libeay32:cryptlib.obj
 0001:000028b8       CRYPTO_lock                000138b8 f   libeay32:cryptlib.obj
 0001:00002984       CRYPTO_add_lock            00013984 f   libeay32:cryptlib.obj
 0001:00002a10       OPENSSL_cleanse            00013a10 f   libeay32:mem_clr.obj
 0001:00002a6c       RSA_sign_ASN1_OCTET_STRING 00013a6c f   libeay32:rsa_saos.obj
 0001:00002b7c       RSA_verify_ASN1_OCTET_STRING 00013b7c f   libeay32:rsa_saos.obj
 0001:00002cb8       MDC2_Init                  00013cb8 f   libeay32:mdc2dgst.obj
 0001:00002e7c       MDC2_Final                 00013e7c f   libeay32:mdc2dgst.obj
 0001:00002f04       MDC2_Update                00013f04 f   libeay32:mdc2dgst.obj
 0001:0000546c       OBJ_nid2obj                0001646c f   libeay32:obj_dat.obj
 0001:0000554c       OBJ_nid2sn                 0001654c f   libeay32:obj_dat.obj
 0001:00005630       OBJ_nid2ln                 00016630 f   libeay32:obj_dat.obj
 0001:00005758       OBJ_bsearch_ex_            00016758 f   libeay32:obj_dat.obj
 0001:0000583c       OBJ_bsearch_               0001683c f   libeay32:obj_dat.obj
 0001:00005864       OBJ_obj2nid                00016864 f   libeay32:obj_dat.obj
 0001:0000592c       OBJ_obj2txt                0001692c f   libeay32:obj_dat.obj
 0001:00005c2c       OBJ_ln2nid                 00016c2c f   libeay32:obj_dat.obj
 0001:00005cdc       OBJ_sn2nid                 00016cdc f   libeay32:obj_dat.obj
 0001:00005d8c       OBJ_txt2obj                00016d8c f   libeay32:obj_dat.obj
 0001:00005e80       sk_set_cmp_func            00016e80 f   libeay32:stack.obj
 0001:00005e9c       sk_new                     00016e9c f   libeay32:stack.obj
 0001:00005f24       sk_insert                  00016f24 f   libeay32:stack.obj
 0001:00005ffc       sk_delete                  00016ffc f   libeay32:stack.obj
 0001:00006068       sk_push                    00017068 f   libeay32:stack.obj
 0001:0000607c       sk_pop                     0001707c f   libeay32:stack.obj
 0001:000060b0       sk_free                    000170b0 f   libeay32:stack.obj
 0001:000060dc       sk_num                     000170dc f   libeay32:stack.obj
 0001:000060ec       sk_value                   000170ec f   libeay32:stack.obj
 0001:00006118       sk_set                     00017118 f   libeay32:stack.obj
 0001:0000614c       sk_sort                    0001714c f   libeay32:stack.obj
 0001:00006188       sk_is_sorted               00017188 f   libeay32:stack.obj
 0001:00006198       sk_new_null                00017198 f   libeay32:stack.obj
 0001:000061ac       sk_delete_ptr              000171ac f   libeay32:stack.obj
 0001:000062c0       sk_find                    000172c0 f   libeay32:stack.obj
 0001:000062d4       sk_pop_free                000172d4 f   libeay32:stack.obj
 0001:0000633c       EVP_PKEY_bits              0001733c f   libeay32:p_lib.obj
 0001:0000637c       EVP_PKEY_size              0001737c f   libeay32:p_lib.obj
 0001:000063bc       EVP_PKEY_missing_parameters 000173bc f   libeay32:p_lib.obj
 0001:000063f4       EVP_PKEY_new               000173f4 f   libeay32:p_lib.obj
 0001:00006470       EVP_PKEY_type              00017470 f   libeay32:p_lib.obj
 0001:000064ac       EVP_PKEY_id                000174ac f   libeay32:p_lib.obj
 0001:000064b4       EVP_PKEY_get_default_digest_nid 000174b4 f   libeay32:p_lib.obj
 0001:000064f8       EVP_PKEY_copy_parameters   000174f8 f   libeay32:p_lib.obj
 0001:000066e4       EVP_PKEY_set_type          000176e4 f   libeay32:p_lib.obj
 0001:000066fc       EVP_PKEY_assign            000176fc f   libeay32:p_lib.obj
 0001:00006734       EVP_PKEY_free              00017734 f   libeay32:p_lib.obj
 0001:000067e0       EVP_get_cipherbyname       000177e0 f   libeay32:names.obj
 0001:000067f4       EVP_get_digestbyname       000177f4 f   libeay32:names.obj
 0001:00006808       ENGINE_get_pkey_meth_engine 00017808 f   libeay32:tb_pkmeth.obj
 0001:00006824       engine_pkey_meths_free     00017824 f   libeay32:tb_pkmeth.obj
 0001:000068a4       ENGINE_get_pkey_meth       000178a4 f   libeay32:tb_pkmeth.obj
 0001:00006908       engine_table_select        00017908 f   libeay32:eng_table.obj
 0001:00006a94       engine_table_doall         00017a94 f   libeay32:eng_table.obj
 0001:00006ac8       CRYPTO_mem_ctrl            00017ac8 f   libeay32:mem_dbg.obj
 0001:00006c3c       CRYPTO_is_mem_check_on     00017c3c f   libeay32:mem_dbg.obj
 0001:00006db8       CRYPTO_push_info_          00017db8 f   libeay32:mem_dbg.obj
 0001:00006e88       CRYPTO_pop_info            00017e88 f   libeay32:mem_dbg.obj
 0001:00006ec8       lh_free                    00017ec8 f   libeay32:lhash.obj
 0001:00006f30       lh_doall                   00017f30 f   libeay32:lhash.obj
 0001:00006f84       lh_doall_arg               00017f84 f   libeay32:lhash.obj
 0001:000072e8       lh_strhash                 000182e8 f   libeay32:lhash.obj
 0001:00007354       lh_num_items               00018354 f   libeay32:lhash.obj
 0001:00007364       lh_new                     00018364 f   libeay32:lhash.obj
 0001:00007460       lh_insert                  00018460 f   libeay32:lhash.obj
 0001:00007544       lh_delete                  00018544 f   libeay32:lhash.obj
 0001:000075f0       lh_retrieve                000185f0 f   libeay32:lhash.obj
 0001:00007640       BUF_strlcpy                00018640 f   libeay32:buf_str.obj
 0001:00007690       BUF_strlcat                00018690 f   libeay32:buf_str.obj
 0001:000076cc       BUF_strndup                000186cc f   libeay32:buf_str.obj
 0001:00007740       BUF_strdup                 00018740 f   libeay32:buf_str.obj
 0001:00008808       BIO_vprintf                00019808 f   libeay32:b_print.obj
 0001:000088d0       BIO_vsnprintf              000198d0 f   libeay32:b_print.obj
 0001:00008934       BIO_printf                 00019934 f   libeay32:b_print.obj
 0001:00008954       BIO_snprintf               00019954 f   libeay32:b_print.obj
 0001:00008974       engine_free_util           00019974 f   libeay32:eng_lib.obj
 0001:00008a34       ENGINE_free                00019a34 f   libeay32:eng_lib.obj
 0001:00008a48       ASN1_TYPE_set_octetstring  00019a48 f   libeay32:evp_asn1.obj
 0001:00008aa8       ASN1_TYPE_get_octetstring  00019aa8 f   libeay32:evp_asn1.obj
 0001:00008b1c       a2d_ASN1_OBJECT            00019b1c f   libeay32:a_object.obj
 0001:00008ef4       i2t_ASN1_OBJECT            00019ef4 f   libeay32:a_object.obj
 0001:00008f08       i2a_ASN1_OBJECT            00019f08 f   libeay32:a_object.obj
 0001:00008fe4       ASN1_OBJECT_new            00019fe4 f   libeay32:a_object.obj
 0001:00009060       ASN1_OBJECT_free           0001a060 f   libeay32:a_object.obj
 0001:000090e0       c2i_ASN1_OBJECT            0001a0e0 f   libeay32:a_object.obj
 0001:00009274       d2i_ASN1_OBJECT            0001a274 f   libeay32:a_object.obj
 0001:00009314       RSA_size                   0001a314 f   libeay32:rsa_crpt.obj
 0001:00009338       RSA_public_encrypt         0001a338 f   libeay32:rsa_crpt.obj
 0001:00009364       RSA_private_encrypt        0001a364 f   libeay32:rsa_crpt.obj
 0001:00009390       RSA_private_decrypt        0001a390 f   libeay32:rsa_crpt.obj
 0001:000093bc       RSA_public_decrypt         0001a3bc f   libeay32:rsa_crpt.obj
 0001:000094cc       RSA_setup_blinding         0001a4cc f   libeay32:rsa_crpt.obj
 0001:000096a0       ASN1_INTEGER_it            0001a6a0 f   libeay32:tasn_typ.obj
 0001:000096ac       d2i_ASN1_INTEGER           0001a6ac f   libeay32:tasn_typ.obj
 0001:000096c4       i2d_ASN1_INTEGER           0001a6c4 f   libeay32:tasn_typ.obj
 0001:000096dc       ASN1_INTEGER_new           0001a6dc f   libeay32:tasn_typ.obj
 0001:000096f4       ASN1_INTEGER_free          0001a6f4 f   libeay32:tasn_typ.obj
 0001:0000970c       ASN1_ENUMERATED_it         0001a70c f   libeay32:tasn_typ.obj
 0001:00009718       ASN1_ENUMERATED_free       0001a718 f   libeay32:tasn_typ.obj
 0001:00009730       ASN1_BIT_STRING_it         0001a730 f   libeay32:tasn_typ.obj
 0001:0000973c       ASN1_BIT_STRING_new        0001a73c f   libeay32:tasn_typ.obj
 0001:00009754       ASN1_BIT_STRING_free       0001a754 f   libeay32:tasn_typ.obj
 0001:0000976c       ASN1_OCTET_STRING_it       0001a76c f   libeay32:tasn_typ.obj
 0001:00009778       d2i_ASN1_OCTET_STRING      0001a778 f   libeay32:tasn_typ.obj
 0001:00009790       i2d_ASN1_OCTET_STRING      0001a790 f   libeay32:tasn_typ.obj
 0001:000097a8       ASN1_OCTET_STRING_new      0001a7a8 f   libeay32:tasn_typ.obj
 0001:000097c0       ASN1_OCTET_STRING_free     0001a7c0 f   libeay32:tasn_typ.obj
 0001:000097d8       ASN1_NULL_it               0001a7d8 f   libeay32:tasn_typ.obj
 0001:000097e4       ASN1_NULL_new              0001a7e4 f   libeay32:tasn_typ.obj
 0001:000097fc       ASN1_OBJECT_it             0001a7fc f   libeay32:tasn_typ.obj
 0001:00009808       ASN1_UTF8STRING_it         0001a808 f   libeay32:tasn_typ.obj
 0001:00009814       ASN1_IA5STRING_it          0001a814 f   libeay32:tasn_typ.obj
 0001:00009820       ASN1_GENERALIZEDTIME_it    0001a820 f   libeay32:tasn_typ.obj
 0001:0000982c       ASN1_ANY_it                0001a82c f   libeay32:tasn_typ.obj
 0001:00009838       ASN1_SEQUENCE_it           0001a838 f   libeay32:tasn_typ.obj
 0001:00009844       d2i_ASN1_TYPE              0001a844 f   libeay32:tasn_typ.obj
 0001:0000985c       i2d_ASN1_TYPE              0001a85c f   libeay32:tasn_typ.obj
 0001:00009874       ASN1_TYPE_new              0001a874 f   libeay32:tasn_typ.obj
 0001:0000988c       ASN1_TYPE_free             0001a88c f   libeay32:tasn_typ.obj
 0001:000098a4       ASN1_PRINTABLE_it          0001a8a4 f   libeay32:tasn_typ.obj
 0001:000098b0       DISPLAYTEXT_it             0001a8b0 f   libeay32:tasn_typ.obj
 0001:000098bc       DIRECTORYSTRING_it         0001a8bc f   libeay32:tasn_typ.obj
 0001:000098c8       ASN1_BOOLEAN_it            0001a8c8 f   libeay32:tasn_typ.obj
 0001:000098d4       ASN1_FBOOLEAN_it           0001a8d4 f   libeay32:tasn_typ.obj
 0001:000098e0       ASN1_OCTET_STRING_NDEF_it  0001a8e0 f   libeay32:tasn_typ.obj
 0001:000098ec       d2i_ASN1_SEQUENCE_ANY      0001a8ec f   libeay32:tasn_typ.obj
 0001:00009904       i2d_ASN1_SEQUENCE_ANY      0001a904 f   libeay32:tasn_typ.obj
 0001:0000991c       i2d_ASN1_SET_ANY           0001a91c f   libeay32:tasn_typ.obj
 0001:000099f0       ASN1_put_eoc               0001a9f0 f   libeay32:asn1_lib.obj
 0001:00009a10       ASN1_object_size           0001aa10 f   libeay32:asn1_lib.obj
 0001:00009a60       ASN1_STRING_set            0001aa60 f   libeay32:asn1_lib.obj
 0001:00009b50       ASN1_STRING_set0           0001ab50 f   libeay32:asn1_lib.obj
 0001:00009b80       ASN1_STRING_type_new       0001ab80 f   libeay32:asn1_lib.obj
 0001:00009bec       ASN1_STRING_free           0001abec f   libeay32:asn1_lib.obj
 0001:00009c20       ASN1_STRING_cmp            0001ac20 f   libeay32:asn1_lib.obj
 0001:00009c60       ASN1_get_object            0001ac60 f   libeay32:asn1_lib.obj
 0001:00009db8       ASN1_put_object            0001adb8 f   libeay32:asn1_lib.obj
 0001:00009ecc       ASN1_STRING_copy           0001aecc f   libeay32:asn1_lib.obj
 0001:00009f18       ASN1_STRING_new            0001af18 f   libeay32:asn1_lib.obj
 0001:00009f2c       ASN1_STRING_dup            0001af2c f   libeay32:asn1_lib.obj
 0001:00009f74       DES_encrypt1               0001af74 f   libeay32:des_enc.obj
 0001:0000a3c0       DES_set_odd_parity         0001b3c0 f   libeay32:set_key.obj
 0001:0000a3f4       DES_set_key_unchecked      0001b3f4 f   libeay32:set_key.obj
 0001:0000a6b4       CMAC_CTX_new               0001b6b4 f   libeay32:cmac.obj
 0001:0000a6f4       CMAC_CTX_cleanup           0001b6f4 f   libeay32:cmac.obj
 0001:0000a740       CMAC_CTX_free              0001b740 f   libeay32:cmac.obj
 0001:0000a75c       CMAC_CTX_copy              0001b75c f   libeay32:cmac.obj
 0001:0000a7ec       CMAC_Init                  0001b7ec f   libeay32:cmac.obj
 0001:0000aa68       CMAC_Update                0001ba68 f   libeay32:cmac.obj
 0001:0000ab4c       CMAC_Final                 0001bb4c f   libeay32:cmac.obj
 0001:0000ac4c       X509V3_add_value           0001bc4c f   libeay32:v3_utl.obj
 0001:0000ad44       X509V3_add_value_uchar     0001bd44 f   libeay32:v3_utl.obj
 0001:0000ad54       X509V3_conf_free           0001bd54 f   libeay32:v3_utl.obj
 0001:0000ada0       X509V3_add_value_bool      0001bda0 f   libeay32:v3_utl.obj
 0001:0000adc4       i2s_ASN1_ENUMERATED        0001bdc4 f   libeay32:v3_utl.obj
 0001:0000ae34       i2s_ASN1_INTEGER           0001be34 f   libeay32:v3_utl.obj
 0001:0000aea4       s2i_ASN1_INTEGER           0001bea4 f   libeay32:v3_utl.obj
 0001:0000aff4       X509V3_add_value_int       0001bff4 f   libeay32:v3_utl.obj
 0001:0000b048       X509V3_get_value_bool      0001c048 f   libeay32:v3_utl.obj
 0001:0000b204       X509V3_get_value_int       0001c204 f   libeay32:v3_utl.obj
 0001:0000b318       hex_to_string              0001c318 f   libeay32:v3_utl.obj
 0001:0000b3d8       string_to_hex              0001c3d8 f   libeay32:v3_utl.obj
 0001:0000b5a0       name_cmp                   0001c5a0 f   libeay32:v3_utl.obj
 0001:0000b684       X509V3_NAME_from_section   0001c684 f   libeay32:v3_utl.obj
 0001:0000b76c       X509V3_parse_list          0001c76c f   libeay32:v3_utl.obj
 0001:0000bbdc       a2i_ipadd                  0001cbdc f   libeay32:v3_utl.obj
 0001:0000bc40       a2i_IPADDRESS              0001cc40 f   libeay32:v3_utl.obj
 0001:0000bc9c       a2i_IPADDRESS_NC           0001cc9c f   libeay32:v3_utl.obj
 0001:0000bd68       HMAC_Init_ex               0001cd68 f   libeay32:hmac.obj
 0001:0000bf60       HMAC_Update                0001cf60 f   libeay32:hmac.obj
 0001:0000bf74       HMAC_Final                 0001cf74 f   libeay32:hmac.obj
 0001:0000bffc       HMAC_CTX_init              0001cffc f   libeay32:hmac.obj
 0001:0000c024       HMAC_CTX_copy              0001d024 f   libeay32:hmac.obj
 0001:0000c0a4       HMAC_CTX_cleanup           0001d0a4 f   libeay32:hmac.obj
 0001:0000c0dc       HMAC_CTX_set_flags         0001d0dc f   libeay32:hmac.obj
 0001:0000c110       HMAC_Init                  0001d110 f   libeay32:hmac.obj
 0001:0000c174       HMAC                       0001d174 f   libeay32:hmac.obj
 0001:0000c220       ASN1_OCTET_STRING_dup      0001d220 f   libeay32:a_octet.obj
 0001:0000c230       ASN1_OCTET_STRING_set      0001d230 f   libeay32:a_octet.obj
 0001:0000c240       EC_GROUP_new               0001d240 f   libeay32:ec_lib.obj
 0001:0000c340       EC_GROUP_method_of         0001d340 f   libeay32:ec_lib.obj
 0001:0000c348       EC_METHOD_get_field_type   0001d348 f   libeay32:ec_lib.obj
 0001:0000c350       EC_GROUP_get0_generator    0001d350 f   libeay32:ec_lib.obj
 0001:0000c358       EC_GROUP_get_order         0001d358 f   libeay32:ec_lib.obj
 0001:0000c38c       EC_GROUP_get_cofactor      0001d38c f   libeay32:ec_lib.obj
 0001:0000c3c4       EC_GROUP_set_curve_name    0001d3c4 f   libeay32:ec_lib.obj
 0001:0000c3cc       EC_GROUP_get_curve_name    0001d3cc f   libeay32:ec_lib.obj
 0001:0000c3d4       EC_GROUP_set_asn1_flag     0001d3d4 f   libeay32:ec_lib.obj
 0001:0000c3dc       EC_GROUP_get_asn1_flag     0001d3dc f   libeay32:ec_lib.obj
 0001:0000c3e4       EC_GROUP_set_point_conversion_form 0001d3e4 f   libeay32:ec_lib.obj
 0001:0000c3ec       EC_GROUP_get_point_conversion_form 0001d3ec f   libeay32:ec_lib.obj
 0001:0000c3f4       EC_GROUP_set_seed          0001d3f4 f   libeay32:ec_lib.obj
 0001:0000c480       EC_GROUP_get0_seed         0001d480 f   libeay32:ec_lib.obj
 0001:0000c488       EC_GROUP_get_seed_len      0001d488 f   libeay32:ec_lib.obj
 0001:0000c490       EC_GROUP_set_curve_GFp     0001d490 f   libeay32:ec_lib.obj
 0001:0000c4f8       EC_GROUP_get_curve_GFp     0001d4f8 f   libeay32:ec_lib.obj
 0001:0000c560       EC_GROUP_set_curve_GF2m    0001d560 f   libeay32:ec_lib.obj
 0001:0000c5c8       EC_GROUP_get_curve_GF2m    0001d5c8 f   libeay32:ec_lib.obj
 0001:0000c62c       EC_GROUP_get_degree        0001d62c f   libeay32:ec_lib.obj
 0001:0000c684       EC_EX_DATA_set_data        0001d684 f   libeay32:ec_lib.obj
 0001:0000c760       EC_EX_DATA_get_data        0001d760 f   libeay32:ec_lib.obj
 0001:0000c7b4       EC_EX_DATA_free_data       0001d7b4 f   libeay32:ec_lib.obj
 0001:0000c83c       EC_EX_DATA_free_all_data   0001d83c f   libeay32:ec_lib.obj
 0001:0000c88c       EC_EX_DATA_clear_free_all_data 0001d88c f   libeay32:ec_lib.obj
 0001:0000c8dc       EC_POINT_new               0001d8dc f   libeay32:ec_lib.obj
 0001:0000c9bc       EC_POINT_free              0001d9bc f   libeay32:ec_lib.obj
 0001:0000c9f0       EC_POINT_clear_free        0001d9f0 f   libeay32:ec_lib.obj
 0001:0000ca4c       EC_POINT_copy              0001da4c f   libeay32:ec_lib.obj
 0001:0000cae0       EC_POINT_dup               0001dae0 f   libeay32:ec_lib.obj
 0001:0000cb28       EC_POINT_set_to_infinity   0001db28 f   libeay32:ec_lib.obj
 0001:0000cbb4       EC_POINT_set_Jprojective_coordinates_GFp 0001dbb4 f   libeay32:ec_lib.obj
 0001:0000cc68       EC_POINT_set_affine_coordinates_GFp 0001dc68 f   libeay32:ec_lib.obj
 0001:0000cd08       EC_POINT_set_affine_coordinates_GF2m 0001dd08 f   libeay32:ec_lib.obj
 0001:0000cdac       EC_POINT_get_affine_coordinates_GFp 0001ddac f   libeay32:ec_lib.obj
 0001:0000ce50       EC_POINT_get_affine_coordinates_GF2m 0001de50 f   libeay32:ec_lib.obj
 0001:0000cef0       EC_POINT_add               0001def0 f   libeay32:ec_lib.obj
 0001:0000cfac       EC_POINT_dbl               0001dfac f   libeay32:ec_lib.obj
 0001:0000d04c       EC_POINT_invert            0001e04c f   libeay32:ec_lib.obj
 0001:0000d0d8       EC_POINT_is_at_infinity    0001e0d8 f   libeay32:ec_lib.obj
 0001:0000d160       EC_POINT_is_on_curve       0001e160 f   libeay32:ec_lib.obj
 0001:0000d1e8       EC_POINT_cmp               0001e1e8 f   libeay32:ec_lib.obj
 0001:0000d288       EC_POINT_make_affine       0001e288 f   libeay32:ec_lib.obj
 0001:0000d310       EC_POINTs_make_affine      0001e310 f   libeay32:ec_lib.obj
 0001:0000d3d8       EC_POINTs_mul              0001e3d8 f   libeay32:ec_lib.obj
 0001:0000d454       EC_POINT_mul               0001e454 f   libeay32:ec_lib.obj
 0001:0000d4a8       EC_GROUP_have_precompute_mult 0001e4a8 f   libeay32:ec_lib.obj
 0001:0000d4f0       EC_GROUP_free              0001e4f0 f   libeay32:ec_lib.obj
 0001:0000d55c       EC_GROUP_clear_free        0001e55c f   libeay32:ec_lib.obj
 0001:0000d600       EC_GROUP_copy              0001e600 f   libeay32:ec_lib.obj
 0001:0000d814       EC_GROUP_dup               0001e814 f   libeay32:ec_lib.obj
 0001:0000d85c       EC_GROUP_set_generator     0001e85c f   libeay32:ec_lib.obj
 0001:0000d93c       EC_GROUP_cmp               0001e93c f   libeay32:ec_lib.obj
 0001:0000dba8       ECDSA_do_sign_ex           0001eba8 f   libeay32:ecs_sign.obj
 0001:0000dc08       ECDSA_sign_ex              0001ec08 f   libeay32:ecs_sign.obj
 0001:0000dc90       ECDSA_sign_setup           0001ec90 f   libeay32:ecs_sign.obj
 0001:0000dce0       ECDSA_sign                 0001ece0 f   libeay32:ecs_sign.obj
 0001:0000de6c       ecdsa_check                0001ee6c f   libeay32:ecs_lib.obj
 0001:0000dee8       ECDSA_size                 0001eee8 f   libeay32:ecs_lib.obj
 0001:0000dfa0       ECDSA_do_verify            0001efa0 f   libeay32:ecs_vrf.obj
 0001:0000dff4       ECDSA_verify               0001eff4 f   libeay32:ecs_vrf.obj
 0001:0000e06c       ECDH_compute_key           0001f06c f   libeay32:ech_key.obj
 0001:0000e0cc       EC_KEY_new                 0001f0cc f   libeay32:ec_key.obj
 0001:0000e150       EC_KEY_free                0001f150 f   libeay32:ec_key.obj
 0001:0000e1e0       EC_KEY_generate_key        0001f1e0 f   libeay32:ec_key.obj
 0001:0000e33c       EC_KEY_get0_group          0001f33c f   libeay32:ec_key.obj
 0001:0000e344       EC_KEY_set_group           0001f344 f   libeay32:ec_key.obj
 0001:0000e384       EC_KEY_get0_private_key    0001f384 f   libeay32:ec_key.obj
 0001:0000e38c       EC_KEY_get0_public_key     0001f38c f   libeay32:ec_key.obj
 0001:0000e394       EC_KEY_set_public_key      0001f394 f   libeay32:ec_key.obj
 0001:0000e3d8       EC_KEY_get_enc_flags       0001f3d8 f   libeay32:ec_key.obj
 0001:0000e3e0       EC_KEY_set_enc_flags       0001f3e0 f   libeay32:ec_key.obj
 0001:0000e3e8       EC_KEY_get_conv_form       0001f3e8 f   libeay32:ec_key.obj
 0001:0000e3f0       EC_KEY_get_key_method_data 0001f3f0 f   libeay32:ec_key.obj
 0001:0000e45c       EC_KEY_insert_key_method_data 0001f45c f   libeay32:ec_key.obj
 0001:0000e91c       EC_GROUP_new_by_curve_name 0001f91c f   libeay32:ec_curve.obj
 0001:0000ea44       d2i_DSA_SIG                0001fa44 f   libeay32:dsa_asn1.obj
 0001:0000eab8       d2i_DSAPrivateKey          0001fab8 f   libeay32:dsa_asn1.obj
 0001:0000ead0       i2d_DSAPrivateKey          0001fad0 f   libeay32:dsa_asn1.obj
 0001:0000eae8       d2i_DSAparams              0001fae8 f   libeay32:dsa_asn1.obj
 0001:0000eb00       i2d_DSAparams              0001fb00 f   libeay32:dsa_asn1.obj
 0001:0000eb18       dsa_pub_internal_it        0001fb18 f   libeay32:dsa_asn1.obj
 0001:0000eb24       i2d_DSAPublicKey           0001fb24 f   libeay32:dsa_asn1.obj
 0001:0000eb3c       DSA_sign                   0001fb3c f   libeay32:dsa_asn1.obj
 0001:0000ebbc       DSA_verify                 0001fbbc f   libeay32:dsa_asn1.obj
 0001:0000ec3c       DSA_new_method             0001fc3c f   libeay32:dsa_lib.obj
 0001:0000edec       DSA_free                   0001fdec f   libeay32:dsa_lib.obj
 0001:0000eee0       DSA_size                   0001fee0 f   libeay32:dsa_lib.obj
 0001:0000ef44       DSA_new                    0001ff44 f   libeay32:dsa_lib.obj
 0001:0000ef58       dsa_builtin_paramgen       0001ff58 f   libeay32:dsa_gen.obj
 0001:0000f6ec       evp_pkey_set_cb_translate  000206ec f   libeay32:pmeth_gn.obj
 0001:0000f840       DSA_generate_key           00020840 f   libeay32:dsa_key.obj
 0001:0000f870       DH_new_method              00020870 f   libeay32:dh_lib.obj
 0001:0000fa28       DH_free                    00020a28 f   libeay32:dh_lib.obj
 0001:0000fb2c       DH_size                    00020b2c f   libeay32:dh_lib.obj
 0001:0000fb50       DH_new                     00020b50 f   libeay32:dh_lib.obj
 0001:0000fd48       DH_generate_parameters_ex  00020d48 f   libeay32:dh_gen.obj
 0001:0000fd78       DH_generate_key            00020d78 f   libeay32:dh_key.obj
 0001:0000fd94       DH_compute_key             00020d94 f   libeay32:dh_key.obj
 0001:0000fdb0       DH_OpenSSL                 00020db0 f   libeay32:dh_key.obj
 0001:0001024c       BN_value_one               0002124c f   libeay32:bn_lib.obj
 0001:00010258       BN_num_bits_word           00021258 f   libeay32:bn_lib.obj
 0001:0001029c       BN_num_bits                0002129c f   libeay32:bn_lib.obj
 0001:000102d0       BN_clear_free              000212d0 f   libeay32:bn_lib.obj
 0001:00010328       BN_free                    00021328 f   libeay32:bn_lib.obj
 0001:00010380       BN_init                    00021380 f   libeay32:bn_lib.obj
 0001:00010398       BN_new                     00021398 f   libeay32:bn_lib.obj
 0001:0001055c       bn_expand2                 0002155c f   libeay32:bn_lib.obj
 0001:000105a8       BN_copy                    000215a8 f   libeay32:bn_lib.obj
 0001:00010670       BN_set_word                00021670 f   libeay32:bn_lib.obj
 0001:000106c8       BN_bin2bn                  000216c8 f   libeay32:bn_lib.obj
 0001:000107c4       BN_bn2bin                  000217c4 f   libeay32:bn_lib.obj
 0001:00010820       BN_ucmp                    00021820 f   libeay32:bn_lib.obj
 0001:0001088c       BN_cmp                     0002188c f   libeay32:bn_lib.obj
 0001:00010954       BN_set_bit                 00021954 f   libeay32:bn_lib.obj
 0001:000109f0       BN_is_bit_set              000219f0 f   libeay32:bn_lib.obj
 0001:00010a30       BN_mask_bits               00021a30 f   libeay32:bn_lib.obj
 0001:00010ac8       BN_set_negative            00021ac8 f   libeay32:bn_lib.obj
 0001:00010ae8       BN_dup                     00021ae8 f   libeay32:bn_lib.obj
 0001:00010b2c       RSA_verify_PKCS1_PSS_mgf1  00021b2c f   libeay32:rsa_pss.obj
 0001:0001105c       RSA_padding_add_PKCS1_PSS_mgf1 0002205c f   libeay32:rsa_pss.obj
 0001:000114b0       RSA_sign                   000224b0 f   libeay32:rsa_sign.obj
 0001:000116f4       int_rsa_verify             000226f4 f   libeay32:rsa_sign.obj
 0001:00011ae0       RSA_verify                 00022ae0 f   libeay32:rsa_sign.obj
 0001:00011b58       RSA_padding_add_X931       00022b58 f   libeay32:rsa_x931.obj
 0001:00011c04       RSA_padding_check_X931     00022c04 f   libeay32:rsa_x931.obj
 0001:00011d2c       RSA_X931_hash_id           00022d2c f   libeay32:rsa_x931.obj
 0001:00011dc0       EVP_sha1                   00022dc0 f   libeay32:m_sha1.obj
 0001:00011e7c       X509_ALGOR_it              00022e7c f   libeay32:x_algor.obj
 0001:00011e88       d2i_X509_ALGOR             00022e88 f   libeay32:x_algor.obj
 0001:00011ea0       X509_ALGOR_new             00022ea0 f   libeay32:x_algor.obj
 0001:00011eb8       X509_ALGOR_free            00022eb8 f   libeay32:x_algor.obj
 0001:00011ed0       X509_ALGOR_set0            00022ed0 f   libeay32:x_algor.obj
 0001:00011f78       X509_ALGOR_get0            00022f78 f   libeay32:x_algor.obj
 0001:00011fcc       X509_ALGOR_set_md          00022fcc f   libeay32:x_algor.obj
 0001:0001200c       CMS_RecipientInfo_ktri_get0_algs 0002300c f   libeay32:cms_env.obj
 0001:00012368       cms_EnvelopedData_init_bio 00023368 f   libeay32:cms_env.obj
 0001:000124cc       BN_bn2dec                  000234cc f   libeay32:bn_print.obj
 0001:000126b8       BN_hex2bn                  000236b8 f   libeay32:bn_print.obj
 0001:00012848       BN_dec2bn                  00023848 f   libeay32:bn_print.obj
 0001:000129dc       BN_asc2bn                  000239dc f   libeay32:bn_print.obj
 0001:00012a5c       RSA_new_method             00023a5c f   libeay32:rsa_lib.obj
 0001:00012c40       RSA_free                   00023c40 f   libeay32:rsa_lib.obj
 0001:00012d74       RSA_new                    00023d74 f   libeay32:rsa_lib.obj
 0001:00013340       RSA_generate_key_ex        00024340 f   libeay32:rsa_gen.obj
 0001:00013370       OBJ_dup                    00024370 f   libeay32:obj_lib.obj
 0001:00013510       OBJ_cmp                    00024510 f   libeay32:obj_lib.obj
 0001:0001353c       BIO_set                    0002453c f   libeay32:bio_lib.obj
 0001:000135dc       BIO_free                   000245dc f   libeay32:bio_lib.obj
 0001:000136a0       BIO_clear_flags            000246a0 f   libeay32:bio_lib.obj
 0001:000136b0       BIO_test_flags             000246b0 f   libeay32:bio_lib.obj
 0001:000136bc       BIO_set_flags              000246bc f   libeay32:bio_lib.obj
 0001:000136cc       BIO_read                   000246cc f   libeay32:bio_lib.obj
 0001:000137fc       BIO_write                  000247fc f   libeay32:bio_lib.obj
 0001:00013930       BIO_puts                   00024930 f   libeay32:bio_lib.obj
 0001:00013a58       BIO_gets                   00024a58 f   libeay32:bio_lib.obj
 0001:00013b80       BIO_indent                 00024b80 f   libeay32:bio_lib.obj
 0001:00013bdc       BIO_ctrl                   00024bdc f   libeay32:bio_lib.obj
 0001:00013cd8       BIO_callback_ctrl          00024cd8 f   libeay32:bio_lib.obj
 0001:00013ddc       BIO_push                   00024ddc f   libeay32:bio_lib.obj
 0001:00013e30       BIO_find_type              00024e30 f   libeay32:bio_lib.obj
 0001:00013e78       BIO_next                   00024e78 f   libeay32:bio_lib.obj
 0001:00013e88       BIO_free_all               00024e88 f   libeay32:bio_lib.obj
 0001:00013ebc       BIO_copy_next_retry        00024ebc f   libeay32:bio_lib.obj
 0001:00013ee0       BIO_new                    00024ee0 f   libeay32:bio_lib.obj
 0001:00013f58       BIO_int_ctrl               00024f58 f   libeay32:bio_lib.obj
 0001:00013f7c       BN_mod_word                00024f7c f   libeay32:bn_word.obj
 0001:00013fe0       BN_div_word                00024fe0 f   libeay32:bn_word.obj
 0001:000140a8       BN_add_word                000250a8 f   libeay32:bn_word.obj
 0001:000141b4       BN_sub_word                000251b4 f   libeay32:bn_word.obj
 0001:000142b8       BN_mul_word                000252b8 f   libeay32:bn_word.obj
 0001:00014344       BN_lshift1                 00025344 f   libeay32:bn_shift.obj
 0001:00014418       BN_rshift1                 00025418 f   libeay32:bn_shift.obj
 0001:000144f4       BN_lshift                  000254f4 f   libeay32:bn_shift.obj
 0001:00014620       BN_rshift                  00025620 f   libeay32:bn_shift.obj
 0001:00014750       EVP_PKEY_asn1_get_count    00025750 f   libeay32:ameth_lib.obj
 0001:00014780       EVP_PKEY_asn1_get0         00025780 f   libeay32:ameth_lib.obj
 0001:000147c8       EVP_PKEY_asn1_find         000257c8 f   libeay32:ameth_lib.obj
 0001:000148b0       EVP_PKEY_asn1_find_str     000258b0 f   libeay32:ameth_lib.obj
 0001:00014998       EVP_PKEY_asn1_free         00025998 f   libeay32:ameth_lib.obj
 0001:000149e0       X509_ATTRIBUTE_SET_it      000259e0 f   libeay32:x_attrib.obj
 0001:000149ec       X509_ATTRIBUTE_it          000259ec f   libeay32:x_attrib.obj
 0001:000149f8       X509_ATTRIBUTE_new         000259f8 f   libeay32:x_attrib.obj
 0001:00014a10       X509_ATTRIBUTE_free        00025a10 f   libeay32:x_attrib.obj
 0001:00014a28       X509_ATTRIBUTE_dup         00025a28 f   libeay32:x_attrib.obj
 0001:00014a44       X509_ATTRIBUTE_create      00025a44 f   libeay32:x_attrib.obj
 0001:00014bc0       OBJ_NAME_init              00025bc0 f   libeay32:o_names.obj
 0001:00014c28       OBJ_NAME_get               00025c28 f   libeay32:o_names.obj
 0001:00014d0c       OBJ_find_sigid_algs        00025d0c f   libeay32:obj_xref.obj
 0001:00014dac       OBJ_find_sigid_by_algs     00025dac f   libeay32:obj_xref.obj
 0001:00014e78       EVP_PBE_find               00025e78 f   libeay32:evp_pbe.obj
 0001:00014f3c       EVP_PBE_CipherInit         00025f3c f   libeay32:evp_pbe.obj
 0001:0001556c       BIO_new_file               0002656c f   libeay32:bss_file.obj
 0001:00015c04       CRYPTO_new_ex_data         00026c04 f   libeay32:ex_data.obj
 0001:00015c50       CRYPTO_free_ex_data        00026c50 f   libeay32:ex_data.obj
 0001:00015c9c       CRYPTO_set_ex_data         00026c9c f   libeay32:ex_data.obj
 0001:00015d70       CRYPTO_get_ex_data         00026d70 f   libeay32:ex_data.obj
 0001:00016260       ENGINE_get_pkey_asn1_meth_engine 00027260 f   libeay32:tb_asnmth.obj
 0001:0001627c       engine_pkey_asn1_meths_free 0002727c f   libeay32:tb_asnmth.obj
 0001:000163b8       ENGINE_pkey_asn1_find_str  000273b8 f   libeay32:tb_asnmth.obj
 0001:00016458       ENGINE_get_pkey_asn1_meth  00027458 f   libeay32:tb_asnmth.obj
 0001:000164bc       RAND_get_rand_method       000274bc f   libeay32:rand_lib.obj
 0001:00016524       RAND_seed                  00027524 f   libeay32:rand_lib.obj
 0001:00016558       RAND_add                   00027558 f   libeay32:rand_lib.obj
 0001:0001659c       RAND_bytes                 0002759c f   libeay32:rand_lib.obj
 0001:000165e4       RAND_pseudo_bytes          000275e4 f   libeay32:rand_lib.obj
 0001:0001662c       RAND_status                0002762c f   libeay32:rand_lib.obj
 0001:00016664       ASN1_TYPE_get              00027664 f   libeay32:a_type.obj
 0001:00016688       ASN1_TYPE_set              00027688 f   libeay32:a_type.obj
 0001:000166f4       ASN1_TYPE_set1             000276f4 f   libeay32:a_type.obj
 0001:00016768       ASN1_INTEGER_cmp           00027768 f   libeay32:a_int.obj
 0001:000167b0       i2c_ASN1_INTEGER           000277b0 f   libeay32:a_int.obj
 0001:00016904       c2i_ASN1_INTEGER           00027904 f   libeay32:a_int.obj
 0001:00016ac8       d2i_ASN1_UINTEGER          00027ac8 f   libeay32:a_int.obj
 0001:00016c38       ASN1_INTEGER_set           00027c38 f   libeay32:a_int.obj
 0001:00016d40       ASN1_INTEGER_get           00027d40 f   libeay32:a_int.obj
 0001:00016dd4       BN_to_ASN1_INTEGER         00027dd4 f   libeay32:a_int.obj
 0001:00016efc       ASN1_INTEGER_to_BN         00027efc f   libeay32:a_int.obj
 0001:00016f74       BN_BLINDING_free           00027f74 f   libeay32:bn_blind.obj
 0001:00016fd0       BN_BLINDING_invert_ex      00027fd0 f   libeay32:bn_blind.obj
 0001:00017054       BN_BLINDING_thread_id      00028054 f   libeay32:bn_blind.obj
 0001:0001705c       BN_BLINDING_new            0002805c f   libeay32:bn_blind.obj
 0001:00017150       BN_BLINDING_create_param   00028150 f   libeay32:bn_blind.obj
 0001:0001732c       BN_BLINDING_update         0002832c f   libeay32:bn_blind.obj
 0001:00017440       BN_BLINDING_convert_ex     00028440 f   libeay32:bn_blind.obj
 0001:000175ec       BN_CTX_new                 000285ec f   libeay32:bn_ctx.obj
 0001:00017674       BN_CTX_free                00028674 f   libeay32:bn_ctx.obj
 0001:000176f0       BN_CTX_start               000286f0 f   libeay32:bn_ctx.obj
 0001:000177e0       BN_CTX_end                 000287e0 f   libeay32:bn_ctx.obj
 0001:00017870       BN_CTX_get                 00028870 f   libeay32:bn_ctx.obj
 0001:00017d5c       BN_gcd                     00028d5c f   libeay32:bn_gcd.obj
 0001:00017e30       BN_mod_inverse             00028e30 f   libeay32:bn_gcd.obj
 0001:000184a4       bn_mul_normal              000294a4 f   libeay32:bn_mul.obj
 0001:000185b4       BN_mul                     000295b4 f   libeay32:bn_mul.obj
 0001:000186d4       BN_uadd                    000296d4 f   libeay32:bn_add.obj
 0001:000187d0       BN_usub                    000297d0 f   libeay32:bn_add.obj
 0001:00018978       BN_sub                     00029978 f   libeay32:bn_add.obj
 0001:00018a70       BN_add                     00029a70 f   libeay32:bn_add.obj
 0001:00018b24       ASN1_tag2bit               00029b24 f   libeay32:tasn_dec.obj
 0001:00018b3c       asn1_ex_c2i                00029b3c f   libeay32:tasn_dec.obj
 0001:00019a14       ASN1_item_ex_d2i           0002aa14 f   libeay32:tasn_dec.obj
 0001:0001a7e8       ASN1_item_d2i              0002b7e8 f   libeay32:tasn_dec.obj
 0001:0001ab98       asn1_ex_i2c                0002bb98 f   libeay32:tasn_enc.obj
 0001:0001ae84       ASN1_item_ex_i2d           0002be84 f   libeay32:tasn_enc.obj
 0001:0001b55c       ASN1_item_i2d              0002c55c f   libeay32:tasn_enc.obj
 0001:0001b570       ASN1_primitive_new         0002c570 f   libeay32:tasn_new.obj
 0001:0001baac       ASN1_item_ex_new           0002caac f   libeay32:tasn_new.obj
 0001:0001bac0       ASN1_template_new          0002cac0 f   libeay32:tasn_new.obj
 0001:0001bb98       ASN1_item_new              0002cb98 f   libeay32:tasn_new.obj
 0001:0001bbd0       ASN1_primitive_free        0002cbd0 f   libeay32:tasn_fre.obj
 0001:0001bf44       ASN1_template_free         0002cf44 f   libeay32:tasn_fre.obj
 0001:0001bff8       ASN1_item_free             0002cff8 f   libeay32:tasn_fre.obj
 0001:0001c018       ASN1_item_ex_free          0002d018 f   libeay32:tasn_fre.obj
 0001:0001c02c       EVP_CIPHER_CTX_init        0002d02c f   libeay32:evp_enc.obj
 0001:0001c044       EVP_EncryptUpdate          0002d044 f   libeay32:evp_enc.obj
 0001:0001c234       EVP_EncryptFinal_ex        0002d234 f   libeay32:evp_enc.obj
 0001:0001c360       EVP_DecryptUpdate          0002d360 f   libeay32:evp_enc.obj
 0001:0001c4dc       EVP_DecryptFinal_ex        0002d4dc f   libeay32:evp_enc.obj
 0001:0001c6b4       EVP_CIPHER_CTX_cleanup     0002d6b4 f   libeay32:evp_enc.obj
 0001:0001c740       EVP_CIPHER_CTX_set_padding 0002d740 f   libeay32:evp_enc.obj
 0001:0001c75c       EVP_CIPHER_CTX_ctrl        0002d75c f   libeay32:evp_enc.obj
 0001:0001c80c       EVP_CIPHER_CTX_rand_key    0002d80c f   libeay32:evp_enc.obj
 0001:0001c860       EVP_CIPHER_CTX_copy        0002d860 f   libeay32:evp_enc.obj
 0001:0001c9b0       EVP_CipherInit_ex          0002d9b0 f   libeay32:evp_enc.obj
 0001:0001cd10       EVP_CipherUpdate           0002dd10 f   libeay32:evp_enc.obj
 0001:0001cd54       EVP_CipherFinal_ex         0002dd54 f   libeay32:evp_enc.obj
 0001:0001cd7c       EVP_EncryptInit_ex         0002dd7c f   libeay32:evp_enc.obj
 0001:0001cda4       EVP_DecryptInit_ex         0002dda4 f   libeay32:evp_enc.obj
 0001:0001cdcc       EVP_CIPHER_CTX_set_key_length 0002ddcc f   libeay32:evp_enc.obj
 0001:0001ce54       ASN1_ENUMERATED_get        0002de54 f   libeay32:a_enum.obj
 0001:0001cee8       ASN1_ENUMERATED_to_BN      0002dee8 f   libeay32:a_enum.obj
 0001:0001cf5c       X509_NAME_entry_count      0002df5c f   libeay32:x509name.obj
 0001:0001cf80       X509_NAME_get_index_by_OBJ 0002df80 f   libeay32:x509name.obj
 0001:0001cfec       X509_NAME_get_entry        0002dfec f   libeay32:x509name.obj
 0001:0001d034       X509_NAME_delete_entry     0002e034 f   libeay32:x509name.obj
 0001:0001d108       X509_NAME_add_entry        0002e108 f   libeay32:x509name.obj
 0001:0001d274       X509_NAME_ENTRY_set_object 0002e274 f   libeay32:x509name.obj
 0001:0001d2e8       X509_NAME_ENTRY_set_data   0002e2e8 f   libeay32:x509name.obj
 0001:0001d3c8       X509_NAME_ENTRY_get_object 0002e3c8 f   libeay32:x509name.obj
 0001:0001d3d8       X509_NAME_ENTRY_get_data   0002e3d8 f   libeay32:x509name.obj
 0001:0001d3e8       X509_NAME_get_index_by_NID 0002e3e8 f   libeay32:x509name.obj
 0001:0001d424       X509_NAME_ENTRY_create_by_OBJ 0002e424 f   libeay32:x509name.obj
 0001:0001d4d0       X509_NAME_ENTRY_create_by_txt 0002e4d0 f   libeay32:x509name.obj
 0001:0001d574       X509_NAME_add_entry_by_txt 0002e574 f   libeay32:x509name.obj
 0001:0001d5cc       ACCESS_DESCRIPTION_it      0002e5cc f   libeay32:v3_info.obj
 0001:0001d5d8       ACCESS_DESCRIPTION_free    0002e5d8 f   libeay32:v3_info.obj
 0001:0001d5f0       AUTHORITY_INFO_ACCESS_it   0002e5f0 f   libeay32:v3_info.obj
 0001:0001d944       X509_CRL_get_ext_d2i       0002e944 f   libeay32:x509_ext.obj
 0001:0001d95c       X509_get_ext_count         0002e95c f   libeay32:x509_ext.obj
 0001:0001d974       X509_get_ext_by_NID        0002e974 f   libeay32:x509_ext.obj
 0001:0001d98c       X509_get_ext               0002e98c f   libeay32:x509_ext.obj
 0001:0001d9a4       X509_get_ext_d2i           0002e9a4 f   libeay32:x509_ext.obj
 0001:0001d9bc       X509_REVOKED_get_ext_d2i   0002e9bc f   libeay32:x509_ext.obj
 0001:0001d9d0       CONF_parse_list            0002e9d0 f   libeay32:conf_mod.obj
 0001:0001dafc       OTHERNAME_it               0002eafc f   libeay32:v3_genn.obj
 0001:0001db08       OTHERNAME_new              0002eb08 f   libeay32:v3_genn.obj
 0001:0001db20       EDIPARTYNAME_it            0002eb20 f   libeay32:v3_genn.obj
 0001:0001db2c       GENERAL_NAME_it            0002eb2c f   libeay32:v3_genn.obj
 0001:0001db38       GENERAL_NAME_new           0002eb38 f   libeay32:v3_genn.obj
 0001:0001db50       GENERAL_NAME_free          0002eb50 f   libeay32:v3_genn.obj
 0001:0001db68       GENERAL_NAMES_it           0002eb68 f   libeay32:v3_genn.obj
 0001:0001db74       GENERAL_NAMES_new          0002eb74 f   libeay32:v3_genn.obj
 0001:0001db8c       GENERAL_NAMES_free         0002eb8c f   libeay32:v3_genn.obj
 0001:0001dba4       X509_get_issuer_name       0002eba4 f   libeay32:x509_cmp.obj
 0001:0001dbb0       X509_get_subject_name      0002ebb0 f   libeay32:x509_cmp.obj
 0001:0001dbbc       X509_get_serialNumber      0002ebbc f   libeay32:x509_cmp.obj
 0001:0001dbc8       X509_NAME_cmp              0002ebc8 f   libeay32:x509_cmp.obj
 0001:0001dc58       X509_get_pubkey            0002ec58 f   libeay32:x509_cmp.obj
 0001:0001dc8c       X509_EXTENSION_it          0002ec8c f   libeay32:x_exten.obj
 0001:0001dcb0       X509V3_EXT_get_nid         0002ecb0 f   libeay32:v3_lib.obj
 0001:0001dd40       X509V3_EXT_d2i             0002ed40 f   libeay32:v3_lib.obj
 0001:0001ddd0       X509V3_get_d2i             0002edd0 f   libeay32:v3_lib.obj
 0001:0001e2dc       ec_wNAF_mul                0002f2dc f   libeay32:ec_mult.obj
 0001:0001ee84       ec_wNAF_precompute_mult    0002fe84 f   libeay32:ec_mult.obj
 0001:0001f390       ec_wNAF_have_precompute_mult 00030390 f   libeay32:ec_mult.obj
 0001:0001f3cc       d2i_ECDSA_SIG              000303cc f   libeay32:ecs_asn1.obj
 0001:0001f3e4       i2d_ECDSA_SIG              000303e4 f   libeay32:ecs_asn1.obj
 0001:0001f3fc       ECDSA_SIG_new              000303fc f   libeay32:ecs_asn1.obj
 0001:0001f414       ECDSA_SIG_free             00030414 f   libeay32:ecs_asn1.obj
 0001:0001f42c       ECDSA_OpenSSL              0003042c f   libeay32:ecs_ossl.obj
 0001:000200f0       ENGINE_get_default_ECDSA   000310f0 f   libeay32:tb_ecdsa.obj
 0001:0002010c       ENGINE_get_ECDSA           0003110c f   libeay32:tb_ecdsa.obj
 0001:0002026c       ecdh_check                 0003126c f   libeay32:ech_lib.obj
 0001:000204f0       BN_rand                    000314f0 f   libeay32:bn_rand.obj
 0001:00020520       BN_pseudo_rand             00031520 f   libeay32:bn_rand.obj
 0001:00020738       BN_rand_range              00031738 f   libeay32:bn_rand.obj
 0001:00020754       BN_pseudo_rand_range       00031754 f   libeay32:bn_rand.obj
 0001:00020770       EC_GROUP_new_curve_GFp     00031770 f   libeay32:ec_cvt.obj
 0001:0002083c       EC_GROUP_new_curve_GF2m    0003183c f   libeay32:ec_cvt.obj
 0001:000208a0       BIGNUM_it                  000318a0 f   libeay32:x_bignum.obj
 0001:000208ac       CBIGNUM_it                 000318ac f   libeay32:x_bignum.obj
 0001:000209ec       LONG_it                    000319ec f   libeay32:x_long.obj
 0001:000209f8       ZLONG_it                   000319f8 f   libeay32:x_long.obj
 0001:00020bec       ASN1_item_dup              00031bec f   libeay32:a_dup.obj
 0001:00020c80       DSA_do_sign                00031c80 f   libeay32:dsa_sign.obj
 0001:00020c9c       DSA_sign_setup             00031c9c f   libeay32:dsa_sign.obj
 0001:00020cb8       DSA_SIG_new                00031cb8 f   libeay32:dsa_sign.obj
 0001:00020cf0       DSA_SIG_free               00031cf0 f   libeay32:dsa_sign.obj
 0001:00020d2c       DSA_do_verify              00031d2c f   libeay32:dsa_vrf.obj
 0001:00020d48       DSA_OpenSSL                00031d48 f   libeay32:dsa_ossl.obj
 0001:00021590       ENGINE_get_default_DSA     00032590 f   libeay32:tb_dsa.obj
 0001:000215ac       ENGINE_get_DSA             000325ac f   libeay32:tb_dsa.obj
 0001:000215b4       BN_mod_exp_recp            000325b4 f   libeay32:bn_exp.obj
 0001:000219c0       BN_mod_exp_mont_consttime  000329c0 f   libeay32:bn_exp.obj
 0001:00021f64       BN_mod_exp_mont_word       00032f64 f   libeay32:bn_exp.obj
 0001:00022384       BN_mod_exp_mont            00033384 f   libeay32:bn_exp.obj
 0001:000227e4       BN_mod_exp                 000337e4 f   libeay32:bn_exp.obj
 0001:00022b4c       BN_from_montgomery         00033b4c f   libeay32:bn_mont.obj
 0001:00022bb8       BN_MONT_CTX_init           00033bb8 f   libeay32:bn_mont.obj
 0001:00022bf0       BN_MONT_CTX_free           00033bf0 f   libeay32:bn_mont.obj
 0001:00022c2c       BN_MONT_CTX_set            00033c2c f   libeay32:bn_mont.obj
 0001:00022df4       BN_MONT_CTX_copy           00033df4 f   libeay32:bn_mont.obj
 0001:00022e70       BN_mod_mul_montgomery      00033e70 f   libeay32:bn_mont.obj
 0001:00022efc       BN_MONT_CTX_new            00033efc f   libeay32:bn_mont.obj
 0001:00022f40       BN_MONT_CTX_set_locked     00033f40 f   libeay32:bn_mont.obj
 0001:00023018       BN_div                     00034018 f   libeay32:bn_div.obj
 0001:000235cc       BN_GENCB_call              000345cc f   libeay32:bn_prime.obj
 0001:00023a30       BN_is_prime_fasttest_ex    00034a30 f   libeay32:bn_prime.obj
 0001:00023e24       BN_generate_prime_ex       00034e24 f   libeay32:bn_prime.obj
 0001:0002418c       ENGINE_get_default_DH      0003518c f   libeay32:tb_dh.obj
 0001:000241a8       ENGINE_get_DH              000351a8 f   libeay32:tb_dh.obj
 0001:000241b0       DH_check_pub_key           000351b0 f   libeay32:dh_check.obj
 0001:0002424c       PKCS1_MGF1                 0003524c f   libeay32:rsa_oaep.obj
 0001:00024374       RSA_padding_add_PKCS1_OAEP 00035374 f   libeay32:rsa_oaep.obj
 0001:0002456c       RSA_padding_check_PKCS1_OAEP 0003556c f   libeay32:rsa_oaep.obj
 0001:000247dc       X509_SIG_it                000357dc f   libeay32:x_sig.obj
 0001:000247e8       d2i_X509_SIG               000357e8 f   libeay32:x_sig.obj
 0001:00024800       i2d_X509_SIG               00035800 f   libeay32:x_sig.obj
 0001:00024818       X509_SIG_free              00035818 f   libeay32:x_sig.obj
 0001:00024830       SHA1_Init                  00035830 f   libeay32:sha1dgst.obj
 0001:00024be8       SHA1_Update                00035be8 f   libeay32:sha1dgst.obj
 0001:00024cf0       SHA1_Final                 00035cf0 f   libeay32:sha1dgst.obj
 0001:00024e60       SHA224_Init                00035e60 f   libeay32:sha256.obj
 0001:00024ee0       SHA256_Init                00035ee0 f   libeay32:sha256.obj
 0001:00025280       SHA256_Update              00036280 f   libeay32:sha256.obj
 0001:00025388       SHA256_Final               00036388 f   libeay32:sha256.obj
 0001:00025510       SHA384_Init                00036510 f   libeay32:sha512.obj
 0001:00025600       SHA512_Init                00036600 f   libeay32:sha512.obj
 0001:00025ec8       SHA512_Final               00036ec8 f   libeay32:sha512.obj
 0001:000260f4       SHA512_Update              000370f4 f   libeay32:sha512.obj
 0001:00026244       CMS_IssuerAndSerialNumber_it 00037244 f   libeay32:cms_asn1.obj
 0001:00026250       CMS_OtherCertificateFormat_it 00037250 f   libeay32:cms_asn1.obj
 0001:0002625c       CMS_CertificateChoices_it  0003725c f   libeay32:cms_asn1.obj
 0001:00026268       CMS_SignerIdentifier_it    00037268 f   libeay32:cms_asn1.obj
 0001:00026274       CMS_EncapsulatedContentInfo_it 00037274 f   libeay32:cms_asn1.obj
 0001:000262bc       CMS_SignerInfo_it          000372bc f   libeay32:cms_asn1.obj
 0001:000262c8       CMS_OtherRevocationInfoFormat_it 000372c8 f   libeay32:cms_asn1.obj
 0001:000262d4       CMS_RevocationInfoChoice_it 000372d4 f   libeay32:cms_asn1.obj
 0001:000262e0       CMS_SignedData_it          000372e0 f   libeay32:cms_asn1.obj
 0001:000262ec       CMS_OriginatorInfo_it      000372ec f   libeay32:cms_asn1.obj
 0001:000262f8       CMS_EncryptedContentInfo_it 000372f8 f   libeay32:cms_asn1.obj
 0001:00026304       CMS_KeyTransRecipientInfo_it 00037304 f   libeay32:cms_asn1.obj
 0001:00026310       CMS_OtherKeyAttribute_it   00037310 f   libeay32:cms_asn1.obj
 0001:0002631c       CMS_RecipientKeyIdentifier_it 0003731c f   libeay32:cms_asn1.obj
 0001:00026328       CMS_KeyAgreeRecipientIdentifier_it 00037328 f   libeay32:cms_asn1.obj
 0001:00026334       CMS_RecipientEncryptedKey_it 00037334 f   libeay32:cms_asn1.obj
 0001:00026340       CMS_OriginatorPublicKey_it 00037340 f   libeay32:cms_asn1.obj
 0001:0002634c       CMS_OriginatorIdentifierOrKey_it 0003734c f   libeay32:cms_asn1.obj
 0001:00026358       CMS_KeyAgreeRecipientInfo_it 00037358 f   libeay32:cms_asn1.obj
 0001:00026364       CMS_KEKIdentifier_it       00037364 f   libeay32:cms_asn1.obj
 0001:00026370       CMS_KEKRecipientInfo_it    00037370 f   libeay32:cms_asn1.obj
 0001:0002637c       CMS_PasswordRecipientInfo_it 0003737c f   libeay32:cms_asn1.obj
 0001:00026388       CMS_OtherRecipientInfo_it  00037388 f   libeay32:cms_asn1.obj
 0001:0002641c       CMS_RecipientInfo_it       0003741c f   libeay32:cms_asn1.obj
 0001:00026428       CMS_EnvelopedData_it       00037428 f   libeay32:cms_asn1.obj
 0001:00026434       CMS_DigestedData_it        00037434 f   libeay32:cms_asn1.obj
 0001:00026440       CMS_EncryptedData_it       00037440 f   libeay32:cms_asn1.obj
 0001:0002644c       CMS_AuthenticatedData_it   0003744c f   libeay32:cms_asn1.obj
 0001:00026458       CMS_CompressedData_it      00037458 f   libeay32:cms_asn1.obj
 0001:000264fc       CMS_Attributes_Sign_it     000374fc f   libeay32:cms_asn1.obj
 0001:00026508       CMS_ReceiptsFrom_it        00037508 f   libeay32:cms_asn1.obj
 0001:00026514       CMS_get0_content           00037514 f   libeay32:cms_lib.obj
 0001:00026604       cms_DigestAlgorithm_init_bio 00037604 f   libeay32:cms_lib.obj
 0001:000266cc       cms_DigestAlgorithm_find_ctx 000376cc f   libeay32:cms_lib.obj
 0001:0002679c       cms_content_bio            0003779c f   libeay32:cms_lib.obj
 0001:000267f8       CMS_dataInit               000377f8 f   libeay32:cms_lib.obj
 0001:000268fc       CMS_dataFinal              000378fc f   libeay32:cms_lib.obj
 0001:00026a64       cms_EncryptedContent_init_bio 00037a64 f   libeay32:cms_enc.obj
 0001:00026e24       cms_EncryptedData_init_bio 00037e24 f   libeay32:cms_enc.obj
 0001:0002702c       CMS_SignerInfo_get0_algs   0003802c f   libeay32:cms_sd.obj
 0001:0002706c       CMS_SignerInfo_sign        0003806c f   libeay32:cms_sd.obj
 0001:000272b8       cms_SignedData_init_bio    000382b8 f   libeay32:cms_sd.obj
 0001:0002751c       cms_SignedData_final       0003851c f   libeay32:cms_sd.obj
 0001:000275ac       X509_PURPOSE_get0          000385ac f   libeay32:v3_purp.obj
 0001:000275f8       X509_PURPOSE_get_by_id     000385f8 f   libeay32:v3_purp.obj
 0001:00027660       X509_supported_extension   00038660 f   libeay32:v3_purp.obj
 0001:000280d8       X509_check_purpose         000390d8 f   libeay32:v3_purp.obj
 0001:00028170       EVP_PKEY_sign_init         00039170 f   libeay32:pmeth_fn.obj
 0001:00028200       EVP_PKEY_sign              00039200 f   libeay32:pmeth_fn.obj
 0001:00028314       EVP_PKEY_verify_init       00039314 f   libeay32:pmeth_fn.obj
 0001:000283a4       EVP_PKEY_verify            000393a4 f   libeay32:pmeth_fn.obj
 0001:00028448       EVP_PKEY_encrypt_init      00039448 f   libeay32:pmeth_fn.obj
 0001:000284d8       EVP_PKEY_encrypt           000394d8 f   libeay32:pmeth_fn.obj
 0001:000285ec       AES_wrap_key               000395ec f   libeay32:aes_wrap.obj
 0001:00028708       AES_set_encrypt_key        00039708 f   libeay32:aes_misc.obj
 0001:00028998       cms_RecipientInfo_pwri_crypt 00039998 f   libeay32:cms_pwri.obj
 0001:00028d08       RSA_PKCS1_SSLeay           00039d08 f   libeay32:rsa_eay.obj
 0001:0002a528       ENGINE_get_default_RSA     0003b528 f   libeay32:tb_rsa.obj
 0001:0002a544       ENGINE_get_RSA             0003b544 f   libeay32:tb_rsa.obj
 0001:0002a54c       bn_mul_add_words           0003b54c f   libeay32:bn_asm.obj
 0001:0002a5a4       bn_mul_words               0003b5a4 f   libeay32:bn_asm.obj
 0001:0002a5f0       bn_sqr_words               0003b5f0 f   libeay32:bn_asm.obj
 0001:0002a61c       bn_div_words               0003b61c f   libeay32:bn_asm.obj
 0001:0002a64c       bn_add_words               0003b64c f   libeay32:bn_asm.obj
 0001:0002a6a0       bn_sub_words               0003b6a0 f   libeay32:bn_asm.obj
 0001:0002e1b8       PKCS5_PBKDF2_HMAC          0003f1b8 f   libeay32:p5_crpt2.obj
 0001:0002e380       PKCS5_v2_PBKDF2_keyivgen   0003f380 f   libeay32:p5_crpt2.obj
 0001:0002e620       PKCS5_v2_PBE_keyivgen      0003f620 f   libeay32:p5_crpt2.obj
 0001:0002e7dc       PKCS12_PBE_keyivgen        0003f7dc f   libeay32:p12_crpt.obj
 0001:0002e9d0       PKCS5_PBE_keyivgen         0003f9d0 f   libeay32:p5_crpt.obj
 0001:0002ec88       RAND_SSLeay                0003fc88 f   libeay32:md_rand.obj
 0001:0002f690       ENGINE_get_default_RAND    00040690 f   libeay32:tb_rand.obj
 0001:0002f6ac       ENGINE_get_RAND            000406ac f   libeay32:tb_rand.obj
 0001:0002f6b4       BUF_MEM_new                000406b4 f   libeay32:buffer.obj
 0001:0002f718       BUF_MEM_free               00040718 f   libeay32:buffer.obj
 0001:0002f758       BUF_MEM_grow               00040758 f   libeay32:buffer.obj
 0001:0002f860       BUF_MEM_grow_clean         00040860 f   libeay32:buffer.obj
 0001:0002f97c       BN_nnmod                   0004097c f   libeay32:bn_mod.obj
 0001:0002f9fc       BN_mod_add                 000409fc f   libeay32:bn_mod.obj
 0001:0002fa38       BN_mod_add_quick           00040a38 f   libeay32:bn_mod.obj
 0001:0002fa90       BN_mod_sub_quick           00040a90 f   libeay32:bn_mod.obj
 0001:0002fae0       BN_mod_mul                 00040ae0 f   libeay32:bn_mod.obj
 0001:0002fb70       BN_mod_sqr                 00040b70 f   libeay32:bn_mod.obj
 0001:0002fbb4       BN_mod_lshift1_quick       00040bb4 f   libeay32:bn_mod.obj
 0001:0002fc0c       BN_mod_lshift_quick        00040c0c f   libeay32:bn_mod.obj
 0001:0002fcfc       ASN1_BIT_STRING_set        00040cfc f   libeay32:a_bitstr.obj
 0001:0002fd0c       i2c_ASN1_BIT_STRING        00040d0c f   libeay32:a_bitstr.obj
 0001:0002fe10       c2i_ASN1_BIT_STRING        00040e10 f   libeay32:a_bitstr.obj
 0001:0002ff54       ASN1_BIT_STRING_set_bit    00040f54 f   libeay32:a_bitstr.obj
 0001:000300a4       ASN1_BIT_STRING_get_bit    000410a4 f   libeay32:a_bitstr.obj
 0001:00030100       asn1_get_choice_selector   00041100 f   libeay32:tasn_utl.obj
 0001:00030110       asn1_set_choice_selector   00041110 f   libeay32:tasn_utl.obj
 0001:0003012c       asn1_do_lock               0004112c f   libeay32:tasn_utl.obj
 0001:000301b0       asn1_enc_init              000411b0 f   libeay32:tasn_utl.obj
 0001:00030208       asn1_enc_free              00041208 f   libeay32:tasn_utl.obj
 0001:0003027c       asn1_enc_save              0004127c f   libeay32:tasn_utl.obj
 0001:00030328       asn1_enc_restore           00041328 f   libeay32:tasn_utl.obj
 0001:000303d0       asn1_get_field_ptr         000413d0 f   libeay32:tasn_utl.obj
 0001:000303e8       asn1_do_adb                000413e8 f   libeay32:tasn_utl.obj
 0001:000304e0       ENGINE_get_cipher_engine   000414e0 f   libeay32:tb_cipher.obj
 0001:000304fc       ENGINE_get_cipher          000414fc f   libeay32:tb_cipher.obj
 0001:00030560       X509_NAME_ENTRY_it         00041560 f   libeay32:x_name.obj
 0001:0003056c       X509_NAME_ENTRY_new        0004156c f   libeay32:x_name.obj
 0001:00030584       X509_NAME_ENTRY_free       00041584 f   libeay32:x_name.obj
 0001:0003059c       X509_NAME_ENTRY_dup        0004159c f   libeay32:x_name.obj
 0001:000305b8       X509_NAME_ENTRIES_it       000415b8 f   libeay32:x_name.obj
 0001:000305c4       X509_NAME_it               000415c4 f   libeay32:x_name.obj
 0001:000305d0       i2d_X509_NAME              000415d0 f   libeay32:x_name.obj
 0001:000305e8       X509_NAME_new              000415e8 f   libeay32:x_name.obj
 0001:00030600       X509_NAME_free             00041600 f   libeay32:x_name.obj
 0001:00030618       X509_NAME_dup              00041618 f   libeay32:x_name.obj
 0001:00030ea4       ASN1_PRINTABLE_type        00041ea4 f   libeay32:a_print.obj
 0001:00030fb8       ASN1_STRING_TABLE_get      00041fb8 f   libeay32:a_strnid.obj
 0001:00031034       ASN1_STRING_set_by_NID     00042034 f   libeay32:a_strnid.obj
 0001:000310f4       i2v_GENERAL_NAME           000420f4 f   libeay32:v3_alt.obj
 0001:000312c4       GENERAL_NAME_print         000422c4 f   libeay32:v3_alt.obj
 0001:000318c8       i2v_GENERAL_NAMES          000428c8 f   libeay32:v3_alt.obj
 0001:0003193c       a2i_GENERAL_NAME           0004293c f   libeay32:v3_alt.obj
 0001:00031bc4       v2i_GENERAL_NAME_ex        00042bc4 f   libeay32:v3_alt.obj
 0001:00031d38       v2i_GENERAL_NAME           00042d38 f   libeay32:v3_alt.obj
 0001:00031ff4       v2i_GENERAL_NAMES          00042ff4 f   libeay32:v3_alt.obj
 0001:000320c4       X509v3_get_ext_count       000430c4 f   libeay32:x509_v3.obj
 0001:000320e4       X509v3_get_ext_by_OBJ      000430e4 f   libeay32:x509_v3.obj
 0001:00032148       X509v3_get_ext             00043148 f   libeay32:x509_v3.obj
 0001:00032190       X509_EXTENSION_get_object  00043190 f   libeay32:x509_v3.obj
 0001:000321a0       X509_EXTENSION_get_critical 000431a0 f   libeay32:x509_v3.obj
 0001:000321c0       X509v3_get_ext_by_NID      000431c0 f   libeay32:x509_v3.obj
 0001:000321fc       DSO_convert_filename       000431fc f   libeay32:dso_lib.obj
 0001:0003233c       CONF_set_nconf             0004333c f   libeay32:conf_lib.obj
 0001:00032380       NCONF_get_section          00043380 f   libeay32:conf_lib.obj
 0001:000323fc       NCONF_get_string           000433fc f   libeay32:conf_lib.obj
 0001:00032494       CONF_get_section           00043494 f   libeay32:conf_lib.obj
 0001:000324d0       CONF_get_string            000434d0 f   libeay32:conf_lib.obj
 0001:00032514       CONF_free                  00043514 f   libeay32:conf_lib.obj
 0001:0003258c       X509_NAME_oneline          0004358c f   libeay32:x509_obj.obj
 0001:0003295c       X509_PUBKEY_it             0004395c f   libeay32:x_pubkey.obj
 0001:00032968       X509_PUBKEY_get            00043968 f   libeay32:x_pubkey.obj
 0001:00032b18       X509_PUBKEY_set0_param     00043b18 f   libeay32:x_pubkey.obj
 0001:00032b98       X509_PUBKEY_get0_param     00043b98 f   libeay32:x_pubkey.obj
 0001:00032ec0       DIST_POINT_NAME_it         00043ec0 f   libeay32:v3_crld.obj
 0001:00032ecc       DIST_POINT_it              00043ecc f   libeay32:v3_crld.obj
 0001:00032ed8       DIST_POINT_free            00043ed8 f   libeay32:v3_crld.obj
 0001:00032ef0       CRL_DIST_POINTS_it         00043ef0 f   libeay32:v3_crld.obj
 0001:00032efc       CRL_DIST_POINTS_free       00043efc f   libeay32:v3_crld.obj
 0001:00032f14       ISSUING_DIST_POINT_it      00043f14 f   libeay32:v3_crld.obj
 0001:00032f20       ISSUING_DIST_POINT_free    00043f20 f   libeay32:v3_crld.obj
 0001:00033268       DIST_POINT_set_dpname      00044268 f   libeay32:v3_crld.obj
 0001:000339a4       POLICY_MAPPING_it          000449a4 f   libeay32:v3_pmaps.obj
 0001:000339b0       POLICY_MAPPINGS_it         000449b0 f   libeay32:v3_pmaps.obj
 0001:000339bc       POLICY_MAPPING_free        000449bc f   libeay32:v3_pmaps.obj
 0001:00033c40       GENERAL_SUBTREE_it         00044c40 f   libeay32:v3_ncons.obj
 0001:00033c4c       NAME_CONSTRAINTS_it        00044c4c f   libeay32:v3_ncons.obj
 0001:00033c58       NAME_CONSTRAINTS_free      00044c58 f   libeay32:v3_ncons.obj
 0001:00035010       POLICY_CONSTRAINTS_it      00046010 f   libeay32:v3_pcons.obj
 0001:000351d0       EXTENDED_KEY_USAGE_it      000461d0 f   libeay32:v3_extku.obj
 0001:00035370       SXNETID_it                 00046370 f   libeay32:v3_sxnet.obj
 0001:0003537c       SXNET_it                   0004637c f   libeay32:v3_sxnet.obj
 0001:00035458       SXNET_get_id_INTEGER       00046458 f   libeay32:v3_sxnet.obj
 0001:000354c8       SXNET_add_id_INTEGER       000464c8 f   libeay32:v3_sxnet.obj
 0001:00035670       SXNET_add_id_asc           00046670 f   libeay32:v3_sxnet.obj
 0001:0003575c       i2s_ASN1_ENUMERATED_TABLE  0004675c f   libeay32:v3_enum.obj
 0001:00035b50       CERTIFICATEPOLICIES_it     00046b50 f   libeay32:v3_cpols.obj
 0001:00035b5c       POLICYINFO_it              00046b5c f   libeay32:v3_cpols.obj
 0001:00035b68       POLICYINFO_free            00046b68 f   libeay32:v3_cpols.obj
 0001:00035b8c       POLICYQUALINFO_it          00046b8c f   libeay32:v3_cpols.obj
 0001:00035b98       POLICYQUALINFO_free        00046b98 f   libeay32:v3_cpols.obj
 0001:00035bb0       USERNOTICE_it              00046bb0 f   libeay32:v3_cpols.obj
 0001:00035bbc       NOTICEREF_it               00046bbc f   libeay32:v3_cpols.obj
 0001:00036850       BASIC_CONSTRAINTS_it       00047850 f   libeay32:v3_bcons.obj
 0001:0003685c       BASIC_CONSTRAINTS_free     0004785c f   libeay32:v3_bcons.obj
 0001:00036a00       PKEY_USAGE_PERIOD_it       00047a00 f   libeay32:v3_pku.obj
 0001:00036abc       i2v_ASN1_BIT_STRING        00047abc f   libeay32:v3_bitst.obj
 0001:00036b20       v2i_ASN1_BIT_STRING        00047b20 f   libeay32:v3_bitst.obj
 0001:00036ca0       i2s_ASN1_OCTET_STRING      00047ca0 f   libeay32:v3_skey.obj
 0001:00036cbc       s2i_ASN1_OCTET_STRING      00047cbc f   libeay32:v3_skey.obj
 0001:00036fe8       X509V3_get_section         00047fe8 f   libeay32:v3_conf.obj
 0001:00037058       X509V3_section_free        00048058 f   libeay32:v3_conf.obj
 0001:000370f4       X509_REQ_INFO_it           000480f4 f   libeay32:x_req.obj
 0001:00037100       X509_digest                00048100 f   libeay32:x_all.obj
 0001:0003713c       X509_CRL_digest            0004813c f   libeay32:x_all.obj
 0001:00037178       X509at_get_attr_count      00048178 f   libeay32:x509_att.obj
 0001:00037188       X509at_get_attr_by_OBJ     00048188 f   libeay32:x509_att.obj
 0001:000371ec       X509at_add1_attr           000481ec f   libeay32:x509_att.obj
 0001:000372c0       X509_ATTRIBUTE_set1_object 000482c0 f   libeay32:x509_att.obj
 0001:00037304       X509_ATTRIBUTE_set1_data   00048304 f   libeay32:x509_att.obj
 0001:00037478       X509at_get_attr_by_NID     00048478 f   libeay32:x509_att.obj
 0001:000374b4       X509_ATTRIBUTE_create_by_OBJ 000484b4 f   libeay32:x509_att.obj
 0001:00037588       X509_ATTRIBUTE_create_by_NID 00048588 f   libeay32:x509_att.obj
 0001:0003760c       X509at_add1_attr_by_NID    0004860c f   libeay32:x509_att.obj
 0001:0003765c       ECDH_OpenSSL               0004865c f   libeay32:ech_ossl.obj
 0001:000379b4       ENGINE_get_default_ECDH    000489b4 f   libeay32:tb_ecdh.obj
 0001:000379d0       ENGINE_get_ECDH            000489d0 f   libeay32:tb_ecdh.obj
 0001:000379d8       ec_GFp_mont_group_init     000489d8 f   libeay32:ecp_mont.obj
 0001:000379f8       ec_GFp_mont_group_finish   000489f8 f   libeay32:ecp_mont.obj
 0001:00037a44       ec_GFp_mont_group_clear_finish 00048a44 f   libeay32:ecp_mont.obj
 0001:00037a90       ec_GFp_mont_group_copy     00048a90 f   libeay32:ecp_mont.obj
 0001:00037b60       ec_GFp_mont_group_set_curve 00048b60 f   libeay32:ecp_mont.obj
 0001:00037cc0       ec_GFp_mont_field_mul      00048cc0 f   libeay32:ecp_mont.obj
 0001:00037d30       ec_GFp_mont_field_sqr      00048d30 f   libeay32:ecp_mont.obj
 0001:00037d9c       ec_GFp_mont_field_encode   00048d9c f   libeay32:ecp_mont.obj
 0001:00037e0c       ec_GFp_mont_field_decode   00048e0c f   libeay32:ecp_mont.obj
 0001:00037e6c       ec_GFp_mont_field_set_to_one 00048e6c f   libeay32:ecp_mont.obj
 0001:00037ed0       EC_GFp_mont_method         00048ed0 f   libeay32:ecp_mont.obj
 0001:00037edc       ec_GFp_nist_group_copy     00048edc f   libeay32:ecp_nist.obj
 0001:00037ef8       ec_GFp_nist_group_set_curve 00048ef8 f   libeay32:ecp_nist.obj
 0001:00038044       ec_GFp_nist_field_mul      00049044 f   libeay32:ecp_nist.obj
 0001:00038120       ec_GFp_nist_field_sqr      00049120 f   libeay32:ecp_nist.obj
 0001:000381ec       EC_GFp_nist_method         000491ec f   libeay32:ecp_nist.obj
 0001:000381f8       ec_GF2m_simple_group_init  000491f8 f   libeay32:ec2_smpl.obj
 0001:00038224       ec_GF2m_simple_group_finish 00049224 f   libeay32:ec2_smpl.obj
 0001:0003824c       ec_GF2m_simple_group_clear_finish 0004924c f   libeay32:ec2_smpl.obj
 0001:00038294       ec_GF2m_simple_group_copy  00049294 f   libeay32:ec2_smpl.obj
 0001:000383e0       ec_GF2m_simple_group_set_curve 000493e0 f   libeay32:ec2_smpl.obj
 0001:00038550       ec_GF2m_simple_group_get_curve 00049550 f   libeay32:ec2_smpl.obj
 0001:000385cc       ec_GF2m_simple_group_get_degree 000495cc f   libeay32:ec2_smpl.obj
 0001:000385e4       ec_GF2m_simple_group_check_discriminant 000495e4 f   libeay32:ec2_smpl.obj
 0001:00038698       ec_GF2m_simple_point_init  00049698 f   libeay32:ec2_smpl.obj
 0001:000386c4       ec_GF2m_simple_point_finish 000496c4 f   libeay32:ec2_smpl.obj
 0001:000386ec       ec_GF2m_simple_point_clear_finish 000496ec f   libeay32:ec2_smpl.obj
 0001:0003871c       ec_GF2m_simple_point_copy  0004971c f   libeay32:ec2_smpl.obj
 0001:00038784       ec_GF2m_simple_point_set_to_infinity 00049784 f   libeay32:ec2_smpl.obj
 0001:000387ac       ec_GF2m_simple_point_set_affine_coordinates 000497ac f   libeay32:ec2_smpl.obj
 0001:00038878       ec_GF2m_simple_point_get_affine_coordinates 00049878 f   libeay32:ec2_smpl.obj
 0001:00038968       ec_GF2m_simple_add         00049968 f   libeay32:ec2_smpl.obj
 0001:00038d6c       ec_GF2m_simple_dbl         00049d6c f   libeay32:ec2_smpl.obj
 0001:00038d90       ec_GF2m_simple_invert      00049d90 f   libeay32:ec2_smpl.obj
 0001:00038dfc       ec_GF2m_simple_is_at_infinity 00049dfc f   libeay32:ec2_smpl.obj
 0001:00038e10       ec_GF2m_simple_is_on_curve 00049e10 f   libeay32:ec2_smpl.obj
 0001:00038fa0       ec_GF2m_simple_cmp         00049fa0 f   libeay32:ec2_smpl.obj
 0001:0003912c       ec_GF2m_simple_make_affine 0004a12c f   libeay32:ec2_smpl.obj
 0001:00039230       ec_GF2m_simple_points_make_affine 0004a230 f   libeay32:ec2_smpl.obj
 0001:00039298       ec_GF2m_simple_field_mul   0004a298 f   libeay32:ec2_smpl.obj
 0001:000392d4       ec_GF2m_simple_field_sqr   0004a2d4 f   libeay32:ec2_smpl.obj
 0001:000392f8       ec_GF2m_simple_field_div   0004a2f8 f   libeay32:ec2_smpl.obj
 0001:00039334       EC_GF2m_simple_method      0004a334 f   libeay32:ec2_smpl.obj
 0001:00039340       BN_mod_exp2_mont           0004a340 f   libeay32:bn_exp2.obj
 0001:000399f4       bn_sqr_normal              0004a9f4 f   libeay32:bn_sqr.obj
 0001:00039ae0       BN_sqr                     0004aae0 f   libeay32:bn_sqr.obj
 0001:00039c18       BN_RECP_CTX_init           0004ac18 f   libeay32:bn_recp.obj
 0001:00039c40       BN_RECP_CTX_free           0004ac40 f   libeay32:bn_recp.obj
 0001:00039c74       BN_RECP_CTX_set            0004ac74 f   libeay32:bn_recp.obj
 0001:00039cc0       BN_reciprocal              0004acc0 f   libeay32:bn_recp.obj
 0001:00039d40       BN_div_recp                0004ad40 f   libeay32:bn_recp.obj
 0001:00039f9c       BN_mod_mul_reciprocal      0004af9c f   libeay32:bn_recp.obj
 0001:0003a048       X509_REVOKED_it            0004b048 f   libeay32:x_crl.obj
 0001:0003a054       X509_CRL_INFO_it           0004b054 f   libeay32:x_crl.obj
 0001:0003a2e4       X509_CRL_it                0004b2e4 f   libeay32:x_crl.obj
 0001:0003a764       X509_CINF_it               0004b764 f   libeay32:x_x509.obj
 0001:0003a860       X509_it                    0004b860 f   libeay32:x_x509.obj
 0001:0003a86c       X509_free                  0004b86c f   libeay32:x_x509.obj
 0001:0003a884       CMS_stream                 0004b884 f   libeay32:cms_io.obj
 0001:0003a920       BIO_f_md                   0004b920 f   libeay32:bio_md.obj
 0001:0003ac8c       BIO_s_mem                  0004bc8c f   libeay32:bss_mem.obj
 0001:0003ac98       BIO_new_mem_buf            0004bc98 f   libeay32:bss_mem.obj
 0001:0003b124       BIO_s_null                 0004c124 f   libeay32:bss_null.obj
 0001:0003b1d8       cms_DigestedData_init_bio  0004c1d8 f   libeay32:cms_dd.obj
 0001:0003b1f0       cms_DigestedData_do_final  0004c1f0 f   libeay32:cms_dd.obj
 0001:0003b2f0       BIO_f_cipher               0004c2f0 f   libeay32:bio_enc.obj
 0001:0003b8c8       ASN1_TIME_it               0004c8c8 f   libeay32:a_time.obj
 0001:0003b8d4       ASN1_TIME_free             0004c8d4 f   libeay32:a_time.obj
 0001:0003b8ec       ASN1_TIME_adj              0004c8ec f   libeay32:a_time.obj
 0001:0003b9bc       ASN1_TIME_check            0004c9bc f   libeay32:a_time.obj
 0001:0003b9f8       CMS_signed_get_attr_count  0004c9f8 f   libeay32:cms_att.obj
 0001:0003ba0c       CMS_signed_get_attr_by_NID 0004ca0c f   libeay32:cms_att.obj
 0001:0003ba20       CMS_signed_add1_attr_by_NID 0004ca20 f   libeay32:cms_att.obj
 0001:0003ba50       X509_time_adj_ex           0004ca50 f   libeay32:x509_vfy.obj
 0001:0003baec       X509_gmtime_adj            0004caec f   libeay32:x509_vfy.obj
 0001:0003bc84       EVP_DigestSignInit         0004cc84 f   libeay32:m_sigver.obj
 0001:0003bcac       EVP_DigestVerifyInit       0004ccac f   libeay32:m_sigver.obj
 0001:0003bcd4       EVP_DigestSignFinal        0004ccd4 f   libeay32:m_sigver.obj
 0001:0003be14       EVP_DigestVerifyFinal      0004ce14 f   libeay32:m_sigver.obj
 0001:0003bee8       EVP_SignFinal              0004cee8 f   libeay32:p_sign.obj
 0001:0003c0b4       PROXY_POLICY_it            0004d0b4 f   libeay32:v3_pcia.obj
 0001:0003c0c0       PROXY_CERT_INFO_EXTENSION_it 0004d0c0 f   libeay32:v3_pcia.obj
 0001:0003c0cc       PROXY_CERT_INFO_EXTENSION_new 0004d0cc f   libeay32:v3_pcia.obj
 0001:0003c0e4       PROXY_CERT_INFO_EXTENSION_free 0004d0e4 f   libeay32:v3_pcia.obj
 0001:0003c0fc       private_AES_set_encrypt_key 0004d0fc f   libeay32:aes_core.obj
 0001:0003c6e0       AES_encrypt                0004d6e0 f   libeay32:aes_core.obj
 0001:0003ce64       d2i_PBE2PARAM              0004de64 f   libeay32:p5_pbev2.obj
 0001:0003ce7c       PBE2PARAM_free             0004de7c f   libeay32:p5_pbev2.obj
 0001:0003ce94       d2i_PBKDF2PARAM            0004de94 f   libeay32:p5_pbev2.obj
 0001:0003ceac       PBKDF2PARAM_free           0004deac f   libeay32:p5_pbev2.obj
 0001:0003cec4       ASN1_item_pack             0004dec4 f   libeay32:asn_pack.obj
 0001:0003cfb4       RSA_padding_add_PKCS1_type_1 0004dfb4 f   libeay32:rsa_pk1.obj
 0001:0003d048       RSA_padding_check_PKCS1_type_1 0004e048 f   libeay32:rsa_pk1.obj
 0001:0003d190       RSA_padding_add_PKCS1_type_2 0004e190 f   libeay32:rsa_pk1.obj
 0001:0003d268       RSA_padding_check_PKCS1_type_2 0004e268 f   libeay32:rsa_pk1.obj
 0001:0003d37c       RSA_padding_add_SSLv23     0004e37c f   libeay32:rsa_ssl.obj
 0001:0003d464       RSA_padding_check_SSLv23   0004e464 f   libeay32:rsa_ssl.obj
 0001:0003d5d4       RSA_padding_add_none       0004e5d4 f   libeay32:rsa_none.obj
 0001:0003d654       RSA_padding_check_none     0004e654 f   libeay32:rsa_none.obj
 0001:0003d6d0       EC_GROUP_get_basis_type    0004e6d0 f   libeay32:ec_asn1.obj
 0001:0003d748       EC_GROUP_get_trinomial_basis 0004e748 f   libeay32:ec_asn1.obj
 0001:0003d7dc       EC_GROUP_get_pentanomial_basis 0004e7dc f   libeay32:ec_asn1.obj
 0001:0003d8a8       X9_62_PENTANOMIAL_it       0004e8a8 f   libeay32:ec_asn1.obj
 0001:0003d8c0       X9_62_CHARACTERISTIC_TWO_it 0004e8c0 f   libeay32:ec_asn1.obj
 0001:0003d8d8       X9_62_FIELDID_it           0004e8d8 f   libeay32:ec_asn1.obj
 0001:0003d8e4       X9_62_CURVE_it             0004e8e4 f   libeay32:ec_asn1.obj
 0001:0003d8f0       ECPARAMETERS_it            0004e8f0 f   libeay32:ec_asn1.obj
 0001:0003d8fc       ECPKPARAMETERS_it          0004e8fc f   libeay32:ec_asn1.obj
 0001:0003edfc       d2i_ECPKParameters         0004fdfc f   libeay32:ec_asn1.obj
 0001:0003eec8       i2d_ECPKParameters         0004fec8 f   libeay32:ec_asn1.obj
 0001:0003ef6c       d2i_ECPrivateKey           0004ff6c f   libeay32:ec_asn1.obj
 0001:0003f228       i2d_ECPrivateKey           00050228 f   libeay32:ec_asn1.obj
 0001:0003f5ac       i2d_ECParameters           000505ac f   libeay32:ec_asn1.obj
 0001:0003f5fc       d2i_ECParameters           000505fc f   libeay32:ec_asn1.obj
 0001:0003f6e0       o2i_ECPublicKey            000506e0 f   libeay32:ec_asn1.obj
 0001:0003f7f4       i2o_ECPublicKey            000507f4 f   libeay32:ec_asn1.obj
 0001:0003f974       PKCS8_PRIV_KEY_INFO_it     00050974 f   libeay32:p8_pkey.obj
 0001:0003f980       PKCS8_pkey_set0            00050980 f   libeay32:p8_pkey.obj
 0001:0003fa30       PKCS8_pkey_get0            00050a30 f   libeay32:p8_pkey.obj
 0001:0003fc18       ECPKParameters_print       00050c18 f   libeay32:eck_prn.obj
 0001:00040200       ASN1_bn_print              00051200 f   libeay32:t_pkey.obj
 0001:000403f4       EC_POINT_point2bn          000513f4 f   libeay32:ec_print.obj
 0001:000404a0       PKCS7_ctrl                 000514a0 f   libeay32:pk7_lib.obj
 0001:000405c4       PKCS7_SIGNER_INFO_get0_algs 000515c4 f   libeay32:pk7_lib.obj
 0001:000405f4       PKCS7_RECIP_INFO_get0_alg  000515f4 f   libeay32:pk7_lib.obj
 0001:00040604       PKCS7_stream               00051604 f   libeay32:pk7_lib.obj
 0001:000406d8       X509_signature_dump        000516d8 f   libeay32:t_x509.obj
 0001:000407c4       ASN1_STRING_print          000517c4 f   libeay32:t_x509.obj
 0001:00040898       ASN1_GENERALIZEDTIME_print 00051898 f   libeay32:t_x509.obj
 0001:00040ab4       X509_NAME_print            00051ab4 f   libeay32:t_x509.obj
 0001:00040c40       d2i_DHparams               00051c40 f   libeay32:dh_asn1.obj
 0001:00040c58       i2d_DHparams               00051c58 f   libeay32:dh_asn1.obj
 0001:00040ccc       RSA_PSS_PARAMS_it          00051ccc f   libeay32:rsa_asn1.obj
 0001:00040cd8       d2i_RSA_PSS_PARAMS         00051cd8 f   libeay32:rsa_asn1.obj
 0001:00040cf0       RSA_PSS_PARAMS_new         00051cf0 f   libeay32:rsa_asn1.obj
 0001:00040d08       RSA_PSS_PARAMS_free        00051d08 f   libeay32:rsa_asn1.obj
 0001:00040d20       d2i_RSAPrivateKey          00051d20 f   libeay32:rsa_asn1.obj
 0001:00040d38       i2d_RSAPrivateKey          00051d38 f   libeay32:rsa_asn1.obj
 0001:00040d50       d2i_RSAPublicKey           00051d50 f   libeay32:rsa_asn1.obj
 0001:00040d68       i2d_RSAPublicKey           00051d68 f   libeay32:rsa_asn1.obj
 0001:00040d80       i2a_ASN1_INTEGER           00051d80 f   libeay32:f_int.obj
 0001:00040ec8       d2i_PBEPARAM               00051ec8 f   libeay32:p5_pbe.obj
 0001:00040ee0       PBEPARAM_free              00051ee0 f   libeay32:p5_pbe.obj
 0001:00040ef8       PKCS12_key_gen_uni         00051ef8 f   libeay32:p12_key.obj
 0001:000413f8       PKCS12_key_gen_asc         000523f8 f   libeay32:p12_key.obj
 0001:0004154c       RAND_poll                  0005254c f   libeay32:rand_win.obj
 0001:0004212c       X509_NAME_print_ex         0005312c f   libeay32:a_strex.obj
 0001:00042170       ASN1_STRING_to_UTF8        00053170 f   libeay32:a_strex.obj
 0001:000424d4       ASN1_mbstring_ncopy        000534d4 f   libeay32:a_mbstr.obj
 0001:000429c4       ASN1_mbstring_copy         000539c4 f   libeay32:a_mbstr.obj
 0001:00043660       ASN1_generate_v3           00054660 f   libeay32:asn1_gen.obj
 0001:00043a90       NCONF_default              00054a90 f   libeay32:conf_def.obj
 0001:00044a10       _CONF_get_section          00055a10 f   libeay32:conf_api.obj
 0001:00044a58       _CONF_get_section_values   00055a58 f   libeay32:conf_api.obj
 0001:00044a78       _CONF_add_string           00055a78 f   libeay32:conf_api.obj
 0001:00044af0       _CONF_get_string           00055af0 f   libeay32:conf_api.obj
 0001:00044c54       _CONF_new_data             00055c54 f   libeay32:conf_api.obj
 0001:00044ca4       _CONF_new_section          00055ca4 f   libeay32:conf_api.obj
 0001:00044e14       _CONF_free_data            00055e14 f   libeay32:conf_api.obj
 0001:00044e68       MD5_Init                   00055e68 f   libeay32:md5_dgst.obj
 0001:00044eb8       md5_block_data_order       00055eb8 f   libeay32:md5_dgst.obj
 0001:00045ab4       MD5_Update                 00056ab4 f   libeay32:md5_dgst.obj
 0001:00045bbc       MD5_Final                  00056bbc f   libeay32:md5_dgst.obj
 0001:00045d0c       OCSP_SIGNATURE_it          00056d0c f   libeay32:ocsp_asn.obj
 0001:00045d18       OCSP_CERTID_it             00056d18 f   libeay32:ocsp_asn.obj
 0001:00045d24       OCSP_ONEREQ_it             00056d24 f   libeay32:ocsp_asn.obj
 0001:00045d30       OCSP_REQINFO_it            00056d30 f   libeay32:ocsp_asn.obj
 0001:00045d3c       OCSP_RESPBYTES_it          00056d3c f   libeay32:ocsp_asn.obj
 0001:00045d48       OCSP_RESPID_it             00056d48 f   libeay32:ocsp_asn.obj
 0001:00045d54       OCSP_REVOKEDINFO_it        00056d54 f   libeay32:ocsp_asn.obj
 0001:00045d60       OCSP_CERTSTATUS_it         00056d60 f   libeay32:ocsp_asn.obj
 0001:00045d6c       OCSP_SINGLERESP_it         00056d6c f   libeay32:ocsp_asn.obj
 0001:00045d78       OCSP_RESPDATA_it           00056d78 f   libeay32:ocsp_asn.obj
 0001:00045d84       OCSP_CRLID_it              00056d84 f   libeay32:ocsp_asn.obj
 0001:00045d90       OCSP_SERVICELOC_it         00056d90 f   libeay32:ocsp_asn.obj
 0001:00045d9c       i2a_ASN1_STRING            00056d9c f   libeay32:f_string.obj
 0001:00045eb8       AUTHORITY_KEYID_it         00056eb8 f   libeay32:v3_akeya.obj
 0001:00045ec4       AUTHORITY_KEYID_new        00056ec4 f   libeay32:v3_akeya.obj
 0001:00045edc       AUTHORITY_KEYID_free       00056edc f   libeay32:v3_akeya.obj
 0001:00045ef4       ASN1_item_verify           00056ef4 f   libeay32:a_verify.obj
 0001:00046194       NETSCAPE_SPKAC_it          00057194 f   libeay32:x_spki.obj
 0001:00046230       PKCS7_it                   00057230 f   libeay32:pk7_asn1.obj
 0001:0004623c       PKCS7_SIGNED_it            0005723c f   libeay32:pk7_asn1.obj
 0001:00046268       PKCS7_SIGNER_INFO_it       00057268 f   libeay32:pk7_asn1.obj
 0001:00046274       PKCS7_ISSUER_AND_SERIAL_it 00057274 f   libeay32:pk7_asn1.obj
 0001:00046280       PKCS7_ENVELOPE_it          00057280 f   libeay32:pk7_asn1.obj
 0001:000462ac       PKCS7_RECIP_INFO_it        000572ac f   libeay32:pk7_asn1.obj
 0001:000462b8       PKCS7_ENC_CONTENT_it       000572b8 f   libeay32:pk7_asn1.obj
 0001:000462c4       PKCS7_SIGN_ENVELOPE_it     000572c4 f   libeay32:pk7_asn1.obj
 0001:000462d0       PKCS7_ENCRYPT_it           000572d0 f   libeay32:pk7_asn1.obj
 0001:000462dc       PKCS7_DIGEST_it            000572dc f   libeay32:pk7_asn1.obj
 0001:000462e8       PKCS7_ATTR_SIGN_it         000572e8 f   libeay32:pk7_asn1.obj
 0001:000462f4       ASN1_item_digest           000572f4 f   libeay32:a_digest.obj
 0001:00046374       ec_GFp_simple_group_init   00057374 f   libeay32:ecp_smpl.obj
 0001:000463a8       ec_GFp_simple_group_finish 000573a8 f   libeay32:ecp_smpl.obj
 0001:000463d0       ec_GFp_simple_group_clear_finish 000573d0 f   libeay32:ecp_smpl.obj
 0001:000463f8       ec_GFp_simple_group_copy   000573f8 f   libeay32:ecp_smpl.obj
 0001:00046460       ec_GFp_simple_group_set_curve 00057460 f   libeay32:ecp_smpl.obj
 0001:0004662c       ec_GFp_simple_group_get_curve 0005762c f   libeay32:ecp_smpl.obj
 0001:0004675c       ec_GFp_simple_group_get_degree 0005775c f   libeay32:ecp_smpl.obj
 0001:00046770       ec_GFp_simple_group_check_discriminant 00057770 f   libeay32:ecp_smpl.obj
 0001:00046994       ec_GFp_simple_point_init   00057994 f   libeay32:ecp_smpl.obj
 0001:000469c8       ec_GFp_simple_point_finish 000579c8 f   libeay32:ecp_smpl.obj
 0001:000469f0       ec_GFp_simple_point_clear_finish 000579f0 f   libeay32:ecp_smpl.obj
 0001:00046a20       ec_GFp_simple_point_copy   00057a20 f   libeay32:ecp_smpl.obj
 0001:00046a88       ec_GFp_simple_point_set_to_infinity 00057a88 f   libeay32:ecp_smpl.obj
 0001:00046ab0       ec_GFp_simple_set_Jprojective_coordinates_GFp 00057ab0 f   libeay32:ecp_smpl.obj
 0001:00046c60       ec_GFp_simple_get_Jprojective_coordinates_GFp 00057c60 f   libeay32:ecp_smpl.obj
 0001:00046db0       ec_GFp_simple_point_set_affine_coordinates 00057db0 f   libeay32:ecp_smpl.obj
 0001:00046e30       ec_GFp_simple_point_get_affine_coordinates 00057e30 f   libeay32:ecp_smpl.obj
 0001:0004716c       ec_GFp_simple_add          0005816c f   libeay32:ecp_smpl.obj
 0001:0004777c       ec_GFp_simple_dbl          0005877c f   libeay32:ecp_smpl.obj
 0001:00047c54       ec_GFp_simple_invert       00058c54 f   libeay32:ecp_smpl.obj
 0001:00047c9c       ec_GFp_simple_is_at_infinity 00058c9c f   libeay32:ecp_smpl.obj
 0001:00047cb0       ec_GFp_simple_is_on_curve  00058cb0 f   libeay32:ecp_smpl.obj
 0001:00047ff0       ec_GFp_simple_cmp          00058ff0 f   libeay32:ecp_smpl.obj
 0001:000482d4       ec_GFp_simple_make_affine  000592d4 f   libeay32:ecp_smpl.obj
 0001:000483f0       ec_GFp_simple_points_make_affine 000593f0 f   libeay32:ecp_smpl.obj
 0001:000488f0       ec_GFp_simple_field_mul    000598f0 f   libeay32:ecp_smpl.obj
 0001:0004892c       ec_GFp_simple_field_sqr    0005992c f   libeay32:ecp_smpl.obj
 0001:00048950       BN_get0_nist_prime_192     00059950 f   libeay32:bn_nist.obj
 0001:0004895c       BN_get0_nist_prime_224     0005995c f   libeay32:bn_nist.obj
 0001:00048968       BN_get0_nist_prime_256     00059968 f   libeay32:bn_nist.obj
 0001:00048974       BN_get0_nist_prime_384     00059974 f   libeay32:bn_nist.obj
 0001:00048980       BN_get0_nist_prime_521     00059980 f   libeay32:bn_nist.obj
 0001:000489dc       BN_nist_mod_192            000599dc f   libeay32:bn_nist.obj
 0001:00048ca4       BN_nist_mod_224            00059ca4 f   libeay32:bn_nist.obj
 0001:00049008       BN_nist_mod_256            0005a008 f   libeay32:bn_nist.obj
 0001:000494c4       BN_nist_mod_384            0005a4c4 f   libeay32:bn_nist.obj
 0001:00049a88       BN_nist_mod_521            0005aa88 f   libeay32:bn_nist.obj
 0001:0004a5ec       ec_GF2m_simple_mul         0005b5ec f   libeay32:ec2_mult.obj
 0001:0004a868       ec_GF2m_precompute_mult    0005b868 f   libeay32:ec2_mult.obj
 0001:0004a878       ec_GF2m_have_precompute_mult 0005b878 f   libeay32:ec2_mult.obj
 0001:0004aa20       BN_GF2m_add                0005ba20 f   libeay32:bn_gf2m.obj
 0001:0004ab14       BN_GF2m_mod_arr            0005bb14 f   libeay32:bn_gf2m.obj
 0001:0004ad8c       BN_GF2m_mod_sqr_arr        0005bd8c f   libeay32:bn_gf2m.obj
 0001:0004af14       BN_GF2m_poly2arr           0005bf14 f   libeay32:bn_gf2m.obj
 0001:0004afb8       BN_GF2m_mod                0005bfb8 f   libeay32:bn_gf2m.obj
 0001:0004b034       BN_GF2m_mod_mul_arr        0005c034 f   libeay32:bn_gf2m.obj
 0001:0004b284       BN_GF2m_mod_mul            0005c284 f   libeay32:bn_gf2m.obj
 0001:0004b348       BN_GF2m_mod_inv            0005c348 f   libeay32:bn_gf2m.obj
 0001:0004b788       BN_GF2m_mod_div            0005c788 f   libeay32:bn_gf2m.obj
 0001:0004b814       BN_GF2m_mod_exp_arr        0005c814 f   libeay32:bn_gf2m.obj
 0001:0004b94c       BN_GF2m_mod_sqrt_arr       0005c94c f   libeay32:bn_gf2m.obj
 0001:0004b9e8       BN_GF2m_mod_solve_quad_arr 0005c9e8 f   libeay32:bn_gf2m.obj
 0001:0004bd48       X509_VAL_it                0005cd48 f   libeay32:x_val.obj
 0001:0004bd54       policy_cache_free          0005cd54 f   libeay32:pcy_cache.obj
 0001:0004bd98       X509_CERT_AUX_free         0005cd98 f   libeay32:x_x509a.obj
 0001:0004bdb0       ASN1_tag2str               0005cdb0 f   libeay32:asn1_par.obj
 0001:0004bdf0       ASN1_GENERALIZEDTIME_check 0005cdf0 f   libeay32:a_gentm.obj
 0001:0004bfcc       ASN1_GENERALIZEDTIME_adj   0005cfcc f   libeay32:a_gentm.obj
 0001:0004c110       ASN1_UTCTIME_check         0005d110 f   libeay32:a_utctm.obj
 0001:0004c29c       ASN1_UTCTIME_adj           0005d29c f   libeay32:a_utctm.obj
 0001:0004c40c       OPENSSL_gmtime             0005d40c f   libeay32:o_time.obj
 0001:0004c584       OPENSSL_gmtime_adj         0005d584 f   libeay32:o_time.obj
 0001:0004c938       EC_POINT_set_compressed_coordinates_GFp 0005d938 f   libeay32:ec_oct.obj
 0001:0004ca30       EC_POINT_set_compressed_coordinates_GF2m 0005da30 f   libeay32:ec_oct.obj
 0001:0004cb28       EC_POINT_point2oct         0005db28 f   libeay32:ec_oct.obj
 0001:0004cc38       EC_POINT_oct2point         0005dc38 f   libeay32:ec_oct.obj
 0001:0004cd30       OPENSSL_asc2uni            0005dd30 f   libeay32:p12_utl.obj
 0001:0004cdd0       UTF8_getc                  0005ddd0 f   libeay32:a_utf8.obj
 0001:0004d0d4       UTF8_putc                  0005e0d4 f   libeay32:a_utf8.obj
 0001:0004e6c8       PKCS7_dataInit             0005f6c8 f   libeay32:pk7_doit.obj
 0001:0004ebec       PKCS7_SIGNER_INFO_sign     0005fbec f   libeay32:pk7_doit.obj
 0001:0004ef5c       PKCS7_add_signed_attribute 0005ff5c f   libeay32:pk7_doit.obj
 0001:0004f074       PKCS7_dataFinal            00060074 f   libeay32:pk7_doit.obj
 0001:0004f4a0       policy_data_free           000604a0 f   libeay32:pcy_data.obj
 0001:0004f4e8       EVP_EncodeInit             000604e8 f   libeay32:encode.obj
 0001:0004f500       EVP_EncodeBlock            00060500 f   libeay32:encode.obj
 0001:0004f5e0       EVP_DecodeInit             000605e0 f   libeay32:encode.obj
 0001:0004f5fc       EVP_DecodeBlock            000605fc f   libeay32:encode.obj
 0001:0004f720       EVP_EncodeUpdate           00060720 f   libeay32:encode.obj
 0001:0004f84c       EVP_EncodeFinal            0006084c f   libeay32:encode.obj
 0001:0004f8a0       EVP_DecodeUpdate           000608a0 f   libeay32:encode.obj
 0001:00051650       ec_GF2m_simple_set_compressed_coordinates 00062650 f   libeay32:ec2_oct.obj
 0001:000518e4       ec_GF2m_simple_point2oct   000628e4 f   libeay32:ec2_oct.obj
 0001:00051c88       ec_GF2m_simple_oct2point   00062c88 f   libeay32:ec2_oct.obj
 0001:00052034       ec_GFp_simple_set_compressed_coordinates 00063034 f   libeay32:ecp_oct.obj
 0001:00052480       ec_GFp_simple_point2oct    00063480 f   libeay32:ecp_oct.obj
 0001:000527f0       ec_GFp_simple_oct2point    000637f0 f   libeay32:ecp_oct.obj
 0001:00052b60       PKCS12_MAC_DATA_it         00063b60 f   libeay32:p12_asn.obj
 0001:00052b78       PKCS12_BAGS_it             00063b78 f   libeay32:p12_asn.obj
 0001:00052b90       PKCS12_SAFEBAG_it          00063b90 f   libeay32:p12_asn.obj
 0001:00052b9c       PKCS7_add0_attrib_signing_time 00063b9c f   libeay32:pk7_attr.obj
 0001:00052c0c       PKCS7_add1_attrib_digest   00063c0c f   libeay32:pk7_attr.obj
 0001:00052c78       UI_get_string_type         00063c78 f   libeay32:ui_lib.obj
 0001:00052c88       UI_get_input_flags         00063c88 f   libeay32:ui_lib.obj
 0001:00052c98       UI_get0_output_string      00063c98 f   libeay32:ui_lib.obj
 0001:00052ca8       UI_get0_action_string      00063ca8 f   libeay32:ui_lib.obj
 0001:00052cd4       UI_get0_result_string      00063cd4 f   libeay32:ui_lib.obj
 0001:00052cf8       UI_get0_test_string        00063cf8 f   libeay32:ui_lib.obj
 0001:00052d1c       BN_kronecker               00063d1c f   libeay32:bn_kron.obj
 0001:00052fd0       BN_mod_sqrt                00063fd0 f   libeay32:bn_sqrt.obj
 0001:00053a28       raise                      00064a28 f   wcecompatex:signal.obj
 0001:00053a30       getenv                     00064a30 f   wcecompatex:env.obj
 0001:00053dfc       w32_filetime_to_time_t     00064dfc f   wcecompatex:time.obj
 0001:00053e9c       time                       00064e9c f   wcecompatex:time.obj
 0001:00053f00       dayOfYear                  00064f00 f   wcecompatex:time.obj
 0001:00053fd4       gmtime                     00064fd4 f   wcecompatex:time.obj
 0001:00054094       ?unicode2ascii@@YAXPB_WPAD@Z 00065094 f   wcecompatex:ts_string.obj
 0001:000540e8       ?ascii2unicode@@YAXPBDPA_WH@Z 000650e8 f   wcecompatex:ts_string.obj
 0001:00054188       ?unicode2ascii@@YAXPB_WPADH@Z 00065188 f   wcecompatex:ts_string.obj
 0001:00054218       printf                     00065218 f   coredll:COREDLL.dll
 0001:00054228       memcmp                     00065228 f   coredll:COREDLL.dll
 0001:00054238       strlen                     00065238 f   coredll:COREDLL.dll
 0001:00054248       memset                     00065248 f   coredll:COREDLL.dll
 0001:00054258       memcpy                     00065258 f   coredll:COREDLL.dll
 0001:00054268       free                       00065268 f   coredll:COREDLL.dll
 0001:00054278       realloc                    00065278 f   coredll:COREDLL.dll
 0001:00054288       malloc                     00065288 f   coredll:COREDLL.dll
 0001:00054298       strcpy                     00065298 f   coredll:COREDLL.dll
 0001:000542a8       strcmp                     000652a8 f   coredll:COREDLL.dll
 0001:000542b8       strncpy                    000652b8 f   coredll:COREDLL.dll
 0001:000542c8       strchr                     000652c8 f   coredll:COREDLL.dll
 0001:000542d8       MessageBoxW                000652d8 f   coredll:COREDLL.dll
 0001:000542e8       _vsnwprintf                000652e8 f   coredll:COREDLL.dll
 0001:000542f8       MultiByteToWideChar        000652f8 f   coredll:COREDLL.dll
 0001:00054308       _getstdfilex               00065308 f   coredll:COREDLL.dll
 0001:00054318       memchr                     00065318 f   coredll:COREDLL.dll
 0001:00054328       atoi                       00065328 f   coredll:COREDLL.dll
 0001:00054338       _isctype                   00065338 f   coredll:COREDLL.dll
 0001:00054348       qsort                      00065348 f   coredll:COREDLL.dll
 0001:00054358       tolower                    00065358 f   coredll:COREDLL.dll
 0001:00054368       strncmp                    00065368 f   coredll:COREDLL.dll
 0001:00054378       sscanf                     00065378 f   coredll:COREDLL.dll
 0001:00054388       fprintf                    00065388 f   coredll:COREDLL.dll
 0001:00054398       _strnicmp                  00065398 f   coredll:COREDLL.dll
 0001:000543a8       fclose                     000653a8 f   coredll:COREDLL.dll
 0001:000543b8       GetLastError               000653b8 f   coredll:COREDLL.dll
 0001:000543c8       ferror                     000653c8 f   coredll:COREDLL.dll
 0001:000543d8       fread                      000653d8 f   coredll:COREDLL.dll
 0001:000543e8       fwrite                     000653e8 f   coredll:COREDLL.dll
 0001:000543f8       _setmode                   000653f8 f   coredll:COREDLL.dll
 0001:00054408       _fileno                    00065408 f   coredll:COREDLL.dll
 0001:00054418       fopen                      00065418 f   coredll:COREDLL.dll
 0001:00054428       fseek                      00065428 f   coredll:COREDLL.dll
 0001:00054438       ftell                      00065438 f   coredll:COREDLL.dll
 0001:00054448       feof                       00065448 f   coredll:COREDLL.dll
 0001:00054458       fflush                     00065458 f   coredll:COREDLL.dll
 0001:00054468       strcat                     00065468 f   coredll:COREDLL.dll
 0001:00054478       fgets                      00065478 f   coredll:COREDLL.dll
 0001:00054488       _wfopen                    00065488 f   coredll:COREDLL.dll
 0001:00054498       strrchr                    00065498 f   coredll:COREDLL.dll
 0001:000544a8       strtoul                    000654a8 f   coredll:COREDLL.dll
 0001:000544b8       _stricmp                   000654b8 f   coredll:COREDLL.dll
 0001:000544c8       memmove                    000654c8 f   coredll:COREDLL.dll
 0001:000544d8       GetTickCount               000654d8 f   coredll:COREDLL.dll
 0001:000544e8       QueryPerformanceCounter    000654e8 f   coredll:COREDLL.dll
 0001:000544f8       GlobalMemoryStatus         000654f8 f   coredll:COREDLL.dll
 0001:00054508       CryptReleaseContext        00065508 f   coredll:COREDLL.dll
 0001:00054518       CryptGenRandom             00065518 f   coredll:COREDLL.dll
 0001:00054528       CryptAcquireContextW       00065528 f   coredll:COREDLL.dll
 0001:00054538       GetVersionExW              00065538 f   coredll:COREDLL.dll
 0001:00054548       LoadLibraryW               00065548 f   coredll:COREDLL.dll
 0001:00054558       SetLastError               00065558 f   coredll:COREDLL.dll
 0001:00054568       FreeLibrary                00065568 f   coredll:COREDLL.dll
 0001:00054578       GetProcAddressA            00065578 f   coredll:COREDLL.dll
 0001:00054588       sprintf                    00065588 f   coredll:COREDLL.dll
 0001:00054598       strstr                     00065598 f   coredll:COREDLL.dll
 0001:000545a8       WideCharToMultiByte        000655a8 f   coredll:COREDLL.dll
 0001:000545b8       fputs                      000655b8 f   coredll:COREDLL.dll
 0001:000545c8       SystemTimeToFileTime       000655c8 f   coredll:COREDLL.dll
 0001:000545d8       GetSystemTime              000655d8 f   coredll:COREDLL.dll
 0001:000545e8       FileTimeToSystemTime       000655e8 f   coredll:COREDLL.dll
 0001:000545f8       _cinit                     000655f8 f   corelibc:crt0dat.obj
 0001:00054768       exit                       00065768 f   corelibc:crt0dat.obj
 0001:00054780       _exit                      00065780 f   corelibc:crt0dat.obj
 0001:000547a0       WinMainCRTStartup          000657a0 f   corelibc:pegwmain.obj
 0001:00054814       WinMain                    00065814 f   wcecompatex:winmain.obj
 0001:00054b70       ?processCmdLine@@YAHPA_WPAPAPAD@Z 00065b70 f   wcecompatex:args.obj
 0001:00054fac       LocalFree                  00065fac f   coredll:COREDLL.dll
 0001:00054fbc       _XcptFilter                00065fbc f   coredll:COREDLL.dll
 0001:00054fcc       __C_specific_handler       00065fcc f   coredll:COREDLL.dll
 0001:00054fdc       FindFirstFileW             00065fdc f   coredll:COREDLL.dll
 0001:00054fec       FindClose                  00065fec f   coredll:COREDLL.dll
 0001:00054ffc       FindNextFileW              00065ffc f   coredll:COREDLL.dll
 0001:0005500c       GetModuleFileNameW         0006600c f   coredll:COREDLL.dll
 0002:00000000       ??_C@_0BJ@NDCLICOI@Now?5is?5the?5time?5for?5all?5?$AA@ 00067000     mdc2test.obj
 0002:0000001c       ??_C@_0L@PKHONMGI@pad2?5?9?5ok?6?$AA@ 0006701c     mdc2test.obj
 0002:00000028       ??_C@_0L@HEPBNLIL@pad1?5?9?5ok?6?$AA@ 00067028     mdc2test.obj
 0002:00000034       ??_C@_0N@NAONKCGF@?5?$DM?9?5correct?6?$AA@ 00067034     mdc2test.obj
 0002:00000044       ??_C@_0P@ICOGIILP@?5?$DM?9?5generated?6?$AA@ 00067044     mdc2test.obj
 0002:00000054       ??_C@_04JFFKLGJF@?$CF02X?$AA@ 00067054     mdc2test.obj
 0002:00000060       ??_C@_0EM@DLBKEKNP@d?3?2wm653wehh?2platform?2mvv210?2src@ 00067060     libeay32:digest.obj
 0002:000000ac       ??_C@_0CI@KPJFNDOF@ctx?9?$DOdigest?9?$DOmd_size?5?$DM?$DN?5EVP_MAX_@ 000670ac     libeay32:digest.obj
 0002:00000128       ??_C@_0EP@HIMPJABG@d?3?2wm653wehh?2platform?2mvv210?2src@ 00067128     libeay32:pmeth_lib.obj
 0002:00000178       ??_C@_06IJPNAHC@digest?$AA@ 00067178     libeay32:pmeth_lib.obj
 0002:00000180       ??_C@_0FC@GLILKHMO@d?3?2wm653wehh?2platform?2mvv210?2src@ 00067180     libeay32:tb_digest.obj
 0002:00000200       ??_C@_0DE@JBNNAKOP@called?5a?5function?5that?5was?5disab@ 00067200     libeay32:err.obj
 0002:00000234       ??_C@_0P@LPIEGNHB@internal?5error?$AA@ 00067234     libeay32:err.obj
 0002:00000244       ??_C@_0BI@MMHLKOF@passed?5a?5null?5parameter?$AA@ 00067244     libeay32:err.obj
 0002:0000025c       ??_C@_0CG@JFIACAPA@called?5a?5function?5you?5should?5not@ 0006725c     libeay32:err.obj
 0002:00000284       ??_C@_0P@BOLAOBGL@malloc?5failure?$AA@ 00067284     libeay32:err.obj
 0002:00000294       ??_C@_05FAMCFOJB@fatal?$AA@ 00067294     libeay32:err.obj
 0002:0000029c       ??_C@_0BB@LLCBNOLO@missing?5asn1?5eos?$AA@ 0006729c     libeay32:err.obj
 0002:000002b0       ??_C@_0BF@JKEELALH@asn1?5length?5mismatch?$AA@ 000672b0     libeay32:err.obj
 0002:000002c8       ??_C@_0BL@PKJJDDDF@expecting?5an?5asn1?5sequence?$AA@ 000672c8     libeay32:err.obj
 0002:000002e4       ??_C@_0BJ@KHBMOGBI@bad?5get?5asn1?5object?5call?$AA@ 000672e4     libeay32:err.obj
 0002:00000300       ??_C@_0BH@LJENPHMF@bad?5asn1?5object?5header?$AA@ 00067300     libeay32:err.obj
 0002:00000318       ??_C@_0BC@JPACPGKL@nested?5asn1?5error?$AA@ 00067318     libeay32:err.obj
 0002:0000032c       ??_C@_06JPOPAJEJ@TS?5lib?$AA@ 0006732c     libeay32:err.obj
 0002:00000334       ??_C@_08BIAIHGB@OCSP?5lib?$AA@ 00067334     libeay32:err.obj
 0002:00000340       ??_C@_0L@NEGIHAGL@ENGINE?5lib?$AA@ 00067340     libeay32:err.obj
 0002:0000034c       ??_C@_07HLMFDJCH@DSO?5lib?$AA@ 0006734c     libeay32:err.obj
 0002:00000354       ??_C@_08IAGEJILJ@RAND?5lib?$AA@ 00067354     libeay32:err.obj
 0002:00000360       ??_C@_0L@FBHADCPC@PKCS12?5lib?$AA@ 00067360     libeay32:err.obj
 0002:0000036c       ??_C@_0L@OHLIEDB@X509V3?5lib?$AA@ 0006736c     libeay32:err.obj
 0002:00000378       ??_C@_09PFAKBDBP@PKCS7?5lib?$AA@ 00067378     libeay32:err.obj
 0002:00000384       ??_C@_07HOAEPDCA@BIO?5lib?$AA@ 00067384     libeay32:err.obj
 0002:0000038c       ??_C@_07ILCPHDLL@SSL?5lib?$AA@ 0006738c     libeay32:err.obj
 0002:00000394       ??_C@_06FNJAJMKI@EC?5lib?$AA@ 00067394     libeay32:err.obj
 0002:0000039c       ??_C@_0L@GEIMIIEL@CRYPTO?5lib?$AA@ 0006739c     libeay32:err.obj
 0002:000003a8       ??_C@_08GDJNHNLC@CONF?5lib?$AA@ 000673a8     libeay32:err.obj
 0002:000003b4       ??_C@_08HAFIEMCJ@ASN1?5lib?$AA@ 000673b4     libeay32:err.obj
 0002:000003c0       ??_C@_08DGLLDICE@X509?5lib?$AA@ 000673c0     libeay32:err.obj
 0002:000003cc       ??_C@_07EBMPFIFH@DSA?5lib?$AA@ 000673cc     libeay32:err.obj
 0002:000003d4       ??_C@_07MKPCAOAJ@PEM?5lib?$AA@ 000673d4     libeay32:err.obj
 0002:000003dc       ??_C@_07LHMLCDLI@OBJ?5lib?$AA@ 000673dc     libeay32:err.obj
 0002:000003e4       ??_C@_07PJHFFEFC@BUF?5lib?$AA@ 000673e4     libeay32:err.obj
 0002:000003ec       ??_C@_07BHNHKGFA@EVP?5lib?$AA@ 000673ec     libeay32:err.obj
 0002:000003f4       ??_C@_06JBCAGHNP@DH?5lib?$AA@ 000673f4     libeay32:err.obj
 0002:000003fc       ??_C@_07PLBLGAPL@RSA?5lib?$AA@ 000673fc     libeay32:err.obj
 0002:00000404       ??_C@_06CEKJLBPI@BN?5lib?$AA@ 00067404     libeay32:err.obj
 0002:0000040c       ??_C@_0L@NFMIFFDK@system?5lib?$AA@ 0006740c     libeay32:err.obj
 0002:00000418       ??_C@_05FHPOAJDB@fread?$AA@ 00067418     libeay32:err.obj
 0002:00000420       ??_C@_07OPAOJOOA@opendir?$AA@ 00067420     libeay32:err.obj
 0002:00000428       ??_C@_0L@LNCNEFCG@WSAstartup?$AA@ 00067428     libeay32:err.obj
 0002:00000434       ??_C@_06MPKMECK@accept?$AA@ 00067434     libeay32:err.obj
 0002:0000043c       ??_C@_06OODDLKLE@listen?$AA@ 0006743c     libeay32:err.obj
 0002:00000444       ??_C@_04NPNJNMMP@bind?$AA@ 00067444     libeay32:err.obj
 0002:0000044c       ??_C@_0M@PBPOCKDG@ioctlsocket?$AA@ 0006744c     libeay32:err.obj
 0002:00000458       ??_C@_06HBELJPBO@socket?$AA@ 00067458     libeay32:err.obj
 0002:00000460       ??_C@_0O@NKLJGHIL@getservbyname?$AA@ 00067460     libeay32:err.obj
 0002:00000470       ??_C@_07KAIBNCHO@connect?$AA@ 00067470     libeay32:err.obj
 0002:00000478       ??_C@_05FFKPLNPJ@fopen?$AA@ 00067478     libeay32:err.obj
 0002:00000480       ??_C@_0O@PBJMEGGG@HMAC?5routines?$AA@ 00067480     libeay32:err.obj
 0002:00000490       ??_C@_0N@MKJBFBO@CMS?5routines?$AA@ 00067490     libeay32:err.obj
 0002:000004a0       ??_C@_0O@MDPFBMCI@FIPS?5routines?$AA@ 000674a0     libeay32:err.obj
 0002:000004b0       ??_C@_0O@LJIADBLP@OCSP?5routines?$AA@ 000674b0     libeay32:err.obj
 0002:000004c0       ??_C@_0BA@MMHCJFKD@engine?5routines?$AA@ 000674c0     libeay32:err.obj
 0002:000004d0       ??_C@_0BE@IMHDPIMO@time?5stamp?5routines?$AA@ 000674d0     libeay32:err.obj
 0002:000004e4       ??_C@_0BF@BDHLAIEM@DSO?5support?5routines?$AA@ 000674e4     libeay32:err.obj
 0002:000004fc       ??_C@_0BI@GMPKPCPG@random?5number?5generator?$AA@ 000674fc     libeay32:err.obj
 0002:00000514       ??_C@_0BA@KPFPMFD@PKCS12?5routines?$AA@ 00067514     libeay32:err.obj
 0002:00000524       ??_C@_0BB@LKDEPKLM@X509?5V3?5routines?$AA@ 00067524     libeay32:err.obj
 0002:00000538       ??_C@_0P@FBDCKDAN@PKCS7?5routines?$AA@ 00067538     libeay32:err.obj
 0002:00000548       ??_C@_0N@HGNFKBOI@BIO?5routines?$AA@ 00067548     libeay32:err.obj
 0002:00000558       ??_C@_0N@GAIJLNCL@SSL?5routines?$AA@ 00067558     libeay32:err.obj
 0002:00000568       ??_C@_0BI@NNCFPCDI@elliptic?5curve?5routines?$AA@ 00067568     libeay32:err.obj
 0002:00000580       ??_C@_0BK@GOIAPJCF@common?5libcrypto?5routines?$AA@ 00067580     libeay32:err.obj
 0002:0000059c       ??_C@_0BM@FNIFPKKP@configuration?5file?5routines?$AA@ 0006759c     libeay32:err.obj
 0002:000005b8       ??_C@_0BH@OKMDKJBH@asn1?5encoding?5routines?$AA@ 000675b8     libeay32:err.obj
 0002:000005d0       ??_C@_0BK@MLDIFNOG@x509?5certificate?5routines?$AA@ 000675d0     libeay32:err.obj
 0002:000005ec       ??_C@_0N@EPLKEPHE@dsa?5routines?$AA@ 000675ec     libeay32:err.obj
 0002:000005fc       ??_C@_0N@PPOIEGDJ@PEM?5routines?$AA@ 000675fc     libeay32:err.obj
 0002:0000060c       ??_C@_0BL@GAJLDLEG@object?5identifier?5routines?$AA@ 0006760c     libeay32:err.obj
 0002:00000628       ??_C@_0BH@GHBGFOKA@memory?5buffer?5routines?$AA@ 00067628     libeay32:err.obj
 0002:00000640       ??_C@_0BK@KCBHLAIJ@digital?5envelope?5routines?$AA@ 00067640     libeay32:err.obj
 0002:0000065c       ??_C@_0BI@BELEOFAM@Diffie?9Hellman?5routines?$AA@ 0006765c     libeay32:err.obj
 0002:00000674       ??_C@_0N@FLFIDGHD@rsa?5routines?$AA@ 00067674     libeay32:err.obj
 0002:00000684       ??_C@_0BA@BALAMMCD@bignum?5routines?$AA@ 00067684     libeay32:err.obj
 0002:00000694       ??_C@_0P@KJHLNCML@system?5library?$AA@ 00067694     libeay32:err.obj
 0002:000006a4       ??_C@_0BA@JLJAKIKL@unknown?5library?$AA@ 000676a4     libeay32:err.obj
 0002:000006b8       ??_C@_0EJ@LLHEHHLL@d?3?2wm653wehh?2platform?2mvv210?2src@ 000676b8     libeay32:err.obj
 0002:00000704       ??_C@_0BE@CGMKPIME@int_err_get?5?$CIerr?4c?$CJ?$AA@ 00067704     libeay32:err.obj
 0002:00000718       ??_C@_0BH@KBGLDIDO@int_thread_get?5?$CIerr?4c?$CJ?$AA@ 00067718     libeay32:err.obj
 0002:0000072f       ??_C@_00CNPNBAHC@?$AA@     0006772f     libeay32:err.obj
 0002:00000730       ??_C@_0FB@FHJDMCII@d?3?2wm653wehh?2platform?2mvv210?2src@ 00067730     libeay32:eng_init.obj
 0002:00000788       ??_C@_0EN@HNCBNDLA@d?3?2wm653wehh?2platform?2mvv210?2src@ 00067788     libeay32:evp_lib.obj
 0002:000007d8       ??_C@_0BD@LHHAEAAJ@l?5?$DM?$DN?5sizeof?$CIc?9?$DOiv?$CJ?$AA@ 000677d8     libeay32:evp_lib.obj
 0002:000007ec       ??_C@_0BD@CKKMELBK@j?5?$DM?$DN?5sizeof?$CIc?9?$DOiv?$CJ?$AA@ 000677ec     libeay32:evp_lib.obj
 0002:000008ac       ??_C@_05NEEKIFMD@fips2?$AA@ 000678ac     libeay32:cryptlib.obj
 0002:000008b4       ??_C@_04DJGCHAOD@fips?$AA@ 000678b4     libeay32:cryptlib.obj
 0002:000008bc       ??_C@_04OLDKMDKP@comp?$AA@ 000678bc     libeay32:cryptlib.obj
 0002:000008c4       ??_C@_05ODGDKDLF@store?$AA@ 000678c4     libeay32:cryptlib.obj
 0002:000008cc       ??_C@_0M@FNJFEIGB@ec_pre_comp?$AA@ 000678cc     libeay32:cryptlib.obj
 0002:000008d8       ??_C@_02LAJDHPIK@bn?$AA@   000678d8     libeay32:cryptlib.obj
 0002:000008dc       ??_C@_04KDGGCKGB@ecdh?$AA@ 000678dc     libeay32:cryptlib.obj
 0002:000008e4       ??_C@_02HCBHEC@ec?$AA@     000678e4     libeay32:cryptlib.obj
 0002:000008e8       ??_C@_05FGIDCBJD@ecdsa?$AA@ 000678e8     libeay32:cryptlib.obj
 0002:000008f0       ??_C@_02OGLLFMLI@ui?$AA@   000678f0     libeay32:cryptlib.obj
 0002:000008f4       ??_C@_06LOBMEHPF@engine?$AA@ 000678f4     libeay32:cryptlib.obj
 0002:000008fc       ??_C@_07HGGNMPAJ@dynlock?$AA@ 000678fc     libeay32:cryptlib.obj
 0002:00000904       ??_C@_03NOCNOBNG@dso?$AA@  00067904     libeay32:cryptlib.obj
 0002:00000908       ??_C@_0O@PMFKBDME@debug_malloc2?$AA@ 00067908     libeay32:cryptlib.obj
 0002:00000918       ??_C@_02OCEEKELO@dh?$AA@   00067918     libeay32:cryptlib.obj
 0002:0000091c       ??_C@_0N@BGAJKBNF@RSA_blinding?$AA@ 0006791c     libeay32:cryptlib.obj
 0002:0000092c       ??_C@_07OMHHFDME@readdir?$AA@ 0006792c     libeay32:cryptlib.obj
 0002:00000934       ??_C@_0O@BFBCKHPD@gethostbyname?$AA@ 00067934     libeay32:cryptlib.obj
 0002:00000944       ??_C@_03OHAMFFNA@BIO?$AA@  00067944     libeay32:cryptlib.obj
 0002:00000948       ??_C@_0N@CLEMOJNL@debug_malloc?$AA@ 00067948     libeay32:cryptlib.obj
 0002:00000958       ??_C@_05NFNCBLNG@rand2?$AA@ 00067958     libeay32:cryptlib.obj
 0002:00000960       ??_C@_04HKINGDKC@rand?$AA@ 00067960     libeay32:cryptlib.obj
 0002:00000968       ??_C@_0L@NKBFNPDB@ssl_method?$AA@ 00067968     libeay32:cryptlib.obj
 0002:00000974       ??_C@_03DIMONNDD@ssl?$AA@  00067974     libeay32:cryptlib.obj
 0002:00000978       ??_C@_0O@LOCLBOHA@ssl_sess_cert?$AA@ 00067978     libeay32:cryptlib.obj
 0002:00000988       ??_C@_0M@OAEAFGMD@ssl_session?$AA@ 00067988     libeay32:cryptlib.obj
 0002:00000994       ??_C@_08INIFBEOB@ssl_cert?$AA@ 00067994     libeay32:cryptlib.obj
 0002:000009a0       ??_C@_07DNHKIAPH@ssl_ctx?$AA@ 000679a0     libeay32:cryptlib.obj
 0002:000009a8       ??_C@_0L@JCDDFIOK@x509_store?$AA@ 000679a8     libeay32:cryptlib.obj
 0002:000009b4       ??_C@_08NBJJIGBN@evp_pkey?$AA@ 000679b4     libeay32:cryptlib.obj
 0002:000009c0       ??_C@_03DFNMMEBL@rsa?$AA@  000679c0     libeay32:cryptlib.obj
 0002:000009c4       ??_C@_03EAKOMMFI@dsa?$AA@  000679c4     libeay32:cryptlib.obj
 0002:000009c8       ??_C@_08BHPLFFMD@x509_req?$AA@ 000679c8     libeay32:cryptlib.obj
 0002:000009d4       ??_C@_08BJFLLMNA@x509_crl?$AA@ 000679d4     libeay32:cryptlib.obj
 0002:000009e0       ??_C@_09HNLHIFBP@x509_pkey?$AA@ 000679e0     libeay32:cryptlib.obj
 0002:000009ec       ??_C@_09DJEHILFA@x509_info?$AA@ 000679ec     libeay32:cryptlib.obj
 0002:000009f8       ??_C@_04BNGFMDFF@x509?$AA@ 000679f8     libeay32:cryptlib.obj
 0002:00000a00       ??_C@_07OALPHBKG@ex_data?$AA@ 00067a00     libeay32:cryptlib.obj
 0002:00000a08       ??_C@_03JIDPIAJI@err?$AA@  00067a08     libeay32:cryptlib.obj
 0002:00000a0c       ??_C@_09OGFJIAEE@?$DM?$DMERROR?$DO?$DO?$AA@ 00067a0c     libeay32:cryptlib.obj
 0002:00000a18       ??_C@_0EK@JACEKOIE@d?3?2wm653wehh?2platform?2mvv210?2src@ 00067a18     libeay32:cryptlib.obj
 0002:00000a64       ??_C@_1BO@DCCMIJEM@?$AAO?$AAp?$AAe?$AAn?$AAS?$AAS?$AAL?$AA?3?$AA?5?$AAF?$AAA?$AAT?$AAA?$AAL?$AA?$AA@ 00067a64     libeay32:cryptlib.obj
 0002:00000a84       ??_C@_1BE@NLCFDLCA@?$AAn?$AAo?$AA?5?$AAs?$AAt?$AAa?$AAc?$AAk?$AA?$DP?$AA?$AA@ 00067a84     libeay32:cryptlib.obj
 0002:00000a98       ??_C@_0DG@JJAMFCAP@?$CFs?$CI?$CFd?$CJ?3?5OpenSSL?5internal?5error?0?5@ 00067a98     libeay32:cryptlib.obj
 0002:00000ad0       ??_C@_0BA@LPBALOME@pointer?5?$CB?$DN?5NULL?$AA@ 00067ad0     libeay32:cryptlib.obj
 0002:00000ae0       ??_C@_0EO@KJLCAEHF@d?3?2wm653wehh?2platform?2mvv210?2src@ 00067ae0     libeay32:rsa_saos.obj
 0002:00000b30       cmac_pkey_meth             00067b30     libeay32:cm_pmeth.obj
 0002:00000b9c       ??_C@_06BHJHKMJC@hexkey?$AA@ 00067b9c     libeay32:cm_pmeth.obj
 0002:00000ba4       ??_C@_06KDGDAFPH@cipher?$AA@ 00067ba4     libeay32:cm_pmeth.obj
 0002:00000bac       ??_C@_03ICHNJLJF@key?$AA@  00067bac     libeay32:cm_pmeth.obj
 0002:00000bb0       hmac_pkey_meth             00067bb0     libeay32:hm_pmeth.obj
 0002:00000c20       ??_C@_0EP@PNIBEDF@d?3?2wm653wehh?2platform?2mvv210?2src@ 00067c20     libeay32:hm_pmeth.obj
 0002:00000c70       ec_pkey_meth               00067c70     libeay32:ec_pmeth.obj
 0002:00000ce0       ??_C@_0EN@FGGHDHMC@d?3?2wm653wehh?2platform?2mvv210?2src@ 00067ce0     libeay32:ec_pmeth.obj
 0002:00000d30       ??_C@_0BC@BLCJLNNM@ec_paramgen_curve?$AA@ 00067d30     libeay32:ec_pmeth.obj
 0002:00000d48       dsa_pkey_meth              00067d48     libeay32:dsa_pmeth.obj
 0002:00000db8       ??_C@_0EP@KECMJLCG@d?3?2wm653wehh?2platform?2mvv210?2src@ 00067db8     libeay32:dsa_pmeth.obj
 0002:00000e08       ??_C@_0BA@HDLNDIMK@dsa_paramgen_md?$AA@ 00067e08     libeay32:dsa_pmeth.obj
 0002:00000e18       ??_C@_0BE@JHBKDNPA@dsa_paramgen_q_bits?$AA@ 00067e18     libeay32:dsa_pmeth.obj
 0002:00000e2c       ??_C@_0BC@DOMHFBFC@dsa_paramgen_bits?$AA@ 00067e2c     libeay32:dsa_pmeth.obj
 0002:00000e40       dh_pkey_meth               00067e40     libeay32:dh_pmeth.obj
 0002:00000eb0       ??_C@_0EN@BFMPENCA@d?3?2wm653wehh?2platform?2mvv210?2src@ 00067eb0     libeay32:dh_pmeth.obj
 0002:00000f00       ??_C@_0BG@POLEFOHA@dh_paramgen_generator?$AA@ 00067f00     libeay32:dh_pmeth.obj
 0002:00000f18       ??_C@_0BG@LEMCDPBI@dh_paramgen_prime_len?$AA@ 00067f18     libeay32:dh_pmeth.obj
 0002:00000f30       rsa_pkey_meth              00067f30     libeay32:rsa_pmeth.obj
 0002:00000fa0       ??_C@_0EP@PCLPIEEA@d?3?2wm653wehh?2platform?2mvv210?2src@ 00067fa0     libeay32:rsa_pmeth.obj
 0002:00000ff0       ??_C@_0BC@DMECNPFD@rsa_keygen_pubexp?$AA@ 00067ff0     libeay32:rsa_pmeth.obj
 0002:00001004       ??_C@_0BA@GFPKPLAF@rsa_keygen_bits?$AA@ 00068004     libeay32:rsa_pmeth.obj
 0002:00001014       ??_C@_0BA@CIHMEEHB@rsa_pss_saltlen?$AA@ 00068014     libeay32:rsa_pmeth.obj
 0002:00001024       ??_C@_03OHCBHMED@pss?$AA@  00068024     libeay32:rsa_pmeth.obj
 0002:00001028       ??_C@_04JNCMEILM@x931?$AA@ 00068028     libeay32:rsa_pmeth.obj
 0002:00001030       ??_C@_04EIGNDHKO@oeap?$AA@ 00068030     libeay32:rsa_pmeth.obj
 0002:00001038       ??_C@_04CGFJFPFD@none?$AA@ 00068038     libeay32:rsa_pmeth.obj
 0002:00001040       ??_C@_06PDLHKEJK@sslv23?$AA@ 00068040     libeay32:rsa_pmeth.obj
 0002:00001048       ??_C@_05BCIEJMJH@pkcs1?$AA@ 00068048     libeay32:rsa_pmeth.obj
 0002:00001050       ??_C@_0BB@BILFEOKG@rsa_padding_mode?$AA@ 00068050     libeay32:rsa_pmeth.obj
 0002:0000a800       ??_C@_09FHIEKOPH@rsaesOaep?$AA@ 00071800     libeay32:obj_dat.obj
 0002:0000a80c       ??_C@_0L@NCPDMLAN@RSAES?9OAEP?$AA@ 0007180c     libeay32:obj_dat.obj
 0002:0000a818       ??_C@_0BG@MBIALEGA@aes?9256?9cbc?9hmac?9sha1?$AA@ 00071818     libeay32:obj_dat.obj
 0002:0000a830       ??_C@_0BG@NJKHMG@AES?9256?9CBC?9HMAC?9SHA1?$AA@ 00071830     libeay32:obj_dat.obj
 0002:0000a848       ??_C@_0BG@GKCPENNE@aes?9192?9cbc?9hmac?9sha1?$AA@ 00071848     libeay32:obj_dat.obj
 0002:0000a860       ??_C@_0BG@KLHGFOHC@AES?9192?9CBC?9HMAC?9SHA1?$AA@ 00071860     libeay32:obj_dat.obj
 0002:0000a878       ??_C@_0BG@CLBGODOC@aes?9128?9cbc?9hmac?9sha1?$AA@ 00071878     libeay32:obj_dat.obj
 0002:0000a890       ??_C@_0BG@OKEPPAEE@AES?9128?9CBC?9HMAC?9SHA1?$AA@ 00071890     libeay32:obj_dat.obj
 0002:0000a8a8       ??_C@_0N@EFPJLHOG@rc4?9hmac?9md5?$AA@ 000718a8     libeay32:obj_dat.obj
 0002:0000a8b8       ??_C@_0N@MFFPBCGK@RC4?9HMAC?9MD5?$AA@ 000718b8     libeay32:obj_dat.obj
 0002:0000a8c8       ??_C@_0M@FHDOMLNI@aes?9256?9xts?$AA@ 000718c8     libeay32:obj_dat.obj
 0002:0000a8d4       ??_C@_0M@ILDFFBFL@AES?9256?9XTS?$AA@ 000718d4     libeay32:obj_dat.obj
 0002:0000a8e0       ??_C@_0M@CGBMJDMF@aes?9128?9xts?$AA@ 000718e0     libeay32:obj_dat.obj
 0002:0000a8ec       ??_C@_0M@PKBHAJEG@AES?9128?9XTS?$AA@ 000718ec     libeay32:obj_dat.obj
 0002:0000a8f8       ??_C@_09FGGKIFKD@rsassaPss?$AA@ 000718f8     libeay32:obj_dat.obj
 0002:0000a904       ??_C@_0L@CPMAKEFG@RSASSA?9PSS?$AA@ 00071904     libeay32:obj_dat.obj
 0002:0000a910       ??_C@_04HEIJMEIE@mgf1?$AA@ 00071910     libeay32:obj_dat.obj
 0002:0000a918       ??_C@_04CNDHACFO@MGF1?$AA@ 00071918     libeay32:obj_dat.obj
 0002:0000a920       ??_C@_0BH@FHBOBBKO@Any?5Extended?5Key?5Usage?$AA@ 00071920     libeay32:obj_dat.obj
 0002:0000a938       ??_C@_0BE@FKFLDMON@anyExtendedKeyUsage?$AA@ 00071938     libeay32:obj_dat.obj
 0002:0000a94c       ??_C@_0BE@PHKLGFJC@id?9camellia256?9wrap?$AA@ 0007194c     libeay32:obj_dat.obj
 0002:0000a960       ??_C@_0BE@GNMGGIAL@id?9camellia192?9wrap?$AA@ 00071960     libeay32:obj_dat.obj
 0002:0000a974       ??_C@_0BE@JENMCLBD@id?9camellia128?9wrap?$AA@ 00071974     libeay32:obj_dat.obj
 0002:0000a988       ??_C@_0M@MJDNCKAH@aes?9256?9ctr?$AA@ 00071988     libeay32:obj_dat.obj
 0002:0000a994       ??_C@_0M@BFDGLAIE@AES?9256?9CTR?$AA@ 00071994     libeay32:obj_dat.obj
 0002:0000a9a0       ??_C@_0M@BLIDAFIG@aes?9192?9ctr?$AA@ 000719a0     libeay32:obj_dat.obj
 0002:0000a9ac       ??_C@_0M@MHIIJPAF@AES?9192?9CTR?$AA@ 000719ac     libeay32:obj_dat.obj
 0002:0000a9b8       ??_C@_0M@LIBPHCBK@aes?9128?9ctr?$AA@ 000719b8     libeay32:obj_dat.obj
 0002:0000a9c4       ??_C@_0M@GEBEOIJJ@AES?9128?9CTR?$AA@ 000719c4     libeay32:obj_dat.obj
 0002:0000a9d0       ??_C@_0BD@OHLFOIJM@id?9aes256?9wrap?9pad?$AA@ 000719d0     libeay32:obj_dat.obj
 0002:0000a9e4       ??_C@_0M@BNAOJBGM@aes?9256?9ccm?$AA@ 000719e4     libeay32:obj_dat.obj
 0002:0000a9f0       ??_C@_0O@EDMKMBKB@id?9aes256?9CCM?$AA@ 000719f0     libeay32:obj_dat.obj
 0002:0000aa00       ??_C@_0M@JCGMAGDL@aes?9256?9gcm?$AA@ 00071a00     libeay32:obj_dat.obj
 0002:0000aa0c       ??_C@_0O@MMKIFGPG@id?9aes256?9GCM?$AA@ 00071a0c     libeay32:obj_dat.obj
 0002:0000aa1c       ??_C@_0BD@OPKMLKFB@id?9aes192?9wrap?9pad?$AA@ 00071a1c     libeay32:obj_dat.obj
 0002:0000aa30       ??_C@_0M@MPLALOON@aes?9192?9ccm?$AA@ 00071a30     libeay32:obj_dat.obj
 0002:0000aa3c       ??_C@_0O@JBHEOOCA@id?9aes192?9CCM?$AA@ 00071a3c     libeay32:obj_dat.obj
 0002:0000aa4c       ??_C@_0M@EANCCJLK@aes?9192?9gcm?$AA@ 00071a4c     libeay32:obj_dat.obj
 0002:0000aa58       ??_C@_0O@BOBGHJHH@id?9aes192?9GCM?$AA@ 00071a58     libeay32:obj_dat.obj
 0002:0000aa68       ??_C@_0BD@HMJBEGNL@id?9aes128?9wrap?9pad?$AA@ 00071a68     libeay32:obj_dat.obj
 0002:0000aa7c       ??_C@_0M@GMCMMJHB@aes?9128?9ccm?$AA@ 00071a7c     libeay32:obj_dat.obj
 0002:0000aa88       ??_C@_0O@DCOIJJLM@id?9aes128?9CCM?$AA@ 00071a88     libeay32:obj_dat.obj
 0002:0000aa98       ??_C@_0M@ODEOFOCG@aes?9128?9gcm?$AA@ 00071a98     libeay32:obj_dat.obj
 0002:0000aaa4       ??_C@_0O@LNIKAOOL@id?9aes128?9GCM?$AA@ 00071aa4     libeay32:obj_dat.obj
 0002:0000aab4       ??_C@_04CJMGLDNC@cmac?$AA@ 00071ab4     libeay32:obj_dat.obj
 0002:0000aabc       ??_C@_04OFPMFBKK@CMAC?$AA@ 00071abc     libeay32:obj_dat.obj
 0002:0000aac4       ??_C@_0BA@NJOHMDIG@id?9alg?9PWRI?9KEK?$AA@ 00071ac4     libeay32:obj_dat.obj
 0002:0000aad4       ??_C@_07ILKEFPGB@dmdName?$AA@ 00071ad4     libeay32:obj_dat.obj
 0002:0000aadc       ??_C@_0BE@MNOFELKF@deltaRevocationList?$AA@ 00071adc     libeay32:obj_dat.obj
 0002:0000aaf0       ??_C@_0BE@KGOGIPEN@supportedAlgorithms?$AA@ 00071af0     libeay32:obj_dat.obj
 0002:0000ab04       ??_C@_0BA@EKKIBBF@houseIdentifier?$AA@ 00071b04     libeay32:obj_dat.obj
 0002:0000ab14       ??_C@_0N@FIGDLDDJ@uniqueMember?$AA@ 00071b14     libeay32:obj_dat.obj
 0002:0000ab24       ??_C@_0BC@IIJOGNNH@distinguishedName?$AA@ 00071b24     libeay32:obj_dat.obj
 0002:0000ab38       ??_C@_0BE@FKAMNJMM@protocolInformation?$AA@ 00071b38     libeay32:obj_dat.obj
 0002:0000ab4c       ??_C@_0BE@NNAGLFEM@enhancedSearchGuide?$AA@ 00071b4c     libeay32:obj_dat.obj
 0002:0000ab60       ??_C@_0BF@GAAPBDAE@crossCertificatePair?$AA@ 00071b60     libeay32:obj_dat.obj
 0002:0000ab78       ??_C@_0BK@IMFDMOND@certificateRevocationList?$AA@ 00071b78     libeay32:obj_dat.obj
 0002:0000ab94       ??_C@_0BI@EODAEBFG@authorityRevocationList?$AA@ 00071b94     libeay32:obj_dat.obj
 0002:0000abac       ??_C@_0O@JJCNKCKK@cACertificate?$AA@ 00071bac     libeay32:obj_dat.obj
 0002:0000abbc       ??_C@_0BA@FEECIELF@userCertificate?$AA@ 00071bbc     libeay32:obj_dat.obj
 0002:0000abcc       ??_C@_0N@JHMNNHKM@userPassword?$AA@ 00071bcc     libeay32:obj_dat.obj
 0002:0000abdc       ??_C@_07JJAENDGN@seeAlso?$AA@ 00071bdc     libeay32:obj_dat.obj
 0002:0000abe4       ??_C@_0N@NAEJMDPF@roleOccupant?$AA@ 00071be4     libeay32:obj_dat.obj
 0002:0000abf4       ??_C@_05HEIBENID@owner?$AA@ 00071bf4     libeay32:obj_dat.obj
 0002:0000abfc       ??_C@_06HDFDANIG@member?$AA@ 00071bfc     libeay32:obj_dat.obj
 0002:0000ac04       ??_C@_0BM@NHJFOGBI@supportedApplicationContext?$AA@ 00071c04     libeay32:obj_dat.obj
 0002:0000ac20       ??_C@_0BE@KHACCONJ@presentationAddress?$AA@ 00071c20     libeay32:obj_dat.obj
 0002:0000ac34       ??_C@_0BI@MKMMOKIA@preferredDeliveryMethod?$AA@ 00071c34     libeay32:obj_dat.obj
 0002:0000ac4c       ??_C@_0BF@CMAFNEOO@destinationIndicator?$AA@ 00071c4c     libeay32:obj_dat.obj
 0002:0000ac64       ??_C@_0BC@DLLOJDNE@registeredAddress?$AA@ 00071c64     libeay32:obj_dat.obj
 0002:0000ac78       ??_C@_0BI@OAHCBLEE@internationaliSDNNumber?$AA@ 00071c78     libeay32:obj_dat.obj
 0002:0000ac90       ??_C@_0M@MOCAHDLJ@x121Address?$AA@ 00071c90     libeay32:obj_dat.obj
 0002:0000ac9c       ??_C@_0BJ@NDMMBDAB@facsimileTelephoneNumber?$AA@ 00071c9c     libeay32:obj_dat.obj
 0002:0000acb8       ??_C@_0BK@BBNEJJDC@teletexTerminalIdentifier?$AA@ 00071cb8     libeay32:obj_dat.obj
 0002:0000acd4       ??_C@_0M@MMDMBPMM@telexNumber?$AA@ 00071cd4     libeay32:obj_dat.obj
 0002:0000ace0       ??_C@_0BA@NCAGJGBF@telephoneNumber?$AA@ 00071ce0     libeay32:obj_dat.obj
 0002:0000acf0       ??_C@_0BL@DENBGONK@physicalDeliveryOfficeName?$AA@ 00071cf0     libeay32:obj_dat.obj
 0002:0000ad0c       ??_C@_0O@PCCHCGPG@postOfficeBox?$AA@ 00071d0c     libeay32:obj_dat.obj
 0002:0000ad1c       ??_C@_0O@KABBPKPG@postalAddress?$AA@ 00071d1c     libeay32:obj_dat.obj
 0002:0000ad2c       ??_C@_0BB@GFJJGHBI@businessCategory?$AA@ 00071d2c     libeay32:obj_dat.obj
 0002:0000ad40       ??_C@_0M@MCCFGANF@searchGuide?$AA@ 00071d40     libeay32:obj_dat.obj
 0002:0000ad4c       ??_C@_0BF@DGGAJJCO@Permanent?5Identifier?$AA@ 00071d4c     libeay32:obj_dat.obj
 0002:0000ad64       ??_C@_0BK@BMFCOPIC@id?9on?9permanentIdentifier?$AA@ 00071d64     libeay32:obj_dat.obj
 0002:0000ad80       ??_C@_0BE@KEJIKEFG@X509v3?5Freshest?5CRL?$AA@ 00071d80     libeay32:obj_dat.obj
 0002:0000ad94       ??_C@_0M@PKNKMHEG@freshestCRL?$AA@ 00071d94     libeay32:obj_dat.obj
 0002:0000ada0       ??_C@_0BI@FMFOLFMC@Microsoft?5Local?5Key?5set?$AA@ 00071da0     libeay32:obj_dat.obj
 0002:0000adb8       ??_C@_0M@LCODBGNO@LocalKeySet?$AA@ 00071db8     libeay32:obj_dat.obj
 0002:0000adc4       ??_C@_04FOBGICMD@hmac?$AA@ 00071dc4     libeay32:obj_dat.obj
 0002:0000adcc       ??_C@_04JCCMGALL@HMAC?$AA@ 00071dcc     libeay32:obj_dat.obj
 0002:0000add4       ??_C@_0CJ@NCCJHEBD@GOST?5R?53410?92001?5Parameter?5Set?5C@ 00071dd4     libeay32:obj_dat.obj
 0002:0000ae00       ??_C@_0BO@LBPHKLOM@id?9GostR3410?92001?9ParamSet?9cc?$AA@ 00071e00     libeay32:obj_dat.obj
 0002:0000ae20       ??_C@_0DB@BGOOPLFE@GOST?5R?534?411?994?5with?5GOST?5R?534?41@ 00071e20     libeay32:obj_dat.obj
 0002:0000ae54       ??_C@_0CH@JJNMILDM@id?9GostR3411?994?9with?9GostR3410?92@ 00071e54     libeay32:obj_dat.obj
 0002:0000ae7c       ??_C@_0CP@ILDIBBAJ@GOST?5R?534?411?994?5with?5GOST?5R?534?41@ 00071e7c     libeay32:obj_dat.obj
 0002:0000aeac       ??_C@_0CF@FCIKJGLH@id?9GostR3411?994?9with?9GostR3410?99@ 00071eac     libeay32:obj_dat.obj
 0002:0000aed4       ??_C@_0BK@IGCJADLM@GOST?534?410?92001?5Cryptocom?$AA@ 00071ed4     libeay32:obj_dat.obj
 0002:0000aef0       ??_C@_0L@PKDOCLKG@gost2001cc?$AA@ 00071ef0     libeay32:obj_dat.obj
 0002:0000aefc       ??_C@_0BI@GJIILMEB@GOST?534?410?994?5Cryptocom?$AA@ 00071efc     libeay32:obj_dat.obj
 0002:0000af14       ??_C@_08LCDFMIFG@gost94cc?$AA@ 00071f14     libeay32:obj_dat.obj
 0002:0000af20       ??_C@_0CB@KNOPDNHN@GOST?528147?989?5Cryptocom?5ParamSet@ 00071f20     libeay32:obj_dat.obj
 0002:0000af44       ??_C@_0BD@MEAAKKFJ@id?9Gost28147?989?9cc?$AA@ 00071f44     libeay32:obj_dat.obj
 0002:0000af58       ??_C@_0BF@PGMBMCGF@id?9GostR3410?994?9bBis?$AA@ 00071f58     libeay32:obj_dat.obj
 0002:0000af70       ??_C@_0BC@MKOAJFN@id?9GostR3410?994?9b?$AA@ 00071f70     libeay32:obj_dat.obj
 0002:0000af84       ??_C@_0BF@LBGBLILF@id?9GostR3410?994?9aBis?$AA@ 00071f84     libeay32:obj_dat.obj
 0002:0000af9c       ??_C@_0BC@CHIDFKJO@id?9GostR3410?994?9a?$AA@ 00071f9c     libeay32:obj_dat.obj
 0002:0000afb0       ??_C@_0CK@GDLEHLKF@id?9GostR3410?92001?9CryptoPro?9XchB@ 00071fb0     libeay32:obj_dat.obj
 0002:0000afdc       ??_C@_0CK@PKFGBNKE@id?9GostR3410?92001?9CryptoPro?9XchA@ 00071fdc     libeay32:obj_dat.obj
 0002:0000b008       ??_C@_0CH@DLGDIIGO@id?9GostR3410?92001?9CryptoPro?9C?9Pa@ 00072008     libeay32:obj_dat.obj
 0002:0000b030       ??_C@_0CH@PKONFHKO@id?9GostR3410?92001?9CryptoPro?9B?9Pa@ 00072030     libeay32:obj_dat.obj
 0002:0000b058       ??_C@_0CH@GDAPDBKP@id?9GostR3410?92001?9CryptoPro?9A?9Pa@ 00072058     libeay32:obj_dat.obj
 0002:0000b080       ??_C@_0BP@GEEJLPDI@id?9GostR3410?92001?9TestParamSet?$AA@ 00072080     libeay32:obj_dat.obj
 0002:0000b0a0       ??_C@_0CI@DAANNIN@id?9GostR3410?994?9CryptoPro?9XchC?9P@ 000720a0     libeay32:obj_dat.obj
 0002:0000b0c8       ??_C@_0CI@MCIOACEN@id?9GostR3410?994?9CryptoPro?9XchB?9P@ 000720c8     libeay32:obj_dat.obj
 0002:0000b0f0       ??_C@_0CI@FLGMGEEM@id?9GostR3410?994?9CryptoPro?9XchA?9P@ 000720f0     libeay32:obj_dat.obj
 0002:0000b118       ??_C@_0CF@LMAJFDGB@id?9GostR3410?994?9CryptoPro?9D?9Para@ 00072118     libeay32:obj_dat.obj
 0002:0000b140       ??_C@_0CF@JFDCEGOC@id?9GostR3410?994?9CryptoPro?9C?9Para@ 00072140     libeay32:obj_dat.obj
 0002:0000b168       ??_C@_0CF@FELMJJCC@id?9GostR3410?994?9CryptoPro?9B?9Para@ 00072168     libeay32:obj_dat.obj
 0002:0000b190       ??_C@_0CF@MNFOPPCD@id?9GostR3410?994?9CryptoPro?9A?9Para@ 00072190     libeay32:obj_dat.obj
 0002:0000b1b8       ??_C@_0BN@NAOAJFAF@id?9GostR3410?994?9TestParamSet?$AA@ 000721b8     libeay32:obj_dat.obj
 0002:0000b1d8       ??_C@_0CJ@IIADIAJH@id?9Gost28147?989?9CryptoPro?9RIC?91?9@ 000721d8     libeay32:obj_dat.obj
 0002:0000b204       ??_C@_0CN@IIJDEMNM@id?9Gost28147?989?9CryptoPro?9Oscar?9@ 00072204     libeay32:obj_dat.obj
 0002:0000b234       ??_C@_0CN@EJBNJDBM@id?9Gost28147?989?9CryptoPro?9Oscar?9@ 00072234     libeay32:obj_dat.obj
 0002:0000b264       ??_C@_0CF@IEBLBMOP@id?9Gost28147?989?9CryptoPro?9D?9Para@ 00072264     libeay32:obj_dat.obj
 0002:0000b28c       ??_C@_0CF@KNCAAJGM@id?9Gost28147?989?9CryptoPro?9C?9Para@ 0007228c     libeay32:obj_dat.obj
 0002:0000b2b4       ??_C@_0CF@GMKONGKM@id?9Gost28147?989?9CryptoPro?9B?9Para@ 000722b4     libeay32:obj_dat.obj
 0002:0000b2dc       ??_C@_0CF@PFEMLAKN@id?9Gost28147?989?9CryptoPro?9A?9Para@ 000722dc     libeay32:obj_dat.obj
 0002:0000b304       ??_C@_0BN@GKJFBLMI@id?9Gost28147?989?9TestParamSet?$AA@ 00072304     libeay32:obj_dat.obj
 0002:0000b324       ??_C@_0CC@DOHJLMBI@id?9GostR3411?994?9CryptoProParamSe@ 00072324     libeay32:obj_dat.obj
 0002:0000b348       ??_C@_0BN@DPLCCDOE@id?9GostR3411?994?9TestParamSet?$AA@ 00072348     libeay32:obj_dat.obj
 0002:0000b368       ??_C@_0CA@BLJAEGEG@id?9Gost28147?989?9None?9KeyMeshing?$AA@ 00072368     libeay32:obj_dat.obj
 0002:0000b388       ??_C@_0CF@MMKONEIK@id?9Gost28147?989?9CryptoPro?9KeyMes@ 00072388     libeay32:obj_dat.obj
 0002:0000b3b0       ??_C@_0BD@LGKAOLPL@GOST?5R?534?410?994?5DH?$AA@ 000723b0     libeay32:obj_dat.obj
 0002:0000b3c4       ??_C@_0BC@CEMDDFNK@id?9GostR3410?994DH?$AA@ 000723c4     libeay32:obj_dat.obj
 0002:0000b3d8       ??_C@_0BF@OKPANPLK@GOST?5R?534?410?92001?5DH?$AA@ 000723d8     libeay32:obj_dat.obj
 0002:0000b3f0       ??_C@_0BE@OBKEJCJB@id?9GostR3410?92001DH?$AA@ 000723f0     libeay32:obj_dat.obj
 0002:0000b404       ??_C@_0BE@FFELJBNB@GOST?5R?534?411?994?5PRF?$AA@ 00072404     libeay32:obj_dat.obj
 0002:0000b418       ??_C@_0BB@LJIINAAP@prf?9gostr3411?994?$AA@ 00072418     libeay32:obj_dat.obj
 0002:0000b42c       ??_C@_0BC@BPAGAEJB@GOST?528147?989?5MAC?$AA@ 0007242c     libeay32:obj_dat.obj
 0002:0000b440       ??_C@_08JCNEGNFC@gost?9mac?$AA@ 00072440     libeay32:obj_dat.obj
 0002:0000b44c       ??_C@_0L@INGOKGPP@gost89?9cnt?$AA@ 0007244c     libeay32:obj_dat.obj
 0002:0000b458       ??_C@_0O@POKHNLDL@GOST?528147?989?$AA@ 00072458     libeay32:obj_dat.obj
 0002:0000b468       ??_C@_06KLPDHLCD@gost89?$AA@ 00072468     libeay32:obj_dat.obj
 0002:0000b470       ??_C@_0BA@JOCBNIHN@GOST?5R?534?410?994?$AA@ 00072470     libeay32:obj_dat.obj
 0002:0000b480       ??_C@_06BPJPGPFJ@gost94?$AA@ 00072480     libeay32:obj_dat.obj
 0002:0000b488       ??_C@_0BC@IBNIHBI@GOST?5R?534?410?92001?$AA@ 00072488     libeay32:obj_dat.obj
 0002:0000b49c       ??_C@_08KMPAMBCP@gost2001?$AA@ 0007249c     libeay32:obj_dat.obj
 0002:0000b4a8       ??_C@_0BD@BHKLGKNG@HMAC?5GOST?534?411?994?$AA@ 000724a8     libeay32:obj_dat.obj
 0002:0000b4bc       ??_C@_0BE@EBBOKDGI@id?9HMACGostR3411?994?$AA@ 000724bc     libeay32:obj_dat.obj
 0002:0000b4d0       ??_C@_0BA@KDEBPBMN@GOST?5R?534?411?994?$AA@ 000724d0     libeay32:obj_dat.obj
 0002:0000b4e0       ??_C@_09MIOJGGFD@md_gost94?$AA@ 000724e0     libeay32:obj_dat.obj
 0002:0000b4ec       ??_C@_0CF@PAGBHGOC@GOST?5R?534?411?994?5with?5GOST?5R?534?41@ 000724ec     libeay32:obj_dat.obj
 0002:0000b514       ??_C@_0CC@LCAPGDKC@id?9GostR3411?994?9with?9GostR3410?99@ 00072514     libeay32:obj_dat.obj
 0002:0000b538       ??_C@_0CH@MPKKPBGC@GOST?5R?534?411?994?5with?5GOST?5R?534?41@ 00072538     libeay32:obj_dat.obj
 0002:0000b560       ??_C@_0CE@FCAOBIOC@id?9GostR3411?994?9with?9GostR3410?92@ 00072560     libeay32:obj_dat.obj
 0002:0000b584       ??_C@_09JGBNPHGI@cryptocom?$AA@ 00072584     libeay32:obj_dat.obj
 0002:0000b590       ??_C@_09PCHJFNLI@cryptopro?$AA@ 00072590     libeay32:obj_dat.obj
 0002:0000b59c       ??_C@_09DEGKDAEL@whirlpool?$AA@ 0007259c     libeay32:obj_dat.obj
 0002:0000b5a8       ??_C@_0BA@FMFCOCGA@dsa_with_SHA256?$AA@ 000725a8     libeay32:obj_dat.obj
 0002:0000b5b8       ??_C@_0BA@GLCLJGGH@dsa_with_SHA224?$AA@ 000725b8     libeay32:obj_dat.obj
 0002:0000b5c8       ??_C@_0P@FLKKCAHA@hmacWithSHA512?$AA@ 000725c8     libeay32:obj_dat.obj
 0002:0000b5d8       ??_C@_0P@CHEKODKF@hmacWithSHA384?$AA@ 000725d8     libeay32:obj_dat.obj
 0002:0000b5e8       ??_C@_0P@KFBIHFBB@hmacWithSHA256?$AA@ 000725e8     libeay32:obj_dat.obj
 0002:0000b5f8       ??_C@_0P@JCGBABBG@hmacWithSHA224?$AA@ 000725f8     libeay32:obj_dat.obj
 0002:0000b608       ??_C@_0M@KOBPMNIO@hmacWithMD5?$AA@ 00072608     libeay32:obj_dat.obj
 0002:0000b614       ??_C@_0BC@DONDMJAG@ecdsa?9with?9SHA512?$AA@ 00072614     libeay32:obj_dat.obj
 0002:0000b628       ??_C@_0BC@ECDDAKND@ecdsa?9with?9SHA384?$AA@ 00072628     libeay32:obj_dat.obj
 0002:0000b63c       ??_C@_0BC@MAGBJMGH@ecdsa?9with?9SHA256?$AA@ 0007263c     libeay32:obj_dat.obj
 0002:0000b650       ??_C@_0BC@PHBIOIGA@ecdsa?9with?9SHA224?$AA@ 00072650     libeay32:obj_dat.obj
 0002:0000b664       ??_C@_0BF@INFCLNHO@ecdsa?9with?9Specified?$AA@ 00072664     libeay32:obj_dat.obj
 0002:0000b67c       ??_C@_0BH@GCJALNKM@ecdsa?9with?9Recommended?$AA@ 0007267c     libeay32:obj_dat.obj
 0002:0000b694       ??_C@_0P@KDMMBOEP@id?9aes256?9wrap?$AA@ 00072694     libeay32:obj_dat.obj
 0002:0000b6a4       ??_C@_0P@DJKBBDNG@id?9aes192?9wrap?$AA@ 000726a4     libeay32:obj_dat.obj
 0002:0000b6b4       ??_C@_0P@MALLFAMO@id?9aes128?9wrap?$AA@ 000726b4     libeay32:obj_dat.obj
 0002:0000b6c4       ??_C@_0BI@FNBGJEPL@id?9ct?9asciiTextWithCRLF?$AA@ 000726c4     libeay32:obj_dat.obj
 0002:0000b6dc       ??_C@_0BL@HEJKLKLL@id?9smime?9ct?9compressedData?$AA@ 000726dc     libeay32:obj_dat.obj
 0002:0000b6f8       ??_C@_0O@LBCGFGCI@CA?5Repository?$AA@ 000726f8     libeay32:obj_dat.obj
 0002:0000b708       ??_C@_0N@CKNFLOGG@caRepository?$AA@ 00072708     libeay32:obj_dat.obj
 0002:0000b718       ??_C@_0BD@MGCOMIO@id?9it?9suppLangTags?$AA@ 00072718     libeay32:obj_dat.obj
 0002:0000b72c       ??_C@_0BJ@CDGIGDFG@Diffie?9Hellman?5based?5MAC?$AA@ 0007272c     libeay32:obj_dat.obj
 0002:0000b748       ??_C@_0O@MEHCKGFD@id?9DHBasedMac?$AA@ 00072748     libeay32:obj_dat.obj
 0002:0000b758       ??_C@_0BD@FANJCJAP@password?5based?5MAC?$AA@ 00072758     libeay32:obj_dat.obj
 0002:0000b76c       ??_C@_0BE@HCNFOMHA@id?9PasswordBasedMAC?$AA@ 0007276c     libeay32:obj_dat.obj
 0002:0000b780       ??_C@_09KBOMLGBN@hmac?9sha1?$AA@ 00072780     libeay32:obj_dat.obj
 0002:0000b78c       ??_C@_09DDFKKHO@HMAC?9SHA1?$AA@ 0007278c     libeay32:obj_dat.obj
 0002:0000b798       ??_C@_08LPACCAD@hmac?9md5?$AA@ 00072798     libeay32:obj_dat.obj
 0002:0000b7a4       ??_C@_08CABJBHIC@HMAC?9MD5?$AA@ 000727a4     libeay32:obj_dat.obj
 0002:0000b7b0       ??_C@_08JGLJJHP@seed?9cfb?$AA@ 000727b0     libeay32:obj_dat.obj
 0002:0000b7bc       ??_C@_08LHAGIIFM@SEED?9CFB?$AA@ 000727bc     libeay32:obj_dat.obj
 0002:0000b7c8       ??_C@_08EDLNCGMH@seed?9ofb?$AA@ 000727c8     libeay32:obj_dat.obj
 0002:0000b7d4       ??_C@_08PNNADHOE@SEED?9OFB?$AA@ 000727d4     libeay32:obj_dat.obj
 0002:0000b7e0       ??_C@_08BHHJAAOC@seed?9cbc?$AA@ 000727e0     libeay32:obj_dat.obj
 0002:0000b7ec       ??_C@_08KJBEBBMB@SEED?9CBC?$AA@ 000727ec     libeay32:obj_dat.obj
 0002:0000b7f8       ??_C@_08CKMLAEEI@seed?9ecb?$AA@ 000727f8     libeay32:obj_dat.obj
 0002:0000b804       ??_C@_08JEKGBFGL@SEED?9ECB?$AA@ 00072804     libeay32:obj_dat.obj
 0002:0000b810       ??_C@_04LLEAHKNI@kisa?$AA@ 00072810     libeay32:obj_dat.obj
 0002:0000b818       ??_C@_04HHHKJIKA@KISA?$AA@ 00072818     libeay32:obj_dat.obj
 0002:0000b820       ??_C@_0BK@EMNEMCDI@X509v3?5Certificate?5Issuer?$AA@ 00072820     libeay32:obj_dat.obj
 0002:0000b83c       ??_C@_0BC@NAJGKAHO@certificateIssuer?$AA@ 0007283c     libeay32:obj_dat.obj
 0002:0000b850       ??_C@_0CC@MMIACGNM@X509v3?5Issuing?5Distrubution?5Poin@ 00072850     libeay32:obj_dat.obj
 0002:0000b874       ??_C@_0BJ@OAOPOBMH@issuingDistributionPoint?$AA@ 00072874     libeay32:obj_dat.obj
 0002:0000b890       ??_C@_0CE@OGGDDHCK@X509v3?5Subject?5Directory?5Attribu@ 00072890     libeay32:obj_dat.obj
 0002:0000b8b4       ??_C@_0BL@GAJEKNCJ@subjectDirectoryAttributes?$AA@ 000728b4     libeay32:obj_dat.obj
 0002:0000b8d0       ??_C@_0BB@EGAOKAEM@camellia?9256?9ofb?$AA@ 000728d0     libeay32:obj_dat.obj
 0002:0000b8e4       ??_C@_0BB@FFEGHOPL@CAMELLIA?9256?9OFB?$AA@ 000728e4     libeay32:obj_dat.obj
 0002:0000b8f8       ??_C@_0BB@JELAIPMN@camellia?9192?9ofb?$AA@ 000728f8     libeay32:obj_dat.obj
 0002:0000b90c       ??_C@_0BB@IHPIFBHK@CAMELLIA?9192?9OFB?$AA@ 0007290c     libeay32:obj_dat.obj
 0002:0000b920       ??_C@_0BB@DHCMPIFB@camellia?9128?9ofb?$AA@ 00072920     libeay32:obj_dat.obj
 0002:0000b934       ??_C@_0BB@CEGECGOG@CAMELLIA?9128?9OFB?$AA@ 00072934     libeay32:obj_dat.obj
 0002:0000b948       ??_C@_0BC@KNEDFCOB@camellia?9256?9cfb8?$AA@ 00072948     libeay32:obj_dat.obj
 0002:0000b95c       ??_C@_0BC@PIFFDMBA@CAMELLIA?9256?9CFB8?$AA@ 0007295c     libeay32:obj_dat.obj
 0002:0000b970       ??_C@_0BC@DHCOFPHI@camellia?9192?9cfb8?$AA@ 00072970     libeay32:obj_dat.obj
 0002:0000b984       ??_C@_0BC@GCDIDBIJ@CAMELLIA?9192?9CFB8?$AA@ 00072984     libeay32:obj_dat.obj
 0002:0000b998       ??_C@_0BC@MODEBMGA@camellia?9128?9cfb8?$AA@ 00072998     libeay32:obj_dat.obj
 0002:0000b9ac       ??_C@_0BC@JLCCHCJB@CAMELLIA?9128?9CFB8?$AA@ 000729ac     libeay32:obj_dat.obj
 0002:0000b9c0       ??_C@_0BC@HMIBOJKI@camellia?9256?9cfb1?$AA@ 000729c0     libeay32:obj_dat.obj
 0002:0000b9d4       ??_C@_0BC@CJJHIHFJ@CAMELLIA?9256?9CFB1?$AA@ 000729d4     libeay32:obj_dat.obj
 0002:0000b9e8       ??_C@_0BC@OGOMOEDB@camellia?9192?9cfb1?$AA@ 000729e8     libeay32:obj_dat.obj
 0002:0000b9fc       ??_C@_0BC@LDPKIKMA@CAMELLIA?9192?9CFB1?$AA@ 000729fc     libeay32:obj_dat.obj
 0002:0000ba10       ??_C@_0BC@BPPGKHCJ@camellia?9128?9cfb1?$AA@ 00072a10     libeay32:obj_dat.obj
 0002:0000ba24       ??_C@_0BC@EKOAMJNI@CAMELLIA?9128?9CFB1?$AA@ 00072a24     libeay32:obj_dat.obj
 0002:0000ba38       ??_C@_0BB@MNIBPPE@camellia?9256?9cfb?$AA@ 00072a38     libeay32:obj_dat.obj
 0002:0000ba4c       ??_C@_0BB@BPJAMBED@CAMELLIA?9256?9CFB?$AA@ 00072a4c     libeay32:obj_dat.obj
 0002:0000ba60       ??_C@_0BB@NOGGDAHF@camellia?9192?9cfb?$AA@ 00072a60     libeay32:obj_dat.obj
 0002:0000ba74       ??_C@_0BB@MNCOOOMC@CAMELLIA?9192?9CFB?$AA@ 00072a74     libeay32:obj_dat.obj
 0002:0000ba88       ??_C@_0BB@HNPKEHOJ@camellia?9128?9cfb?$AA@ 00072a88     libeay32:obj_dat.obj
 0002:0000ba9c       ??_C@_0BB@GOLCJJFO@CAMELLIA?9128?9CFB?$AA@ 00072a9c     libeay32:obj_dat.obj
 0002:0000bab0       ??_C@_0BB@CPHIICMD@camellia?9256?9ecb?$AA@ 00072ab0     libeay32:obj_dat.obj
 0002:0000bac4       ??_C@_0BB@DMDAFMHE@CAMELLIA?9256?9ECB?$AA@ 00072ac4     libeay32:obj_dat.obj
 0002:0000bad8       ??_C@_0BB@PNMGKNEC@camellia?9192?9ecb?$AA@ 00072ad8     libeay32:obj_dat.obj
 0002:0000baec       ??_C@_0BB@OOIOHDPF@CAMELLIA?9192?9ECB?$AA@ 00072aec     libeay32:obj_dat.obj
 0002:0000bb00       ??_C@_0BB@FOFKNKNO@camellia?9128?9ecb?$AA@ 00072b00     libeay32:obj_dat.obj
 0002:0000bb14       ??_C@_0BB@ENBCAEGJ@CAMELLIA?9128?9ECB?$AA@ 00072b14     libeay32:obj_dat.obj
 0002:0000bb28       ??_C@_0BB@BCMKIGGJ@camellia?9256?9cbc?$AA@ 00072b28     libeay32:obj_dat.obj
 0002:0000bb3c       ??_C@_0BB@BICFINO@CAMELLIA?9256?9CBC?$AA@ 00072b3c     libeay32:obj_dat.obj
 0002:0000bb50       ??_C@_0BB@MAHEKJOI@camellia?9192?9cbc?$AA@ 00072b50     libeay32:obj_dat.obj
 0002:0000bb64       ??_C@_0BB@NDDMHHFP@CAMELLIA?9192?9CBC?$AA@ 00072b64     libeay32:obj_dat.obj
 0002:0000bb78       ??_C@_0BB@GDOINOHE@camellia?9128?9cbc?$AA@ 00072b78     libeay32:obj_dat.obj
 0002:0000bb8c       ??_C@_0BB@HAKAAAMD@CAMELLIA?9128?9CBC?$AA@ 00072b8c     libeay32:obj_dat.obj
 0002:0000bba0       ??_C@_06DEKODPNG@ipsec4?$AA@ 00072ba0     libeay32:obj_dat.obj
 0002:0000bba8       ??_C@_0O@FENFAHJA@Oakley?9EC2N?94?$AA@ 00072ba8     libeay32:obj_dat.obj
 0002:0000bbb8       ??_C@_06HLOPKJBB@ipsec3?$AA@ 00072bb8     libeay32:obj_dat.obj
 0002:0000bbc0       ??_C@_0O@BLJEJBFH@Oakley?9EC2N?93?$AA@ 00072bc0     libeay32:obj_dat.obj
 0002:0000bbd0       ??_C@_0BK@FPAAFIAO@X509v3?5Inhibit?5Any?5Policy?$AA@ 00072bd0     libeay32:obj_dat.obj
 0002:0000bbec       ??_C@_0BB@CFCCDKGF@inhibitAnyPolicy?$AA@ 00072bec     libeay32:obj_dat.obj
 0002:0000bc00       ??_C@_0BH@NJBPACCN@X509v3?5Policy?5Mappings?$AA@ 00072c00     libeay32:obj_dat.obj
 0002:0000bc18       ??_C@_0P@MEGGINDP@policyMappings?$AA@ 00072c18     libeay32:obj_dat.obj
 0002:0000bc28       ??_C@_0BC@CEEMIAHF@X509v3?5Any?5Policy?$AA@ 00072c28     libeay32:obj_dat.obj
 0002:0000bc3c       ??_C@_09HBBJOJHB@anyPolicy?$AA@ 00072c3c     libeay32:obj_dat.obj
 0002:0000bc48       ??_C@_0BI@MNOLKEAO@wap?9wsg?9idm?9ecid?9wtls12?$AA@ 00072c48     libeay32:obj_dat.obj
 0002:0000bc60       ??_C@_0BI@OGMGPHMN@wap?9wsg?9idm?9ecid?9wtls11?$AA@ 00072c60     libeay32:obj_dat.obj
 0002:0000bc78       ??_C@_0BI@PPNNMGIM@wap?9wsg?9idm?9ecid?9wtls10?$AA@ 00072c78     libeay32:obj_dat.obj
 0002:0000bc90       ??_C@_0BH@DMKMEGHN@wap?9wsg?9idm?9ecid?9wtls9?$AA@ 00072c90     libeay32:obj_dat.obj
 0002:0000bca8       ??_C@_0BH@CFLHHHDM@wap?9wsg?9idm?9ecid?9wtls8?$AA@ 00072ca8     libeay32:obj_dat.obj
 0002:0000bcc0       ??_C@_0BH@KCCPGLPD@wap?9wsg?9idm?9ecid?9wtls7?$AA@ 00072cc0     libeay32:obj_dat.obj
 0002:0000bcd8       ??_C@_0BH@LLDEFKLC@wap?9wsg?9idm?9ecid?9wtls6?$AA@ 00072cd8     libeay32:obj_dat.obj
 0002:0000bcf0       ??_C@_0BH@JABJAJHB@wap?9wsg?9idm?9ecid?9wtls5?$AA@ 00072cf0     libeay32:obj_dat.obj
 0002:0000bd08       ??_C@_0BH@IJACDIDA@wap?9wsg?9idm?9ecid?9wtls4?$AA@ 00072d08     libeay32:obj_dat.obj
 0002:0000bd20       ??_C@_0BH@MGEDKOPH@wap?9wsg?9idm?9ecid?9wtls3?$AA@ 00072d20     libeay32:obj_dat.obj
 0002:0000bd38       ??_C@_0BH@PEHFMMHF@wap?9wsg?9idm?9ecid?9wtls1?$AA@ 00072d38     libeay32:obj_dat.obj
 0002:0000bd50       ??_C@_09MPLFOIFJ@sect571r1?$AA@ 00072d50     libeay32:obj_dat.obj
 0002:0000bd5c       ??_C@_09NMECHAKG@sect571k1?$AA@ 00072d5c     libeay32:obj_dat.obj
 0002:0000bd68       ??_C@_09HDHNMPAD@sect409r1?$AA@ 00072d68     libeay32:obj_dat.obj
 0002:0000bd74       ??_C@_09GAIKFHPM@sect409k1?$AA@ 00072d74     libeay32:obj_dat.obj
 0002:0000bd80       ??_C@_09PKOJIHLL@sect283r1?$AA@ 00072d80     libeay32:obj_dat.obj
 0002:0000bd8c       ??_C@_09OJBOBPEE@sect283k1?$AA@ 00072d8c     libeay32:obj_dat.obj
 0002:0000bd98       ??_C@_09PBHDMODB@sect239k1?$AA@ 00072d98     libeay32:obj_dat.obj
 0002:0000bda4       ??_C@_09INDJLGKK@sect233r1?$AA@ 00072da4     libeay32:obj_dat.obj
 0002:0000bdb0       ??_C@_09JOMOCOFF@sect233k1?$AA@ 00072db0     libeay32:obj_dat.obj
 0002:0000bdbc       ??_C@_09GKDAIPGG@sect193r2?$AA@ 00072dbc     libeay32:obj_dat.obj
 0002:0000bdc8       ??_C@_09EBBNNMKF@sect193r1?$AA@ 00072dc8     libeay32:obj_dat.obj
 0002:0000bdd4       ??_C@_09OIGABILH@sect163r2?$AA@ 00072dd4     libeay32:obj_dat.obj
 0002:0000bde0       ??_C@_09MDENELHE@sect163r1?$AA@ 00072de0     libeay32:obj_dat.obj
 0002:0000bdec       ??_C@_09NALKNDIL@sect163k1?$AA@ 00072dec     libeay32:obj_dat.obj
 0002:0000bdf8       ??_C@_09IKIJFPEM@sect131r2?$AA@ 00072df8     libeay32:obj_dat.obj
 0002:0000be04       ??_C@_09KBKEAMIP@sect131r1?$AA@ 00072e04     libeay32:obj_dat.obj
 0002:0000be10       ??_C@_09FKEAMEKH@sect113r2?$AA@ 00072e10     libeay32:obj_dat.obj
 0002:0000be1c       ??_C@_09HBGNJHGE@sect113r1?$AA@ 00072e1c     libeay32:obj_dat.obj
 0002:0000be28       ??_C@_09PDBKEDDK@secp521r1?$AA@ 00072e28     libeay32:obj_dat.obj
 0002:0000be34       ??_C@_09FICNEILE@secp384r1?$AA@ 00072e34     libeay32:obj_dat.obj
 0002:0000be40       ??_C@_09NCBPAPNE@secp256k1?$AA@ 00072e40     libeay32:obj_dat.obj
 0002:0000be4c       ??_C@_09NJMBIDLA@secp224r1?$AA@ 00072e4c     libeay32:obj_dat.obj
 0002:0000be58       ??_C@_09MKDGBLEP@secp224k1?$AA@ 00072e58     libeay32:obj_dat.obj
 0002:0000be64       ??_C@_09BOBJAHCM@secp192k1?$AA@ 00072e64     libeay32:obj_dat.obj
 0002:0000be70       ??_C@_09OJKJDEK@secp160r2?$AA@ 00072e70     libeay32:obj_dat.obj
 0002:0000be7c       ??_C@_09CFLHMAIJ@secp160r1?$AA@ 00072e7c     libeay32:obj_dat.obj
 0002:0000be88       ??_C@_09DGEAFIHG@secp160k1?$AA@ 00072e88     libeay32:obj_dat.obj
 0002:0000be94       ??_C@_09DOKOBNGF@secp128r2?$AA@ 00072e94     libeay32:obj_dat.obj
 0002:0000bea0       ??_C@_09BFIDEOKG@secp128r1?$AA@ 00072ea0     libeay32:obj_dat.obj
 0002:0000beac       ??_C@_09BGLDIHNB@secp112r2?$AA@ 00072eac     libeay32:obj_dat.obj
 0002:0000beb8       ??_C@_09DNJONEBC@secp112r1?$AA@ 00072eb8     libeay32:obj_dat.obj
 0002:0000bec4       ??_C@_0L@OFJKDCBG@c2tnb431r1?$AA@ 00072ec4     libeay32:obj_dat.obj
 0002:0000bed0       ??_C@_0L@BGFAFBLD@c2pnb368w1?$AA@ 00072ed0     libeay32:obj_dat.obj
 0002:0000bedc       ??_C@_0L@LFGCHHDN@c2tnb359v1?$AA@ 00072edc     libeay32:obj_dat.obj
 0002:0000bee8       ??_C@_0L@NDMGBLKL@c2pnb304w1?$AA@ 00072ee8     libeay32:obj_dat.obj
 0002:0000bef4       ??_C@_0L@IPNBELMC@c2pnb272w1?$AA@ 00072ef4     libeay32:obj_dat.obj
 0002:0000bf00       ??_C@_0L@LLIHEIJA@c2onb239v5?$AA@ 00072f00     libeay32:obj_dat.obj
 0002:0000bf0c       ??_C@_0L@KCJMHJNB@c2onb239v4?$AA@ 00072f0c     libeay32:obj_dat.obj
 0002:0000bf18       ??_C@_0L@MDEIDDLK@c2tnb239v3?$AA@ 00072f18     libeay32:obj_dat.obj
 0002:0000bf24       ??_C@_0L@NKFDACPL@c2tnb239v2?$AA@ 00072f24     libeay32:obj_dat.obj
 0002:0000bf30       ??_C@_0L@PBHOFBDI@c2tnb239v1?$AA@ 00072f30     libeay32:obj_dat.obj
 0002:0000bf3c       ??_C@_0L@FCEMHHLG@c2pnb208w1?$AA@ 00072f3c     libeay32:obj_dat.obj
 0002:0000bf48       ??_C@_0L@LCBHAKHA@c2onb191v5?$AA@ 00072f48     libeay32:obj_dat.obj
 0002:0000bf54       ??_C@_0L@KLAMDLDB@c2onb191v4?$AA@ 00072f54     libeay32:obj_dat.obj
 0002:0000bf60       ??_C@_0L@MKNIHBFK@c2tnb191v3?$AA@ 00072f60     libeay32:obj_dat.obj
 0002:0000bf6c       ??_C@_0L@NDMDEABL@c2tnb191v2?$AA@ 00072f6c     libeay32:obj_dat.obj
 0002:0000bf78       ??_C@_0L@PIOOBDNI@c2tnb191v1?$AA@ 00072f78     libeay32:obj_dat.obj
 0002:0000bf84       ??_C@_0L@IHOFMEAM@c2pnb176v1?$AA@ 00072f84     libeay32:obj_dat.obj
 0002:0000bf90       ??_C@_0L@LPGNHPAM@c2pnb163v3?$AA@ 00072f90     libeay32:obj_dat.obj
 0002:0000bf9c       ??_C@_0L@KGHGEOEN@c2pnb163v2?$AA@ 00072f9c     libeay32:obj_dat.obj
 0002:0000bfa8       ??_C@_0L@INFLBNIO@c2pnb163v1?$AA@ 00072fa8     libeay32:obj_dat.obj
 0002:0000bfb4       ??_C@_07GLJEBFP@ppBasis?$AA@ 00072fb4     libeay32:obj_dat.obj
 0002:0000bfbc       ??_C@_07ICPDEPKF@tpBasis?$AA@ 00072fbc     libeay32:obj_dat.obj
 0002:0000bfc4       ??_C@_07JEMDIFEL@onBasis?$AA@ 00072fc4     libeay32:obj_dat.obj
 0002:0000bfcc       ??_C@_0BM@PPOCDOAJ@id?9characteristic?9two?9basis?$AA@ 00072fcc     libeay32:obj_dat.obj
 0002:0000bfe8       ??_C@_07KJBJKKHG@wap?9wsg?$AA@ 00072fe8     libeay32:obj_dat.obj
 0002:0000bff0       ??_C@_03EOHJGACH@wap?$AA@  00072ff0     libeay32:obj_dat.obj
 0002:0000bff4       ??_C@_0N@GOPBJFID@certicom?9arc?$AA@ 00072ff4     libeay32:obj_dat.obj
 0002:0000c004       ??_C@_0BI@NDBFOMIA@identified?9organization?$AA@ 00073004     libeay32:obj_dat.obj
 0002:0000c01c       ??_C@_06DJABMLNO@sha224?$AA@ 0007301c     libeay32:obj_dat.obj
 0002:0000c024       ??_C@_06DANBNIHA@SHA224?$AA@ 00073024     libeay32:obj_dat.obj
 0002:0000c02c       ??_C@_06PAMKOKLI@sha512?$AA@ 0007302c     libeay32:obj_dat.obj
 0002:0000c034       ??_C@_06PJBKPJBG@SHA512?$AA@ 00073034     libeay32:obj_dat.obj
 0002:0000c03c       ??_C@_06IMCKCJGN@sha384?$AA@ 0007303c     libeay32:obj_dat.obj
 0002:0000c044       ??_C@_06IFPKDKMD@SHA384?$AA@ 00073044     libeay32:obj_dat.obj
 0002:0000c04c       ??_C@_06OHILPNJ@sha256?$AA@ 0007304c     libeay32:obj_dat.obj
 0002:0000c054       ??_C@_06HKIKMHH@SHA256?$AA@ 00073054     libeay32:obj_dat.obj
 0002:0000c05c       ??_C@_0BI@HODNLFBE@sha224WithRSAEncryption?$AA@ 0007305c     libeay32:obj_dat.obj
 0002:0000c074       ??_C@_0L@BPFBIPIP@RSA?9SHA224?$AA@ 00073074     libeay32:obj_dat.obj
 0002:0000c080       ??_C@_0BI@CFKPHFJF@sha512WithRSAEncryption?$AA@ 00073080     libeay32:obj_dat.obj
 0002:0000c098       ??_C@_0L@NGJKKOOJ@RSA?9SHA512?$AA@ 00073098     libeay32:obj_dat.obj
 0002:0000c0a4       ??_C@_0BI@LGPCJGLE@sha384WithRSAEncryption?$AA@ 000730a4     libeay32:obj_dat.obj
 0002:0000c0bc       ??_C@_0L@KKHKGNDM@RSA?9SHA384?$AA@ 000730bc     libeay32:obj_dat.obj
 0002:0000c0c8       ??_C@_0BI@OLMNBFHG@sha256WithRSAEncryption?$AA@ 000730c8     libeay32:obj_dat.obj
 0002:0000c0e0       ??_C@_0L@CICIPLII@RSA?9SHA256?$AA@ 000730e0     libeay32:obj_dat.obj
 0002:0000c0ec       ??_C@_0M@MLMKHJLC@Independent?$AA@ 000730ec     libeay32:obj_dat.obj
 0002:0000c0f8       ??_C@_0BD@JMNHHICP@id?9ppl?9independent?$AA@ 000730f8     libeay32:obj_dat.obj
 0002:0000c10c       ??_C@_0BI@MLJLAGL@X509v3?5Name?5Constraints?$AA@ 0007310c     libeay32:obj_dat.obj
 0002:0000c124       ??_C@_0BA@NDBMPGLN@nameConstraints?$AA@ 00073124     libeay32:obj_dat.obj
 0002:0000c134       ??_C@_0M@FFLAPACB@Inherit?5all?$AA@ 00073134     libeay32:obj_dat.obj
 0002:0000c140       ??_C@_0BC@PCEJIIF@id?9ppl?9inheritAll?$AA@ 00073140     libeay32:obj_dat.obj
 0002:0000c154       ??_C@_0N@BEBFEGLC@Any?5language?$AA@ 00073154     libeay32:obj_dat.obj
 0002:0000c164       ??_C@_0BD@HNCKDFAM@id?9ppl?9anyLanguage?$AA@ 00073164     libeay32:obj_dat.obj
 0002:0000c178       ??_C@_0BO@CCHFGBDO@Proxy?5Certificate?5Information?$AA@ 00073178     libeay32:obj_dat.obj
 0002:0000c198       ??_C@_0O@LOINHHBF@proxyCertInfo?$AA@ 00073198     libeay32:obj_dat.obj
 0002:0000c1a8       ??_C@_06CAAPGDCJ@id?9ppl?$AA@ 000731a8     libeay32:obj_dat.obj
 0002:0000c1b0       ??_C@_0L@NCDHJCMF@postalCode?$AA@ 000731b0     libeay32:obj_dat.obj
 0002:0000c1bc       ??_C@_0O@GFJANBCD@streetAddress?$AA@ 000731bc     libeay32:obj_dat.obj
 0002:0000c1cc       ??_C@_06KFAFKEEH@street?$AA@ 000731cc     libeay32:obj_dat.obj
 0002:0000c1d4       ??_C@_0O@KGNFGAAA@des?9ede3?9cfb8?$AA@ 000731d4     libeay32:obj_dat.obj
 0002:0000c1e4       ??_C@_0O@KNJKKNCK@DES?9EDE3?9CFB8?$AA@ 000731e4     libeay32:obj_dat.obj
 0002:0000c1f4       ??_C@_0O@HHBHNLEJ@des?9ede3?9cfb1?$AA@ 000731f4     libeay32:obj_dat.obj
 0002:0000c204       ??_C@_0O@HMFIBGGD@DES?9EDE3?9CFB1?$AA@ 00073204     libeay32:obj_dat.obj
 0002:0000c214       ??_C@_08HKNDEPIP@des?9cfb8?$AA@ 00073214     libeay32:obj_dat.obj
 0002:0000c220       ??_C@_08JHFHFADM@DES?9CFB8?$AA@ 00073220     libeay32:obj_dat.obj
 0002:0000c22c       ??_C@_08KLBBPEMG@des?9cfb1?$AA@ 0007322c     libeay32:obj_dat.obj
 0002:0000c238       ??_C@_08EGJFOLHF@DES?9CFB1?$AA@ 00073238     libeay32:obj_dat.obj
 0002:0000c244       ??_C@_0N@GPAECIBG@aes?9256?9cfb8?$AA@ 00073244     libeay32:obj_dat.obj
 0002:0000c254       ??_C@_0N@BLGJPBBG@AES?9256?9CFB8?$AA@ 00073254     libeay32:obj_dat.obj
 0002:0000c264       ??_C@_0N@PFGJCFIP@aes?9192?9cfb8?$AA@ 00073264     libeay32:obj_dat.obj
 0002:0000c274       ??_C@_0N@IBAEPMIP@AES?9192?9CFB8?$AA@ 00073274     libeay32:obj_dat.obj
 0002:0000c284       ??_C@_0N@MHDGGJH@aes?9128?9cfb8?$AA@ 00073284     libeay32:obj_dat.obj
 0002:0000c294       ??_C@_0N@HIBOLPJH@AES?9128?9CFB8?$AA@ 00073294     libeay32:obj_dat.obj
 0002:0000c2a4       ??_C@_0N@LOMGJDFP@aes?9256?9cfb1?$AA@ 000732a4     libeay32:obj_dat.obj
 0002:0000c2b4       ??_C@_0N@MKKLEKFP@AES?9256?9CFB1?$AA@ 000732b4     libeay32:obj_dat.obj
 0002:0000c2c4       ??_C@_0N@CEKLJOMG@aes?9192?9cfb1?$AA@ 000732c4     libeay32:obj_dat.obj
 0002:0000c2d4       ??_C@_0N@FAMGEHMG@AES?9192?9CFB1?$AA@ 000732d4     libeay32:obj_dat.obj
 0002:0000c2e4       ??_C@_0N@NNLBNNNO@aes?9128?9cfb1?$AA@ 000732e4     libeay32:obj_dat.obj
 0002:0000c2f4       ??_C@_0N@KJNMAENO@AES?9128?9CFB1?$AA@ 000732f4     libeay32:obj_dat.obj
 0002:0000c304       ??_C@_0CD@POJHJMFG@Microsoft?5Universal?5Principal?5Na@ 00073304     libeay32:obj_dat.obj
 0002:0000c328       ??_C@_05LKLAGLGM@msUPN?$AA@ 00073328     libeay32:obj_dat.obj
 0002:0000c330       ??_C@_0BJ@BHLLFCI@Microsoft?5Smartcardlogin?$AA@ 00073330     libeay32:obj_dat.obj
 0002:0000c34c       ??_C@_0BB@MJPMDGHF@msSmartcardLogin?$AA@ 0007334c     libeay32:obj_dat.obj
 0002:0000c360       ??_C@_0BM@PGMBEIHL@International?5Organizations?$AA@ 00073360     libeay32:obj_dat.obj
 0002:0000c37c       ??_C@_0BM@PBBEOBAP@international?9organizations?$AA@ 0007337c     libeay32:obj_dat.obj
 0002:0000c398       ??_C@_0BA@DDCJMADA@joint?9iso?9itu?9t?$AA@ 00073398     libeay32:obj_dat.obj
 0002:0000c3a8       ??_C@_0BA@NPJCPIN@JOINT?9ISO?9ITU?9T?$AA@ 000733a8     libeay32:obj_dat.obj
 0002:0000c3b8       ??_C@_05EKLDHPCO@itu?9t?$AA@ 000733b8     libeay32:obj_dat.obj
 0002:0000c3c0       ??_C@_05LJGINOIA@ITU?9T?$AA@ 000733c0     libeay32:obj_dat.obj
 0002:0000c3c8       ??_C@_0BF@EIIDBKMM@rsaOAEPEncryptionSET?$AA@ 000733c8     libeay32:obj_dat.obj
 0002:0000c3e0       ??_C@_08PPLOLAOD@des?9cdmf?$AA@ 000733e0     libeay32:obj_dat.obj
 0002:0000c3ec       ??_C@_08IHLOILPC@DES?9CDMF?$AA@ 000733ec     libeay32:obj_dat.obj
 0002:0000c3f8       ??_C@_0BA@JHOGHBHC@set?9brand?9Novus?$AA@ 000733f8     libeay32:obj_dat.obj
 0002:0000c408       ??_C@_0BF@EKCBHCKG@set?9brand?9MasterCard?$AA@ 00073408     libeay32:obj_dat.obj
 0002:0000c420       ??_C@_0P@KADKEMKM@set?9brand?9Visa?$AA@ 00073420     libeay32:obj_dat.obj
 0002:0000c430       ??_C@_0O@ODFDKJIN@set?9brand?9JCB?$AA@ 00073430     libeay32:obj_dat.obj
 0002:0000c440       ??_C@_0BK@NGHCPIFJ@set?9brand?9AmericanExpress?$AA@ 00073440     libeay32:obj_dat.obj
 0002:0000c45c       ??_C@_0BB@MJOMIBOM@set?9brand?9Diners?$AA@ 0007345c     libeay32:obj_dat.obj
 0002:0000c470       ??_C@_0BD@EBDAHFCK@set?9brand?9IATA?9ATA?$AA@ 00073470     libeay32:obj_dat.obj
 0002:0000c484       ??_C@_0BI@BMDLNIII@secure?5device?5signature?$AA@ 00073484     libeay32:obj_dat.obj
 0002:0000c49c       ??_C@_0BC@HILPEDHB@setAttr?9SecDevSig?$AA@ 0007349c     libeay32:obj_dat.obj
 0002:0000c4b0       ??_C@_0BH@FLMFBHA@ICC?5or?5token?5signature?$AA@ 000734b0     libeay32:obj_dat.obj
 0002:0000c4c8       ??_C@_0BC@KFHJNGAA@setAttr?9TokICCsig?$AA@ 000734c8     libeay32:obj_dat.obj
 0002:0000c4dc       ??_C@_0BC@EEELFHMJ@cleartext?5track?52?$AA@ 000734dc     libeay32:obj_dat.obj
 0002:0000c4f0       ??_C@_0BD@GDDCOMNC@setAttr?9T2cleartxt?$AA@ 000734f0     libeay32:obj_dat.obj
 0002:0000c504       ??_C@_0BC@MCHFBPJF@encrypted?5track?52?$AA@ 00073504     libeay32:obj_dat.obj
 0002:0000c518       ??_C@_0O@GFEDKLID@setAttr?9T2Enc?$AA@ 00073518     libeay32:obj_dat.obj
 0002:0000c528       ??_C@_0BE@BANBLNDJ@generate?5cryptogram?$AA@ 00073528     libeay32:obj_dat.obj
 0002:0000c53c       ??_C@_0BE@FJCINFHM@setAttr?9GenCryptgrm?$AA@ 0007353c     libeay32:obj_dat.obj
 0002:0000c550       ??_C@_0BD@DMNGIJGO@setAttr?9IssCap?9Sig?$AA@ 00073550     libeay32:obj_dat.obj
 0002:0000c564       ??_C@_0BC@FKLLNJMF@setAttr?9IssCap?9T2?$AA@ 00073564     libeay32:obj_dat.obj
 0002:0000c578       ??_C@_0BD@CMJDLAHE@setAttr?9IssCap?9CVM?$AA@ 00073578     libeay32:obj_dat.obj
 0002:0000c58c       ??_C@_0BG@ICNBHDJ@setAttr?9Token?9B0Prime?$AA@ 0007358c     libeay32:obj_dat.obj
 0002:0000c5a4       ??_C@_0BC@BMANBENP@setAttr?9Token?9EMV?$AA@ 000735a4     libeay32:obj_dat.obj
 0002:0000c5b8       ??_C@_0O@NOCONBCM@set?9addPolicy?$AA@ 000735b8     libeay32:obj_dat.obj
 0002:0000c5c8       ??_C@_0BB@MADMNAKK@set?9rootKeyThumb?$AA@ 000735c8     libeay32:obj_dat.obj
 0002:0000c5dc       ??_C@_0BE@HBDPGKCG@issuer?5capabilities?$AA@ 000735dc     libeay32:obj_dat.obj
 0002:0000c5f0       ??_C@_0P@OGFLCCKL@setAttr?9IssCap?$AA@ 000735f0     libeay32:obj_dat.obj
 0002:0000c600       ??_C@_0BC@IKOKMCIL@setAttr?9TokenType?$AA@ 00073600     libeay32:obj_dat.obj
 0002:0000c614       ??_C@_0BN@HEFBDPEB@payment?5gateway?5capabilities?$AA@ 00073614     libeay32:obj_dat.obj
 0002:0000c634       ??_C@_0BA@FAIFDKDK@setAttr?9PGWYcap?$AA@ 00073634     libeay32:obj_dat.obj
 0002:0000c644       ??_C@_0N@DCNKAAPN@setAttr?9Cert?$AA@ 00073644     libeay32:obj_dat.obj
 0002:0000c654       ??_C@_0BL@OLCLGJDA@setCext?9IssuerCapabilities?$AA@ 00073654     libeay32:obj_dat.obj
 0002:0000c670       ??_C@_0BC@KMFGLCBL@setCext?9TokenType?$AA@ 00073670     libeay32:obj_dat.obj
 0002:0000c684       ??_C@_0BD@FHFLAKJD@setCext?9Track2Data?$AA@ 00073684     libeay32:obj_dat.obj
 0002:0000c698       ??_C@_0BI@FIIEHNL@setCext?9TokenIdentifier?$AA@ 00073698     libeay32:obj_dat.obj
 0002:0000c6b0       ??_C@_0BJ@CNLNHONG@setCext?9PGWYcapabilities?$AA@ 000736b0     libeay32:obj_dat.obj
 0002:0000c6cc       ??_C@_0BB@HIAOOOIO@setCext?9setQualf?$AA@ 000736cc     libeay32:obj_dat.obj
 0002:0000c6e0       ??_C@_0P@DFHCPLJG@setCext?9setExt?$AA@ 000736e0     libeay32:obj_dat.obj
 0002:0000c6f0       ??_C@_0BC@BPADJLFJ@setCext?9tunneling?$AA@ 000736f0     libeay32:obj_dat.obj
 0002:0000c704       ??_C@_0BG@CMNKGOHO@setCext?9cCertRequired?$AA@ 00073704     libeay32:obj_dat.obj
 0002:0000c71c       ??_C@_0BC@ONMLOIHK@setCext?9merchData?$AA@ 0007371c     libeay32:obj_dat.obj
 0002:0000c730       ??_C@_0BB@LHGCHNFD@setCext?9certType?$AA@ 00073730     libeay32:obj_dat.obj
 0002:0000c744       ??_C@_0BD@MELPLACB@setCext?9hashedRoot?$AA@ 00073744     libeay32:obj_dat.obj
 0002:0000c758       ??_C@_0BA@DLJGCPKK@set?9policy?9root?$AA@ 00073758     libeay32:obj_dat.obj
 0002:0000c768       ??_C@_0BI@MFPOFNGC@additional?5verification?$AA@ 00073768     libeay32:obj_dat.obj
 0002:0000c780       ??_C@_09GMOEIEJI@setext?9cv?$AA@ 00073780     libeay32:obj_dat.obj
 0002:0000c78c       ??_C@_0O@PNAFPHHK@setext?9track2?$AA@ 0007378c     libeay32:obj_dat.obj
 0002:0000c79c       ??_C@_0O@PNHGIFHA@setext?9pinAny?$AA@ 0007379c     libeay32:obj_dat.obj
 0002:0000c7ac       ??_C@_0BB@IKLFBNP@setext?9pinSecure?$AA@ 000737ac     libeay32:obj_dat.obj
 0002:0000c7c0       ??_C@_0BI@IMGNFPLI@merchant?5initiated?5auth?$AA@ 000737c0     libeay32:obj_dat.obj
 0002:0000c7d8       ??_C@_0O@IFMPKKOL@setext?9miAuth?$AA@ 000737d8     libeay32:obj_dat.obj
 0002:0000c7e8       ??_C@_0BD@IMJHIOH@generic?5cryptogram?$AA@ 000737e8     libeay32:obj_dat.obj
 0002:0000c7fc       ??_C@_0BA@NKJJMGPC@setext?9genCrypt?$AA@ 000737fc     libeay32:obj_dat.obj
 0002:0000c80c       ??_C@_0BJ@BPGLEKIJ@setct?9BCIDistributionTBS?$AA@ 0007380c     libeay32:obj_dat.obj
 0002:0000c828       ??_C@_0BM@GINBKIMJ@setct?9CRLNotificationResTBS?$AA@ 00073828     libeay32:obj_dat.obj
 0002:0000c844       ??_C@_0BJ@KMIJGANO@setct?9CRLNotificationTBS?$AA@ 00073844     libeay32:obj_dat.obj
 0002:0000c860       ??_C@_0BB@KEDMFAIN@setct?9CertResTBE?$AA@ 00073860     libeay32:obj_dat.obj
 0002:0000c874       ??_C@_0BC@KMAHLFJK@setct?9CertReqTBEX?$AA@ 00073874     libeay32:obj_dat.obj
 0002:0000c888       ??_C@_0BB@NOPMADON@setct?9CertReqTBE?$AA@ 00073888     libeay32:obj_dat.obj
 0002:0000c89c       ??_C@_0BE@MIADHNEP@setct?9RegFormReqTBE?$AA@ 0007389c     libeay32:obj_dat.obj
 0002:0000c8b0       ??_C@_0BH@PFFPEIML@setct?9BatchAdminResTBE?$AA@ 000738b0     libeay32:obj_dat.obj
 0002:0000c8c8       ??_C@_0BH@IPJPBLKL@setct?9BatchAdminReqTBE?$AA@ 000738c8     libeay32:obj_dat.obj
 0002:0000c8e0       ??_C@_0BE@MGLMPAHD@setct?9CredRevResTBE?$AA@ 000738e0     libeay32:obj_dat.obj
 0002:0000c8f4       ??_C@_0BF@PGGAOKCB@setct?9CredRevReqTBEX?$AA@ 000738f4     libeay32:obj_dat.obj
 0002:0000c90c       ??_C@_0BE@LMHMKDBD@setct?9CredRevReqTBE?$AA@ 0007390c     libeay32:obj_dat.obj
 0002:0000c920       ??_C@_0BB@NFFENEIP@setct?9CredResTBE?$AA@ 00073920     libeay32:obj_dat.obj
 0002:0000c934       ??_C@_0BC@ECHILMDC@setct?9CredReqTBEX?$AA@ 00073934     libeay32:obj_dat.obj
 0002:0000c948       ??_C@_0BB@KPJEIHOP@setct?9CredReqTBE?$AA@ 00073948     libeay32:obj_dat.obj
 0002:0000c95c       ??_C@_0BD@GIBDNMDG@setct?9CapRevResTBE?$AA@ 0007395c     libeay32:obj_dat.obj
 0002:0000c970       ??_C@_0BE@PAHIPABC@setct?9CapRevReqTBEX?$AA@ 00073970     libeay32:obj_dat.obj
 0002:0000c984       ??_C@_0BD@BCNDIPFG@setct?9CapRevReqTBE?$AA@ 00073984     libeay32:obj_dat.obj
 0002:0000c998       ??_C@_0BA@MEFGIEBL@setct?9CapResTBE?$AA@ 00073998     libeay32:obj_dat.obj
 0002:0000c9a8       ??_C@_0BB@LFALOJDP@setct?9CapReqTBEX?$AA@ 000739a8     libeay32:obj_dat.obj
 0002:0000c9bc       ??_C@_0BA@LOJGNHHL@setct?9CapReqTBE?$AA@ 000739bc     libeay32:obj_dat.obj
 0002:0000c9cc       ??_C@_0BF@KKFFJIHO@setct?9AuthRevResTBEB?$AA@ 000739cc     libeay32:obj_dat.obj
 0002:0000c9e4       ??_C@_0BE@MHAGABNC@setct?9AuthRevResTBE?$AA@ 000739e4     libeay32:obj_dat.obj
 0002:0000c9f8       ??_C@_0BE@LNMGFCLC@setct?9AuthRevReqTBE?$AA@ 000739f8     libeay32:obj_dat.obj
 0002:0000ca0c       ??_C@_0BI@PALCIALL@setct?9AcqCardCodeMsgTBE?$AA@ 00073a0c     libeay32:obj_dat.obj
 0002:0000ca24       ??_C@_0BD@OMCOOIME@setct?9CapTokenTBEX?$AA@ 00073a24     libeay32:obj_dat.obj
 0002:0000ca38       ??_C@_0BC@CIKKDLAH@setct?9CapTokenTBE?$AA@ 00073a38     libeay32:obj_dat.obj
 0002:0000ca4c       ??_C@_0BD@DHGMJDKO@setct?9AuthTokenTBE?$AA@ 00073a4c     libeay32:obj_dat.obj
 0002:0000ca60       ??_C@_0BC@OEOIIPOH@setct?9AuthResTBEX?$AA@ 00073a60     libeay32:obj_dat.obj
 0002:0000ca74       ??_C@_0BB@IDPADFEK@setct?9AuthResTBE?$AA@ 00073a74     libeay32:obj_dat.obj
 0002:0000ca88       ??_C@_0BB@PJDAGGCK@setct?9AuthReqTBE?$AA@ 00073a88     libeay32:obj_dat.obj
 0002:0000ca9c       ??_C@_0BE@IBOAPLDD@setct?9PIUnsignedTBE?$AA@ 00073a9c     libeay32:obj_dat.obj
 0002:0000cab0       ??_C@_0BG@JDDNBPAG@setct?9PIDualSignedTBE?$AA@ 00073ab0     libeay32:obj_dat.obj
 0002:0000cac8       ??_C@_0P@DLHKHMDJ@setct?9ErrorTBS?$AA@ 00073ac8     libeay32:obj_dat.obj
 0002:0000cad8       ??_C@_0BE@OIDIJLCF@setct?9CertInqReqTBS?$AA@ 00073ad8     libeay32:obj_dat.obj
 0002:0000caec       ??_C@_0BC@BIIFIBNO@setct?9CertResData?$AA@ 00073aec     libeay32:obj_dat.obj
 0002:0000cb00       ??_C@_0BB@MCGELGDK@setct?9CertReqTBS?$AA@ 00073b00     libeay32:obj_dat.obj
 0002:0000cb14       ??_C@_0BC@FFENCANF@setct?9CertReqData?$AA@ 00073b14     libeay32:obj_dat.obj
 0002:0000cb28       ??_C@_0BE@KOFLJLPI@setct?9RegFormResTBS?$AA@ 00073b28     libeay32:obj_dat.obj
 0002:0000cb3c       ??_C@_0BG@DIBJJIJB@setct?9MeAqCInitResTBS?$AA@ 00073b3c     libeay32:obj_dat.obj
 0002:0000cb54       ??_C@_0BG@OMHIHPPP@setct?9CardCInitResTBS?$AA@ 00073b54     libeay32:obj_dat.obj
 0002:0000cb6c       ??_C@_0BI@IHGLAGGD@setct?9BatchAdminResData?$AA@ 00073b6c     libeay32:obj_dat.obj
 0002:0000cb84       ??_C@_0BI@MKKDKHGI@setct?9BatchAdminReqData?$AA@ 00073b84     libeay32:obj_dat.obj
 0002:0000cb9c       ??_C@_0BC@CFHCKIIA@setct?9PCertResTBS?$AA@ 00073b9c     libeay32:obj_dat.obj
 0002:0000cbb0       ??_C@_0BD@DDNGMNFC@setct?9PCertReqData?$AA@ 00073bb0     libeay32:obj_dat.obj
 0002:0000cbc4       ??_C@_0BF@ECOCNOGF@setct?9CredRevResData?$AA@ 00073bc4     libeay32:obj_dat.obj
 0002:0000cbdc       ??_C@_0BF@OOMLDFOD@setct?9CredRevReqTBSX?$AA@ 00073bdc     libeay32:obj_dat.obj
 0002:0000cbf4       ??_C@_0BE@KAOEBGME@setct?9CredRevReqTBS?$AA@ 00073bf4     libeay32:obj_dat.obj
 0002:0000cc08       ??_C@_0BC@PGPKIIHG@setct?9CredResData?$AA@ 00073c08     libeay32:obj_dat.obj
 0002:0000cc1c       ??_C@_0BC@FKNDGDPA@setct?9CredReqTBSX?$AA@ 00073c1c     libeay32:obj_dat.obj
 0002:0000cc30       ??_C@_0BB@LDAMDCDI@setct?9CredReqTBS?$AA@ 00073c30     libeay32:obj_dat.obj
 0002:0000cc44       ??_C@_0BE@EEPKMEFG@setct?9CapRevResData?$AA@ 00073c44     libeay32:obj_dat.obj
 0002:0000cc58       ??_C@_0BE@OINDCPNA@setct?9CapRevReqTBSX?$AA@ 00073c58     libeay32:obj_dat.obj
 0002:0000cc6c       ??_C@_0BD@OELDKIB@setct?9CapRevReqTBS?$AA@ 00073c6c     libeay32:obj_dat.obj
 0002:0000cc80       ??_C@_0BB@BIJNNHL@setct?9CapResData?$AA@ 00073c80     libeay32:obj_dat.obj
 0002:0000cc94       ??_C@_0BB@KNKADGPN@setct?9CapReqTBSX?$AA@ 00073c94     libeay32:obj_dat.obj
 0002:0000cca8       ??_C@_0BA@KCAOGCKM@setct?9CapReqTBS?$AA@ 00073ca8     libeay32:obj_dat.obj
 0002:0000ccb8       ??_C@_0BE@NLJOLEAF@setct?9AuthRevResTBS?$AA@ 00073cb8     libeay32:obj_dat.obj
 0002:0000cccc       ??_C@_0BF@ODDCPHOK@setct?9AuthRevResData?$AA@ 00073ccc     libeay32:obj_dat.obj
 0002:0000cce4       ??_C@_0BE@KBFOOHGF@setct?9AuthRevReqTBS?$AA@ 00073ce4     libeay32:obj_dat.obj
 0002:0000ccf8       ??_C@_0BF@LAOAGKEH@setct?9AcqCardCodeMsg?$AA@ 00073cf8     libeay32:obj_dat.obj
 0002:0000cd10       ??_C@_0BC@DEDCIONA@setct?9CapTokenTBS?$AA@ 00073d10     libeay32:obj_dat.obj
 0002:0000cd24       ??_C@_0BD@BFGEHNIL@setct?9CapTokenData?$AA@ 00073d24     libeay32:obj_dat.obj
 0002:0000cd38       ??_C@_0BD@CLPECGHJ@setct?9AuthTokenTBS?$AA@ 00073d38     libeay32:obj_dat.obj
 0002:0000cd4c       ??_C@_0BC@PMEDFACF@setct?9AuthResTBSX?$AA@ 00073d4c     libeay32:obj_dat.obj
 0002:0000cd60       ??_C@_0BB@JPGIIAJN@setct?9AuthResTBS?$AA@ 00073d60     libeay32:obj_dat.obj
 0002:0000cd74       ??_C@_0BB@OFKINDPN@setct?9AuthReqTBS?$AA@ 00073d74     libeay32:obj_dat.obj
 0002:0000cd88       ??_C@_0P@NGDEPBBH@setct?9PResData?$AA@ 00073d88     libeay32:obj_dat.obj
 0002:0000cd98       ??_C@_0N@GIGHFPBJ@setct?9PI?9TBS?$AA@ 00073d98     libeay32:obj_dat.obj
 0002:0000cda8       ??_C@_0BD@GIEGHJGD@setct?9PInitResData?$AA@ 00073da8     libeay32:obj_dat.obj
 0002:0000cdbc       ??_C@_0BC@DDFFKACM@setct?9CapTokenSeq?$AA@ 00073dbc     libeay32:obj_dat.obj
 0002:0000cdd0       ??_C@_0BI@CNLKCNFM@setct?9AuthRevResBaggage?$AA@ 00073dd0     libeay32:obj_dat.obj
 0002:0000cde8       ??_C@_0BI@DEMAFNK@setct?9AuthRevReqBaggage?$AA@ 00073de8     libeay32:obj_dat.obj
 0002:0000ce00       ??_C@_0BF@EFHLGKOJ@setct?9AuthResBaggage?$AA@ 00073e00     libeay32:obj_dat.obj
 0002:0000ce18       ??_C@_0P@LPBKKIBL@setct?9HODInput?$AA@ 00073e18     libeay32:obj_dat.obj
 0002:0000ce28       ??_C@_0BF@BDFGFMFJ@setct?9PIDataUnsigned?$AA@ 00073e28     libeay32:obj_dat.obj
 0002:0000ce40       ??_C@_0N@PGCGIPOF@setct?9PIData?$AA@ 00073e40     libeay32:obj_dat.obj
 0002:0000ce50       ??_C@_08MNJJNIEC@setct?9PI?$AA@ 00073e50     libeay32:obj_dat.obj
 0002:0000ce5c       ??_C@_0N@GHLAGDMC@setct?9OIData?$AA@ 00073e5c     libeay32:obj_dat.obj
 0002:0000ce6c       ??_C@_0O@PFJCCKAL@setct?9PANOnly?$AA@ 00073e6c     libeay32:obj_dat.obj
 0002:0000ce7c       ??_C@_0P@LAMDLEMO@setct?9PANToken?$AA@ 00073e7c     libeay32:obj_dat.obj
 0002:0000ce8c       ??_C@_0O@EKAPGBNN@setct?9PANData?$AA@ 00073e8c     libeay32:obj_dat.obj
 0002:0000ce9c       ??_C@_09JHODGPNO@set?9brand?$AA@ 00073e9c     libeay32:obj_dat.obj
 0002:0000cea8       ??_C@_0BH@PDPIEGPA@certificate?5extensions?$AA@ 00073ea8     libeay32:obj_dat.obj
 0002:0000cec0       ??_C@_0M@KEIBDDC@set?9certExt?$AA@ 00073ec0     libeay32:obj_dat.obj
 0002:0000cecc       ??_C@_0L@LAAAKICM@set?9policy?$AA@ 00073ecc     libeay32:obj_dat.obj
 0002:0000ced8       ??_C@_08OFDIOKIA@set?9attr?$AA@ 00073ed8     libeay32:obj_dat.obj
 0002:0000cee4       ??_C@_0BD@LEIDLLNO@message?5extensions?$AA@ 00073ee4     libeay32:obj_dat.obj
 0002:0000cef8       ??_C@_0L@PKPEIEIJ@set?9msgExt?$AA@ 00073ef8     libeay32:obj_dat.obj
 0002:0000cf04       ??_C@_0O@HJGLMADJ@content?5types?$AA@ 00073f04     libeay32:obj_dat.obj
 0002:0000cf14       ??_C@_09EJPBIJJA@set?9ctype?$AA@ 00073f14     libeay32:obj_dat.obj
 0002:0000cf20       ??_C@_0BP@KEIHJPNF@Secure?5Electronic?5Transactions?$AA@ 00073f20     libeay32:obj_dat.obj
 0002:0000cf40       ??_C@_06KKEMDFAF@id?9set?$AA@ 00073f40     libeay32:obj_dat.obj
 0002:0000cf48       ??_C@_09NNMENHIH@pseudonym?$AA@ 00073f48     libeay32:obj_dat.obj
 0002:0000cf54       ??_C@_0BE@DAEHFOO@generationQualifier?$AA@ 00073f54     libeay32:obj_dat.obj
 0002:0000cf68       ??_C@_0BJ@KCNAIDP@id?9hex?9multipart?9message?$AA@ 00073f68     libeay32:obj_dat.obj
 0002:0000cf84       ??_C@_0BH@ILCJEHBB@id?9hex?9partial?9message?$AA@ 00073f84     libeay32:obj_dat.obj
 0002:0000cf9c       ??_C@_0BA@MOFCNIEE@mime?9mhs?9bodies?$AA@ 00073f9c     libeay32:obj_dat.obj
 0002:0000cfac       ??_C@_0BC@NIFMCBEJ@mime?9mhs?9headings?$AA@ 00073fac     libeay32:obj_dat.obj
 0002:0000cfc0       ??_C@_08DNBACEKK@MIME?5MHS?$AA@ 00073fc0     libeay32:obj_dat.obj
 0002:0000cfcc       ??_C@_08HLONPBDI@mime?9mhs?$AA@ 00073fcc     libeay32:obj_dat.obj
 0002:0000cfd8       ??_C@_0BF@EFCCADKK@x500UniqueIdentifier?$AA@ 00073fd8     libeay32:obj_dat.obj
 0002:0000cff0       ??_C@_0BC@KCCHJGGO@documentPublisher?$AA@ 00073ff0     libeay32:obj_dat.obj
 0002:0000d004       ??_C@_05KNIAAKIP@audio?$AA@ 00074004     libeay32:obj_dat.obj
 0002:0000d00c       ??_C@_0M@KIABODOB@dITRedirect?$AA@ 0007400c     libeay32:obj_dat.obj
 0002:0000d018       ??_C@_0BC@CBOFINFC@personalSignature?$AA@ 00074018     libeay32:obj_dat.obj
 0002:0000d02c       ??_C@_0BG@FLFPEGPE@subtreeMaximumQuality?$AA@ 0007402c     libeay32:obj_dat.obj
 0002:0000d044       ??_C@_0BG@HMOECBMF@subtreeMinimumQuality?$AA@ 00074044     libeay32:obj_dat.obj
 0002:0000d05c       ??_C@_0BD@EHDOPADK@singleLevelQuality?$AA@ 0007405c     libeay32:obj_dat.obj
 0002:0000d070       ??_C@_0L@LMCCHBHL@dSAQuality?$AA@ 00074070     libeay32:obj_dat.obj
 0002:0000d07c       ??_C@_0N@POAALOHC@buildingName?$AA@ 0007407c     libeay32:obj_dat.obj
 0002:0000d08c       ??_C@_0BF@OFOHKDCI@mailPreferenceOption?$AA@ 0007408c     libeay32:obj_dat.obj
 0002:0000d0a4       ??_C@_0N@DGNBNBGJ@janetMailbox?$AA@ 000740a4     libeay32:obj_dat.obj
 0002:0000d0b4       ??_C@_0BF@IANLBJMF@organizationalStatus?$AA@ 000740b4     libeay32:obj_dat.obj
 0002:0000d0cc       ??_C@_0BE@MGDAFGCM@friendlyCountryName?$AA@ 000740cc     libeay32:obj_dat.obj
 0002:0000d0e0       ??_C@_0BF@JICDDEFM@pagerTelephoneNumber?$AA@ 000740e0     libeay32:obj_dat.obj
 0002:0000d0f8       ??_C@_0BG@DCPABLLG@mobileTelephoneNumber?$AA@ 000740f8     libeay32:obj_dat.obj
 0002:0000d110       ??_C@_0O@CCHLDBGG@personalTitle?$AA@ 00074110     libeay32:obj_dat.obj
 0002:0000d120       ??_C@_0BC@NPJKACJF@homePostalAddress?$AA@ 00074120     libeay32:obj_dat.obj
 0002:0000d134       ??_C@_0P@OJOOFNGB@associatedName?$AA@ 00074134     libeay32:obj_dat.obj
 0002:0000d144       ??_C@_0BB@MEFMIBKO@associatedDomain?$AA@ 00074144     libeay32:obj_dat.obj
 0002:0000d158       ??_C@_0M@GHEAGPOE@cNAMERecord?$AA@ 00074158     libeay32:obj_dat.obj
 0002:0000d164       ??_C@_09OCFHDJJF@sOARecord?$AA@ 00074164     libeay32:obj_dat.obj
 0002:0000d170       ??_C@_08FBLONLGA@nSRecord?$AA@ 00074170     libeay32:obj_dat.obj
 0002:0000d17c       ??_C@_08DFFJPLPD@mXRecord?$AA@ 0007417c     libeay32:obj_dat.obj
 0002:0000d188       ??_C@_0BF@MIIMJDJB@pilotAttributeType27?$AA@ 00074188     libeay32:obj_dat.obj
 0002:0000d1a0       ??_C@_07IBNMBOJB@aRecord?$AA@ 000741a0     libeay32:obj_dat.obj
 0002:0000d1a8       ??_C@_0P@ECLEJAJJ@lastModifiedBy?$AA@ 000741a8     libeay32:obj_dat.obj
 0002:0000d1b8       ??_C@_0BB@LHLABCIP@lastModifiedTime?$AA@ 000741b8     libeay32:obj_dat.obj
 0002:0000d1cc       ??_C@_0N@CEOKELFP@otherMailbox?$AA@ 000741cc     libeay32:obj_dat.obj
 0002:0000d1dc       ??_C@_09EMBFDNKC@secretary?$AA@ 000741dc     libeay32:obj_dat.obj
 0002:0000d1e8       ??_C@_0BE@CPLAKLNE@homeTelephoneNumber?$AA@ 000741e8     libeay32:obj_dat.obj
 0002:0000d1fc       ??_C@_0BB@COFKDFJ@documentLocation?$AA@ 000741fc     libeay32:obj_dat.obj
 0002:0000d210       ??_C@_0P@DABDJKFB@documentAuthor?$AA@ 00074210     libeay32:obj_dat.obj
 0002:0000d220       ??_C@_0BA@GHOLKFM@documentVersion?$AA@ 00074220     libeay32:obj_dat.obj
 0002:0000d230       ??_C@_0O@BDIDABAC@documentTitle?$AA@ 00074230     libeay32:obj_dat.obj
 0002:0000d240       ??_C@_0BD@MEPJGCEO@documentIdentifier?$AA@ 00074240     libeay32:obj_dat.obj
 0002:0000d254       ??_C@_07JPLKDPHP@manager?$AA@ 00074254     libeay32:obj_dat.obj
 0002:0000d25c       ??_C@_04OODOLJMA@host?$AA@ 0007425c     libeay32:obj_dat.obj
 0002:0000d264       ??_C@_09CCPGMHEM@userClass?$AA@ 00074264     libeay32:obj_dat.obj
 0002:0000d270       ??_C@_05DOIFDPKA@photo?$AA@ 00074270     libeay32:obj_dat.obj
 0002:0000d278       ??_C@_0L@DGKNANFO@roomNumber?$AA@ 00074278     libeay32:obj_dat.obj
 0002:0000d284       ??_C@_0P@PAMFCEKP@favouriteDrink?$AA@ 00074284     libeay32:obj_dat.obj
 0002:0000d294       ??_C@_04NIDJFNBE@info?$AA@ 00074294     libeay32:obj_dat.obj
 0002:0000d29c       ??_C@_0O@PDNFEOHL@rfc822Mailbox?$AA@ 0007429c     libeay32:obj_dat.obj
 0002:0000d2ac       ??_C@_04FFKLPPHM@mail?$AA@ 000742ac     libeay32:obj_dat.obj
 0002:0000d2b4       ??_C@_0BF@HDIIKJDI@textEncodedORAddress?$AA@ 000742b4     libeay32:obj_dat.obj
 0002:0000d2cc       ??_C@_06LPELCIKE@userId?$AA@ 000742cc     libeay32:obj_dat.obj
 0002:0000d2d4       ??_C@_03MJDGODDN@UID?$AA@  000742d4     libeay32:obj_dat.obj
 0002:0000d2d8       ??_C@_0BE@DDFOMMI@qualityLabelledData?$AA@ 000742d8     libeay32:obj_dat.obj
 0002:0000d2ec       ??_C@_08MPJGPMC@pilotDSA?$AA@ 000742ec     libeay32:obj_dat.obj
 0002:0000d2f8       ??_C@_0BC@PLDKCMI@pilotOrganization?$AA@ 000742f8     libeay32:obj_dat.obj
 0002:0000d30c       ??_C@_0BF@CONLNHDI@simpleSecurityObject?$AA@ 0007430c     libeay32:obj_dat.obj
 0002:0000d324       ??_C@_0BA@LKHIAMBK@friendlyCountry?$AA@ 00074324     libeay32:obj_dat.obj
 0002:0000d334       ??_C@_0BE@OPAPHNCO@domainRelatedObject?$AA@ 00074334     libeay32:obj_dat.obj
 0002:0000d348       ??_C@_09BOCGGGMK@dNSDomain?$AA@ 00074348     libeay32:obj_dat.obj
 0002:0000d354       ??_C@_0BA@KIAIOBLD@rFC822localPart?$AA@ 00074354     libeay32:obj_dat.obj
 0002:0000d364       ??_C@_0P@OAPEDDHP@documentSeries?$AA@ 00074364     libeay32:obj_dat.obj
 0002:0000d374       ??_C@_04EKFCMFOP@room?$AA@ 00074374     libeay32:obj_dat.obj
 0002:0000d37c       ??_C@_08JEEDKNPB@document?$AA@ 0007437c     libeay32:obj_dat.obj
 0002:0000d388       ??_C@_07PMDLEBNF@account?$AA@ 00074388     libeay32:obj_dat.obj
 0002:0000d390       ??_C@_0M@NCGDCEIP@pilotPerson?$AA@ 00074390     libeay32:obj_dat.obj
 0002:0000d39c       ??_C@_0M@MCCFCPKP@pilotObject?$AA@ 0007439c     libeay32:obj_dat.obj
 0002:0000d3a8       ??_C@_0BK@LELMGJGD@caseIgnoreIA5StringSyntax?$AA@ 000743a8     libeay32:obj_dat.obj
 0002:0000d3c4       ??_C@_0BA@KPIIGILK@iA5StringSyntax?$AA@ 000743c4     libeay32:obj_dat.obj
 0002:0000d3d4       ??_C@_0M@DLMEDAFC@pilotGroups?$AA@ 000743d4     libeay32:obj_dat.obj
 0002:0000d3e0       ??_C@_0BB@MJFNAIDM@pilotObjectClass?$AA@ 000743e0     libeay32:obj_dat.obj
 0002:0000d3f4       ??_C@_0BF@CDEFHHCF@pilotAttributeSyntax?$AA@ 000743f4     libeay32:obj_dat.obj
 0002:0000d40c       ??_C@_0BD@NEGIHOAI@pilotAttributeType?$AA@ 0007440c     libeay32:obj_dat.obj
 0002:0000d420       ??_C@_05KIBFDOPF@pilot?$AA@ 00074420     libeay32:obj_dat.obj
 0002:0000d428       ??_C@_03BIDCBJP@ucl?$AA@   00074428     libeay32:obj_dat.obj
 0002:0000d42c       ??_C@_04PJOLNDGD@data?$AA@ 0007442c     libeay32:obj_dat.obj
 0002:0000d434       ??_C@_0BI@EEABHGCD@Hold?5Instruction?5Reject?$AA@ 00074434     libeay32:obj_dat.obj
 0002:0000d44c       ??_C@_0BG@BDAACIJE@holdInstructionReject?$AA@ 0007444c     libeay32:obj_dat.obj
 0002:0000d464       ??_C@_0BN@IJKNPIFC@Hold?5Instruction?5Call?5Issuer?$AA@ 00074464     libeay32:obj_dat.obj
 0002:0000d484       ??_C@_0BK@ENEKHHMB@holdInstructionCallIssuer?$AA@ 00074484     libeay32:obj_dat.obj
 0002:0000d4a0       ??_C@_0BG@ECBIHNGK@Hold?5Instruction?5None?$AA@ 000744a0     libeay32:obj_dat.obj
 0002:0000d4b8       ??_C@_0BE@KPEIPHPJ@holdInstructionNone?$AA@ 000744b8     libeay32:obj_dat.obj
 0002:0000d4cc       ??_C@_0BG@LHBPDMAN@Hold?5Instruction?5Code?$AA@ 000744cc     libeay32:obj_dat.obj
 0002:0000d4e4       ??_C@_0BE@FKEPLGJO@holdInstructionCode?$AA@ 000744e4     libeay32:obj_dat.obj
 0002:0000d4f8       ??_C@_0M@JMFNEPEI@aes?9256?9cfb?$AA@ 000744f8     libeay32:obj_dat.obj
 0002:0000d504       ??_C@_0M@EAFGNFML@AES?9256?9CFB?$AA@ 00074504     libeay32:obj_dat.obj
 0002:0000d510       ??_C@_0M@NGILPAPA@aes?9256?9ofb?$AA@ 00074510     libeay32:obj_dat.obj
 0002:0000d51c       ??_C@_0M@KIAGKHD@AES?9256?9OFB?$AA@ 0007451c     libeay32:obj_dat.obj
 0002:0000d528       ??_C@_0M@ICEPNGNF@aes?9256?9cbc?$AA@ 00074528     libeay32:obj_dat.obj
 0002:0000d534       ??_C@_0M@FOEEEMFG@AES?9256?9CBC?$AA@ 00074534     libeay32:obj_dat.obj
 0002:0000d540       ??_C@_0M@LPPNNCHP@aes?9256?9ecb?$AA@ 00074540     libeay32:obj_dat.obj
 0002:0000d54c       ??_C@_0M@GDPGEIPM@AES?9256?9ECB?$AA@ 0007454c     libeay32:obj_dat.obj
 0002:0000d558       ??_C@_0M@EOODGAMJ@aes?9192?9cfb?$AA@ 00074558     libeay32:obj_dat.obj
 0002:0000d564       ??_C@_0M@JCOIPKEK@AES?9192?9CFB?$AA@ 00074564     libeay32:obj_dat.obj
 0002:0000d570       ??_C@_0M@EDFNPHB@aes?9192?9ofb?$AA@ 00074570     libeay32:obj_dat.obj
 0002:0000d57c       ??_C@_0M@NIDOEFPC@AES?9192?9OFB?$AA@ 0007457c     libeay32:obj_dat.obj
 0002:0000d588       ??_C@_0M@FAPBPJFE@aes?9192?9cbc?$AA@ 00074588     libeay32:obj_dat.obj
 0002:0000d594       ??_C@_0M@IMPKGDNH@AES?9192?9CBC?$AA@ 00074594     libeay32:obj_dat.obj
 0002:0000d5a0       ??_C@_0M@GNEDPNPO@aes?9192?9ecb?$AA@ 000745a0     libeay32:obj_dat.obj
 0002:0000d5ac       ??_C@_0M@LBEIGHHN@AES?9192?9ECB?$AA@ 000745ac     libeay32:obj_dat.obj
 0002:0000d5b8       ??_C@_0M@ONHPBHFF@aes?9128?9cfb?$AA@ 000745b8     libeay32:obj_dat.obj
 0002:0000d5c4       ??_C@_0M@DBHEINNG@AES?9128?9CFB?$AA@ 000745c4     libeay32:obj_dat.obj
 0002:0000d5d0       ??_C@_0M@KHKJKION@aes?9128?9ofb?$AA@ 000745d0     libeay32:obj_dat.obj
 0002:0000d5dc       ??_C@_0M@HLKCDCGO@AES?9128?9OFB?$AA@ 000745dc     libeay32:obj_dat.obj
 0002:0000d5e8       ??_C@_0M@PDGNIOMI@aes?9128?9cbc?$AA@ 000745e8     libeay32:obj_dat.obj
 0002:0000d5f4       ??_C@_0M@CPGGBEEL@AES?9128?9CBC?$AA@ 000745f4     libeay32:obj_dat.obj
 0002:0000d600       ??_C@_0M@MONPIKGC@aes?9128?9ecb?$AA@ 00074600     libeay32:obj_dat.obj
 0002:0000d60c       ??_C@_0M@BCNEBAOB@AES?9128?9ECB?$AA@ 0007460c     libeay32:obj_dat.obj
 0002:0000d618       ??_C@_0BD@HDEEGCLB@Microsoft?5CSP?5Name?$AA@ 00074618     libeay32:obj_dat.obj
 0002:0000d62c       ??_C@_07BPKAKPJK@CSPName?$AA@ 0007462c     libeay32:obj_dat.obj
 0002:0000d634       ??_C@_0BA@DGJNDOPM@ecdsa?9with?9SHA1?$AA@ 00074634     libeay32:obj_dat.obj
 0002:0000d644       ??_C@_0L@JJFEINOP@prime256v1?$AA@ 00074644     libeay32:obj_dat.obj
 0002:0000d650       ??_C@_0L@HMEBAKJL@prime239v3?$AA@ 00074650     libeay32:obj_dat.obj
 0002:0000d65c       ??_C@_0L@GFFKDLNK@prime239v2?$AA@ 0007465c     libeay32:obj_dat.obj
 0002:0000d668       ??_C@_0L@EOHHGIBJ@prime239v1?$AA@ 00074668     libeay32:obj_dat.obj
 0002:0000d674       ??_C@_0L@GHGEOHJF@prime192v3?$AA@ 00074674     libeay32:obj_dat.obj
 0002:0000d680       ??_C@_0L@HOHPNGNE@prime192v2?$AA@ 00074680     libeay32:obj_dat.obj
 0002:0000d68c       ??_C@_0L@FFFCIFBH@prime192v1?$AA@ 0007468c     libeay32:obj_dat.obj
 0002:0000d698       ??_C@_0P@NEOBKIMO@id?9ecPublicKey?$AA@ 00074698     libeay32:obj_dat.obj
 0002:0000d6a8       ??_C@_0BJ@HECCMKCN@characteristic?9two?9field?$AA@ 000746a8     libeay32:obj_dat.obj
 0002:0000d6c4       ??_C@_0M@LGLKIODB@prime?9field?$AA@ 000746c4     libeay32:obj_dat.obj
 0002:0000d6d0       ??_C@_0L@HAOKGHPF@ANSI?5X9?462?$AA@ 000746d0     libeay32:obj_dat.obj
 0002:0000d6dc       ??_C@_0L@LBMOMFCJ@ansi?9X9?962?$AA@ 000746dc     libeay32:obj_dat.obj
 0002:0000d6e8       ??_C@_0BP@DEKFNCEH@X509v3?5No?5Revocation?5Available?$AA@ 000746e8     libeay32:obj_dat.obj
 0002:0000d708       ??_C@_0L@ECGDAGCK@noRevAvail?$AA@ 00074708     libeay32:obj_dat.obj
 0002:0000d714       ??_C@_0BE@IECCFFCH@X509v3?5AC?5Targeting?$AA@ 00074714     libeay32:obj_dat.obj
 0002:0000d728       ??_C@_0BC@JINDJNPM@targetInformation?$AA@ 00074728     libeay32:obj_dat.obj
 0002:0000d73c       ??_C@_0BK@DNMBLGM@X509v3?5Policy?5Constraints?$AA@ 0007473c     libeay32:obj_dat.obj
 0002:0000d758       ??_C@_0BC@IJLMCBHD@policyConstraints?$AA@ 00074758     libeay32:obj_dat.obj
 0002:0000d76c       ??_C@_04IAMNPBLO@role?$AA@ 0007476c     libeay32:obj_dat.obj
 0002:0000d774       ??_C@_0BA@PEFFHNFH@id?9aca?9encAttrs?$AA@ 00074774     libeay32:obj_dat.obj
 0002:0000d784       ??_C@_0BL@OMFIOBLF@Subject?5Information?5Access?$AA@ 00074784     libeay32:obj_dat.obj
 0002:0000d7a0       ??_C@_0BC@IEIBIKBA@subjectInfoAccess?$AA@ 000747a0     libeay32:obj_dat.obj
 0002:0000d7b4       ??_C@_0M@BKAIKGEL@ac?9proxying?$AA@ 000747b4     libeay32:obj_dat.obj
 0002:0000d7c0       ??_C@_0BF@JDOFKNPK@md4WithRSAEncryption?$AA@ 000747c0     libeay32:obj_dat.obj
 0002:0000d7d8       ??_C@_07MHHBEDHA@RSA?9MD4?$AA@ 000747d8     libeay32:obj_dat.obj
 0002:0000d7e0       ??_C@_09ECGCCLFI@clearance?$AA@ 000747e0     libeay32:obj_dat.obj
 0002:0000d7ec       ??_C@_0BJ@MAOJIBHF@Selected?5Attribute?5Types?$AA@ 000747ec     libeay32:obj_dat.obj
 0002:0000d808       ??_C@_0BJ@BDDNHDDA@selected?9attribute?9types?$AA@ 00074808     libeay32:obj_dat.obj
 0002:0000d824       ??_C@_04HIBGFPH@NULL?$AA@  00074824     libeay32:obj_dat.obj
 0002:0000d82c       ??_C@_06HFDFFJHI@Domain?$AA@ 0007482c     libeay32:obj_dat.obj
 0002:0000d834       ??_C@_06LKIIGAOE@domain?$AA@ 00074834     libeay32:obj_dat.obj
 0002:0000d83c       ??_C@_0BA@DMAKFKAH@domainComponent?$AA@ 0007483c     libeay32:obj_dat.obj
 0002:0000d84c       ??_C@_02KMHJBPDH@DC?$AA@   0007484c     libeay32:obj_dat.obj
 0002:0000d850       ??_C@_08GPNKJGDG@dcObject?$AA@ 00074850     libeay32:obj_dat.obj
 0002:0000d85c       ??_C@_08KAGHKPKK@dcobject?$AA@ 0007485c     libeay32:obj_dat.obj
 0002:0000d868       ??_C@_0M@CEEPHGPL@Enterprises?$AA@ 00074868     libeay32:obj_dat.obj
 0002:0000d874       ??_C@_0M@DMHOKNAD@enterprises?$AA@ 00074874     libeay32:obj_dat.obj
 0002:0000d880       ??_C@_04JEGKNAHI@Mail?$AA@ 00074880     libeay32:obj_dat.obj
 0002:0000d888       ??_C@_06JDJOGLHO@SNMPv2?$AA@ 00074888     libeay32:obj_dat.obj
 0002:0000d890       ??_C@_06DKHMNHOO@snmpv2?$AA@ 00074890     libeay32:obj_dat.obj
 0002:0000d898       ??_C@_08EDKKPLCC@Security?$AA@ 00074898     libeay32:obj_dat.obj
 0002:0000d8a4       ??_C@_08MBFLHJIB@security?$AA@ 000748a4     libeay32:obj_dat.obj
 0002:0000d8b0       ??_C@_07CFINJGKH@Private?$AA@ 000748b0     libeay32:obj_dat.obj
 0002:0000d8b8       ??_C@_07NMPLPEPB@private?$AA@ 000748b8     libeay32:obj_dat.obj
 0002:0000d8c0       ??_C@_0N@FKCIGJFM@Experimental?$AA@ 000748c0     libeay32:obj_dat.obj
 0002:0000d8d0       ??_C@_0N@OJFGCCKJ@experimental?$AA@ 000748d0     libeay32:obj_dat.obj
 0002:0000d8e0       ??_C@_0L@ENAJINDB@Management?$AA@ 000748e0     libeay32:obj_dat.obj
 0002:0000d8ec       ??_C@_04PFNCJACF@mgmt?$AA@ 000748ec     libeay32:obj_dat.obj
 0002:0000d8f4       ??_C@_09EOAFACM@Directory?$AA@ 000748f4     libeay32:obj_dat.obj
 0002:0000d900       ??_C@_09ELLNFDPM@directory?$AA@ 00074900     libeay32:obj_dat.obj
 0002:0000d90c       ??_C@_04BAMKDBHE@iana?$AA@ 0007490c     libeay32:obj_dat.obj
 0002:0000d914       ??_C@_04NMPANDAM@IANA?$AA@ 00074914     libeay32:obj_dat.obj
 0002:0000d91c       ??_C@_03CIOFGCAJ@dod?$AA@  0007491c     libeay32:obj_dat.obj
 0002:0000d920       ??_C@_03CFBOKPHF@DOD?$AA@  00074920     libeay32:obj_dat.obj
 0002:0000d924       ??_C@_03MADHIGOI@org?$AA@  00074924     libeay32:obj_dat.obj
 0002:0000d928       ??_C@_03MNMMELJE@ORG?$AA@  00074928     libeay32:obj_dat.obj
 0002:0000d92c       ??_C@_0CA@FIOIBJEO@directory?5services?5?9?5algorithms?$AA@ 0007492c     libeay32:obj_dat.obj
 0002:0000d94c       ??_C@_0P@NMIAKCBG@X500algorithms?$AA@ 0007494c     libeay32:obj_dat.obj
 0002:0000d95c       ??_C@_0N@JHANBHGC@rsaSignature?$AA@ 0007495c     libeay32:obj_dat.obj
 0002:0000d96c       ??_C@_09JPNFBOJG@algorithm?$AA@ 0007496c     libeay32:obj_dat.obj
 0002:0000d978       ??_C@_0L@INBPOG@Trust?5Root?$AA@ 00074978     libeay32:obj_dat.obj
 0002:0000d984       ??_C@_09LNEPAILM@trustRoot?$AA@ 00074984     libeay32:obj_dat.obj
 0002:0000d990       ??_C@_04LNEJFJGI@path?$AA@ 00074990     libeay32:obj_dat.obj
 0002:0000d998       ??_C@_05HDPIMK@valid?$AA@  00074998     libeay32:obj_dat.obj
 0002:0000d9a0       ??_C@_0BF@MPEDLKDP@Extended?5OCSP?5Status?$AA@ 000749a0     libeay32:obj_dat.obj
 0002:0000d9b8       ??_C@_0P@EGENIBNC@extendedStatus?$AA@ 000749b8     libeay32:obj_dat.obj
 0002:0000d9c8       ??_C@_0BF@CEIKAD@OCSP?5Service?5Locator?$AA@ 000749c8     libeay32:obj_dat.obj
 0002:0000d9e0       ??_C@_0P@LCDAPLHC@serviceLocator?$AA@ 000749e0     libeay32:obj_dat.obj
 0002:0000d9f0       ??_C@_0BE@JAFPABJB@OCSP?5Archive?5Cutoff?$AA@ 000749f0     libeay32:obj_dat.obj
 0002:0000da04       ??_C@_0O@FIEDPKGI@archiveCutoff?$AA@ 00074a04     libeay32:obj_dat.obj
 0002:0000da14       ??_C@_0O@HFOALJCG@OCSP?5No?5Check?$AA@ 00074a14     libeay32:obj_dat.obj
 0002:0000da24       ??_C@_07MCKMCKHJ@noCheck?$AA@ 00074a24     libeay32:obj_dat.obj
 0002:0000da2c       ??_C@_0BK@JKKLNLEI@Acceptable?5OCSP?5Responses?$AA@ 00074a2c     libeay32:obj_dat.obj
 0002:0000da48       ??_C@_0BE@FBPDIHIK@acceptableResponses?$AA@ 00074a48     libeay32:obj_dat.obj
 0002:0000da5c       ??_C@_0M@LCLKJALE@OCSP?5CRL?5ID?$AA@ 00074a5c     libeay32:obj_dat.obj
 0002:0000da68       ??_C@_05NOENOBME@CrlID?$AA@ 00074a68     libeay32:obj_dat.obj
 0002:0000da70       ??_C@_0L@NCNDEJFL@OCSP?5Nonce?$AA@ 00074a70     libeay32:obj_dat.obj
 0002:0000da7c       ??_C@_05OJOPLPHH@Nonce?$AA@ 00074a7c     libeay32:obj_dat.obj
 0002:0000da84       ??_C@_0BE@ONEEPEOL@Basic?5OCSP?5Response?$AA@ 00074a84     libeay32:obj_dat.obj
 0002:0000da98       ??_C@_0BC@KFAFMFFF@basicOCSPResponse?$AA@ 00074a98     libeay32:obj_dat.obj
 0002:0000daac       ??_C@_07JCKMJMPC@ad?5dvcs?$AA@ 00074aac     libeay32:obj_dat.obj
 0002:0000dab4       ??_C@_07JCCJJKFE@AD_DVCS?$AA@ 00074ab4     libeay32:obj_dat.obj
 0002:0000dabc       ??_C@_0BB@NMPPBOGK@AD?5Time?5Stamping?$AA@ 00074abc     libeay32:obj_dat.obj
 0002:0000dad0       ??_C@_0BA@PBBONLHE@ad_timestamping?$AA@ 00074ad0     libeay32:obj_dat.obj
 0002:0000dae0       ??_C@_0BD@DDALHPCH@id?9cct?9PKIResponse?$AA@ 00074ae0     libeay32:obj_dat.obj
 0002:0000daf4       ??_C@_0P@FNCPPGJO@id?9cct?9PKIData?$AA@ 00074af4     libeay32:obj_dat.obj
 0002:0000db04       ??_C@_0L@CDHPLMPE@id?9cct?9crs?$AA@ 00074b04     libeay32:obj_dat.obj
 0002:0000db10       ??_C@_0BH@DJONLBHI@id?9qcs?9pkixQCSyntax?9v1?$AA@ 00074b10     libeay32:obj_dat.obj
 0002:0000db28       ??_C@_0M@FBOAJIIJ@id?9aca?9role?$AA@ 00074b28     libeay32:obj_dat.obj
 0002:0000db34       ??_C@_0N@HOPCGOGP@id?9aca?9group?$AA@ 00074b34     libeay32:obj_dat.obj
 0002:0000db44       ??_C@_0BI@IDHFJBKH@id?9aca?9chargingIdentity?$AA@ 00074b44     libeay32:obj_dat.obj
 0002:0000db5c       ??_C@_0BG@GFJCFEAI@id?9aca?9accessIdentity?$AA@ 00074b5c     libeay32:obj_dat.obj
 0002:0000db74       ??_C@_0BK@OFEDAOCA@id?9aca?9authenticationInfo?$AA@ 00074b74     libeay32:obj_dat.obj
 0002:0000db90       ??_C@_0BK@BJMNIGCJ@id?9pda?9countryOfResidence?$AA@ 00074b90     libeay32:obj_dat.obj
 0002:0000dbac       ??_C@_0BM@KMGEGNAB@id?9pda?9countryOfCitizenship?$AA@ 00074bac     libeay32:obj_dat.obj
 0002:0000dbc8       ??_C@_0O@JMCFNPFD@id?9pda?9gender?$AA@ 00074bc8     libeay32:obj_dat.obj
 0002:0000dbd8       ??_C@_0BE@NIFFDBPJ@id?9pda?9placeOfBirth?$AA@ 00074bd8     libeay32:obj_dat.obj
 0002:0000dbec       ??_C@_0BD@BADJMIPF@id?9pda?9dateOfBirth?$AA@ 00074bec     libeay32:obj_dat.obj
 0002:0000dc00       ??_C@_0BD@IGLADCFL@id?9on?9personalData?$AA@ 00074c00     libeay32:obj_dat.obj
 0002:0000dc14       ??_C@_0BN@MIGHDJON@id?9cmc?9confirmCertAcceptance?$AA@ 00074c14     libeay32:obj_dat.obj
 0002:0000dc34       ??_C@_0BG@EEIJMDPB@id?9cmc?9popLinkWitness?$AA@ 00074c34     libeay32:obj_dat.obj
 0002:0000dc4c       ??_C@_0BF@GGLCNKGO@id?9cmc?9popLinkRandom?$AA@ 00074c4c     libeay32:obj_dat.obj
 0002:0000dc64       ??_C@_0BE@JKLJLIIH@id?9cmc?9queryPending?$AA@ 00074c64     libeay32:obj_dat.obj
 0002:0000dc78       ??_C@_0BE@CKMFMMDP@id?9cmc?9responseInfo?$AA@ 00074c78     libeay32:obj_dat.obj
 0002:0000dc8c       ??_C@_0P@PCIOIKNC@id?9cmc?9regInfo?$AA@ 00074c8c     libeay32:obj_dat.obj
 0002:0000dc9c       ??_C@_0BF@BOEAJJNI@id?9cmc?9revokeRequest?$AA@ 00074c9c     libeay32:obj_dat.obj
 0002:0000dcb4       ??_C@_0O@OIGIOBJ@id?9cmc?9getCRL?$AA@ 00074cb4     libeay32:obj_dat.obj
 0002:0000dcc4       ??_C@_0P@GMDPJKDO@id?9cmc?9getCert?$AA@ 00074cc4     libeay32:obj_dat.obj
 0002:0000dcd4       ??_C@_0BF@BMODAINP@id?9cmc?9lraPOPWitness?$AA@ 00074cd4     libeay32:obj_dat.obj
 0002:0000dcec       ??_C@_0BE@KBIPLENG@id?9cmc?9decryptedPOP?$AA@ 00074cec     libeay32:obj_dat.obj
 0002:0000dd00       ??_C@_0BE@NILMJFN@id?9cmc?9encryptedPOP?$AA@ 00074d00     libeay32:obj_dat.obj
 0002:0000dd14       ??_C@_0BF@HLOCACJF@id?9cmc?9addExtensions?$AA@ 00074d14     libeay32:obj_dat.obj
 0002:0000dd2c       ??_C@_0BG@JLHHNNCH@id?9cmc?9recipientNonce?$AA@ 00074d2c     libeay32:obj_dat.obj
 0002:0000dd44       ??_C@_0BD@BCMJDDMP@id?9cmc?9senderNonce?$AA@ 00074d44     libeay32:obj_dat.obj
 0002:0000dd58       ??_C@_0BF@GEJAHBF@id?9cmc?9transactionId?$AA@ 00074d58     libeay32:obj_dat.obj
 0002:0000dd70       ??_C@_0BC@LLJKCHEN@id?9cmc?9dataReturn?$AA@ 00074d70     libeay32:obj_dat.obj
 0002:0000dd84       ??_C@_0BF@IDAHNDCK@id?9cmc?9identityProof?$AA@ 00074d84     libeay32:obj_dat.obj
 0002:0000dd9c       ??_C@_0BG@PPIINOMK@id?9cmc?9identification?$AA@ 00074d9c     libeay32:obj_dat.obj
 0002:0000ddb4       ??_C@_0BC@CMNEPEAI@id?9cmc?9statusInfo?$AA@ 00074db4     libeay32:obj_dat.obj
 0002:0000ddc8       ??_C@_0O@OBGPPBGA@id?9alg?9dh?9pop?$AA@ 00074dc8     libeay32:obj_dat.obj
 0002:0000ddd8       ??_C@_0BI@KIODNBCM@id?9alg?9dh?9sig?9hmac?9sha1?$AA@ 00074dd8     libeay32:obj_dat.obj
 0002:0000ddf0       ??_C@_0BD@LAAJOBHI@id?9alg?9noSignature?$AA@ 00074df0     libeay32:obj_dat.obj
 0002:0000de04       ??_C@_0N@KIJONBNA@id?9alg?9des40?$AA@ 00074e04     libeay32:obj_dat.obj
 0002:0000de14       ??_C@_0BD@EEAPBNJJ@id?9regInfo?9certReq?$AA@ 00074e14     libeay32:obj_dat.obj
 0002:0000de28       ??_C@_0BF@FHFGHAHE@id?9regInfo?9utf8Pairs?$AA@ 00074e28     libeay32:obj_dat.obj
 0002:0000de40       ??_C@_0BL@GHBPLPHM@id?9regCtrl?9protocolEncrKey?$AA@ 00074e40     libeay32:obj_dat.obj
 0002:0000de5c       ??_C@_0BF@GFJPNJIG@id?9regCtrl?9oldCertID?$AA@ 00074e5c     libeay32:obj_dat.obj
 0002:0000de74       ??_C@_0BN@ONKHMAOP@id?9regCtrl?9pkiArchiveOptions?$AA@ 00074e74     libeay32:obj_dat.obj
 0002:0000de94       ??_C@_0BO@GJKPPLPL@id?9regCtrl?9pkiPublicationInfo?$AA@ 00074e94     libeay32:obj_dat.obj
 0002:0000deb4       ??_C@_0BJ@FBKKLLKP@id?9regCtrl?9authenticator?$AA@ 00074eb4     libeay32:obj_dat.obj
 0002:0000ded0       ??_C@_0BE@JDMKCIPE@id?9regCtrl?9regToken?$AA@ 00074ed0     libeay32:obj_dat.obj
 0002:0000dee4       ??_C@_0L@BGHMJHOP@id?9regInfo?$AA@ 00074ee4     libeay32:obj_dat.obj
 0002:0000def0       ??_C@_0L@FDGKGANK@id?9regCtrl?$AA@ 00074ef0     libeay32:obj_dat.obj
 0002:0000defc       ??_C@_0BF@CLCJJGFI@id?9it?9origPKIMessage?$AA@ 00074efc     libeay32:obj_dat.obj
 0002:0000df14       ??_C@_0BG@KCBHNMIK@id?9it?9confirmWaitTime?$AA@ 00074f14     libeay32:obj_dat.obj
 0002:0000df2c       ??_C@_0BG@MKDHCJKF@id?9it?9implicitConfirm?$AA@ 00074f2c     libeay32:obj_dat.obj
 0002:0000df44       ??_C@_0BE@FOOOCPMH@id?9it?9revPassphrase?$AA@ 00074f44     libeay32:obj_dat.obj
 0002:0000df58       ??_C@_0BG@KPIIFBLH@id?9it?9keyPairParamRep?$AA@ 00074f58     libeay32:obj_dat.obj
 0002:0000df70       ??_C@_0BG@LGJDGAPG@id?9it?9keyPairParamReq?$AA@ 00074f70     libeay32:obj_dat.obj
 0002:0000df88       ??_C@_0BL@HBPHBFLO@id?9it?9subscriptionResponse?$AA@ 00074f88     libeay32:obj_dat.obj
 0002:0000dfa4       ??_C@_0BK@MKGCMKGI@id?9it?9subscriptionRequest?$AA@ 00074fa4     libeay32:obj_dat.obj
 0002:0000dfc0       ??_C@_0BG@BPLKDJPD@id?9it?9unsupportedOIDs?$AA@ 00074fc0     libeay32:obj_dat.obj
 0002:0000dfd8       ??_C@_0BB@NHKBGJFG@id?9it?9currentCRL?$AA@ 00074fd8     libeay32:obj_dat.obj
 0002:0000dfec       ??_C@_0BG@OAKEHPLC@id?9it?9caKeyUpdateInfo?$AA@ 00074fec     libeay32:obj_dat.obj
 0002:0000e004       ??_C@_0BH@JFBOPDCH@id?9it?9preferredSymmAlg?$AA@ 00075004     libeay32:obj_dat.obj
 0002:0000e01c       ??_C@_0BG@FKIDIODL@id?9it?9encKeyPairTypes?$AA@ 0007501c     libeay32:obj_dat.obj
 0002:0000e034       ??_C@_0BH@POCENFBA@id?9it?9signKeyPairTypes?$AA@ 00075034     libeay32:obj_dat.obj
 0002:0000e04c       ??_C@_0BE@GJACIPND@id?9it?9caProtEncCert?$AA@ 0007504c     libeay32:obj_dat.obj
 0002:0000e060       ??_C@_04FFLIHJGD@dvcs?$AA@ 00075060     libeay32:obj_dat.obj
 0002:0000e068       ??_C@_04JJICJLBL@DVCS?$AA@ 00075068     libeay32:obj_dat.obj
 0002:0000e070       ??_C@_0L@DECDDCGF@IPSec?5User?$AA@ 00075070     libeay32:obj_dat.obj
 0002:0000e07c       ??_C@_09GOHJKOFF@ipsecUser?$AA@ 0007507c     libeay32:obj_dat.obj
 0002:0000e088       ??_C@_0N@EKDIOGLO@IPSec?5Tunnel?$AA@ 00075088     libeay32:obj_dat.obj
 0002:0000e098       ??_C@_0M@GMMHFFHI@ipsecTunnel?$AA@ 00075098     libeay32:obj_dat.obj
 0002:0000e0a4       ??_C@_0BB@JEJDAICO@IPSec?5End?5System?$AA@ 000750a4     libeay32:obj_dat.obj
 0002:0000e0b8       ??_C@_0P@MKBFMAPP@ipsecEndSystem?$AA@ 000750b8     libeay32:obj_dat.obj
 0002:0000e0c8       ??_C@_0L@HLNNPJEH@textNotice?$AA@ 000750c8     libeay32:obj_dat.obj
 0002:0000e0d4       ??_C@_0BG@JCJJBMAI@sbgp?9routerIdentifier?$AA@ 000750d4     libeay32:obj_dat.obj
 0002:0000e0ec       ??_C@_0BG@OJEHJDKA@sbgp?9autonomousSysNum?$AA@ 000750ec     libeay32:obj_dat.obj
 0002:0000e104       ??_C@_0BB@NNCKCHBC@sbgp?9ipAddrBlock?$AA@ 00075104     libeay32:obj_dat.obj
 0002:0000e118       ??_C@_0L@DLGBNBJE@aaControls?$AA@ 00075118     libeay32:obj_dat.obj
 0002:0000e124       ??_C@_0N@FPEEOJCI@ac?9targeting?$AA@ 00075124     libeay32:obj_dat.obj
 0002:0000e134       ??_C@_0P@CIOHPJGC@ac?9auditEntity?$AA@ 00075134     libeay32:obj_dat.obj
 0002:0000e144       ??_C@_0N@FPMNLLM@qcStatements?$AA@ 00075144     libeay32:obj_dat.obj
 0002:0000e154       ??_C@_0P@KFKDECPH@Biometric?5Info?$AA@ 00075154     libeay32:obj_dat.obj
 0002:0000e164       ??_C@_0O@MPIIPAHM@biometricInfo?$AA@ 00075164     libeay32:obj_dat.obj
 0002:0000e174       ??_C@_0P@MMOAAMFD@id?9mod?9cmp2000?$AA@ 00075174     libeay32:obj_dat.obj
 0002:0000e184       ??_C@_0M@GHDGNJKI@id?9mod?9dvcs?$AA@ 00075184     libeay32:obj_dat.obj
 0002:0000e190       ??_C@_0M@EACKLPKH@id?9mod?9ocsp?$AA@ 00075190     libeay32:obj_dat.obj
 0002:0000e19c       ??_C@_0BK@GAJOODEK@id?9mod?9timestamp?9protocol?$AA@ 0007519c     libeay32:obj_dat.obj
 0002:0000e1b8       ??_C@_0BG@EPPFBJNH@id?9mod?9attribute?9cert?$AA@ 000751b8     libeay32:obj_dat.obj
 0002:0000e1d0       ??_C@_0BJ@IGODAJIK@id?9mod?9qualified?9cert?993?$AA@ 000751d0     libeay32:obj_dat.obj
 0002:0000e1ec       ??_C@_0BJ@GENFLKHG@id?9mod?9qualified?9cert?988?$AA@ 000751ec     libeay32:obj_dat.obj
 0002:0000e208       ??_C@_0L@MONEHBKH@id?9mod?9cmp?$AA@ 00075208     libeay32:obj_dat.obj
 0002:0000e214       ??_C@_0BG@NAFGGBFM@id?9mod?9kea?9profile?993?$AA@ 00075214     libeay32:obj_dat.obj
 0002:0000e22c       ??_C@_0BG@DCGANCKA@id?9mod?9kea?9profile?988?$AA@ 0007522c     libeay32:obj_dat.obj
 0002:0000e244       ??_C@_0L@KPDLDADF@id?9mod?9cmc?$AA@ 00075244     libeay32:obj_dat.obj
 0002:0000e250       ??_C@_0M@GHFPFJPB@id?9mod?9crmf?$AA@ 00075250     libeay32:obj_dat.obj
 0002:0000e25c       ??_C@_0BF@EOKAKKIK@id?9pkix1?9implicit?993?$AA@ 0007525c     libeay32:obj_dat.obj
 0002:0000e274       ??_C@_0BF@JEALIPIC@id?9pkix1?9explicit?993?$AA@ 00075274     libeay32:obj_dat.obj
 0002:0000e28c       ??_C@_0BF@KMJGBJHG@id?9pkix1?9implicit?988?$AA@ 0007528c     libeay32:obj_dat.obj
 0002:0000e2a4       ??_C@_0BF@HGDNDMHO@id?9pkix1?9explicit?988?$AA@ 000752a4     libeay32:obj_dat.obj
 0002:0000e2bc       ??_C@_06PONIBOCI@id?9cct?$AA@ 000752bc     libeay32:obj_dat.obj
 0002:0000e2c4       ??_C@_06ELIJBHPL@id?9qcs?$AA@ 000752c4     libeay32:obj_dat.obj
 0002:0000e2cc       ??_C@_06GDGEDALH@id?9aca?$AA@ 000752cc     libeay32:obj_dat.obj
 0002:0000e2d4       ??_C@_06IOIOBGMI@id?9pda?$AA@ 000752d4     libeay32:obj_dat.obj
 0002:0000e2dc       ??_C@_05OHNJGMJE@id?9on?$AA@ 000752dc     libeay32:obj_dat.obj
 0002:0000e2e4       ??_C@_06PBMFLHLE@id?9cmc?$AA@ 000752e4     libeay32:obj_dat.obj
 0002:0000e2ec       ??_C@_06DOGCNAAM@id?9alg?$AA@ 000752ec     libeay32:obj_dat.obj
 0002:0000e2f4       ??_C@_07OMHOPMIM@id?9pkip?$AA@ 000752f4     libeay32:obj_dat.obj
 0002:0000e2fc       ??_C@_05FDHJOKPN@id?9it?$AA@ 000752fc     libeay32:obj_dat.obj
 0002:0000e304       ??_C@_05EBEMBIDF@id?9qt?$AA@ 00075304     libeay32:obj_dat.obj
 0002:0000e30c       ??_C@_0M@FNAFBNKE@id?9pkix?9mod?$AA@ 0007530c     libeay32:obj_dat.obj
 0002:0000e318       ??_C@_03ODADJPDG@md4?$AA@  00075318     libeay32:obj_dat.obj
 0002:0000e31c       ??_C@_03HLHMHGOI@MD4?$AA@  0007531c     libeay32:obj_dat.obj
 0002:0000e320       ??_C@_0CB@MICJDGGH@id?9smime?9cti?9ets?9proofOfCreation@ 00075320     libeay32:obj_dat.obj
 0002:0000e344       ??_C@_0CB@DDLMHEBC@id?9smime?9cti?9ets?9proofOfApproval@ 00075344     libeay32:obj_dat.obj
 0002:0000e368       ??_C@_0BP@ODCAFFCM@id?9smime?9cti?9ets?9proofOfSender?$AA@ 00075368     libeay32:obj_dat.obj
 0002:0000e388       ??_C@_0CB@ICJGPMEP@id?9smime?9cti?9ets?9proofOfDelivery@ 00075388     libeay32:obj_dat.obj
 0002:0000e3ac       ??_C@_0CA@HNGOKBGC@id?9smime?9cti?9ets?9proofOfReceipt?$AA@ 000753ac     libeay32:obj_dat.obj
 0002:0000e3cc       ??_C@_0BP@BCHFEGHC@id?9smime?9cti?9ets?9proofOfOrigin?$AA@ 000753cc     libeay32:obj_dat.obj
 0002:0000e3ec       ??_C@_0BN@GPAAHNOH@id?9smime?9spq?9ets?9sqt?9unotice?$AA@ 000753ec     libeay32:obj_dat.obj
 0002:0000e40c       ??_C@_0BJ@IMNKDGEG@id?9smime?9spq?9ets?9sqt?9uri?$AA@ 0007540c     libeay32:obj_dat.obj
 0002:0000e428       ??_C@_0BB@BMOBKAGE@id?9smime?9cd?9ldap?$AA@ 00075428     libeay32:obj_dat.obj
 0002:0000e43c       ??_C@_0BI@FIFDKKFJ@id?9smime?9alg?9CMSRC2wrap?$AA@ 0007543c     libeay32:obj_dat.obj
 0002:0000e454       ??_C@_0BJ@FOFHEIDB@id?9smime?9alg?9CMS3DESwrap?$AA@ 00075454     libeay32:obj_dat.obj
 0002:0000e470       ??_C@_0BC@COOODKPD@id?9smime?9alg?9ESDH?$AA@ 00075470     libeay32:obj_dat.obj
 0002:0000e484       ??_C@_0BF@JNCPAJCA@id?9smime?9alg?9RC2wrap?$AA@ 00075484     libeay32:obj_dat.obj
 0002:0000e49c       ??_C@_0BG@HHELPNAK@id?9smime?9alg?93DESwrap?$AA@ 0007549c     libeay32:obj_dat.obj
 0002:0000e4b4       ??_C@_0BJ@FIJMOHBJ@id?9smime?9alg?9ESDHwithRC2?$AA@ 000754b4     libeay32:obj_dat.obj
 0002:0000e4d0       ??_C@_0BK@JNJOCCCB@id?9smime?9alg?9ESDHwith3DES?$AA@ 000754d0     libeay32:obj_dat.obj
 0002:0000e4ec       ??_C@_0BF@KEMAMBKF@id?9smime?9aa?9dvcs?9dvc?$AA@ 000754ec     libeay32:obj_dat.obj
 0002:0000e504       ??_C@_0BK@HDBIPLFI@id?9smime?9aa?9signatureType?$AA@ 00075504     libeay32:obj_dat.obj
 0002:0000e520       ??_C@_0CB@BEMKNJGO@id?9smime?9aa?9ets?9archiveTimeStamp@ 00075520     libeay32:obj_dat.obj
 0002:0000e544       ??_C@_0CB@CJNBPJE@id?9smime?9aa?9ets?9certCRLTimestamp@ 00075544     libeay32:obj_dat.obj
 0002:0000e568       ??_C@_0BN@HGLOGOFI@id?9smime?9aa?9ets?9escTimeStamp?$AA@ 00075568     libeay32:obj_dat.obj
 0002:0000e588       ??_C@_0CB@GOCEFPFO@id?9smime?9aa?9ets?9revocationValues@ 00075588     libeay32:obj_dat.obj
 0002:0000e5ac       ??_C@_0BL@IFKOLDIG@id?9smime?9aa?9ets?9certValues?$AA@ 000755ac     libeay32:obj_dat.obj
 0002:0000e5c8       ??_C@_0BP@BCHJHNFO@id?9smime?9aa?9ets?9RevocationRefs?$AA@ 000755c8     libeay32:obj_dat.obj
 0002:0000e5e8       ??_C@_0CA@NKIOCHLG@id?9smime?9aa?9ets?9CertificateRefs?$AA@ 000755e8     libeay32:obj_dat.obj
 0002:0000e608       ??_C@_0CB@GHKINGOH@id?9smime?9aa?9ets?9contentTimestamp@ 00075608     libeay32:obj_dat.obj
 0002:0000e62c       ??_C@_0BN@JFIFOPBH@id?9smime?9aa?9ets?9otherSigCert?$AA@ 0007562c     libeay32:obj_dat.obj
 0002:0000e64c       ??_C@_0BL@KDJDAGDC@id?9smime?9aa?9ets?9signerAttr?$AA@ 0007564c     libeay32:obj_dat.obj
 0002:0000e668       ??_C@_0BP@EODAELPO@id?9smime?9aa?9ets?9signerLocation?$AA@ 00075668     libeay32:obj_dat.obj
 0002:0000e688       ??_C@_0BP@OLIFPEIM@id?9smime?9aa?9ets?9commitmentType?$AA@ 00075688     libeay32:obj_dat.obj
 0002:0000e6a8       ??_C@_0BM@GKFMJCFL@id?9smime?9aa?9ets?9sigPolicyId?$AA@ 000756a8     libeay32:obj_dat.obj
 0002:0000e6c4       ??_C@_0BL@DHJOIJNE@id?9smime?9aa?9timeStampToken?$AA@ 000756c4     libeay32:obj_dat.obj
 0002:0000e6e0       ??_C@_0BO@CEEOANBD@id?9smime?9aa?9smimeEncryptCerts?$AA@ 000756e0     libeay32:obj_dat.obj
 0002:0000e700       ??_C@_0BP@LHGJLGIB@id?9smime?9aa?9signingCertificate?$AA@ 00075700     libeay32:obj_dat.obj
 0002:0000e720       ??_C@_0BK@LAPEFMP@id?9smime?9aa?9encrypKeyPref?$AA@ 00075720     libeay32:obj_dat.obj
 0002:0000e73c       ??_C@_0BN@LEFAEFL@id?9smime?9aa?9contentReference?$AA@ 0007573c     libeay32:obj_dat.obj
 0002:0000e75c       ??_C@_0BN@NFAAOKEA@id?9smime?9aa?9equivalentLabels?$AA@ 0007575c     libeay32:obj_dat.obj
 0002:0000e77c       ??_C@_0BF@CFNHFPDB@id?9smime?9aa?9macValue?$AA@ 0007577c     libeay32:obj_dat.obj
 0002:0000e794       ??_C@_0BO@KMJGIAMK@id?9smime?9aa?9contentIdentifier?$AA@ 00075794     libeay32:obj_dat.obj
 0002:0000e7b4       ??_C@_0BN@GCCNOJCG@id?9smime?9aa?9encapContentType?$AA@ 000757b4     libeay32:obj_dat.obj
 0002:0000e7d4       ??_C@_0BJ@LJLDKMDH@id?9smime?9aa?9msgSigDigest?$AA@ 000757d4     libeay32:obj_dat.obj
 0002:0000e7f0       ??_C@_0BI@EMGPJFHB@id?9smime?9aa?9contentHint?$AA@ 000757f0     libeay32:obj_dat.obj
 0002:0000e808       ??_C@_0BM@OEKGBMLE@id?9smime?9aa?9mlExpandHistory?$AA@ 00075808     libeay32:obj_dat.obj
 0002:0000e824       ??_C@_0BK@DNJNJILO@id?9smime?9aa?9securityLabel?$AA@ 00075824     libeay32:obj_dat.obj
 0002:0000e840       ??_C@_0BL@LMGNMPFD@id?9smime?9aa?9receiptRequest?$AA@ 00075840     libeay32:obj_dat.obj
 0002:0000e85c       ??_C@_0BN@POKJLKJJ@id?9smime?9ct?9DVCSResponseData?$AA@ 0007585c     libeay32:obj_dat.obj
 0002:0000e87c       ??_C@_0BM@MFKPCEGN@id?9smime?9ct?9DVCSRequestData?$AA@ 0007587c     libeay32:obj_dat.obj
 0002:0000e898       ??_C@_0BI@BGKPNMK@id?9smime?9ct?9contentInfo?$AA@ 00075898     libeay32:obj_dat.obj
 0002:0000e8b0       ??_C@_0BE@FKPPBHI@id?9smime?9ct?9TDTInfo?$AA@ 000758b0     libeay32:obj_dat.obj
 0002:0000e8c4       ??_C@_0BE@KHNGFDDI@id?9smime?9ct?9TSTInfo?$AA@ 000758c4     libeay32:obj_dat.obj
 0002:0000e8d8       ??_C@_0BI@DBILCLFJ@id?9smime?9ct?9publishCert?$AA@ 000758d8     libeay32:obj_dat.obj
 0002:0000e8f0       ??_C@_0BF@KGEHGOF@id?9smime?9ct?9authData?$AA@ 000758f0     libeay32:obj_dat.obj
 0002:0000e908       ??_C@_0BE@GCHIHBHA@id?9smime?9ct?9receipt?$AA@ 00075908     libeay32:obj_dat.obj
 0002:0000e91c       ??_C@_0BP@CCCOHHAI@id?9smime?9mod?9ets?9eSigPolicy?997?$AA@ 0007591c     libeay32:obj_dat.obj
 0002:0000e93c       ??_C@_0BP@KEHEABPA@id?9smime?9mod?9ets?9eSigPolicy?988?$AA@ 0007593c     libeay32:obj_dat.obj
 0002:0000e95c       ??_C@_0BP@POGMGJII@id?9smime?9mod?9ets?9eSignature?997?$AA@ 0007595c     libeay32:obj_dat.obj
 0002:0000e97c       ??_C@_0BP@HIDGBPHA@id?9smime?9mod?9ets?9eSignature?988?$AA@ 0007597c     libeay32:obj_dat.obj
 0002:0000e99c       ??_C@_0BE@PEENABNJ@id?9smime?9mod?9msg?9v3?$AA@ 0007599c     libeay32:obj_dat.obj
 0002:0000e9b0       ??_C@_0BB@LBBEMNBN@id?9smime?9mod?9oid?$AA@ 000759b0     libeay32:obj_dat.obj
 0002:0000e9c4       ??_C@_0BB@MKJLIPEJ@id?9smime?9mod?9ess?$AA@ 000759c4     libeay32:obj_dat.obj
 0002:0000e9d8       ??_C@_0BB@PJEIFOOP@id?9smime?9mod?9cms?$AA@ 000759d8     libeay32:obj_dat.obj
 0002:0000e9ec       ??_C@_0N@CFBKAPGC@id?9smime?9cti?$AA@ 000759ec     libeay32:obj_dat.obj
 0002:0000e9fc       ??_C@_0N@PABBGIHI@id?9smime?9spq?$AA@ 000759fc     libeay32:obj_dat.obj
 0002:0000ea0c       ??_C@_0M@LHBAJBP@id?9smime?9cd?$AA@ 00075a0c     libeay32:obj_dat.obj
 0002:0000ea18       ??_C@_0N@DKFBIKP@id?9smime?9alg?$AA@ 00075a18     libeay32:obj_dat.obj
 0002:0000ea28       ??_C@_0M@HFICCJDE@id?9smime?9aa?$AA@ 00075a28     libeay32:obj_dat.obj
 0002:0000ea34       ??_C@_0M@EBLDBLEO@id?9smime?9ct?$AA@ 00075a34     libeay32:obj_dat.obj
 0002:0000ea40       ??_C@_0N@GABIEKIN@id?9smime?9mod?$AA@ 00075a40     libeay32:obj_dat.obj
 0002:0000ea50       ??_C@_06DFGHEKNE@S?1MIME?$AA@ 00075a50     libeay32:obj_dat.obj
 0002:0000ea58       ??_C@_05HHBEAKJJ@SMIME?$AA@ 00075a58     libeay32:obj_dat.obj
 0002:0000ea60       ??_C@_05HGOIFJJD@pkcs5?$AA@ 00075a60     libeay32:obj_dat.obj
 0002:0000ea68       ??_C@_0L@DJCLIPOH@X9?457?5CM?5?$DP?$AA@ 00075a68     libeay32:obj_dat.obj
 0002:0000ea74       ??_C@_04CGFPFLFA@X9cm?$AA@ 00075a74     libeay32:obj_dat.obj
 0002:0000ea7c       ??_C@_05PAJLFBHD@X9?457?$AA@ 00075a7c     libeay32:obj_dat.obj
 0002:0000ea84       ??_C@_05OCCOPOJN@X9?957?$AA@ 00075a84     libeay32:obj_dat.obj
 0002:0000ea8c       ??_C@_0BD@NMCDOJHL@ISO?5US?5Member?5Body?$AA@ 00075a8c     libeay32:obj_dat.obj
 0002:0000eaa0       ??_C@_06EKAADAMF@ISO?9US?$AA@ 00075aa0     libeay32:obj_dat.obj
 0002:0000eaa8       ??_C@_0BA@BGDAEHGF@ISO?5Member?5Body?$AA@ 00075aa8     libeay32:obj_dat.obj
 0002:0000eab8       ??_C@_0M@CMICFDOA@member?9body?$AA@ 00075ab8     libeay32:obj_dat.obj
 0002:0000eac4       ??_C@_03CMEHDJAL@iso?$AA@  00075ac4     libeay32:obj_dat.obj
 0002:0000eac8       ??_C@_03CBLMPEHH@ISO?$AA@  00075ac8     libeay32:obj_dat.obj
 0002:0000eacc       ??_C@_0N@CPJNIPDD@OCSP?5Signing?$AA@ 00075acc     libeay32:obj_dat.obj
 0002:0000eadc       ??_C@_0M@HBKJLKNM@OCSPSigning?$AA@ 00075adc     libeay32:obj_dat.obj
 0002:0000eae8       ??_C@_0L@CABCENFK@CA?5Issuers?$AA@ 00075ae8     libeay32:obj_dat.obj
 0002:0000eaf4       ??_C@_09GFPECPIH@caIssuers?$AA@ 00075af4     libeay32:obj_dat.obj
 0002:0000eb00       ??_C@_04LOJOPNBE@OCSP?$AA@ 00075b00     libeay32:obj_dat.obj
 0002:0000eb08       ??_C@_0BN@EILCOJAN@Authority?5Information?5Access?$AA@ 00075b08     libeay32:obj_dat.obj
 0002:0000eb28       ??_C@_0BE@PLCGCINM@authorityInfoAccess?$AA@ 00075b28     libeay32:obj_dat.obj
 0002:0000eb3c       ??_C@_05BHKIKJBE@id?9ad?$AA@ 00075b3c     libeay32:obj_dat.obj
 0002:0000eb44       ??_C@_05BDFHFBBC@id?9pe?$AA@ 00075b44     libeay32:obj_dat.obj
 0002:0000eb4c       ??_C@_0M@DNNLEIMI@dnQualifier?$AA@ 00075b4c     libeay32:obj_dat.obj
 0002:0000eb58       ??_C@_04MEMAJGDJ@name?$AA@ 00075b58     libeay32:obj_dat.obj
 0002:0000eb60       ??_C@_0BC@GLHEKHCC@Extension?5Request?$AA@ 00075b60     libeay32:obj_dat.obj
 0002:0000eb74       ??_C@_06EJACAMDF@extReq?$AA@ 00075b74     libeay32:obj_dat.obj
 0002:0000eb7c       ??_C@_0BM@MEJAMAEO@Microsoft?5Extension?5Request?$AA@ 00075b7c     libeay32:obj_dat.obj
 0002:0000eb98       ??_C@_08HCCJAOPJ@msExtReq?$AA@ 00075b98     libeay32:obj_dat.obj
 0002:0000eba4       ??_C@_0BG@JLHBEJLP@pbeWithSHA1AndDES?9CBC?$AA@ 00075ba4     libeay32:obj_dat.obj
 0002:0000ebbc       ??_C@_0N@GOPIPBOD@PBE?9SHA1?9DES?$AA@ 00075bbc     libeay32:obj_dat.obj
 0002:0000ebcc       ??_C@_0BF@CKDLCJKD@pbeWithMD5AndRC2?9CBC?$AA@ 00075bcc     libeay32:obj_dat.obj
 0002:0000ebe4       ??_C@_0P@IDPFKEHM@PBE?9MD5?9RC2?964?$AA@ 00075be4     libeay32:obj_dat.obj
 0002:0000ebf4       ??_C@_0BF@FOKDMACM@pbeWithMD2AndRC2?9CBC?$AA@ 00075bf4     libeay32:obj_dat.obj
 0002:0000ec0c       ??_C@_0P@OHJEMJLF@PBE?9MD2?9RC2?964?$AA@ 00075c0c     libeay32:obj_dat.obj
 0002:0000ec1c       ??_C@_0BE@CEEFMCAI@S?1MIME?5Capabilities?$AA@ 00075c1c     libeay32:obj_dat.obj
 0002:0000ec30       ??_C@_0L@LCBJGKJG@SMIME?9CAPS?$AA@ 00075c30     libeay32:obj_dat.obj
 0002:0000ec3c       ??_C@_0L@CLELMECA@rc2?964?9cbc?$AA@ 00075c3c     libeay32:obj_dat.obj
 0002:0000ec48       ??_C@_0L@OPHBIFFL@RC2?964?9CBC?$AA@ 00075c48     libeay32:obj_dat.obj
 0002:0000ec54       ??_C@_0BN@KPMBKEE@Policy?5Qualifier?5User?5Notice?$AA@ 00075c54     libeay32:obj_dat.obj
 0002:0000ec74       ??_C@_0O@CJFHFAHE@id?9qt?9unotice?$AA@ 00075c74     libeay32:obj_dat.obj
 0002:0000ec84       ??_C@_0BF@HPKIKKPI@Policy?5Qualifier?5CPS?$AA@ 00075c84     libeay32:obj_dat.obj
 0002:0000ec9c       ??_C@_09MIPGHKGJ@id?9qt?9cps?$AA@ 00075c9c     libeay32:obj_dat.obj
 0002:0000eca8       ??_C@_0N@KANOAIP@hmacWithSHA1?$AA@ 00075ca8     libeay32:obj_dat.obj
 0002:0000ecb8       ??_C@_06DEJMPFNK@PBMAC1?$AA@ 00075cb8     libeay32:obj_dat.obj
 0002:0000ecc0       ??_C@_05EPMADBBF@PBES2?$AA@ 00075cc0     libeay32:obj_dat.obj
 0002:0000ecc8       ??_C@_07KAOEJCFK@x509Crl?$AA@ 00075cc8     libeay32:obj_dat.obj
 0002:0000ecd0       ??_C@_0BA@BFAOBDKH@sdsiCertificate?$AA@ 00075cd0     libeay32:obj_dat.obj
 0002:0000ece0       ??_C@_0BA@EMOFOCJL@x509Certificate?$AA@ 00075ce0     libeay32:obj_dat.obj
 0002:0000ecf0       ??_C@_0L@BCMHPPAO@localKeyID?$AA@ 00075cf0     libeay32:obj_dat.obj
 0002:0000ecfc       ??_C@_0N@BGFMPLCM@friendlyName?$AA@ 00075cfc     libeay32:obj_dat.obj
 0002:0000ed0c       ??_C@_0BA@KAKLKBBC@safeContentsBag?$AA@ 00075d0c     libeay32:obj_dat.obj
 0002:0000ed1c       ??_C@_09DELDBPIE@secretBag?$AA@ 00075d1c     libeay32:obj_dat.obj
 0002:0000ed28       ??_C@_06JAFBIMLO@crlBag?$AA@ 00075d28     libeay32:obj_dat.obj
 0002:0000ed30       ??_C@_07FDLMCII@certBag?$AA@ 00075d30     libeay32:obj_dat.obj
 0002:0000ed38       ??_C@_0BE@ELJKIANF@pkcs8ShroudedKeyBag?$AA@ 00075d38     libeay32:obj_dat.obj
 0002:0000ed4c       ??_C@_06BFGNOIAI@keyBag?$AA@ 00075d4c     libeay32:obj_dat.obj
 0002:0000ed54       ??_C@_0BL@CKNKIMON@pbeWithSHA1And40BitRC2?9CBC?$AA@ 00075d54     libeay32:obj_dat.obj
 0002:0000ed70       ??_C@_0BA@MNBMNMAN@PBE?9SHA1?9RC2?940?$AA@ 00075d70     libeay32:obj_dat.obj
 0002:0000ed80       ??_C@_0BM@DOLDINME@pbeWithSHA1And128BitRC2?9CBC?$AA@ 00075d80     libeay32:obj_dat.obj
 0002:0000ed9c       ??_C@_0BB@FNLJPIMG@PBE?9SHA1?9RC2?9128?$AA@ 00075d9c     libeay32:obj_dat.obj
 0002:0000edb0       ??_C@_0CB@NCMPKEGH@pbeWithSHA1And2?9KeyTripleDES?9CBC@ 00075db0     libeay32:obj_dat.obj
 0002:0000edd4       ??_C@_0O@HOHOOIGM@PBE?9SHA1?92DES?$AA@ 00075dd4     libeay32:obj_dat.obj
 0002:0000ede4       ??_C@_0CB@FCNCEDP@pbeWithSHA1And3?9KeyTripleDES?9CBC@ 00075de4     libeay32:obj_dat.obj
 0002:0000ee08       ??_C@_0O@EDBOMBNM@PBE?9SHA1?93DES?$AA@ 00075e08     libeay32:obj_dat.obj
 0002:0000ee18       ??_C@_0BH@OCAEJMIL@pbeWithSHA1And40BitRC4?$AA@ 00075e18     libeay32:obj_dat.obj
 0002:0000ee30       ??_C@_0BA@ECFMCJKN@PBE?9SHA1?9RC4?940?$AA@ 00075e30     libeay32:obj_dat.obj
 0002:0000ee40       ??_C@_0BI@LBIFCLPB@pbeWithSHA1And128BitRC4?$AA@ 00075e40     libeay32:obj_dat.obj
 0002:0000ee58       ??_C@_0BB@ILOABLNL@PBE?9SHA1?9RC4?9128?$AA@ 00075e58     libeay32:obj_dat.obj
 0002:0000ee6c       ??_C@_0BD@PNDCMCDK@Strong?5Extranet?5ID?$AA@ 00075e6c     libeay32:obj_dat.obj
 0002:0000ee80       ??_C@_07DKMNOLMH@SXNetID?$AA@ 00075e80     libeay32:obj_dat.obj
 0002:0000ee88       ??_C@_0BA@JDBEMONE@Invalidity?5Date?$AA@ 00075e88     libeay32:obj_dat.obj
 0002:0000ee98       ??_C@_0P@BKEGCOMO@invalidityDate?$AA@ 00075e98     libeay32:obj_dat.obj
 0002:0000eea8       ??_C@_0BH@GODIEFKG@X509v3?5CRL?5Reason?5Code?$AA@ 00075ea8     libeay32:obj_dat.obj
 0002:0000eec0       ??_C@_09MCDAGILE@CRLReason?$AA@ 00075ec0     libeay32:obj_dat.obj
 0002:0000eecc       ??_C@_0BL@HLNLPBHP@X509v3?5Delta?5CRL?5Indicator?$AA@ 00075ecc     libeay32:obj_dat.obj
 0002:0000eee8       ??_C@_08ECNAKPJJ@deltaCRL?$AA@ 00075ee8     libeay32:obj_dat.obj
 0002:0000eef4       ??_C@_0BN@MDNLHLBL@Netscape?5Server?5Gated?5Crypto?$AA@ 00075ef4     libeay32:obj_dat.obj
 0002:0000ef14       ??_C@_05LFIIINKG@nsSGC?$AA@ 00075f14     libeay32:obj_dat.obj
 0002:0000ef1c       ??_C@_0CA@IJODBCMB@Microsoft?5Encrypted?5File?5System?$AA@ 00075f1c     libeay32:obj_dat.obj
 0002:0000ef3c       ??_C@_05NGOIPCN@msEFS?$AA@ 00075f3c     libeay32:obj_dat.obj
 0002:0000ef44       ??_C@_0BO@FBDDCLK@Microsoft?5Server?5Gated?5Crypto?$AA@ 00075f44     libeay32:obj_dat.obj
 0002:0000ef64       ??_C@_05DDBMPPAI@msSGC?$AA@ 00075f64     libeay32:obj_dat.obj
 0002:0000ef6c       ??_C@_0BN@GNMCHNOI@Microsoft?5Trust?5List?5Signing?$AA@ 00075f6c     libeay32:obj_dat.obj
 0002:0000ef8c       ??_C@_09HGCLLDPK@msCTLSign?$AA@ 00075f8c     libeay32:obj_dat.obj
 0002:0000ef98       ??_C@_0CC@GKFNEBFA@Microsoft?5Commercial?5Code?5Signin@ 00075f98     libeay32:obj_dat.obj
 0002:0000efbc       ??_C@_09PDGAMFAO@msCodeCom?$AA@ 00075fbc     libeay32:obj_dat.obj
 0002:0000efc8       ??_C@_0CC@NDDHKAMP@Microsoft?5Individual?5Code?5Signin@ 00075fc8     libeay32:obj_dat.obj
 0002:0000efec       ??_C@_09EMNNPEBE@msCodeInd?$AA@ 00075fec     libeay32:obj_dat.obj
 0002:0000eff8       ??_C@_0O@GMMBLMEE@Time?5Stamping?$AA@ 00075ff8     libeay32:obj_dat.obj
 0002:0000f008       ??_C@_0N@LONEBHPN@timeStamping?$AA@ 00076008     libeay32:obj_dat.obj
 0002:0000f018       ??_C@_0BC@BLBGFKKG@E?9mail?5Protection?$AA@ 00076018     libeay32:obj_dat.obj
 0002:0000f02c       ??_C@_0BA@NPCFDPCO@emailProtection?$AA@ 0007602c     libeay32:obj_dat.obj
 0002:0000f03c       ??_C@_0N@CHJHLHFC@Code?5Signing?$AA@ 0007603c     libeay32:obj_dat.obj
 0002:0000f04c       ??_C@_0M@OJNCNGJ@codeSigning?$AA@ 0007604c     libeay32:obj_dat.obj
 0002:0000f058       ??_C@_0BO@FEMCBEOF@TLS?5Web?5Client?5Authentication?$AA@ 00076058     libeay32:obj_dat.obj
 0002:0000f078       ??_C@_0L@HCMKLLOP@clientAuth?$AA@ 00076078     libeay32:obj_dat.obj
 0002:0000f084       ??_C@_0BO@HPFOJNNE@TLS?5Web?5Server?5Authentication?$AA@ 00076084     libeay32:obj_dat.obj
 0002:0000f0a4       ??_C@_0L@CINGAJGN@serverAuth?$AA@ 000760a4     libeay32:obj_dat.obj
 0002:0000f0b0       ??_C@_05DEJBPLJH@id?9kp?$AA@ 000760b0     libeay32:obj_dat.obj
 0002:0000f0b8       ??_C@_04EAPCHJAG@PKIX?$AA@ 000760b8     libeay32:obj_dat.obj
 0002:0000f0c0       ??_C@_0BK@KFMGFBEG@X509v3?5Extended?5Key?5Usage?$AA@ 000760c0     libeay32:obj_dat.obj
 0002:0000f0dc       ??_C@_0BB@DGDLKPHD@extendedKeyUsage?$AA@ 000760dc     libeay32:obj_dat.obj
 0002:0000f0f0       ??_C@_0BB@KGNEOBKL@zlib?5compression?$AA@ 000760f0     libeay32:obj_dat.obj
 0002:0000f104       ??_C@_04CHLIKDMF@ZLIB?$AA@ 00076104     libeay32:obj_dat.obj
 0002:0000f10c       ??_C@_0BH@CAEIMNHD@run?5length?5compression?$AA@ 0007610c     libeay32:obj_dat.obj
 0002:0000f124       ??_C@_03ELDBCICO@RLE?$AA@  00076124     libeay32:obj_dat.obj
 0002:0000f128       ??_C@_07NLMEMEEK@rc5?9ofb?$AA@ 00076128     libeay32:obj_dat.obj
 0002:0000f130       ??_C@_07OAPEFCPM@RC5?9OFB?$AA@ 00076130     libeay32:obj_dat.obj
 0002:0000f138       ??_C@_07JBBCHLPC@rc5?9cfb?$AA@ 00076138     libeay32:obj_dat.obj
 0002:0000f140       ??_C@_07KKCCONEE@RC5?9CFB?$AA@ 00076140     libeay32:obj_dat.obj
 0002:0000f148       ??_C@_07LCLCOGMF@rc5?9ecb?$AA@ 00076148     libeay32:obj_dat.obj
 0002:0000f150       ??_C@_07IJICHAHD@RC5?9ECB?$AA@ 00076150     libeay32:obj_dat.obj
 0002:0000f158       ??_C@_07IPAAOCGP@rc5?9cbc?$AA@ 00076158     libeay32:obj_dat.obj
 0002:0000f160       ??_C@_07LEDAHENJ@RC5?9CBC?$AA@ 00076160     libeay32:obj_dat.obj
 0002:0000f168       ??_C@_0BB@DCJDAKFH@ripemd160WithRSA?$AA@ 00076168     libeay32:obj_dat.obj
 0002:0000f17c       ??_C@_0O@JPOIHGOH@RSA?9RIPEMD160?$AA@ 0007617c     libeay32:obj_dat.obj
 0002:0000f18c       ??_C@_09EDIPKBN@ripemd160?$AA@ 0007618c     libeay32:obj_dat.obj
 0002:0000f198       ??_C@_09DJDCAKJG@RIPEMD160?$AA@ 00076198     libeay32:obj_dat.obj
 0002:0000f1a4       ??_C@_0O@GMANLAEO@dsaEncryption?$AA@ 000761a4     libeay32:obj_dat.obj
 0002:0000f1b4       ??_C@_03ENFFABCE@DSA?$AA@  000761b4     libeay32:obj_dat.obj
 0002:0000f1b8       ??_C@_0M@KECGAPAA@sha1WithRSA?$AA@ 000761b8     libeay32:obj_dat.obj
 0002:0000f1c4       ??_C@_0L@EMMEGDKK@RSA?9SHA1?92?$AA@ 000761c4     libeay32:obj_dat.obj
 0002:0000f1d0       ??_C@_08GOLKFMKI@md5?9sha1?$AA@ 000761d0     libeay32:obj_dat.obj
 0002:0000f1dc       ??_C@_08EMIDHKIH@MD5?9SHA1?$AA@ 000761dc     libeay32:obj_dat.obj
 0002:0000f1e8       ??_C@_0M@EFJKPOPH@dsaWithSHA1?$AA@ 000761e8     libeay32:obj_dat.obj
 0002:0000f1f4       ??_C@_08IOHJAANG@DSA?9SHA1?$AA@ 000761f4     libeay32:obj_dat.obj
 0002:0000f200       ??_C@_0BG@JCFINJGL@pbeWithMD5AndCast5CBC?$AA@ 00076200     libeay32:obj_dat.obj
 0002:0000f218       ??_C@_09ECHHPLBP@cast5?9ofb?$AA@ 00076218     libeay32:obj_dat.obj
 0002:0000f224       ??_C@_09LEOLOMNK@CAST5?9OFB?$AA@ 00076224     libeay32:obj_dat.obj
 0002:0000f230       ??_C@_09IKBEEKH@cast5?9cfb?$AA@ 00076230     libeay32:obj_dat.obj
 0002:0000f23c       ??_C@_09PODNFDGC@CAST5?9CFB?$AA@ 0007623c     libeay32:obj_dat.obj
 0002:0000f248       ??_C@_09CLABNJJA@cast5?9ecb?$AA@ 00076248     libeay32:obj_dat.obj
 0002:0000f254       ??_C@_09NNJNMOFF@CAST5?9ECB?$AA@ 00076254     libeay32:obj_dat.obj
 0002:0000f260       ??_C@_09BGLDNNDK@cast5?9cbc?$AA@ 00076260     libeay32:obj_dat.obj
 0002:0000f26c       ??_C@_09OACPMKPP@CAST5?9CBC?$AA@ 0007626c     libeay32:obj_dat.obj
 0002:0000f278       ??_C@_0M@PPJNHBMP@description?$AA@ 00076278     libeay32:obj_dat.obj
 0002:0000f284       ??_C@_05PHLGJONK@title?$AA@ 00076284     libeay32:obj_dat.obj
 0002:0000f28c       ??_C@_0N@OMOHFKCJ@serialNumber?$AA@ 0007628c     libeay32:obj_dat.obj
 0002:0000f29c       ??_C@_0L@CNDCBNIN@md5WithRSA?$AA@ 0007629c     libeay32:obj_dat.obj
 0002:0000f2a8       ??_C@_0L@NACEPNFC@RSA?9NP?9MD5?$AA@ 000762a8     libeay32:obj_dat.obj
 0002:0000f2b4       ??_C@_0BP@EGHJGANM@X509v3?5CRL?5Distribution?5Points?$AA@ 000762b4     libeay32:obj_dat.obj
 0002:0000f2d4       ??_C@_0BG@CCHGOEBE@crlDistributionPoints?$AA@ 000762d4     libeay32:obj_dat.obj
 0002:0000f2ec       ??_C@_08PAKNLFON@initials?$AA@ 000762ec     libeay32:obj_dat.obj
 0002:0000f2f8       ??_C@_07LNKFHLHI@surname?$AA@ 000762f8     libeay32:obj_dat.obj
 0002:0000f300       ??_C@_02LONEIP@SN?$AA@     00076300     libeay32:obj_dat.obj
 0002:0000f304       ??_C@_09GCBNJLNP@givenName?$AA@ 00076304     libeay32:obj_dat.obj
 0002:0000f310       ??_C@_02BLJBNPCD@GN?$AA@   00076310     libeay32:obj_dat.obj
 0002:0000f314       ??_C@_0L@CHEFJHBP@rc2?940?9cbc?$AA@ 00076314     libeay32:obj_dat.obj
 0002:0000f320       ??_C@_0L@ODHPNGGE@RC2?940?9CBC?$AA@ 00076320     libeay32:obj_dat.obj
 0002:0000f32c       ??_C@_06GNNJIOGN@rc4?940?$AA@ 0007632c     libeay32:obj_dat.obj
 0002:0000f334       ??_C@_06KFMILCMH@RC4?940?$AA@ 00076334     libeay32:obj_dat.obj
 0002:0000f33c       ??_C@_0M@HGGNEPNN@mdc2WithRSA?$AA@ 0007633c     libeay32:obj_dat.obj
 0002:0000f348       ??_C@_08OMAMCKNL@RSA?9MDC2?$AA@ 00076348     libeay32:obj_dat.obj
 0002:0000f354       ??_C@_04ELNKPKEC@mdc2?$AA@ 00076354     libeay32:obj_dat.obj
 0002:0000f35c       ??_C@_04BCGEDMJI@MDC2?$AA@ 0007635c     libeay32:obj_dat.obj
 0002:0000f364       ??_C@_06OBJCCDFN@bf?9ofb?$AA@ 00076364     libeay32:obj_dat.obj
 0002:0000f36c       ??_C@_06CEHINCIL@BF?9OFB?$AA@ 0007636c     libeay32:obj_dat.obj
 0002:0000f374       ??_C@_06KLEEJMOF@bf?9cfb?$AA@ 00076374     libeay32:obj_dat.obj
 0002:0000f37c       ??_C@_06GOKOGNDD@BF?9CFB?$AA@ 0007637c     libeay32:obj_dat.obj
 0002:0000f384       ??_C@_06IIOEABNC@bf?9ecb?$AA@ 00076384     libeay32:obj_dat.obj
 0002:0000f38c       ??_C@_06ENAOPAAE@BF?9ECB?$AA@ 0007638c     libeay32:obj_dat.obj
 0002:0000f394       ??_C@_06LFFGAFHI@bf?9cbc?$AA@ 00076394     libeay32:obj_dat.obj
 0002:0000f39c       ??_C@_06HALMPEKO@BF?9CBC?$AA@ 0007639c     libeay32:obj_dat.obj
 0002:0000f3a4       ??_C@_0CA@GODCHEHD@X509v3?5Authority?5Key?5Identifier?$AA@ 000763a4     libeay32:obj_dat.obj
 0002:0000f3c4       ??_C@_0BH@ICHFALGD@authorityKeyIdentifier?$AA@ 000763c4     libeay32:obj_dat.obj
 0002:0000f3dc       ??_C@_0BM@OOFGKLPK@X509v3?5Certificate?5Policies?$AA@ 000763dc     libeay32:obj_dat.obj
 0002:0000f3f8       ??_C@_0BE@OLMJNPEP@certificatePolicies?$AA@ 000763f8     libeay32:obj_dat.obj
 0002:0000f40c       ??_C@_0BC@PCPNBDDJ@X509v3?5CRL?5Number?$AA@ 0007640c     libeay32:obj_dat.obj
 0002:0000f420       ??_C@_09JDPHHKMA@crlNumber?$AA@ 00076420     libeay32:obj_dat.obj
 0002:0000f42c       ??_C@_0BJ@FBHDAJML@X509v3?5Basic?5Constraints?$AA@ 0007642c     libeay32:obj_dat.obj
 0002:0000f448       ??_C@_0BB@IKNGJCLO@basicConstraints?$AA@ 00076448     libeay32:obj_dat.obj
 0002:0000f45c       ??_C@_0BP@FMJCGPCG@X509v3?5Issuer?5Alternative?5Name?$AA@ 0007645c     libeay32:obj_dat.obj
 0002:0000f47c       ??_C@_0O@DLIFHFCD@issuerAltName?$AA@ 0007647c     libeay32:obj_dat.obj
 0002:0000f48c       ??_C@_0CA@OPCJJLNF@X509v3?5Subject?5Alternative?5Name?$AA@ 0007648c     libeay32:obj_dat.obj
 0002:0000f4ac       ??_C@_0P@EOFJHHKD@subjectAltName?$AA@ 000764ac     libeay32:obj_dat.obj
 0002:0000f4bc       ??_C@_0CA@CLGHAMIP@X509v3?5Private?5Key?5Usage?5Period?$AA@ 000764bc     libeay32:obj_dat.obj
 0002:0000f4dc       ??_C@_0BG@JOIAJOMN@privateKeyUsagePeriod?$AA@ 000764dc     libeay32:obj_dat.obj
 0002:0000f4f4       ??_C@_0BB@BPPOKNBO@X509v3?5Key?5Usage?$AA@ 000764f4     libeay32:obj_dat.obj
 0002:0000f508       ??_C@_08BCICBOHF@keyUsage?$AA@ 00076508     libeay32:obj_dat.obj
 0002:0000f514       ??_C@_0BO@ILPNOINJ@X509v3?5Subject?5Key?5Identifier?$AA@ 00076514     libeay32:obj_dat.obj
 0002:0000f534       ??_C@_0BF@MOEDIMBI@subjectKeyIdentifier?$AA@ 00076534     libeay32:obj_dat.obj
 0002:0000f54c       ??_C@_05NDHEMDL@id?9ce?$AA@ 0007654c     libeay32:obj_dat.obj
 0002:0000f554       ??_C@_08KPMCEEEO@desx?9cbc?$AA@ 00076554     libeay32:obj_dat.obj
 0002:0000f560       ??_C@_08BBKPFFGN@DESX?9CBC?$AA@ 00076560     libeay32:obj_dat.obj
 0002:0000f56c       ??_C@_0BO@KKKBMKBD@Netscape?5Certificate?5Sequence?$AA@ 0007656c     libeay32:obj_dat.obj
 0002:0000f58c       ??_C@_0P@OCCBBJKK@nsCertSequence?$AA@ 0007658c     libeay32:obj_dat.obj
 0002:0000f59c       ??_C@_0BB@DCFBGIOA@Netscape?5Comment?$AA@ 0007659c     libeay32:obj_dat.obj
 0002:0000f5b0       ??_C@_09BALDFHMJ@nsComment?$AA@ 000765b0     libeay32:obj_dat.obj
 0002:0000f5bc       ??_C@_0BJ@GMBLEMAL@Netscape?5SSL?5Server?5Name?$AA@ 000765bc     libeay32:obj_dat.obj
 0002:0000f5d8       ??_C@_0BA@KNOKNJNE@nsSslServerName?$AA@ 000765d8     libeay32:obj_dat.obj
 0002:0000f5e8       ??_C@_0BH@EMEFHLC@Netscape?5CA?5Policy?5Url?$AA@ 000765e8     libeay32:obj_dat.obj
 0002:0000f600       ??_C@_0O@DHDIMJD@nsCaPolicyUrl?$AA@ 00076600     libeay32:obj_dat.obj
 0002:0000f610       ??_C@_0BF@FKENIIHB@Netscape?5Renewal?5Url?$AA@ 00076610     libeay32:obj_dat.obj
 0002:0000f628       ??_C@_0N@JILHKMLM@nsRenewalUrl?$AA@ 00076628     libeay32:obj_dat.obj
 0002:0000f638       ??_C@_0BL@EMOMOFDB@Netscape?5CA?5Revocation?5Url?$AA@ 00076638     libeay32:obj_dat.obj
 0002:0000f654       ??_C@_0BC@IKAPCMGG@nsCaRevocationUrl?$AA@ 00076654     libeay32:obj_dat.obj
 0002:0000f668       ??_C@_0BI@BCDINENC@Netscape?5Revocation?5Url?$AA@ 00076668     libeay32:obj_dat.obj
 0002:0000f680       ??_C@_0BA@DKPGPAKK@nsRevocationUrl?$AA@ 00076680     libeay32:obj_dat.obj
 0002:0000f690       ??_C@_0BC@DIHCABP@Netscape?5Base?5Url?$AA@ 00076690     libeay32:obj_dat.obj
 0002:0000f6a4       ??_C@_09OCIGDOMM@nsBaseUrl?$AA@ 000766a4     libeay32:obj_dat.obj
 0002:0000f6b0       ??_C@_0BD@NFPBEMEE@Netscape?5Cert?5Type?$AA@ 000766b0     libeay32:obj_dat.obj
 0002:0000f6c4       ??_C@_0L@IICLKDNB@nsCertType?$AA@ 000766c4     libeay32:obj_dat.obj
 0002:0000f6d0       ??_C@_0BA@DDLLDHEM@dsaWithSHA1?9old?$AA@ 000766d0     libeay32:obj_dat.obj
 0002:0000f6e0       ??_C@_0N@ONIKBKNK@DSA?9SHA1?9old?$AA@ 000766e0     libeay32:obj_dat.obj
 0002:0000f6f0       ??_C@_06KBOEGBGA@PBKDF2?$AA@ 000766f0     libeay32:obj_dat.obj
 0002:0000f6f8       ??_C@_0BG@IBNNJING@pbeWithSHA1AndRC2?9CBC?$AA@ 000766f8     libeay32:obj_dat.obj
 0002:0000f710       ??_C@_0BA@KKPEMNGH@PBE?9SHA1?9RC2?964?$AA@ 00076710     libeay32:obj_dat.obj
 0002:0000f720       ??_C@_0BC@FFHHBCCH@dsaEncryption?9old?$AA@ 00076720     libeay32:obj_dat.obj
 0002:0000f734       ??_C@_07PLHLFGGF@DSA?9old?$AA@ 00076734     libeay32:obj_dat.obj
 0002:0000f73c       ??_C@_0L@BEHMICBH@dsaWithSHA?$AA@ 0007673c     libeay32:obj_dat.obj
 0002:0000f748       ??_C@_07JGDBCPKH@DSA?9SHA?$AA@ 00076748     libeay32:obj_dat.obj
 0002:0000f750       ??_C@_0BG@DALFFFBE@sha1WithRSAEncryption?$AA@ 00076750     libeay32:obj_dat.obj
 0002:0000f768       ??_C@_08FBKDDLCN@RSA?9SHA1?$AA@ 00076768     libeay32:obj_dat.obj
 0002:0000f774       ??_C@_04PGHFOLLE@sha1?$AA@ 00076774     libeay32:obj_dat.obj
 0002:0000f77c       ??_C@_04KPMLCNGO@SHA1?$AA@ 0007677c     libeay32:obj_dat.obj
 0002:0000f784       ??_C@_0N@LODGAID@des?9ede3?9ofb?$AA@ 00076784     libeay32:obj_dat.obj
 0002:0000f794       ??_C@_0N@JPPBGLEM@DES?9EDE3?9OFB?$AA@ 00076794     libeay32:obj_dat.obj
 0002:0000f7a4       ??_C@_0M@BOHDOFGF@des?9ede?9ofb?$AA@ 000767a4     libeay32:obj_dat.obj
 0002:0000f7b0       ??_C@_0M@PDBPCBBK@DES?9EDE?9OFB?$AA@ 000767b0     libeay32:obj_dat.obj
 0002:0000f7bc       ??_C@_0N@EBDFNPDL@des?9ede3?9cfb?$AA@ 000767bc     libeay32:obj_dat.obj
 0002:0000f7cc       ??_C@_0N@NFCHNEPE@DES?9EDE3?9CFB?$AA@ 000767cc     libeay32:obj_dat.obj
 0002:0000f7dc       ??_C@_0M@FEKFFKNN@des?9ede?9cfb?$AA@ 000767dc     libeay32:obj_dat.obj
 0002:0000f7e8       ??_C@_0M@LJMJJOKC@DES?9EDE?9CFB?$AA@ 000767e8     libeay32:obj_dat.obj
 0002:0000f7f4       ??_C@_0BD@JJEILMNP@Netscape?5Data?5Type?$AA@ 000767f4     libeay32:obj_dat.obj
 0002:0000f808       ??_C@_0L@FIMLGGPA@nsDataType?$AA@ 00076808     libeay32:obj_dat.obj
 0002:0000f814       ??_C@_0BP@LHPGKGFM@Netscape?5Certificate?5Extension?$AA@ 00076814     libeay32:obj_dat.obj
 0002:0000f834       ??_C@_09JDCKDNMG@nsCertExt?$AA@ 00076834     libeay32:obj_dat.obj
 0002:0000f840       ??_C@_0BO@IAIBEBGO@Netscape?5Communications?5Corp?4?$AA@ 00076840     libeay32:obj_dat.obj
 0002:0000f860       ??_C@_08BDEPHMAF@Netscape?$AA@ 00076860     libeay32:obj_dat.obj
 0002:0000f86c       ??_C@_0BO@LDCCNBPE@extendedCertificateAttributes?$AA@ 0007686c     libeay32:obj_dat.obj
 0002:0000f88c       ??_C@_0BE@MACPCAPF@unstructuredAddress?$AA@ 0007688c     libeay32:obj_dat.obj
 0002:0000f8a0       ??_C@_0BC@OKHONEEM@challengePassword?$AA@ 000768a0     libeay32:obj_dat.obj
 0002:0000f8b4       ??_C@_0BB@IPFGMODP@countersignature?$AA@ 000768b4     libeay32:obj_dat.obj
 0002:0000f8c8       ??_C@_0M@IJBJCCMP@signingTime?$AA@ 000768c8     libeay32:obj_dat.obj
 0002:0000f8d4       ??_C@_0O@JDGJDGC@messageDigest?$AA@ 000768d4     libeay32:obj_dat.obj
 0002:0000f8e4       ??_C@_0M@DOEFOEJD@contentType?$AA@ 000768e4     libeay32:obj_dat.obj
 0002:0000f8f0       ??_C@_0BB@CJIILOEM@unstructuredName?$AA@ 000768f0     libeay32:obj_dat.obj
 0002:0000f904       ??_C@_0N@IHLBAGEP@emailAddress?$AA@ 00076904     libeay32:obj_dat.obj
 0002:0000f914       ??_C@_05NKFNBGJP@pkcs9?$AA@ 00076914     libeay32:obj_dat.obj
 0002:0000f91c       ??_C@_08OGDEHPAF@idea?9ofb?$AA@ 0007691c     libeay32:obj_dat.obj
 0002:0000f928       ??_C@_08FIFJGOCG@IDEA?9OFB?$AA@ 00076928     libeay32:obj_dat.obj
 0002:0000f934       ??_C@_07NLMBCAKN@des?9ofb?$AA@ 00076934     libeay32:obj_dat.obj
 0002:0000f93c       ??_C@_07OHFNLDCN@DES?9OFB?$AA@ 0007693c     libeay32:obj_dat.obj
 0002:0000f944       ??_C@_0N@FPCHEGKG@des?9ede3?9cbc?$AA@ 00076944     libeay32:obj_dat.obj
 0002:0000f954       ??_C@_0N@MLDFENGJ@DES?9EDE3?9CBC?$AA@ 00076954     libeay32:obj_dat.obj
 0002:0000f964       ??_C@_0M@EKLHMDEA@des?9ede?9cbc?$AA@ 00076964     libeay32:obj_dat.obj
 0002:0000f970       ??_C@_0M@KHNLAHDP@DES?9EDE?9CBC?$AA@ 00076970     libeay32:obj_dat.obj
 0002:0000f97c       ??_C@_0BF@LIDINENF@shaWithRSAEncryption?$AA@ 0007697c     libeay32:obj_dat.obj
 0002:0000f994       ??_C@_07CMOFBHAL@RSA?9SHA?$AA@ 00076994     libeay32:obj_dat.obj
 0002:0000f99c       ??_C@_03JNBDOPOP@sha?$AA@  0007699c     libeay32:obj_dat.obj
 0002:0000f9a0       ??_C@_03JAOICCJD@SHA?$AA@  000769a0     libeay32:obj_dat.obj
 0002:0000f9a4       ??_C@_07MGMBPEPC@rc2?9ofb?$AA@ 000769a4     libeay32:obj_dat.obj
 0002:0000f9ac       ??_C@_07PNPBGCEE@RC2?9OFB?$AA@ 000769ac     libeay32:obj_dat.obj
 0002:0000f9b4       ??_C@_07IMBHELEK@rc2?9cfb?$AA@ 000769b4     libeay32:obj_dat.obj
 0002:0000f9bc       ??_C@_07LHCHNNPM@RC2?9CFB?$AA@ 000769bc     libeay32:obj_dat.obj
 0002:0000f9c4       ??_C@_07KPLHNGHN@rc2?9ecb?$AA@ 000769c4     libeay32:obj_dat.obj
 0002:0000f9cc       ??_C@_07JEIHEAML@RC2?9ECB?$AA@ 000769cc     libeay32:obj_dat.obj
 0002:0000f9d4       ??_C@_07JCAFNCNH@rc2?9cbc?$AA@ 000769d4     libeay32:obj_dat.obj
 0002:0000f9dc       ??_C@_07KJDFEEGB@RC2?9CBC?$AA@ 000769dc     libeay32:obj_dat.obj
 0002:0000f9e4       ??_C@_08IPECFNIK@idea?9ecb?$AA@ 000769e4     libeay32:obj_dat.obj
 0002:0000f9f0       ??_C@_08DBCPEMKJ@IDEA?9ECB?$AA@ 000769f0     libeay32:obj_dat.obj
 0002:0000f9fc       ??_C@_08KMOCMALN@idea?9cfb?$AA@ 000769fc     libeay32:obj_dat.obj
 0002:0000fa08       ??_C@_08BCIPNBJO@IDEA?9CFB?$AA@ 00076a08     libeay32:obj_dat.obj
 0002:0000fa14       ??_C@_08LCPAFJCA@idea?9cbc?$AA@ 00076a14     libeay32:obj_dat.obj
 0002:0000fa20       ??_C@_08MJNEIAD@IDEA?9CBC?$AA@ 00076a20     libeay32:obj_dat.obj
 0002:0000fa2c       ??_C@_08LJCBLNOK@des?9ede3?$AA@ 00076a2c     libeay32:obj_dat.obj
 0002:0000fa38       ??_C@_08FEKFKCFJ@DES?9EDE3?$AA@ 00076a38     libeay32:obj_dat.obj
 0002:0000fa44       ??_C@_07PILJICGA@des?9ede?$AA@ 00076a44     libeay32:obj_dat.obj
 0002:0000fa4c       ??_C@_07MECFBBOA@DES?9EDE?$AA@ 00076a4c     libeay32:obj_dat.obj
 0002:0000fa54       ??_C@_07IPAFAGII@des?9cbc?$AA@ 00076a54     libeay32:obj_dat.obj
 0002:0000fa5c       ??_C@_07LDJJJFAI@DES?9CBC?$AA@ 00076a5c     libeay32:obj_dat.obj
 0002:0000fa64       ??_C@_07JBBHJPBF@des?9cfb?$AA@ 00076a64     libeay32:obj_dat.obj
 0002:0000fa6c       ??_C@_07KNILAMJF@DES?9CFB?$AA@ 00076a6c     libeay32:obj_dat.obj
 0002:0000fa74       ??_C@_07LCLHACCC@des?9ecb?$AA@ 00076a74     libeay32:obj_dat.obj
 0002:0000fa7c       ??_C@_07IOCLJBKC@DES?9ECB?$AA@ 00076a7c     libeay32:obj_dat.obj
 0002:0000fa84       ??_C@_0P@HCMIBBEB@dhKeyAgreement?$AA@ 00076a84     libeay32:obj_dat.obj
 0002:0000fa94       ??_C@_05CALCPOBF@pkcs3?$AA@ 00076a94     libeay32:obj_dat.obj
 0002:0000fa9c       ??_C@_0BE@CAMKAFJN@pkcs7?9encryptedData?$AA@ 00076a9c     libeay32:obj_dat.obj
 0002:0000fab0       ??_C@_0BB@CJNFBHDI@pkcs7?9digestData?$AA@ 00076ab0     libeay32:obj_dat.obj
 0002:0000fac4       ??_C@_0BN@LMEEMCPG@pkcs7?9signedAndEnvelopedData?$AA@ 00076ac4     libeay32:obj_dat.obj
 0002:0000fae4       ??_C@_0BE@FAIIHMP@pkcs7?9envelopedData?$AA@ 00076ae4     libeay32:obj_dat.obj
 0002:0000faf8       ??_C@_0BB@PEKKHBEJ@pkcs7?9signedData?$AA@ 00076af8     libeay32:obj_dat.obj
 0002:0000fb0c       ??_C@_0L@BCKMJOMA@pkcs7?9data?$AA@ 00076b0c     libeay32:obj_dat.obj
 0002:0000fb18       ??_C@_05EENODLBB@pkcs7?$AA@ 00076b18     libeay32:obj_dat.obj
 0002:0000fb20       ??_C@_03DICHAJGH@RSA?$AA@  00076b20     libeay32:obj_dat.obj
 0002:0000fb24       ??_C@_0BH@LAMMAAM@organizationalUnitName?$AA@ 00076b24     libeay32:obj_dat.obj
 0002:0000fb3c       ??_C@_02LMLEEFAB@OU?$AA@   00076b3c     libeay32:obj_dat.obj
 0002:0000fb40       ??_C@_0BB@GBCNPHLL@organizationName?$AA@ 00076b40     libeay32:obj_dat.obj
 0002:0000fb54       ??_C@_01MJMHLOMK@O?$AA@    00076b54     libeay32:obj_dat.obj
 0002:0000fb58       ??_C@_0BE@NKDCJFMD@stateOrProvinceName?$AA@ 00076b58     libeay32:obj_dat.obj
 0002:0000fb6c       ??_C@_02LAJDCOFE@ST?$AA@   00076b6c     libeay32:obj_dat.obj
 0002:0000fb70       ??_C@_0N@LEDCGGBI@localityName?$AA@ 00076b70     libeay32:obj_dat.obj
 0002:0000fb80       ??_C@_01OCOKONAJ@L?$AA@    00076b80     libeay32:obj_dat.obj
 0002:0000fb84       ??_C@_0M@NPBHECMC@countryName?$AA@ 00076b84     libeay32:obj_dat.obj
 0002:0000fb90       ??_C@_01GFHCPBMG@C?$AA@    00076b90     libeay32:obj_dat.obj
 0002:0000fb94       ??_C@_0L@OILMNBLH@commonName?$AA@ 00076b94     libeay32:obj_dat.obj
 0002:0000fba0       ??_C@_02BMJIHHPP@CN?$AA@   00076ba0     libeay32:obj_dat.obj
 0002:0000fba4       ??_C@_04NMKEOMFB@X509?$AA@ 00076ba4     libeay32:obj_dat.obj
 0002:0000fbac       ??_C@_0BL@NJHHPHOL@directory?5services?5?$CIX?4500?$CJ?$AA@ 00076bac     libeay32:obj_dat.obj
 0002:0000fbc8       ??_C@_04NGGFHBI@X500?$AA@  00076bc8     libeay32:obj_dat.obj
 0002:0000fbd0       ??_C@_0BF@DAJHPIMK@pbeWithMD5AndDES?9CBC?$AA@ 00076bd0     libeay32:obj_dat.obj
 0002:0000fbe8       ??_C@_0M@KBNDBPIJ@PBE?9MD5?9DES?$AA@ 00076be8     libeay32:obj_dat.obj
 0002:0000fbf4       ??_C@_0BF@EEAPBBEF@pbeWithMD2AndDES?9CBC?$AA@ 00076bf4     libeay32:obj_dat.obj
 0002:0000fc0c       ??_C@_0M@LMNGCPDB@PBE?9MD2?9DES?$AA@ 00076c0c     libeay32:obj_dat.obj
 0002:0000fc18       ??_C@_0BF@EEAHCNKC@md5WithRSAEncryption?$AA@ 00076c18     libeay32:obj_dat.obj
 0002:0000fc30       ??_C@_07NOGKHCDB@RSA?9MD5?$AA@ 00076c30     libeay32:obj_dat.obj
 0002:0000fc38       ??_C@_0BF@ODJKGOJ@md2WithRSAEncryption?$AA@ 00076c38     libeay32:obj_dat.obj
 0002:0000fc50       ??_C@_07JBCLOEPG@RSA?9MD2?$AA@ 00076c50     libeay32:obj_dat.obj
 0002:0000fc58       ??_C@_0O@PCHNMHJE@rsaEncryption?$AA@ 00076c58     libeay32:obj_dat.obj
 0002:0000fc68       ??_C@_03OODGMOHK@rc4?$AA@  00076c68     libeay32:obj_dat.obj
 0002:0000fc6c       ??_C@_03HGEJCHKE@RC4?$AA@  00076c6c     libeay32:obj_dat.obj
 0002:0000fc70       ??_C@_03PKBIKOHH@md5?$AA@  00076c70     libeay32:obj_dat.obj
 0002:0000fc74       ??_C@_03GCGHEHKJ@MD5?$AA@  00076c74     libeay32:obj_dat.obj
 0002:0000fc78       ??_C@_03LFFJDILA@md2?$AA@  00076c78     libeay32:obj_dat.obj
 0002:0000fc7c       ??_C@_03CNCGNBGO@MD2?$AA@  00076c7c     libeay32:obj_dat.obj
 0002:0000fc80       ??_C@_0BN@EBHJCEC@RSA?5Data?5Security?0?5Inc?4?5PKCS?$AA@ 00076c80     libeay32:obj_dat.obj
 0002:0000fca0       ??_C@_04GCKLMHGD@pkcs?$AA@ 00076ca0     libeay32:obj_dat.obj
 0002:0000fca8       ??_C@_0BI@MPBNCOIB@RSA?5Data?5Security?0?5Inc?4?$AA@ 00076ca8     libeay32:obj_dat.obj
 0002:0000fcc0       ??_C@_06GGEMKGKC@rsadsi?$AA@ 00076cc0     libeay32:obj_dat.obj
 0002:0000fcc8       ??_C@_09MLGAJAED@undefined?$AA@ 00076cc8     libeay32:obj_dat.obj
 0002:0000fcd4       ??_C@_05DBLJEJPC@UNDEF?$AA@ 00076cd4     libeay32:obj_dat.obj
 0002:0000fce0       ??_C@_0FB@EJHIDBFI@d?3?2wm653wehh?2platform?2mvv210?2src@ 00076ce0     libeay32:obj_dat.obj
 0002:0000fd34       ??_C@_04MDEFHJHM@?4?$CFlu?$AA@ 00076d34     libeay32:obj_dat.obj
 0002:0000fd3c       STACK_version              00076d3c     libeay32:stack.obj
 0002:0000fd68       ??_C@_0EN@GOCHBJJG@d?3?2wm653wehh?2platform?2mvv210?2src@ 00076d68     libeay32:stack.obj
 0002:0000fdb8       ??_C@_0EL@PAPNDPGN@d?3?2wm653wehh?2platform?2mvv210?2src@ 00076db8     libeay32:p_lib.obj
 0002:0000fe08       ??_C@_0FC@NEBNNILH@d?3?2wm653wehh?2platform?2mvv210?2src@ 00076e08     libeay32:tb_pkmeth.obj
 0002:0000fe60       ??_C@_0FC@LCBCBJII@d?3?2wm653wehh?2platform?2mvv210?2src@ 00076e60     libeay32:eng_table.obj
 0002:0000feb8       ??_C@_0EJ@DIAKMCGH@d?3?2wm653wehh?2platform?2mvv210?2src@ 00076eb8     libeay32:mem_dbg.obj
 0002:0000ff04       lh_version                 00076f04     libeay32:lhash.obj
 0002:0000ff30       ??_C@_0EN@ECMNBMLE@d?3?2wm653wehh?2platform?2mvv210?2src@ 00076f30     libeay32:lhash.obj
 0002:0000ff80       ??_C@_0FA@OIJOADBF@d?3?2wm653wehh?2platform?2mvv210?2src@ 00076f80     libeay32:buf_str.obj
 0002:0000ffd0       ??_C@_0EN@GMEKCP@d?3?2wm653wehh?2platform?2mvv210?2src@ 00076fd0     libeay32:b_print.obj
 0002:00010020       ??_C@_06CBHGEMFM@?$DMNULL?$DO?$AA@ 00077020     libeay32:b_print.obj
 0002:00010028       ??_C@_0BB@JCEFLFJE@0123456789abcdef?$AA@ 00077028     libeay32:b_print.obj
 0002:0001003c       ??_C@_0BB@JGGOGLEG@0123456789ABCDEF?$AA@ 0007703c     libeay32:b_print.obj
 0002:00010050       ??_C@_02MDDDDAID@0x?$AA@   00077050     libeay32:b_print.obj
 0002:00010054       ??_C@_01GBGANLPD@0?$AA@    00077054     libeay32:b_print.obj
 0002:00010058       ??_C@_07DKNGGOEP@doapr?$CI?$CJ?$AA@ 00077058     libeay32:b_print.obj
 0002:00010060       ??_C@_0FA@DONMMNBK@d?3?2wm653wehh?2platform?2mvv210?2src@ 00077060     libeay32:eng_lib.obj
 0002:000100b0       ??_C@_0EP@KDEOOFHE@d?3?2wm653wehh?2platform?2mvv210?2src@ 000770b0     libeay32:evp_asn1.obj
 0002:00010100       ??_C@_0EP@EOLMKMCC@d?3?2wm653wehh?2platform?2mvv210?2src@ 00077100     libeay32:a_object.obj
 0002:00010150       ??_C@_09OJNEAJGG@?$DMINVALID?$DO?$AA@ 00077150     libeay32:a_object.obj
 0002:00010160       ??_C@_0EO@DEEJNAGE@d?3?2wm653wehh?2platform?2mvv210?2src@ 00077160     libeay32:rsa_crpt.obj
 0002:000104cc       ??_C@_0N@KHICOJGI@ASN1_SET_ANY?$AA@ 000774cc     libeay32:tasn_typ.obj
 0002:000104dc       ??_C@_0BC@COPGMDLD@ASN1_SEQUENCE_ANY?$AA@ 000774dc     libeay32:tasn_typ.obj
 0002:000104f0       ??_C@_0BH@HEBAELGA@ASN1_OCTET_STRING_NDEF?$AA@ 000774f0     libeay32:tasn_typ.obj
 0002:00010508       ??_C@_0O@JKANHMPI@ASN1_FBOOLEAN?$AA@ 00077508     libeay32:tasn_typ.obj
 0002:00010518       ??_C@_0O@BIDLBGAP@ASN1_TBOOLEAN?$AA@ 00077518     libeay32:tasn_typ.obj
 0002:00010528       ??_C@_0N@HMAPMMGF@ASN1_BOOLEAN?$AA@ 00077528     libeay32:tasn_typ.obj
 0002:00010538       ??_C@_0BA@CBHCBCAE@DIRECTORYSTRING?$AA@ 00077538     libeay32:tasn_typ.obj
 0002:00010548       ??_C@_0M@FANFDIEE@DISPLAYTEXT?$AA@ 00077548     libeay32:tasn_typ.obj
 0002:00010554       ??_C@_0P@NDKOCAEJ@ASN1_PRINTABLE?$AA@ 00077554     libeay32:tasn_typ.obj
 0002:00010564       ??_C@_0O@NJFCFMGE@ASN1_SEQUENCE?$AA@ 00077564     libeay32:tasn_typ.obj
 0002:00010574       ??_C@_08FIDCPDIJ@ASN1_ANY?$AA@ 00077574     libeay32:tasn_typ.obj
 0002:00010580       ??_C@_0P@CHICPHIN@ASN1_BMPSTRING?$AA@ 00077580     libeay32:tasn_typ.obj
 0002:00010590       ??_C@_0BF@DMDDFBNJ@ASN1_UNIVERSALSTRING?$AA@ 00077590     libeay32:tasn_typ.obj
 0002:000105a8       ??_C@_0BD@HMMCNBGD@ASN1_VISIBLESTRING?$AA@ 000775a8     libeay32:tasn_typ.obj
 0002:000105bc       ??_C@_0BF@MPJFOIHC@ASN1_GENERALIZEDTIME?$AA@ 000775bc     libeay32:tasn_typ.obj
 0002:000105d4       ??_C@_0N@OIMCLPEM@ASN1_UTCTIME?$AA@ 000775d4     libeay32:tasn_typ.obj
 0002:000105e4       ??_C@_0BD@EMMGLGMD@ASN1_GENERALSTRING?$AA@ 000775e4     libeay32:tasn_typ.obj
 0002:000105f8       ??_C@_0P@KBFNFBLB@ASN1_IA5STRING?$AA@ 000775f8     libeay32:tasn_typ.obj
 0002:00010608       ??_C@_0P@GDIFPLAP@ASN1_T61STRING?$AA@ 00077608     libeay32:tasn_typ.obj
 0002:00010618       ??_C@_0BF@CPDMNKCA@ASN1_PRINTABLESTRING?$AA@ 00077618     libeay32:tasn_typ.obj
 0002:00010630       ??_C@_0BA@LEPDCAOC@ASN1_UTF8STRING?$AA@ 00077630     libeay32:tasn_typ.obj
 0002:00010640       ??_C@_0M@BJNOJGBL@ASN1_OBJECT?$AA@ 00077640     libeay32:tasn_typ.obj
 0002:0001064c       ??_C@_09NHFFCPKK@ASN1_NULL?$AA@ 0007764c     libeay32:tasn_typ.obj
 0002:00010658       ??_C@_0BC@PEBEKNCO@ASN1_OCTET_STRING?$AA@ 00077658     libeay32:tasn_typ.obj
 0002:0001066c       ??_C@_0BA@LJHGDIKH@ASN1_BIT_STRING?$AA@ 0007766c     libeay32:tasn_typ.obj
 0002:0001067c       ??_C@_0BA@CLGIIAJD@ASN1_ENUMERATED?$AA@ 0007767c     libeay32:tasn_typ.obj
 0002:0001068c       ??_C@_0N@KIGEHGKE@ASN1_INTEGER?$AA@ 0007768c     libeay32:tasn_typ.obj
 0002:0001069c       ASN1_version               0007769c     libeay32:asn1_lib.obj
 0002:000106c8       ??_C@_0EP@DFJJGEMF@d?3?2wm653wehh?2platform?2mvv210?2src@ 000776c8     libeay32:asn1_lib.obj
 0002:00010718       DES_SPtrans                00077718     libeay32:des_enc.obj
 0002:000118d8       ??_C@_0EL@CJHJHLOJ@d?3?2wm653wehh?2platform?2mvv210?2src@ 000788d8     libeay32:cmac.obj
 0002:00011938       ??_C@_0EP@DFJOCJBM@d?3?2wm653wehh?2platform?2mvv210?2src@ 00078938     libeay32:v3_utl.obj
 0002:00011988       ??_C@_05MAJJAKPI@FALSE?$AA@ 00078988     libeay32:v3_utl.obj
 0002:00011990       ??_C@_04HCDDPBNL@TRUE?$AA@ 00078990     libeay32:v3_utl.obj
 0002:00011998       ??_C@_07BDICHDDB@?0value?3?$AA@ 00078998     libeay32:v3_utl.obj
 0002:000119a0       ??_C@_06FONLLLNC@?0name?3?$AA@ 000789a0     libeay32:v3_utl.obj
 0002:000119a8       ??_C@_08PCLJGJAL@section?3?$AA@ 000789a8     libeay32:v3_utl.obj
 0002:000119b4       ??_C@_02KAJCLHKP@no?$AA@   000789b4     libeay32:v3_utl.obj
 0002:000119b8       ??_C@_02NFLNFON@NO?$AA@    000789b8     libeay32:v3_utl.obj
 0002:000119bc       ??_C@_01EFFIKLCJ@n?$AA@    000789bc     libeay32:v3_utl.obj
 0002:000119c0       ??_C@_01NANMIPIL@N?$AA@    000789c0     libeay32:v3_utl.obj
 0002:000119c4       ??_C@_05LAPONLG@false?$AA@ 000789c4     libeay32:v3_utl.obj
 0002:000119cc       ??_C@_03ICICOMAL@yes?$AA@  000789cc     libeay32:v3_utl.obj
 0002:000119d0       ??_C@_03IPHJCBHH@YES?$AA@  000789d0     libeay32:v3_utl.obj
 0002:000119d4       ??_C@_01EANLCPLP@y?$AA@    000789d4     libeay32:v3_utl.obj
 0002:000119d8       ??_C@_01NFFPALBN@Y?$AA@    000789d8     libeay32:v3_utl.obj
 0002:000119dc       ??_C@_04LOAJBDKD@true?$AA@ 000789dc     libeay32:v3_utl.obj
 0002:000119e4       ??_C@_0M@PCENNPGA@?$CFd?4?$CFd?4?$CFd?4?$CFd?$AA@ 000789e4     libeay32:v3_utl.obj
 0002:000119f0       ??_C@_0CF@JFAAPJDH@len?$DO?$DN0?5?$CG?$CG?5len?$DM?$DN?$CIint?$CJsizeof?$CIctx?9?$DO@ 000789f0     libeay32:hmac.obj
 0002:00011a18       ??_C@_0BL@OKHNPHMK@j?5?$DM?$DN?5?$CIint?$CJsizeof?$CIctx?9?$DOkey?$CJ?$AA@ 00078a18     libeay32:hmac.obj
 0002:00011a38       ??_C@_0EL@FKOMILBN@d?3?2wm653wehh?2platform?2mvv210?2src@ 00078a38     libeay32:hmac.obj
 0002:00011ab0       ??_C@_0EL@KJLPEPL@d?3?2wm653wehh?2platform?2mvv210?2src@ 00078ab0     libeay32:ec_lib.obj
 0002:00011afc       ECDSA_version              00078afc     libeay32:ecs_lib.obj
 0002:00011b28       ??_C@_0EP@HDBDKLOP@d?3?2wm653wehh?2platform?2mvv210?2src@ 00078b28     libeay32:ecs_lib.obj
 0002:00011b78       ??_C@_0EL@FFHGPJNM@d?3?2wm653wehh?2platform?2mvv210?2src@ 00078b78     libeay32:ec_key.obj
 0002:00015040       ??_C@_0HB@IIAMGFOE@?6?7IPSec?1IKE?1Oakley?5curve?5?$CD4?5over@ 0007c040     libeay32:ec_curve.obj
 0002:000150b8       ??_C@_0HB@LGGCBEEP@?6?7IPSec?1IKE?1Oakley?5curve?5?$CD3?5over@ 0007c0b8     libeay32:ec_curve.obj
 0002:0001512c       ??_C@_0CG@MLNHEHNL@WTLS?5curvs?5over?5a?5224?5bit?5prime?5@ 0007c12c     libeay32:ec_curve.obj
 0002:00015154       ??_C@_0CG@JBBHINGJ@WTLS?5curve?5over?5a?5160?5bit?5prime?5@ 0007c154     libeay32:ec_curve.obj
 0002:0001517c       ??_C@_0CG@NOPNGNKB@WTLS?5curve?5over?5a?5112?5bit?5prime?5@ 0007c17c     libeay32:ec_curve.obj
 0002:000151a4       ??_C@_0CH@PAECJHG@WTLS?5curve?5over?5a?5113?5bit?5binary@ 0007c1a4     libeay32:ec_curve.obj
 0002:000151cc       ??_C@_0CI@PHOKEIPD@X9?462?5curve?5over?5a?5431?5bit?5binar@ 0007c1cc     libeay32:ec_curve.obj
 0002:000151f4       ??_C@_0CI@GLMEIDGJ@X9?462?5curve?5over?5a?5368?5bit?5binar@ 0007c1f4     libeay32:ec_curve.obj
 0002:0001521c       ??_C@_0CI@BDIPEOPL@X9?462?5curve?5over?5a?5359?5bit?5binar@ 0007c21c     libeay32:ec_curve.obj
 0002:00015244       ??_C@_0CI@PCOAONL@X9?462?5curve?5over?5a?5304?5bit?5binar@ 0007c244     libeay32:ec_curve.obj
 0002:0001526c       ??_C@_0CI@OMGMCAMF@X9?462?5curve?5over?5a?5272?5bit?5binar@ 0007c26c     libeay32:ec_curve.obj
 0002:00015294       ??_C@_0CI@IHGFALA@X9?462?5curve?5over?5a?5239?5bit?5binar@ 0007c294     libeay32:ec_curve.obj
 0002:000152bc       ??_C@_0CI@HADNJNCC@X9?462?5curve?5over?5a?5208?5bit?5binar@ 0007c2bc     libeay32:ec_curve.obj
 0002:000152e4       ??_C@_0CI@CNNMGPOI@X9?462?5curve?5over?5a?5191?5bit?5binar@ 0007c2e4     libeay32:ec_curve.obj
 0002:0001530c       ??_C@_0CI@HOBKKPME@X9?462?5curve?5over?5a?5176?5bit?5binar@ 0007c30c     libeay32:ec_curve.obj
 0002:00015334       ??_C@_0CI@CFPHBJDI@X9?462?5curve?5over?5a?5163?5bit?5binar@ 0007c334     libeay32:ec_curve.obj
 0002:0001535c       ??_C@_0CM@EACJKLC@NIST?1SECG?5curve?5over?5a?5571?5bit?5b@ 0007c35c     libeay32:ec_curve.obj
 0002:00015388       ??_C@_0CM@HDDNKCDK@NIST?1SECG?5curve?5over?5a?5409?5bit?5b@ 0007c388     libeay32:ec_curve.obj
 0002:000153b4       ??_C@_0CM@GFMOGKDK@NIST?1SECG?5curve?5over?5a?5283?5bit?5b@ 0007c3b4     libeay32:ec_curve.obj
 0002:000153e0       ??_C@_0CH@CLCLBOGN@SECG?5curve?5over?5a?5239?5bit?5binary@ 0007c3e0     libeay32:ec_curve.obj
 0002:00015408       ??_C@_0DB@PNCPLOPN@NIST?1SECG?1WTLS?5curve?5over?5a?5233?5@ 0007c408     libeay32:ec_curve.obj
 0002:0001543c       ??_C@_0CH@HKDFCHME@SECG?5curve?5over?5a?5193?5bit?5binary@ 0007c43c     libeay32:ec_curve.obj
 0002:00015464       ??_C@_0CM@HCIKDLO@NIST?1SECG?5curve?5over?5a?5163?5bit?5b@ 0007c464     libeay32:ec_curve.obj
 0002:00015490       ??_C@_0CH@GKKFHOF@SECG?5curve?5over?5a?5163?5bit?5binary@ 0007c490     libeay32:ec_curve.obj
 0002:000154b8       ??_C@_0DB@KNLLOMAB@NIST?1SECG?1WTLS?5curve?5over?5a?5163?5@ 0007c4b8     libeay32:ec_curve.obj
 0002:000154ec       ??_C@_0CH@FJJEIBAL@SECG?5curve?5over?5a?5131?5bit?5binary@ 0007c4ec     libeay32:ec_curve.obj
 0002:00015514       ??_C@_0CM@EPOILLGK@SECG?1WTLS?5curve?5over?5a?5131?5bit?5b@ 0007c514     libeay32:ec_curve.obj
 0002:00015540       ??_C@_0CH@OHOOPBHG@SECG?5curve?5over?5a?5113?5bit?5binary@ 0007c540     libeay32:ec_curve.obj
 0002:00015568       ??_C@_0CM@IACJENLF@X9?462?1SECG?5curve?5over?5a?5256?5bit?5@ 0007c568     libeay32:ec_curve.obj
 0002:00015594       ??_C@_0CH@COBCAEEE@X9?462?5curve?5over?5a?5239?5bit?5prime@ 0007c594     libeay32:ec_curve.obj
 0002:000155bc       ??_C@_0CH@BHJCBJE@X9?462?5curve?5over?5a?5192?5bit?5prime@ 0007c5bc     libeay32:ec_curve.obj
 0002:000155e4       ??_C@_0DB@HJIMEGJL@NIST?1X9?462?1SECG?5curve?5over?5a?5192@ 0007c5e4     libeay32:ec_curve.obj
 0002:00015618       ??_C@_0CL@NCEJLDDF@NIST?1SECG?5curve?5over?5a?5521?5bit?5p@ 0007c618     libeay32:ec_curve.obj
 0002:00015644       ??_C@_0CL@MPIFFEHD@NIST?1SECG?5curve?5over?5a?5384?5bit?5p@ 0007c644     libeay32:ec_curve.obj
 0002:00015670       ??_C@_0CG@MBJIMJMI@SECG?5curve?5over?5a?5256?5bit?5prime?5@ 0007c670     libeay32:ec_curve.obj
 0002:00015698       ??_C@_0CL@NHPHHEEB@NIST?1SECG?5curve?5over?5a?5224?5bit?5p@ 0007c698     libeay32:ec_curve.obj
 0002:000156c4       ??_C@_0CG@IOHCCJAA@SECG?5curve?5over?5a?5224?5bit?5prime?5@ 0007c6c4     libeay32:ec_curve.obj
 0002:000156ec       ??_C@_0CG@IFFAEDGD@SECG?5curve?5over?5a?5192?5bit?5prime?5@ 0007c6ec     libeay32:ec_curve.obj
 0002:00015714       ??_C@_0CL@NDOOJKPB@SECG?1WTLS?5curve?5over?5a?5160?5bit?5p@ 0007c714     libeay32:ec_curve.obj
 0002:00015740       ??_C@_0CG@MDBLLOCO@SECG?5curve?5over?5a?5160?5bit?5prime?5@ 0007c740     libeay32:ec_curve.obj
 0002:00015768       ??_C@_0CG@DNCCBNMA@SECG?5curve?5over?5a?5128?5bit?5prime?5@ 0007c768     libeay32:ec_curve.obj
 0002:00015790       ??_C@_0CG@IMPBFOOG@SECG?5curve?5over?5a?5112?5bit?5prime?5@ 0007c790     libeay32:ec_curve.obj
 0002:000157b8       ??_C@_0CL@JMAEHKDJ@SECG?1WTLS?5curve?5over?5a?5112?5bit?5p@ 0007c7b8     libeay32:ec_curve.obj
 0002:000157e8       ??_C@_0EN@GGBLGKDN@d?3?2wm653wehh?2platform?2mvv210?2src@ 0007c7e8     libeay32:ec_curve.obj
 0002:00015a78       ??_C@_08CCPALKOP@priv_key?$AA@ 0007ca78     libeay32:dsa_asn1.obj
 0002:00015a84       ??_C@_07CLGEADLH@pub_key?$AA@ 0007ca84     libeay32:dsa_asn1.obj
 0002:00015a8c       ??_C@_01JEJKBAGA@g?$AA@    0007ca8c     libeay32:dsa_asn1.obj
 0002:00015a90       ??_C@_01IIACKFLH@q?$AA@    0007ca90     libeay32:dsa_asn1.obj
 0002:00015a94       ??_C@_01JBBJJEPG@p?$AA@    0007ca94     libeay32:dsa_asn1.obj
 0002:00015a98       ??_C@_07CPCPJPKL@version?$AA@ 0007ca98     libeay32:dsa_asn1.obj
 0002:00015aa0       ??_C@_07ECLLFBLJ@DSA_SIG?$AA@ 0007caa0     libeay32:dsa_asn1.obj
 0002:00015aa8       ??_C@_01LKDEMHDF@s?$AA@    0007caa8     libeay32:dsa_asn1.obj
 0002:00015aac       ??_C@_01KDCPPGHE@r?$AA@    0007caac     libeay32:dsa_asn1.obj
 0002:00015ab0       ??_C@_0EO@DLELNGDB@d?3?2wm653wehh?2platform?2mvv210?2src@ 0007cab0     libeay32:dsa_asn1.obj
 0002:00015b00       DSA_version                0007cb00     libeay32:dsa_lib.obj
 0002:00015b28       ??_C@_0EN@HPPIDPIC@d?3?2wm653wehh?2platform?2mvv210?2src@ 0007cb28     libeay32:dsa_lib.obj
 0002:00015b78       DH_version                 0007cb78     libeay32:dh_lib.obj
 0002:00015bb0       ??_C@_0EL@PIAODHMF@d?3?2wm653wehh?2platform?2mvv210?2src@ 0007cbb0     libeay32:dh_lib.obj
 0002:00015c00       ??_C@_0EL@BNOPJFLP@d?3?2wm653wehh?2platform?2mvv210?2src@ 0007cc00     libeay32:dh_gen.obj
 0002:00015c4c       ??_C@_0BC@MGHKLCAP@OpenSSL?5DH?5Method?$AA@ 0007cc4c     libeay32:dh_key.obj
 0002:00015c60       ??_C@_0EL@KHODDKOC@d?3?2wm653wehh?2platform?2mvv210?2src@ 0007cc60     libeay32:dh_key.obj
 0002:00015cc8       BN_version                 0007ccc8     libeay32:bn_lib.obj
 0002:00015df8       ??_C@_0EL@EKPDCIGL@d?3?2wm653wehh?2platform?2mvv210?2src@ 0007cdf8     libeay32:bn_lib.obj
 0002:00015e50       ??_C@_0EN@HNNJMEMO@d?3?2wm653wehh?2platform?2mvv210?2src@ 0007ce50     libeay32:rsa_pss.obj
 0002:00015ea0       ??_C@_0EO@NHOCECJL@d?3?2wm653wehh?2platform?2mvv210?2src@ 0007cea0     libeay32:rsa_sign.obj
 0002:00015ef0       ??_C@_0DF@DGNAAHIE@signature?5has?5problems?0?5re?9make?5@ 0007cef0     libeay32:rsa_sign.obj
 0002:00015f28       ??_C@_0EO@IHJGGIGJ@d?3?2wm653wehh?2platform?2mvv210?2src@ 0007cf28     libeay32:rsa_x931.obj
 0002:00016178       ??_C@_0M@MMOLGLEG@X509_ALGORS?$AA@ 0007d178     libeay32:x_algor.obj
 0002:00016184       ??_C@_0L@BNOBMJFK@algorithms?$AA@ 0007d184     libeay32:x_algor.obj
 0002:00016190       ??_C@_0L@BFHONDPK@X509_ALGOR?$AA@ 0007d190     libeay32:x_algor.obj
 0002:0001619c       ??_C@_09DAGAJHIH@parameter?$AA@ 0007d19c     libeay32:x_algor.obj
 0002:000161a8       ??_C@_0EN@EGODLFJH@d?3?2wm653wehh?2platform?2mvv210?2src@ 0007d1a8     libeay32:cms_env.obj
 0002:00016210       ??_C@_0EN@HOIICIBH@d?3?2wm653wehh?2platform?2mvv210?2src@ 0007d210     libeay32:bn_print.obj
 0002:00016260       ??_C@_04LJCFADJL@?$CF09u?$AA@ 0007d260     libeay32:bn_print.obj
 0002:00016268       ??_C@_02GMHACPFF@?$CFu?$AA@ 0007d268     libeay32:bn_print.obj
 0002:0001626c       ??_C@_01JOAMLHOP@?9?$AA@   0007d26c     libeay32:bn_print.obj
 0002:00016270       RSA_version                0007d270     libeay32:rsa_lib.obj
 0002:00016298       ??_C@_0EN@MLDILJPH@d?3?2wm653wehh?2platform?2mvv210?2src@ 0007d298     libeay32:rsa_lib.obj
 0002:000162e8       ??_C@_0EN@CONJBLIN@d?3?2wm653wehh?2platform?2mvv210?2src@ 0007d2e8     libeay32:rsa_gen.obj
 0002:00016338       ??_C@_0FB@OACJPALH@d?3?2wm653wehh?2platform?2mvv210?2src@ 0007d338     libeay32:obj_lib.obj
 0002:00016390       ??_C@_0EN@MBCJMNEM@d?3?2wm653wehh?2platform?2mvv210?2src@ 0007d390     libeay32:bio_lib.obj
 0002:000163e0       ??_C@_01CLKCMJKC@?5?$AA@   0007d3e0     libeay32:bio_lib.obj
 0002:0001646c       ??_C@_06IEOJBDIK@object?$AA@ 0007d46c     libeay32:x_attrib.obj
 0002:00016474       ??_C@_0P@IBKNNFL@X509_ATTRIBUTE?$AA@ 0007d474     libeay32:x_attrib.obj
 0002:00016484       ??_C@_0N@MCAEPLPL@value?4single?$AA@ 0007d484     libeay32:x_attrib.obj
 0002:00016494       ??_C@_09MPCDAIAO@value?4set?$AA@ 0007d494     libeay32:x_attrib.obj
 0002:00016828       ??_C@_0EN@ODDCBIPI@d?3?2wm653wehh?2platform?2mvv210?2src@ 0007d828     libeay32:evp_pbe.obj
 0002:00016878       ??_C@_05DLJFLBDA@TYPE?$DN?$AA@ 0007d878     libeay32:evp_pbe.obj
 0002:00016880       ??_C@_02DKCKIIND@?$CFs?$AA@ 0007d880     libeay32:eng_ctrl.obj
 0002:00016884       ??_C@_0N@JAGKAFD@FILE?5pointer?$AA@ 0007d884     libeay32:bss_file.obj
 0002:00016898       ??_C@_0EO@GEBEJMNG@d?3?2wm653wehh?2platform?2mvv210?2src@ 0007d898     libeay32:bss_file.obj
 0002:000168e8       ??_C@_02HJPKOJGD@?8?$CJ?$AA@ 0007d8e8     libeay32:bss_file.obj
 0002:000168ec       ??_C@_03IMMLKIF@?8?0?8?$AA@ 0007d8ec     libeay32:bss_file.obj
 0002:000168f0       ??_C@_07JMDFGFFH@fopen?$CI?8?$AA@ 0007d8f0     libeay32:bss_file.obj
 0002:000168f8       ??_C@_01PFHFFBPC@t?$AA@    0007d8f8     libeay32:bss_file.obj
 0002:000168fc       ??_C@_01OJONOECF@b?$AA@    0007d8fc     libeay32:bss_file.obj
 0002:00016900       ??_C@_01NOFIACDB@w?$AA@    0007d900     libeay32:bss_file.obj
 0002:00016904       ??_C@_02CBLLGHLK@r?$CL?$AA@ 0007d904     libeay32:bss_file.obj
 0002:00016908       ??_C@_01MCMALHOG@a?$AA@    0007d908     libeay32:bss_file.obj
 0002:0001690c       ??_C@_02DPNLHKJD@a?$CL?$AA@ 0007d90c     libeay32:bss_file.obj
 0002:00016910       ??_C@_0EJ@IBNICOFA@d?3?2wm653wehh?2platform?2mvv210?2src@ 0007d910     libeay32:ex_data.obj
 0002:00016960       ??_C@_0FC@BNEDDMOL@d?3?2wm653wehh?2platform?2mvv210?2src@ 0007d960     libeay32:tb_asnmth.obj
 0002:000169b8       ??_C@_0EM@IJKLDGFG@d?3?2wm653wehh?2platform?2mvv210?2src@ 0007d9b8     libeay32:a_int.obj
 0002:00016a08       ??_C@_0EN@CHOOKOEN@d?3?2wm653wehh?2platform?2mvv210?2src@ 0007da08     libeay32:bn_blind.obj
 0002:00016a58       ??_C@_0EL@BMHBHOHG@d?3?2wm653wehh?2platform?2mvv210?2src@ 0007da58     libeay32:bn_ctx.obj
 0002:00016aa8       ??_C@_0EL@EPOPJPNF@d?3?2wm653wehh?2platform?2mvv210?2src@ 0007daa8     libeay32:bn_gcd.obj
 0002:00016af8       ??_C@_0EL@CLJGKANI@d?3?2wm653wehh?2platform?2mvv210?2src@ 0007daf8     libeay32:bn_add.obj
 0002:00016bc8       ??_C@_0EP@IJPFBBNM@d?3?2wm653wehh?2platform?2mvv210?2src@ 0007dbc8     libeay32:tasn_dec.obj
 0002:00016c18       ??_C@_05GCCLHHOK@Type?$DN?$AA@ 0007dc18     libeay32:tasn_dec.obj
 0002:00016c20       ??_C@_07NHKPEHKF@?0?5Type?$DN?$AA@ 0007dc20     libeay32:tasn_dec.obj
 0002:00016c28       ??_C@_06GPKHKFJE@Field?$DN?$AA@ 0007dc28     libeay32:tasn_dec.obj
 0002:00016c30       ??_C@_0EP@DFHJPDGI@d?3?2wm653wehh?2platform?2mvv210?2src@ 0007dc30     libeay32:tasn_enc.obj
 0002:00016c80       ??_C@_0EP@PHBFPCHC@d?3?2wm653wehh?2platform?2mvv210?2src@ 0007dc80     libeay32:tasn_new.obj
 0002:00016cd0       EVP_version                0007dcd0     libeay32:evp_enc.obj
 0002:00016cf8       ??_C@_0EN@FALCDJAN@d?3?2wm653wehh?2platform?2mvv210?2src@ 0007dcf8     libeay32:evp_enc.obj
 0002:00016d48       ??_C@_0BM@NOPGEACO@bl?5?$DM?$DN?5?$CIint?$CJsizeof?$CIctx?9?$DObuf?$CJ?$AA@ 0007dd48     libeay32:evp_enc.obj
 0002:00016d64       ??_C@_0BF@NLHGELBH@b?5?$DM?$DN?5sizeof?5ctx?9?$DObuf?$AA@ 0007dd64     libeay32:evp_enc.obj
 0002:00016d7c       ??_C@_0BH@JPOFFCDO@b?5?$DM?$DN?5sizeof?5ctx?9?$DOfinal?$AA@ 0007dd7c     libeay32:evp_enc.obj
 0002:00016d94       ??_C@_0DG@IKOHIL@EVP_CIPHER_CTX_iv_length?$CIctx?$CJ?5?$DM?$DN@ 0007dd94     libeay32:evp_enc.obj
 0002:00016dd0       ??_C@_0FO@KIBMBINE@ctx?9?$DOcipher?9?$DOblock_size?5?$DN?$DN?51?5?$HM?$HM?5@ 0007ddd0     libeay32:evp_enc.obj
 0002:00016e30       ??_C@_0EN@MHHCMNBH@d?3?2wm653wehh?2platform?2mvv210?2src@ 0007de30     libeay32:a_enum.obj
 0002:00016e80       ??_C@_0EP@KFOAJJMD@d?3?2wm653wehh?2platform?2mvv210?2src@ 0007de80     libeay32:x509name.obj
 0002:00016ed0       ??_C@_05DFCJAACA@name?$DN?$AA@ 0007ded0     libeay32:x509name.obj
 0002:00016f4c       v3_sinfo                   0007df4c     libeay32:v3_info.obj
 0002:00016f84       v3_info                    0007df84     libeay32:v3_info.obj
 0002:00016fbc       ??_C@_0BG@PFEKCAHJ@AUTHORITY_INFO_ACCESS?$AA@ 0007dfbc     libeay32:v3_info.obj
 0002:00016fd4       ??_C@_0N@CJKIBDLK@GeneralNames?$AA@ 0007dfd4     libeay32:v3_info.obj
 0002:00016fe4       ??_C@_0BD@IKHCEBLA@ACCESS_DESCRIPTION?$AA@ 0007dfe4     libeay32:v3_info.obj
 0002:00016ff8       ??_C@_08CBBFJFMD@location?$AA@ 0007dff8     libeay32:v3_info.obj
 0002:00017004       ??_C@_06GABBCIBA@method?$AA@ 0007e004     libeay32:v3_info.obj
 0002:0001700c       ??_C@_03NLJIHOMM@?5?9?5?$AA@ 0007e00c     libeay32:v3_info.obj
 0002:00017010       ??_C@_0FA@EJINBECP@d?3?2wm653wehh?2platform?2mvv210?2src@ 0007e010     libeay32:v3_info.obj
 0002:00017060       ??_C@_06KFEJCPI@value?$DN?$AA@ 0007e060     libeay32:v3_info.obj
 0002:00017068       ??_C@_0EP@JMDNBNIF@d?3?2wm653wehh?2platform?2mvv210?2src@ 0007e068     libeay32:conf_mod.obj
 0002:000170b8       ??_C@_01KMDKNFGN@?1?$AA@   0007e0b8     libeay32:conf_mod.obj
 0002:0001724c       ??_C@_0O@NFAAPMIG@GENERAL_NAMES?$AA@ 0007e24c     libeay32:v3_genn.obj
 0002:0001725c       ??_C@_0N@JCNPGCGM@GENERAL_NAME?$AA@ 0007e25c     libeay32:v3_genn.obj
 0002:0001726c       ??_C@_0P@KIENIEMD@d?4registeredID?$AA@ 0007e26c     libeay32:v3_genn.obj
 0002:0001727c       ??_C@_0M@PANAALJB@d?4iPAddress?$AA@ 0007e27c     libeay32:v3_genn.obj
 0002:00017288       ??_C@_0BM@CMCMADCA@d?4uniformResourceIdentifier?$AA@ 0007e288     libeay32:v3_genn.obj
 0002:000172a4       ??_C@_0P@OBCPPLOL@d?4ediPartyName?$AA@ 0007e2a4     libeay32:v3_genn.obj
 0002:000172b4       ??_C@_0BA@JLDFBFLN@d?4directoryName?$AA@ 0007e2b4     libeay32:v3_genn.obj
 0002:000172c4       ??_C@_0O@NKHOODFK@d?4x400Address?$AA@ 0007e2c4     libeay32:v3_genn.obj
 0002:000172d4       ??_C@_09HIBJABFB@d?4dNSName?$AA@ 0007e2d4     libeay32:v3_genn.obj
 0002:000172e0       ??_C@_0N@MMCCMIPN@d?4rfc822Name?$AA@ 0007e2e0     libeay32:v3_genn.obj
 0002:000172f0       ??_C@_0M@FGIBMCEL@d?4otherName?$AA@ 0007e2f0     libeay32:v3_genn.obj
 0002:000172fc       ??_C@_0N@GEILLNKP@EDIPARTYNAME?$AA@ 0007e2fc     libeay32:v3_genn.obj
 0002:0001730c       ??_C@_09EHIHAIPF@partyName?$AA@ 0007e30c     libeay32:v3_genn.obj
 0002:00017318       ??_C@_0N@KBFEHHDO@nameAssigner?$AA@ 0007e318     libeay32:v3_genn.obj
 0002:00017328       ??_C@_09MAFAINAH@OTHERNAME?$AA@ 0007e328     libeay32:v3_genn.obj
 0002:00017334       ??_C@_05MFEJDJP@value?$AA@ 0007e334     libeay32:v3_genn.obj
 0002:0001733c       ??_C@_07EEDOJOAA@type_id?$AA@ 0007e33c     libeay32:v3_genn.obj
 0002:000173cc       ??_C@_0BA@JCMMJNEE@X509_EXTENSIONS?$AA@ 0007e3cc     libeay32:x_exten.obj
 0002:000173dc       ??_C@_09KMFOEAAA@Extension?$AA@ 0007e3dc     libeay32:x_exten.obj
 0002:000173e8       ??_C@_0P@OMHBNPIC@X509_EXTENSION?$AA@ 0007e3e8     libeay32:x_exten.obj
 0002:000173f8       ??_C@_08CBBMEOFB@critical?$AA@ 0007e3f8     libeay32:x_exten.obj
 0002:00017408       ??_C@_0EM@NFBEAOGE@d?3?2wm653wehh?2platform?2mvv210?2src@ 0007e408     libeay32:ec_mult.obj
 0002:00017498       ??_C@_09FLJPBFIA@ECDSA_SIG?$AA@ 0007e498     libeay32:ecs_asn1.obj
 0002:000174a4       ??_C@_0BF@DJKLHCAL@OpenSSL?5ECDSA?5method?$AA@ 0007e4a4     libeay32:ecs_ossl.obj
 0002:000174c0       ??_C@_0FA@PJGMNPFB@d?3?2wm653wehh?2platform?2mvv210?2src@ 0007e4c0     libeay32:ecs_ossl.obj
 0002:00017514       ECDH_version               0007e514     libeay32:ech_lib.obj
 0002:00017540       ??_C@_0EO@JGKBLENE@d?3?2wm653wehh?2platform?2mvv210?2src@ 0007e540     libeay32:ech_lib.obj
 0002:00017590       ??_C@_0EM@GFDFNKJ@d?3?2wm653wehh?2platform?2mvv210?2src@ 0007e590     libeay32:bn_rand.obj
 0002:00017614       ??_C@_06CHOIGJDB@BIGNUM?$AA@ 0007e614     libeay32:x_bignum.obj
 0002:00017654       ??_C@_05HIGAPBOG@ZLONG?$AA@ 0007e654     libeay32:x_long.obj
 0002:0001765c       ??_C@_04KCJFIMMJ@LONG?$AA@ 0007e65c     libeay32:x_long.obj
 0002:00017668       ??_C@_0EN@OBFIOJLM@d?3?2wm653wehh?2platform?2mvv210?2src@ 0007e668     libeay32:x_long.obj
 0002:000176b8       ??_C@_04PEDNGLFL@?$CFld?6?$AA@ 0007e6b8     libeay32:x_long.obj
 0002:000176c0       ??_C@_0EM@KNGHBEEM@d?3?2wm653wehh?2platform?2mvv210?2src@ 0007e6c0     libeay32:a_dup.obj
 0002:00017710       ??_C@_0EO@PHDJAHKO@d?3?2wm653wehh?2platform?2mvv210?2src@ 0007e710     libeay32:dsa_sign.obj
 0002:00017760       ??_C@_0BD@IBKHKBJA@OpenSSL?5DSA?5method?$AA@ 0007e760     libeay32:dsa_ossl.obj
 0002:00017778       ??_C@_0EO@MKGDCJCA@d?3?2wm653wehh?2platform?2mvv210?2src@ 0007e778     libeay32:dsa_ossl.obj
 0002:000177d0       ??_C@_0EL@MKGMFIIF@d?3?2wm653wehh?2platform?2mvv210?2src@ 0007e7d0     libeay32:bn_exp.obj
 0002:00017820       ??_C@_0EM@PNNGIHGB@d?3?2wm653wehh?2platform?2mvv210?2src@ 0007e820     libeay32:bn_mont.obj
 0002:00017870       ??_C@_0EL@HJNLGKMO@d?3?2wm653wehh?2platform?2mvv210?2src@ 0007e870     libeay32:bn_div.obj
 0002:000188c8       ??_C@_0EO@FBMJEFIA@d?3?2wm653wehh?2platform?2mvv210?2src@ 0007f8c8     libeay32:rsa_oaep.obj
 0002:0001895c       ??_C@_08DFMPDBMK@X509_SIG?$AA@ 0007f95c     libeay32:x_sig.obj
 0002:00018968       ??_C@_05CJCEEADM@algor?$AA@ 0007f968     libeay32:x_sig.obj
 0002:00018970       SHA1_version               0007f970     libeay32:sha1dgst.obj
 0002:00018998       SHA256_version             0007f998     libeay32:sha256.obj
 0002:00018ac8       SHA512_version             0007fac8     libeay32:sha512.obj
 0002:00019b54       ??_C@_0M@GJHAMFIP@CMS_Receipt?$AA@ 00080b54     libeay32:cms_asn1.obj
 0002:00019b60       ??_C@_0BJ@OPFDHHHB@originatorSignatureValue?$AA@ 00080b60     libeay32:cms_asn1.obj
 0002:00019b7c       ??_C@_0BD@KOFKAGLC@CMS_ReceiptRequest?$AA@ 00080b7c     libeay32:cms_asn1.obj
 0002:00019b90       ??_C@_0L@BBBJMFCF@receiptsTo?$AA@ 00080b90     libeay32:cms_asn1.obj
 0002:00019b9c       ??_C@_0N@CIHGCFJG@receiptsFrom?$AA@ 00080b9c     libeay32:cms_asn1.obj
 0002:00019bac       ??_C@_0BI@BHIBPADG@signedContentIdentifier?$AA@ 00080bac     libeay32:cms_asn1.obj
 0002:00019bc4       ??_C@_0BB@JKAAKCKP@CMS_ReceiptsFrom?$AA@ 00080bc4     libeay32:cms_asn1.obj
 0002:00019bd8       ??_C@_0O@ECMNNMJA@d?4receiptList?$AA@ 00080bd8     libeay32:cms_asn1.obj
 0002:00019be8       ??_C@_0BB@DENHEDOF@d?4allOrFirstTier?$AA@ 00080be8     libeay32:cms_asn1.obj
 0002:00019bfc       ??_C@_0BG@NLALJKHJ@CMS_Attributes_Verify?$AA@ 00080bfc     libeay32:cms_asn1.obj
 0002:00019c14       ??_C@_0BE@PAHMALPK@CMS_Attributes_Sign?$AA@ 00080c14     libeay32:cms_asn1.obj
 0002:00019c28       ??_C@_0P@KAJKPCJH@CMS_ATTRIBUTES?$AA@ 00080c28     libeay32:cms_asn1.obj
 0002:00019c38       ??_C@_0BA@ECDDPOHH@CMS_ContentInfo?$AA@ 00080c38     libeay32:cms_asn1.obj
 0002:00019c48       ??_C@_0BB@NELCELCK@d?4compressedData?$AA@ 00080c48     libeay32:cms_asn1.obj
 0002:00019c5c       ??_C@_0BE@NPCJHPOJ@d?4authenticatedData?$AA@ 00080c5c     libeay32:cms_asn1.obj
 0002:00019c70       ??_C@_0BA@HJCBJEH@d?4encryptedData?$AA@ 00080c70     libeay32:cms_asn1.obj
 0002:00019c80       ??_C@_0P@HJCJOBOP@d?4digestedData?$AA@ 00080c80     libeay32:cms_asn1.obj
 0002:00019c90       ??_C@_0BA@CCFAJLBF@d?4envelopedData?$AA@ 00080c90     libeay32:cms_asn1.obj
 0002:00019ca0       ??_C@_0N@DDIMJOHE@d?4signedData?$AA@ 00080ca0     libeay32:cms_asn1.obj
 0002:00019cb0       ??_C@_06OAPKPHLA@d?4data?$AA@ 00080cb0     libeay32:cms_asn1.obj
 0002:00019cb8       ??_C@_0BD@IAIGGNCI@CMS_CompressedData?$AA@ 00080cb8     libeay32:cms_asn1.obj
 0002:00019ccc       ??_C@_0BF@PNIPCJJ@compressionAlgorithm?$AA@ 00080ccc     libeay32:cms_asn1.obj
 0002:00019ce4       ??_C@_0BG@DOMHNMEC@CMS_AuthenticatedData?$AA@ 00080ce4     libeay32:cms_asn1.obj
 0002:00019cfc       ??_C@_0M@FBFPDIHA@unauthAttrs?$AA@ 00080cfc     libeay32:cms_asn1.obj
 0002:00019d08       ??_C@_03BADCJGEO@mac?$AA@  00080d08     libeay32:cms_asn1.obj
 0002:00019d0c       ??_C@_09HHELNNLD@authAttrs?$AA@ 00080d0c     libeay32:cms_asn1.obj
 0002:00019d18       ??_C@_0N@PGIFJMM@macAlgorithm?$AA@ 00080d18     libeay32:cms_asn1.obj
 0002:00019d28       ??_C@_0BC@ONODDCLB@CMS_EncryptedData?$AA@ 00080d28     libeay32:cms_asn1.obj
 0002:00019d3c       ??_C@_0BB@NNEFCOGL@CMS_DigestedData?$AA@ 00080d3c     libeay32:cms_asn1.obj
 0002:00019d50       ??_C@_0BC@MICBLAOD@CMS_EnvelopedData?$AA@ 00080d50     libeay32:cms_asn1.obj
 0002:00019d64       ??_C@_0BB@JCNJKAMK@unprotectedAttrs?$AA@ 00080d64     libeay32:cms_asn1.obj
 0002:00019d78       ??_C@_0BF@OHLPJHAO@encryptedContentInfo?$AA@ 00080d78     libeay32:cms_asn1.obj
 0002:00019d90       ??_C@_0P@MHKJPFAE@recipientInfos?$AA@ 00080d90     libeay32:cms_asn1.obj
 0002:00019da0       ??_C@_0P@HMLDCEHI@originatorInfo?$AA@ 00080da0     libeay32:cms_asn1.obj
 0002:00019db0       ??_C@_0BC@OIOGGOHC@CMS_RecipientInfo?$AA@ 00080db0     libeay32:cms_asn1.obj
 0002:00019dc4       ??_C@_05CDKGAJPA@d?4ori?$AA@ 00080dc4     libeay32:cms_asn1.obj
 0002:00019dcc       ??_C@_06MMLMDIAL@d?4pwri?$AA@ 00080dcc     libeay32:cms_asn1.obj
 0002:00019dd4       ??_C@_07GNHCNHGA@d?4kekri?$AA@ 00080dd4     libeay32:cms_asn1.obj
 0002:00019ddc       ??_C@_06KOPOJGNL@d?4kari?$AA@ 00080ddc     libeay32:cms_asn1.obj
 0002:00019de4       ??_C@_06MJDJDBHG@d?4ktri?$AA@ 00080de4     libeay32:cms_asn1.obj
 0002:00019dec       ??_C@_0BH@ELFPNLNE@CMS_OtherRecipientInfo?$AA@ 00080dec     libeay32:cms_asn1.obj
 0002:00019e04       ??_C@_08CPLCPCAK@oriValue?$AA@ 00080e04     libeay32:cms_asn1.obj
 0002:00019e10       ??_C@_07FAMFHMLO@oriType?$AA@ 00080e10     libeay32:cms_asn1.obj
 0002:00019e18       ??_C@_0BK@KBPCOALF@CMS_PasswordRecipientInfo?$AA@ 00080e18     libeay32:cms_asn1.obj
 0002:00019e34       ??_C@_0BH@OGDBOKG@keyDerivationAlgorithm?$AA@ 00080e34     libeay32:cms_asn1.obj
 0002:00019e4c       ??_C@_0BF@NBHFGDNK@CMS_KEKRecipientInfo?$AA@ 00080e4c     libeay32:cms_asn1.obj
 0002:00019e64       ??_C@_05NHGMHHPG@kekid?$AA@ 00080e64     libeay32:cms_asn1.obj
 0002:00019e6c       ??_C@_0BC@MBEMIKEG@CMS_KEKIdentifier?$AA@ 00080e6c     libeay32:cms_asn1.obj
 0002:00019e80       ??_C@_0O@NFJHJHKH@keyIdentifier?$AA@ 00080e80     libeay32:cms_asn1.obj
 0002:00019e90       ??_C@_0BK@FMJLFKK@CMS_KeyAgreeRecipientInfo?$AA@ 00080e90     libeay32:cms_asn1.obj
 0002:00019eac       ??_C@_0BH@PJIHPFGD@recipientEncryptedKeys?$AA@ 00080eac     libeay32:cms_asn1.obj
 0002:00019ec4       ??_C@_03BGILEBGG@ukm?$AA@  00080ec4     libeay32:cms_asn1.obj
 0002:00019ec8       ??_C@_0L@LNFLHOFG@originator?$AA@ 00080ec8     libeay32:cms_asn1.obj
 0002:00019ed4       ??_C@_0BO@EGGGKLC@CMS_OriginatorIdentifierOrKey?$AA@ 00080ed4     libeay32:cms_asn1.obj
 0002:00019ef4       ??_C@_0BA@GMAGEPIK@d?4originatorKey?$AA@ 00080ef4     libeay32:cms_asn1.obj
 0002:00019f04       ??_C@_0BI@BANGJHOF@CMS_OriginatorPublicKey?$AA@ 00080f04     libeay32:cms_asn1.obj
 0002:00019f1c       ??_C@_09IDENFCJL@publicKey?$AA@ 00080f1c     libeay32:cms_asn1.obj
 0002:00019f28       ??_C@_0BK@PEPAIBDP@CMS_RecipientEncryptedKey?$AA@ 00080f28     libeay32:cms_asn1.obj
 0002:00019f44       ??_C@_0CA@LLLOPIGI@CMS_KeyAgreeRecipientIdentifier?$AA@ 00080f44     libeay32:cms_asn1.obj
 0002:00019f64       ??_C@_08NDNCHPPH@d?4rKeyId?$AA@ 00080f64     libeay32:cms_asn1.obj
 0002:00019f70       ??_C@_0BL@KIFNEPBG@CMS_RecipientKeyIdentifier?$AA@ 00080f70     libeay32:cms_asn1.obj
 0002:00019f8c       ??_C@_05BGEKGIIP@other?$AA@ 00080f8c     libeay32:cms_asn1.obj
 0002:00019f94       ??_C@_04JNIHBGGH@date?$AA@ 00080f94     libeay32:cms_asn1.obj
 0002:00019f9c       ??_C@_0BG@MPKMCLOF@CMS_OtherKeyAttribute?$AA@ 00080f9c     libeay32:cms_asn1.obj
 0002:00019fb4       ??_C@_07CNMADOPK@keyAttr?$AA@ 00080fb4     libeay32:cms_asn1.obj
 0002:00019fbc       ??_C@_09FBOICBLA@keyAttrId?$AA@ 00080fbc     libeay32:cms_asn1.obj
 0002:00019fc8       ??_C@_0BK@JKNAJMBM@CMS_KeyTransRecipientInfo?$AA@ 00080fc8     libeay32:cms_asn1.obj
 0002:00019fe4       ??_C@_0N@DJLGIBLA@encryptedKey?$AA@ 00080fe4     libeay32:cms_asn1.obj
 0002:00019ff4       ??_C@_0BH@NBKKPKMP@keyEncryptionAlgorithm?$AA@ 00080ff4     libeay32:cms_asn1.obj
 0002:0001a00c       ??_C@_03FJBKBGPI@rid?$AA@  0008100c     libeay32:cms_asn1.obj
 0002:0001a010       ??_C@_0BJ@IHPALOIM@CMS_EncryptedContentInfo?$AA@ 00081010     libeay32:cms_asn1.obj
 0002:0001a02c       ??_C@_0BB@HAOJNDCF@encryptedContent?$AA@ 0008102c     libeay32:cms_asn1.obj
 0002:0001a040       ??_C@_0BL@JFGGCGJK@contentEncryptionAlgorithm?$AA@ 00081040     libeay32:cms_asn1.obj
 0002:0001a05c       ??_C@_0BD@BOLANDH@CMS_OriginatorInfo?$AA@ 0008105c     libeay32:cms_asn1.obj
 0002:0001a070       ??_C@_0P@IFJHOEIE@CMS_SignedData?$AA@ 00081070     libeay32:cms_asn1.obj
 0002:0001a080       ??_C@_0M@OPIAHELE@signerInfos?$AA@ 00081080     libeay32:cms_asn1.obj
 0002:0001a08c       ??_C@_04GDKGHFBJ@crls?$AA@ 0008108c     libeay32:cms_asn1.obj
 0002:0001a094       ??_C@_0N@NGKEHKOM@certificates?$AA@ 00081094     libeay32:cms_asn1.obj
 0002:0001a0a4       ??_C@_0BB@EFFJPOAL@encapContentInfo?$AA@ 000810a4     libeay32:cms_asn1.obj
 0002:0001a0b8       ??_C@_0BB@CMPBPEDI@digestAlgorithms?$AA@ 000810b8     libeay32:cms_asn1.obj
 0002:0001a0cc       ??_C@_0BJ@MJACOINL@CMS_RevocationInfoChoice?$AA@ 000810cc     libeay32:cms_asn1.obj
 0002:0001a0e8       ??_C@_05BEAHECAN@d?4crl?$AA@ 000810e8     libeay32:cms_asn1.obj
 0002:0001a0f0       ??_C@_0BO@ONAFHMMC@CMS_OtherRevocationInfoFormat?$AA@ 000810f0     libeay32:cms_asn1.obj
 0002:0001a110       ??_C@_0N@MOBLFMFA@otherRevInfo?$AA@ 00081110     libeay32:cms_asn1.obj
 0002:0001a120       ??_C@_0BD@HLCFDNLB@otherRevInfoFormat?$AA@ 00081120     libeay32:cms_asn1.obj
 0002:0001a134       ??_C@_0P@HBMKILHF@CMS_SignerInfo?$AA@ 00081134     libeay32:cms_asn1.obj
 0002:0001a144       ??_C@_0O@PDNEMLFH@unsignedAttrs?$AA@ 00081144     libeay32:cms_asn1.obj
 0002:0001a154       ??_C@_09CMIIOJHF@signature?$AA@ 00081154     libeay32:cms_asn1.obj
 0002:0001a160       ??_C@_0BD@CBMBFDMH@signatureAlgorithm?$AA@ 00081160     libeay32:cms_asn1.obj
 0002:0001a174       ??_C@_0M@MDGDHPDJ@signedAttrs?$AA@ 00081174     libeay32:cms_asn1.obj
 0002:0001a180       ??_C@_0BA@OBGGJDDI@digestAlgorithm?$AA@ 00081180     libeay32:cms_asn1.obj
 0002:0001a190       ??_C@_03OBKGHBJN@sid?$AA@  00081190     libeay32:cms_asn1.obj
 0002:0001a194       ??_C@_0BM@FGCJFMKP@CMS_EncapsulatedContentInfo?$AA@ 00081194     libeay32:cms_asn1.obj
 0002:0001a1b0       ??_C@_08OOKAKDHE@eContent?$AA@ 000811b0     libeay32:cms_asn1.obj
 0002:0001a1bc       ??_C@_0N@EBAJNGML@eContentType?$AA@ 000811bc     libeay32:cms_asn1.obj
 0002:0001a1cc       ??_C@_0BF@HIKDPBH@CMS_SignerIdentifier?$AA@ 000811cc     libeay32:cms_asn1.obj
 0002:0001a1e4       ??_C@_0BH@LJLJDHKP@d?4subjectKeyIdentifier?$AA@ 000811e4     libeay32:cms_asn1.obj
 0002:0001a1fc       ??_C@_0BI@DNGDMGHK@d?4issuerAndSerialNumber?$AA@ 000811fc     libeay32:cms_asn1.obj
 0002:0001a214       ??_C@_0BH@CFNIJMB@CMS_CertificateChoices?$AA@ 00081214     libeay32:cms_asn1.obj
 0002:0001a22c       ??_C@_07JIJPKMF@d?4other?$AA@ 0008122c     libeay32:cms_asn1.obj
 0002:0001a234       ??_C@_0N@FODDOFO@d?4v2AttrCert?$AA@ 00081234     libeay32:cms_asn1.obj
 0002:0001a244       ??_C@_0N@OONEIFFN@d?4v1AttrCert?$AA@ 00081244     libeay32:cms_asn1.obj
 0002:0001a254       ??_C@_0BG@NLAONGA@d?4extendedCertificate?$AA@ 00081254     libeay32:cms_asn1.obj
 0002:0001a26c       ??_C@_0O@MNFCNMPJ@d?4certificate?$AA@ 0008126c     libeay32:cms_asn1.obj
 0002:0001a27c       ??_C@_0BL@CACJFKMB@CMS_OtherCertificateFormat?$AA@ 0008127c     libeay32:cms_asn1.obj
 0002:0001a298       ??_C@_09CDBALEP@otherCert?$AA@ 00081298     libeay32:cms_asn1.obj
 0002:0001a2a4       ??_C@_0BA@FEKMLOFK@otherCertFormat?$AA@ 000812a4     libeay32:cms_asn1.obj
 0002:0001a2b4       ??_C@_0BK@GLMHLHML@CMS_IssuerAndSerialNumber?$AA@ 000812b4     libeay32:cms_asn1.obj
 0002:0001a2d0       ??_C@_06EAINIONG@issuer?$AA@ 000812d0     libeay32:cms_asn1.obj
 0002:0001a2d8       ??_C@_0EN@MLHPIIH@d?3?2wm653wehh?2platform?2mvv210?2src@ 000812d8     libeay32:cms_lib.obj
 0002:0001a328       ??_C@_0EN@CBCEBCDK@d?3?2wm653wehh?2platform?2mvv210?2src@ 00081328     libeay32:cms_enc.obj
 0002:0001a378       ??_C@_0EM@PJNFBCEL@d?3?2wm653wehh?2platform?2mvv210?2src@ 00081378     libeay32:cms_sd.obj
 0002:0001a3f0       ??_C@_0O@MABGKINF@timestampsign?$AA@ 000813f0     libeay32:v3_purp.obj
 0002:0001a400       ??_C@_0BD@HLGKGIIB@Time?5Stamp?5signing?$AA@ 00081400     libeay32:v3_purp.obj
 0002:0001a414       ??_C@_0L@IMHCEJBK@ocsphelper?$AA@ 00081414     libeay32:v3_purp.obj
 0002:0001a420       ??_C@_0M@NEPIMEJA@OCSP?5helper?$AA@ 00081420     libeay32:v3_purp.obj
 0002:0001a42c       ??_C@_03OBJFJEBA@any?$AA@  0008142c     libeay32:v3_purp.obj
 0002:0001a430       ??_C@_0M@NMNFLNDB@Any?5Purpose?$AA@ 00081430     libeay32:v3_purp.obj
 0002:0001a43c       ??_C@_07IOMCDAPH@crlsign?$AA@ 0008143c     libeay32:v3_purp.obj
 0002:0001a444       ??_C@_0M@MEKLJHLA@CRL?5signing?$AA@ 00081444     libeay32:v3_purp.obj
 0002:0001a450       ??_C@_0N@BPFJELMP@smimeencrypt?$AA@ 00081450     libeay32:v3_purp.obj
 0002:0001a460       ??_C@_0BC@DOGNOPGC@S?1MIME?5encryption?$AA@ 00081460     libeay32:v3_purp.obj
 0002:0001a474       ??_C@_09JPGBHOKH@smimesign?$AA@ 00081474     libeay32:v3_purp.obj
 0002:0001a480       ??_C@_0P@LNDEBCCO@S?1MIME?5signing?$AA@ 00081480     libeay32:v3_purp.obj
 0002:0001a490       ??_C@_0M@GKHHMMAE@nssslserver?$AA@ 00081490     libeay32:v3_purp.obj
 0002:0001a49c       ??_C@_0BE@BPEJPGJG@Netscape?5SSL?5server?$AA@ 0008149c     libeay32:v3_purp.obj
 0002:0001a4b0       ??_C@_09FEILOJPJ@sslserver?$AA@ 000814b0     libeay32:v3_purp.obj
 0002:0001a4bc       ??_C@_0L@PNDNFADH@SSL?5server?$AA@ 000814bc     libeay32:v3_purp.obj
 0002:0001a4c8       ??_C@_09BLMJDCHK@sslclient?$AA@ 000814c8     libeay32:v3_purp.obj
 0002:0001a4d4       ??_C@_0L@LCHPILLE@SSL?5client?$AA@ 000814d4     libeay32:v3_purp.obj
 0002:0001a4e0       ??_C@_0FA@EPMAEJOB@d?3?2wm653wehh?2platform?2mvv210?2src@ 000814e0     libeay32:v3_purp.obj
 0002:0001a530       ??_C@_0EO@PHNCOBFO@d?3?2wm653wehh?2platform?2mvv210?2src@ 00081530     libeay32:pmeth_fn.obj
 0002:0001a588       AES_version                00081588     libeay32:aes_misc.obj
 0002:0001a5b0       ??_C@_0EO@LKMDOFNL@d?3?2wm653wehh?2platform?2mvv210?2src@ 000815b0     libeay32:cms_pwri.obj
 0002:0001a600       ??_C@_0BI@NFPKAKEA@Eric?5Young?8s?5PKCS?$CD1?5RSA?$AA@ 00081600     libeay32:rsa_eay.obj
 0002:0001a618       ??_C@_0EN@FLFPHDGA@d?3?2wm653wehh?2platform?2mvv210?2src@ 00081618     libeay32:rsa_eay.obj
 0002:0001a670       cmac_asn1_meth             00081670     libeay32:cm_ameth.obj
 0002:0001a6dc       ??_C@_0BE@GBIGMENL@OpenSSL?5CMAC?5method?$AA@ 000816dc     libeay32:cm_ameth.obj
 0002:0001a6f0       hmac_asn1_meth             000816f0     libeay32:hm_ameth.obj
 0002:0001a75c       ??_C@_0BE@BABEGANF@OpenSSL?5HMAC?5method?$AA@ 0008175c     libeay32:hm_ameth.obj
 0002:0001a770       ??_C@_0EP@LPMJCFIA@d?3?2wm653wehh?2platform?2mvv210?2src@ 00081770     libeay32:hm_ameth.obj
 0002:0001a7c0       eckey_asn1_meth            000817c0     libeay32:ec_ameth.obj
 0002:0001a82c       ??_C@_0BF@DKDIFOGG@OpenSSL?5EC?5algorithm?$AA@ 0008182c     libeay32:ec_ameth.obj
 0002:0001a844       ??_C@_02KNLLHFAA@EC?$AA@   00081844     libeay32:ec_ameth.obj
 0002:0001a848       ??_C@_0EN@OGHGAGHH@d?3?2wm653wehh?2platform?2mvv210?2src@ 00081848     libeay32:ec_ameth.obj
 0002:0001a898       ??_C@_05FJHKEHEO@pub?3?5?$AA@ 00081898     libeay32:ec_ameth.obj
 0002:0001a8a0       ??_C@_05PFPGJCCA@priv?3?$AA@ 000818a0     libeay32:ec_ameth.obj
 0002:0001a8a8       ??_C@_0O@OPPPNLCD@?$CFs?3?5?$CI?$CFd?5bit?$CJ?6?$AA@ 000818a8     libeay32:ec_ameth.obj
 0002:0001a8b8       ??_C@_0BB@DMDKLH@ECDSA?9Parameters?$AA@ 000818b8     libeay32:ec_ameth.obj
 0002:0001a8cc       ??_C@_0L@FMJMEKAC@Public?9Key?$AA@ 000818cc     libeay32:ec_ameth.obj
 0002:0001a8d8       ??_C@_0M@CJKOCIEC@Private?9Key?$AA@ 000818d8     libeay32:ec_ameth.obj
 0002:0001a8e8       dsa_asn1_meths             000818e8     libeay32:dsa_ameth.obj
 0002:0001ab08       ??_C@_0EP@BEDNKKJD@d?3?2wm653wehh?2platform?2mvv210?2src@ 00081b08     libeay32:dsa_ameth.obj
 0002:0001ab58       ??_C@_05LKAKAJND@G?3?5?5?5?$AA@ 00081b58     libeay32:dsa_ameth.obj
 0002:0001ab60       ??_C@_05GPIFOIFF@Q?3?5?5?5?$AA@ 00081b60     libeay32:dsa_ameth.obj
 0002:0001ab68       ??_C@_05KENJDLPA@P?3?5?5?5?$AA@ 00081b68     libeay32:dsa_ameth.obj
 0002:0001ab70       ??_C@_0P@LAFOADJN@DSA?9Parameters?$AA@ 00081b70     libeay32:dsa_ameth.obj
 0002:0001ab80       ??_C@_05CFOBEMGI@s?3?5?5?5?$AA@ 00081b80     libeay32:dsa_ameth.obj
 0002:0001ab88       ??_C@_05OOLNJPMN@r?3?5?5?5?$AA@ 00081b88     libeay32:dsa_ameth.obj
 0002:0001ab90       ??_C@_01EEMJAFIK@?6?$AA@   00081b90     libeay32:dsa_ameth.obj
 0002:0001ab98       dh_asn1_meth               00081b98     libeay32:dh_ameth.obj
 0002:0001ac04       ??_C@_0BJ@OPGBMMOB@OpenSSL?5PKCS?$CD3?5DH?5method?$AA@ 00081c04     libeay32:dh_ameth.obj
 0002:0001ac20       ??_C@_02EPINMGPM@DH?$AA@   00081c20     libeay32:dh_ameth.obj
 0002:0001ac28       ??_C@_0EN@KFNOHMJF@d?3?2wm653wehh?2platform?2mvv210?2src@ 00081c28     libeay32:dh_ameth.obj
 0002:0001ac78       ??_C@_0CF@KKPEILHE@recommended?9private?9length?3?5?$CFd?5b@ 00081c78     libeay32:dh_ameth.obj
 0002:0001aca0       ??_C@_0L@HDGHCIJF@generator?3?$AA@ 00081ca0     libeay32:dh_ameth.obj
 0002:0001acac       ??_C@_06POMKLBDA@prime?3?$AA@ 00081cac     libeay32:dh_ameth.obj
 0002:0001acb4       ??_C@_0M@BCALNHOD@public?9key?3?$AA@ 00081cb4     libeay32:dh_ameth.obj
 0002:0001acc0       ??_C@_0N@MPONDEBM@private?9key?3?$AA@ 00081cc0     libeay32:dh_ameth.obj
 0002:0001acd0       ??_C@_0BF@HJBOBPFM@PKCS?$CD3?5DH?5Parameters?$AA@ 00081cd0     libeay32:dh_ameth.obj
 0002:0001ace8       ??_C@_0BF@NEOAIGKI@PKCS?$CD3?5DH?5Public?9Key?$AA@ 00081ce8     libeay32:dh_ameth.obj
 0002:0001ad00       ??_C@_0BG@BPCFBOHI@PKCS?$CD3?5DH?5Private?9Key?$AA@ 00081d00     libeay32:dh_ameth.obj
 0002:0001ad18       rsa_asn1_meths             00081d18     libeay32:rsa_ameth.obj
 0002:0001adf0       ??_C@_0BD@MHOEKPBI@OpenSSL?5RSA?5method?$AA@ 00081df0     libeay32:rsa_ameth.obj
 0002:0001ae08       ??_C@_0EP@ECKOLFPF@d?3?2wm653wehh?2platform?2mvv210?2src@ 00081e08     libeay32:rsa_ameth.obj
 0002:0001ae58       ??_C@_0N@GNAMJPHF@coefficient?3?$AA@ 00081e58     libeay32:rsa_ameth.obj
 0002:0001ae68       ??_C@_0L@OKKEHIPG@exponent2?3?$AA@ 00081e68     libeay32:rsa_ameth.obj
 0002:0001ae74       ??_C@_0L@OIOCMGKP@exponent1?3?$AA@ 00081e74     libeay32:rsa_ameth.obj
 0002:0001ae80       ??_C@_07NJNHFNM@prime2?3?$AA@ 00081e80     libeay32:rsa_ameth.obj
 0002:0001ae88       ??_C@_07PNLMLIF@prime1?3?$AA@ 00081e88     libeay32:rsa_ameth.obj
 0002:0001ae90       ??_C@_0BB@NFOLHHHJ@privateExponent?3?$AA@ 00081e90     libeay32:rsa_ameth.obj
 0002:0001aea4       ??_C@_08GIMLILAA@Modulus?3?$AA@ 00081ea4     libeay32:rsa_ameth.obj
 0002:0001aeb0       ??_C@_09DALHJPOO@Exponent?3?$AA@ 00081eb0     libeay32:rsa_ameth.obj
 0002:0001aebc       ??_C@_0BG@HAJOCCOP@Public?9Key?3?5?$CI?$CFd?5bit?$CJ?6?$AA@ 00081ebc     libeay32:rsa_ameth.obj
 0002:0001aed4       ??_C@_08OKDKAJKD@modulus?3?$AA@ 00081ed4     libeay32:rsa_ameth.obj
 0002:0001aee0       ??_C@_0BA@FAAMOFHC@publicExponent?3?$AA@ 00081ee0     libeay32:rsa_ameth.obj
 0002:0001aef0       ??_C@_0BH@JHLDJION@Private?9Key?3?5?$CI?$CFd?5bit?$CJ?6?$AA@ 00081ef0     libeay32:rsa_ameth.obj
 0002:0001af08       ??_C@_0P@DDPOEOJA@0xbc?5?$CIdefault?$CJ?$AA@ 00081f08     libeay32:rsa_ameth.obj
 0002:0001af18       ??_C@_0BA@LIMPMLCB@Trailer?5Field?3?5?$AA@ 00081f18     libeay32:rsa_ameth.obj
 0002:0001af28       ??_C@_0N@LMKHLINK@20?5?$CIdefault?$CJ?$AA@ 00081f28     libeay32:rsa_ameth.obj
 0002:0001af38       ??_C@_0O@KKNIODBM@Salt?5Length?3?5?$AA@ 00081f38     libeay32:rsa_ameth.obj
 0002:0001af48       ??_C@_0BJ@NNFOENLD@mgf1?5with?5sha1?5?$CIdefault?$CJ?$AA@ 00081f48     libeay32:rsa_ameth.obj
 0002:0001af64       ??_C@_07DNODLGKM@INVALID?$AA@ 00081f64     libeay32:rsa_ameth.obj
 0002:0001af6c       ??_C@_06BIDGLIKJ@?5with?5?$AA@ 00081f6c     libeay32:rsa_ameth.obj
 0002:0001af74       ??_C@_0BB@HEAMLCPA@Mask?5Algorithm?3?5?$AA@ 00081f74     libeay32:rsa_ameth.obj
 0002:0001af88       ??_C@_0P@ODEAMLKF@sha1?5?$CIdefault?$CJ?$AA@ 00081f88     libeay32:rsa_ameth.obj
 0002:0001af98       ??_C@_0BB@PMMDHLKH@Hash?5Algorithm?3?5?$AA@ 00081f98     libeay32:rsa_ameth.obj
 0002:0001afac       ??_C@_0BL@KMBKPBGM@?5?$CIINVALID?5PSS?5PARAMETERS?$CJ?6?$AA@ 00081fac     libeay32:rsa_ameth.obj
 0002:0001afc8       ??_C@_0BF@JMOFLBJO@keylen?5?$DM?$DN?5sizeof?5key?$AA@ 00081fc8     libeay32:p5_crpt2.obj
 0002:0001afe0       ??_C@_0EO@DONPFFAH@d?3?2wm653wehh?2platform?2mvv210?2src@ 00081fe0     libeay32:p5_crpt2.obj
 0002:0001b030       ??_C@_0FB@IJLBCKEP@d?3?2wm653wehh?2platform?2mvv210?2src@ 00082030     libeay32:p12_crpt.obj
 0002:0001b084       ??_C@_0CD@HMFJNEFL@EVP_CIPHER_iv_length?$CIcipher?$CJ?5?$DM?$DN?5@ 00082084     libeay32:p5_crpt.obj
 0002:0001b0a8       ??_C@_0DF@FHOHFFEB@EVP_CIPHER_key_length?$CIcipher?$CJ?5?$DM?$DN@ 000820a8     libeay32:p5_crpt.obj
 0002:0001b0e0       ??_C@_0EN@DFHCIHFJ@d?3?2wm653wehh?2platform?2mvv210?2src@ 000820e0     libeay32:p5_crpt.obj
 0002:0001b130       RAND_version               00082130     libeay32:md_rand.obj
 0002:0001b158       ??_C@_0EO@OKPIHEJM@d?3?2wm653wehh?2platform?2mvv210?2src@ 00082158     libeay32:md_rand.obj
 0002:0001b1a8       ??_C@_0EK@MHBHPLPP@You?5need?5to?5read?5the?5OpenSSL?5FAQ@ 000821a8     libeay32:md_rand.obj
 0002:0001b1f4       ??_C@_0BF@KNMHCCP@?4?4?4?4?4?4?4?4?4?4?4?4?4?4?4?4?4?4?4?4?$AA@ 000821f4     libeay32:md_rand.obj
 0002:0001b210       ??_C@_0EP@DLKDJLKC@d?3?2wm653wehh?2platform?2mvv210?2src@ 00082210     libeay32:buffer.obj
 0002:0001b260       ??_C@_0EL@CLIEFBLC@d?3?2wm653wehh?2platform?2mvv210?2src@ 00082260     libeay32:bn_mod.obj
 0002:0001b2b0       ??_C@_0EP@PHFMEFHI@d?3?2wm653wehh?2platform?2mvv210?2src@ 000822b0     libeay32:a_bitstr.obj
 0002:0001b300       ??_C@_0EP@EEJMGOIG@d?3?2wm653wehh?2platform?2mvv210?2src@ 00082300     libeay32:tasn_utl.obj
 0002:0001b350       ??_C@_0FC@NLMGEGGH@d?3?2wm653wehh?2platform?2mvv210?2src@ 00082350     libeay32:tb_cipher.obj
 0002:0001b3e8       x509_name_ff               000823e8     libeay32:x_name.obj
 0002:0001b480       ??_C@_09KGNJKBNF@X509_NAME?$AA@ 00082480     libeay32:x_name.obj
 0002:0001b48c       ??_C@_0BD@FDNDONGH@X509_NAME_INTERNAL?$AA@ 0008248c     libeay32:x_name.obj
 0002:0001b4a0       ??_C@_04FABLJDN@Name?$AA@  000824a0     libeay32:x_name.obj
 0002:0001b4a8       ??_C@_0BC@GJMCELDI@X509_NAME_ENTRIES?$AA@ 000824a8     libeay32:x_name.obj
 0002:0001b4bc       ??_C@_04IEOKPFHO@RDNS?$AA@ 000824bc     libeay32:x_name.obj
 0002:0001b4c4       ??_C@_0BA@KEPIIMOE@X509_NAME_ENTRY?$AA@ 000824c4     libeay32:x_name.obj
 0002:0001b4d8       ??_C@_0EN@KBGECLLO@d?3?2wm653wehh?2platform?2mvv210?2src@ 000824d8     libeay32:x_name.obj
 0002:0001b6a4       ??_C@_07DLHCIBDH@default?$AA@ 000826a4     libeay32:a_strnid.obj
 0002:0001b6b0       v3_alt                     000826b0     libeay32:v3_alt.obj
 0002:0001b758       ??_C@_0O@KAIENCPE@Registered?5ID?$AA@ 00082758     libeay32:v3_alt.obj
 0002:0001b768       ??_C@_09DPMBDOD@?$DMinvalid?$DO?$AA@ 00082768     libeay32:v3_alt.obj
 0002:0001b774       ??_C@_0L@NGHMMCPJ@IP?5Address?$AA@ 00082774     libeay32:v3_alt.obj
 0002:0001b780       ??_C@_01JLIPDDHJ@?3?$AA@   00082780     libeay32:v3_alt.obj
 0002:0001b784       ??_C@_02EMFKHFLK@?$CFX?$AA@ 00082784     libeay32:v3_alt.obj
 0002:0001b788       ??_C@_07FDBCPIKC@DirName?$AA@ 00082788     libeay32:v3_alt.obj
 0002:0001b790       ??_C@_03GMOLNBOB@URI?$AA@  00082790     libeay32:v3_alt.obj
 0002:0001b794       ??_C@_03CBFPEBNE@DNS?$AA@  00082794     libeay32:v3_alt.obj
 0002:0001b798       ??_C@_05HKHCDHCL@email?$AA@ 00082798     libeay32:v3_alt.obj
 0002:0001b7a0       ??_C@_0N@EEELPIKD@EdiPartyName?$AA@ 000827a0     libeay32:v3_alt.obj
 0002:0001b7b0       ??_C@_08EBDOEGJI@X400Name?$AA@ 000827b0     libeay32:v3_alt.obj
 0002:0001b7bc       ??_C@_0O@NHCJKCDC@?$DMunsupported?$DO?$AA@ 000827bc     libeay32:v3_alt.obj
 0002:0001b7cc       ??_C@_09PAKBLAPA@othername?$AA@ 000827cc     libeay32:v3_alt.obj
 0002:0001b7d8       ??_C@_0BF@JMMIKJMP@IP?5Address?3?$DMinvalid?$DO?$AA@ 000827d8     libeay32:v3_alt.obj
 0002:0001b7f0       ??_C@_03NMJGLHB@?3?$CFX?$AA@ 000827f0     libeay32:v3_alt.obj
 0002:0001b7f4       ??_C@_0BH@OAMIHBGI@IP?5Address?3?$CFd?4?$CFd?4?$CFd?4?$CFd?$AA@ 000827f4     libeay32:v3_alt.obj
 0002:0001b80c       ??_C@_09JDCPLDLD@DirName?3?5?$AA@ 0008280c     libeay32:v3_alt.obj
 0002:0001b818       ??_C@_06KCNJMDKO@URI?3?$CFs?$AA@ 00082818     libeay32:v3_alt.obj
 0002:0001b820       ??_C@_06DNDEBJBH@DNS?3?$CFs?$AA@ 00082820     libeay32:v3_alt.obj
 0002:0001b828       ??_C@_08LPBGKPKE@email?3?$CFs?$AA@ 00082828     libeay32:v3_alt.obj
 0002:0001b834       ??_C@_0BL@HEOLJEB@EdiPartyName?3?$DMunsupported?$DO?$AA@ 00082834     libeay32:v3_alt.obj
 0002:0001b850       ??_C@_0BH@HDOLFIDG@X400Name?3?$DMunsupported?$DO?$AA@ 00082850     libeay32:v3_alt.obj
 0002:0001b868       ??_C@_0BI@PGFKPDEJ@othername?3?$DMunsupported?$DO?$AA@ 00082868     libeay32:v3_alt.obj
 0002:0001b880       ??_C@_0EP@GIOEMKKC@d?3?2wm653wehh?2platform?2mvv210?2src@ 00082880     libeay32:v3_alt.obj
 0002:0001b8d0       ??_C@_08LNPIPPMM@section?$DN?$AA@ 000828d0     libeay32:v3_alt.obj
 0002:0001b8dc       ??_C@_09DBGAJPPE@otherName?$AA@ 000828dc     libeay32:v3_alt.obj
 0002:0001b8e8       ??_C@_07KKGEJKPE@dirName?$AA@ 000828e8     libeay32:v3_alt.obj
 0002:0001b8f0       ??_C@_02MFEOMNPG@IP?$AA@   000828f0     libeay32:v3_alt.obj
 0002:0001b8f4       ??_C@_03FEOBNLIE@RID?$AA@  000828f4     libeay32:v3_alt.obj
 0002:0001b8f8       ??_C@_04COAGEIMF@copy?$AA@ 000828f8     libeay32:v3_alt.obj
 0002:0001b900       ??_C@_04HDMMNHEL@move?$AA@ 00082900     libeay32:v3_alt.obj
 0002:0001b908       ??_C@_0EN@IDEDPOKO@d?3?2wm653wehh?2platform?2mvv210?2src@ 00082908     libeay32:dso_lib.obj
 0002:0001b958       CONF_version               00082958     libeay32:conf_lib.obj
 0002:0001b980       ??_C@_0EP@PNEKGEFM@d?3?2wm653wehh?2platform?2mvv210?2src@ 00082980     libeay32:conf_lib.obj
 0002:0001b9d0       ??_C@_06NGDKEHGB@?5name?$DN?$AA@ 000829d0     libeay32:conf_lib.obj
 0002:0001b9d8       ??_C@_06BDPCGOPM@group?$DN?$AA@ 000829d8     libeay32:conf_lib.obj
 0002:0001b9e0       ??_C@_02JDPG@rb?$AA@       000829e0     libeay32:conf_lib.obj
 0002:0001ba48       ??_C@_0EP@ELMNNBNC@d?3?2wm653wehh?2platform?2mvv210?2src@ 00082a48     libeay32:x509_obj.obj
 0002:0001ba98       ??_C@_0N@MJCHLFGM@NO?5X509_NAME?$AA@ 00082a98     libeay32:x509_obj.obj
 0002:0001bb04       ??_C@_0M@INJPOKDH@X509_PUBKEY?$AA@ 00082b04     libeay32:x_pubkey.obj
 0002:0001bb10       ??_C@_0L@PJCANJEE@public_key?$AA@ 00082b10     libeay32:x_pubkey.obj
 0002:0001bb20       ??_C@_0EP@OKMPOBJE@d?3?2wm653wehh?2platform?2mvv210?2src@ 00082b20     libeay32:x_pubkey.obj
 0002:0001bc34       v3_idp                     00082c34     libeay32:v3_crld.obj
 0002:0001bc6c       v3_freshest_crl            00082c6c     libeay32:v3_crld.obj
 0002:0001bca4       v3_crld                    00082ca4     libeay32:v3_crld.obj
 0002:0001be08       ??_C@_0BD@ENBCPHJ@ISSUING_DIST_POINT?$AA@ 00082e08     libeay32:v3_crld.obj
 0002:0001be1c       ??_C@_08DBIINPPL@onlyattr?$AA@ 00082e1c     libeay32:v3_crld.obj
 0002:0001be28       ??_C@_0M@BECDICJC@indirectCRL?$AA@ 00082e28     libeay32:v3_crld.obj
 0002:0001be34       ??_C@_0BA@FNMBIJDN@onlysomereasons?$AA@ 00082e34     libeay32:v3_crld.obj
 0002:0001be44       ??_C@_06PMNIEKCA@onlyCA?$AA@ 00082e44     libeay32:v3_crld.obj
 0002:0001be4c       ??_C@_08CENLBPEH@onlyuser?$AA@ 00082e4c     libeay32:v3_crld.obj
 0002:0001be58       ??_C@_0BA@BBHAIMOE@CRL_DIST_POINTS?$AA@ 00082e58     libeay32:v3_crld.obj
 0002:0001be68       ??_C@_0BG@CHNNADAE@CRLDistributionPoints?$AA@ 00082e68     libeay32:v3_crld.obj
 0002:0001be80       ??_C@_0L@ELIKPJIH@DIST_POINT?$AA@ 00082e80     libeay32:v3_crld.obj
 0002:0001be8c       ??_C@_09GJHADLCP@CRLissuer?$AA@ 00082e8c     libeay32:v3_crld.obj
 0002:0001be98       ??_C@_07PFOCLIJD@reasons?$AA@ 00082e98     libeay32:v3_crld.obj
 0002:0001bea0       ??_C@_09FBDFGJDL@distpoint?$AA@ 00082ea0     libeay32:v3_crld.obj
 0002:0001beac       ??_C@_0BA@MLHIPLLG@DIST_POINT_NAME?$AA@ 00082eac     libeay32:v3_crld.obj
 0002:0001bebc       ??_C@_0BC@JDMJBKME@name?4relativename?$AA@ 00082ebc     libeay32:v3_crld.obj
 0002:0001bed0       ??_C@_0O@HJHJCLAE@name?4fullname?$AA@ 00082ed0     libeay32:v3_crld.obj
 0002:0001bee0       ??_C@_0N@LOIIODKP@AACompromise?$AA@ 00082ee0     libeay32:v3_crld.obj
 0002:0001bef0       ??_C@_0O@PAGOKAK@AA?5Compromise?$AA@ 00082ef0     libeay32:v3_crld.obj
 0002:0001bf00       ??_C@_0BD@PBLGJKCE@privilegeWithdrawn?$AA@ 00082f00     libeay32:v3_crld.obj
 0002:0001bf14       ??_C@_0BE@FJCCMGMM@Privilege?5Withdrawn?$AA@ 00082f14     libeay32:v3_crld.obj
 0002:0001bf28       ??_C@_0BA@FBHLCNLK@certificateHold?$AA@ 00082f28     libeay32:v3_crld.obj
 0002:0001bf38       ??_C@_0BB@IPDHDNJD@Certificate?5Hold?$AA@ 00082f38     libeay32:v3_crld.obj
 0002:0001bf4c       ??_C@_0BF@IGJCOPF@cessationOfOperation?$AA@ 00082f4c     libeay32:v3_crld.obj
 0002:0001bf64       ??_C@_0BH@OLCOAMGF@Cessation?5Of?5Operation?$AA@ 00082f64     libeay32:v3_crld.obj
 0002:0001bf7c       ??_C@_0L@NHCKNIFL@superseded?$AA@ 00082f7c     libeay32:v3_crld.obj
 0002:0001bf88       ??_C@_0L@FBLGFHIM@Superseded?$AA@ 00082f88     libeay32:v3_crld.obj
 0002:0001bf94       ??_C@_0BD@BNOFAJLL@affiliationChanged?$AA@ 00082f94     libeay32:v3_crld.obj
 0002:0001bfa8       ??_C@_0BE@EECEIFAP@Affiliation?5Changed?$AA@ 00082fa8     libeay32:v3_crld.obj
 0002:0001bfbc       ??_C@_0N@NONEFGOE@CACompromise?$AA@ 00082fbc     libeay32:v3_crld.obj
 0002:0001bfcc       ??_C@_0O@OOGICOKH@CA?5Compromise?$AA@ 00082fcc     libeay32:v3_crld.obj
 0002:0001bfdc       ??_C@_0O@MCEAAJLH@keyCompromise?$AA@ 00082fdc     libeay32:v3_crld.obj
 0002:0001bfec       ??_C@_0P@JENDIECI@Key?5Compromise?$AA@ 00082fec     libeay32:v3_crld.obj
 0002:0001bffc       ??_C@_06OJAIHGIC@unused?$AA@ 00082ffc     libeay32:v3_crld.obj
 0002:0001c004       ??_C@_06CGLFEPBO@Unused?$AA@ 00083004     libeay32:v3_crld.obj
 0002:0001c010       ??_C@_0FA@EFIBGCB@d?3?2wm653wehh?2platform?2mvv210?2src@ 00083010     libeay32:v3_crld.obj
 0002:0001c060       ??_C@_08DGFAABGD@?$DMEMPTY?$DO?6?$AA@ 00083060     libeay32:v3_crld.obj
 0002:0001c06c       ??_C@_02KEGNLNML@?0?5?$AA@ 0008306c     libeay32:v3_crld.obj
 0002:0001c070       ??_C@_0L@NHIBCNGO@?$CF?$CKs?$CFs?3?6?$CF?$CKs?$AA@ 00083070     libeay32:v3_crld.obj
 0002:0001c07c       ??_C@_03HIJPJGOM@?$CF?$CKs?$AA@ 0008307c     libeay32:v3_crld.obj
 0002:0001c080       ??_C@_0BG@GIOHENJJ@?$CF?$CKsRelative?5Name?3?6?$CF?$CKs?$AA@ 00083080     libeay32:v3_crld.obj
 0002:0001c098       ??_C@_0P@DKAHDIGH@?$CF?$CKsFull?5Name?3?6?$AA@ 00083098     libeay32:v3_crld.obj
 0002:0001c0a8       ??_C@_0M@FCFDJGIC@?$CF?$CKs?$DMEMPTY?$DO?6?$AA@ 000830a8     libeay32:v3_crld.obj
 0002:0001c0b4       ??_C@_0CA@IIIJNMJM@?$CF?$CKsOnly?5Attribute?5Certificates?6?$AA@ 000830b4     libeay32:v3_crld.obj
 0002:0001c0d4       ??_C@_0BC@JDEOGEEL@Only?5Some?5Reasons?$AA@ 000830d4     libeay32:v3_crld.obj
 0002:0001c0e8       ??_C@_0BB@FLBIDOKD@?$CF?$CKsIndirect?5CRL?6?$AA@ 000830e8     libeay32:v3_crld.obj
 0002:0001c0fc       ??_C@_0BJ@GKBBKMLO@?$CF?$CKsOnly?5CA?5Certificates?6?$AA@ 000830fc     libeay32:v3_crld.obj
 0002:0001c118       ??_C@_0BL@FLJCHEKF@?$CF?$CKsOnly?5User?5Certificates?6?$AA@ 00083118     libeay32:v3_crld.obj
 0002:0001c134       ??_C@_0BA@NBJIBLNE@?$CF?$CKsCRL?5Issuer?3?6?$AA@ 00083134     libeay32:v3_crld.obj
 0002:0001c144       ??_C@_07MJENKMF@Reasons?$AA@ 00083144     libeay32:v3_crld.obj
 0002:0001c14c       ??_C@_0N@LGEOMMHB@relativename?$AA@ 0008314c     libeay32:v3_crld.obj
 0002:0001c15c       ??_C@_08BMACPLOA@fullname?$AA@ 0008315c     libeay32:v3_crld.obj
 0002:0001c168       ??_C@_06PPFMJOEO@onlyAA?$AA@ 00083168     libeay32:v3_crld.obj
 0002:0001c170       v3_inhibit_anyp            00083170     libeay32:v3_int.obj
 0002:0001c1a8       v3_delta_crl               000831a8     libeay32:v3_int.obj
 0002:0001c1e0       v3_crl_num                 000831e0     libeay32:v3_int.obj
 0002:0001c28c       v3_policy_mappings         0008328c     libeay32:v3_pmaps.obj
 0002:0001c2c4       ??_C@_0BA@DHPBCFFC@POLICY_MAPPINGS?$AA@ 000832c4     libeay32:v3_pmaps.obj
 0002:0001c2d4       ??_C@_0P@NLHMKCKF@POLICY_MAPPING?$AA@ 000832d4     libeay32:v3_pmaps.obj
 0002:0001c2e4       ??_C@_0BE@FFIKMOKF@subjectDomainPolicy?$AA@ 000832e4     libeay32:v3_pmaps.obj
 0002:0001c2f8       ??_C@_0BD@JILOPHFL@issuerDomainPolicy?$AA@ 000832f8     libeay32:v3_pmaps.obj
 0002:0001c310       ??_C@_0FB@JMEEBLD@d?3?2wm653wehh?2platform?2mvv210?2src@ 00083310     libeay32:v3_pmaps.obj
 0002:0001c3c4       v3_name_constraints        000833c4     libeay32:v3_ncons.obj
 0002:0001c438       ??_C@_0BB@MLLJAFMN@NAME_CONSTRAINTS?$AA@ 00083438     libeay32:v3_ncons.obj
 0002:0001c44c       ??_C@_0BB@HLFEMJKE@excludedSubtrees?$AA@ 0008344c     libeay32:v3_ncons.obj
 0002:0001c460       ??_C@_0BC@FACFJLFB@permittedSubtrees?$AA@ 00083460     libeay32:v3_ncons.obj
 0002:0001c474       ??_C@_0BA@ECMIFHDE@GENERAL_SUBTREE?$AA@ 00083474     libeay32:v3_ncons.obj
 0002:0001c484       ??_C@_07MEIENILC@maximum?$AA@ 00083484     libeay32:v3_ncons.obj
 0002:0001c48c       ??_C@_07CCOEHHFD@minimum?$AA@ 0008348c     libeay32:v3_ncons.obj
 0002:0001c494       ??_C@_04BHIIPFEC@base?$AA@ 00083494     libeay32:v3_ncons.obj
 0002:0001c4a0       ??_C@_0FB@NFBAFBGE@d?3?2wm653wehh?2platform?2mvv210?2src@ 000834a0     libeay32:v3_ncons.obj
 0002:0001c4f4       ??_C@_08HPCEJEEF@excluded?$AA@ 000834f4     libeay32:v3_ncons.obj
 0002:0001c500       ??_C@_09HAKFOFAM@permitted?$AA@ 00083500     libeay32:v3_ncons.obj
 0002:0001c50c       ??_C@_0BI@IFNIGPEJ@?$CFd?4?$CFd?4?$CFd?4?$CFd?1?$CFd?4?$CFd?4?$CFd?4?$CFd?$AA@ 0008350c     libeay32:v3_ncons.obj
 0002:0001c524       ??_C@_03HBLCMHJN@IP?3?$AA@ 00083524     libeay32:v3_ncons.obj
 0002:0001c528       ??_C@_07GOIIHCND@?$CF?$CKs?$CFs?3?6?$AA@ 00083528     libeay32:v3_ncons.obj
 0002:0001c530       ??_C@_09DPPIOGNM@Permitted?$AA@ 00083530     libeay32:v3_ncons.obj
 0002:0001c53c       ??_C@_08PNNFBGOG@Excluded?$AA@ 0008353c     libeay32:v3_ncons.obj
 0002:0001c548       v3_pci                     00083548     libeay32:v3_pci.obj
 0002:0001c580       ??_C@_0BE@HDJEDONA@?$CF?$CKsPolicy?5Text?3?5?$CFs?6?$AA@ 00083580     libeay32:v3_pci.obj
 0002:0001c594       ??_C@_0BF@CGHJNACM@?$CF?$CKsPolicy?5Language?3?5?$AA@ 00083594     libeay32:v3_pci.obj
 0002:0001c5ac       ??_C@_08MAJEGHKB@infinite?$AA@ 000835ac     libeay32:v3_pci.obj
 0002:0001c5b8       ??_C@_0BM@BMCPHDD@?$CF?$CKsPath?5Length?5Constraint?3?5?$AA@ 000835b8     libeay32:v3_pci.obj
 0002:0001c5d4       ??_C@_05FHIGHPDA@text?3?$AA@ 000835d4     libeay32:v3_pci.obj
 0002:0001c5dc       ??_C@_05BOPHDICO@file?3?$AA@ 000835dc     libeay32:v3_pci.obj
 0002:0001c5e4       ??_C@_04ODCMNEMO@hex?3?$AA@ 000835e4     libeay32:v3_pci.obj
 0002:0001c5ec       ??_C@_06NJNJNICG@policy?$AA@ 000835ec     libeay32:v3_pci.obj
 0002:0001c5f4       ??_C@_07OGCPICFF@pathlen?$AA@ 000835f4     libeay32:v3_pci.obj
 0002:0001c600       ??_C@_0EP@IAENADAP@d?3?2wm653wehh?2platform?2mvv210?2src@ 00083600     libeay32:v3_pci.obj
 0002:0001c650       ??_C@_08JGCCIMAA@language?$AA@ 00083650     libeay32:v3_pci.obj
 0002:0001c65c       v3_ocsp_serviceloc         0008365c     libeay32:v3_ocsp.obj
 0002:0001c694       v3_ocsp_nocheck            00083694     libeay32:v3_ocsp.obj
 0002:0001c6cc       v3_ocsp_nonce              000836cc     libeay32:v3_ocsp.obj
 0002:0001c704       v3_crl_hold                00083704     libeay32:v3_ocsp.obj
 0002:0001c73c       v3_crl_invdate             0008373c     libeay32:v3_ocsp.obj
 0002:0001c774       v3_ocsp_acutoff            00083774     libeay32:v3_ocsp.obj
 0002:0001c7ac       v3_ocsp_crlid              000837ac     libeay32:v3_ocsp.obj
 0002:0001c7e4       ??_C@_0N@IBJOMEDL@?$CF?$CKscrlTime?3?5?$AA@ 000837e4     libeay32:v3_ocsp.obj
 0002:0001c7f4       ??_C@_0M@MLCMBODE@?$CF?$CKscrlNum?3?5?$AA@ 000837f4     libeay32:v3_ocsp.obj
 0002:0001c800       ??_C@_0M@KIKBFHBJ@?$CF?$CKscrlUrl?3?5?$AA@ 00083800     libeay32:v3_ocsp.obj
 0002:0001c810       ??_C@_0FA@DGLJGNPA@d?3?2wm653wehh?2platform?2mvv210?2src@ 00083810     libeay32:v3_ocsp.obj
 0002:0001c860       ??_C@_04NFEJKGEM@?6?$CF?$CKs?$AA@ 00083860     libeay32:v3_ocsp.obj
 0002:0001c868       ??_C@_0M@IHOINNJF@?$CF?$CKsIssuer?3?5?$AA@ 00083868     libeay32:v3_ocsp.obj
 0002:0001c8b8       v3_policy_constraints      000838b8     libeay32:v3_pcons.obj
 0002:0001c8f0       ??_C@_0BD@MMPNIEIJ@POLICY_CONSTRAINTS?$AA@ 000838f0     libeay32:v3_pcons.obj
 0002:0001c904       ??_C@_0BF@MOMLJGAL@inhibitPolicyMapping?$AA@ 00083904     libeay32:v3_pcons.obj
 0002:0001c91c       ??_C@_0BG@HGJBEKFE@requireExplicitPolicy?$AA@ 0008391c     libeay32:v3_pcons.obj
 0002:0001c934       ??_C@_0BI@HNCHDEDI@Require?5Explicit?5Policy?$AA@ 00083934     libeay32:v3_pcons.obj
 0002:0001c94c       ??_C@_0BH@HMKHOMED@Inhibit?5Policy?5Mapping?$AA@ 0008394c     libeay32:v3_pcons.obj
 0002:0001c968       ??_C@_0FB@LMCBHCHN@d?3?2wm653wehh?2platform?2mvv210?2src@ 00083968     libeay32:v3_pcons.obj
 0002:0001c9ec       v3_ocsp_accresp            000839ec     libeay32:v3_extku.obj
 0002:0001ca24       v3_ext_ku                  00083a24     libeay32:v3_extku.obj
 0002:0001ca5c       ??_C@_0BD@CKAGEBEF@EXTENDED_KEY_USAGE?$AA@ 00083a5c     libeay32:v3_extku.obj
 0002:0001ca70       ??_C@_0FB@GJDJKHPC@d?3?2wm653wehh?2platform?2mvv210?2src@ 00083a70     libeay32:v3_extku.obj
 0002:0001cb4c       v3_sxnet                   00083b4c     libeay32:v3_sxnet.obj
 0002:0001cb84       ??_C@_05BPAJFIHK@SXNET?$AA@ 00083b84     libeay32:v3_sxnet.obj
 0002:0001cb8c       ??_C@_03NDFJNBKD@ids?$AA@  00083b8c     libeay32:v3_sxnet.obj
 0002:0001cb90       ??_C@_07FLDOGLPN@SXNETID?$AA@ 00083b90     libeay32:v3_sxnet.obj
 0002:0001cb98       ??_C@_04CCHAHKJA@user?$AA@ 00083b98     libeay32:v3_sxnet.obj
 0002:0001cba0       ??_C@_04LDDJGOBB@zone?$AA@ 00083ba0     libeay32:v3_sxnet.obj
 0002:0001cba8       ??_C@_0BF@NMLBNADB@?6?$CF?$CKsZone?3?5?$CFs?0?5User?3?5?$AA@ 00083ba8     libeay32:v3_sxnet.obj
 0002:0001cbc0       ??_C@_0BI@GOEPAKBG@?$CF?$CKsVersion?3?5?$CFld?5?$CI0x?$CFlX?$CJ?$AA@ 00083bc0     libeay32:v3_sxnet.obj
 0002:0001cbd8       ??_C@_0FB@HGCMGHKH@d?3?2wm653wehh?2platform?2mvv210?2src@ 00083bd8     libeay32:v3_sxnet.obj
 0002:0001cc2c       v3_crl_reason              00083c2c     libeay32:v3_enum.obj
 0002:0001cc64       ??_C@_0O@BILLKPKO@removeFromCRL?$AA@ 00083c64     libeay32:v3_enum.obj
 0002:0001cc74       ??_C@_0BA@GLPEKBIK@Remove?5From?5CRL?$AA@ 00083c74     libeay32:v3_enum.obj
 0002:0001cc84       ??_C@_0M@MFMDLEDN@unspecified?$AA@ 00083c84     libeay32:v3_enum.obj
 0002:0001cc90       ??_C@_0M@NNPCGPMF@Unspecified?$AA@ 00083c90     libeay32:v3_enum.obj
 0002:0001cc9c       v3_akey_id                 00083c9c     libeay32:v3_akey.obj
 0002:0001ccd4       ??_C@_06KCELPKEE@serial?$AA@ 00083cd4     libeay32:v3_akey.obj
 0002:0001ccdc       ??_C@_05CNHMOIOC@keyid?$AA@ 00083cdc     libeay32:v3_akey.obj
 0002:0001cce8       ??_C@_0FA@BIHNLJGI@d?3?2wm653wehh?2platform?2mvv210?2src@ 00083ce8     libeay32:v3_akey.obj
 0002:0001cd38       ??_C@_06KHDOHNKC@always?$AA@ 00083d38     libeay32:v3_akey.obj
 0002:0001cee0       v3_cpols                   00083ee0     libeay32:v3_cpols.obj
 0002:0001cf18       ??_C@_09DFHLGOKA@NOTICEREF?$AA@ 00083f18     libeay32:v3_cpols.obj
 0002:0001cf24       ??_C@_09CFGHNILC@noticenos?$AA@ 00083f24     libeay32:v3_cpols.obj
 0002:0001cf30       ??_C@_0N@HEIPMDAG@organization?$AA@ 00083f30     libeay32:v3_cpols.obj
 0002:0001cf40       ??_C@_0L@HCNDPADF@USERNOTICE?$AA@ 00083f40     libeay32:v3_cpols.obj
 0002:0001cf4c       ??_C@_07MHGINJOA@exptext?$AA@ 00083f4c     libeay32:v3_cpols.obj
 0002:0001cf54       ??_C@_09FIKFDFH@noticeref?$AA@ 00083f54     libeay32:v3_cpols.obj
 0002:0001cf60       ??_C@_0P@POBJIHLD@POLICYQUALINFO?$AA@ 00083f60     libeay32:v3_cpols.obj
 0002:0001cf70       ??_C@_07LEEILOKB@pqualid?$AA@ 00083f70     libeay32:v3_cpols.obj
 0002:0001cf78       ??_C@_0N@JPAHANFF@d?4usernotice?$AA@ 00083f78     libeay32:v3_cpols.obj
 0002:0001cf88       ??_C@_08EECALGEF@d?4cpsuri?$AA@ 00083f88     libeay32:v3_cpols.obj
 0002:0001cf94       ??_C@_0L@POLPGHJK@POLICYINFO?$AA@ 00083f94     libeay32:v3_cpols.obj
 0002:0001cfa0       ??_C@_0L@HMNGMMJI@qualifiers?$AA@ 00083fa0     libeay32:v3_cpols.obj
 0002:0001cfac       ??_C@_08NEBFOBH@policyid?$AA@ 00083fac     libeay32:v3_cpols.obj
 0002:0001cfb8       ??_C@_0BE@GJBJOOCP@CERTIFICATEPOLICIES?$AA@ 00083fb8     libeay32:v3_cpols.obj
 0002:0001cfd0       ??_C@_0FB@GCODJBIG@d?3?2wm653wehh?2platform?2mvv210?2src@ 00083fd0     libeay32:v3_cpols.obj
 0002:0001d024       ??_C@_0BG@IHHCDAMH@?$CF?$CKsExplicit?5Text?3?5?$CFs?6?$AA@ 00084024     libeay32:v3_cpols.obj
 0002:0001d03c       ??_C@_0O@EFHNHHDA@?$CF?$CKsNumber?$CFs?3?5?$AA@ 0008403c     libeay32:v3_cpols.obj
 0002:0001d04c       ??_C@_0BF@OCNFPJOG@?$CF?$CKsOrganization?3?5?$CFs?6?$AA@ 0008404c     libeay32:v3_cpols.obj
 0002:0001d064       ??_C@_0O@OKDALMJE@noticeNumbers?$AA@ 00084064     libeay32:v3_cpols.obj
 0002:0001d074       ??_C@_0N@EALKMFB@explicitText?$AA@ 00084074     libeay32:v3_cpols.obj
 0002:0001d084       ??_C@_0M@ICGFCJNO@?$CF?$CKsCPS?3?5?$CFs?6?$AA@ 00084084     libeay32:v3_cpols.obj
 0002:0001d090       ??_C@_0BB@MMPKKFLI@?$CF?$CKsUser?5Notice?3?6?$AA@ 00084090     libeay32:v3_cpols.obj
 0002:0001d0a4       ??_C@_0BH@CHOAEJEJ@?$CF?$CKsUnknown?5Qualifier?3?5?$AA@ 000840a4     libeay32:v3_cpols.obj
 0002:0001d0bc       ??_C@_0M@BBFMFBLN@?$CF?$CKsPolicy?3?5?$AA@ 000840bc     libeay32:v3_cpols.obj
 0002:0001d0c8       ??_C@_0L@LADHLIJ@userNotice?$AA@ 000840c8     libeay32:v3_cpols.obj
 0002:0001d0d4       ??_C@_03KKDAPHBH@CPS?$AA@  000840d4     libeay32:v3_cpols.obj
 0002:0001d0d8       ??_C@_0BB@FIJMMMGE@policyIdentifier?$AA@ 000840d8     libeay32:v3_cpols.obj
 0002:0001d0ec       ??_C@_06MIFIGELF@ia5org?$AA@ 000840ec     libeay32:v3_cpols.obj
 0002:0001d138       v3_bcons                   00084138     libeay32:v3_bcons.obj
 0002:0001d170       ??_C@_0BC@PKPCGCD@BASIC_CONSTRAINTS?$AA@ 00084170     libeay32:v3_bcons.obj
 0002:0001d184       ??_C@_02DGMJAJHC@ca?$AA@   00084184     libeay32:v3_bcons.obj
 0002:0001d188       ??_C@_02JLAAGLDA@CA?$AA@   00084188     libeay32:v3_bcons.obj
 0002:0001d190       ??_C@_0FB@ICLPEECL@d?3?2wm653wehh?2platform?2mvv210?2src@ 00084190     libeay32:v3_bcons.obj
 0002:0001d228       v3_pkey_usage_period       00084228     libeay32:v3_pku.obj
 0002:0001d260       ??_C@_0BC@CCOKACDM@PKEY_USAGE_PERIOD?$AA@ 00084260     libeay32:v3_pku.obj
 0002:0001d274       ??_C@_08PJIFIJBI@notAfter?$AA@ 00084274     libeay32:v3_pku.obj
 0002:0001d280       ??_C@_09MJPOMOII@notBefore?$AA@ 00084280     libeay32:v3_pku.obj
 0002:0001d28c       ??_C@_0M@FCHJLIHE@Not?5After?3?5?$AA@ 0008428c     libeay32:v3_pku.obj
 0002:0001d298       ??_C@_0N@KGLJEEMK@Not?5Before?3?5?$AA@ 00084298     libeay32:v3_pku.obj
 0002:0001d2a8       v3_key_usage               000842a8     libeay32:v3_bitst.obj
 0002:0001d2e0       v3_nscert                  000842e0     libeay32:v3_bitst.obj
 0002:0001d318       ??_C@_0N@LIFHMFCO@decipherOnly?$AA@ 00084318     libeay32:v3_bitst.obj
 0002:0001d328       ??_C@_0O@FKBAPCEG@Decipher?5Only?$AA@ 00084328     libeay32:v3_bitst.obj
 0002:0001d338       ??_C@_0N@BEFDLIKF@encipherOnly?$AA@ 00084338     libeay32:v3_bitst.obj
 0002:0001d348       ??_C@_0O@CANGKMJD@Encipher?5Only?$AA@ 00084348     libeay32:v3_bitst.obj
 0002:0001d358       ??_C@_07IHBCCDFJ@cRLSign?$AA@ 00084358     libeay32:v3_bitst.obj
 0002:0001d360       ??_C@_08OCJGKMAN@CRL?5Sign?$AA@ 00084360     libeay32:v3_bitst.obj
 0002:0001d36c       ??_C@_0M@ONBOOMGI@keyCertSign?$AA@ 0008436c     libeay32:v3_bitst.obj
 0002:0001d378       ??_C@_0BB@ELNGMDLH@Certificate?5Sign?$AA@ 00084378     libeay32:v3_bitst.obj
 0002:0001d38c       ??_C@_0N@GONHKOEO@keyAgreement?$AA@ 0008438c     libeay32:v3_bitst.obj
 0002:0001d39c       ??_C@_0O@EOJOBCHL@Key?5Agreement?$AA@ 0008439c     libeay32:v3_bitst.obj
 0002:0001d3ac       ??_C@_0BB@LBKKKIGO@dataEncipherment?$AA@ 000843ac     libeay32:v3_bitst.obj
 0002:0001d3c0       ??_C@_0BC@GNPIAJLP@Data?5Encipherment?$AA@ 000843c0     libeay32:v3_bitst.obj
 0002:0001d3d4       ??_C@_0BA@MINCLOJG@keyEncipherment?$AA@ 000843d4     libeay32:v3_bitst.obj
 0002:0001d3e4       ??_C@_0BB@KNACIBEN@Key?5Encipherment?$AA@ 000843e4     libeay32:v3_bitst.obj
 0002:0001d3f8       ??_C@_0P@GPCNPOGO@nonRepudiation?$AA@ 000843f8     libeay32:v3_bitst.obj
 0002:0001d408       ??_C@_0BA@DJCGBBAI@Non?5Repudiation?$AA@ 00084408     libeay32:v3_bitst.obj
 0002:0001d418       ??_C@_0BB@MFKHIIOM@digitalSignature?$AA@ 00084418     libeay32:v3_bitst.obj
 0002:0001d42c       ??_C@_0BC@DPKEIPIO@Digital?5Signature?$AA@ 0008442c     libeay32:v3_bitst.obj
 0002:0001d440       ??_C@_05JLEIJNEE@objCA?$AA@ 00084440     libeay32:v3_bitst.obj
 0002:0001d448       ??_C@_0BC@FAMHGMHB@Object?5Signing?5CA?$AA@ 00084448     libeay32:v3_bitst.obj
 0002:0001d45c       ??_C@_07FFHDGPMJ@emailCA?$AA@ 0008445c     libeay32:v3_bitst.obj
 0002:0001d464       ??_C@_09GIEMCMEO@S?1MIME?5CA?$AA@ 00084464     libeay32:v3_bitst.obj
 0002:0001d470       ??_C@_05JHLHLOEK@sslCA?$AA@ 00084470     libeay32:v3_bitst.obj
 0002:0001d478       ??_C@_06FMDLPOFJ@SSL?5CA?$AA@ 00084478     libeay32:v3_bitst.obj
 0002:0001d480       ??_C@_08FINKBBAF@reserved?$AA@ 00084480     libeay32:v3_bitst.obj
 0002:0001d48c       ??_C@_07GIOKFKGL@objsign?$AA@ 0008448c     libeay32:v3_bitst.obj
 0002:0001d494       ??_C@_0P@DDHLFHHK@Object?5Signing?$AA@ 00084494     libeay32:v3_bitst.obj
 0002:0001d4a4       ??_C@_06HJHJCKIO@server?$AA@ 000844a4     libeay32:v3_bitst.obj
 0002:0001d4ac       ??_C@_0L@DCIAGJKL@SSL?5Server?$AA@ 000844ac     libeay32:v3_bitst.obj
 0002:0001d4b8       ??_C@_06DGDLPBAN@client?$AA@ 000844b8     libeay32:v3_bitst.obj
 0002:0001d4c0       ??_C@_0L@HNMCLCCI@SSL?5Client?$AA@ 000844c0     libeay32:v3_bitst.obj
 0002:0001d4d0       ??_C@_0FB@EKHJICLH@d?3?2wm653wehh?2platform?2mvv210?2src@ 000844d0     libeay32:v3_bitst.obj
 0002:0001d524       v3_skey_id                 00084524     libeay32:v3_skey.obj
 0002:0001d560       ??_C@_0FA@OIDMDEIP@d?3?2wm653wehh?2platform?2mvv210?2src@ 00084560     libeay32:v3_skey.obj
 0002:0001d5b0       ??_C@_04OIJGJDKO@hash?$AA@ 000845b0     libeay32:v3_skey.obj
 0002:0001d5b8       v3_ns_ia5_list             000845b8     libeay32:v3_ia5.obj
 0002:0001d778       ??_C@_0EP@FPIPLDCG@d?3?2wm653wehh?2platform?2mvv210?2src@ 00084778     libeay32:v3_ia5.obj
 0002:0001d7c8       ??_C@_0FA@GLNJJMIP@d?3?2wm653wehh?2platform?2mvv210?2src@ 000847c8     libeay32:v3_conf.obj
 0002:0001d910       ??_C@_08JIPBBKBM@X509_REQ?$AA@ 00084910     libeay32:x_req.obj
 0002:0001d91c       ??_C@_07OBHFIHGJ@sig_alg?$AA@ 0008491c     libeay32:x_req.obj
 0002:0001d924       ??_C@_08JILJKJG@req_info?$AA@ 00084924     libeay32:x_req.obj
 0002:0001d930       ??_C@_0O@EHCMNJCB@X509_REQ_INFO?$AA@ 00084930     libeay32:x_req.obj
 0002:0001d940       ??_C@_0L@HNMJPKNA@attributes?$AA@ 00084940     libeay32:x_req.obj
 0002:0001d94c       ??_C@_06GKCAPDID@pubkey?$AA@ 0008494c     libeay32:x_req.obj
 0002:0001d954       ??_C@_07JNNGEGGO@subject?$AA@ 00084954     libeay32:x_req.obj
 0002:0001d960       ??_C@_0EP@COKBPCCM@d?3?2wm653wehh?2platform?2mvv210?2src@ 00084960     libeay32:x509_att.obj
 0002:0001d9b0       ??_C@_0BE@LILBBPKE@OpenSSL?5ECDH?5method?$AA@ 000849b0     libeay32:ech_ossl.obj
 0002:0001d9c8       ??_C@_0EP@EIICIEGK@d?3?2wm653wehh?2platform?2mvv210?2src@ 000849c8     libeay32:ech_ossl.obj
 0002:0001dac0       ??_C@_0EN@LKHNEOCI@d?3?2wm653wehh?2platform?2mvv210?2src@ 00084ac0     libeay32:ecp_mont.obj
 0002:0001dbb0       ??_C@_0EN@MFLMOEJL@d?3?2wm653wehh?2platform?2mvv210?2src@ 00084bb0     libeay32:ecp_nist.obj
 0002:0001dca0       ??_C@_0EN@HKENHFKC@d?3?2wm653wehh?2platform?2mvv210?2src@ 00084ca0     libeay32:ec2_smpl.obj
 0002:0001dcf0       ??_C@_0EM@LBEFNFCH@d?3?2wm653wehh?2platform?2mvv210?2src@ 00084cf0     libeay32:bn_exp2.obj
 0002:0001dd40       ??_C@_0EM@LKCJBLMG@d?3?2wm653wehh?2platform?2mvv210?2src@ 00084d40     libeay32:bn_recp.obj
 0002:0001df1c       ??_C@_08JGFBPDAP@X509_CRL?$AA@ 00084f1c     libeay32:x_crl.obj
 0002:0001df28       ??_C@_03GJBFOAJL@crl?$AA@  00084f28     libeay32:x_crl.obj
 0002:0001df2c       ??_C@_0O@IMOAEKCP@X509_CRL_INFO?$AA@ 00084f2c     libeay32:x_crl.obj
 0002:0001df3c       ??_C@_07MIJFAMBD@revoked?$AA@ 00084f3c     libeay32:x_crl.obj
 0002:0001df44       ??_C@_0L@BMOABHOK@nextUpdate?$AA@ 00084f44     libeay32:x_crl.obj
 0002:0001df50       ??_C@_0L@MPDCJAIM@lastUpdate?$AA@ 00084f50     libeay32:x_crl.obj
 0002:0001df5c       ??_C@_0N@JBPKOADN@X509_REVOKED?$AA@ 00084f5c     libeay32:x_crl.obj
 0002:0001df6c       ??_C@_0L@ICCCPLKC@extensions?$AA@ 00084f6c     libeay32:x_crl.obj
 0002:0001df78       ??_C@_0P@HBDMPDNI@revocationDate?$AA@ 00084f78     libeay32:x_crl.obj
 0002:0001df88       ??_C@_0EM@HLHJDKMD@d?3?2wm653wehh?2platform?2mvv210?2src@ 00084f88     libeay32:x_crl.obj
 0002:0001e148       ??_C@_09NKDPGBBA@cert_info?$AA@ 00085148     libeay32:x_x509.obj
 0002:0001e154       ??_C@_09LCJGKABB@X509_CINF?$AA@ 00085154     libeay32:x_x509.obj
 0002:0001e160       ??_C@_0L@JMFHLKAL@subjectUID?$AA@ 00085160     libeay32:x_x509.obj
 0002:0001e16c       ??_C@_09KIIAMAEE@issuerUID?$AA@ 0008516c     libeay32:x_x509.obj
 0002:0001e178       ??_C@_08GCHKOCBP@validity?$AA@ 00085178     libeay32:x_x509.obj
 0002:0001e188       ??_C@_0EM@EIEBKGJ@d?3?2wm653wehh?2platform?2mvv210?2src@ 00085188     libeay32:cms_io.obj
 0002:0001e1d4       ??_C@_08POLPFBMC@SEQUENCE?$AA@ 000851d4     libeay32:tasn_prn.obj
 0002:0001e1e0       ??_C@_03KPIFFHNE@SET?$AA@  000851e0     libeay32:tasn_prn.obj
 0002:0001e1e4       ??_C@_0P@ONGHGJEC@message?5digest?$AA@ 000851e4     libeay32:bio_md.obj
 0002:0001e1f4       ??_C@_0O@DIEIKEFB@memory?5buffer?$AA@ 000851f4     libeay32:bss_mem.obj
 0002:0001e208       ??_C@_0EN@IFBMAPDF@d?3?2wm653wehh?2platform?2mvv210?2src@ 00085208     libeay32:bss_mem.obj
 0002:0001e258       ??_C@_0EM@CLBFFJNJ@d?3?2wm653wehh?2platform?2mvv210?2src@ 00085258     libeay32:cms_dd.obj
 0002:0001e2a8       ??_C@_0EN@GEIMIMFD@d?3?2wm653wehh?2platform?2mvv210?2src@ 000852a8     libeay32:bio_enc.obj
 0002:0001e314       ??_C@_09DHMKJJNA@ASN1_TIME?$AA@ 00085314     libeay32:a_time.obj
 0002:0001e320       ??_C@_0EN@IOPKJOHJ@d?3?2wm653wehh?2platform?2mvv210?2src@ 00085320     libeay32:a_time.obj
 0002:0001e370       X509_version               00085370     libeay32:x509_vfy.obj
 0002:0001e3a0       ??_C@_0EO@ENFGJDHG@d?3?2wm653wehh?2platform?2mvv210?2src@ 000853a0     libeay32:m_sigver.obj
 0002:0001e3f0       ??_C@_0EM@MHADPNEH@d?3?2wm653wehh?2platform?2mvv210?2src@ 000853f0     libeay32:p_sign.obj
 0002:0001e4c4       ??_C@_0BK@PILNOGHK@PROXY_CERT_INFO_EXTENSION?$AA@ 000854c4     libeay32:v3_pcia.obj
 0002:0001e4e0       ??_C@_0M@KKFBCGOG@proxyPolicy?$AA@ 000854e0     libeay32:v3_pcia.obj
 0002:0001e4ec       ??_C@_0BH@JBGKCLHC@pcPathLengthConstraint?$AA@ 000854ec     libeay32:v3_pcia.obj
 0002:0001e504       ??_C@_0N@CLKEFBDI@PROXY_POLICY?$AA@ 00085504     libeay32:v3_pcia.obj
 0002:0001e514       ??_C@_0P@BLMEJDMO@policyLanguage?$AA@ 00085514     libeay32:v3_pcia.obj
 0002:00020700       ??_C@_0M@DPMJHKGH@PBKDF2PARAM?$AA@ 00087700     libeay32:p5_pbev2.obj
 0002:0002070c       ??_C@_03NBFGPAGA@prf?$AA@  0008770c     libeay32:p5_pbev2.obj
 0002:00020710       ??_C@_09PKJJLJJD@keylength?$AA@ 00087710     libeay32:p5_pbev2.obj
 0002:0002071c       ??_C@_04BKLHDIKK@iter?$AA@ 0008771c     libeay32:p5_pbev2.obj
 0002:00020724       ??_C@_04OKLIMCN@salt?$AA@  00087724     libeay32:p5_pbev2.obj
 0002:0002072c       ??_C@_09DHBCCKCK@PBE2PARAM?$AA@ 0008772c     libeay32:p5_pbev2.obj
 0002:00020738       ??_C@_0L@HBBFMHKN@encryption?$AA@ 00087738     libeay32:p5_pbev2.obj
 0002:00020744       ??_C@_07KEPFKPDN@keyfunc?$AA@ 00087744     libeay32:p5_pbev2.obj
 0002:00020750       ??_C@_0EP@ECCLNLMM@d?3?2wm653wehh?2platform?2mvv210?2src@ 00087750     libeay32:asn_pack.obj
 0002:000207a0       ??_C@_0EN@BMFEIIDL@d?3?2wm653wehh?2platform?2mvv210?2src@ 000877a0     libeay32:rsa_pk1.obj
 0002:000207f0       ??_C@_0EN@PDDHPBKJ@d?3?2wm653wehh?2platform?2mvv210?2src@ 000877f0     libeay32:rsa_ssl.obj
 0002:00020840       ??_C@_0EO@NNKDLJPI@d?3?2wm653wehh?2platform?2mvv210?2src@ 00087840     libeay32:rsa_none.obj
 0002:00020c10       ??_C@_0O@DFJMHGOP@EC_PRIVATEKEY?$AA@ 00087c10     libeay32:ec_asn1.obj
 0002:00020c20       ??_C@_0L@HHPOFMCB@parameters?$AA@ 00087c20     libeay32:ec_asn1.obj
 0002:00020c2c       ??_C@_0L@BCENACFO@privateKey?$AA@ 00087c2c     libeay32:ec_asn1.obj
 0002:00020c38       ??_C@_0P@PBBIGPFJ@ECPKPARAMETERS?$AA@ 00087c38     libeay32:ec_asn1.obj
 0002:00020c48       ??_C@_0BD@HOIIAPI@value?4implicitlyCA?$AA@ 00087c48     libeay32:ec_asn1.obj
 0002:00020c5c       ??_C@_0BB@KOECJJJ@value?4parameters?$AA@ 00087c5c     libeay32:ec_asn1.obj
 0002:00020c70       ??_C@_0BC@JEJHGDNN@value?4named_curve?$AA@ 00087c70     libeay32:ec_asn1.obj
 0002:00020c84       ??_C@_0N@ECDPFONH@ECPARAMETERS?$AA@ 00087c84     libeay32:ec_asn1.obj
 0002:00020c94       ??_C@_08DKFAOMDI@cofactor?$AA@ 00087c94     libeay32:ec_asn1.obj
 0002:00020ca0       ??_C@_05NDNMCCJH@order?$AA@ 00087ca0     libeay32:ec_asn1.obj
 0002:00020ca8       ??_C@_05HIKPKPAA@curve?$AA@ 00087ca8     libeay32:ec_asn1.obj
 0002:00020cb0       ??_C@_07MJJGNICD@fieldID?$AA@ 00087cb0     libeay32:ec_asn1.obj
 0002:00020cb8       ??_C@_0M@BHDPNPCK@X9_62_CURVE?$AA@ 00087cb8     libeay32:ec_asn1.obj
 0002:00020cc4       ??_C@_04MENKDCKE@seed?$AA@ 00087cc4     libeay32:ec_asn1.obj
 0002:00020ccc       ??_C@_0O@PGPIAKKH@X9_62_FIELDID?$AA@ 00087ccc     libeay32:ec_asn1.obj
 0002:00020cdc       ??_C@_09OAOLGAOM@fieldType?$AA@ 00087cdc     libeay32:ec_asn1.obj
 0002:00020ce8       ??_C@_0L@NLMAKEBL@p?4char_two?$AA@ 00087ce8     libeay32:ec_asn1.obj
 0002:00020cf4       ??_C@_07DPJEDCLB@p?4prime?$AA@ 00087cf4     libeay32:ec_asn1.obj
 0002:00020cfc       ??_C@_0BJ@CCODLOLO@X9_62_CHARACTERISTIC_TWO?$AA@ 00087cfc     libeay32:ec_asn1.obj
 0002:00020d18       ??_C@_04GPMDFGEJ@type?$AA@ 00087d18     libeay32:ec_asn1.obj
 0002:00020d20       ??_C@_01GOHFPIOK@m?$AA@    00087d20     libeay32:ec_asn1.obj
 0002:00020d24       ??_C@_09DMGLCKOJ@p?4ppBasis?$AA@ 00087d24     libeay32:ec_asn1.obj
 0002:00020d30       ??_C@_09LICBCEBD@p?4tpBasis?$AA@ 00087d30     libeay32:ec_asn1.obj
 0002:00020d3c       ??_C@_09KOBBOOPN@p?4onBasis?$AA@ 00087d3c     libeay32:ec_asn1.obj
 0002:00020d48       ??_C@_07PBHIMFBE@p?4other?$AA@ 00087d48     libeay32:ec_asn1.obj
 0002:00020d50       ??_C@_0BC@NPDMPFCL@X9_62_PENTANOMIAL?$AA@ 00087d50     libeay32:ec_asn1.obj
 0002:00020d64       ??_C@_02LAFHGHBM@k3?$AA@   00087d64     libeay32:ec_asn1.obj
 0002:00020d68       ??_C@_02KJEMFGFN@k2?$AA@   00087d68     libeay32:ec_asn1.obj
 0002:00020d6c       ??_C@_02ICGBAFJO@k1?$AA@   00087d6c     libeay32:ec_asn1.obj
 0002:00020d70       ??_C@_0EM@BCOHHMGC@d?3?2wm653wehh?2platform?2mvv210?2src@ 00087d70     libeay32:ec_asn1.obj
 0002:00020e48       ??_C@_0BE@LDIFBBLG@PKCS8_PRIV_KEY_INFO?$AA@ 00087e48     libeay32:p8_pkey.obj
 0002:00020e5c       ??_C@_04JMMJFDFL@pkey?$AA@ 00087e5c     libeay32:p8_pkey.obj
 0002:00020e64       ??_C@_07PLCMOKAM@pkeyalg?$AA@ 00087e64     libeay32:p8_pkey.obj
 0002:00020e6c       ??_C@_0BE@FPCNHCIJ@Generator?5?$CIhybrid?$CJ?3?$AA@ 00087e6c     libeay32:eck_prn.obj
 0002:00020e80       ??_C@_0BK@DOCPEENO@Generator?5?$CIuncompressed?$CJ?3?$AA@ 00087e80     libeay32:eck_prn.obj
 0002:00020e9c       ??_C@_0BI@DFFFIKFB@Generator?5?$CIcompressed?$CJ?3?$AA@ 00087e9c     libeay32:eck_prn.obj
 0002:00020eb4       ??_C@_06LEJCPMLM@?$CF02x?$CFs?$AA@ 00087eb4     libeay32:eck_prn.obj
 0002:00020ec0       ??_C@_0EM@FLNGOIDD@d?3?2wm653wehh?2platform?2mvv210?2src@ 00087ec0     libeay32:eck_prn.obj
 0002:00020f0c       ??_C@_05PDHKGGIM@Seed?3?$AA@ 00087f0c     libeay32:eck_prn.obj
 0002:00020f14       ??_C@_0L@IEMHODML@Cofactor?3?5?$AA@ 00087f14     libeay32:eck_prn.obj
 0002:00020f20       ??_C@_07KOGOKIFH@Order?3?5?$AA@ 00087f20     libeay32:eck_prn.obj
 0002:00020f28       ??_C@_05OKMHJIGA@B?3?5?5?5?$AA@ 00087f28     libeay32:eck_prn.obj
 0002:00020f30       ??_C@_05GMFDOKMO@A?3?5?5?5?$AA@ 00087f30     libeay32:eck_prn.obj
 0002:00020f38       ??_C@_06DBHHIIKM@Prime?3?$AA@ 00087f38     libeay32:eck_prn.obj
 0002:00020f40       ??_C@_0M@JDIPGLHE@Polynomial?3?$AA@ 00087f40     libeay32:eck_prn.obj
 0002:00020f4c       ??_C@_0BA@ENMKKION@Basis?5Type?3?5?$CFs?6?$AA@ 00087f4c     libeay32:eck_prn.obj
 0002:00020f5c       ??_C@_0BA@KNKNOIFH@Field?5Type?3?5?$CFs?6?$AA@ 00087f5c     libeay32:eck_prn.obj
 0002:00020f6c       ??_C@_0N@JOFLCJFF@ASN1?5OID?3?5?$CFs?$AA@ 00087f6c     libeay32:eck_prn.obj
 0002:00020f7c       ??_C@_04HDOCAJNK@?$CFs?$CFs?$AA@ 00087f7c     libeay32:t_pkey.obj
 0002:00020f84       ??_C@_0M@IBLDKCHK@?5?$CINegative?$CJ?$AA@ 00087f84     libeay32:t_pkey.obj
 0002:00020f90       ??_C@_0BE@KHLFKPFC@?$CFs?5?$CFs?$CFlu?5?$CI?$CFs0x?$CFlx?$CJ?6?$AA@ 00087f90     libeay32:t_pkey.obj
 0002:00020fa4       ??_C@_05NJJIPCOC@?$CFs?50?6?$AA@ 00087fa4     libeay32:t_pkey.obj
 0002:00020fb0       ??_C@_0EN@IAKMHMJK@d?3?2wm653wehh?2platform?2mvv210?2src@ 00087fb0     libeay32:ec_print.obj
 0002:00021000       ??_C@_0EP@EBOHPFGP@d?3?2wm653wehh?2platform?2mvv210?2src@ 00088000     libeay32:pk7_lib.obj
 0002:00021050       ??_C@_03MKABNOCG@Dec?$AA@  00088050     libeay32:t_x509.obj
 0002:00021054       ??_C@_03JPJOFNIA@Nov?$AA@  00088054     libeay32:t_x509.obj
 0002:00021058       ??_C@_03BMAOKBAD@Oct?$AA@  00088058     libeay32:t_x509.obj
 0002:0002105c       ??_C@_03GGCAPAJC@Sep?$AA@  0008805c     libeay32:t_x509.obj
 0002:00021060       ??_C@_03IFJFEIGA@Aug?$AA@  00088060     libeay32:t_x509.obj
 0002:00021064       ??_C@_03LBGABGKK@Jul?$AA@  00088064     libeay32:t_x509.obj
 0002:00021068       ??_C@_03IDFGHECI@Jun?$AA@  00088068     libeay32:t_x509.obj
 0002:0002106c       ??_C@_03CNMDKL@May?$AA@    0008806c     libeay32:t_x509.obj
 0002:00021070       ??_C@_03LEOLGMJP@Apr?$AA@  00088070     libeay32:t_x509.obj
 0002:00021074       ??_C@_03ODNJBKGA@Mar?$AA@  00088074     libeay32:t_x509.obj
 0002:00021078       ??_C@_03HJBDCHOM@Feb?$AA@  00088078     libeay32:t_x509.obj
 0002:0002107c       ??_C@_03JIHJHPIE@Jan?$AA@  0008807c     libeay32:t_x509.obj
 0002:00021080       ??_C@_0EN@JFBJIANP@d?3?2wm653wehh?2platform?2mvv210?2src@ 00088080     libeay32:t_x509.obj
 0002:000210d0       ??_C@_0P@FGACABCD@Bad?5time?5value?$AA@ 000880d0     libeay32:t_x509.obj
 0002:000210e0       ??_C@_0BP@OGIOIJMK@?$CFs?5?$CF2d?5?$CF02d?3?$CF02d?3?$CF02d?$CF?4?$CKs?5?$CFd?$CFs?$AA@ 000880e0     libeay32:t_x509.obj
 0002:00021100       ??_C@_04FIEKMBKB@?5GMT?$AA@ 00088100     libeay32:t_x509.obj
 0002:00021178       ??_C@_06IJDLPEM@length?$AA@ 00088178     libeay32:dh_asn1.obj
 0002:00021334       ??_C@_0P@PJJHDFJB@RSA_PSS_PARAMS?$AA@ 00088334     libeay32:rsa_asn1.obj
 0002:00021344       ??_C@_0N@KGDDKMLA@trailerField?$AA@ 00088344     libeay32:rsa_asn1.obj
 0002:00021354       ??_C@_0L@PKGNFOCE@saltLength?$AA@ 00088354     libeay32:rsa_asn1.obj
 0002:00021360       ??_C@_0BB@KKPGFJED@maskGenAlgorithm?$AA@ 00088360     libeay32:rsa_asn1.obj
 0002:00021374       ??_C@_0O@DHJLLKEK@hashAlgorithm?$AA@ 00088374     libeay32:rsa_asn1.obj
 0002:00021384       ??_C@_04BBEMPLKC@iqmp?$AA@ 00088384     libeay32:rsa_asn1.obj
 0002:0002138c       ??_C@_04PENPDGE@dmq1?$AA@  0008838c     libeay32:rsa_asn1.obj
 0002:00021394       ??_C@_04OIPJJFD@dmp1?$AA@  00088394     libeay32:rsa_asn1.obj
 0002:0002139c       ??_C@_01LPLHEDKD@d?$AA@    0008839c     libeay32:rsa_asn1.obj
 0002:000213a0       ??_C@_01KGKMHCOC@e?$AA@    000883a0     libeay32:rsa_asn1.obj
 0002:000213a4       ??_C@_02JPPHBJLD@?2?6?$AA@ 000883a4     libeay32:f_int.obj
 0002:000213a8       ??_C@_02PLJDPFIO@00?$AA@   000883a8     libeay32:f_int.obj
 0002:000213f0       ??_C@_08CKLJFNPB@PBEPARAM?$AA@ 000883f0     libeay32:p5_pbe.obj
 0002:00021400       ??_C@_0FA@NBNNIDCA@d?3?2wm653wehh?2platform?2mvv210?2src@ 00088400     libeay32:p12_key.obj
 0002:00021508       ??_C@_02HDBGODGB@?2?2?$AA@ 00088508     libeay32:a_strex.obj
 0002:0002150c       ??_C@_05JJPGCIKH@?2?$CF02X?$AA@ 0008850c     libeay32:a_strex.obj
 0002:00021514       ??_C@_01KICIPPFI@?2?$AA@   00088514     libeay32:a_strex.obj
 0002:00021518       ??_C@_07FDBPKGOC@?2U?$CF04lX?$AA@ 00088518     libeay32:a_strex.obj
 0002:00021520       ??_C@_07IOFGAIHD@?2W?$CF08lX?$AA@ 00088520     libeay32:a_strex.obj
 0002:00021528       ??_C@_0EO@POPABNG@d?3?2wm653wehh?2platform?2mvv210?2src@ 00088528     libeay32:a_strex.obj
 0002:00021578       ??_C@_01IPJKGB@?$CD?$AA@   00088578     libeay32:a_strex.obj
 0002:0002157c       ??_C@_01BJJEKLCA@?$CC?$AA@ 0008857c     libeay32:a_strex.obj
 0002:00021580       ??_C@_01NEMOKFLO@?$DN?$AA@ 00088580     libeay32:a_strex.obj
 0002:00021584       ??_C@_03MHLONNLM@?5?$DN?5?$AA@ 00088584     libeay32:a_strex.obj
 0002:00021588       ??_C@_01IHBHIGKO@?0?$AA@   00088588     libeay32:a_strex.obj
 0002:0002158c       ??_C@_01MIFGBAGJ@?$CL?$AA@ 0008858c     libeay32:a_strex.obj
 0002:00021590       ??_C@_02LNAEAIDO@?$DL?5?$AA@ 00088590     libeay32:a_strex.obj
 0002:00021594       ??_C@_03NPBFACHO@?5?$CL?5?$AA@ 00088594     libeay32:a_strex.obj
 0002:00021598       ??_C@_0M@PCEPOGPN@?8?$CI?$CJ?$CL?0?9?4?1?3?$DN?$DP?$AA@ 00088598     libeay32:a_mbstr.obj
 0002:000215a4       ??_C@_08EOPONIBF@maxsize?$DN?$AA@ 000885a4     libeay32:a_mbstr.obj
 0002:000215b0       ??_C@_03JALODAI@?$CFld?$AA@ 000885b0     libeay32:a_mbstr.obj
 0002:000215b4       ??_C@_08JJBFGKFE@minsize?$DN?$AA@ 000885b4     libeay32:a_mbstr.obj
 0002:000215c0       ??_C@_0EO@JLLBAGMI@d?3?2wm653wehh?2platform?2mvv210?2src@ 000885c0     libeay32:a_mbstr.obj
 0002:0002185c       ??_C@_06DPGELLJH@FORMAT?$AA@ 0008885c     libeay32:asn1_gen.obj
 0002:00021864       ??_C@_04HPGCGPG@FORM?$AA@  00088864     libeay32:asn1_gen.obj
 0002:0002186c       ??_C@_07JHDNPBBM@BITWRAP?$AA@ 0008886c     libeay32:asn1_gen.obj
 0002:00021874       ??_C@_07OAIMKKNN@SETWRAP?$AA@ 00088874     libeay32:asn1_gen.obj
 0002:0002187c       ??_C@_07LAEBDLGO@SEQWRAP?$AA@ 0008887c     libeay32:asn1_gen.obj
 0002:00021884       ??_C@_07KIEILLID@OCTWRAP?$AA@ 00088884     libeay32:asn1_gen.obj
 0002:0002188c       ??_C@_08PPMOEJGF@IMPLICIT?$AA@ 0008888c     libeay32:asn1_gen.obj
 0002:00021898       ??_C@_03PKFOHEJD@IMP?$AA@  00088898     libeay32:asn1_gen.obj
 0002:0002189c       ??_C@_08CNKBIFDO@EXPLICIT?$AA@ 0008889c     libeay32:asn1_gen.obj
 0002:000218a8       ??_C@_03KKGFKKLA@EXP?$AA@  000888a8     libeay32:asn1_gen.obj
 0002:000218ac       ??_C@_03NCPCKDJB@SEQ?$AA@  000888ac     libeay32:asn1_gen.obj
 0002:000218b0       ??_C@_0O@DFADMOGA@NUMERICSTRING?$AA@ 000888b0     libeay32:asn1_gen.obj
 0002:000218c0       ??_C@_07DBOJJFHC@NUMERIC?$AA@ 000888c0     libeay32:asn1_gen.obj
 0002:000218c8       ??_C@_06GBOJAPHH@GENSTR?$AA@ 000888c8     libeay32:asn1_gen.obj
 0002:000218d0       ??_C@_0O@OIKLOOAP@GeneralString?$AA@ 000888d0     libeay32:asn1_gen.obj
 0002:000218e0       ??_C@_0O@GENPGMAM@TELETEXSTRING?$AA@ 000888e0     libeay32:asn1_gen.obj
 0002:000218f0       ??_C@_09FMBHBANP@T61STRING?$AA@ 000888f0     libeay32:asn1_gen.obj
 0002:000218fc       ??_C@_03HMGPCGIG@T61?$AA@  000888fc     libeay32:asn1_gen.obj
 0002:00021900       ??_C@_09OMDMMLJJ@PRINTABLE?$AA@ 00088900     libeay32:asn1_gen.obj
 0002:0002190c       ??_C@_0BA@FKHILLED@PRINTABLESTRING?$AA@ 0008890c     libeay32:asn1_gen.obj
 0002:0002191c       ??_C@_07MCGNPFEO@VISIBLE?$AA@ 0008891c     libeay32:asn1_gen.obj
 0002:00021924       ??_C@_0O@KDAJCBO@VISIBLESTRING?$AA@ 00088924     libeay32:asn1_gen.obj
 0002:00021934       ??_C@_09BIBABMFN@BMPSTRING?$AA@ 00088934     libeay32:asn1_gen.obj
 0002:00021940       ??_C@_03CNFPPDJC@BMP?$AA@  00088940     libeay32:asn1_gen.obj
 0002:00021944       ??_C@_0L@PJIJIHJD@UTF8String?$AA@ 00088944     libeay32:asn1_gen.obj
 0002:00021950       ??_C@_04OOMJJNCF@UTF8?$AA@ 00088950     libeay32:asn1_gen.obj
 0002:00021958       ??_C@_09JOMPLKGB@IA5STRING?$AA@ 00088958     libeay32:asn1_gen.obj
 0002:00021964       ??_C@_03OLMOBCBF@IA5?$AA@  00088964     libeay32:asn1_gen.obj
 0002:00021968       ??_C@_04CBEPCLMK@UNIV?$AA@ 00088968     libeay32:asn1_gen.obj
 0002:00021970       ??_C@_0BA@EJHHDALK@UNIVERSALSTRING?$AA@ 00088970     libeay32:asn1_gen.obj
 0002:00021980       ??_C@_09MBLGEDKL@BITSTRING?$AA@ 00088980     libeay32:asn1_gen.obj
 0002:0002198c       ??_C@_06GOEDGPII@BITSTR?$AA@ 0008898c     libeay32:asn1_gen.obj
 0002:00021994       ??_C@_0M@JIDALIGG@OCTETSTRING?$AA@ 00088994     libeay32:asn1_gen.obj
 0002:000219a0       ??_C@_03LBMHMDEB@OCT?$AA@  000889a0     libeay32:asn1_gen.obj
 0002:000219a4       ??_C@_07EECHABMP@GENTIME?$AA@ 000889a4     libeay32:asn1_gen.obj
 0002:000219ac       ??_C@_0BA@LKNBIJBB@GENERALIZEDTIME?$AA@ 000889ac     libeay32:asn1_gen.obj
 0002:000219bc       ??_C@_03JCIJEFNJ@UTC?$AA@  000889bc     libeay32:asn1_gen.obj
 0002:000219c0       ??_C@_07HIOLDDN@UTCTIME?$AA@ 000889c0     libeay32:asn1_gen.obj
 0002:000219c8       ??_C@_06IAMCMNFI@OBJECT?$AA@ 000889c8     libeay32:asn1_gen.obj
 0002:000219d0       ??_C@_03PGJCFEMG@OID?$AA@  000889d0     libeay32:asn1_gen.obj
 0002:000219d4       ??_C@_0L@KNIEMAKM@ENUMERATED?$AA@ 000889d4     libeay32:asn1_gen.obj
 0002:000219e0       ??_C@_04PNKFCNMG@ENUM?$AA@ 000889e0     libeay32:asn1_gen.obj
 0002:000219e8       ??_C@_07EHCIHKNF@INTEGER?$AA@ 000889e8     libeay32:asn1_gen.obj
 0002:000219f0       ??_C@_03JMHEAPMO@INT?$AA@  000889f0     libeay32:asn1_gen.obj
 0002:000219f4       ??_C@_07JDEDMABE@BOOLEAN?$AA@ 000889f4     libeay32:asn1_gen.obj
 0002:000219fc       ??_C@_04PPJDIBFE@BOOL?$AA@ 000889fc     libeay32:asn1_gen.obj
 0002:00021a04       ??_C@_05NALEHOPE@Char?$DN?$AA@ 00088a04     libeay32:asn1_gen.obj
 0002:00021a10       ??_C@_0EP@NAHIMGLP@d?3?2wm653wehh?2platform?2mvv210?2src@ 00088a10     libeay32:asn1_gen.obj
 0002:00021a60       ??_C@_07HMNLDFAL@BITLIST?$AA@ 00088a60     libeay32:asn1_gen.obj
 0002:00021a68       ??_C@_03IECIMIEG@HEX?$AA@  00088a68     libeay32:asn1_gen.obj
 0002:00021a6c       ??_C@_05CCNLIHFO@ASCII?$AA@ 00088a6c     libeay32:asn1_gen.obj
 0002:00021a74       ??_C@_04JBGFELJA@tag?$DN?$AA@ 00088a74     libeay32:asn1_gen.obj
 0002:00021a7c       ??_C@_07IOGEOOAA@string?$DN?$AA@ 00088a7c     libeay32:asn1_gen.obj
 0002:00021a84       ??_C@_05LKMDHMJN@WIN32?$AA@ 00088a84     libeay32:conf_def.obj
 0002:00021a8c       ??_C@_0BA@EEIGDPJJ@OpenSSL?5default?$AA@ 00088a8c     libeay32:conf_def.obj
 0002:00021a9c       CONF_def_version           00088a9c     libeay32:conf_def.obj
 0002:00021ac8       ??_C@_0EP@FLILJMGH@d?3?2wm653wehh?2platform?2mvv210?2src@ 00088ac8     libeay32:conf_def.obj
 0002:00021b18       ??_C@_07PNLMPOMH@?$FL?$FL?$CFs?$FN?$FN?6?$AA@ 00088b18     libeay32:conf_def.obj
 0002:00021b20       ??_C@_0M@CLCLGKAH@?$FL?$CFs?$FN?5?$CFs?$DN?$CFs?6?$AA@ 00088b20     libeay32:conf_def.obj
 0002:00021b2c       ??_C@_05KFEICJBI@line?5?$AA@ 00088b2c     libeay32:conf_def.obj
 0002:00021b34       ??_C@_03OEJENCPE@ENV?$AA@  00088b34     libeay32:conf_api.obj
 0002:00021b38       ??_C@_0L@BFMFELMC@vv?5?$DN?$DN?5NULL?$AA@ 00088b38     libeay32:conf_api.obj
 0002:00021b48       ??_C@_0EP@PLCFAFHA@d?3?2wm653wehh?2platform?2mvv210?2src@ 00088b48     libeay32:conf_api.obj
 0002:00021b98       MD5_version                00088b98     libeay32:md5_dgst.obj
 0002:000220ec       ??_C@_0BA@JLGHGCLL@OCSP_SERVICELOC?$AA@ 000890ec     libeay32:ocsp_asn.obj
 0002:000220fc       ??_C@_07PAIKCKMF@locator?$AA@ 000890fc     libeay32:ocsp_asn.obj
 0002:00022104       ??_C@_0L@JOKCDHBA@OCSP_CRLID?$AA@ 00089104     libeay32:ocsp_asn.obj
 0002:00022110       ??_C@_07BDEAJPPO@crlTime?$AA@ 00089110     libeay32:ocsp_asn.obj
 0002:00022118       ??_C@_06DLEHNACA@crlNum?$AA@ 00089118     libeay32:ocsp_asn.obj
 0002:00022120       ??_C@_06KAALCHHK@crlUrl?$AA@ 00089120     libeay32:ocsp_asn.obj
 0002:00022128       ??_C@_0P@CPCDLAO@OCSP_BASICRESP?$AA@ 00089128     libeay32:ocsp_asn.obj
 0002:00022138       ??_C@_0BA@OOPOFNLG@tbsResponseData?$AA@ 00089138     libeay32:ocsp_asn.obj
 0002:00022148       ??_C@_0O@GNAMNHBK@OCSP_RESPDATA?$AA@ 00089148     libeay32:ocsp_asn.obj
 0002:00022158       ??_C@_0BD@LEANHDON@responseExtensions?$AA@ 00089158     libeay32:ocsp_asn.obj
 0002:0002216c       ??_C@_09NKKOBILA@responses?$AA@ 0008916c     libeay32:ocsp_asn.obj
 0002:00022178       ??_C@_0L@KADAOIGF@producedAt?$AA@ 00089178     libeay32:ocsp_asn.obj
 0002:00022184       ??_C@_0M@CPBMKBOK@responderId?$AA@ 00089184     libeay32:ocsp_asn.obj
 0002:00022190       ??_C@_0BA@CEMENBMB@OCSP_SINGLERESP?$AA@ 00089190     libeay32:ocsp_asn.obj
 0002:000221a0       ??_C@_0BB@BHCHCCEI@singleExtensions?$AA@ 000891a0     libeay32:ocsp_asn.obj
 0002:000221b4       ??_C@_0L@BEDJFPDO@thisUpdate?$AA@ 000891b4     libeay32:ocsp_asn.obj
 0002:000221c0       ??_C@_0L@IGGFAGC@certStatus?$AA@ 000891c0     libeay32:ocsp_asn.obj
 0002:000221cc       ??_C@_06JJGBHEJI@certId?$AA@ 000891cc     libeay32:ocsp_asn.obj
 0002:000221d4       ??_C@_0BA@JBJHLNOJ@OCSP_CERTSTATUS?$AA@ 000891d4     libeay32:ocsp_asn.obj
 0002:000221e4       ??_C@_0O@ICNBHFHN@value?4unknown?$AA@ 000891e4     libeay32:ocsp_asn.obj
 0002:000221f4       ??_C@_0O@GCBEBIKI@value?4revoked?$AA@ 000891f4     libeay32:ocsp_asn.obj
 0002:00022204       ??_C@_0L@MEIDNBL@value?4good?$AA@ 00089204     libeay32:ocsp_asn.obj
 0002:00022210       ??_C@_0BB@CFNKINIP@OCSP_REVOKEDINFO?$AA@ 00089210     libeay32:ocsp_asn.obj
 0002:00022224       ??_C@_0BB@JHENKMOK@revocationReason?$AA@ 00089224     libeay32:ocsp_asn.obj
 0002:00022238       ??_C@_0P@MHJPNEEK@revocationTime?$AA@ 00089238     libeay32:ocsp_asn.obj
 0002:00022248       ??_C@_0M@JBDPBGBO@OCSP_RESPID?$AA@ 00089248     libeay32:ocsp_asn.obj
 0002:00022254       ??_C@_0M@OFGLOCKB@value?4byKey?$AA@ 00089254     libeay32:ocsp_asn.obj
 0002:00022260       ??_C@_0N@OFBDHEPF@value?4byName?$AA@ 00089260     libeay32:ocsp_asn.obj
 0002:00022270       ??_C@_0O@CDJMCFNM@OCSP_RESPONSE?$AA@ 00089270     libeay32:ocsp_asn.obj
 0002:00022280       ??_C@_0O@MMHCFEHM@responseBytes?$AA@ 00089280     libeay32:ocsp_asn.obj
 0002:00022290       ??_C@_0P@GEHCLFGI@responseStatus?$AA@ 00089290     libeay32:ocsp_asn.obj
 0002:000222a0       ??_C@_0P@ONFJGMLI@OCSP_RESPBYTES?$AA@ 000892a0     libeay32:ocsp_asn.obj
 0002:000222b0       ??_C@_08HKMEAON@response?$AA@ 000892b0     libeay32:ocsp_asn.obj
 0002:000222bc       ??_C@_0N@FPIGADMM@responseType?$AA@ 000892bc     libeay32:ocsp_asn.obj
 0002:000222cc       ??_C@_0N@PCNOLOBD@OCSP_REQUEST?$AA@ 000892cc     libeay32:ocsp_asn.obj
 0002:000222dc       ??_C@_0BC@GKDKILGO@optionalSignature?$AA@ 000892dc     libeay32:ocsp_asn.obj
 0002:000222f0       ??_C@_0L@OIGCAPNH@tbsRequest?$AA@ 000892f0     libeay32:ocsp_asn.obj
 0002:000222fc       ??_C@_0N@DDBEOJJA@OCSP_REQINFO?$AA@ 000892fc     libeay32:ocsp_asn.obj
 0002:0002230c       ??_C@_0BC@CPAMEDLH@requestExtensions?$AA@ 0008930c     libeay32:ocsp_asn.obj
 0002:00022320       ??_C@_0M@NNJGDIDJ@requestList?$AA@ 00089320     libeay32:ocsp_asn.obj
 0002:0002232c       ??_C@_0O@NHDBCFOA@requestorName?$AA@ 0008932c     libeay32:ocsp_asn.obj
 0002:0002233c       ??_C@_0M@IGPHKOAK@OCSP_ONEREQ?$AA@ 0008933c     libeay32:ocsp_asn.obj
 0002:00022348       ??_C@_0BI@PPJDGJOP@singleRequestExtensions?$AA@ 00089348     libeay32:ocsp_asn.obj
 0002:00022360       ??_C@_07GCNFCODJ@reqCert?$AA@ 00089360     libeay32:ocsp_asn.obj
 0002:00022368       ??_C@_0M@OCJEDPID@OCSP_CERTID?$AA@ 00089368     libeay32:ocsp_asn.obj
 0002:00022374       ??_C@_0O@KPBFDKHB@issuerKeyHash?$AA@ 00089374     libeay32:ocsp_asn.obj
 0002:00022384       ??_C@_0P@EKEFMOEP@issuerNameHash?$AA@ 00089384     libeay32:ocsp_asn.obj
 0002:00022394       ??_C@_0P@OIPGPNII@OCSP_SIGNATURE?$AA@ 00089394     libeay32:ocsp_asn.obj
 0002:000223a4       ??_C@_05HFDFJDL@certs?$AA@ 000893a4     libeay32:ocsp_asn.obj
 0002:00022404       ??_C@_0BA@OPHCNPAP@AUTHORITY_KEYID?$AA@ 00089404     libeay32:v3_akeya.obj
 0002:00022418       ??_C@_0EP@FNGDBEGO@d?3?2wm653wehh?2platform?2mvv210?2src@ 00089418     libeay32:a_verify.obj
 0002:00022504       ??_C@_0O@DBIGEIKO@NETSCAPE_SPKI?$AA@ 00089504     libeay32:x_spki.obj
 0002:00022514       ??_C@_09JJGBLAHB@sig_algor?$AA@ 00089514     libeay32:x_spki.obj
 0002:00022520       ??_C@_05NBLLCIIN@spkac?$AA@ 00089520     libeay32:x_spki.obj
 0002:00022528       ??_C@_0P@OEBIEFNJ@NETSCAPE_SPKAC?$AA@ 00089528     libeay32:x_spki.obj
 0002:00022538       ??_C@_09DBEGHIJJ@challenge?$AA@ 00089538     libeay32:x_spki.obj
 0002:00022af0       ??_C@_0BC@DLHIINOH@PKCS7_ATTR_VERIFY?$AA@ 00089af0     libeay32:pk7_asn1.obj
 0002:00022b04       ??_C@_0BA@IJMFEGLH@PKCS7_ATTR_SIGN?$AA@ 00089b04     libeay32:pk7_asn1.obj
 0002:00022b14       ??_C@_0BB@ODHHPICH@PKCS7_ATTRIBUTES?$AA@ 00089b14     libeay32:pk7_asn1.obj
 0002:00022b28       ??_C@_0N@NAILNAH@PKCS7_DIGEST?$AA@ 00089b28     libeay32:pk7_asn1.obj
 0002:00022b38       ??_C@_02EBCANADN@md?$AA@   00089b38     libeay32:pk7_asn1.obj
 0002:00022b3c       ??_C@_0O@GIFGHKGC@PKCS7_ENCRYPT?$AA@ 00089b3c     libeay32:pk7_asn1.obj
 0002:00022b4c       ??_C@_0BE@LMHBPFDD@PKCS7_SIGN_ENVELOPE?$AA@ 00089b4c     libeay32:pk7_asn1.obj
 0002:00022b60       ??_C@_0BC@INKEDPEG@PKCS7_ENC_CONTENT?$AA@ 00089b60     libeay32:pk7_asn1.obj
 0002:00022b74       ??_C@_0N@IEAAACJL@content_type?$AA@ 00089b74     libeay32:pk7_asn1.obj
 0002:00022b84       ??_C@_0BB@MGPEFENK@PKCS7_RECIP_INFO?$AA@ 00089b84     libeay32:pk7_asn1.obj
 0002:00022b98       ??_C@_07LBLKCHGJ@enc_key?$AA@ 00089b98     libeay32:pk7_asn1.obj
 0002:00022ba0       ??_C@_0O@ODFHHMFC@key_enc_algor?$AA@ 00089ba0     libeay32:pk7_asn1.obj
 0002:00022bb0       ??_C@_0P@KCJMJLOD@PKCS7_ENVELOPE?$AA@ 00089bb0     libeay32:pk7_asn1.obj
 0002:00022bc0       ??_C@_08ENNDKKOI@enc_data?$AA@ 00089bc0     libeay32:pk7_asn1.obj
 0002:00022bcc       ??_C@_0O@HGJALPPJ@recipientinfo?$AA@ 00089bcc     libeay32:pk7_asn1.obj
 0002:00022bdc       ??_C@_0BI@POAIONGK@PKCS7_ISSUER_AND_SERIAL?$AA@ 00089bdc     libeay32:pk7_asn1.obj
 0002:00022bf4       ??_C@_0BC@BFFCPPDG@PKCS7_SIGNER_INFO?$AA@ 00089bf4     libeay32:pk7_asn1.obj
 0002:00022c08       ??_C@_0M@NNBFAOJK@unauth_attr?$AA@ 00089c08     libeay32:pk7_asn1.obj
 0002:00022c14       ??_C@_0L@PJDBOMFC@enc_digest?$AA@ 00089c14     libeay32:pk7_asn1.obj
 0002:00022c20       ??_C@_0P@KLFHBHJD@digest_enc_alg?$AA@ 00089c20     libeay32:pk7_asn1.obj
 0002:00022c30       ??_C@_09PLABOLFJ@auth_attr?$AA@ 00089c30     libeay32:pk7_asn1.obj
 0002:00022c3c       ??_C@_0L@OGBFEEJI@digest_alg?$AA@ 00089c3c     libeay32:pk7_asn1.obj
 0002:00022c48       ??_C@_0BC@PMGLGNPO@issuer_and_serial?$AA@ 00089c48     libeay32:pk7_asn1.obj
 0002:00022c5c       ??_C@_0N@CKBJFFNF@PKCS7_SIGNED?$AA@ 00089c5c     libeay32:pk7_asn1.obj
 0002:00022c6c       ??_C@_0M@KEDNAHBP@signer_info?$AA@ 00089c6c     libeay32:pk7_asn1.obj
 0002:00022c78       ??_C@_04PHJBACIC@cert?$AA@ 00089c78     libeay32:pk7_asn1.obj
 0002:00022c80       ??_C@_08ODCIAOPM@contents?$AA@ 00089c80     libeay32:pk7_asn1.obj
 0002:00022c8c       ??_C@_07MPDKKGPO@md_algs?$AA@ 00089c8c     libeay32:pk7_asn1.obj
 0002:00022c94       ??_C@_05BKMMPIPN@PKCS7?$AA@ 00089c94     libeay32:pk7_asn1.obj
 0002:00022c9c       ??_C@_0M@IDEHBFAL@d?4encrypted?$AA@ 00089c9c     libeay32:pk7_asn1.obj
 0002:00022ca8       ??_C@_08JOIJLLGO@d?4digest?$AA@ 00089ca8     libeay32:pk7_asn1.obj
 0002:00022cb4       ??_C@_0BH@FHPJHCLF@d?4signed_and_enveloped?$AA@ 00089cb4     libeay32:pk7_asn1.obj
 0002:00022ccc       ??_C@_0M@CLKMIMCI@d?4enveloped?$AA@ 00089ccc     libeay32:pk7_asn1.obj
 0002:00022cd8       ??_C@_06GOHGJFCL@d?4sign?$AA@ 00089cd8     libeay32:pk7_asn1.obj
 0002:00022d80       ??_C@_0EN@IKCJFOCD@d?3?2wm653wehh?2platform?2mvv210?2src@ 00089d80     libeay32:ecp_smpl.obj
 0002:00023280       ??_C@_0EN@JCJEBHDE@d?3?2wm653wehh?2platform?2mvv210?2src@ 0008a280     libeay32:ec2_mult.obj
 0002:00023310       ??_C@_0EM@KOFLLDDI@d?3?2wm653wehh?2platform?2mvv210?2src@ 0008a310     libeay32:bn_gf2m.obj
 0002:000233a0       ??_C@_08OPPGEJIL@X509_VAL?$AA@ 0008a3a0     libeay32:x_val.obj
 0002:00023474       ??_C@_0P@BDECDGPA@X509_CERT_PAIR?$AA@ 0008a474     libeay32:x_x509a.obj
 0002:00023484       ??_C@_07KOIEOCCE@reverse?$AA@ 0008a484     libeay32:x_x509a.obj
 0002:0002348c       ??_C@_07CJMBKHEI@forward?$AA@ 0008a48c     libeay32:x_x509a.obj
 0002:00023494       ??_C@_0O@LJIIOIG@X509_CERT_AUX?$AA@ 0008a494     libeay32:x_x509a.obj
 0002:000234a4       ??_C@_05NKHOCLEE@alias?$AA@ 0008a4a4     libeay32:x_x509a.obj
 0002:000234ac       ??_C@_06JPOFNODM@reject?$AA@ 0008a4ac     libeay32:x_x509a.obj
 0002:000234b4       ??_C@_05BMJJJIHB@trust?$AA@ 0008a4b4     libeay32:x_x509a.obj
 0002:000234d0       PEM_version                0008a4d0     libeay32:pem_lib.obj
 0002:0002357c       ??_C@_09FGHEBGDO@?$DMASN1?529?$DO?$AA@ 0008a57c     libeay32:asn1_par.obj
 0002:00023588       ??_C@_0O@DKDEPFLO@GENERALSTRING?$AA@ 0008a588     libeay32:asn1_par.obj
 0002:00023598       ??_C@_0O@MABADFB@GRAPHICSTRING?$AA@ 0008a598     libeay32:asn1_par.obj
 0002:000235a8       ??_C@_0P@LNAMNBEL@VIDEOTEXSTRING?$AA@ 0008a5a8     libeay32:asn1_par.obj
 0002:000235b8       ??_C@_09ENNLEALE@?$DMASN1?515?$DO?$AA@ 0008a5b8     libeay32:asn1_par.obj
 0002:000235c4       ??_C@_09EMBJCKID@?$DMASN1?514?$DO?$AA@ 0008a5c4     libeay32:asn1_par.obj
 0002:000235d0       ??_C@_09EJFGDMAG@?$DMASN1?513?$DO?$AA@ 0008a5d0     libeay32:asn1_par.obj
 0002:000235dc       ??_C@_0L@DCBPGANN@UTF8STRING?$AA@ 0008a5dc     libeay32:asn1_par.obj
 0002:000235e8       ??_C@_09EKNCOIGI@?$DMASN1?511?$DO?$AA@ 0008a5e8     libeay32:asn1_par.obj
 0002:000235f4       ??_C@_04PKFANLLI@REAL?$AA@ 0008a5f4     libeay32:asn1_par.obj
 0002:000235fc       ??_C@_08JHLDEHEK@EXTERNAL?$AA@ 0008a5fc     libeay32:asn1_par.obj
 0002:00023608       ??_C@_0BC@HDOCNDIH@OBJECT?5DESCRIPTOR?$AA@ 0008a608     libeay32:asn1_par.obj
 0002:0002361c       ??_C@_0N@KPGGMDFC@OCTET?5STRING?$AA@ 0008a61c     libeay32:asn1_par.obj
 0002:0002362c       ??_C@_0L@EKOKPLKE@BIT?5STRING?$AA@ 0008a62c     libeay32:asn1_par.obj
 0002:00023638       ??_C@_03NCODFONH@EOC?$AA@  0008a638     libeay32:asn1_par.obj
 0002:0002363c       ??_C@_09GPGAJHPD@?$CIunknown?$CJ?$AA@ 0008a63c     libeay32:asn1_par.obj
 0002:00023690       ??_C@_0BK@EMDNDBLP@?$CF04d?$CF02d?$CF02d?$CF02d?$CF02d?$CF02dZ?$AA@ 0008a690     libeay32:a_gentm.obj
 0002:000236b0       ??_C@_0EO@HIOEHCAC@d?3?2wm653wehh?2platform?2mvv210?2src@ 0008a6b0     libeay32:a_gentm.obj
 0002:00023740       ??_C@_0BK@PMAAGDOP@?$CF02d?$CF02d?$CF02d?$CF02d?$CF02d?$CF02dZ?$AA@ 0008a740     libeay32:a_utctm.obj
 0002:00023760       ??_C@_0EO@DLENMAPA@d?3?2wm653wehh?2platform?2mvv210?2src@ 0008a760     libeay32:a_utctm.obj
 0002:000237b0       ??_C@_0L@CFEJKCOD@TSA?5server?$AA@ 0008a7b0     libeay32:x509_trs.obj
 0002:000237bc       ??_C@_0N@CAJJAOJD@OCSP?5request?$AA@ 0008a7bc     libeay32:x509_trs.obj
 0002:000237cc       ??_C@_0P@JHCOMJOI@OCSP?5responder?$AA@ 0008a7cc     libeay32:x509_trs.obj
 0002:000237dc       ??_C@_0O@EEPBMPKP@Object?5Signer?$AA@ 0008a7dc     libeay32:x509_trs.obj
 0002:000237ec       ??_C@_0N@OEEPKGPL@S?1MIME?5email?$AA@ 0008a7ec     libeay32:x509_trs.obj
 0002:000237fc       ??_C@_0L@JNOGJJCA@compatible?$AA@ 0008a7fc     libeay32:x509_trs.obj
 0002:000238a8       ??_C@_0L@MDHNNNKP@ssl_server?$AA@ 0008a8a8     libeay32:x509_vpm.obj
 0002:000238b4       ??_C@_0L@IMDPAGCM@ssl_client?$AA@ 0008a8b4     libeay32:x509_vpm.obj
 0002:000238c0       ??_C@_0L@GGDBHMO@smime_sign?$AA@ 0008a8c0     libeay32:x509_vpm.obj
 0002:000238d0       ??_C@_0EL@LDMNJGLH@d?3?2wm653wehh?2platform?2mvv210?2src@ 0008a8d0     libeay32:ec_oct.obj
 0002:00023920       ??_C@_0FA@NCEGPJFE@d?3?2wm653wehh?2platform?2mvv210?2src@ 0008a920     libeay32:p12_utl.obj
 0002:00023970       ??_C@_0CG@ELPNGFCJ@OpenSSL?5?8win32?8?5shared?5library?5m@ 0008a970     libeay32:dso_win32.obj
 0002:00023998       ??_C@_01PKGAHCOL@?$CJ?$AA@ 0008a998     libeay32:dso_win32.obj
 0002:0002399c       ??_C@_09CCCHLKJP@filename?$CI?$AA@ 0008a99c     libeay32:dso_win32.obj
 0002:000239a8       ??_C@_0EP@KLFAEIED@d?3?2wm653wehh?2platform?2mvv210?2src@ 0008a9a8     libeay32:dso_win32.obj
 0002:000239f8       ??_C@_08MFAHALLH@symname?$CI?$AA@ 0008a9f8     libeay32:dso_win32.obj
 0002:00023a04       ??_C@_06DAJAKOAL@?$CFs?4dll?$AA@ 0008aa04     libeay32:dso_win32.obj
 0002:00023a0c       ??_C@_0BI@GJJDGJIM@CloseToolhelp32Snapshot?$AA@ 0008aa0c     libeay32:dso_win32.obj
 0002:00023a24       ??_C@_0O@CNMFJJGO@Module32First?$AA@ 0008aa24     libeay32:dso_win32.obj
 0002:00023a34       ??_C@_0N@KIGOLBLC@Module32Next?$AA@ 0008aa34     libeay32:dso_win32.obj
 0002:00023a44       ??_C@_0BJ@JEFKDHMD@CreateToolhelp32Snapshot?$AA@ 0008aa44     libeay32:dso_win32.obj
 0002:00023a60       ??_C@_1BK@NKALKHPI@?$AAT?$AAO?$AAO?$AAL?$AAH?$AAE?$AAL?$AAP?$AA?4?$AAD?$AAL?$AAL?$AA?$AA@ 0008aa60     libeay32:dso_win32.obj
 0002:00023a80       ??_C@_0FA@NNAIMOGG@d?3?2wm653wehh?2platform?2mvv210?2src@ 0008aa80     libeay32:pk7_doit.obj
 0002:00023b98       ??_C@_0CK@NJACHFBA@ctx?9?$DOlength?5?$DM?$DN?5?$CIint?$CJsizeof?$CIctx?9?$DO@ 0008ab98     libeay32:encode.obj
 0002:00023bc8       ??_C@_0EM@EJBFCLJI@d?3?2wm653wehh?2platform?2mvv210?2src@ 0008abc8     libeay32:encode.obj
 0002:00023c14       ??_C@_0BP@KGJPJK@n?5?$DM?5?$CIint?$CJsizeof?$CIctx?9?$DOenc_data?$CJ?$AA@ 0008ac14     libeay32:encode.obj
 0002:00023c34       ??_C@_04GABBLIPF@asn1?$AA@ 0008ac34     libeay32:bio_asn1.obj
 0002:00023c40       ??_C@_0EP@CPKJKHDC@d?3?2wm653wehh?2platform?2mvv210?2src@ 0008ac40     libeay32:bio_asn1.obj
 0002:00023c90       ??_C@_0BM@FIMHHPDL@ctx?9?$DObuflen?5?$DM?$DN?5ctx?9?$DObufsize?$AA@ 0008ac90     libeay32:bio_asn1.obj
 0002:00023cac       ??_C@_0BA@CNEIDKOH@base64?5encoding?$AA@ 0008acac     libeay32:bio_b64.obj
 0002:00023cc0       ??_C@_0EN@CHDAAPPK@d?3?2wm653wehh?2platform?2mvv210?2src@ 0008acc0     libeay32:bio_b64.obj
 0002:00023d10       ??_C@_0CH@JADBFJCL@ctx?9?$DObuf_off?$CLi?5?$DM?5?$CIint?$CJsizeof?$CIctx@ 0008ad10     libeay32:bio_b64.obj
 0002:00023d38       ??_C@_0BN@FPMDFEFM@ctx?9?$DObuf_len?5?$DO?$DN?5ctx?9?$DObuf_off?$AA@ 0008ad38     libeay32:bio_b64.obj
 0002:00023d58       ??_C@_0BC@BEKEPBME@ctx?9?$DOtmp_len?5?$DM?$DN?53?$AA@ 0008ad58     libeay32:bio_b64.obj
 0002:00023d6c       ??_C@_0CG@NALBBCEM@ctx?9?$DObuf_off?5?$DM?$DN?5?$CIint?$CJsizeof?$CIctx?9@ 0008ad6c     libeay32:bio_b64.obj
 0002:00023d94       ??_C@_06NOLCFJLD@i?5?$DM?$DN?5n?$AA@ 0008ad94     libeay32:bio_b64.obj
 0002:00023d9c       ??_C@_0CG@LFOFKIIN@ctx?9?$DObuf_len?5?$DM?$DN?5?$CIint?$CJsizeof?$CIctx?9@ 0008ad9c     libeay32:bio_b64.obj
 0002:00023dc4       ??_C@_0CF@ELLFOHKP@ctx?9?$DObuf_off?5?$DM?5?$CIint?$CJsizeof?$CIctx?9?$DO@ 0008adc4     libeay32:bio_b64.obj
 0002:00023dec       ??_C@_06HOHPNJLC@buffer?$AA@ 0008adec     libeay32:bf_buff.obj
 0002:00023df8       ??_C@_0EN@HLACMGKH@d?3?2wm653wehh?2platform?2mvv210?2src@ 0008adf8     libeay32:bf_buff.obj
 0002:00023e48       ??_C@_0EM@IBBLLJFJ@d?3?2wm653wehh?2platform?2mvv210?2src@ 0008ae48     libeay32:ec2_oct.obj
 0002:00023e98       ??_C@_0EM@OKKDHMMJ@d?3?2wm653wehh?2platform?2mvv210?2src@ 0008ae98     libeay32:ecp_oct.obj
 0002:000241d0       ??_C@_0BB@BIPBIGGF@PKCS12_AUTHSAFES?$AA@ 0008b1d0     libeay32:p12_asn.obj
 0002:000241e4       ??_C@_0BA@MCGBLIFE@PKCS12_SAFEBAGS?$AA@ 0008b1e4     libeay32:p12_asn.obj
 0002:000241f4       ??_C@_06CEIPPJF@attrib?$AA@ 0008b1f4     libeay32:p12_asn.obj
 0002:000241fc       ??_C@_0P@EECFPDPC@PKCS12_SAFEBAG?$AA@ 0008b1fc     libeay32:p12_asn.obj
 0002:0002420c       ??_C@_09EBGANBLK@value?4bag?$AA@ 0008b20c     libeay32:p12_asn.obj
 0002:00024218       ??_C@_0M@NFMGHALF@value?4safes?$AA@ 0008b218     libeay32:p12_asn.obj
 0002:00024224       ??_C@_0P@FIADCDOI@value?4shkeybag?$AA@ 0008b224     libeay32:p12_asn.obj
 0002:00024234       ??_C@_0N@DOAHKDFI@value?4keybag?$AA@ 0008b234     libeay32:p12_asn.obj
 0002:00024244       ??_C@_0M@BNPBMADO@PKCS12_BAGS?$AA@ 0008b244     libeay32:p12_asn.obj
 0002:00024250       ??_C@_0P@OEFHMPFE@value?4sdsicert?$AA@ 0008b250     libeay32:p12_asn.obj
 0002:00024260       ??_C@_0O@KKFHCJNP@value?4x509crl?$AA@ 0008b260     libeay32:p12_asn.obj
 0002:00024270       ??_C@_0P@IGODMFMC@value?4x509cert?$AA@ 0008b270     libeay32:p12_asn.obj
 0002:00024280       ??_C@_0M@PABGOMNF@value?4other?$AA@ 0008b280     libeay32:p12_asn.obj
 0002:0002428c       ??_C@_0BA@LPMCLHLH@PKCS12_MAC_DATA?$AA@ 0008b28c     libeay32:p12_asn.obj
 0002:0002429c       ??_C@_05DMLMEGOG@dinfo?$AA@ 0008b29c     libeay32:p12_asn.obj
 0002:000242a4       ??_C@_06CKOLGKJK@PKCS12?$AA@ 0008b2a4     libeay32:p12_asn.obj
 0002:000242ac       ??_C@_09HFIAEJAG@authsafes?$AA@ 0008b2ac     libeay32:p12_asn.obj
 0002:000242b8       ??_C@_0FA@FLDKBPHG@d?3?2wm653wehh?2platform?2mvv210?2src@ 0008b2b8     libeay32:pk7_attr.obj
 0002:00024328       ??_C@_0EM@FGPLHJJK@d?3?2wm653wehh?2platform?2mvv210?2src@ 0008b328     libeay32:bn_sqrt.obj
 0002:00024374       ??_C@_0BP@JCDKFDNH@OpenSSL?5default?5user?5interface?$AA@ 0008b374     libeay32:ui_openssl.obj
 0002:00024398       ??_C@_0EP@FLBPENKO@d?3?2wm653wehh?2platform?2mvv210?2src@ 0008b398     libeay32:ui_openssl.obj
 0002:000243e8       ??_C@_03EPNNLCDK@con?$AA@  0008b3e8     libeay32:ui_openssl.obj
 0002:000243ec       ??_C@_0BA@GANIJHKH@Verify?5failure?6?$AA@ 0008b3ec     libeay32:ui_openssl.obj
 0002:000243fc       ??_C@_0P@IOLEFIHN@Verifying?5?9?5?$CFs?$AA@ 0008b3fc     libeay32:ui_openssl.obj
 0002:0002440c       ??_C@_0BG@KLEAJEFJ@Illegal?5byte?5sequence?$AA@ 0008b40c     wcecompatex:string_extras.obj
 0002:00024424       ??_C@_0BE@ICMCHPHH@Directory?5not?5empty?$AA@ 0008b424     wcecompatex:string_extras.obj
 0002:00024438       ??_C@_0BJ@IHEHINLI@Function?5not?5implemented?$AA@ 0008b438     wcecompatex:string_extras.obj
 0002:00024454       ??_C@_0BD@CLHBCGPB@No?5locks?5available?$AA@ 0008b454     wcecompatex:string_extras.obj
 0002:00024468       ??_C@_0BC@BEDIHIDK@Filename?5too?5long?$AA@ 0008b468     wcecompatex:string_extras.obj
 0002:0002447c       ??_C@_0BK@JAEBMJJM@Resource?5deadlock?5avoided?$AA@ 0008b47c     wcecompatex:string_extras.obj
 0002:00024498       ??_C@_0BB@FCBJFCAJ@Result?5too?5large?$AA@ 0008b498     wcecompatex:string_extras.obj
 0002:000244ac       ??_C@_0N@MMJPGLJK@Domain?5error?$AA@ 0008b4ac     wcecompatex:string_extras.obj
 0002:000244bc       ??_C@_0M@LHEPIIOM@Broken?5pipe?$AA@ 0008b4bc     wcecompatex:string_extras.obj
 0002:000244c8       ??_C@_0P@PKCJJLLM@Too?5many?5links?$AA@ 0008b4c8     wcecompatex:string_extras.obj
 0002:000244d8       ??_C@_0BG@DDBFNKBH@Read?9only?5file?5system?$AA@ 0008b4d8     wcecompatex:string_extras.obj
 0002:000244f0       ??_C@_0N@FEHLOILP@Invalid?5seek?$AA@ 0008b4f0     wcecompatex:string_extras.obj
 0002:00024500       ??_C@_0BI@FEALHKLD@No?5space?5left?5on?5device?$AA@ 0008b500     wcecompatex:string_extras.obj
 0002:00024518       ??_C@_0P@LFMMIPAE@File?5too?5large?$AA@ 0008b518     wcecompatex:string_extras.obj
 0002:00024528       ??_C@_0CE@ONOKNLPF@Inappropriate?5I?1O?5control?5operat@ 0008b528     wcecompatex:string_extras.obj
 0002:0002454c       ??_C@_0BE@INBJMKGG@Too?5many?5open?5files?$AA@ 0008b54c     wcecompatex:string_extras.obj
 0002:00024560       ??_C@_0BO@IIFBODJE@Too?5many?5open?5files?5in?5system?$AA@ 0008b560     wcecompatex:string_extras.obj
 0002:00024580       ??_C@_0BB@HMGGCEBG@Invalid?5argument?$AA@ 0008b580     wcecompatex:string_extras.obj
 0002:00024594       ??_C@_0P@NDHGCGKE@Is?5a?5directory?$AA@ 0008b594     wcecompatex:string_extras.obj
 0002:000245a4       ??_C@_0BA@CJBACOOL@Not?5a?5directory?$AA@ 0008b5a4     wcecompatex:string_extras.obj
 0002:000245b4       ??_C@_0P@NLEIANHE@No?5such?5device?$AA@ 0008b5b4     wcecompatex:string_extras.obj
 0002:000245c4       ??_C@_0O@OAMDNOCP@Improper?5link?$AA@ 0008b5c4     wcecompatex:string_extras.obj
 0002:000245d4       ??_C@_0M@NAAJNNGH@File?5exists?$AA@ 0008b5d4     wcecompatex:string_extras.obj
 0002:000245e0       ??_C@_0BI@PDLELJEJ@Device?5or?5resource?5busy?$AA@ 0008b5e0     wcecompatex:string_extras.obj
 0002:000245f8       ??_C@_0O@NIPGCINC@Unknown?5error?$AA@ 0008b5f8     wcecompatex:string_extras.obj
 0002:00024608       ??_C@_0M@LOEHLCJD@Bad?5address?$AA@ 0008b608     wcecompatex:string_extras.obj
 0002:00024614       ??_C@_0BC@HFNFNKAI@Permission?5denied?$AA@ 0008b614     wcecompatex:string_extras.obj
 0002:00024628       ??_C@_0BC@BAKIAKOF@Not?5enough?5memory?$AA@ 0008b628     wcecompatex:string_extras.obj
 0002:0002463c       ??_C@_0CB@EPFKGNAK@Resource?5temporarily?5unavailable@ 0008b63c     wcecompatex:string_extras.obj
 0002:00024660       ??_C@_0BD@LOHELEP@No?5child?5processes?$AA@ 0008b660     wcecompatex:string_extras.obj
 0002:00024674       ??_C@_0BE@NFGDDCEF@Bad?5file?5descriptor?$AA@ 0008b674     wcecompatex:string_extras.obj
 0002:00024688       ??_C@_0BC@HKPNECK@Exec?5format?5error?$AA@ 0008b688     wcecompatex:string_extras.obj
 0002:0002469c       ??_C@_0BC@MFFGCDFL@Arg?5list?5too?5long?$AA@ 0008b69c     wcecompatex:string_extras.obj
 0002:000246b0       ??_C@_0BK@DPKMCKJ@No?5such?5device?5or?5address?$AA@ 0008b6b0     wcecompatex:string_extras.obj
 0002:000246cc       ??_C@_09FIANMNHE@I?1O?5error?$AA@ 0008b6cc     wcecompatex:string_extras.obj
 0002:000246d8       ??_C@_0BI@EAGLFFDI@Interrupted?5system?5call?$AA@ 0008b6d8     wcecompatex:string_extras.obj
 0002:000246f0       ??_C@_0BA@FKIAIBGA@No?5such?5process?$AA@ 0008b6f0     wcecompatex:string_extras.obj
 0002:00024700       ??_C@_0BK@FMDHKPNF@No?5such?5file?5or?5directory?$AA@ 0008b700     wcecompatex:string_extras.obj
 0002:0002471c       ??_C@_0BI@BJFCGOHL@Operation?5not?5permitted?$AA@ 0008b71c     wcecompatex:string_extras.obj
 0002:00024734       ??_C@_08INEPGKHH@No?5error?$AA@ 0008b734     wcecompatex:string_extras.obj
 0002:00024740       ??_C@_08EDHMEBNP@December?$AA@ 0008b740     wcecompatex:time.obj
 0002:0002474c       ??_C@_08HCHEGEOA@November?$AA@ 0008b74c     wcecompatex:time.obj
 0002:00024758       ??_C@_07JJNFCEND@October?$AA@ 0008b758     wcecompatex:time.obj
 0002:00024760       ??_C@_09BHHEALKD@September?$AA@ 0008b760     wcecompatex:time.obj
 0002:0002476c       ??_C@_06LBBHFDDG@August?$AA@ 0008b76c     wcecompatex:time.obj
 0002:00024774       ??_C@_04MIEPOIFP@July?$AA@ 0008b774     wcecompatex:time.obj
 0002:0002477c       ??_C@_04CNLMGBGM@June?$AA@ 0008b77c     wcecompatex:time.obj
 0002:00024784       ??_C@_05DMJDNLEJ@April?$AA@ 0008b784     wcecompatex:time.obj
 0002:0002478c       ??_C@_05HPCKOFNC@March?$AA@ 0008b78c     wcecompatex:time.obj
 0002:00024794       ??_C@_08GNJGEPFN@February?$AA@ 0008b794     wcecompatex:time.obj
 0002:000247a0       ??_C@_07CGJPFGJA@January?$AA@ 0008b7a0     wcecompatex:time.obj
 0002:000247a8       ??_C@_08INBOOONO@Saturday?$AA@ 0008b7a8     wcecompatex:time.obj
 0002:000247b4       ??_C@_06JECMNKMI@Friday?$AA@ 0008b7b4     wcecompatex:time.obj
 0002:000247bc       ??_C@_08HACCIKIA@Thursday?$AA@ 0008b7bc     wcecompatex:time.obj
 0002:000247c8       ??_C@_09DLIGFAKA@Wednesday?$AA@ 0008b7c8     wcecompatex:time.obj
 0002:000247d4       ??_C@_07BAAGCFCM@Tuesday?$AA@ 0008b7d4     wcecompatex:time.obj
 0002:000247dc       ??_C@_06JLEDEDGH@Monday?$AA@ 0008b7dc     wcecompatex:time.obj
 0002:000247e4       ??_C@_06OOPIFAJ@Sunday?$AA@ 0008b7e4     wcecompatex:time.obj
 0002:000247ec       ??_C@_03FEFJNEK@Sat?$AA@   0008b7ec     wcecompatex:time.obj
 0002:000247f0       ??_C@_03IDIOELNC@Fri?$AA@  0008b7f0     wcecompatex:time.obj
 0002:000247f4       ??_C@_03IOFIKPDN@Thu?$AA@  0008b7f4     wcecompatex:time.obj
 0002:000247f8       ??_C@_03MHOMLAJA@Wed?$AA@  0008b7f8     wcecompatex:time.obj
 0002:000247fc       ??_C@_03NAGEINEP@Tue?$AA@  0008b7fc     wcecompatex:time.obj
 0002:00024800       ??_C@_03PDAGKDH@Mon?$AA@   0008b800     wcecompatex:time.obj
 0002:00024804       ??_C@_03KOEHGMDN@Sun?$AA@  0008b804     wcecompatex:time.obj
 0002:00024824       __IMPORT_DESCRIPTOR_COREDLL 0008b824     coredll:COREDLL.dll
 0002:00024838       __NULL_IMPORT_DESCRIPTOR   0008b838     coredll:COREDLL.dll
 0003:00000000       __imp_printf               0008c000     coredll:COREDLL.dll
 0003:00000004       __imp_memcmp               0008c004     coredll:COREDLL.dll
 0003:00000008       __imp_strlen               0008c008     coredll:COREDLL.dll
 0003:0000000c       __imp_memset               0008c00c     coredll:COREDLL.dll
 0003:00000010       __imp_memcpy               0008c010     coredll:COREDLL.dll
 0003:00000014       __imp_free                 0008c014     coredll:COREDLL.dll
 0003:00000018       __imp_realloc              0008c018     coredll:COREDLL.dll
 0003:0000001c       __imp_malloc               0008c01c     coredll:COREDLL.dll
 0003:00000020       __imp_strcpy               0008c020     coredll:COREDLL.dll
 0003:00000024       __imp_strcmp               0008c024     coredll:COREDLL.dll
 0003:00000028       __imp_strncpy              0008c028     coredll:COREDLL.dll
 0003:0000002c       __imp_strchr               0008c02c     coredll:COREDLL.dll
 0003:00000030       __imp___itod               0008c030     coredll:COREDLL.dll
 0003:00000034       __imp___muld               0008c034     coredll:COREDLL.dll
 0003:00000038       __imp_MessageBoxW          0008c038     coredll:COREDLL.dll
 0003:0000003c       __imp__vsnwprintf          0008c03c     coredll:COREDLL.dll
 0003:00000040       __imp_MultiByteToWideChar  0008c040     coredll:COREDLL.dll
 0003:00000044       __imp__getstdfilex         0008c044     coredll:COREDLL.dll
 0003:00000048       __imp_memchr               0008c048     coredll:COREDLL.dll
 0003:0000004c       __imp_atoi                 0008c04c     coredll:COREDLL.dll
 0003:00000050       __imp__isctype             0008c050     coredll:COREDLL.dll
 0003:00000054       __imp_qsort                0008c054     coredll:COREDLL.dll
 0003:00000058       __imp___rt_udiv            0008c058     coredll:COREDLL.dll
 0003:0000005c       __imp___ltd                0008c05c     coredll:COREDLL.dll
 0003:00000060       __imp___negd               0008c060     coredll:COREDLL.dll
 0003:00000064       __imp___dtoi               0008c064     coredll:COREDLL.dll
 0003:00000068       __imp___subd               0008c068     coredll:COREDLL.dll
 0003:0000006c       __imp___ged                0008c06c     coredll:COREDLL.dll
 0003:00000070       __imp___rt_udiv64by64      0008c070     coredll:COREDLL.dll
 0003:00000074       __imp___rt_urem64by64      0008c074     coredll:COREDLL.dll
 0003:00000078       __imp_tolower              0008c078     coredll:COREDLL.dll
 0003:0000007c       __imp_strncmp              0008c07c     coredll:COREDLL.dll
 0003:00000080       __imp_sscanf               0008c080     coredll:COREDLL.dll
 0003:00000084       __imp_fprintf              0008c084     coredll:COREDLL.dll
 0003:00000088       __imp__strnicmp            0008c088     coredll:COREDLL.dll
 0003:0000008c       __imp_fclose               0008c08c     coredll:COREDLL.dll
 0003:00000090       __imp_GetLastError         0008c090     coredll:COREDLL.dll
 0003:00000094       __imp_ferror               0008c094     coredll:COREDLL.dll
 0003:00000098       __imp_fread                0008c098     coredll:COREDLL.dll
 0003:0000009c       __imp_fwrite               0008c09c     coredll:COREDLL.dll
 0003:000000a0       __imp__setmode             0008c0a0     coredll:COREDLL.dll
 0003:000000a4       __imp__fileno              0008c0a4     coredll:COREDLL.dll
 0003:000000a8       __imp_fopen                0008c0a8     coredll:COREDLL.dll
 0003:000000ac       __imp_fseek                0008c0ac     coredll:COREDLL.dll
 0003:000000b0       __imp_ftell                0008c0b0     coredll:COREDLL.dll
 0003:000000b4       __imp_feof                 0008c0b4     coredll:COREDLL.dll
 0003:000000b8       __imp_fflush               0008c0b8     coredll:COREDLL.dll
 0003:000000bc       __imp_strcat               0008c0bc     coredll:COREDLL.dll
 0003:000000c0       __imp_fgets                0008c0c0     coredll:COREDLL.dll
 0003:000000c4       __imp__wfopen              0008c0c4     coredll:COREDLL.dll
 0003:000000c8       __imp_strrchr              0008c0c8     coredll:COREDLL.dll
 0003:000000cc       __imp___rt_sdiv            0008c0cc     coredll:COREDLL.dll
 0003:000000d0       __imp___addd               0008c0d0     coredll:COREDLL.dll
 0003:000000d4       __imp_strtoul              0008c0d4     coredll:COREDLL.dll
 0003:000000d8       __imp__stricmp             0008c0d8     coredll:COREDLL.dll
 0003:000000dc       __imp_memmove              0008c0dc     coredll:COREDLL.dll
 0003:000000e0       __imp_GetTickCount         0008c0e0     coredll:COREDLL.dll
 0003:000000e4       __imp_QueryPerformanceCounter 0008c0e4     coredll:COREDLL.dll
 0003:000000e8       __imp_GlobalMemoryStatus   0008c0e8     coredll:COREDLL.dll
 0003:000000ec       __imp_CryptReleaseContext  0008c0ec     coredll:COREDLL.dll
 0003:000000f0       __imp_CryptGenRandom       0008c0f0     coredll:COREDLL.dll
 0003:000000f4       __imp_CryptAcquireContextW 0008c0f4     coredll:COREDLL.dll
 0003:000000f8       __imp_GetVersionExW        0008c0f8     coredll:COREDLL.dll
 0003:000000fc       __imp_LoadLibraryW         0008c0fc     coredll:COREDLL.dll
 0003:00000100       __imp_SetLastError         0008c100     coredll:COREDLL.dll
 0003:00000104       __imp_FreeLibrary          0008c104     coredll:COREDLL.dll
 0003:00000108       __imp_GetProcAddressA      0008c108     coredll:COREDLL.dll
 0003:0000010c       __imp_sprintf              0008c10c     coredll:COREDLL.dll
 0003:00000110       __imp_strstr               0008c110     coredll:COREDLL.dll
 0003:00000114       __imp_WideCharToMultiByte  0008c114     coredll:COREDLL.dll
 0003:00000118       __imp_fputs                0008c118     coredll:COREDLL.dll
 0003:0000011c       __imp_SystemTimeToFileTime 0008c11c     coredll:COREDLL.dll
 0003:00000120       __imp_GetSystemTime        0008c120     coredll:COREDLL.dll
 0003:00000124       __imp_FileTimeToSystemTime 0008c124     coredll:COREDLL.dll
 0003:00000128       __imp_LocalFree            0008c128     coredll:COREDLL.dll
 0003:0000012c       __imp__XcptFilter          0008c12c     coredll:COREDLL.dll
 0003:00000130       __imp___C_specific_handler 0008c130     coredll:COREDLL.dll
 0003:00000134       __imp_FindFirstFileW       0008c134     coredll:COREDLL.dll
 0003:00000138       __imp_FindClose            0008c138     coredll:COREDLL.dll
 0003:0000013c       __imp_FindNextFileW        0008c13c     coredll:COREDLL.dll
 0003:00000140       __imp_GetModuleFileNameW   0008c140     coredll:COREDLL.dll
 0003:00000144       \177COREDLL_NULL_THUNK_DATA 0008c144     coredll:COREDLL.dll
 0003:00000148       __xc_a                     0008c148     corelibc:crt0init.obj
 0003:0000014c       __xc_z                     0008c14c     corelibc:crt0init.obj
 0003:00000150       __xi_a                     0008c150     corelibc:crt0init.obj
 0003:00000154       __xi_z                     0008c154     corelibc:crt0init.obj
 0003:00000158       __xp_a                     0008c158     corelibc:crt0init.obj
 0003:0000015c       __xp_z                     0008c15c     corelibc:crt0init.obj
 0003:00000160       __xt_a                     0008c160     corelibc:crt0init.obj
 0003:00000164       __xt_z                     0008c164     corelibc:crt0init.obj
 0003:00000764       rand_ssleay_meth           0008c764     libeay32:md_rand.obj
 0003:00000938       default_pctx               0008c938     libeay32:tasn_prn.obj
 0003:00001038       ?messages@@3PAPADA         0008d038     wcecompatex:string_extras.obj
 0003:000011d4       app_pkey_methods           0008d1d4     libeay32:pmeth_lib.obj
 0003:00002860       OPENSSL_NONPIC_relocated   0008e860     libeay32:cryptlib.obj
 0003:00002890       cleanse_ctr                0008e890     libeay32:mem_clr.obj
 0003:00002a98       obj_cleanup_defer          0008ea98     libeay32:obj_dat.obj
 0003:00003164       _environ                   0008f164     wcecompatex:env.obj
 0003:00003168       _wenviron                  0008f168     wcecompatex:env.obj
 0003:0000316c       ?num_env_vars@@3HA         0008f16c     wcecompatex:env.obj
 0003:000031b0       errno                      0008f1b0     wcecompatex:errno.obj
 0003:000031b4       ?_timezone@@3HA            0008f1b4     wcecompatex:timeb.obj
 0003:000031b8       ?altzone@@3HA              0008f1b8     wcecompatex:timeb.obj
 0003:000031bc       ?timezone@@3HA             0008f1bc     wcecompatex:timeb.obj
 0003:000031c0       sigx_app                   0008f1c0     <common>
 0003:000031c4       sig_app                    0008f1c4     <common>
 0003:000031c8       __onexitend                0008f1c8     <common>
 0003:000031cc       __onexitbegin              0008f1cc     <common>
 0003:000031d0       _exitflag                  0008f1d0     <common>

 entry point at        0001:000547a0

 Static symbols

 0001:00000858       init                       00011858 f   libeay32:m_mdc2.obj
 0001:0000086c       update                     0001186c f   libeay32:m_mdc2.obj
 0001:00000880       final                      00011880 f   libeay32:m_mdc2.obj
 0001:000008a8       default_malloc_ex          000118a8 f   libeay32:mem.obj
 0001:000008c8       default_realloc_ex         000118c8 f   libeay32:mem.obj
 0001:000008e8       default_malloc_locked_ex   000118e8 f   libeay32:mem.obj
 0001:00000cac       pmeth_cmp_BSEARCH_CMP_FN   00011cac f   libeay32:pmeth_lib.obj
 0001:00001244       err_fns_check              00012244 f   libeay32:err.obj
 0001:000012ac       err_string_data_LHASH_HASH 000122ac f   libeay32:err.obj
 0001:000012f8       err_string_data_LHASH_COMP 000122f8 f   libeay32:err.obj
 0001:00001308       int_err_get                00012308 f   libeay32:err.obj
 0001:000013b4       int_err_del                000123b4 f   libeay32:err.obj
 0001:00001410       int_err_get_item           00012410 f   libeay32:err.obj
 0001:00001494       int_err_set_item           00012494 f   libeay32:err.obj
 0001:00001514       int_err_del_item           00012514 f   libeay32:err.obj
 0001:00001598       err_state_LHASH_HASH       00012598 f   libeay32:err.obj
 0001:000015b0       err_state_LHASH_COMP       000125b0 f   libeay32:err.obj
 0001:000015c0       int_thread_get             000125c0 f   libeay32:err.obj
 0001:00001678       int_thread_release         00012678 f   libeay32:err.obj
 0001:000016d4       int_thread_get_item        000126d4 f   libeay32:err.obj
 0001:00001778       int_thread_set_item        00012778 f   libeay32:err.obj
 0001:0000181c       int_err_get_next_lib       0001281c f   libeay32:err.obj
 0001:00001874       ERR_STATE_free             00012874 f   libeay32:err.obj
 0001:00001c2c       int_thread_del_item        00012c2c f   libeay32:err.obj
 0001:00002cfc       mdc2_body                  00013cfc f   libeay32:mdc2dgst.obj
 0001:00002fb4       pkey_cmac_init             00013fb4 f   libeay32:cm_pmeth.obj
 0001:00002fe4       pkey_cmac_copy             00013fe4 f   libeay32:cm_pmeth.obj
 0001:00003028       pkey_cmac_cleanup          00014028 f   libeay32:cm_pmeth.obj
 0001:0000303c       pkey_cmac_keygen           0001403c f   libeay32:cm_pmeth.obj
 0001:0000309c       int_update                 0001409c f   libeay32:cm_pmeth.obj
 0001:000030c4       cmac_signctx_init          000140c4 f   libeay32:cm_pmeth.obj
 0001:000030f0       cmac_signctx               000140f0 f   libeay32:cm_pmeth.obj
 0001:00003104       pkey_cmac_ctrl             00014104 f   libeay32:cm_pmeth.obj
 0001:000031d8       pkey_cmac_ctrl_str         000141d8 f   libeay32:cm_pmeth.obj
 0001:000032e8       pkey_hmac_init             000142e8 f   libeay32:hm_pmeth.obj
 0001:0000334c       pkey_hmac_copy             0001434c f   libeay32:hm_pmeth.obj
 0001:000033d4       pkey_hmac_cleanup          000143d4 f   libeay32:hm_pmeth.obj
 0001:00003420       pkey_hmac_keygen           00014420 f   libeay32:hm_pmeth.obj
 0001:00003474       int_update                 00014474 f   libeay32:hm_pmeth.obj
 0001:000034a0       hmac_signctx_init          000144a0 f   libeay32:hm_pmeth.obj
 0001:000034e0       hmac_signctx               000144e0 f   libeay32:hm_pmeth.obj
 0001:00003550       pkey_hmac_ctrl             00014550 f   libeay32:hm_pmeth.obj
 0001:000035e8       pkey_hmac_ctrl_str         000145e8 f   libeay32:hm_pmeth.obj
 0001:000036a8       pkey_ec_init               000146a8 f   libeay32:ec_pmeth.obj
 0001:000036ec       pkey_ec_copy               000146ec f   libeay32:ec_pmeth.obj
 0001:0000374c       pkey_ec_cleanup            0001474c f   libeay32:ec_pmeth.obj
 0001:0000377c       pkey_ec_sign               0001477c f   libeay32:ec_pmeth.obj
 0001:00003840       pkey_ec_verify             00014840 f   libeay32:ec_pmeth.obj
 0001:000038a0       pkey_ec_derive             000148a0 f   libeay32:ec_pmeth.obj
 0001:00003968       pkey_ec_ctrl               00014968 f   libeay32:ec_pmeth.obj
 0001:00003ab4       pkey_ec_ctrl_str           00014ab4 f   libeay32:ec_pmeth.obj
 0001:00003b60       pkey_ec_paramgen           00014b60 f   libeay32:ec_pmeth.obj
 0001:00003bf4       pkey_ec_keygen             00014bf4 f   libeay32:ec_pmeth.obj
 0001:00003c88       pkey_dsa_init              00014c88 f   libeay32:dsa_pmeth.obj
 0001:00003cf0       pkey_dsa_copy              00014cf0 f   libeay32:dsa_pmeth.obj
 0001:00003d44       pkey_dsa_cleanup           00014d44 f   libeay32:dsa_pmeth.obj
 0001:00003d60       pkey_dsa_sign              00014d60 f   libeay32:dsa_pmeth.obj
 0001:00003dd4       pkey_dsa_verify            00014dd4 f   libeay32:dsa_pmeth.obj
 0001:00003e34       pkey_dsa_ctrl              00014e34 f   libeay32:dsa_pmeth.obj
 0001:0000402c       pkey_dsa_ctrl_str          0001502c f   libeay32:dsa_pmeth.obj
 0001:00004134       pkey_dsa_paramgen          00015134 f   libeay32:dsa_pmeth.obj
 0001:000041dc       pkey_dsa_keygen            000151dc f   libeay32:dsa_pmeth.obj
 0001:00004270       pkey_dh_init               00015270 f   libeay32:dh_pmeth.obj
 0001:000042d0       pkey_dh_copy               000152d0 f   libeay32:dh_pmeth.obj
 0001:0000431c       pkey_dh_cleanup            0001531c f   libeay32:dh_pmeth.obj
 0001:00004338       pkey_dh_ctrl               00015338 f   libeay32:dh_pmeth.obj
 0001:0000438c       pkey_dh_ctrl_str           0001538c f   libeay32:dh_pmeth.obj
 0001:00004448       pkey_dh_paramgen           00015448 f   libeay32:dh_pmeth.obj
 0001:000044d4       pkey_dh_keygen             000154d4 f   libeay32:dh_pmeth.obj
 0001:00004564       pkey_dh_derive             00015564 f   libeay32:dh_pmeth.obj
 0001:000045e0       pkey_rsa_init              000155e0 f   libeay32:rsa_pmeth.obj
 0001:00004658       pkey_rsa_copy              00015658 f   libeay32:rsa_pmeth.obj
 0001:000046c8       setup_tbuf                 000156c8 f   libeay32:rsa_pmeth.obj
 0001:00004714       pkey_rsa_cleanup           00015714 f   libeay32:rsa_pmeth.obj
 0001:00004754       pkey_rsa_sign              00015754 f   libeay32:rsa_pmeth.obj
 0001:0000493c       pkey_rsa_verifyrecover     0001593c f   libeay32:rsa_pmeth.obj
 0001:00004af0       pkey_rsa_verify            00015af0 f   libeay32:rsa_pmeth.obj
 0001:00004c68       pkey_rsa_encrypt           00015c68 f   libeay32:rsa_pmeth.obj
 0001:00004cb4       pkey_rsa_decrypt           00015cb4 f   libeay32:rsa_pmeth.obj
 0001:00004d00       check_padding_md           00015d00 f   libeay32:rsa_pmeth.obj
 0001:00004d90       pkey_rsa_ctrl              00015d90 f   libeay32:rsa_pmeth.obj
 0001:000050d0       pkey_rsa_ctrl_str          000160d0 f   libeay32:rsa_pmeth.obj
 0001:00005348       pkey_rsa_keygen            00016348 f   libeay32:rsa_pmeth.obj
 0001:00005410       sn_cmp_BSEARCH_CMP_FN      00016410 f   libeay32:obj_dat.obj
 0001:0000543c       ln_cmp_BSEARCH_CMP_FN      0001643c f   libeay32:obj_dat.obj
 0001:00005718       obj_cmp_BSEARCH_CMP_FN     00016718 f   libeay32:obj_dat.obj
 0001:000061fc       internal_find              000171fc f   libeay32:stack.obj
 0001:000065a4       pkey_set_type              000175a4 f   libeay32:p_lib.obj
 0001:00006a68       int_cb_LHASH_DOALL_ARG     00017a68 f   libeay32:eng_table.obj
 0001:00006cd0       app_info_LHASH_COMP        00017cd0 f   libeay32:mem_dbg.obj
 0001:00006ce0       app_info_LHASH_HASH        00017ce0 f   libeay32:mem_dbg.obj
 0001:00006d18       pop_info                   00017d18 f   libeay32:mem_dbg.obj
 0001:00006fe0       expand                     00017fe0 f   libeay32:lhash.obj
 0001:00007118       contract                   00018118 f   libeay32:lhash.obj
 0001:00007210       getrn                      00018210 f   libeay32:lhash.obj
 0001:00007770       roundv                     00018770 f   libeay32:b_print.obj
 0001:00007800       doapr_outch                00018800 f   libeay32:b_print.obj
 0001:000078f4       fmtstr                     000188f4 f   libeay32:b_print.obj
 0001:00007a24       fmtint                     00018a24 f   libeay32:b_print.obj
 0001:00007d64       fmtfp                      00018d64 f   libeay32:b_print.obj
 0001:00008254       _dopr                      00019254 f   libeay32:b_print.obj
 0001:000093e8       rsa_get_public_exp         0001a3e8 f   libeay32:rsa_crpt.obj
 0001:00009934       asn1_get_length            0001a934 f   libeay32:asn1_lib.obj
 0001:0000b27c       strip_spaces               0001c27c f   libeay32:v3_utl.obj
 0001:0000b5f4       ipv4_from_asc              0001c5f4 f   libeay32:v3_utl.obj
 0001:0000b994       ipv6_cb                    0001c994 f   libeay32:v3_utl.obj
 0001:0000baa4       ipv6_from_asc              0001caa4 f   libeay32:v3_utl.obj
 0001:0000dd14       ecdsa_data_new             0001ed14 f   libeay32:ecs_lib.obj
 0001:0000de08       ecdsa_data_dup             0001ee08 f   libeay32:ecs_lib.obj
 0001:0000de28       ecdsa_data_free            0001ee28 f   libeay32:ecs_lib.obj
 0001:0000e4ec       ec_group_new_from_data     0001f4ec f   libeay32:ec_curve.obj
 0001:0000e9c8       sig_cb                     0001f9c8 f   libeay32:dsa_asn1.obj
 0001:0000ea5c       dsa_cb                     0001fa5c f   libeay32:dsa_asn1.obj
 0001:0000f6b8       trans_cb                   000206b8 f   libeay32:pmeth_gn.obj
 0001:0000f708       dsa_builtin_keygen         00020708 f   libeay32:dsa_key.obj
 0001:0000fb64       dh_builtin_genparams       00020b64 f   libeay32:dh_gen.obj
 0001:0000fdbc       generate_key               00020dbc f   libeay32:dh_key.obj
 0001:0000ffd4       compute_key                00020fd4 f   libeay32:dh_key.obj
 0001:0001018c       dh_bn_mod_exp              0002118c f   libeay32:dh_key.obj
 0001:00010214       dh_init                    00021214 f   libeay32:dh_key.obj
 0001:0001022c       dh_finish                  0002122c f   libeay32:dh_key.obj
 0001:00010410       bn_expand_internal         00021410 f   libeay32:bn_lib.obj
 0001:00011d7c       init                       00022d7c f   libeay32:m_sha1.obj
 0001:00011d90       update                     00022d90 f   libeay32:m_sha1.obj
 0001:00011da4       final                      00022da4 f   libeay32:m_sha1.obj
 0001:00011dcc       init224                    00022dcc f   libeay32:m_sha1.obj
 0001:00011de0       init256                    00022de0 f   libeay32:m_sha1.obj
 0001:00011df4       update256                  00022df4 f   libeay32:m_sha1.obj
 0001:00011e08       final256                   00022e08 f   libeay32:m_sha1.obj
 0001:00011e24       init384                    00022e24 f   libeay32:m_sha1.obj
 0001:00011e38       init512                    00022e38 f   libeay32:m_sha1.obj
 0001:00011e4c       update512                  00022e4c f   libeay32:m_sha1.obj
 0001:00011e60       final512                   00022e60 f   libeay32:m_sha1.obj
 0001:00012088       cms_RecipientInfo_ktri_encrypt 00023088 f   libeay32:cms_env.obj
 0001:00012214       cms_RecipientInfo_kekri_encrypt 00023214 f   libeay32:cms_env.obj
 0001:00012d88       rsa_builtin_keygen         00023d88 f   libeay32:rsa_gen.obj
 0001:00014738       ameth_cmp_BSEARCH_CMP_FN   00025738 f   libeay32:ameth_lib.obj
 0001:00014ae8       obj_name_LHASH_HASH        00025ae8 f   libeay32:o_names.obj
 0001:00014b48       obj_name_LHASH_COMP        00025b48 f   libeay32:o_names.obj
 0001:00014cd0       sig_cmp_BSEARCH_CMP_FN     00025cd0 f   libeay32:obj_xref.obj
 0001:00014ce0       sigx_cmp_BSEARCH_CMP_FN    00025ce0 f   libeay32:obj_xref.obj
 0001:00014e50       pbe2_cmp_BSEARCH_CMP_FN    00025e50 f   libeay32:evp_pbe.obj
 0001:000150f4       file_new                   000260f4 f   libeay32:bss_file.obj
 0001:00015110       file_free                  00026110 f   libeay32:bss_file.obj
 0001:0001516c       file_read                  0002616c f   libeay32:bss_file.obj
 0001:0001520c       file_write                 0002620c f   libeay32:bss_file.obj
 0001:00015258       file_ctrl                  00026258 f   libeay32:bss_file.obj
 0001:000154ec       file_gets                  000264ec f   libeay32:bss_file.obj
 0001:00015540       file_puts                  00026540 f   libeay32:bss_file.obj
 0001:000157bc       impl_check                 000267bc f   libeay32:ex_data.obj
 0001:00015810       ex_class_item_LHASH_HASH   00026810 f   libeay32:ex_data.obj
 0001:00015818       ex_class_item_LHASH_COMP   00026818 f   libeay32:ex_data.obj
 0001:00015828       ex_data_check              00026828 f   libeay32:ex_data.obj
 0001:000158a4       def_cleanup_util_cb        000268a4 f   libeay32:ex_data.obj
 0001:000158b4       def_cleanup_cb             000268b4 f   libeay32:ex_data.obj
 0001:000158dc       def_get_class              000268dc f   libeay32:ex_data.obj
 0001:000159d8       def_add_index              000269d8 f   libeay32:ex_data.obj
 0001:00015b0c       int_new_class              00026b0c f   libeay32:ex_data.obj
 0001:00015b64       int_cleanup                00026b64 f   libeay32:ex_data.obj
 0001:00015bb8       int_get_new_index          00026bb8 f   libeay32:ex_data.obj
 0001:00015db8       int_new_ex_data            00026db8 f   libeay32:ex_data.obj
 0001:00015f34       int_dup_ex_data            00026f34 f   libeay32:ex_data.obj
 0001:000160dc       int_free_ex_data           000270dc f   libeay32:ex_data.obj
 0001:000162fc       look_str_cb                000272fc f   libeay32:tb_asnmth.obj
 0001:00017510       BN_POOL_get                00028510 f   libeay32:bn_ctx.obj
 0001:000178fc       euclid                     000288fc f   libeay32:bn_gcd.obj
 0001:00017a28       BN_mod_inverse_no_branch   00028a28 f   libeay32:bn_gcd.obj
 0001:00018e94       asn1_check_tlen            00029e94 f   libeay32:tasn_dec.obj
 0001:00019094       asn1_template_ex_d2i       0002a094 f   libeay32:tasn_dec.obj
 0001:000192b0       asn1_find_end              0002a2b0 f   libeay32:tasn_dec.obj
 0001:00019404       asn1_collect               0002a404 f   libeay32:tasn_dec.obj
 0001:00019660       asn1_d2i_ex_primitive      0002a660 f   libeay32:tasn_dec.obj
 0001:0001a428       asn1_template_noexp_d2i    0002b428 f   libeay32:tasn_dec.obj
 0001:0001a844       asn1_template_ex_i2d       0002b844 f   libeay32:tasn_enc.obj
 0001:0001ab64       der_cmp                    0002bb64 f   libeay32:tasn_enc.obj
 0001:0001ad84       asn1_i2d_ex_primitive      0002bd84 f   libeay32:tasn_enc.obj
 0001:0001b25c       asn1_set_seq_out           0002c25c f   libeay32:tasn_enc.obj
 0001:0001b4a4       asn1_item_flags_i2d        0002c4a4 f   libeay32:tasn_enc.obj
 0001:0001b698       asn1_item_ex_combine_new   0002c698 f   libeay32:tasn_new.obj
 0001:0001b978       asn1_item_clear            0002c978 f   libeay32:tasn_new.obj
 0001:0001bcc8       asn1_item_combine_free     0002ccc8 f   libeay32:tasn_fre.obj
 0001:0001d5fc       i2v_AUTHORITY_INFO_ACCESS  0002e5fc f   libeay32:v3_info.obj
 0001:0001d738       v2i_AUTHORITY_INFO_ACCESS  0002e738 f   libeay32:v3_info.obj
 0001:0001dc98       ext_cmp_BSEARCH_CMP_FN     0002ec98 f   libeay32:v3_lib.obj
 0001:0001decc       ec_pre_comp_dup            0002eecc f   libeay32:ec_mult.obj
 0001:0001df08       ec_pre_comp_free           0002ef08 f   libeay32:ec_mult.obj
 0001:0001df84       ec_pre_comp_clear_free     0002ef84 f   libeay32:ec_mult.obj
 0001:0001e018       compute_wNAF               0002f018 f   libeay32:ec_mult.obj
 0001:0001f438       ecdsa_sign_setup           00030438 f   libeay32:ecs_ossl.obj
 0001:0001f820       ecdsa_do_sign              00030820 f   libeay32:ecs_ossl.obj
 0001:0001fc08       ecdsa_do_verify            00030c08 f   libeay32:ecs_ossl.obj
 0001:00020114       ecdh_data_new              00031114 f   libeay32:ech_lib.obj
 0001:00020208       ecdh_data_dup              00031208 f   libeay32:ech_lib.obj
 0001:00020228       ecdh_data_free             00031228 f   libeay32:ech_lib.obj
 0001:000202e8       bnrand                     000312e8 f   libeay32:bn_rand.obj
 0001:00020550       bn_rand_range              00031550 f   libeay32:bn_rand.obj
 0001:000208b8       bn_new                     000318b8 f   libeay32:x_bignum.obj
 0001:000208e0       bn_free                    000318e0 f   libeay32:x_bignum.obj
 0001:0002091c       bn_i2c                     0003191c f   libeay32:x_bignum.obj
 0001:0002098c       bn_c2i                     0003198c f   libeay32:x_bignum.obj
 0001:00020a04       long_new                   00031a04 f   libeay32:x_long.obj
 0001:00020a18       long_free                  00031a18 f   libeay32:x_long.obj
 0001:00020a24       long_i2c                   00031a24 f   libeay32:x_long.obj
 0001:00020adc       long_c2i                   00031adc f   libeay32:x_long.obj
 0001:00020bd0       long_print                 00031bd0 f   libeay32:x_long.obj
 0001:00020d54       dsa_do_sign                00031d54 f   libeay32:dsa_ossl.obj
 0001:00020fa4       dsa_sign_setup             00031fa4 f   libeay32:dsa_ossl.obj
 0001:00021240       dsa_do_verify              00032240 f   libeay32:dsa_ossl.obj
 0001:00021558       dsa_init                   00032558 f   libeay32:dsa_ossl.obj
 0001:00021570       dsa_finish                 00032570 f   libeay32:dsa_ossl.obj
 0001:00021924       MOD_EXP_CTIME_COPY_FROM_PREBUF 00032924 f   libeay32:bn_exp.obj
 0001:000228a4       BN_from_montgomery_word    000338a4 f   libeay32:bn_mont.obj
 0001:00023644       witness                    00034644 f   libeay32:bn_prime.obj
 0001:00023750       probable_prime_dh          00034750 f   libeay32:bn_prime.obj
 0001:00023874       probable_prime_dh_safe     00034874 f   libeay32:bn_prime.obj
 0001:0002488c       sha1_block_data_order      0003588c f   libeay32:sha1dgst.obj
 0001:00024f60       sha256_block_data_order    00035f60 f   libeay32:sha256.obj
 0001:000256f0       sha512_block_data_order    000366f0 f   libeay32:sha512.obj
 0001:00026280       cms_si_cb                  00037280 f   libeay32:cms_asn1.obj
 0001:00026394       cms_ri_cb                  00037394 f   libeay32:cms_asn1.obj
 0001:00026464       CMS_ContentInfo_adb        00037464 f   libeay32:cms_asn1.obj
 0001:00026470       cms_cb                     00037470 f   libeay32:cms_asn1.obj
 0001:00026e54       cms_get0_signed            00037e54 f   libeay32:cms_sd.obj
 0001:00026ea8       cms_sd_set_version         00037ea8 f   libeay32:cms_sd.obj
 0001:00027364       cms_SignerInfo_content_sign 00038364 f   libeay32:cms_sd.obj
 0001:00027650       nid_cmp_BSEARCH_CMP_FN     00038650 f   libeay32:v3_purp.obj
 0001:000276bc       setup_crldp                000386bc f   libeay32:v3_purp.obj
 0001:000277f0       x509v3_cache_extensions    000387f0 f   libeay32:v3_purp.obj
 0001:00027cd4       check_ca                   00038cd4 f   libeay32:v3_purp.obj
 0001:00027d3c       check_purpose_ssl_client   00038d3c f   libeay32:v3_purp.obj
 0001:00027dcc       check_purpose_ssl_server   00038dcc f   libeay32:v3_purp.obj
 0001:00027e5c       check_purpose_ns_ssl_server 00038e5c f   libeay32:v3_purp.obj
 0001:00027e9c       purpose_smime              00038e9c f   libeay32:v3_purp.obj
 0001:00027f28       check_purpose_smime_sign   00038f28 f   libeay32:v3_purp.obj
 0001:00027f70       check_purpose_smime_encrypt 00038f70 f   libeay32:v3_purp.obj
 0001:00027fb8       check_purpose_crl_sign     00038fb8 f   libeay32:v3_purp.obj
 0001:0002800c       ocsp_helper                0003900c f   libeay32:v3_purp.obj
 0001:00028034       check_purpose_timestamp_sign 00039034 f   libeay32:v3_purp.obj
 0001:000280d0       no_check                   000390d0 f   libeay32:v3_purp.obj
 0001:00028718       kek_unwrap_key             00039718 f   libeay32:cms_pwri.obj
 0001:0002889c       kek_wrap_key               0003989c f   libeay32:cms_pwri.obj
 0001:00028d14       RSA_eay_public_encrypt     00039d14 f   libeay32:rsa_eay.obj
 0001:00029064       rsa_get_blinding           0003a064 f   libeay32:rsa_eay.obj
 0001:000291d4       rsa_blinding_convert       0003a1d4 f   libeay32:rsa_eay.obj
 0001:0002925c       RSA_eay_private_encrypt    0003a25c f   libeay32:rsa_eay.obj
 0001:000296c8       RSA_eay_private_decrypt    0003a6c8 f   libeay32:rsa_eay.obj
 0001:00029b38       RSA_eay_public_decrypt     0003ab38 f   libeay32:rsa_eay.obj
 0001:00029eb0       RSA_eay_mod_exp            0003aeb0 f   libeay32:rsa_eay.obj
 0001:0002a4cc       RSA_eay_init               0003b4cc f   libeay32:rsa_eay.obj
 0001:0002a4e4       RSA_eay_finish             0003b4e4 f   libeay32:rsa_eay.obj
 0001:0002a700       cmac_size                  0003b700 f   libeay32:cm_ameth.obj
 0001:0002a708       cmac_key_free              0003b708 f   libeay32:cm_ameth.obj
 0001:0002a724       hmac_size                  0003b724 f   libeay32:hm_ameth.obj
 0001:0002a72c       hmac_key_free              0003b72c f   libeay32:hm_ameth.obj
 0001:0002a760       hmac_pkey_ctrl             0003b760 f   libeay32:hm_ameth.obj
 0001:0002a778       old_hmac_decode            0003b778 f   libeay32:hm_ameth.obj
 0001:0002a7d8       old_hmac_encode            0003b7d8 f   libeay32:hm_ameth.obj
 0001:0002a848       eckey_param2type           0003b848 f   libeay32:ec_ameth.obj
 0001:0002a930       eckey_pub_encode           0003b930 f   libeay32:ec_ameth.obj
 0001:0002aa34       eckey_type2param           0003ba34 f   libeay32:ec_ameth.obj
 0001:0002ab40       eckey_pub_decode           0003bb40 f   libeay32:ec_ameth.obj
 0001:0002ac3c       eckey_pub_cmp              0003bc3c f   libeay32:ec_ameth.obj
 0001:0002aca4       eckey_priv_decode          0003bca4 f   libeay32:ec_ameth.obj
 0001:0002aecc       eckey_priv_encode          0003becc f   libeay32:ec_ameth.obj
 0001:0002b064       int_ec_size                0003c064 f   libeay32:ec_ameth.obj
 0001:0002b078       ec_bits                    0003c078 f   libeay32:ec_ameth.obj
 0001:0002b0d4       ec_missing_parameters      0003c0d4 f   libeay32:ec_ameth.obj
 0001:0002b0f8       ec_copy_parameters         0003c0f8 f   libeay32:ec_ameth.obj
 0001:0002b148       ec_cmp_parameters          0003c148 f   libeay32:ec_ameth.obj
 0001:0002b18c       int_ec_free                0003c18c f   libeay32:ec_ameth.obj
 0001:0002b1a0       do_EC_KEY_print            0003c1a0 f   libeay32:ec_ameth.obj
 0001:0002b434       eckey_param_decode         0003c434 f   libeay32:ec_ameth.obj
 0001:0002b498       eckey_param_encode         0003c498 f   libeay32:ec_ameth.obj
 0001:0002b4ac       eckey_param_print          0003c4ac f   libeay32:ec_ameth.obj
 0001:0002b4c4       eckey_pub_print            0003c4c4 f   libeay32:ec_ameth.obj
 0001:0002b4dc       eckey_priv_print           0003c4dc f   libeay32:ec_ameth.obj
 0001:0002b4f4       old_ec_priv_decode         0003c4f4 f   libeay32:ec_ameth.obj
 0001:0002b55c       old_ec_priv_encode         0003c55c f   libeay32:ec_ameth.obj
 0001:0002b570       ec_pkey_ctrl               0003c570 f   libeay32:ec_ameth.obj
 0001:0002b6c4       dsa_pub_decode             0003c6c4 f   libeay32:dsa_ameth.obj
 0001:0002b870       dsa_pub_encode             0003c870 f   libeay32:dsa_ameth.obj
 0001:0002b9ac       dsa_priv_decode            0003c9ac f   libeay32:dsa_ameth.obj
 0001:0002bc98       dsa_priv_encode            0003cc98 f   libeay32:dsa_ameth.obj
 0001:0002bdf0       int_dsa_size               0003cdf0 f   libeay32:dsa_ameth.obj
 0001:0002be04       dsa_bits                   0003ce04 f   libeay32:dsa_ameth.obj
 0001:0002be1c       dsa_missing_parameters     0003ce1c f   libeay32:dsa_ameth.obj
 0001:0002be4c       dsa_copy_parameters        0003ce4c f   libeay32:dsa_ameth.obj
 0001:0002bf00       dsa_cmp_parameters         0003cf00 f   libeay32:dsa_ameth.obj
 0001:0002bf74       dsa_pub_cmp                0003cf74 f   libeay32:dsa_ameth.obj
 0001:0002bfa4       int_dsa_free               0003cfa4 f   libeay32:dsa_ameth.obj
 0001:0002bfb8       do_dsa_print               0003cfb8 f   libeay32:dsa_ameth.obj
 0001:0002c240       dsa_param_decode           0003d240 f   libeay32:dsa_ameth.obj
 0001:0002c2a4       dsa_param_encode           0003d2a4 f   libeay32:dsa_ameth.obj
 0001:0002c2b8       dsa_param_print            0003d2b8 f   libeay32:dsa_ameth.obj
 0001:0002c2d0       dsa_pub_print              0003d2d0 f   libeay32:dsa_ameth.obj
 0001:0002c2e8       dsa_priv_print             0003d2e8 f   libeay32:dsa_ameth.obj
 0001:0002c300       old_dsa_priv_decode        0003d300 f   libeay32:dsa_ameth.obj
 0001:0002c368       old_dsa_priv_encode        0003d368 f   libeay32:dsa_ameth.obj
 0001:0002c37c       dsa_sig_print              0003d37c f   libeay32:dsa_ameth.obj
 0001:0002c50c       dsa_pkey_ctrl              0003d50c f   libeay32:dsa_ameth.obj
 0001:0002c660       int_dh_free                0003d660 f   libeay32:dh_ameth.obj
 0001:0002c674       dh_pub_decode              0003d674 f   libeay32:dh_ameth.obj
 0001:0002c7e4       dh_pub_encode              0003d7e4 f   libeay32:dh_ameth.obj
 0001:0002c8f8       dh_priv_decode             0003d8f8 f   libeay32:dh_ameth.obj
 0001:0002ca2c       dh_priv_encode             0003da2c f   libeay32:dh_ameth.obj
 0001:0002cb78       dh_param_decode            0003db78 f   libeay32:dh_ameth.obj
 0001:0002cbdc       dh_param_encode            0003dbdc f   libeay32:dh_ameth.obj
 0001:0002cbf0       do_dh_print                0003dbf0 f   libeay32:dh_ameth.obj
 0001:0002ce7c       int_dh_size                0003de7c f   libeay32:dh_ameth.obj
 0001:0002ce90       dh_bits                    0003de90 f   libeay32:dh_ameth.obj
 0001:0002cea8       dh_cmp_parameters          0003dea8 f   libeay32:dh_ameth.obj
 0001:0002cf00       dh_copy_parameters         0003df00 f   libeay32:dh_ameth.obj
 0001:0002cf84       dh_missing_parameters      0003df84 f   libeay32:dh_ameth.obj
 0001:0002cfa4       dh_pub_cmp                 0003dfa4 f   libeay32:dh_ameth.obj
 0001:0002cff0       dh_param_print             0003dff0 f   libeay32:dh_ameth.obj
 0001:0002d014       dh_public_print            0003e014 f   libeay32:dh_ameth.obj
 0001:0002d038       dh_private_print           0003e038 f   libeay32:dh_ameth.obj
 0001:0002d05c       rsa_pub_encode             0003e05c f   libeay32:rsa_ameth.obj
 0001:0002d0d4       rsa_pub_decode             0003e0d4 f   libeay32:rsa_ameth.obj
 0001:0002d164       rsa_pub_cmp                0003e164 f   libeay32:rsa_ameth.obj
 0001:0002d1bc       old_rsa_priv_decode        0003e1bc f   libeay32:rsa_ameth.obj
 0001:0002d220       old_rsa_priv_encode        0003e220 f   libeay32:rsa_ameth.obj
 0001:0002d234       rsa_priv_encode            0003e234 f   libeay32:rsa_ameth.obj
 0001:0002d2f4       rsa_priv_decode            0003e2f4 f   libeay32:rsa_ameth.obj
 0001:0002d340       int_rsa_size               0003e340 f   libeay32:rsa_ameth.obj
 0001:0002d354       rsa_bits                   0003e354 f   libeay32:rsa_ameth.obj
 0001:0002d36c       int_rsa_free               0003e36c f   libeay32:rsa_ameth.obj
 0001:0002d380       do_rsa_print               0003e380 f   libeay32:rsa_ameth.obj
 0001:0002d71c       rsa_pub_print              0003e71c f   libeay32:rsa_ameth.obj
 0001:0002d734       rsa_priv_print             0003e734 f   libeay32:rsa_ameth.obj
 0001:0002d74c       rsa_pss_decode             0003e74c f   libeay32:rsa_ameth.obj
 0001:0002d814       rsa_pss_param_print        0003e814 f   libeay32:rsa_ameth.obj
 0001:0002da68       rsa_sig_print              0003ea68 f   libeay32:rsa_ameth.obj
 0001:0002db30       rsa_pkey_ctrl              0003eb30 f   libeay32:rsa_ameth.obj
 0001:0002dc20       rsa_item_verify            0003ec20 f   libeay32:rsa_ameth.obj
 0001:0002def0       rsa_item_sign              0003eef0 f   libeay32:rsa_ameth.obj
 0001:0002ec94       ssleay_rand_cleanup        0003fc94 f   libeay32:md_rand.obj
 0001:0002ecfc       ssleay_rand_add            0003fcfc f   libeay32:md_rand.obj
 0001:0002f094       ssleay_rand_seed           00040094 f   libeay32:md_rand.obj
 0001:0002f0d4       ssleay_rand_bytes          000400d4 f   libeay32:md_rand.obj
 0001:0002f510       ssleay_rand_nopseudo_bytes 00040510 f   libeay32:md_rand.obj
 0001:0002f524       ssleay_rand_pseudo_bytes   00040524 f   libeay32:md_rand.obj
 0001:0002f538       ssleay_rand_status         00040538 f   libeay32:md_rand.obj
 0001:00030634       x509_name_ex_new           00041634 f   libeay32:x_name.obj
 0001:000306e8       x509_name_ex_free          000416e8 f   libeay32:x_name.obj
 0001:00030740       local_sk_X509_NAME_ENTRY_free 00041740 f   libeay32:x_name.obj
 0001:00030750       local_sk_X509_NAME_ENTRY_pop_free 00041750 f   libeay32:x_name.obj
 0001:00030768       x509_name_encode           00041768 f   libeay32:x_name.obj
 0001:000308d0       x509_name_ex_print         000418d0 f   libeay32:x_name.obj
 0001:000308fc       asn1_string_canon          000418fc f   libeay32:x_name.obj
 0001:00030a68       i2d_name_canon             00041a68 f   libeay32:x_name.obj
 0001:00030af4       x509_name_canon            00041af4 f   libeay32:x_name.obj
 0001:00030c78       x509_name_ex_d2i           00041c78 f   libeay32:x_name.obj
 0001:00030e34       x509_name_ex_i2d           00041e34 f   libeay32:x_name.obj
 0001:00030fa8       table_cmp_BSEARCH_CMP_FN   00041fa8 f   libeay32:a_strnid.obj
 0001:0003146c       copy_issuer                0004246c f   libeay32:v3_alt.obj
 0001:0003159c       copy_email                 0004259c f   libeay32:v3_alt.obj
 0001:00031730       do_othername               00042730 f   libeay32:v3_alt.obj
 0001:0003180c       do_dirname                 0004280c f   libeay32:v3_alt.obj
 0001:00031d68       v2i_issuer_alt             00042d68 f   libeay32:v3_alt.obj
 0001:00031e8c       v2i_subject_alt            00042e8c f   libeay32:v3_alt.obj
 0001:00032548       init                       00043548 f   libeay32:m_md5.obj
 0001:0003255c       update                     0004355c f   libeay32:m_md5.obj
 0001:00032570       final                      00043570 f   libeay32:m_md5.obj
 0001:0003293c       pubkey_cb                  0004393c f   libeay32:x_pubkey.obj
 0001:00032be8       gnames_from_sectname       00043be8 f   libeay32:v3_crld.obj
 0001:00032c9c       set_reasons                00043c9c f   libeay32:v3_crld.obj
 0001:00032da4       print_reasons              00043da4 f   libeay32:v3_crld.obj
 0001:00032e7c       dpn_cb                     00043e7c f   libeay32:v3_crld.obj
 0001:00032f38       print_gens                 00043f38 f   libeay32:v3_crld.obj
 0001:00032fc0       print_distpoint            00043fc0 f   libeay32:v3_crld.obj
 0001:00033068       i2r_idp                    00044068 f   libeay32:v3_crld.obj
 0001:00033198       i2r_crldp                  00044198 f   libeay32:v3_crld.obj
 0001:0003332c       set_dist_point_name        0004432c f   libeay32:v3_crld.obj
 0001:00033518       crldp_from_section         00044518 f   libeay32:v3_crld.obj
 0001:00033604       v2i_crld                   00044604 f   libeay32:v3_crld.obj
 0001:000337c4       v2i_idp                    000447c4 f   libeay32:v3_crld.obj
 0001:00033990       s2i_asn1_int               00044990 f   libeay32:v3_int.obj
 0001:000339d4       i2v_POLICY_MAPPINGS        000449d4 f   libeay32:v3_pmaps.obj
 0001:00033a60       v2i_POLICY_MAPPINGS        00044a60 f   libeay32:v3_pmaps.obj
 0001:00033c70       v2i_NAME_CONSTRAINTS       00044c70 f   libeay32:v3_ncons.obj
 0001:00033e24       do_i2r_name_constraints    00044e24 f   libeay32:v3_ncons.obj
 0001:00033fd4       i2r_NAME_CONSTRAINTS       00044fd4 f   libeay32:v3_ncons.obj
 0001:00034030       i2r_pci                    00045030 f   libeay32:v3_pci.obj
 0001:00034110       process_pci_value          00045110 f   libeay32:v3_pci.obj
 0001:00034840       r2i_pci                    00045840 f   libeay32:v3_pci.obj
 0001:00034b88       i2r_ocsp_crlid             00045b88 f   libeay32:v3_ocsp.obj
 0001:00034cc0       i2r_ocsp_acutoff           00045cc0 f   libeay32:v3_ocsp.obj
 0001:00034d20       i2r_object                 00045d20 f   libeay32:v3_ocsp.obj
 0001:00034d80       ocsp_nonce_new             00045d80 f   libeay32:v3_ocsp.obj
 0001:00034d90       i2d_ocsp_nonce             00045d90 f   libeay32:v3_ocsp.obj
 0001:00034dcc       d2i_ocsp_nonce             00045dcc f   libeay32:v3_ocsp.obj
 0001:00034e80       ocsp_nonce_free            00045e80 f   libeay32:v3_ocsp.obj
 0001:00034e90       i2r_ocsp_nonce             00045e90 f   libeay32:v3_ocsp.obj
 0001:00034ef4       i2r_ocsp_nocheck           00045ef4 f   libeay32:v3_ocsp.obj
 0001:00034efc       s2i_ocsp_nocheck           00045efc f   libeay32:v3_ocsp.obj
 0001:00034f0c       i2r_ocsp_serviceloc        00045f0c f   libeay32:v3_ocsp.obj
 0001:0003501c       i2v_POLICY_CONSTRAINTS     0004601c f   libeay32:v3_pcons.obj
 0001:00035060       v2i_POLICY_CONSTRAINTS     00046060 f   libeay32:v3_pcons.obj
 0001:000351dc       i2v_EXTENDED_KEY_USAGE     000461dc f   libeay32:v3_extku.obj
 0001:00035254       v2i_EXTENDED_KEY_USAGE     00046254 f   libeay32:v3_extku.obj
 0001:00035388       sxnet_i2r                  00046388 f   libeay32:v3_sxnet.obj
 0001:000356dc       sxnet_v2i                  000466dc f   libeay32:v3_sxnet.obj
 0001:000357b8       i2v_AUTHORITY_KEYID        000467b8 f   libeay32:v3_akey.obj
 0001:00035870       v2i_AUTHORITY_KEYID        00046870 f   libeay32:v3_akey.obj
 0001:00035b80       POLICYQUALINFO_adb         00046b80 f   libeay32:v3_cpols.obj
 0001:00035bc8       nref_nos                   00046bc8 f   libeay32:v3_cpols.obj
 0001:00035ca4       notice_section             00046ca4 f   libeay32:v3_cpols.obj
 0001:00035f88       print_qualifiers           00046f88 f   libeay32:v3_cpols.obj
 0001:00036178       policy_section             00047178 f   libeay32:v3_cpols.obj
 0001:000364e4       i2r_certpol                000474e4 f   libeay32:v3_cpols.obj
 0001:00036588       r2i_certpol                00047588 f   libeay32:v3_cpols.obj
 0001:00036874       i2v_BASIC_CONSTRAINTS      00047874 f   libeay32:v3_bcons.obj
 0001:000368b8       v2i_BASIC_CONSTRAINTS      000478b8 f   libeay32:v3_bcons.obj
 0001:00036a0c       i2r_PKEY_USAGE_PERIOD      00047a0c f   libeay32:v3_pku.obj
 0001:00036d40       s2i_skey_id                00047d40 f   libeay32:v3_skey.obj
 0001:00036ec4       i2s_ASN1_IA5STRING         00047ec4 f   libeay32:v3_ia5.obj
 0001:00036f4c       s2i_ASN1_IA5STRING         00047f4c f   libeay32:v3_ia5.obj
 0001:00037080       nconf_get_string           00048080 f   libeay32:v3_conf.obj
 0001:00037090       nconf_get_section          00048090 f   libeay32:v3_conf.obj
 0001:000370a0       conf_lhash_get_string      000480a0 f   libeay32:v3_conf.obj
 0001:000370b0       conf_lhash_get_section     000480b0 f   libeay32:v3_conf.obj
 0001:000370c0       rinf_cb                    000480c0 f   libeay32:x_req.obj
 0001:00037668       ecdh_compute_key           00048668 f   libeay32:ech_ossl.obj
 0001:0003a060       crl_set_issuers            0004b060 f   libeay32:x_crl.obj
 0001:0003a1ec       setup_idp                  0004b1ec f   libeay32:x_crl.obj
 0001:0003a2f0       X509_REVOKED_cmp           0004b2f0 f   libeay32:x_crl.obj
 0001:0003a310       def_crl_verify             0004b310 f   libeay32:x_crl.obj
 0001:0003a344       def_crl_lookup             0004b344 f   libeay32:x_crl.obj
 0001:0003a4d0       crl_inf_cb                 0004b4d0 f   libeay32:x_crl.obj
 0001:0003a50c       crl_cb                     0004b50c f   libeay32:x_crl.obj
 0001:0003a770       x509_cb                    0004b770 f   libeay32:x_x509.obj
 0001:0003a92c       md_new                     0004b92c f   libeay32:bio_md.obj
 0001:0003a960       md_free                    0004b960 f   libeay32:bio_md.obj
 0001:0003a998       md_read                    0004b998 f   libeay32:bio_md.obj
 0001:0003aa28       md_write                   0004ba28 f   libeay32:bio_md.obj
 0001:0003aad8       md_ctrl                    0004bad8 f   libeay32:bio_md.obj
 0001:0003ac24       md_callback_ctrl           0004bc24 f   libeay32:bio_md.obj
 0001:0003ac4c       md_gets                    0004bc4c f   libeay32:bio_md.obj
 0001:0003ad28       mem_new                    0004bd28 f   libeay32:bss_mem.obj
 0001:0003ad64       mem_free                   0004bd64 f   libeay32:bss_mem.obj
 0001:0003adc0       mem_read                   0004bdc0 f   libeay32:bss_mem.obj
 0001:0003ae74       mem_write                  0004be74 f   libeay32:bss_mem.obj
 0001:0003af2c       mem_ctrl                   0004bf2c f   libeay32:bss_mem.obj
 0001:0003b06c       mem_gets                   0004c06c f   libeay32:bss_mem.obj
 0001:0003b0f8       mem_puts                   0004c0f8 f   libeay32:bss_mem.obj
 0001:0003b130       null_new                   0004c130 f   libeay32:bss_null.obj
 0001:0003b14c       null_free                  0004c14c f   libeay32:bss_null.obj
 0001:0003b15c       null_read                  0004c15c f   libeay32:bss_null.obj
 0001:0003b164       null_write                 0004c164 f   libeay32:bss_null.obj
 0001:0003b16c       null_ctrl                  0004c16c f   libeay32:bss_null.obj
 0001:0003b1ac       null_gets                  0004c1ac f   libeay32:bss_null.obj
 0001:0003b1b4       null_puts                  0004c1b4 f   libeay32:bss_null.obj
 0001:0003b2fc       enc_new                    0004c2fc f   libeay32:bio_enc.obj
 0001:0003b368       enc_free                   0004c368 f   libeay32:bio_enc.obj
 0001:0003b3bc       enc_read                   0004c3bc f   libeay32:bio_enc.obj
 0001:0003b55c       enc_write                  0004c55c f   libeay32:bio_enc.obj
 0001:0003b6a4       enc_ctrl                   0004c6a4 f   libeay32:bio_enc.obj
 0001:0003b8a0       enc_callback_ctrl          0004c8a0 f   libeay32:bio_enc.obj
 0001:0003bb08       do_sigver_init             0004cb08 f   libeay32:m_sigver.obj
 0001:0003d8b4       X9_62_CHARACTERISTIC_TWO_adb 0004e8b4 f   libeay32:ec_asn1.obj
 0001:0003d8cc       X9_62_FIELDID_adb          0004e8cc f   libeay32:ec_asn1.obj
 0001:0003d908       ec_asn1_group2fieldid      0004e908 f   libeay32:ec_asn1.obj
 0001:0003dc7c       ec_asn1_group2curve        0004ec7c f   libeay32:ec_asn1.obj
 0001:0003e064       ec_asn1_group2parameters   0004f064 f   libeay32:ec_asn1.obj
 0001:0003e3f8       ec_asn1_group2pkparameters 0004f3f8 f   libeay32:ec_asn1.obj
 0001:0003e4f8       ec_asn1_parameters2group   0004f4f8 f   libeay32:ec_asn1.obj
 0001:0003ecf4       ec_asn1_pkparameters2group 0004fcf4 f   libeay32:ec_asn1.obj
 0001:0003f938       pkey_cb                    00050938 f   libeay32:p8_pkey.obj
 0001:0003fad0       print_bin                  00050ad0 f   libeay32:eck_prn.obj
 0001:00040be4       dh_cb                      00051be4 f   libeay32:dh_asn1.obj
 0001:00040c70       rsa_cb                     00051c70 f   libeay32:rsa_asn1.obj
 0001:000414d0       readtimer                  000524d0 f   libeay32:rand_win.obj
 0001:00041624       send_bio_chars             00052624 f   libeay32:a_strex.obj
 0001:00041654       do_esc_char                00052654 f   libeay32:a_strex.obj
 0001:00041840       do_buf                     00052840 f   libeay32:a_strex.obj
 0001:000419ec       do_hex_dump                000529ec f   libeay32:a_strex.obj
 0001:00041a78       do_dump                    00052a78 f   libeay32:a_strex.obj
 0001:00041b64       do_print_ex                00052b64 f   libeay32:a_strex.obj
 0001:00041d34       do_indent                  00052d34 f   libeay32:a_strex.obj
 0001:00041d94       do_name_ex                 00052d94 f   libeay32:a_strex.obj
 0001:00042200       traverse_string            00053200 f   libeay32:a_mbstr.obj
 0001:00042300       in_utf8                    00053300 f   libeay32:a_mbstr.obj
 0001:00042314       out_utf8                   00053314 f   libeay32:a_mbstr.obj
 0001:00042348       cpy_asc                    00053348 f   libeay32:a_mbstr.obj
 0001:00042368       cpy_bmp                    00053368 f   libeay32:a_mbstr.obj
 0001:00042398       cpy_univ                   00053398 f   libeay32:a_mbstr.obj
 0001:000423d8       cpy_utf8                   000533d8 f   libeay32:a_mbstr.obj
 0001:0004240c       type_str                   0005340c f   libeay32:a_mbstr.obj
 0001:000429f0       parse_tagging              000539f0 f   libeay32:asn1_gen.obj
 0001:00042b30       append_exp                 00053b30 f   libeay32:asn1_gen.obj
 0001:00042c0c       bitstr_cb                  00053c0c f   libeay32:asn1_gen.obj
 0001:00042cd8       asn1_cb                    00053cd8 f   libeay32:asn1_gen.obj
 0001:00043120       asn1_str2type              00054120 f   libeay32:asn1_gen.obj
 0001:0004393c       asn1_multi                 0005493c f   libeay32:asn1_gen.obj
 0001:00043a9c       def_create                 00054a9c f   libeay32:conf_def.obj
 0001:00043af0       def_init_default           00054af0 f   libeay32:conf_def.obj
 0001:00043b18       def_init_WIN32             00054b18 f   libeay32:conf_def.obj
 0001:00043b40       def_destroy_data           00054b40 f   libeay32:conf_def.obj
 0001:00043b64       str_copy                   00054b64 f   libeay32:conf_def.obj
 0001:00043f10       dump_value_LHASH_DOALL_ARG 00054f10 f   libeay32:conf_def.obj
 0001:00043f64       def_dump                   00054f64 f   libeay32:conf_def.obj
 0001:00043f88       def_is_number              00054f88 f   libeay32:conf_def.obj
 0001:00043fa0       def_to_int                 00054fa0 f   libeay32:conf_def.obj
 0001:00043fa8       def_destroy                00054fa8 f   libeay32:conf_def.obj
 0001:00043fdc       clear_comments             00054fdc f   libeay32:conf_def.obj
 0001:00044128       def_load_bio               00055128 f   libeay32:conf_def.obj
 0001:00044960       def_load                   00055960 f   libeay32:conf_def.obj
 0001:00044ba8       conf_value_LHASH_HASH      00055ba8 f   libeay32:conf_api.obj
 0001:00044bd0       conf_value_LHASH_COMP      00055bd0 f   libeay32:conf_api.obj
 0001:00044d74       value_free_hash_LHASH_DOALL_ARG 00055d74 f   libeay32:conf_api.obj
 0001:00044d98       value_free_stack_LHASH_DOALL 00055d98 f   libeay32:conf_api.obj
 0001:000461a0       PKCS7_adb                  000571a0 f   libeay32:pk7_asn1.obj
 0001:000461ac       pk7_cb                     000571ac f   libeay32:pk7_asn1.obj
 0001:00046248       si_cb                      00057248 f   libeay32:pk7_asn1.obj
 0001:0004628c       ri_cb                      0005728c f   libeay32:pk7_asn1.obj
 0001:0004898c       nist_cp_bn_0               0005998c f   libeay32:bn_nist.obj
 0001:00049c6c       gf2m_Mdouble               0005ac6c f   libeay32:ec2_mult.obj
 0001:00049dc8       gf2m_Madd                  0005adc8 f   libeay32:ec2_mult.obj
 0001:00049f40       gf2m_Mxy                   0005af40 f   libeay32:ec2_mult.obj
 0001:0004a2ec       ec_GF2m_montgomery_point_multiply 0005b2ec f   libeay32:ec2_mult.obj
 0001:0004a888       bn_GF2m_mul_1x1            0005b888 f   libeay32:bn_gf2m.obj
 0001:0004c43c       julian_to_date             0005d43c f   libeay32:o_time.obj
 0001:0004c79c       trust_compat               0005d79c f   libeay32:x509_trs.obj
 0001:0004c7d0       obj_trust                  0005d7d0 f   libeay32:x509_trs.obj
 0001:0004c8a0       trust_1oidany              0005d8a0 f   libeay32:x509_trs.obj
 0001:0004c90c       trust_1oid                 0005d90c f   libeay32:x509_trs.obj
 0001:0004d2ec       LoadLibraryA               0005e2ec f   libeay32:dso_win32.obj
 0001:0004d38c       win32_load                 0005e38c f   libeay32:dso_win32.obj
 0001:0004d4c8       win32_unload               0005e4c8 f   libeay32:dso_win32.obj
 0001:0004d59c       win32_bind_var             0005e59c f   libeay32:dso_win32.obj
 0001:0004d6b0       win32_bind_func            0005e6b0 f   libeay32:dso_win32.obj
 0001:0004d7c4       win32_splitter             0005e7c4 f   libeay32:dso_win32.obj
 0001:0004d9f8       win32_name_converter       0005e9f8 f   libeay32:dso_win32.obj
 0001:0004dae0       win32_pathbyaddr           0005eae0 f   libeay32:dso_win32.obj
 0001:0004dd08       win32_globallookup         0005ed08 f   libeay32:dso_win32.obj
 0001:0004dea0       win32_joiner               0005eea0 f   libeay32:dso_win32.obj
 0001:0004e1d8       win32_merger               0005f1d8 f   libeay32:dso_win32.obj
 0001:0004e414       PKCS7_get_octet_string     0005f414 f   libeay32:pk7_doit.obj
 0001:0004e474       PKCS7_bio_add_digest       0005f474 f   libeay32:pk7_doit.obj
 0001:0004e568       pkcs7_encode_rinfo         0005f568 f   libeay32:pk7_doit.obj
 0001:0004eb28       PKCS7_find_digest          0005fb28 f   libeay32:pk7_doit.obj
 0001:0004edac       get_attribute              0005fdac f   libeay32:pk7_doit.obj
 0001:0004ee54       add_attribute              0005fe54 f   libeay32:pk7_doit.obj
 0001:0004ef70       do_pkcs7_signed_attrib     0005ff70 f   libeay32:pk7_doit.obj
 0001:0004fb04       asn1_bio_free              00060b04 f   libeay32:bio_asn1.obj
 0001:0004fb54       asn1_bio_flush_ex          00060b54 f   libeay32:bio_asn1.obj
 0001:0004fbf8       asn1_bio_read              00060bf8 f   libeay32:bio_asn1.obj
 0001:0004fc20       asn1_bio_gets              00060c20 f   libeay32:bio_asn1.obj
 0001:0004fc48       asn1_bio_callback_ctrl     00060c48 f   libeay32:bio_asn1.obj
 0001:0004fc70       asn1_bio_ctrl              00060c70 f   libeay32:bio_asn1.obj
 0001:0004fe18       asn1_bio_new               00060e18 f   libeay32:bio_asn1.obj
 0001:0004feb4       asn1_bio_write             00060eb4 f   libeay32:bio_asn1.obj
 0001:000500e8       asn1_bio_puts              000610e8 f   libeay32:bio_asn1.obj
 0001:00050114       b64_new                    00061114 f   libeay32:bio_b64.obj
 0001:00050184       b64_free                   00061184 f   libeay32:bio_b64.obj
 0001:000501bc       b64_read                   000611bc f   libeay32:bio_b64.obj
 0001:00050660       b64_write                  00061660 f   libeay32:bio_b64.obj
 0001:00050aa0       b64_ctrl                   00061aa0 f   libeay32:bio_b64.obj
 0001:00050cb8       b64_callback_ctrl          00061cb8 f   libeay32:bio_b64.obj
 0001:00050ce0       b64_puts                   00061ce0 f   libeay32:bio_b64.obj
 0001:00050d0c       buffer_new                 00061d0c f   libeay32:bf_buff.obj
 0001:00050dc0       buffer_free                00061dc0 f   libeay32:bf_buff.obj
 0001:00050e1c       buffer_read                00061e1c f   libeay32:bf_buff.obj
 0001:00050f5c       buffer_write               00061f5c f   libeay32:bf_buff.obj
 0001:0005111c       buffer_ctrl                0006211c f   libeay32:bf_buff.obj
 0001:000514f4       buffer_callback_ctrl       000624f4 f   libeay32:bf_buff.obj
 0001:0005151c       buffer_gets                0006251c f   libeay32:bf_buff.obj
 0001:00051624       buffer_puts                00062624 f   libeay32:bf_buff.obj
 0001:00052b6c       PKCS12_BAGS_adb            00063b6c f   libeay32:p12_asn.obj
 0001:00052b84       PKCS12_SAFEBAG_adb         00063b84 f   libeay32:p12_asn.obj
 0001:000537e0       write_string               000647e0 f   libeay32:ui_openssl.obj
 0001:00053828       open_console               00064828 f   libeay32:ui_openssl.obj
 0001:000538b4       close_console              000648b4 f   libeay32:ui_openssl.obj
 0001:00053918       read_string                00064918 f   libeay32:ui_openssl.obj
 0001:00053ab4       cmp64                      00064ab4 f   wcecompatex:time.obj
 0001:00053b00       topBit                     00064b00 f   wcecompatex:time.obj
 0001:00053c8c       div64                      00064c8c f   wcecompatex:time.obj
 0001:00054664       doexit                     00065664 f   corelibc:crt0dat.obj
 0001:00054838       ?getCmdLineArg@@YA?AW4ArgType@@PAPA_WPA_WHPAURedirArg@@PA_N@Z 00065838 f   wcecompatex:args.obj
 0001:00054b64       ?qsort_stricmp@@YAHPBX0@Z  00065b64 f   wcecompatex:args.obj
