 rmdtest

 Timestamp is 511c9ae3 (Thu Feb 14 17:05:55 2013)

 Preferred load address is 00010000

 Start         Length     Name                   Class
 0001:00000000 00055facH .text                   CODE
 0002:00000000 000238c8H .rdata                  DATA
 0002:000238c8 00000014H .xdata                  DATA
 0002:000238dc 00000014H .idata$2                DATA
 0002:000238f0 00000014H .idata$3                DATA
 0002:00023904 00000148H .idata$4                DATA
 0002:00023a4c 0000000cH .idata$6                DATA
 0002:00023a58 00000000H .edata                  DATA
 0003:00000000 00000148H .idata$5                DATA
 0003:00000148 00000004H .CRT$XCA                DATA
 0003:0000014c 00000004H .CRT$XCZ                DATA
 0003:00000150 00000004H .CRT$XIA                DATA
 0003:00000154 00000004H .CRT$XIZ                DATA
 0003:00000158 00000004H .CRT$XPA                DATA
 0003:0000015c 00000004H .CRT$XPZ                DATA
 0003:00000160 00000004H .CRT$XTA                DATA
 0003:00000164 00000004H .CRT$XTZ                DATA
 0003:00000168 00001070H .data                   DATA
 0003:000011e0 00002061H .bss                    DATA
 0004:00000000 00003538H .pdata                  DATA

  Address         Publics by Value              Rva+Base     Lib:Object

 0000:00000000       ___safe_se_handler_count   00000000     <absolute>
 0000:00000000       ___safe_se_handler_table   00000000     <absolute>
 0001:00000000       main                       00011000 f   rmdtest.obj
 0001:00000128       EVP_MD_CTX_init            00011128 f   libeay32:digest.obj
 0001:00000140       EVP_MD_CTX_create          00011140 f   libeay32:digest.obj
 0001:00000178       EVP_DigestInit_ex          00011178 f   libeay32:digest.obj
 0001:00000390       EVP_DigestUpdate           00011390 f   libeay32:digest.obj
 0001:000003a8       EVP_DigestFinal_ex         000113a8 f   libeay32:digest.obj
 0001:00000454       EVP_MD_CTX_cleanup         00011454 f   libeay32:digest.obj
 0001:00000520       EVP_MD_CTX_copy_ex         00011520 f   libeay32:digest.obj
 0001:000006d0       EVP_Digest                 000116d0 f   libeay32:digest.obj
 0001:00000774       EVP_MD_CTX_destroy         00011774 f   libeay32:digest.obj
 0001:00000790       EVP_MD_CTX_copy            00011790 f   libeay32:digest.obj
 0001:00000800       EVP_ripemd160              00011800 f   libeay32:m_ripemd.obj
 0001:0000086c       CRYPTO_free_locked         0001186c f   libeay32:mem.obj
 0001:000008c8       CRYPTO_malloc              000118c8 f   libeay32:mem.obj
 0001:000009a8       CRYPTO_realloc             000119a8 f   libeay32:mem.obj
 0001:00000a90       CRYPTO_realloc_clean       00011a90 f   libeay32:mem.obj
 0001:00000bb4       CRYPTO_free                00011bb4 f   libeay32:mem.obj
 0001:00000c28       EVP_PKEY_meth_find         00011c28 f   libeay32:pmeth_lib.obj
 0001:00000cc0       EVP_PKEY_meth_free         00011cc0 f   libeay32:pmeth_lib.obj
 0001:00000cdc       EVP_PKEY_CTX_free          00011cdc f   libeay32:pmeth_lib.obj
 0001:00000d44       EVP_PKEY_CTX_ctrl          00011d44 f   libeay32:pmeth_lib.obj
 0001:00000e68       EVP_PKEY_CTX_get0_pkey     00011e68 f   libeay32:pmeth_lib.obj
 0001:00000e70       EVP_PKEY_CTX_new           00011e70 f   libeay32:pmeth_lib.obj
 0001:00000fec       EVP_PKEY_CTX_dup           00011fec f   libeay32:pmeth_lib.obj
 0001:00001128       ENGINE_get_digest_engine   00012128 f   libeay32:tb_digest.obj
 0001:00001144       ENGINE_get_digest          00012144 f   libeay32:tb_digest.obj
 0001:00001830       ERR_get_state              00012830 f   libeay32:err.obj
 0001:00001930       ERR_set_error_data         00012930 f   libeay32:err.obj
 0001:00001984       ERR_add_error_vdata        00012984 f   libeay32:err.obj
 0001:00001a58       ERR_set_mark               00012a58 f   libeay32:err.obj
 0001:00001a98       ERR_pop_to_mark            00012a98 f   libeay32:err.obj
 0001:00001c68       ERR_put_error              00012c68 f   libeay32:err.obj
 0001:00001d5c       ERR_clear_error            00012d5c f   libeay32:err.obj
 0001:00001dc8       ERR_add_error_data         00012dc8 f   libeay32:err.obj
 0001:00001de8       ERR_peek_last_error        00012de8 f   libeay32:err.obj
 0001:00001e14       engine_unlocked_init       00012e14 f   libeay32:eng_init.obj
 0001:00001e6c       engine_unlocked_finish     00012e6c f   libeay32:eng_init.obj
 0001:00001f30       ENGINE_init                00012f30 f   libeay32:eng_init.obj
 0001:00001fac       ENGINE_finish              00012fac f   libeay32:eng_init.obj
 0001:00002050       EVP_CIPHER_CTX_block_size  00013050 f   libeay32:evp_lib.obj
 0001:0000205c       EVP_Cipher                 0001305c f   libeay32:evp_lib.obj
 0001:00002078       EVP_CIPHER_CTX_cipher      00013078 f   libeay32:evp_lib.obj
 0001:00002080       EVP_CIPHER_CTX_flags       00013080 f   libeay32:evp_lib.obj
 0001:0000208c       EVP_CIPHER_iv_length       0001308c f   libeay32:evp_lib.obj
 0001:00002094       EVP_CIPHER_CTX_iv_length   00013094 f   libeay32:evp_lib.obj
 0001:000020a0       EVP_CIPHER_key_length      000130a0 f   libeay32:evp_lib.obj
 0001:000020a8       EVP_CIPHER_CTX_key_length  000130a8 f   libeay32:evp_lib.obj
 0001:000020b0       EVP_MD_block_size          000130b0 f   libeay32:evp_lib.obj
 0001:000020b8       EVP_MD_type                000130b8 f   libeay32:evp_lib.obj
 0001:000020c0       EVP_MD_pkey_type           000130c0 f   libeay32:evp_lib.obj
 0001:000020c8       EVP_MD_size                000130c8 f   libeay32:evp_lib.obj
 0001:00002114       EVP_MD_CTX_md              00013114 f   libeay32:evp_lib.obj
 0001:00002124       EVP_MD_CTX_set_flags       00013124 f   libeay32:evp_lib.obj
 0001:00002134       EVP_MD_CTX_clear_flags     00013134 f   libeay32:evp_lib.obj
 0001:00002144       EVP_MD_CTX_test_flags      00013144 f   libeay32:evp_lib.obj
 0001:00002150       EVP_CIPHER_get_asn1_iv     00013150 f   libeay32:evp_lib.obj
 0001:000021c8       EVP_CIPHER_set_asn1_iv     000131c8 f   libeay32:evp_lib.obj
 0001:00002218       EVP_CIPHER_type            00013218 f   libeay32:evp_lib.obj
 0001:00002348       EVP_CIPHER_param_to_asn1   00013348 f   libeay32:evp_lib.obj
 0001:00002390       EVP_CIPHER_asn1_to_param   00013390 f   libeay32:evp_lib.obj
 0001:000023d8       CRYPTO_destroy_dynlockid   000133d8 f   libeay32:cryptlib.obj
 0001:000024dc       CRYPTO_get_dynlock_value   000134dc f   libeay32:cryptlib.obj
 0001:00002578       CRYPTO_THREADID_current    00013578 f   libeay32:cryptlib.obj
 0001:000025f4       CRYPTO_THREADID_cmp        000135f4 f   libeay32:cryptlib.obj
 0001:00002608       CRYPTO_THREADID_cpy        00013608 f   libeay32:cryptlib.obj
 0001:0000261c       CRYPTO_THREADID_hash       0001361c f   libeay32:cryptlib.obj
 0001:00002624       OPENSSL_showfatal          00013624 f   libeay32:cryptlib.obj
 0001:000027ac       OpenSSLDie                 000137ac f   libeay32:cryptlib.obj
 0001:000027e0       CRYPTO_memcmp              000137e0 f   libeay32:cryptlib.obj
 0001:0000281c       CRYPTO_lock                0001381c f   libeay32:cryptlib.obj
 0001:000028e8       CRYPTO_add_lock            000138e8 f   libeay32:cryptlib.obj
 0001:00002974       OPENSSL_cleanse            00013974 f   libeay32:mem_clr.obj
 0001:000029d0       RSA_sign                   000139d0 f   libeay32:rsa_sign.obj
 0001:00002c14       int_rsa_verify             00013c14 f   libeay32:rsa_sign.obj
 0001:00003000       RSA_verify                 00014000 f   libeay32:rsa_sign.obj
 0001:00003078       RIPEMD160_Init             00014078 f   libeay32:rmd_dgst.obj
 0001:000030d4       ripemd160_block_data_order 000140d4 f   libeay32:rmd_dgst.obj
 0001:000049bc       RIPEMD160_Update           000159bc f   libeay32:rmd_dgst.obj
 0001:00004ac4       RIPEMD160_Final            00015ac4 f   libeay32:rmd_dgst.obj
 0001:000070ec       OBJ_nid2obj                000180ec f   libeay32:obj_dat.obj
 0001:000071cc       OBJ_nid2sn                 000181cc f   libeay32:obj_dat.obj
 0001:000072b0       OBJ_nid2ln                 000182b0 f   libeay32:obj_dat.obj
 0001:000073d8       OBJ_bsearch_ex_            000183d8 f   libeay32:obj_dat.obj
 0001:000074bc       OBJ_bsearch_               000184bc f   libeay32:obj_dat.obj
 0001:000074e4       OBJ_obj2nid                000184e4 f   libeay32:obj_dat.obj
 0001:000075ac       OBJ_obj2txt                000185ac f   libeay32:obj_dat.obj
 0001:000078ac       OBJ_ln2nid                 000188ac f   libeay32:obj_dat.obj
 0001:0000795c       OBJ_sn2nid                 0001895c f   libeay32:obj_dat.obj
 0001:00007a0c       OBJ_txt2obj                00018a0c f   libeay32:obj_dat.obj
 0001:00007b00       sk_set_cmp_func            00018b00 f   libeay32:stack.obj
 0001:00007b1c       sk_new                     00018b1c f   libeay32:stack.obj
 0001:00007ba4       sk_insert                  00018ba4 f   libeay32:stack.obj
 0001:00007c7c       sk_delete                  00018c7c f   libeay32:stack.obj
 0001:00007ce8       sk_push                    00018ce8 f   libeay32:stack.obj
 0001:00007cfc       sk_pop                     00018cfc f   libeay32:stack.obj
 0001:00007d30       sk_free                    00018d30 f   libeay32:stack.obj
 0001:00007d5c       sk_num                     00018d5c f   libeay32:stack.obj
 0001:00007d6c       sk_value                   00018d6c f   libeay32:stack.obj
 0001:00007d98       sk_set                     00018d98 f   libeay32:stack.obj
 0001:00007dcc       sk_sort                    00018dcc f   libeay32:stack.obj
 0001:00007e08       sk_is_sorted               00018e08 f   libeay32:stack.obj
 0001:00007e18       sk_new_null                00018e18 f   libeay32:stack.obj
 0001:00007e2c       sk_delete_ptr              00018e2c f   libeay32:stack.obj
 0001:00007f40       sk_find                    00018f40 f   libeay32:stack.obj
 0001:00007f54       sk_pop_free                00018f54 f   libeay32:stack.obj
 0001:00007fbc       EVP_PKEY_bits              00018fbc f   libeay32:p_lib.obj
 0001:00007ffc       EVP_PKEY_size              00018ffc f   libeay32:p_lib.obj
 0001:0000803c       EVP_PKEY_missing_parameters 0001903c f   libeay32:p_lib.obj
 0001:00008074       EVP_PKEY_new               00019074 f   libeay32:p_lib.obj
 0001:000080f0       EVP_PKEY_type              000190f0 f   libeay32:p_lib.obj
 0001:0000812c       EVP_PKEY_id                0001912c f   libeay32:p_lib.obj
 0001:00008134       EVP_PKEY_get_default_digest_nid 00019134 f   libeay32:p_lib.obj
 0001:00008178       EVP_PKEY_copy_parameters   00019178 f   libeay32:p_lib.obj
 0001:00008364       EVP_PKEY_set_type          00019364 f   libeay32:p_lib.obj
 0001:0000837c       EVP_PKEY_assign            0001937c f   libeay32:p_lib.obj
 0001:000083b4       EVP_PKEY_free              000193b4 f   libeay32:p_lib.obj
 0001:00008460       EVP_get_cipherbyname       00019460 f   libeay32:names.obj
 0001:00008474       EVP_get_digestbyname       00019474 f   libeay32:names.obj
 0001:00008488       ENGINE_get_pkey_meth_engine 00019488 f   libeay32:tb_pkmeth.obj
 0001:000084a4       engine_pkey_meths_free     000194a4 f   libeay32:tb_pkmeth.obj
 0001:00008524       ENGINE_get_pkey_meth       00019524 f   libeay32:tb_pkmeth.obj
 0001:00008588       engine_table_select        00019588 f   libeay32:eng_table.obj
 0001:00008714       engine_table_doall         00019714 f   libeay32:eng_table.obj
 0001:00008748       CRYPTO_mem_ctrl            00019748 f   libeay32:mem_dbg.obj
 0001:000088bc       CRYPTO_is_mem_check_on     000198bc f   libeay32:mem_dbg.obj
 0001:00008a38       CRYPTO_push_info_          00019a38 f   libeay32:mem_dbg.obj
 0001:00008b08       CRYPTO_pop_info            00019b08 f   libeay32:mem_dbg.obj
 0001:00008b48       lh_free                    00019b48 f   libeay32:lhash.obj
 0001:00008bb0       lh_doall                   00019bb0 f   libeay32:lhash.obj
 0001:00008c04       lh_doall_arg               00019c04 f   libeay32:lhash.obj
 0001:00008f68       lh_strhash                 00019f68 f   libeay32:lhash.obj
 0001:00008fd4       lh_num_items               00019fd4 f   libeay32:lhash.obj
 0001:00008fe4       lh_new                     00019fe4 f   libeay32:lhash.obj
 0001:000090e0       lh_insert                  0001a0e0 f   libeay32:lhash.obj
 0001:000091c4       lh_delete                  0001a1c4 f   libeay32:lhash.obj
 0001:00009270       lh_retrieve                0001a270 f   libeay32:lhash.obj
 0001:000092c0       BUF_strlcpy                0001a2c0 f   libeay32:buf_str.obj
 0001:00009310       BUF_strlcat                0001a310 f   libeay32:buf_str.obj
 0001:0000934c       BUF_strndup                0001a34c f   libeay32:buf_str.obj
 0001:000093c0       BUF_strdup                 0001a3c0 f   libeay32:buf_str.obj
 0001:0000a488       BIO_vprintf                0001b488 f   libeay32:b_print.obj
 0001:0000a550       BIO_vsnprintf              0001b550 f   libeay32:b_print.obj
 0001:0000a5b4       BIO_printf                 0001b5b4 f   libeay32:b_print.obj
 0001:0000a5d4       BIO_snprintf               0001b5d4 f   libeay32:b_print.obj
 0001:0000a5f4       engine_free_util           0001b5f4 f   libeay32:eng_lib.obj
 0001:0000a6b4       ENGINE_free                0001b6b4 f   libeay32:eng_lib.obj
 0001:0000a6c8       ASN1_TYPE_set_octetstring  0001b6c8 f   libeay32:evp_asn1.obj
 0001:0000a728       ASN1_TYPE_get_octetstring  0001b728 f   libeay32:evp_asn1.obj
 0001:0000a79c       a2d_ASN1_OBJECT            0001b79c f   libeay32:a_object.obj
 0001:0000ab74       i2t_ASN1_OBJECT            0001bb74 f   libeay32:a_object.obj
 0001:0000ab88       i2a_ASN1_OBJECT            0001bb88 f   libeay32:a_object.obj
 0001:0000ac64       ASN1_OBJECT_new            0001bc64 f   libeay32:a_object.obj
 0001:0000ace0       ASN1_OBJECT_free           0001bce0 f   libeay32:a_object.obj
 0001:0000ad60       c2i_ASN1_OBJECT            0001bd60 f   libeay32:a_object.obj
 0001:0000aef4       d2i_ASN1_OBJECT            0001bef4 f   libeay32:a_object.obj
 0001:0000af94       RSA_size                   0001bf94 f   libeay32:rsa_crpt.obj
 0001:0000afb8       RSA_public_encrypt         0001bfb8 f   libeay32:rsa_crpt.obj
 0001:0000afe4       RSA_private_encrypt        0001bfe4 f   libeay32:rsa_crpt.obj
 0001:0000b010       RSA_private_decrypt        0001c010 f   libeay32:rsa_crpt.obj
 0001:0000b03c       RSA_public_decrypt         0001c03c f   libeay32:rsa_crpt.obj
 0001:0000b14c       RSA_setup_blinding         0001c14c f   libeay32:rsa_crpt.obj
 0001:0000b320       X509_SIG_it                0001c320 f   libeay32:x_sig.obj
 0001:0000b32c       d2i_X509_SIG               0001c32c f   libeay32:x_sig.obj
 0001:0000b344       i2d_X509_SIG               0001c344 f   libeay32:x_sig.obj
 0001:0000b35c       X509_SIG_free              0001c35c f   libeay32:x_sig.obj
 0001:0000b374       ASN1_TYPE_get              0001c374 f   libeay32:a_type.obj
 0001:0000b398       ASN1_TYPE_set              0001c398 f   libeay32:a_type.obj
 0001:0000b404       ASN1_TYPE_set1             0001c404 f   libeay32:a_type.obj
 0001:0000b478       CMAC_CTX_new               0001c478 f   libeay32:cmac.obj
 0001:0000b4b8       CMAC_CTX_cleanup           0001c4b8 f   libeay32:cmac.obj
 0001:0000b504       CMAC_CTX_free              0001c504 f   libeay32:cmac.obj
 0001:0000b520       CMAC_CTX_copy              0001c520 f   libeay32:cmac.obj
 0001:0000b5b0       CMAC_Init                  0001c5b0 f   libeay32:cmac.obj
 0001:0000b82c       CMAC_Update                0001c82c f   libeay32:cmac.obj
 0001:0000b910       CMAC_Final                 0001c910 f   libeay32:cmac.obj
 0001:0000ba10       X509V3_add_value           0001ca10 f   libeay32:v3_utl.obj
 0001:0000bb08       X509V3_add_value_uchar     0001cb08 f   libeay32:v3_utl.obj
 0001:0000bb18       X509V3_conf_free           0001cb18 f   libeay32:v3_utl.obj
 0001:0000bb64       X509V3_add_value_bool      0001cb64 f   libeay32:v3_utl.obj
 0001:0000bb88       i2s_ASN1_ENUMERATED        0001cb88 f   libeay32:v3_utl.obj
 0001:0000bbf8       i2s_ASN1_INTEGER           0001cbf8 f   libeay32:v3_utl.obj
 0001:0000bc68       s2i_ASN1_INTEGER           0001cc68 f   libeay32:v3_utl.obj
 0001:0000bdb8       X509V3_add_value_int       0001cdb8 f   libeay32:v3_utl.obj
 0001:0000be0c       X509V3_get_value_bool      0001ce0c f   libeay32:v3_utl.obj
 0001:0000bfc8       X509V3_get_value_int       0001cfc8 f   libeay32:v3_utl.obj
 0001:0000c0dc       hex_to_string              0001d0dc f   libeay32:v3_utl.obj
 0001:0000c19c       string_to_hex              0001d19c f   libeay32:v3_utl.obj
 0001:0000c364       name_cmp                   0001d364 f   libeay32:v3_utl.obj
 0001:0000c448       X509V3_NAME_from_section   0001d448 f   libeay32:v3_utl.obj
 0001:0000c530       X509V3_parse_list          0001d530 f   libeay32:v3_utl.obj
 0001:0000c9a0       a2i_ipadd                  0001d9a0 f   libeay32:v3_utl.obj
 0001:0000ca04       a2i_IPADDRESS              0001da04 f   libeay32:v3_utl.obj
 0001:0000ca60       a2i_IPADDRESS_NC           0001da60 f   libeay32:v3_utl.obj
 0001:0000cb2c       HMAC_Init_ex               0001db2c f   libeay32:hmac.obj
 0001:0000cd24       HMAC_Update                0001dd24 f   libeay32:hmac.obj
 0001:0000cd38       HMAC_Final                 0001dd38 f   libeay32:hmac.obj
 0001:0000cdc0       HMAC_CTX_init              0001ddc0 f   libeay32:hmac.obj
 0001:0000cde8       HMAC_CTX_copy              0001dde8 f   libeay32:hmac.obj
 0001:0000ce68       HMAC_CTX_cleanup           0001de68 f   libeay32:hmac.obj
 0001:0000cea0       HMAC_CTX_set_flags         0001dea0 f   libeay32:hmac.obj
 0001:0000ced4       HMAC_Init                  0001ded4 f   libeay32:hmac.obj
 0001:0000cf38       HMAC                       0001df38 f   libeay32:hmac.obj
 0001:0000cfe4       ASN1_OCTET_STRING_dup      0001dfe4 f   libeay32:a_octet.obj
 0001:0000cff4       ASN1_OCTET_STRING_set      0001dff4 f   libeay32:a_octet.obj
 0001:0000d004       EC_GROUP_new               0001e004 f   libeay32:ec_lib.obj
 0001:0000d104       EC_GROUP_method_of         0001e104 f   libeay32:ec_lib.obj
 0001:0000d10c       EC_METHOD_get_field_type   0001e10c f   libeay32:ec_lib.obj
 0001:0000d114       EC_GROUP_get0_generator    0001e114 f   libeay32:ec_lib.obj
 0001:0000d11c       EC_GROUP_get_order         0001e11c f   libeay32:ec_lib.obj
 0001:0000d150       EC_GROUP_get_cofactor      0001e150 f   libeay32:ec_lib.obj
 0001:0000d188       EC_GROUP_set_curve_name    0001e188 f   libeay32:ec_lib.obj
 0001:0000d190       EC_GROUP_get_curve_name    0001e190 f   libeay32:ec_lib.obj
 0001:0000d198       EC_GROUP_set_asn1_flag     0001e198 f   libeay32:ec_lib.obj
 0001:0000d1a0       EC_GROUP_get_asn1_flag     0001e1a0 f   libeay32:ec_lib.obj
 0001:0000d1a8       EC_GROUP_set_point_conversion_form 0001e1a8 f   libeay32:ec_lib.obj
 0001:0000d1b0       EC_GROUP_get_point_conversion_form 0001e1b0 f   libeay32:ec_lib.obj
 0001:0000d1b8       EC_GROUP_set_seed          0001e1b8 f   libeay32:ec_lib.obj
 0001:0000d244       EC_GROUP_get0_seed         0001e244 f   libeay32:ec_lib.obj
 0001:0000d24c       EC_GROUP_get_seed_len      0001e24c f   libeay32:ec_lib.obj
 0001:0000d254       EC_GROUP_set_curve_GFp     0001e254 f   libeay32:ec_lib.obj
 0001:0000d2bc       EC_GROUP_get_curve_GFp     0001e2bc f   libeay32:ec_lib.obj
 0001:0000d324       EC_GROUP_set_curve_GF2m    0001e324 f   libeay32:ec_lib.obj
 0001:0000d38c       EC_GROUP_get_curve_GF2m    0001e38c f   libeay32:ec_lib.obj
 0001:0000d3f0       EC_GROUP_get_degree        0001e3f0 f   libeay32:ec_lib.obj
 0001:0000d448       EC_EX_DATA_set_data        0001e448 f   libeay32:ec_lib.obj
 0001:0000d524       EC_EX_DATA_get_data        0001e524 f   libeay32:ec_lib.obj
 0001:0000d578       EC_EX_DATA_free_data       0001e578 f   libeay32:ec_lib.obj
 0001:0000d600       EC_EX_DATA_free_all_data   0001e600 f   libeay32:ec_lib.obj
 0001:0000d650       EC_EX_DATA_clear_free_all_data 0001e650 f   libeay32:ec_lib.obj
 0001:0000d6a0       EC_POINT_new               0001e6a0 f   libeay32:ec_lib.obj
 0001:0000d780       EC_POINT_free              0001e780 f   libeay32:ec_lib.obj
 0001:0000d7b4       EC_POINT_clear_free        0001e7b4 f   libeay32:ec_lib.obj
 0001:0000d810       EC_POINT_copy              0001e810 f   libeay32:ec_lib.obj
 0001:0000d8a4       EC_POINT_dup               0001e8a4 f   libeay32:ec_lib.obj
 0001:0000d8ec       EC_POINT_set_to_infinity   0001e8ec f   libeay32:ec_lib.obj
 0001:0000d978       EC_POINT_set_Jprojective_coordinates_GFp 0001e978 f   libeay32:ec_lib.obj
 0001:0000da2c       EC_POINT_set_affine_coordinates_GFp 0001ea2c f   libeay32:ec_lib.obj
 0001:0000dacc       EC_POINT_set_affine_coordinates_GF2m 0001eacc f   libeay32:ec_lib.obj
 0001:0000db70       EC_POINT_get_affine_coordinates_GFp 0001eb70 f   libeay32:ec_lib.obj
 0001:0000dc14       EC_POINT_get_affine_coordinates_GF2m 0001ec14 f   libeay32:ec_lib.obj
 0001:0000dcb4       EC_POINT_add               0001ecb4 f   libeay32:ec_lib.obj
 0001:0000dd70       EC_POINT_dbl               0001ed70 f   libeay32:ec_lib.obj
 0001:0000de10       EC_POINT_invert            0001ee10 f   libeay32:ec_lib.obj
 0001:0000de9c       EC_POINT_is_at_infinity    0001ee9c f   libeay32:ec_lib.obj
 0001:0000df24       EC_POINT_is_on_curve       0001ef24 f   libeay32:ec_lib.obj
 0001:0000dfac       EC_POINT_cmp               0001efac f   libeay32:ec_lib.obj
 0001:0000e04c       EC_POINT_make_affine       0001f04c f   libeay32:ec_lib.obj
 0001:0000e0d4       EC_POINTs_make_affine      0001f0d4 f   libeay32:ec_lib.obj
 0001:0000e19c       EC_POINTs_mul              0001f19c f   libeay32:ec_lib.obj
 0001:0000e218       EC_POINT_mul               0001f218 f   libeay32:ec_lib.obj
 0001:0000e26c       EC_GROUP_have_precompute_mult 0001f26c f   libeay32:ec_lib.obj
 0001:0000e2b4       EC_GROUP_free              0001f2b4 f   libeay32:ec_lib.obj
 0001:0000e320       EC_GROUP_clear_free        0001f320 f   libeay32:ec_lib.obj
 0001:0000e3c4       EC_GROUP_copy              0001f3c4 f   libeay32:ec_lib.obj
 0001:0000e5d8       EC_GROUP_dup               0001f5d8 f   libeay32:ec_lib.obj
 0001:0000e620       EC_GROUP_set_generator     0001f620 f   libeay32:ec_lib.obj
 0001:0000e700       EC_GROUP_cmp               0001f700 f   libeay32:ec_lib.obj
 0001:0000e96c       ECDSA_do_sign_ex           0001f96c f   libeay32:ecs_sign.obj
 0001:0000e9cc       ECDSA_sign_ex              0001f9cc f   libeay32:ecs_sign.obj
 0001:0000ea54       ECDSA_sign_setup           0001fa54 f   libeay32:ecs_sign.obj
 0001:0000eaa4       ECDSA_sign                 0001faa4 f   libeay32:ecs_sign.obj
 0001:0000ec30       ecdsa_check                0001fc30 f   libeay32:ecs_lib.obj
 0001:0000ecac       ECDSA_size                 0001fcac f   libeay32:ecs_lib.obj
 0001:0000ed64       ECDSA_do_verify            0001fd64 f   libeay32:ecs_vrf.obj
 0001:0000edb8       ECDSA_verify               0001fdb8 f   libeay32:ecs_vrf.obj
 0001:0000ee30       ECDH_compute_key           0001fe30 f   libeay32:ech_key.obj
 0001:0000ee90       EC_KEY_new                 0001fe90 f   libeay32:ec_key.obj
 0001:0000ef14       EC_KEY_free                0001ff14 f   libeay32:ec_key.obj
 0001:0000efa4       EC_KEY_generate_key        0001ffa4 f   libeay32:ec_key.obj
 0001:0000f100       EC_KEY_get0_group          00020100 f   libeay32:ec_key.obj
 0001:0000f108       EC_KEY_set_group           00020108 f   libeay32:ec_key.obj
 0001:0000f148       EC_KEY_get0_private_key    00020148 f   libeay32:ec_key.obj
 0001:0000f150       EC_KEY_get0_public_key     00020150 f   libeay32:ec_key.obj
 0001:0000f158       EC_KEY_set_public_key      00020158 f   libeay32:ec_key.obj
 0001:0000f19c       EC_KEY_get_enc_flags       0002019c f   libeay32:ec_key.obj
 0001:0000f1a4       EC_KEY_set_enc_flags       000201a4 f   libeay32:ec_key.obj
 0001:0000f1ac       EC_KEY_get_conv_form       000201ac f   libeay32:ec_key.obj
 0001:0000f1b4       EC_KEY_get_key_method_data 000201b4 f   libeay32:ec_key.obj
 0001:0000f220       EC_KEY_insert_key_method_data 00020220 f   libeay32:ec_key.obj
 0001:0000f6e0       EC_GROUP_new_by_curve_name 000206e0 f   libeay32:ec_curve.obj
 0001:0000f808       d2i_DSA_SIG                00020808 f   libeay32:dsa_asn1.obj
 0001:0000f87c       d2i_DSAPrivateKey          0002087c f   libeay32:dsa_asn1.obj
 0001:0000f894       i2d_DSAPrivateKey          00020894 f   libeay32:dsa_asn1.obj
 0001:0000f8ac       d2i_DSAparams              000208ac f   libeay32:dsa_asn1.obj
 0001:0000f8c4       i2d_DSAparams              000208c4 f   libeay32:dsa_asn1.obj
 0001:0000f8dc       dsa_pub_internal_it        000208dc f   libeay32:dsa_asn1.obj
 0001:0000f8e8       i2d_DSAPublicKey           000208e8 f   libeay32:dsa_asn1.obj
 0001:0000f900       DSA_sign                   00020900 f   libeay32:dsa_asn1.obj
 0001:0000f980       DSA_verify                 00020980 f   libeay32:dsa_asn1.obj
 0001:0000fa00       DSA_new_method             00020a00 f   libeay32:dsa_lib.obj
 0001:0000fbb0       DSA_free                   00020bb0 f   libeay32:dsa_lib.obj
 0001:0000fca4       DSA_size                   00020ca4 f   libeay32:dsa_lib.obj
 0001:0000fd08       DSA_new                    00020d08 f   libeay32:dsa_lib.obj
 0001:0000fd1c       dsa_builtin_paramgen       00020d1c f   libeay32:dsa_gen.obj
 0001:000104b0       evp_pkey_set_cb_translate  000214b0 f   libeay32:pmeth_gn.obj
 0001:00010604       DSA_generate_key           00021604 f   libeay32:dsa_key.obj
 0001:00010634       DH_new_method              00021634 f   libeay32:dh_lib.obj
 0001:000107ec       DH_free                    000217ec f   libeay32:dh_lib.obj
 0001:000108f0       DH_size                    000218f0 f   libeay32:dh_lib.obj
 0001:00010914       DH_new                     00021914 f   libeay32:dh_lib.obj
 0001:00010b0c       DH_generate_parameters_ex  00021b0c f   libeay32:dh_gen.obj
 0001:00010b3c       DH_generate_key            00021b3c f   libeay32:dh_key.obj
 0001:00010b58       DH_compute_key             00021b58 f   libeay32:dh_key.obj
 0001:00010b74       DH_OpenSSL                 00021b74 f   libeay32:dh_key.obj
 0001:00011010       BN_value_one               00022010 f   libeay32:bn_lib.obj
 0001:0001101c       BN_num_bits_word           0002201c f   libeay32:bn_lib.obj
 0001:00011060       BN_num_bits                00022060 f   libeay32:bn_lib.obj
 0001:00011094       BN_clear_free              00022094 f   libeay32:bn_lib.obj
 0001:000110ec       BN_free                    000220ec f   libeay32:bn_lib.obj
 0001:00011144       BN_init                    00022144 f   libeay32:bn_lib.obj
 0001:0001115c       BN_new                     0002215c f   libeay32:bn_lib.obj
 0001:00011320       bn_expand2                 00022320 f   libeay32:bn_lib.obj
 0001:0001136c       BN_copy                    0002236c f   libeay32:bn_lib.obj
 0001:00011434       BN_set_word                00022434 f   libeay32:bn_lib.obj
 0001:0001148c       BN_bin2bn                  0002248c f   libeay32:bn_lib.obj
 0001:00011588       BN_bn2bin                  00022588 f   libeay32:bn_lib.obj
 0001:000115e4       BN_ucmp                    000225e4 f   libeay32:bn_lib.obj
 0001:00011650       BN_cmp                     00022650 f   libeay32:bn_lib.obj
 0001:00011718       BN_set_bit                 00022718 f   libeay32:bn_lib.obj
 0001:000117b4       BN_is_bit_set              000227b4 f   libeay32:bn_lib.obj
 0001:000117f4       BN_mask_bits               000227f4 f   libeay32:bn_lib.obj
 0001:0001188c       BN_set_negative            0002288c f   libeay32:bn_lib.obj
 0001:000118ac       BN_dup                     000228ac f   libeay32:bn_lib.obj
 0001:000118f0       RSA_verify_PKCS1_PSS_mgf1  000228f0 f   libeay32:rsa_pss.obj
 0001:00011e20       RSA_padding_add_PKCS1_PSS_mgf1 00022e20 f   libeay32:rsa_pss.obj
 0001:00012274       RSA_padding_add_X931       00023274 f   libeay32:rsa_x931.obj
 0001:00012320       RSA_padding_check_X931     00023320 f   libeay32:rsa_x931.obj
 0001:00012448       RSA_X931_hash_id           00023448 f   libeay32:rsa_x931.obj
 0001:00012498       RSA_sign_ASN1_OCTET_STRING 00023498 f   libeay32:rsa_saos.obj
 0001:000125ec       EVP_sha1                   000235ec f   libeay32:m_sha1.obj
 0001:000126a8       X509_ALGOR_it              000236a8 f   libeay32:x_algor.obj
 0001:000126b4       d2i_X509_ALGOR             000236b4 f   libeay32:x_algor.obj
 0001:000126cc       X509_ALGOR_new             000236cc f   libeay32:x_algor.obj
 0001:000126e4       X509_ALGOR_free            000236e4 f   libeay32:x_algor.obj
 0001:000126fc       X509_ALGOR_set0            000236fc f   libeay32:x_algor.obj
 0001:000127a4       X509_ALGOR_get0            000237a4 f   libeay32:x_algor.obj
 0001:000127f8       X509_ALGOR_set_md          000237f8 f   libeay32:x_algor.obj
 0001:00012838       CMS_RecipientInfo_ktri_get0_algs 00023838 f   libeay32:cms_env.obj
 0001:00012b94       cms_EnvelopedData_init_bio 00023b94 f   libeay32:cms_env.obj
 0001:00012cf8       BN_bn2dec                  00023cf8 f   libeay32:bn_print.obj
 0001:00012ee4       BN_hex2bn                  00023ee4 f   libeay32:bn_print.obj
 0001:00013074       BN_dec2bn                  00024074 f   libeay32:bn_print.obj
 0001:00013208       BN_asc2bn                  00024208 f   libeay32:bn_print.obj
 0001:00013288       RSA_new_method             00024288 f   libeay32:rsa_lib.obj
 0001:0001346c       RSA_free                   0002446c f   libeay32:rsa_lib.obj
 0001:000135a0       RSA_new                    000245a0 f   libeay32:rsa_lib.obj
 0001:00013b6c       RSA_generate_key_ex        00024b6c f   libeay32:rsa_gen.obj
 0001:00013b9c       OBJ_dup                    00024b9c f   libeay32:obj_lib.obj
 0001:00013d3c       OBJ_cmp                    00024d3c f   libeay32:obj_lib.obj
 0001:00013d68       BIO_set                    00024d68 f   libeay32:bio_lib.obj
 0001:00013e08       BIO_free                   00024e08 f   libeay32:bio_lib.obj
 0001:00013ecc       BIO_clear_flags            00024ecc f   libeay32:bio_lib.obj
 0001:00013edc       BIO_test_flags             00024edc f   libeay32:bio_lib.obj
 0001:00013ee8       BIO_set_flags              00024ee8 f   libeay32:bio_lib.obj
 0001:00013ef8       BIO_read                   00024ef8 f   libeay32:bio_lib.obj
 0001:00014028       BIO_write                  00025028 f   libeay32:bio_lib.obj
 0001:0001415c       BIO_puts                   0002515c f   libeay32:bio_lib.obj
 0001:00014284       BIO_gets                   00025284 f   libeay32:bio_lib.obj
 0001:000143ac       BIO_indent                 000253ac f   libeay32:bio_lib.obj
 0001:00014408       BIO_ctrl                   00025408 f   libeay32:bio_lib.obj
 0001:00014504       BIO_callback_ctrl          00025504 f   libeay32:bio_lib.obj
 0001:00014608       BIO_push                   00025608 f   libeay32:bio_lib.obj
 0001:0001465c       BIO_find_type              0002565c f   libeay32:bio_lib.obj
 0001:000146a4       BIO_next                   000256a4 f   libeay32:bio_lib.obj
 0001:000146b4       BIO_free_all               000256b4 f   libeay32:bio_lib.obj
 0001:000146e8       BIO_copy_next_retry        000256e8 f   libeay32:bio_lib.obj
 0001:0001470c       BIO_new                    0002570c f   libeay32:bio_lib.obj
 0001:00014784       BIO_int_ctrl               00025784 f   libeay32:bio_lib.obj
 0001:000147a8       BN_mod_word                000257a8 f   libeay32:bn_word.obj
 0001:0001480c       BN_div_word                0002580c f   libeay32:bn_word.obj
 0001:000148d4       BN_add_word                000258d4 f   libeay32:bn_word.obj
 0001:000149e0       BN_sub_word                000259e0 f   libeay32:bn_word.obj
 0001:00014ae4       BN_mul_word                00025ae4 f   libeay32:bn_word.obj
 0001:00014b70       BN_lshift1                 00025b70 f   libeay32:bn_shift.obj
 0001:00014c44       BN_rshift1                 00025c44 f   libeay32:bn_shift.obj
 0001:00014d20       BN_lshift                  00025d20 f   libeay32:bn_shift.obj
 0001:00014e4c       BN_rshift                  00025e4c f   libeay32:bn_shift.obj
 0001:00015020       ASN1_put_eoc               00026020 f   libeay32:asn1_lib.obj
 0001:00015040       ASN1_object_size           00026040 f   libeay32:asn1_lib.obj
 0001:00015090       ASN1_STRING_set            00026090 f   libeay32:asn1_lib.obj
 0001:00015180       ASN1_STRING_set0           00026180 f   libeay32:asn1_lib.obj
 0001:000151b0       ASN1_STRING_type_new       000261b0 f   libeay32:asn1_lib.obj
 0001:0001521c       ASN1_STRING_free           0002621c f   libeay32:asn1_lib.obj
 0001:00015250       ASN1_STRING_cmp            00026250 f   libeay32:asn1_lib.obj
 0001:00015290       ASN1_get_object            00026290 f   libeay32:asn1_lib.obj
 0001:000153e8       ASN1_put_object            000263e8 f   libeay32:asn1_lib.obj
 0001:000154fc       ASN1_STRING_copy           000264fc f   libeay32:asn1_lib.obj
 0001:00015548       ASN1_STRING_new            00026548 f   libeay32:asn1_lib.obj
 0001:0001555c       ASN1_STRING_dup            0002655c f   libeay32:asn1_lib.obj
 0001:000155bc       EVP_PKEY_asn1_get_count    000265bc f   libeay32:ameth_lib.obj
 0001:000155ec       EVP_PKEY_asn1_get0         000265ec f   libeay32:ameth_lib.obj
 0001:00015634       EVP_PKEY_asn1_find         00026634 f   libeay32:ameth_lib.obj
 0001:0001571c       EVP_PKEY_asn1_find_str     0002671c f   libeay32:ameth_lib.obj
 0001:00015804       EVP_PKEY_asn1_free         00026804 f   libeay32:ameth_lib.obj
 0001:0001584c       X509_ATTRIBUTE_SET_it      0002684c f   libeay32:x_attrib.obj
 0001:00015858       X509_ATTRIBUTE_it          00026858 f   libeay32:x_attrib.obj
 0001:00015864       X509_ATTRIBUTE_new         00026864 f   libeay32:x_attrib.obj
 0001:0001587c       X509_ATTRIBUTE_free        0002687c f   libeay32:x_attrib.obj
 0001:00015894       X509_ATTRIBUTE_dup         00026894 f   libeay32:x_attrib.obj
 0001:000158b0       X509_ATTRIBUTE_create      000268b0 f   libeay32:x_attrib.obj
 0001:00015a2c       OBJ_NAME_init              00026a2c f   libeay32:o_names.obj
 0001:00015a94       OBJ_NAME_get               00026a94 f   libeay32:o_names.obj
 0001:00015b78       OBJ_find_sigid_algs        00026b78 f   libeay32:obj_xref.obj
 0001:00015c18       OBJ_find_sigid_by_algs     00026c18 f   libeay32:obj_xref.obj
 0001:00015ce4       EVP_PBE_find               00026ce4 f   libeay32:evp_pbe.obj
 0001:00015da8       EVP_PBE_CipherInit         00026da8 f   libeay32:evp_pbe.obj
 0001:000163d8       BIO_new_file               000273d8 f   libeay32:bss_file.obj
 0001:00016a70       CRYPTO_new_ex_data         00027a70 f   libeay32:ex_data.obj
 0001:00016abc       CRYPTO_free_ex_data        00027abc f   libeay32:ex_data.obj
 0001:00016b08       CRYPTO_set_ex_data         00027b08 f   libeay32:ex_data.obj
 0001:00016bdc       CRYPTO_get_ex_data         00027bdc f   libeay32:ex_data.obj
 0001:000170cc       ENGINE_get_pkey_asn1_meth_engine 000280cc f   libeay32:tb_asnmth.obj
 0001:000170e8       engine_pkey_asn1_meths_free 000280e8 f   libeay32:tb_asnmth.obj
 0001:00017224       ENGINE_pkey_asn1_find_str  00028224 f   libeay32:tb_asnmth.obj
 0001:000172c4       ENGINE_get_pkey_asn1_meth  000282c4 f   libeay32:tb_asnmth.obj
 0001:00017328       RAND_get_rand_method       00028328 f   libeay32:rand_lib.obj
 0001:00017390       RAND_seed                  00028390 f   libeay32:rand_lib.obj
 0001:000173c4       RAND_add                   000283c4 f   libeay32:rand_lib.obj
 0001:00017408       RAND_bytes                 00028408 f   libeay32:rand_lib.obj
 0001:00017450       RAND_pseudo_bytes          00028450 f   libeay32:rand_lib.obj
 0001:00017498       RAND_status                00028498 f   libeay32:rand_lib.obj
 0001:000174d0       ASN1_INTEGER_it            000284d0 f   libeay32:tasn_typ.obj
 0001:000174dc       d2i_ASN1_INTEGER           000284dc f   libeay32:tasn_typ.obj
 0001:000174f4       i2d_ASN1_INTEGER           000284f4 f   libeay32:tasn_typ.obj
 0001:0001750c       ASN1_INTEGER_new           0002850c f   libeay32:tasn_typ.obj
 0001:00017524       ASN1_INTEGER_free          00028524 f   libeay32:tasn_typ.obj
 0001:0001753c       ASN1_ENUMERATED_it         0002853c f   libeay32:tasn_typ.obj
 0001:00017548       ASN1_ENUMERATED_free       00028548 f   libeay32:tasn_typ.obj
 0001:00017560       ASN1_BIT_STRING_it         00028560 f   libeay32:tasn_typ.obj
 0001:0001756c       ASN1_BIT_STRING_new        0002856c f   libeay32:tasn_typ.obj
 0001:00017584       ASN1_BIT_STRING_free       00028584 f   libeay32:tasn_typ.obj
 0001:0001759c       ASN1_OCTET_STRING_it       0002859c f   libeay32:tasn_typ.obj
 0001:000175a8       i2d_ASN1_OCTET_STRING      000285a8 f   libeay32:tasn_typ.obj
 0001:000175c0       ASN1_OCTET_STRING_new      000285c0 f   libeay32:tasn_typ.obj
 0001:000175d8       ASN1_OCTET_STRING_free     000285d8 f   libeay32:tasn_typ.obj
 0001:000175f0       ASN1_NULL_it               000285f0 f   libeay32:tasn_typ.obj
 0001:000175fc       ASN1_NULL_new              000285fc f   libeay32:tasn_typ.obj
 0001:00017614       ASN1_OBJECT_it             00028614 f   libeay32:tasn_typ.obj
 0001:00017620       ASN1_UTF8STRING_it         00028620 f   libeay32:tasn_typ.obj
 0001:0001762c       ASN1_IA5STRING_it          0002862c f   libeay32:tasn_typ.obj
 0001:00017638       ASN1_GENERALIZEDTIME_it    00028638 f   libeay32:tasn_typ.obj
 0001:00017644       ASN1_ANY_it                00028644 f   libeay32:tasn_typ.obj
 0001:00017650       ASN1_SEQUENCE_it           00028650 f   libeay32:tasn_typ.obj
 0001:0001765c       d2i_ASN1_TYPE              0002865c f   libeay32:tasn_typ.obj
 0001:00017674       i2d_ASN1_TYPE              00028674 f   libeay32:tasn_typ.obj
 0001:0001768c       ASN1_TYPE_new              0002868c f   libeay32:tasn_typ.obj
 0001:000176a4       ASN1_TYPE_free             000286a4 f   libeay32:tasn_typ.obj
 0001:000176bc       ASN1_PRINTABLE_it          000286bc f   libeay32:tasn_typ.obj
 0001:000176c8       DISPLAYTEXT_it             000286c8 f   libeay32:tasn_typ.obj
 0001:000176d4       DIRECTORYSTRING_it         000286d4 f   libeay32:tasn_typ.obj
 0001:000176e0       ASN1_BOOLEAN_it            000286e0 f   libeay32:tasn_typ.obj
 0001:000176ec       ASN1_FBOOLEAN_it           000286ec f   libeay32:tasn_typ.obj
 0001:000176f8       ASN1_OCTET_STRING_NDEF_it  000286f8 f   libeay32:tasn_typ.obj
 0001:00017704       d2i_ASN1_SEQUENCE_ANY      00028704 f   libeay32:tasn_typ.obj
 0001:0001771c       i2d_ASN1_SEQUENCE_ANY      0002871c f   libeay32:tasn_typ.obj
 0001:00017734       i2d_ASN1_SET_ANY           00028734 f   libeay32:tasn_typ.obj
 0001:0001774c       ASN1_INTEGER_cmp           0002874c f   libeay32:a_int.obj
 0001:00017794       i2c_ASN1_INTEGER           00028794 f   libeay32:a_int.obj
 0001:000178e8       c2i_ASN1_INTEGER           000288e8 f   libeay32:a_int.obj
 0001:00017aac       d2i_ASN1_UINTEGER          00028aac f   libeay32:a_int.obj
 0001:00017c1c       ASN1_INTEGER_set           00028c1c f   libeay32:a_int.obj
 0001:00017d24       ASN1_INTEGER_get           00028d24 f   libeay32:a_int.obj
 0001:00017db8       BN_to_ASN1_INTEGER         00028db8 f   libeay32:a_int.obj
 0001:00017ee0       ASN1_INTEGER_to_BN         00028ee0 f   libeay32:a_int.obj
 0001:00017f58       BN_BLINDING_free           00028f58 f   libeay32:bn_blind.obj
 0001:00017fb4       BN_BLINDING_invert_ex      00028fb4 f   libeay32:bn_blind.obj
 0001:00018038       BN_BLINDING_thread_id      00029038 f   libeay32:bn_blind.obj
 0001:00018040       BN_BLINDING_new            00029040 f   libeay32:bn_blind.obj
 0001:00018134       BN_BLINDING_create_param   00029134 f   libeay32:bn_blind.obj
 0001:00018310       BN_BLINDING_update         00029310 f   libeay32:bn_blind.obj
 0001:00018424       BN_BLINDING_convert_ex     00029424 f   libeay32:bn_blind.obj
 0001:000185d0       BN_CTX_new                 000295d0 f   libeay32:bn_ctx.obj
 0001:00018658       BN_CTX_free                00029658 f   libeay32:bn_ctx.obj
 0001:000186d4       BN_CTX_start               000296d4 f   libeay32:bn_ctx.obj
 0001:000187c4       BN_CTX_end                 000297c4 f   libeay32:bn_ctx.obj
 0001:00018854       BN_CTX_get                 00029854 f   libeay32:bn_ctx.obj
 0001:00018d40       BN_gcd                     00029d40 f   libeay32:bn_gcd.obj
 0001:00018e14       BN_mod_inverse             00029e14 f   libeay32:bn_gcd.obj
 0001:00019488       bn_mul_normal              0002a488 f   libeay32:bn_mul.obj
 0001:00019598       BN_mul                     0002a598 f   libeay32:bn_mul.obj
 0001:000196b8       BN_uadd                    0002a6b8 f   libeay32:bn_add.obj
 0001:000197b4       BN_usub                    0002a7b4 f   libeay32:bn_add.obj
 0001:0001995c       BN_sub                     0002a95c f   libeay32:bn_add.obj
 0001:00019a54       BN_add                     0002aa54 f   libeay32:bn_add.obj
 0001:00019b08       ASN1_tag2bit               0002ab08 f   libeay32:tasn_dec.obj
 0001:00019b20       asn1_ex_c2i                0002ab20 f   libeay32:tasn_dec.obj
 0001:0001a9f8       ASN1_item_ex_d2i           0002b9f8 f   libeay32:tasn_dec.obj
 0001:0001b7cc       ASN1_item_d2i              0002c7cc f   libeay32:tasn_dec.obj
 0001:0001bb7c       asn1_ex_i2c                0002cb7c f   libeay32:tasn_enc.obj
 0001:0001be68       ASN1_item_ex_i2d           0002ce68 f   libeay32:tasn_enc.obj
 0001:0001c540       ASN1_item_i2d              0002d540 f   libeay32:tasn_enc.obj
 0001:0001c554       ASN1_primitive_new         0002d554 f   libeay32:tasn_new.obj
 0001:0001ca90       ASN1_item_ex_new           0002da90 f   libeay32:tasn_new.obj
 0001:0001caa4       ASN1_template_new          0002daa4 f   libeay32:tasn_new.obj
 0001:0001cb7c       ASN1_item_new              0002db7c f   libeay32:tasn_new.obj
 0001:0001cbb4       ASN1_primitive_free        0002dbb4 f   libeay32:tasn_fre.obj
 0001:0001cf28       ASN1_template_free         0002df28 f   libeay32:tasn_fre.obj
 0001:0001cfdc       ASN1_item_free             0002dfdc f   libeay32:tasn_fre.obj
 0001:0001cffc       ASN1_item_ex_free          0002dffc f   libeay32:tasn_fre.obj
 0001:0001d010       EVP_CIPHER_CTX_init        0002e010 f   libeay32:evp_enc.obj
 0001:0001d028       EVP_EncryptUpdate          0002e028 f   libeay32:evp_enc.obj
 0001:0001d218       EVP_EncryptFinal_ex        0002e218 f   libeay32:evp_enc.obj
 0001:0001d344       EVP_DecryptUpdate          0002e344 f   libeay32:evp_enc.obj
 0001:0001d4c0       EVP_DecryptFinal_ex        0002e4c0 f   libeay32:evp_enc.obj
 0001:0001d698       EVP_CIPHER_CTX_cleanup     0002e698 f   libeay32:evp_enc.obj
 0001:0001d724       EVP_CIPHER_CTX_set_padding 0002e724 f   libeay32:evp_enc.obj
 0001:0001d740       EVP_CIPHER_CTX_ctrl        0002e740 f   libeay32:evp_enc.obj
 0001:0001d7f0       EVP_CIPHER_CTX_rand_key    0002e7f0 f   libeay32:evp_enc.obj
 0001:0001d844       EVP_CIPHER_CTX_copy        0002e844 f   libeay32:evp_enc.obj
 0001:0001d994       EVP_CipherInit_ex          0002e994 f   libeay32:evp_enc.obj
 0001:0001dcf4       EVP_CipherUpdate           0002ecf4 f   libeay32:evp_enc.obj
 0001:0001dd38       EVP_CipherFinal_ex         0002ed38 f   libeay32:evp_enc.obj
 0001:0001dd60       EVP_EncryptInit_ex         0002ed60 f   libeay32:evp_enc.obj
 0001:0001dd88       EVP_DecryptInit_ex         0002ed88 f   libeay32:evp_enc.obj
 0001:0001ddb0       EVP_CIPHER_CTX_set_key_length 0002edb0 f   libeay32:evp_enc.obj
 0001:0001de38       ASN1_ENUMERATED_get        0002ee38 f   libeay32:a_enum.obj
 0001:0001decc       ASN1_ENUMERATED_to_BN      0002eecc f   libeay32:a_enum.obj
 0001:0001df40       X509_NAME_entry_count      0002ef40 f   libeay32:x509name.obj
 0001:0001df64       X509_NAME_get_index_by_OBJ 0002ef64 f   libeay32:x509name.obj
 0001:0001dfd0       X509_NAME_get_entry        0002efd0 f   libeay32:x509name.obj
 0001:0001e018       X509_NAME_delete_entry     0002f018 f   libeay32:x509name.obj
 0001:0001e0ec       X509_NAME_add_entry        0002f0ec f   libeay32:x509name.obj
 0001:0001e258       X509_NAME_ENTRY_set_object 0002f258 f   libeay32:x509name.obj
 0001:0001e2cc       X509_NAME_ENTRY_set_data   0002f2cc f   libeay32:x509name.obj
 0001:0001e3ac       X509_NAME_ENTRY_get_object 0002f3ac f   libeay32:x509name.obj
 0001:0001e3bc       X509_NAME_ENTRY_get_data   0002f3bc f   libeay32:x509name.obj
 0001:0001e3cc       X509_NAME_get_index_by_NID 0002f3cc f   libeay32:x509name.obj
 0001:0001e408       X509_NAME_ENTRY_create_by_OBJ 0002f408 f   libeay32:x509name.obj
 0001:0001e4b4       X509_NAME_ENTRY_create_by_txt 0002f4b4 f   libeay32:x509name.obj
 0001:0001e558       X509_NAME_add_entry_by_txt 0002f558 f   libeay32:x509name.obj
 0001:0001e5b0       ACCESS_DESCRIPTION_it      0002f5b0 f   libeay32:v3_info.obj
 0001:0001e5bc       ACCESS_DESCRIPTION_free    0002f5bc f   libeay32:v3_info.obj
 0001:0001e5d4       AUTHORITY_INFO_ACCESS_it   0002f5d4 f   libeay32:v3_info.obj
 0001:0001e928       X509_CRL_get_ext_d2i       0002f928 f   libeay32:x509_ext.obj
 0001:0001e940       X509_get_ext_count         0002f940 f   libeay32:x509_ext.obj
 0001:0001e958       X509_get_ext_by_NID        0002f958 f   libeay32:x509_ext.obj
 0001:0001e970       X509_get_ext               0002f970 f   libeay32:x509_ext.obj
 0001:0001e988       X509_get_ext_d2i           0002f988 f   libeay32:x509_ext.obj
 0001:0001e9a0       X509_REVOKED_get_ext_d2i   0002f9a0 f   libeay32:x509_ext.obj
 0001:0001e9b4       CONF_parse_list            0002f9b4 f   libeay32:conf_mod.obj
 0001:0001eae0       OTHERNAME_it               0002fae0 f   libeay32:v3_genn.obj
 0001:0001eaec       OTHERNAME_new              0002faec f   libeay32:v3_genn.obj
 0001:0001eb04       EDIPARTYNAME_it            0002fb04 f   libeay32:v3_genn.obj
 0001:0001eb10       GENERAL_NAME_it            0002fb10 f   libeay32:v3_genn.obj
 0001:0001eb1c       GENERAL_NAME_new           0002fb1c f   libeay32:v3_genn.obj
 0001:0001eb34       GENERAL_NAME_free          0002fb34 f   libeay32:v3_genn.obj
 0001:0001eb4c       GENERAL_NAMES_it           0002fb4c f   libeay32:v3_genn.obj
 0001:0001eb58       GENERAL_NAMES_new          0002fb58 f   libeay32:v3_genn.obj
 0001:0001eb70       GENERAL_NAMES_free         0002fb70 f   libeay32:v3_genn.obj
 0001:0001eb88       X509_get_issuer_name       0002fb88 f   libeay32:x509_cmp.obj
 0001:0001eb94       X509_get_subject_name      0002fb94 f   libeay32:x509_cmp.obj
 0001:0001eba0       X509_get_serialNumber      0002fba0 f   libeay32:x509_cmp.obj
 0001:0001ebac       X509_NAME_cmp              0002fbac f   libeay32:x509_cmp.obj
 0001:0001ec3c       X509_get_pubkey            0002fc3c f   libeay32:x509_cmp.obj
 0001:0001ec70       X509_EXTENSION_it          0002fc70 f   libeay32:x_exten.obj
 0001:0001ec94       X509V3_EXT_get_nid         0002fc94 f   libeay32:v3_lib.obj
 0001:0001ed24       X509V3_EXT_d2i             0002fd24 f   libeay32:v3_lib.obj
 0001:0001edb4       X509V3_get_d2i             0002fdb4 f   libeay32:v3_lib.obj
 0001:0001f2c0       ec_wNAF_mul                000302c0 f   libeay32:ec_mult.obj
 0001:0001fe68       ec_wNAF_precompute_mult    00030e68 f   libeay32:ec_mult.obj
 0001:00020374       ec_wNAF_have_precompute_mult 00031374 f   libeay32:ec_mult.obj
 0001:000203b0       d2i_ECDSA_SIG              000313b0 f   libeay32:ecs_asn1.obj
 0001:000203c8       i2d_ECDSA_SIG              000313c8 f   libeay32:ecs_asn1.obj
 0001:000203e0       ECDSA_SIG_new              000313e0 f   libeay32:ecs_asn1.obj
 0001:000203f8       ECDSA_SIG_free             000313f8 f   libeay32:ecs_asn1.obj
 0001:00020410       ECDSA_OpenSSL              00031410 f   libeay32:ecs_ossl.obj
 0001:000210d4       ENGINE_get_default_ECDSA   000320d4 f   libeay32:tb_ecdsa.obj
 0001:000210f0       ENGINE_get_ECDSA           000320f0 f   libeay32:tb_ecdsa.obj
 0001:00021250       ecdh_check                 00032250 f   libeay32:ech_lib.obj
 0001:000214d4       BN_rand                    000324d4 f   libeay32:bn_rand.obj
 0001:00021504       BN_pseudo_rand             00032504 f   libeay32:bn_rand.obj
 0001:0002171c       BN_rand_range              0003271c f   libeay32:bn_rand.obj
 0001:00021738       BN_pseudo_rand_range       00032738 f   libeay32:bn_rand.obj
 0001:00021754       EC_GROUP_new_curve_GFp     00032754 f   libeay32:ec_cvt.obj
 0001:00021820       EC_GROUP_new_curve_GF2m    00032820 f   libeay32:ec_cvt.obj
 0001:00021884       BIGNUM_it                  00032884 f   libeay32:x_bignum.obj
 0001:00021890       CBIGNUM_it                 00032890 f   libeay32:x_bignum.obj
 0001:000219d0       LONG_it                    000329d0 f   libeay32:x_long.obj
 0001:000219dc       ZLONG_it                   000329dc f   libeay32:x_long.obj
 0001:00021bd0       ASN1_item_dup              00032bd0 f   libeay32:a_dup.obj
 0001:00021c64       DSA_do_sign                00032c64 f   libeay32:dsa_sign.obj
 0001:00021c80       DSA_sign_setup             00032c80 f   libeay32:dsa_sign.obj
 0001:00021c9c       DSA_SIG_new                00032c9c f   libeay32:dsa_sign.obj
 0001:00021cd4       DSA_SIG_free               00032cd4 f   libeay32:dsa_sign.obj
 0001:00021d10       DSA_do_verify              00032d10 f   libeay32:dsa_vrf.obj
 0001:00021d2c       DSA_OpenSSL                00032d2c f   libeay32:dsa_ossl.obj
 0001:00022574       ENGINE_get_default_DSA     00033574 f   libeay32:tb_dsa.obj
 0001:00022590       ENGINE_get_DSA             00033590 f   libeay32:tb_dsa.obj
 0001:00022598       BN_mod_exp_recp            00033598 f   libeay32:bn_exp.obj
 0001:000229a4       BN_mod_exp_mont_consttime  000339a4 f   libeay32:bn_exp.obj
 0001:00022f48       BN_mod_exp_mont_word       00033f48 f   libeay32:bn_exp.obj
 0001:00023368       BN_mod_exp_mont            00034368 f   libeay32:bn_exp.obj
 0001:000237c8       BN_mod_exp                 000347c8 f   libeay32:bn_exp.obj
 0001:00023b30       BN_from_montgomery         00034b30 f   libeay32:bn_mont.obj
 0001:00023b9c       BN_MONT_CTX_init           00034b9c f   libeay32:bn_mont.obj
 0001:00023bd4       BN_MONT_CTX_free           00034bd4 f   libeay32:bn_mont.obj
 0001:00023c10       BN_MONT_CTX_set            00034c10 f   libeay32:bn_mont.obj
 0001:00023dd8       BN_MONT_CTX_copy           00034dd8 f   libeay32:bn_mont.obj
 0001:00023e54       BN_mod_mul_montgomery      00034e54 f   libeay32:bn_mont.obj
 0001:00023ee0       BN_MONT_CTX_new            00034ee0 f   libeay32:bn_mont.obj
 0001:00023f24       BN_MONT_CTX_set_locked     00034f24 f   libeay32:bn_mont.obj
 0001:00023ffc       BN_div                     00034ffc f   libeay32:bn_div.obj
 0001:000245b0       BN_GENCB_call              000355b0 f   libeay32:bn_prime.obj
 0001:00024a14       BN_is_prime_fasttest_ex    00035a14 f   libeay32:bn_prime.obj
 0001:00024e08       BN_generate_prime_ex       00035e08 f   libeay32:bn_prime.obj
 0001:00025170       ENGINE_get_default_DH      00036170 f   libeay32:tb_dh.obj
 0001:0002518c       ENGINE_get_DH              0003618c f   libeay32:tb_dh.obj
 0001:00025194       DH_check_pub_key           00036194 f   libeay32:dh_check.obj
 0001:00025230       PKCS1_MGF1                 00036230 f   libeay32:rsa_oaep.obj
 0001:00025358       RSA_padding_add_PKCS1_OAEP 00036358 f   libeay32:rsa_oaep.obj
 0001:00025550       RSA_padding_check_PKCS1_OAEP 00036550 f   libeay32:rsa_oaep.obj
 0001:000257c0       SHA1_Init                  000367c0 f   libeay32:sha1dgst.obj
 0001:00025b78       SHA1_Update                00036b78 f   libeay32:sha1dgst.obj
 0001:00025c80       SHA1_Final                 00036c80 f   libeay32:sha1dgst.obj
 0001:00025df0       SHA224_Init                00036df0 f   libeay32:sha256.obj
 0001:00025e70       SHA256_Init                00036e70 f   libeay32:sha256.obj
 0001:00026210       SHA256_Update              00037210 f   libeay32:sha256.obj
 0001:00026318       SHA256_Final               00037318 f   libeay32:sha256.obj
 0001:000264a0       SHA384_Init                000374a0 f   libeay32:sha512.obj
 0001:00026590       SHA512_Init                00037590 f   libeay32:sha512.obj
 0001:00026e58       SHA512_Final               00037e58 f   libeay32:sha512.obj
 0001:00027084       SHA512_Update              00038084 f   libeay32:sha512.obj
 0001:000271d4       CMS_IssuerAndSerialNumber_it 000381d4 f   libeay32:cms_asn1.obj
 0001:000271e0       CMS_OtherCertificateFormat_it 000381e0 f   libeay32:cms_asn1.obj
 0001:000271ec       CMS_CertificateChoices_it  000381ec f   libeay32:cms_asn1.obj
 0001:000271f8       CMS_SignerIdentifier_it    000381f8 f   libeay32:cms_asn1.obj
 0001:00027204       CMS_EncapsulatedContentInfo_it 00038204 f   libeay32:cms_asn1.obj
 0001:0002724c       CMS_SignerInfo_it          0003824c f   libeay32:cms_asn1.obj
 0001:00027258       CMS_OtherRevocationInfoFormat_it 00038258 f   libeay32:cms_asn1.obj
 0001:00027264       CMS_RevocationInfoChoice_it 00038264 f   libeay32:cms_asn1.obj
 0001:00027270       CMS_SignedData_it          00038270 f   libeay32:cms_asn1.obj
 0001:0002727c       CMS_OriginatorInfo_it      0003827c f   libeay32:cms_asn1.obj
 0001:00027288       CMS_EncryptedContentInfo_it 00038288 f   libeay32:cms_asn1.obj
 0001:00027294       CMS_KeyTransRecipientInfo_it 00038294 f   libeay32:cms_asn1.obj
 0001:000272a0       CMS_OtherKeyAttribute_it   000382a0 f   libeay32:cms_asn1.obj
 0001:000272ac       CMS_RecipientKeyIdentifier_it 000382ac f   libeay32:cms_asn1.obj
 0001:000272b8       CMS_KeyAgreeRecipientIdentifier_it 000382b8 f   libeay32:cms_asn1.obj
 0001:000272c4       CMS_RecipientEncryptedKey_it 000382c4 f   libeay32:cms_asn1.obj
 0001:000272d0       CMS_OriginatorPublicKey_it 000382d0 f   libeay32:cms_asn1.obj
 0001:000272dc       CMS_OriginatorIdentifierOrKey_it 000382dc f   libeay32:cms_asn1.obj
 0001:000272e8       CMS_KeyAgreeRecipientInfo_it 000382e8 f   libeay32:cms_asn1.obj
 0001:000272f4       CMS_KEKIdentifier_it       000382f4 f   libeay32:cms_asn1.obj
 0001:00027300       CMS_KEKRecipientInfo_it    00038300 f   libeay32:cms_asn1.obj
 0001:0002730c       CMS_PasswordRecipientInfo_it 0003830c f   libeay32:cms_asn1.obj
 0001:00027318       CMS_OtherRecipientInfo_it  00038318 f   libeay32:cms_asn1.obj
 0001:000273ac       CMS_RecipientInfo_it       000383ac f   libeay32:cms_asn1.obj
 0001:000273b8       CMS_EnvelopedData_it       000383b8 f   libeay32:cms_asn1.obj
 0001:000273c4       CMS_DigestedData_it        000383c4 f   libeay32:cms_asn1.obj
 0001:000273d0       CMS_EncryptedData_it       000383d0 f   libeay32:cms_asn1.obj
 0001:000273dc       CMS_AuthenticatedData_it   000383dc f   libeay32:cms_asn1.obj
 0001:000273e8       CMS_CompressedData_it      000383e8 f   libeay32:cms_asn1.obj
 0001:0002748c       CMS_Attributes_Sign_it     0003848c f   libeay32:cms_asn1.obj
 0001:00027498       CMS_ReceiptsFrom_it        00038498 f   libeay32:cms_asn1.obj
 0001:000274a4       CMS_get0_content           000384a4 f   libeay32:cms_lib.obj
 0001:00027594       cms_DigestAlgorithm_init_bio 00038594 f   libeay32:cms_lib.obj
 0001:0002765c       cms_DigestAlgorithm_find_ctx 0003865c f   libeay32:cms_lib.obj
 0001:0002772c       cms_content_bio            0003872c f   libeay32:cms_lib.obj
 0001:00027788       CMS_dataInit               00038788 f   libeay32:cms_lib.obj
 0001:0002788c       CMS_dataFinal              0003888c f   libeay32:cms_lib.obj
 0001:000279f4       cms_EncryptedContent_init_bio 000389f4 f   libeay32:cms_enc.obj
 0001:00027db4       cms_EncryptedData_init_bio 00038db4 f   libeay32:cms_enc.obj
 0001:00027fbc       CMS_SignerInfo_get0_algs   00038fbc f   libeay32:cms_sd.obj
 0001:00027ffc       CMS_SignerInfo_sign        00038ffc f   libeay32:cms_sd.obj
 0001:00028248       cms_SignedData_init_bio    00039248 f   libeay32:cms_sd.obj
 0001:000284ac       cms_SignedData_final       000394ac f   libeay32:cms_sd.obj
 0001:0002853c       X509_PURPOSE_get0          0003953c f   libeay32:v3_purp.obj
 0001:00028588       X509_PURPOSE_get_by_id     00039588 f   libeay32:v3_purp.obj
 0001:000285f0       X509_supported_extension   000395f0 f   libeay32:v3_purp.obj
 0001:00029068       X509_check_purpose         0003a068 f   libeay32:v3_purp.obj
 0001:00029100       EVP_PKEY_sign_init         0003a100 f   libeay32:pmeth_fn.obj
 0001:00029190       EVP_PKEY_sign              0003a190 f   libeay32:pmeth_fn.obj
 0001:000292a4       EVP_PKEY_verify_init       0003a2a4 f   libeay32:pmeth_fn.obj
 0001:00029334       EVP_PKEY_verify            0003a334 f   libeay32:pmeth_fn.obj
 0001:000293d8       EVP_PKEY_encrypt_init      0003a3d8 f   libeay32:pmeth_fn.obj
 0001:00029468       EVP_PKEY_encrypt           0003a468 f   libeay32:pmeth_fn.obj
 0001:0002957c       AES_wrap_key               0003a57c f   libeay32:aes_wrap.obj
 0001:00029698       AES_set_encrypt_key        0003a698 f   libeay32:aes_misc.obj
 0001:00029928       cms_RecipientInfo_pwri_crypt 0003a928 f   libeay32:cms_pwri.obj
 0001:00029c98       RSA_PKCS1_SSLeay           0003ac98 f   libeay32:rsa_eay.obj
 0001:0002b4b8       ENGINE_get_default_RSA     0003c4b8 f   libeay32:tb_rsa.obj
 0001:0002b4d4       ENGINE_get_RSA             0003c4d4 f   libeay32:tb_rsa.obj
 0001:0002b4dc       bn_mul_add_words           0003c4dc f   libeay32:bn_asm.obj
 0001:0002b534       bn_mul_words               0003c534 f   libeay32:bn_asm.obj
 0001:0002b580       bn_sqr_words               0003c580 f   libeay32:bn_asm.obj
 0001:0002b5ac       bn_div_words               0003c5ac f   libeay32:bn_asm.obj
 0001:0002b5dc       bn_add_words               0003c5dc f   libeay32:bn_asm.obj
 0001:0002b630       bn_sub_words               0003c630 f   libeay32:bn_asm.obj
 0001:0002f148       PKCS5_PBKDF2_HMAC          00040148 f   libeay32:p5_crpt2.obj
 0001:0002f310       PKCS5_v2_PBKDF2_keyivgen   00040310 f   libeay32:p5_crpt2.obj
 0001:0002f5b0       PKCS5_v2_PBE_keyivgen      000405b0 f   libeay32:p5_crpt2.obj
 0001:0002f76c       PKCS12_PBE_keyivgen        0004076c f   libeay32:p12_crpt.obj
 0001:0002f960       PKCS5_PBE_keyivgen         00040960 f   libeay32:p5_crpt.obj
 0001:0002fc18       RAND_SSLeay                00040c18 f   libeay32:md_rand.obj
 0001:00030620       ENGINE_get_default_RAND    00041620 f   libeay32:tb_rand.obj
 0001:0003063c       ENGINE_get_RAND            0004163c f   libeay32:tb_rand.obj
 0001:00030644       BUF_MEM_new                00041644 f   libeay32:buffer.obj
 0001:000306a8       BUF_MEM_free               000416a8 f   libeay32:buffer.obj
 0001:000306e8       BUF_MEM_grow               000416e8 f   libeay32:buffer.obj
 0001:000307f0       BUF_MEM_grow_clean         000417f0 f   libeay32:buffer.obj
 0001:0003090c       BN_nnmod                   0004190c f   libeay32:bn_mod.obj
 0001:0003098c       BN_mod_add                 0004198c f   libeay32:bn_mod.obj
 0001:000309c8       BN_mod_add_quick           000419c8 f   libeay32:bn_mod.obj
 0001:00030a20       BN_mod_sub_quick           00041a20 f   libeay32:bn_mod.obj
 0001:00030a70       BN_mod_mul                 00041a70 f   libeay32:bn_mod.obj
 0001:00030b00       BN_mod_sqr                 00041b00 f   libeay32:bn_mod.obj
 0001:00030b44       BN_mod_lshift1_quick       00041b44 f   libeay32:bn_mod.obj
 0001:00030b9c       BN_mod_lshift_quick        00041b9c f   libeay32:bn_mod.obj
 0001:00030c8c       ASN1_BIT_STRING_set        00041c8c f   libeay32:a_bitstr.obj
 0001:00030c9c       i2c_ASN1_BIT_STRING        00041c9c f   libeay32:a_bitstr.obj
 0001:00030da0       c2i_ASN1_BIT_STRING        00041da0 f   libeay32:a_bitstr.obj
 0001:00030ee4       ASN1_BIT_STRING_set_bit    00041ee4 f   libeay32:a_bitstr.obj
 0001:00031034       ASN1_BIT_STRING_get_bit    00042034 f   libeay32:a_bitstr.obj
 0001:00031090       asn1_get_choice_selector   00042090 f   libeay32:tasn_utl.obj
 0001:000310a0       asn1_set_choice_selector   000420a0 f   libeay32:tasn_utl.obj
 0001:000310bc       asn1_do_lock               000420bc f   libeay32:tasn_utl.obj
 0001:00031140       asn1_enc_init              00042140 f   libeay32:tasn_utl.obj
 0001:00031198       asn1_enc_free              00042198 f   libeay32:tasn_utl.obj
 0001:0003120c       asn1_enc_save              0004220c f   libeay32:tasn_utl.obj
 0001:000312b8       asn1_enc_restore           000422b8 f   libeay32:tasn_utl.obj
 0001:00031360       asn1_get_field_ptr         00042360 f   libeay32:tasn_utl.obj
 0001:00031378       asn1_do_adb                00042378 f   libeay32:tasn_utl.obj
 0001:00031470       ENGINE_get_cipher_engine   00042470 f   libeay32:tb_cipher.obj
 0001:0003148c       ENGINE_get_cipher          0004248c f   libeay32:tb_cipher.obj
 0001:000314f0       X509_NAME_ENTRY_it         000424f0 f   libeay32:x_name.obj
 0001:000314fc       X509_NAME_ENTRY_new        000424fc f   libeay32:x_name.obj
 0001:00031514       X509_NAME_ENTRY_free       00042514 f   libeay32:x_name.obj
 0001:0003152c       X509_NAME_ENTRY_dup        0004252c f   libeay32:x_name.obj
 0001:00031548       X509_NAME_ENTRIES_it       00042548 f   libeay32:x_name.obj
 0001:00031554       X509_NAME_it               00042554 f   libeay32:x_name.obj
 0001:00031560       i2d_X509_NAME              00042560 f   libeay32:x_name.obj
 0001:00031578       X509_NAME_new              00042578 f   libeay32:x_name.obj
 0001:00031590       X509_NAME_free             00042590 f   libeay32:x_name.obj
 0001:000315a8       X509_NAME_dup              000425a8 f   libeay32:x_name.obj
 0001:00031e34       ASN1_PRINTABLE_type        00042e34 f   libeay32:a_print.obj
 0001:00031f48       ASN1_STRING_TABLE_get      00042f48 f   libeay32:a_strnid.obj
 0001:00031fc4       ASN1_STRING_set_by_NID     00042fc4 f   libeay32:a_strnid.obj
 0001:00032084       i2v_GENERAL_NAME           00043084 f   libeay32:v3_alt.obj
 0001:00032254       GENERAL_NAME_print         00043254 f   libeay32:v3_alt.obj
 0001:00032858       i2v_GENERAL_NAMES          00043858 f   libeay32:v3_alt.obj
 0001:000328cc       a2i_GENERAL_NAME           000438cc f   libeay32:v3_alt.obj
 0001:00032b54       v2i_GENERAL_NAME_ex        00043b54 f   libeay32:v3_alt.obj
 0001:00032cc8       v2i_GENERAL_NAME           00043cc8 f   libeay32:v3_alt.obj
 0001:00032f84       v2i_GENERAL_NAMES          00043f84 f   libeay32:v3_alt.obj
 0001:00033054       X509v3_get_ext_count       00044054 f   libeay32:x509_v3.obj
 0001:00033074       X509v3_get_ext_by_OBJ      00044074 f   libeay32:x509_v3.obj
 0001:000330d8       X509v3_get_ext             000440d8 f   libeay32:x509_v3.obj
 0001:00033120       X509_EXTENSION_get_object  00044120 f   libeay32:x509_v3.obj
 0001:00033130       X509_EXTENSION_get_critical 00044130 f   libeay32:x509_v3.obj
 0001:00033150       X509v3_get_ext_by_NID      00044150 f   libeay32:x509_v3.obj
 0001:0003318c       DSO_convert_filename       0004418c f   libeay32:dso_lib.obj
 0001:000332cc       CONF_set_nconf             000442cc f   libeay32:conf_lib.obj
 0001:00033310       NCONF_get_section          00044310 f   libeay32:conf_lib.obj
 0001:0003338c       NCONF_get_string           0004438c f   libeay32:conf_lib.obj
 0001:00033424       CONF_get_section           00044424 f   libeay32:conf_lib.obj
 0001:00033460       CONF_get_string            00044460 f   libeay32:conf_lib.obj
 0001:000334a4       CONF_free                  000444a4 f   libeay32:conf_lib.obj
 0001:0003351c       X509_NAME_oneline          0004451c f   libeay32:x509_obj.obj
 0001:000338ec       X509_PUBKEY_it             000448ec f   libeay32:x_pubkey.obj
 0001:000338f8       X509_PUBKEY_get            000448f8 f   libeay32:x_pubkey.obj
 0001:00033aa8       X509_PUBKEY_set0_param     00044aa8 f   libeay32:x_pubkey.obj
 0001:00033b28       X509_PUBKEY_get0_param     00044b28 f   libeay32:x_pubkey.obj
 0001:00033e50       DIST_POINT_NAME_it         00044e50 f   libeay32:v3_crld.obj
 0001:00033e5c       DIST_POINT_it              00044e5c f   libeay32:v3_crld.obj
 0001:00033e68       DIST_POINT_free            00044e68 f   libeay32:v3_crld.obj
 0001:00033e80       CRL_DIST_POINTS_it         00044e80 f   libeay32:v3_crld.obj
 0001:00033e8c       CRL_DIST_POINTS_free       00044e8c f   libeay32:v3_crld.obj
 0001:00033ea4       ISSUING_DIST_POINT_it      00044ea4 f   libeay32:v3_crld.obj
 0001:00033eb0       ISSUING_DIST_POINT_free    00044eb0 f   libeay32:v3_crld.obj
 0001:000341f8       DIST_POINT_set_dpname      000451f8 f   libeay32:v3_crld.obj
 0001:00034934       POLICY_MAPPING_it          00045934 f   libeay32:v3_pmaps.obj
 0001:00034940       POLICY_MAPPINGS_it         00045940 f   libeay32:v3_pmaps.obj
 0001:0003494c       POLICY_MAPPING_free        0004594c f   libeay32:v3_pmaps.obj
 0001:00034bd0       GENERAL_SUBTREE_it         00045bd0 f   libeay32:v3_ncons.obj
 0001:00034bdc       NAME_CONSTRAINTS_it        00045bdc f   libeay32:v3_ncons.obj
 0001:00034be8       NAME_CONSTRAINTS_free      00045be8 f   libeay32:v3_ncons.obj
 0001:00035fa0       POLICY_CONSTRAINTS_it      00046fa0 f   libeay32:v3_pcons.obj
 0001:00036160       EXTENDED_KEY_USAGE_it      00047160 f   libeay32:v3_extku.obj
 0001:00036300       SXNETID_it                 00047300 f   libeay32:v3_sxnet.obj
 0001:0003630c       SXNET_it                   0004730c f   libeay32:v3_sxnet.obj
 0001:000363e8       SXNET_get_id_INTEGER       000473e8 f   libeay32:v3_sxnet.obj
 0001:00036458       SXNET_add_id_INTEGER       00047458 f   libeay32:v3_sxnet.obj
 0001:00036600       SXNET_add_id_asc           00047600 f   libeay32:v3_sxnet.obj
 0001:000366ec       i2s_ASN1_ENUMERATED_TABLE  000476ec f   libeay32:v3_enum.obj
 0001:00036ae0       CERTIFICATEPOLICIES_it     00047ae0 f   libeay32:v3_cpols.obj
 0001:00036aec       POLICYINFO_it              00047aec f   libeay32:v3_cpols.obj
 0001:00036af8       POLICYINFO_free            00047af8 f   libeay32:v3_cpols.obj
 0001:00036b1c       POLICYQUALINFO_it          00047b1c f   libeay32:v3_cpols.obj
 0001:00036b28       POLICYQUALINFO_free        00047b28 f   libeay32:v3_cpols.obj
 0001:00036b40       USERNOTICE_it              00047b40 f   libeay32:v3_cpols.obj
 0001:00036b4c       NOTICEREF_it               00047b4c f   libeay32:v3_cpols.obj
 0001:000377e0       BASIC_CONSTRAINTS_it       000487e0 f   libeay32:v3_bcons.obj
 0001:000377ec       BASIC_CONSTRAINTS_free     000487ec f   libeay32:v3_bcons.obj
 0001:00037990       PKEY_USAGE_PERIOD_it       00048990 f   libeay32:v3_pku.obj
 0001:00037a4c       i2v_ASN1_BIT_STRING        00048a4c f   libeay32:v3_bitst.obj
 0001:00037ab0       v2i_ASN1_BIT_STRING        00048ab0 f   libeay32:v3_bitst.obj
 0001:00037c30       i2s_ASN1_OCTET_STRING      00048c30 f   libeay32:v3_skey.obj
 0001:00037c4c       s2i_ASN1_OCTET_STRING      00048c4c f   libeay32:v3_skey.obj
 0001:00037f78       X509V3_get_section         00048f78 f   libeay32:v3_conf.obj
 0001:00037fe8       X509V3_section_free        00048fe8 f   libeay32:v3_conf.obj
 0001:00038084       X509_REQ_INFO_it           00049084 f   libeay32:x_req.obj
 0001:00038090       X509_digest                00049090 f   libeay32:x_all.obj
 0001:000380cc       X509_CRL_digest            000490cc f   libeay32:x_all.obj
 0001:00038108       X509at_get_attr_count      00049108 f   libeay32:x509_att.obj
 0001:00038118       X509at_get_attr_by_OBJ     00049118 f   libeay32:x509_att.obj
 0001:0003817c       X509at_add1_attr           0004917c f   libeay32:x509_att.obj
 0001:00038250       X509_ATTRIBUTE_set1_object 00049250 f   libeay32:x509_att.obj
 0001:00038294       X509_ATTRIBUTE_set1_data   00049294 f   libeay32:x509_att.obj
 0001:00038408       X509at_get_attr_by_NID     00049408 f   libeay32:x509_att.obj
 0001:00038444       X509_ATTRIBUTE_create_by_OBJ 00049444 f   libeay32:x509_att.obj
 0001:00038518       X509_ATTRIBUTE_create_by_NID 00049518 f   libeay32:x509_att.obj
 0001:0003859c       X509at_add1_attr_by_NID    0004959c f   libeay32:x509_att.obj
 0001:000385ec       ECDH_OpenSSL               000495ec f   libeay32:ech_ossl.obj
 0001:00038944       ENGINE_get_default_ECDH    00049944 f   libeay32:tb_ecdh.obj
 0001:00038960       ENGINE_get_ECDH            00049960 f   libeay32:tb_ecdh.obj
 0001:00038968       ec_GFp_mont_group_init     00049968 f   libeay32:ecp_mont.obj
 0001:00038988       ec_GFp_mont_group_finish   00049988 f   libeay32:ecp_mont.obj
 0001:000389d4       ec_GFp_mont_group_clear_finish 000499d4 f   libeay32:ecp_mont.obj
 0001:00038a20       ec_GFp_mont_group_copy     00049a20 f   libeay32:ecp_mont.obj
 0001:00038af0       ec_GFp_mont_group_set_curve 00049af0 f   libeay32:ecp_mont.obj
 0001:00038c50       ec_GFp_mont_field_mul      00049c50 f   libeay32:ecp_mont.obj
 0001:00038cc0       ec_GFp_mont_field_sqr      00049cc0 f   libeay32:ecp_mont.obj
 0001:00038d2c       ec_GFp_mont_field_encode   00049d2c f   libeay32:ecp_mont.obj
 0001:00038d9c       ec_GFp_mont_field_decode   00049d9c f   libeay32:ecp_mont.obj
 0001:00038dfc       ec_GFp_mont_field_set_to_one 00049dfc f   libeay32:ecp_mont.obj
 0001:00038e60       EC_GFp_mont_method         00049e60 f   libeay32:ecp_mont.obj
 0001:00038e6c       ec_GFp_nist_group_copy     00049e6c f   libeay32:ecp_nist.obj
 0001:00038e88       ec_GFp_nist_group_set_curve 00049e88 f   libeay32:ecp_nist.obj
 0001:00038fd4       ec_GFp_nist_field_mul      00049fd4 f   libeay32:ecp_nist.obj
 0001:000390b0       ec_GFp_nist_field_sqr      0004a0b0 f   libeay32:ecp_nist.obj
 0001:0003917c       EC_GFp_nist_method         0004a17c f   libeay32:ecp_nist.obj
 0001:00039188       ec_GF2m_simple_group_init  0004a188 f   libeay32:ec2_smpl.obj
 0001:000391b4       ec_GF2m_simple_group_finish 0004a1b4 f   libeay32:ec2_smpl.obj
 0001:000391dc       ec_GF2m_simple_group_clear_finish 0004a1dc f   libeay32:ec2_smpl.obj
 0001:00039224       ec_GF2m_simple_group_copy  0004a224 f   libeay32:ec2_smpl.obj
 0001:00039370       ec_GF2m_simple_group_set_curve 0004a370 f   libeay32:ec2_smpl.obj
 0001:000394e0       ec_GF2m_simple_group_get_curve 0004a4e0 f   libeay32:ec2_smpl.obj
 0001:0003955c       ec_GF2m_simple_group_get_degree 0004a55c f   libeay32:ec2_smpl.obj
 0001:00039574       ec_GF2m_simple_group_check_discriminant 0004a574 f   libeay32:ec2_smpl.obj
 0001:00039628       ec_GF2m_simple_point_init  0004a628 f   libeay32:ec2_smpl.obj
 0001:00039654       ec_GF2m_simple_point_finish 0004a654 f   libeay32:ec2_smpl.obj
 0001:0003967c       ec_GF2m_simple_point_clear_finish 0004a67c f   libeay32:ec2_smpl.obj
 0001:000396ac       ec_GF2m_simple_point_copy  0004a6ac f   libeay32:ec2_smpl.obj
 0001:00039714       ec_GF2m_simple_point_set_to_infinity 0004a714 f   libeay32:ec2_smpl.obj
 0001:0003973c       ec_GF2m_simple_point_set_affine_coordinates 0004a73c f   libeay32:ec2_smpl.obj
 0001:00039808       ec_GF2m_simple_point_get_affine_coordinates 0004a808 f   libeay32:ec2_smpl.obj
 0001:000398f8       ec_GF2m_simple_add         0004a8f8 f   libeay32:ec2_smpl.obj
 0001:00039cfc       ec_GF2m_simple_dbl         0004acfc f   libeay32:ec2_smpl.obj
 0001:00039d20       ec_GF2m_simple_invert      0004ad20 f   libeay32:ec2_smpl.obj
 0001:00039d8c       ec_GF2m_simple_is_at_infinity 0004ad8c f   libeay32:ec2_smpl.obj
 0001:00039da0       ec_GF2m_simple_is_on_curve 0004ada0 f   libeay32:ec2_smpl.obj
 0001:00039f30       ec_GF2m_simple_cmp         0004af30 f   libeay32:ec2_smpl.obj
 0001:0003a0bc       ec_GF2m_simple_make_affine 0004b0bc f   libeay32:ec2_smpl.obj
 0001:0003a1c0       ec_GF2m_simple_points_make_affine 0004b1c0 f   libeay32:ec2_smpl.obj
 0001:0003a228       ec_GF2m_simple_field_mul   0004b228 f   libeay32:ec2_smpl.obj
 0001:0003a264       ec_GF2m_simple_field_sqr   0004b264 f   libeay32:ec2_smpl.obj
 0001:0003a288       ec_GF2m_simple_field_div   0004b288 f   libeay32:ec2_smpl.obj
 0001:0003a2c4       EC_GF2m_simple_method      0004b2c4 f   libeay32:ec2_smpl.obj
 0001:0003a2d0       BN_mod_exp2_mont           0004b2d0 f   libeay32:bn_exp2.obj
 0001:0003a984       bn_sqr_normal              0004b984 f   libeay32:bn_sqr.obj
 0001:0003aa70       BN_sqr                     0004ba70 f   libeay32:bn_sqr.obj
 0001:0003aba8       BN_RECP_CTX_init           0004bba8 f   libeay32:bn_recp.obj
 0001:0003abd0       BN_RECP_CTX_free           0004bbd0 f   libeay32:bn_recp.obj
 0001:0003ac04       BN_RECP_CTX_set            0004bc04 f   libeay32:bn_recp.obj
 0001:0003ac50       BN_reciprocal              0004bc50 f   libeay32:bn_recp.obj
 0001:0003acd0       BN_div_recp                0004bcd0 f   libeay32:bn_recp.obj
 0001:0003af2c       BN_mod_mul_reciprocal      0004bf2c f   libeay32:bn_recp.obj
 0001:0003afd8       X509_REVOKED_it            0004bfd8 f   libeay32:x_crl.obj
 0001:0003afe4       X509_CRL_INFO_it           0004bfe4 f   libeay32:x_crl.obj
 0001:0003b274       X509_CRL_it                0004c274 f   libeay32:x_crl.obj
 0001:0003b6f4       X509_CINF_it               0004c6f4 f   libeay32:x_x509.obj
 0001:0003b7f0       X509_it                    0004c7f0 f   libeay32:x_x509.obj
 0001:0003b7fc       X509_free                  0004c7fc f   libeay32:x_x509.obj
 0001:0003b814       CMS_stream                 0004c814 f   libeay32:cms_io.obj
 0001:0003b8b0       BIO_f_md                   0004c8b0 f   libeay32:bio_md.obj
 0001:0003bc1c       BIO_s_mem                  0004cc1c f   libeay32:bss_mem.obj
 0001:0003bc28       BIO_new_mem_buf            0004cc28 f   libeay32:bss_mem.obj
 0001:0003c0b4       BIO_s_null                 0004d0b4 f   libeay32:bss_null.obj
 0001:0003c168       cms_DigestedData_init_bio  0004d168 f   libeay32:cms_dd.obj
 0001:0003c180       cms_DigestedData_do_final  0004d180 f   libeay32:cms_dd.obj
 0001:0003c280       BIO_f_cipher               0004d280 f   libeay32:bio_enc.obj
 0001:0003c858       ASN1_TIME_it               0004d858 f   libeay32:a_time.obj
 0001:0003c864       ASN1_TIME_free             0004d864 f   libeay32:a_time.obj
 0001:0003c87c       ASN1_TIME_adj              0004d87c f   libeay32:a_time.obj
 0001:0003c94c       ASN1_TIME_check            0004d94c f   libeay32:a_time.obj
 0001:0003c988       CMS_signed_get_attr_count  0004d988 f   libeay32:cms_att.obj
 0001:0003c99c       CMS_signed_get_attr_by_NID 0004d99c f   libeay32:cms_att.obj
 0001:0003c9b0       CMS_signed_add1_attr_by_NID 0004d9b0 f   libeay32:cms_att.obj
 0001:0003c9e0       X509_time_adj_ex           0004d9e0 f   libeay32:x509_vfy.obj
 0001:0003ca7c       X509_gmtime_adj            0004da7c f   libeay32:x509_vfy.obj
 0001:0003cc14       EVP_DigestSignInit         0004dc14 f   libeay32:m_sigver.obj
 0001:0003cc3c       EVP_DigestVerifyInit       0004dc3c f   libeay32:m_sigver.obj
 0001:0003cc64       EVP_DigestSignFinal        0004dc64 f   libeay32:m_sigver.obj
 0001:0003cda4       EVP_DigestVerifyFinal      0004dda4 f   libeay32:m_sigver.obj
 0001:0003ce78       EVP_SignFinal              0004de78 f   libeay32:p_sign.obj
 0001:0003d044       PROXY_POLICY_it            0004e044 f   libeay32:v3_pcia.obj
 0001:0003d050       PROXY_CERT_INFO_EXTENSION_it 0004e050 f   libeay32:v3_pcia.obj
 0001:0003d05c       PROXY_CERT_INFO_EXTENSION_new 0004e05c f   libeay32:v3_pcia.obj
 0001:0003d074       PROXY_CERT_INFO_EXTENSION_free 0004e074 f   libeay32:v3_pcia.obj
 0001:0003d08c       private_AES_set_encrypt_key 0004e08c f   libeay32:aes_core.obj
 0001:0003d670       AES_encrypt                0004e670 f   libeay32:aes_core.obj
 0001:0003ddf4       d2i_PBE2PARAM              0004edf4 f   libeay32:p5_pbev2.obj
 0001:0003de0c       PBE2PARAM_free             0004ee0c f   libeay32:p5_pbev2.obj
 0001:0003de24       d2i_PBKDF2PARAM            0004ee24 f   libeay32:p5_pbev2.obj
 0001:0003de3c       PBKDF2PARAM_free           0004ee3c f   libeay32:p5_pbev2.obj
 0001:0003de54       ASN1_item_pack             0004ee54 f   libeay32:asn_pack.obj
 0001:0003df44       RSA_padding_add_PKCS1_type_1 0004ef44 f   libeay32:rsa_pk1.obj
 0001:0003dfd8       RSA_padding_check_PKCS1_type_1 0004efd8 f   libeay32:rsa_pk1.obj
 0001:0003e120       RSA_padding_add_PKCS1_type_2 0004f120 f   libeay32:rsa_pk1.obj
 0001:0003e1f8       RSA_padding_check_PKCS1_type_2 0004f1f8 f   libeay32:rsa_pk1.obj
 0001:0003e30c       RSA_padding_add_SSLv23     0004f30c f   libeay32:rsa_ssl.obj
 0001:0003e3f4       RSA_padding_check_SSLv23   0004f3f4 f   libeay32:rsa_ssl.obj
 0001:0003e564       RSA_padding_add_none       0004f564 f   libeay32:rsa_none.obj
 0001:0003e5e4       RSA_padding_check_none     0004f5e4 f   libeay32:rsa_none.obj
 0001:0003e660       EC_GROUP_get_basis_type    0004f660 f   libeay32:ec_asn1.obj
 0001:0003e6d8       EC_GROUP_get_trinomial_basis 0004f6d8 f   libeay32:ec_asn1.obj
 0001:0003e76c       EC_GROUP_get_pentanomial_basis 0004f76c f   libeay32:ec_asn1.obj
 0001:0003e838       X9_62_PENTANOMIAL_it       0004f838 f   libeay32:ec_asn1.obj
 0001:0003e850       X9_62_CHARACTERISTIC_TWO_it 0004f850 f   libeay32:ec_asn1.obj
 0001:0003e868       X9_62_FIELDID_it           0004f868 f   libeay32:ec_asn1.obj
 0001:0003e874       X9_62_CURVE_it             0004f874 f   libeay32:ec_asn1.obj
 0001:0003e880       ECPARAMETERS_it            0004f880 f   libeay32:ec_asn1.obj
 0001:0003e88c       ECPKPARAMETERS_it          0004f88c f   libeay32:ec_asn1.obj
 0001:0003fd8c       d2i_ECPKParameters         00050d8c f   libeay32:ec_asn1.obj
 0001:0003fe58       i2d_ECPKParameters         00050e58 f   libeay32:ec_asn1.obj
 0001:0003fefc       d2i_ECPrivateKey           00050efc f   libeay32:ec_asn1.obj
 0001:000401b8       i2d_ECPrivateKey           000511b8 f   libeay32:ec_asn1.obj
 0001:0004053c       i2d_ECParameters           0005153c f   libeay32:ec_asn1.obj
 0001:0004058c       d2i_ECParameters           0005158c f   libeay32:ec_asn1.obj
 0001:00040670       o2i_ECPublicKey            00051670 f   libeay32:ec_asn1.obj
 0001:00040784       i2o_ECPublicKey            00051784 f   libeay32:ec_asn1.obj
 0001:00040904       PKCS8_PRIV_KEY_INFO_it     00051904 f   libeay32:p8_pkey.obj
 0001:00040910       PKCS8_pkey_set0            00051910 f   libeay32:p8_pkey.obj
 0001:000409c0       PKCS8_pkey_get0            000519c0 f   libeay32:p8_pkey.obj
 0001:00040ba8       ECPKParameters_print       00051ba8 f   libeay32:eck_prn.obj
 0001:00041190       ASN1_bn_print              00052190 f   libeay32:t_pkey.obj
 0001:00041384       EC_POINT_point2bn          00052384 f   libeay32:ec_print.obj
 0001:00041430       PKCS7_ctrl                 00052430 f   libeay32:pk7_lib.obj
 0001:00041554       PKCS7_SIGNER_INFO_get0_algs 00052554 f   libeay32:pk7_lib.obj
 0001:00041584       PKCS7_RECIP_INFO_get0_alg  00052584 f   libeay32:pk7_lib.obj
 0001:00041594       PKCS7_stream               00052594 f   libeay32:pk7_lib.obj
 0001:00041668       X509_signature_dump        00052668 f   libeay32:t_x509.obj
 0001:00041754       ASN1_STRING_print          00052754 f   libeay32:t_x509.obj
 0001:00041828       ASN1_GENERALIZEDTIME_print 00052828 f   libeay32:t_x509.obj
 0001:00041a44       X509_NAME_print            00052a44 f   libeay32:t_x509.obj
 0001:00041bd0       d2i_DHparams               00052bd0 f   libeay32:dh_asn1.obj
 0001:00041be8       i2d_DHparams               00052be8 f   libeay32:dh_asn1.obj
 0001:00041c5c       RSA_PSS_PARAMS_it          00052c5c f   libeay32:rsa_asn1.obj
 0001:00041c68       d2i_RSA_PSS_PARAMS         00052c68 f   libeay32:rsa_asn1.obj
 0001:00041c80       RSA_PSS_PARAMS_new         00052c80 f   libeay32:rsa_asn1.obj
 0001:00041c98       RSA_PSS_PARAMS_free        00052c98 f   libeay32:rsa_asn1.obj
 0001:00041cb0       d2i_RSAPrivateKey          00052cb0 f   libeay32:rsa_asn1.obj
 0001:00041cc8       i2d_RSAPrivateKey          00052cc8 f   libeay32:rsa_asn1.obj
 0001:00041ce0       d2i_RSAPublicKey           00052ce0 f   libeay32:rsa_asn1.obj
 0001:00041cf8       i2d_RSAPublicKey           00052cf8 f   libeay32:rsa_asn1.obj
 0001:00041d10       i2a_ASN1_INTEGER           00052d10 f   libeay32:f_int.obj
 0001:00041e58       d2i_PBEPARAM               00052e58 f   libeay32:p5_pbe.obj
 0001:00041e70       PBEPARAM_free              00052e70 f   libeay32:p5_pbe.obj
 0001:00041e88       PKCS12_key_gen_uni         00052e88 f   libeay32:p12_key.obj
 0001:00042388       PKCS12_key_gen_asc         00053388 f   libeay32:p12_key.obj
 0001:000424dc       RAND_poll                  000534dc f   libeay32:rand_win.obj
 0001:000430bc       X509_NAME_print_ex         000540bc f   libeay32:a_strex.obj
 0001:00043100       ASN1_STRING_to_UTF8        00054100 f   libeay32:a_strex.obj
 0001:00043464       ASN1_mbstring_ncopy        00054464 f   libeay32:a_mbstr.obj
 0001:00043954       ASN1_mbstring_copy         00054954 f   libeay32:a_mbstr.obj
 0001:000445f0       ASN1_generate_v3           000555f0 f   libeay32:asn1_gen.obj
 0001:00044a20       NCONF_default              00055a20 f   libeay32:conf_def.obj
 0001:000459a0       _CONF_get_section          000569a0 f   libeay32:conf_api.obj
 0001:000459e8       _CONF_get_section_values   000569e8 f   libeay32:conf_api.obj
 0001:00045a08       _CONF_add_string           00056a08 f   libeay32:conf_api.obj
 0001:00045a80       _CONF_get_string           00056a80 f   libeay32:conf_api.obj
 0001:00045be4       _CONF_new_data             00056be4 f   libeay32:conf_api.obj
 0001:00045c34       _CONF_new_section          00056c34 f   libeay32:conf_api.obj
 0001:00045da4       _CONF_free_data            00056da4 f   libeay32:conf_api.obj
 0001:00045df8       MD5_Init                   00056df8 f   libeay32:md5_dgst.obj
 0001:00045e48       md5_block_data_order       00056e48 f   libeay32:md5_dgst.obj
 0001:00046a44       MD5_Update                 00057a44 f   libeay32:md5_dgst.obj
 0001:00046b4c       MD5_Final                  00057b4c f   libeay32:md5_dgst.obj
 0001:00046c9c       OCSP_SIGNATURE_it          00057c9c f   libeay32:ocsp_asn.obj
 0001:00046ca8       OCSP_CERTID_it             00057ca8 f   libeay32:ocsp_asn.obj
 0001:00046cb4       OCSP_ONEREQ_it             00057cb4 f   libeay32:ocsp_asn.obj
 0001:00046cc0       OCSP_REQINFO_it            00057cc0 f   libeay32:ocsp_asn.obj
 0001:00046ccc       OCSP_RESPBYTES_it          00057ccc f   libeay32:ocsp_asn.obj
 0001:00046cd8       OCSP_RESPID_it             00057cd8 f   libeay32:ocsp_asn.obj
 0001:00046ce4       OCSP_REVOKEDINFO_it        00057ce4 f   libeay32:ocsp_asn.obj
 0001:00046cf0       OCSP_CERTSTATUS_it         00057cf0 f   libeay32:ocsp_asn.obj
 0001:00046cfc       OCSP_SINGLERESP_it         00057cfc f   libeay32:ocsp_asn.obj
 0001:00046d08       OCSP_RESPDATA_it           00057d08 f   libeay32:ocsp_asn.obj
 0001:00046d14       OCSP_CRLID_it              00057d14 f   libeay32:ocsp_asn.obj
 0001:00046d20       OCSP_SERVICELOC_it         00057d20 f   libeay32:ocsp_asn.obj
 0001:00046d2c       i2a_ASN1_STRING            00057d2c f   libeay32:f_string.obj
 0001:00046e48       AUTHORITY_KEYID_it         00057e48 f   libeay32:v3_akeya.obj
 0001:00046e54       AUTHORITY_KEYID_new        00057e54 f   libeay32:v3_akeya.obj
 0001:00046e6c       AUTHORITY_KEYID_free       00057e6c f   libeay32:v3_akeya.obj
 0001:00046e84       ASN1_item_verify           00057e84 f   libeay32:a_verify.obj
 0001:00047124       NETSCAPE_SPKAC_it          00058124 f   libeay32:x_spki.obj
 0001:000471c0       PKCS7_it                   000581c0 f   libeay32:pk7_asn1.obj
 0001:000471cc       PKCS7_SIGNED_it            000581cc f   libeay32:pk7_asn1.obj
 0001:000471f8       PKCS7_SIGNER_INFO_it       000581f8 f   libeay32:pk7_asn1.obj
 0001:00047204       PKCS7_ISSUER_AND_SERIAL_it 00058204 f   libeay32:pk7_asn1.obj
 0001:00047210       PKCS7_ENVELOPE_it          00058210 f   libeay32:pk7_asn1.obj
 0001:0004723c       PKCS7_RECIP_INFO_it        0005823c f   libeay32:pk7_asn1.obj
 0001:00047248       PKCS7_ENC_CONTENT_it       00058248 f   libeay32:pk7_asn1.obj
 0001:00047254       PKCS7_SIGN_ENVELOPE_it     00058254 f   libeay32:pk7_asn1.obj
 0001:00047260       PKCS7_ENCRYPT_it           00058260 f   libeay32:pk7_asn1.obj
 0001:0004726c       PKCS7_DIGEST_it            0005826c f   libeay32:pk7_asn1.obj
 0001:00047278       PKCS7_ATTR_SIGN_it         00058278 f   libeay32:pk7_asn1.obj
 0001:00047284       ASN1_item_digest           00058284 f   libeay32:a_digest.obj
 0001:00047304       ec_GFp_simple_group_init   00058304 f   libeay32:ecp_smpl.obj
 0001:00047338       ec_GFp_simple_group_finish 00058338 f   libeay32:ecp_smpl.obj
 0001:00047360       ec_GFp_simple_group_clear_finish 00058360 f   libeay32:ecp_smpl.obj
 0001:00047388       ec_GFp_simple_group_copy   00058388 f   libeay32:ecp_smpl.obj
 0001:000473f0       ec_GFp_simple_group_set_curve 000583f0 f   libeay32:ecp_smpl.obj
 0001:000475bc       ec_GFp_simple_group_get_curve 000585bc f   libeay32:ecp_smpl.obj
 0001:000476ec       ec_GFp_simple_group_get_degree 000586ec f   libeay32:ecp_smpl.obj
 0001:00047700       ec_GFp_simple_group_check_discriminant 00058700 f   libeay32:ecp_smpl.obj
 0001:00047924       ec_GFp_simple_point_init   00058924 f   libeay32:ecp_smpl.obj
 0001:00047958       ec_GFp_simple_point_finish 00058958 f   libeay32:ecp_smpl.obj
 0001:00047980       ec_GFp_simple_point_clear_finish 00058980 f   libeay32:ecp_smpl.obj
 0001:000479b0       ec_GFp_simple_point_copy   000589b0 f   libeay32:ecp_smpl.obj
 0001:00047a18       ec_GFp_simple_point_set_to_infinity 00058a18 f   libeay32:ecp_smpl.obj
 0001:00047a40       ec_GFp_simple_set_Jprojective_coordinates_GFp 00058a40 f   libeay32:ecp_smpl.obj
 0001:00047bf0       ec_GFp_simple_get_Jprojective_coordinates_GFp 00058bf0 f   libeay32:ecp_smpl.obj
 0001:00047d40       ec_GFp_simple_point_set_affine_coordinates 00058d40 f   libeay32:ecp_smpl.obj
 0001:00047dc0       ec_GFp_simple_point_get_affine_coordinates 00058dc0 f   libeay32:ecp_smpl.obj
 0001:000480fc       ec_GFp_simple_add          000590fc f   libeay32:ecp_smpl.obj
 0001:0004870c       ec_GFp_simple_dbl          0005970c f   libeay32:ecp_smpl.obj
 0001:00048be4       ec_GFp_simple_invert       00059be4 f   libeay32:ecp_smpl.obj
 0001:00048c2c       ec_GFp_simple_is_at_infinity 00059c2c f   libeay32:ecp_smpl.obj
 0001:00048c40       ec_GFp_simple_is_on_curve  00059c40 f   libeay32:ecp_smpl.obj
 0001:00048f80       ec_GFp_simple_cmp          00059f80 f   libeay32:ecp_smpl.obj
 0001:00049264       ec_GFp_simple_make_affine  0005a264 f   libeay32:ecp_smpl.obj
 0001:00049380       ec_GFp_simple_points_make_affine 0005a380 f   libeay32:ecp_smpl.obj
 0001:00049880       ec_GFp_simple_field_mul    0005a880 f   libeay32:ecp_smpl.obj
 0001:000498bc       ec_GFp_simple_field_sqr    0005a8bc f   libeay32:ecp_smpl.obj
 0001:000498e0       BN_get0_nist_prime_192     0005a8e0 f   libeay32:bn_nist.obj
 0001:000498ec       BN_get0_nist_prime_224     0005a8ec f   libeay32:bn_nist.obj
 0001:000498f8       BN_get0_nist_prime_256     0005a8f8 f   libeay32:bn_nist.obj
 0001:00049904       BN_get0_nist_prime_384     0005a904 f   libeay32:bn_nist.obj
 0001:00049910       BN_get0_nist_prime_521     0005a910 f   libeay32:bn_nist.obj
 0001:0004996c       BN_nist_mod_192            0005a96c f   libeay32:bn_nist.obj
 0001:00049c34       BN_nist_mod_224            0005ac34 f   libeay32:bn_nist.obj
 0001:00049f98       BN_nist_mod_256            0005af98 f   libeay32:bn_nist.obj
 0001:0004a454       BN_nist_mod_384            0005b454 f   libeay32:bn_nist.obj
 0001:0004aa18       BN_nist_mod_521            0005ba18 f   libeay32:bn_nist.obj
 0001:0004b57c       ec_GF2m_simple_mul         0005c57c f   libeay32:ec2_mult.obj
 0001:0004b7f8       ec_GF2m_precompute_mult    0005c7f8 f   libeay32:ec2_mult.obj
 0001:0004b808       ec_GF2m_have_precompute_mult 0005c808 f   libeay32:ec2_mult.obj
 0001:0004b9b0       BN_GF2m_add                0005c9b0 f   libeay32:bn_gf2m.obj
 0001:0004baa4       BN_GF2m_mod_arr            0005caa4 f   libeay32:bn_gf2m.obj
 0001:0004bd1c       BN_GF2m_mod_sqr_arr        0005cd1c f   libeay32:bn_gf2m.obj
 0001:0004bea4       BN_GF2m_poly2arr           0005cea4 f   libeay32:bn_gf2m.obj
 0001:0004bf48       BN_GF2m_mod                0005cf48 f   libeay32:bn_gf2m.obj
 0001:0004bfc4       BN_GF2m_mod_mul_arr        0005cfc4 f   libeay32:bn_gf2m.obj
 0001:0004c214       BN_GF2m_mod_mul            0005d214 f   libeay32:bn_gf2m.obj
 0001:0004c2d8       BN_GF2m_mod_inv            0005d2d8 f   libeay32:bn_gf2m.obj
 0001:0004c718       BN_GF2m_mod_div            0005d718 f   libeay32:bn_gf2m.obj
 0001:0004c7a4       BN_GF2m_mod_exp_arr        0005d7a4 f   libeay32:bn_gf2m.obj
 0001:0004c8dc       BN_GF2m_mod_sqrt_arr       0005d8dc f   libeay32:bn_gf2m.obj
 0001:0004c978       BN_GF2m_mod_solve_quad_arr 0005d978 f   libeay32:bn_gf2m.obj
 0001:0004ccd8       X509_VAL_it                0005dcd8 f   libeay32:x_val.obj
 0001:0004cce4       policy_cache_free          0005dce4 f   libeay32:pcy_cache.obj
 0001:0004cd28       X509_CERT_AUX_free         0005dd28 f   libeay32:x_x509a.obj
 0001:0004cd40       ASN1_tag2str               0005dd40 f   libeay32:asn1_par.obj
 0001:0004cd80       ASN1_GENERALIZEDTIME_check 0005dd80 f   libeay32:a_gentm.obj
 0001:0004cf5c       ASN1_GENERALIZEDTIME_adj   0005df5c f   libeay32:a_gentm.obj
 0001:0004d0a0       ASN1_UTCTIME_check         0005e0a0 f   libeay32:a_utctm.obj
 0001:0004d22c       ASN1_UTCTIME_adj           0005e22c f   libeay32:a_utctm.obj
 0001:0004d39c       OPENSSL_gmtime             0005e39c f   libeay32:o_time.obj
 0001:0004d514       OPENSSL_gmtime_adj         0005e514 f   libeay32:o_time.obj
 0001:0004d8c8       EC_POINT_set_compressed_coordinates_GFp 0005e8c8 f   libeay32:ec_oct.obj
 0001:0004d9c0       EC_POINT_set_compressed_coordinates_GF2m 0005e9c0 f   libeay32:ec_oct.obj
 0001:0004dab8       EC_POINT_point2oct         0005eab8 f   libeay32:ec_oct.obj
 0001:0004dbc8       EC_POINT_oct2point         0005ebc8 f   libeay32:ec_oct.obj
 0001:0004dcc0       OPENSSL_asc2uni            0005ecc0 f   libeay32:p12_utl.obj
 0001:0004dd60       UTF8_getc                  0005ed60 f   libeay32:a_utf8.obj
 0001:0004e064       UTF8_putc                  0005f064 f   libeay32:a_utf8.obj
 0001:0004f658       PKCS7_dataInit             00060658 f   libeay32:pk7_doit.obj
 0001:0004fb7c       PKCS7_SIGNER_INFO_sign     00060b7c f   libeay32:pk7_doit.obj
 0001:0004feec       PKCS7_add_signed_attribute 00060eec f   libeay32:pk7_doit.obj
 0001:00050004       PKCS7_dataFinal            00061004 f   libeay32:pk7_doit.obj
 0001:00050430       policy_data_free           00061430 f   libeay32:pcy_data.obj
 0001:00050478       EVP_EncodeInit             00061478 f   libeay32:encode.obj
 0001:00050490       EVP_EncodeBlock            00061490 f   libeay32:encode.obj
 0001:00050570       EVP_DecodeInit             00061570 f   libeay32:encode.obj
 0001:0005058c       EVP_DecodeBlock            0006158c f   libeay32:encode.obj
 0001:000506b0       EVP_EncodeUpdate           000616b0 f   libeay32:encode.obj
 0001:000507dc       EVP_EncodeFinal            000617dc f   libeay32:encode.obj
 0001:00050830       EVP_DecodeUpdate           00061830 f   libeay32:encode.obj
 0001:000525e0       ec_GF2m_simple_set_compressed_coordinates 000635e0 f   libeay32:ec2_oct.obj
 0001:00052874       ec_GF2m_simple_point2oct   00063874 f   libeay32:ec2_oct.obj
 0001:00052c18       ec_GF2m_simple_oct2point   00063c18 f   libeay32:ec2_oct.obj
 0001:00052fc4       ec_GFp_simple_set_compressed_coordinates 00063fc4 f   libeay32:ecp_oct.obj
 0001:00053410       ec_GFp_simple_point2oct    00064410 f   libeay32:ecp_oct.obj
 0001:00053780       ec_GFp_simple_oct2point    00064780 f   libeay32:ecp_oct.obj
 0001:00053af0       PKCS12_MAC_DATA_it         00064af0 f   libeay32:p12_asn.obj
 0001:00053b08       PKCS12_BAGS_it             00064b08 f   libeay32:p12_asn.obj
 0001:00053b20       PKCS12_SAFEBAG_it          00064b20 f   libeay32:p12_asn.obj
 0001:00053b2c       PKCS7_add0_attrib_signing_time 00064b2c f   libeay32:pk7_attr.obj
 0001:00053b9c       PKCS7_add1_attrib_digest   00064b9c f   libeay32:pk7_attr.obj
 0001:00053c08       UI_get_string_type         00064c08 f   libeay32:ui_lib.obj
 0001:00053c18       UI_get_input_flags         00064c18 f   libeay32:ui_lib.obj
 0001:00053c28       UI_get0_output_string      00064c28 f   libeay32:ui_lib.obj
 0001:00053c38       UI_get0_action_string      00064c38 f   libeay32:ui_lib.obj
 0001:00053c64       UI_get0_result_string      00064c64 f   libeay32:ui_lib.obj
 0001:00053c88       UI_get0_test_string        00064c88 f   libeay32:ui_lib.obj
 0001:00053cac       BN_kronecker               00064cac f   libeay32:bn_kron.obj
 0001:00053f60       BN_mod_sqrt                00064f60 f   libeay32:bn_sqrt.obj
 0001:000549b8       raise                      000659b8 f   wcecompatex:signal.obj
 0001:000549c0       getenv                     000659c0 f   wcecompatex:env.obj
 0001:00054d8c       w32_filetime_to_time_t     00065d8c f   wcecompatex:time.obj
 0001:00054e2c       time                       00065e2c f   wcecompatex:time.obj
 0001:00054e90       dayOfYear                  00065e90 f   wcecompatex:time.obj
 0001:00054f64       gmtime                     00065f64 f   wcecompatex:time.obj
 0001:00055024       ?unicode2ascii@@YAXPB_WPAD@Z 00066024 f   wcecompatex:ts_string.obj
 0001:00055078       ?ascii2unicode@@YAXPBDPA_WH@Z 00066078 f   wcecompatex:ts_string.obj
 0001:00055118       ?unicode2ascii@@YAXPB_WPADH@Z 00066118 f   wcecompatex:ts_string.obj
 0001:000551a8       sprintf                    000661a8 f   coredll:COREDLL.dll
 0001:000551b8       printf                     000661b8 f   coredll:COREDLL.dll
 0001:000551c8       strcmp                     000661c8 f   coredll:COREDLL.dll
 0001:000551d8       strlen                     000661d8 f   coredll:COREDLL.dll
 0001:000551e8       memset                     000661e8 f   coredll:COREDLL.dll
 0001:000551f8       memcpy                     000661f8 f   coredll:COREDLL.dll
 0001:00055208       free                       00066208 f   coredll:COREDLL.dll
 0001:00055218       realloc                    00066218 f   coredll:COREDLL.dll
 0001:00055228       malloc                     00066228 f   coredll:COREDLL.dll
 0001:00055238       strcpy                     00066238 f   coredll:COREDLL.dll
 0001:00055248       strncpy                    00066248 f   coredll:COREDLL.dll
 0001:00055258       strchr                     00066258 f   coredll:COREDLL.dll
 0001:00055268       memcmp                     00066268 f   coredll:COREDLL.dll
 0001:00055278       MessageBoxW                00066278 f   coredll:COREDLL.dll
 0001:00055288       _vsnwprintf                00066288 f   coredll:COREDLL.dll
 0001:00055298       MultiByteToWideChar        00066298 f   coredll:COREDLL.dll
 0001:000552a8       _getstdfilex               000662a8 f   coredll:COREDLL.dll
 0001:000552b8       memchr                     000662b8 f   coredll:COREDLL.dll
 0001:000552c8       fprintf                    000662c8 f   coredll:COREDLL.dll
 0001:000552d8       atoi                       000662d8 f   coredll:COREDLL.dll
 0001:000552e8       _isctype                   000662e8 f   coredll:COREDLL.dll
 0001:000552f8       qsort                      000662f8 f   coredll:COREDLL.dll
 0001:00055308       tolower                    00066308 f   coredll:COREDLL.dll
 0001:00055318       strncmp                    00066318 f   coredll:COREDLL.dll
 0001:00055328       sscanf                     00066328 f   coredll:COREDLL.dll
 0001:00055338       _strnicmp                  00066338 f   coredll:COREDLL.dll
 0001:00055348       fclose                     00066348 f   coredll:COREDLL.dll
 0001:00055358       GetLastError               00066358 f   coredll:COREDLL.dll
 0001:00055368       ferror                     00066368 f   coredll:COREDLL.dll
 0001:00055378       fread                      00066378 f   coredll:COREDLL.dll
 0001:00055388       fwrite                     00066388 f   coredll:COREDLL.dll
 0001:00055398       _setmode                   00066398 f   coredll:COREDLL.dll
 0001:000553a8       _fileno                    000663a8 f   coredll:COREDLL.dll
 0001:000553b8       fopen                      000663b8 f   coredll:COREDLL.dll
 0001:000553c8       fseek                      000663c8 f   coredll:COREDLL.dll
 0001:000553d8       ftell                      000663d8 f   coredll:COREDLL.dll
 0001:000553e8       feof                       000663e8 f   coredll:COREDLL.dll
 0001:000553f8       fflush                     000663f8 f   coredll:COREDLL.dll
 0001:00055408       strcat                     00066408 f   coredll:COREDLL.dll
 0001:00055418       fgets                      00066418 f   coredll:COREDLL.dll
 0001:00055428       _wfopen                    00066428 f   coredll:COREDLL.dll
 0001:00055438       strrchr                    00066438 f   coredll:COREDLL.dll
 0001:00055448       strtoul                    00066448 f   coredll:COREDLL.dll
 0001:00055458       _stricmp                   00066458 f   coredll:COREDLL.dll
 0001:00055468       memmove                    00066468 f   coredll:COREDLL.dll
 0001:00055478       GetTickCount               00066478 f   coredll:COREDLL.dll
 0001:00055488       QueryPerformanceCounter    00066488 f   coredll:COREDLL.dll
 0001:00055498       GlobalMemoryStatus         00066498 f   coredll:COREDLL.dll
 0001:000554a8       CryptReleaseContext        000664a8 f   coredll:COREDLL.dll
 0001:000554b8       CryptGenRandom             000664b8 f   coredll:COREDLL.dll
 0001:000554c8       CryptAcquireContextW       000664c8 f   coredll:COREDLL.dll
 0001:000554d8       GetVersionExW              000664d8 f   coredll:COREDLL.dll
 0001:000554e8       LoadLibraryW               000664e8 f   coredll:COREDLL.dll
 0001:000554f8       SetLastError               000664f8 f   coredll:COREDLL.dll
 0001:00055508       FreeLibrary                00066508 f   coredll:COREDLL.dll
 0001:00055518       GetProcAddressA            00066518 f   coredll:COREDLL.dll
 0001:00055528       strstr                     00066528 f   coredll:COREDLL.dll
 0001:00055538       WideCharToMultiByte        00066538 f   coredll:COREDLL.dll
 0001:00055548       fputs                      00066548 f   coredll:COREDLL.dll
 0001:00055558       SystemTimeToFileTime       00066558 f   coredll:COREDLL.dll
 0001:00055568       GetSystemTime              00066568 f   coredll:COREDLL.dll
 0001:00055578       FileTimeToSystemTime       00066578 f   coredll:COREDLL.dll
 0001:00055588       _cinit                     00066588 f   corelibc:crt0dat.obj
 0001:000556f8       exit                       000666f8 f   corelibc:crt0dat.obj
 0001:00055710       _exit                      00066710 f   corelibc:crt0dat.obj
 0001:00055730       WinMainCRTStartup          00066730 f   corelibc:pegwmain.obj
 0001:000557a4       WinMain                    000667a4 f   wcecompatex:winmain.obj
 0001:00055b00       ?processCmdLine@@YAHPA_WPAPAPAD@Z 00066b00 f   wcecompatex:args.obj
 0001:00055f3c       LocalFree                  00066f3c f   coredll:COREDLL.dll
 0001:00055f4c       _XcptFilter                00066f4c f   coredll:COREDLL.dll
 0001:00055f5c       __C_specific_handler       00066f5c f   coredll:COREDLL.dll
 0001:00055f6c       FindFirstFileW             00066f6c f   coredll:COREDLL.dll
 0001:00055f7c       FindClose                  00066f7c f   coredll:COREDLL.dll
 0001:00055f8c       FindNextFileW              00066f8c f   coredll:COREDLL.dll
 0001:00055f9c       GetModuleFileNameW         00066f9c f   coredll:COREDLL.dll
 0002:00000000       ??_C@_0CJ@JHKHPBIC@9b752e45573d4b39f4dbd3323cab82bf@ 00067000     rmdtest.obj
 0002:0000002c       ??_C@_0CJ@BKOOAENF@b0e20b6e3116640286ed3a87a5713079@ 0006702c     rmdtest.obj
 0002:00000058       ??_C@_0CJ@NMPLCNLK@12a053384a9c0c88e405a06c27dcf49a@ 00067058     rmdtest.obj
 0002:00000084       ??_C@_0CJ@HKOHGJAI@f71c27109c692c1b56bbdceb5b9d2865@ 00067084     rmdtest.obj
 0002:000000b0       ??_C@_0CJ@CLOMJMBA@5d0689ef49d2fae572b881b123a85ffa@ 000670b0     rmdtest.obj
 0002:000000dc       ??_C@_0CJ@HEINKBCL@8eb208f7e05d987a9b044a8e98c6b087@ 000670dc     rmdtest.obj
 0002:00000108       ??_C@_0CJ@OBHMODAI@0bdc9d2d256b3ee9daae347be6f4dc83@ 00067108     rmdtest.obj
 0002:00000134       ??_C@_0CJ@CODPINFJ@9c1185a5c5e9fc54612808977ee8f548@ 00067134     rmdtest.obj
 0002:00000160       ??_C@_0FB@JDIKKJCI@12345678901234567890123456789012@ 00067160     rmdtest.obj
 0002:000001b4       ??_C@_0DP@EFDPGBGM@ABCDEFGHIJKLMNOPQRSTUVWXYZabcdef@ 000671b4     rmdtest.obj
 0002:000001f4       ??_C@_0DJ@NGDOEGCI@abcdbcdecdefdefgefghfghighijhijk@ 000671f4     rmdtest.obj
 0002:00000230       ??_C@_0BL@JIGBPIBD@abcdefghijklmnopqrstuvwxyz?$AA@ 00067230     rmdtest.obj
 0002:0000024c       ??_C@_0P@ONGHGJEC@message?5digest?$AA@ 0006724c     rmdtest.obj
 0002:0000025c       ??_C@_03FIKCJHKP@abc?$AA@  0006725c     rmdtest.obj
 0002:00000260       ??_C@_01MCMALHOG@a?$AA@    00067260     rmdtest.obj
 0002:00000262       ??_C@_00CNPNBAHC@?$AA@     00067262     rmdtest.obj
 0002:00000264       ??_C@_04NOJCDH@?$CF02x?$AA@ 00067264     rmdtest.obj
 0002:0000026c       ??_C@_0M@NJKLCIBI@test?5?$CFd?5ok?6?$AA@ 0006726c     rmdtest.obj
 0002:00000278       ??_C@_0CF@LICBMBFN@error?5calculating?5RIPEMD160?5on?5?8@ 00067278     rmdtest.obj
 0002:000002a0       ??_C@_0BG@IMOFIMJK@got?5?$CFs?5instead?5of?5?$CFs?6?$AA@ 000672a0     rmdtest.obj
 0002:000002b8       ??_C@_0EM@DLBKEKNP@d?3?2wm653wehh?2platform?2mvv210?2src@ 000672b8     libeay32:digest.obj
 0002:00000304       ??_C@_0CI@KPJFNDOF@ctx?9?$DOdigest?9?$DOmd_size?5?$DM?$DN?5EVP_MAX_@ 00067304     libeay32:digest.obj
 0002:00000380       ??_C@_0EP@HIMPJABG@d?3?2wm653wehh?2platform?2mvv210?2src@ 00067380     libeay32:pmeth_lib.obj
 0002:000003d0       ??_C@_06IJPNAHC@digest?$AA@ 000673d0     libeay32:pmeth_lib.obj
 0002:000003d8       ??_C@_0FC@GLILKHMO@d?3?2wm653wehh?2platform?2mvv210?2src@ 000673d8     libeay32:tb_digest.obj
 0002:00000458       ??_C@_0DE@JBNNAKOP@called?5a?5function?5that?5was?5disab@ 00067458     libeay32:err.obj
 0002:0000048c       ??_C@_0P@LPIEGNHB@internal?5error?$AA@ 0006748c     libeay32:err.obj
 0002:0000049c       ??_C@_0BI@MMHLKOF@passed?5a?5null?5parameter?$AA@ 0006749c     libeay32:err.obj
 0002:000004b4       ??_C@_0CG@JFIACAPA@called?5a?5function?5you?5should?5not@ 000674b4     libeay32:err.obj
 0002:000004dc       ??_C@_0P@BOLAOBGL@malloc?5failure?$AA@ 000674dc     libeay32:err.obj
 0002:000004ec       ??_C@_05FAMCFOJB@fatal?$AA@ 000674ec     libeay32:err.obj
 0002:000004f4       ??_C@_0BB@LLCBNOLO@missing?5asn1?5eos?$AA@ 000674f4     libeay32:err.obj
 0002:00000508       ??_C@_0BF@JKEELALH@asn1?5length?5mismatch?$AA@ 00067508     libeay32:err.obj
 0002:00000520       ??_C@_0BL@PKJJDDDF@expecting?5an?5asn1?5sequence?$AA@ 00067520     libeay32:err.obj
 0002:0000053c       ??_C@_0BJ@KHBMOGBI@bad?5get?5asn1?5object?5call?$AA@ 0006753c     libeay32:err.obj
 0002:00000558       ??_C@_0BH@LJENPHMF@bad?5asn1?5object?5header?$AA@ 00067558     libeay32:err.obj
 0002:00000570       ??_C@_0BC@JPACPGKL@nested?5asn1?5error?$AA@ 00067570     libeay32:err.obj
 0002:00000584       ??_C@_06JPOPAJEJ@TS?5lib?$AA@ 00067584     libeay32:err.obj
 0002:0000058c       ??_C@_08BIAIHGB@OCSP?5lib?$AA@ 0006758c     libeay32:err.obj
 0002:00000598       ??_C@_0L@NEGIHAGL@ENGINE?5lib?$AA@ 00067598     libeay32:err.obj
 0002:000005a4       ??_C@_07HLMFDJCH@DSO?5lib?$AA@ 000675a4     libeay32:err.obj
 0002:000005ac       ??_C@_08IAGEJILJ@RAND?5lib?$AA@ 000675ac     libeay32:err.obj
 0002:000005b8       ??_C@_0L@FBHADCPC@PKCS12?5lib?$AA@ 000675b8     libeay32:err.obj
 0002:000005c4       ??_C@_0L@OHLIEDB@X509V3?5lib?$AA@ 000675c4     libeay32:err.obj
 0002:000005d0       ??_C@_09PFAKBDBP@PKCS7?5lib?$AA@ 000675d0     libeay32:err.obj
 0002:000005dc       ??_C@_07HOAEPDCA@BIO?5lib?$AA@ 000675dc     libeay32:err.obj
 0002:000005e4       ??_C@_07ILCPHDLL@SSL?5lib?$AA@ 000675e4     libeay32:err.obj
 0002:000005ec       ??_C@_06FNJAJMKI@EC?5lib?$AA@ 000675ec     libeay32:err.obj
 0002:000005f4       ??_C@_0L@GEIMIIEL@CRYPTO?5lib?$AA@ 000675f4     libeay32:err.obj
 0002:00000600       ??_C@_08GDJNHNLC@CONF?5lib?$AA@ 00067600     libeay32:err.obj
 0002:0000060c       ??_C@_08HAFIEMCJ@ASN1?5lib?$AA@ 0006760c     libeay32:err.obj
 0002:00000618       ??_C@_08DGLLDICE@X509?5lib?$AA@ 00067618     libeay32:err.obj
 0002:00000624       ??_C@_07EBMPFIFH@DSA?5lib?$AA@ 00067624     libeay32:err.obj
 0002:0000062c       ??_C@_07MKPCAOAJ@PEM?5lib?$AA@ 0006762c     libeay32:err.obj
 0002:00000634       ??_C@_07LHMLCDLI@OBJ?5lib?$AA@ 00067634     libeay32:err.obj
 0002:0000063c       ??_C@_07PJHFFEFC@BUF?5lib?$AA@ 0006763c     libeay32:err.obj
 0002:00000644       ??_C@_07BHNHKGFA@EVP?5lib?$AA@ 00067644     libeay32:err.obj
 0002:0000064c       ??_C@_06JBCAGHNP@DH?5lib?$AA@ 0006764c     libeay32:err.obj
 0002:00000654       ??_C@_07PLBLGAPL@RSA?5lib?$AA@ 00067654     libeay32:err.obj
 0002:0000065c       ??_C@_06CEKJLBPI@BN?5lib?$AA@ 0006765c     libeay32:err.obj
 0002:00000664       ??_C@_0L@NFMIFFDK@system?5lib?$AA@ 00067664     libeay32:err.obj
 0002:00000670       ??_C@_05FHPOAJDB@fread?$AA@ 00067670     libeay32:err.obj
 0002:00000678       ??_C@_07OPAOJOOA@opendir?$AA@ 00067678     libeay32:err.obj
 0002:00000680       ??_C@_0L@LNCNEFCG@WSAstartup?$AA@ 00067680     libeay32:err.obj
 0002:0000068c       ??_C@_06MPKMECK@accept?$AA@ 0006768c     libeay32:err.obj
 0002:00000694       ??_C@_06OODDLKLE@listen?$AA@ 00067694     libeay32:err.obj
 0002:0000069c       ??_C@_04NPNJNMMP@bind?$AA@ 0006769c     libeay32:err.obj
 0002:000006a4       ??_C@_0M@PBPOCKDG@ioctlsocket?$AA@ 000676a4     libeay32:err.obj
 0002:000006b0       ??_C@_06HBELJPBO@socket?$AA@ 000676b0     libeay32:err.obj
 0002:000006b8       ??_C@_0O@NKLJGHIL@getservbyname?$AA@ 000676b8     libeay32:err.obj
 0002:000006c8       ??_C@_07KAIBNCHO@connect?$AA@ 000676c8     libeay32:err.obj
 0002:000006d0       ??_C@_05FFKPLNPJ@fopen?$AA@ 000676d0     libeay32:err.obj
 0002:000006d8       ??_C@_0O@PBJMEGGG@HMAC?5routines?$AA@ 000676d8     libeay32:err.obj
 0002:000006e8       ??_C@_0N@MKJBFBO@CMS?5routines?$AA@ 000676e8     libeay32:err.obj
 0002:000006f8       ??_C@_0O@MDPFBMCI@FIPS?5routines?$AA@ 000676f8     libeay32:err.obj
 0002:00000708       ??_C@_0O@LJIADBLP@OCSP?5routines?$AA@ 00067708     libeay32:err.obj
 0002:00000718       ??_C@_0BA@MMHCJFKD@engine?5routines?$AA@ 00067718     libeay32:err.obj
 0002:00000728       ??_C@_0BE@IMHDPIMO@time?5stamp?5routines?$AA@ 00067728     libeay32:err.obj
 0002:0000073c       ??_C@_0BF@BDHLAIEM@DSO?5support?5routines?$AA@ 0006773c     libeay32:err.obj
 0002:00000754       ??_C@_0BI@GMPKPCPG@random?5number?5generator?$AA@ 00067754     libeay32:err.obj
 0002:0000076c       ??_C@_0BA@KPFPMFD@PKCS12?5routines?$AA@ 0006776c     libeay32:err.obj
 0002:0000077c       ??_C@_0BB@LKDEPKLM@X509?5V3?5routines?$AA@ 0006777c     libeay32:err.obj
 0002:00000790       ??_C@_0P@FBDCKDAN@PKCS7?5routines?$AA@ 00067790     libeay32:err.obj
 0002:000007a0       ??_C@_0N@HGNFKBOI@BIO?5routines?$AA@ 000677a0     libeay32:err.obj
 0002:000007b0       ??_C@_0N@GAIJLNCL@SSL?5routines?$AA@ 000677b0     libeay32:err.obj
 0002:000007c0       ??_C@_0BI@NNCFPCDI@elliptic?5curve?5routines?$AA@ 000677c0     libeay32:err.obj
 0002:000007d8       ??_C@_0BK@GOIAPJCF@common?5libcrypto?5routines?$AA@ 000677d8     libeay32:err.obj
 0002:000007f4       ??_C@_0BM@FNIFPKKP@configuration?5file?5routines?$AA@ 000677f4     libeay32:err.obj
 0002:00000810       ??_C@_0BH@OKMDKJBH@asn1?5encoding?5routines?$AA@ 00067810     libeay32:err.obj
 0002:00000828       ??_C@_0BK@MLDIFNOG@x509?5certificate?5routines?$AA@ 00067828     libeay32:err.obj
 0002:00000844       ??_C@_0N@EPLKEPHE@dsa?5routines?$AA@ 00067844     libeay32:err.obj
 0002:00000854       ??_C@_0N@PPOIEGDJ@PEM?5routines?$AA@ 00067854     libeay32:err.obj
 0002:00000864       ??_C@_0BL@GAJLDLEG@object?5identifier?5routines?$AA@ 00067864     libeay32:err.obj
 0002:00000880       ??_C@_0BH@GHBGFOKA@memory?5buffer?5routines?$AA@ 00067880     libeay32:err.obj
 0002:00000898       ??_C@_0BK@KCBHLAIJ@digital?5envelope?5routines?$AA@ 00067898     libeay32:err.obj
 0002:000008b4       ??_C@_0BI@BELEOFAM@Diffie?9Hellman?5routines?$AA@ 000678b4     libeay32:err.obj
 0002:000008cc       ??_C@_0N@FLFIDGHD@rsa?5routines?$AA@ 000678cc     libeay32:err.obj
 0002:000008dc       ??_C@_0BA@BALAMMCD@bignum?5routines?$AA@ 000678dc     libeay32:err.obj
 0002:000008ec       ??_C@_0P@KJHLNCML@system?5library?$AA@ 000678ec     libeay32:err.obj
 0002:000008fc       ??_C@_0BA@JLJAKIKL@unknown?5library?$AA@ 000678fc     libeay32:err.obj
 0002:00000910       ??_C@_0EJ@LLHEHHLL@d?3?2wm653wehh?2platform?2mvv210?2src@ 00067910     libeay32:err.obj
 0002:0000095c       ??_C@_0BE@CGMKPIME@int_err_get?5?$CIerr?4c?$CJ?$AA@ 0006795c     libeay32:err.obj
 0002:00000970       ??_C@_0BH@KBGLDIDO@int_thread_get?5?$CIerr?4c?$CJ?$AA@ 00067970     libeay32:err.obj
 0002:00000988       ??_C@_0FB@FHJDMCII@d?3?2wm653wehh?2platform?2mvv210?2src@ 00067988     libeay32:eng_init.obj
 0002:000009e0       ??_C@_0EN@HNCBNDLA@d?3?2wm653wehh?2platform?2mvv210?2src@ 000679e0     libeay32:evp_lib.obj
 0002:00000a30       ??_C@_0BD@LHHAEAAJ@l?5?$DM?$DN?5sizeof?$CIc?9?$DOiv?$CJ?$AA@ 00067a30     libeay32:evp_lib.obj
 0002:00000a44       ??_C@_0BD@CKKMELBK@j?5?$DM?$DN?5sizeof?$CIc?9?$DOiv?$CJ?$AA@ 00067a44     libeay32:evp_lib.obj
 0002:00000b04       ??_C@_05NEEKIFMD@fips2?$AA@ 00067b04     libeay32:cryptlib.obj
 0002:00000b0c       ??_C@_04DJGCHAOD@fips?$AA@ 00067b0c     libeay32:cryptlib.obj
 0002:00000b14       ??_C@_04OLDKMDKP@comp?$AA@ 00067b14     libeay32:cryptlib.obj
 0002:00000b1c       ??_C@_05ODGDKDLF@store?$AA@ 00067b1c     libeay32:cryptlib.obj
 0002:00000b24       ??_C@_0M@FNJFEIGB@ec_pre_comp?$AA@ 00067b24     libeay32:cryptlib.obj
 0002:00000b30       ??_C@_02LAJDHPIK@bn?$AA@   00067b30     libeay32:cryptlib.obj
 0002:00000b34       ??_C@_04KDGGCKGB@ecdh?$AA@ 00067b34     libeay32:cryptlib.obj
 0002:00000b3c       ??_C@_02HCBHEC@ec?$AA@     00067b3c     libeay32:cryptlib.obj
 0002:00000b40       ??_C@_05FGIDCBJD@ecdsa?$AA@ 00067b40     libeay32:cryptlib.obj
 0002:00000b48       ??_C@_02OGLLFMLI@ui?$AA@   00067b48     libeay32:cryptlib.obj
 0002:00000b4c       ??_C@_06LOBMEHPF@engine?$AA@ 00067b4c     libeay32:cryptlib.obj
 0002:00000b54       ??_C@_07HGGNMPAJ@dynlock?$AA@ 00067b54     libeay32:cryptlib.obj
 0002:00000b5c       ??_C@_03NOCNOBNG@dso?$AA@  00067b5c     libeay32:cryptlib.obj
 0002:00000b60       ??_C@_0O@PMFKBDME@debug_malloc2?$AA@ 00067b60     libeay32:cryptlib.obj
 0002:00000b70       ??_C@_02OCEEKELO@dh?$AA@   00067b70     libeay32:cryptlib.obj
 0002:00000b74       ??_C@_0N@BGAJKBNF@RSA_blinding?$AA@ 00067b74     libeay32:cryptlib.obj
 0002:00000b84       ??_C@_07OMHHFDME@readdir?$AA@ 00067b84     libeay32:cryptlib.obj
 0002:00000b8c       ??_C@_0O@BFBCKHPD@gethostbyname?$AA@ 00067b8c     libeay32:cryptlib.obj
 0002:00000b9c       ??_C@_03OHAMFFNA@BIO?$AA@  00067b9c     libeay32:cryptlib.obj
 0002:00000ba0       ??_C@_0N@CLEMOJNL@debug_malloc?$AA@ 00067ba0     libeay32:cryptlib.obj
 0002:00000bb0       ??_C@_05NFNCBLNG@rand2?$AA@ 00067bb0     libeay32:cryptlib.obj
 0002:00000bb8       ??_C@_04HKINGDKC@rand?$AA@ 00067bb8     libeay32:cryptlib.obj
 0002:00000bc0       ??_C@_0L@NKBFNPDB@ssl_method?$AA@ 00067bc0     libeay32:cryptlib.obj
 0002:00000bcc       ??_C@_03DIMONNDD@ssl?$AA@  00067bcc     libeay32:cryptlib.obj
 0002:00000bd0       ??_C@_0O@LOCLBOHA@ssl_sess_cert?$AA@ 00067bd0     libeay32:cryptlib.obj
 0002:00000be0       ??_C@_0M@OAEAFGMD@ssl_session?$AA@ 00067be0     libeay32:cryptlib.obj
 0002:00000bec       ??_C@_08INIFBEOB@ssl_cert?$AA@ 00067bec     libeay32:cryptlib.obj
 0002:00000bf8       ??_C@_07DNHKIAPH@ssl_ctx?$AA@ 00067bf8     libeay32:cryptlib.obj
 0002:00000c00       ??_C@_0L@JCDDFIOK@x509_store?$AA@ 00067c00     libeay32:cryptlib.obj
 0002:00000c0c       ??_C@_08NBJJIGBN@evp_pkey?$AA@ 00067c0c     libeay32:cryptlib.obj
 0002:00000c18       ??_C@_03DFNMMEBL@rsa?$AA@  00067c18     libeay32:cryptlib.obj
 0002:00000c1c       ??_C@_03EAKOMMFI@dsa?$AA@  00067c1c     libeay32:cryptlib.obj
 0002:00000c20       ??_C@_08BHPLFFMD@x509_req?$AA@ 00067c20     libeay32:cryptlib.obj
 0002:00000c2c       ??_C@_08BJFLLMNA@x509_crl?$AA@ 00067c2c     libeay32:cryptlib.obj
 0002:00000c38       ??_C@_09HNLHIFBP@x509_pkey?$AA@ 00067c38     libeay32:cryptlib.obj
 0002:00000c44       ??_C@_09DJEHILFA@x509_info?$AA@ 00067c44     libeay32:cryptlib.obj
 0002:00000c50       ??_C@_04BNGFMDFF@x509?$AA@ 00067c50     libeay32:cryptlib.obj
 0002:00000c58       ??_C@_07OALPHBKG@ex_data?$AA@ 00067c58     libeay32:cryptlib.obj
 0002:00000c60       ??_C@_03JIDPIAJI@err?$AA@  00067c60     libeay32:cryptlib.obj
 0002:00000c64       ??_C@_09OGFJIAEE@?$DM?$DMERROR?$DO?$DO?$AA@ 00067c64     libeay32:cryptlib.obj
 0002:00000c70       ??_C@_0EK@JACEKOIE@d?3?2wm653wehh?2platform?2mvv210?2src@ 00067c70     libeay32:cryptlib.obj
 0002:00000cbc       ??_C@_1BO@DCCMIJEM@?$AAO?$AAp?$AAe?$AAn?$AAS?$AAS?$AAL?$AA?3?$AA?5?$AAF?$AAA?$AAT?$AAA?$AAL?$AA?$AA@ 00067cbc     libeay32:cryptlib.obj
 0002:00000cdc       ??_C@_1BE@NLCFDLCA@?$AAn?$AAo?$AA?5?$AAs?$AAt?$AAa?$AAc?$AAk?$AA?$DP?$AA?$AA@ 00067cdc     libeay32:cryptlib.obj
 0002:00000cf0       ??_C@_0DG@JJAMFCAP@?$CFs?$CI?$CFd?$CJ?3?5OpenSSL?5internal?5error?0?5@ 00067cf0     libeay32:cryptlib.obj
 0002:00000d28       ??_C@_0BA@LPBALOME@pointer?5?$CB?$DN?5NULL?$AA@ 00067d28     libeay32:cryptlib.obj
 0002:00000d38       ??_C@_0EO@NHOCECJL@d?3?2wm653wehh?2platform?2mvv210?2src@ 00067d38     libeay32:rsa_sign.obj
 0002:00000d88       ??_C@_0DF@DGNAAHIE@signature?5has?5problems?0?5re?9make?5@ 00067d88     libeay32:rsa_sign.obj
 0002:00000dc0       RMD160_version             00067dc0     libeay32:rmd_dgst.obj
 0002:00000df0       cmac_pkey_meth             00067df0     libeay32:cm_pmeth.obj
 0002:00000e5c       ??_C@_06BHJHKMJC@hexkey?$AA@ 00067e5c     libeay32:cm_pmeth.obj
 0002:00000e64       ??_C@_06KDGDAFPH@cipher?$AA@ 00067e64     libeay32:cm_pmeth.obj
 0002:00000e6c       ??_C@_03ICHNJLJF@key?$AA@  00067e6c     libeay32:cm_pmeth.obj
 0002:00000e70       hmac_pkey_meth             00067e70     libeay32:hm_pmeth.obj
 0002:00000ee0       ??_C@_0EP@PNIBEDF@d?3?2wm653wehh?2platform?2mvv210?2src@ 00067ee0     libeay32:hm_pmeth.obj
 0002:00000f30       ec_pkey_meth               00067f30     libeay32:ec_pmeth.obj
 0002:00000fa0       ??_C@_0EN@FGGHDHMC@d?3?2wm653wehh?2platform?2mvv210?2src@ 00067fa0     libeay32:ec_pmeth.obj
 0002:00000ff0       ??_C@_0BC@BLCJLNNM@ec_paramgen_curve?$AA@ 00067ff0     libeay32:ec_pmeth.obj
 0002:00001008       dsa_pkey_meth              00068008     libeay32:dsa_pmeth.obj
 0002:00001078       ??_C@_0EP@KECMJLCG@d?3?2wm653wehh?2platform?2mvv210?2src@ 00068078     libeay32:dsa_pmeth.obj
 0002:000010c8       ??_C@_0BA@HDLNDIMK@dsa_paramgen_md?$AA@ 000680c8     libeay32:dsa_pmeth.obj
 0002:000010d8       ??_C@_0BE@JHBKDNPA@dsa_paramgen_q_bits?$AA@ 000680d8     libeay32:dsa_pmeth.obj
 0002:000010ec       ??_C@_0BC@DOMHFBFC@dsa_paramgen_bits?$AA@ 000680ec     libeay32:dsa_pmeth.obj
 0002:00001100       dh_pkey_meth               00068100     libeay32:dh_pmeth.obj
 0002:00001170       ??_C@_0EN@BFMPENCA@d?3?2wm653wehh?2platform?2mvv210?2src@ 00068170     libeay32:dh_pmeth.obj
 0002:000011c0       ??_C@_0BG@POLEFOHA@dh_paramgen_generator?$AA@ 000681c0     libeay32:dh_pmeth.obj
 0002:000011d8       ??_C@_0BG@LEMCDPBI@dh_paramgen_prime_len?$AA@ 000681d8     libeay32:dh_pmeth.obj
 0002:000011f0       rsa_pkey_meth              000681f0     libeay32:rsa_pmeth.obj
 0002:00001260       ??_C@_0EP@PCLPIEEA@d?3?2wm653wehh?2platform?2mvv210?2src@ 00068260     libeay32:rsa_pmeth.obj
 0002:000012b0       ??_C@_0BC@DMECNPFD@rsa_keygen_pubexp?$AA@ 000682b0     libeay32:rsa_pmeth.obj
 0002:000012c4       ??_C@_0BA@GFPKPLAF@rsa_keygen_bits?$AA@ 000682c4     libeay32:rsa_pmeth.obj
 0002:000012d4       ??_C@_0BA@CIHMEEHB@rsa_pss_saltlen?$AA@ 000682d4     libeay32:rsa_pmeth.obj
 0002:000012e4       ??_C@_03OHCBHMED@pss?$AA@  000682e4     libeay32:rsa_pmeth.obj
 0002:000012e8       ??_C@_04JNCMEILM@x931?$AA@ 000682e8     libeay32:rsa_pmeth.obj
 0002:000012f0       ??_C@_04EIGNDHKO@oeap?$AA@ 000682f0     libeay32:rsa_pmeth.obj
 0002:000012f8       ??_C@_04CGFJFPFD@none?$AA@ 000682f8     libeay32:rsa_pmeth.obj
 0002:00001300       ??_C@_06PDLHKEJK@sslv23?$AA@ 00068300     libeay32:rsa_pmeth.obj
 0002:00001308       ??_C@_05BCIEJMJH@pkcs1?$AA@ 00068308     libeay32:rsa_pmeth.obj
 0002:00001310       ??_C@_0BB@BILFEOKG@rsa_padding_mode?$AA@ 00068310     libeay32:rsa_pmeth.obj
 0002:0000aac0       ??_C@_09FHIEKOPH@rsaesOaep?$AA@ 00071ac0     libeay32:obj_dat.obj
 0002:0000aacc       ??_C@_0L@NCPDMLAN@RSAES?9OAEP?$AA@ 00071acc     libeay32:obj_dat.obj
 0002:0000aad8       ??_C@_0BG@MBIALEGA@aes?9256?9cbc?9hmac?9sha1?$AA@ 00071ad8     libeay32:obj_dat.obj
 0002:0000aaf0       ??_C@_0BG@NJKHMG@AES?9256?9CBC?9HMAC?9SHA1?$AA@ 00071af0     libeay32:obj_dat.obj
 0002:0000ab08       ??_C@_0BG@GKCPENNE@aes?9192?9cbc?9hmac?9sha1?$AA@ 00071b08     libeay32:obj_dat.obj
 0002:0000ab20       ??_C@_0BG@KLHGFOHC@AES?9192?9CBC?9HMAC?9SHA1?$AA@ 00071b20     libeay32:obj_dat.obj
 0002:0000ab38       ??_C@_0BG@CLBGODOC@aes?9128?9cbc?9hmac?9sha1?$AA@ 00071b38     libeay32:obj_dat.obj
 0002:0000ab50       ??_C@_0BG@OKEPPAEE@AES?9128?9CBC?9HMAC?9SHA1?$AA@ 00071b50     libeay32:obj_dat.obj
 0002:0000ab68       ??_C@_0N@EFPJLHOG@rc4?9hmac?9md5?$AA@ 00071b68     libeay32:obj_dat.obj
 0002:0000ab78       ??_C@_0N@MFFPBCGK@RC4?9HMAC?9MD5?$AA@ 00071b78     libeay32:obj_dat.obj
 0002:0000ab88       ??_C@_0M@FHDOMLNI@aes?9256?9xts?$AA@ 00071b88     libeay32:obj_dat.obj
 0002:0000ab94       ??_C@_0M@ILDFFBFL@AES?9256?9XTS?$AA@ 00071b94     libeay32:obj_dat.obj
 0002:0000aba0       ??_C@_0M@CGBMJDMF@aes?9128?9xts?$AA@ 00071ba0     libeay32:obj_dat.obj
 0002:0000abac       ??_C@_0M@PKBHAJEG@AES?9128?9XTS?$AA@ 00071bac     libeay32:obj_dat.obj
 0002:0000abb8       ??_C@_09FGGKIFKD@rsassaPss?$AA@ 00071bb8     libeay32:obj_dat.obj
 0002:0000abc4       ??_C@_0L@CPMAKEFG@RSASSA?9PSS?$AA@ 00071bc4     libeay32:obj_dat.obj
 0002:0000abd0       ??_C@_04HEIJMEIE@mgf1?$AA@ 00071bd0     libeay32:obj_dat.obj
 0002:0000abd8       ??_C@_04CNDHACFO@MGF1?$AA@ 00071bd8     libeay32:obj_dat.obj
 0002:0000abe0       ??_C@_0BH@FHBOBBKO@Any?5Extended?5Key?5Usage?$AA@ 00071be0     libeay32:obj_dat.obj
 0002:0000abf8       ??_C@_0BE@FKFLDMON@anyExtendedKeyUsage?$AA@ 00071bf8     libeay32:obj_dat.obj
 0002:0000ac0c       ??_C@_0BE@PHKLGFJC@id?9camellia256?9wrap?$AA@ 00071c0c     libeay32:obj_dat.obj
 0002:0000ac20       ??_C@_0BE@GNMGGIAL@id?9camellia192?9wrap?$AA@ 00071c20     libeay32:obj_dat.obj
 0002:0000ac34       ??_C@_0BE@JENMCLBD@id?9camellia128?9wrap?$AA@ 00071c34     libeay32:obj_dat.obj
 0002:0000ac48       ??_C@_0M@MJDNCKAH@aes?9256?9ctr?$AA@ 00071c48     libeay32:obj_dat.obj
 0002:0000ac54       ??_C@_0M@BFDGLAIE@AES?9256?9CTR?$AA@ 00071c54     libeay32:obj_dat.obj
 0002:0000ac60       ??_C@_0M@BLIDAFIG@aes?9192?9ctr?$AA@ 00071c60     libeay32:obj_dat.obj
 0002:0000ac6c       ??_C@_0M@MHIIJPAF@AES?9192?9CTR?$AA@ 00071c6c     libeay32:obj_dat.obj
 0002:0000ac78       ??_C@_0M@LIBPHCBK@aes?9128?9ctr?$AA@ 00071c78     libeay32:obj_dat.obj
 0002:0000ac84       ??_C@_0M@GEBEOIJJ@AES?9128?9CTR?$AA@ 00071c84     libeay32:obj_dat.obj
 0002:0000ac90       ??_C@_0BD@OHLFOIJM@id?9aes256?9wrap?9pad?$AA@ 00071c90     libeay32:obj_dat.obj
 0002:0000aca4       ??_C@_0M@BNAOJBGM@aes?9256?9ccm?$AA@ 00071ca4     libeay32:obj_dat.obj
 0002:0000acb0       ??_C@_0O@EDMKMBKB@id?9aes256?9CCM?$AA@ 00071cb0     libeay32:obj_dat.obj
 0002:0000acc0       ??_C@_0M@JCGMAGDL@aes?9256?9gcm?$AA@ 00071cc0     libeay32:obj_dat.obj
 0002:0000accc       ??_C@_0O@MMKIFGPG@id?9aes256?9GCM?$AA@ 00071ccc     libeay32:obj_dat.obj
 0002:0000acdc       ??_C@_0BD@OPKMLKFB@id?9aes192?9wrap?9pad?$AA@ 00071cdc     libeay32:obj_dat.obj
 0002:0000acf0       ??_C@_0M@MPLALOON@aes?9192?9ccm?$AA@ 00071cf0     libeay32:obj_dat.obj
 0002:0000acfc       ??_C@_0O@JBHEOOCA@id?9aes192?9CCM?$AA@ 00071cfc     libeay32:obj_dat.obj
 0002:0000ad0c       ??_C@_0M@EANCCJLK@aes?9192?9gcm?$AA@ 00071d0c     libeay32:obj_dat.obj
 0002:0000ad18       ??_C@_0O@BOBGHJHH@id?9aes192?9GCM?$AA@ 00071d18     libeay32:obj_dat.obj
 0002:0000ad28       ??_C@_0BD@HMJBEGNL@id?9aes128?9wrap?9pad?$AA@ 00071d28     libeay32:obj_dat.obj
 0002:0000ad3c       ??_C@_0M@GMCMMJHB@aes?9128?9ccm?$AA@ 00071d3c     libeay32:obj_dat.obj
 0002:0000ad48       ??_C@_0O@DCOIJJLM@id?9aes128?9CCM?$AA@ 00071d48     libeay32:obj_dat.obj
 0002:0000ad58       ??_C@_0M@ODEOFOCG@aes?9128?9gcm?$AA@ 00071d58     libeay32:obj_dat.obj
 0002:0000ad64       ??_C@_0O@LNIKAOOL@id?9aes128?9GCM?$AA@ 00071d64     libeay32:obj_dat.obj
 0002:0000ad74       ??_C@_04CJMGLDNC@cmac?$AA@ 00071d74     libeay32:obj_dat.obj
 0002:0000ad7c       ??_C@_04OFPMFBKK@CMAC?$AA@ 00071d7c     libeay32:obj_dat.obj
 0002:0000ad84       ??_C@_0BA@NJOHMDIG@id?9alg?9PWRI?9KEK?$AA@ 00071d84     libeay32:obj_dat.obj
 0002:0000ad94       ??_C@_07ILKEFPGB@dmdName?$AA@ 00071d94     libeay32:obj_dat.obj
 0002:0000ad9c       ??_C@_0BE@MNOFELKF@deltaRevocationList?$AA@ 00071d9c     libeay32:obj_dat.obj
 0002:0000adb0       ??_C@_0BE@KGOGIPEN@supportedAlgorithms?$AA@ 00071db0     libeay32:obj_dat.obj
 0002:0000adc4       ??_C@_0BA@EKKIBBF@houseIdentifier?$AA@ 00071dc4     libeay32:obj_dat.obj
 0002:0000add4       ??_C@_0N@FIGDLDDJ@uniqueMember?$AA@ 00071dd4     libeay32:obj_dat.obj
 0002:0000ade4       ??_C@_0BC@IIJOGNNH@distinguishedName?$AA@ 00071de4     libeay32:obj_dat.obj
 0002:0000adf8       ??_C@_0BE@FKAMNJMM@protocolInformation?$AA@ 00071df8     libeay32:obj_dat.obj
 0002:0000ae0c       ??_C@_0BE@NNAGLFEM@enhancedSearchGuide?$AA@ 00071e0c     libeay32:obj_dat.obj
 0002:0000ae20       ??_C@_0BF@GAAPBDAE@crossCertificatePair?$AA@ 00071e20     libeay32:obj_dat.obj
 0002:0000ae38       ??_C@_0BK@IMFDMOND@certificateRevocationList?$AA@ 00071e38     libeay32:obj_dat.obj
 0002:0000ae54       ??_C@_0BI@EODAEBFG@authorityRevocationList?$AA@ 00071e54     libeay32:obj_dat.obj
 0002:0000ae6c       ??_C@_0O@JJCNKCKK@cACertificate?$AA@ 00071e6c     libeay32:obj_dat.obj
 0002:0000ae7c       ??_C@_0BA@FEECIELF@userCertificate?$AA@ 00071e7c     libeay32:obj_dat.obj
 0002:0000ae8c       ??_C@_0N@JHMNNHKM@userPassword?$AA@ 00071e8c     libeay32:obj_dat.obj
 0002:0000ae9c       ??_C@_07JJAENDGN@seeAlso?$AA@ 00071e9c     libeay32:obj_dat.obj
 0002:0000aea4       ??_C@_0N@NAEJMDPF@roleOccupant?$AA@ 00071ea4     libeay32:obj_dat.obj
 0002:0000aeb4       ??_C@_05HEIBENID@owner?$AA@ 00071eb4     libeay32:obj_dat.obj
 0002:0000aebc       ??_C@_06HDFDANIG@member?$AA@ 00071ebc     libeay32:obj_dat.obj
 0002:0000aec4       ??_C@_0BM@NHJFOGBI@supportedApplicationContext?$AA@ 00071ec4     libeay32:obj_dat.obj
 0002:0000aee0       ??_C@_0BE@KHACCONJ@presentationAddress?$AA@ 00071ee0     libeay32:obj_dat.obj
 0002:0000aef4       ??_C@_0BI@MKMMOKIA@preferredDeliveryMethod?$AA@ 00071ef4     libeay32:obj_dat.obj
 0002:0000af0c       ??_C@_0BF@CMAFNEOO@destinationIndicator?$AA@ 00071f0c     libeay32:obj_dat.obj
 0002:0000af24       ??_C@_0BC@DLLOJDNE@registeredAddress?$AA@ 00071f24     libeay32:obj_dat.obj
 0002:0000af38       ??_C@_0BI@OAHCBLEE@internationaliSDNNumber?$AA@ 00071f38     libeay32:obj_dat.obj
 0002:0000af50       ??_C@_0M@MOCAHDLJ@x121Address?$AA@ 00071f50     libeay32:obj_dat.obj
 0002:0000af5c       ??_C@_0BJ@NDMMBDAB@facsimileTelephoneNumber?$AA@ 00071f5c     libeay32:obj_dat.obj
 0002:0000af78       ??_C@_0BK@BBNEJJDC@teletexTerminalIdentifier?$AA@ 00071f78     libeay32:obj_dat.obj
 0002:0000af94       ??_C@_0M@MMDMBPMM@telexNumber?$AA@ 00071f94     libeay32:obj_dat.obj
 0002:0000afa0       ??_C@_0BA@NCAGJGBF@telephoneNumber?$AA@ 00071fa0     libeay32:obj_dat.obj
 0002:0000afb0       ??_C@_0BL@DENBGONK@physicalDeliveryOfficeName?$AA@ 00071fb0     libeay32:obj_dat.obj
 0002:0000afcc       ??_C@_0O@PCCHCGPG@postOfficeBox?$AA@ 00071fcc     libeay32:obj_dat.obj
 0002:0000afdc       ??_C@_0O@KABBPKPG@postalAddress?$AA@ 00071fdc     libeay32:obj_dat.obj
 0002:0000afec       ??_C@_0BB@GFJJGHBI@businessCategory?$AA@ 00071fec     libeay32:obj_dat.obj
 0002:0000b000       ??_C@_0M@MCCFGANF@searchGuide?$AA@ 00072000     libeay32:obj_dat.obj
 0002:0000b00c       ??_C@_0BF@DGGAJJCO@Permanent?5Identifier?$AA@ 0007200c     libeay32:obj_dat.obj
 0002:0000b024       ??_C@_0BK@BMFCOPIC@id?9on?9permanentIdentifier?$AA@ 00072024     libeay32:obj_dat.obj
 0002:0000b040       ??_C@_0BE@KEJIKEFG@X509v3?5Freshest?5CRL?$AA@ 00072040     libeay32:obj_dat.obj
 0002:0000b054       ??_C@_0M@PKNKMHEG@freshestCRL?$AA@ 00072054     libeay32:obj_dat.obj
 0002:0000b060       ??_C@_0BI@FMFOLFMC@Microsoft?5Local?5Key?5set?$AA@ 00072060     libeay32:obj_dat.obj
 0002:0000b078       ??_C@_0M@LCODBGNO@LocalKeySet?$AA@ 00072078     libeay32:obj_dat.obj
 0002:0000b084       ??_C@_04FOBGICMD@hmac?$AA@ 00072084     libeay32:obj_dat.obj
 0002:0000b08c       ??_C@_04JCCMGALL@HMAC?$AA@ 0007208c     libeay32:obj_dat.obj
 0002:0000b094       ??_C@_0CJ@NCCJHEBD@GOST?5R?53410?92001?5Parameter?5Set?5C@ 00072094     libeay32:obj_dat.obj
 0002:0000b0c0       ??_C@_0BO@LBPHKLOM@id?9GostR3410?92001?9ParamSet?9cc?$AA@ 000720c0     libeay32:obj_dat.obj
 0002:0000b0e0       ??_C@_0DB@BGOOPLFE@GOST?5R?534?411?994?5with?5GOST?5R?534?41@ 000720e0     libeay32:obj_dat.obj
 0002:0000b114       ??_C@_0CH@JJNMILDM@id?9GostR3411?994?9with?9GostR3410?92@ 00072114     libeay32:obj_dat.obj
 0002:0000b13c       ??_C@_0CP@ILDIBBAJ@GOST?5R?534?411?994?5with?5GOST?5R?534?41@ 0007213c     libeay32:obj_dat.obj
 0002:0000b16c       ??_C@_0CF@FCIKJGLH@id?9GostR3411?994?9with?9GostR3410?99@ 0007216c     libeay32:obj_dat.obj
 0002:0000b194       ??_C@_0BK@IGCJADLM@GOST?534?410?92001?5Cryptocom?$AA@ 00072194     libeay32:obj_dat.obj
 0002:0000b1b0       ??_C@_0L@PKDOCLKG@gost2001cc?$AA@ 000721b0     libeay32:obj_dat.obj
 0002:0000b1bc       ??_C@_0BI@GJIILMEB@GOST?534?410?994?5Cryptocom?$AA@ 000721bc     libeay32:obj_dat.obj
 0002:0000b1d4       ??_C@_08LCDFMIFG@gost94cc?$AA@ 000721d4     libeay32:obj_dat.obj
 0002:0000b1e0       ??_C@_0CB@KNOPDNHN@GOST?528147?989?5Cryptocom?5ParamSet@ 000721e0     libeay32:obj_dat.obj
 0002:0000b204       ??_C@_0BD@MEAAKKFJ@id?9Gost28147?989?9cc?$AA@ 00072204     libeay32:obj_dat.obj
 0002:0000b218       ??_C@_0BF@PGMBMCGF@id?9GostR3410?994?9bBis?$AA@ 00072218     libeay32:obj_dat.obj
 0002:0000b230       ??_C@_0BC@MKOAJFN@id?9GostR3410?994?9b?$AA@ 00072230     libeay32:obj_dat.obj
 0002:0000b244       ??_C@_0BF@LBGBLILF@id?9GostR3410?994?9aBis?$AA@ 00072244     libeay32:obj_dat.obj
 0002:0000b25c       ??_C@_0BC@CHIDFKJO@id?9GostR3410?994?9a?$AA@ 0007225c     libeay32:obj_dat.obj
 0002:0000b270       ??_C@_0CK@GDLEHLKF@id?9GostR3410?92001?9CryptoPro?9XchB@ 00072270     libeay32:obj_dat.obj
 0002:0000b29c       ??_C@_0CK@PKFGBNKE@id?9GostR3410?92001?9CryptoPro?9XchA@ 0007229c     libeay32:obj_dat.obj
 0002:0000b2c8       ??_C@_0CH@DLGDIIGO@id?9GostR3410?92001?9CryptoPro?9C?9Pa@ 000722c8     libeay32:obj_dat.obj
 0002:0000b2f0       ??_C@_0CH@PKONFHKO@id?9GostR3410?92001?9CryptoPro?9B?9Pa@ 000722f0     libeay32:obj_dat.obj
 0002:0000b318       ??_C@_0CH@GDAPDBKP@id?9GostR3410?92001?9CryptoPro?9A?9Pa@ 00072318     libeay32:obj_dat.obj
 0002:0000b340       ??_C@_0BP@GEEJLPDI@id?9GostR3410?92001?9TestParamSet?$AA@ 00072340     libeay32:obj_dat.obj
 0002:0000b360       ??_C@_0CI@DAANNIN@id?9GostR3410?994?9CryptoPro?9XchC?9P@ 00072360     libeay32:obj_dat.obj
 0002:0000b388       ??_C@_0CI@MCIOACEN@id?9GostR3410?994?9CryptoPro?9XchB?9P@ 00072388     libeay32:obj_dat.obj
 0002:0000b3b0       ??_C@_0CI@FLGMGEEM@id?9GostR3410?994?9CryptoPro?9XchA?9P@ 000723b0     libeay32:obj_dat.obj
 0002:0000b3d8       ??_C@_0CF@LMAJFDGB@id?9GostR3410?994?9CryptoPro?9D?9Para@ 000723d8     libeay32:obj_dat.obj
 0002:0000b400       ??_C@_0CF@JFDCEGOC@id?9GostR3410?994?9CryptoPro?9C?9Para@ 00072400     libeay32:obj_dat.obj
 0002:0000b428       ??_C@_0CF@FELMJJCC@id?9GostR3410?994?9CryptoPro?9B?9Para@ 00072428     libeay32:obj_dat.obj
 0002:0000b450       ??_C@_0CF@MNFOPPCD@id?9GostR3410?994?9CryptoPro?9A?9Para@ 00072450     libeay32:obj_dat.obj
 0002:0000b478       ??_C@_0BN@NAOAJFAF@id?9GostR3410?994?9TestParamSet?$AA@ 00072478     libeay32:obj_dat.obj
 0002:0000b498       ??_C@_0CJ@IIADIAJH@id?9Gost28147?989?9CryptoPro?9RIC?91?9@ 00072498     libeay32:obj_dat.obj
 0002:0000b4c4       ??_C@_0CN@IIJDEMNM@id?9Gost28147?989?9CryptoPro?9Oscar?9@ 000724c4     libeay32:obj_dat.obj
 0002:0000b4f4       ??_C@_0CN@EJBNJDBM@id?9Gost28147?989?9CryptoPro?9Oscar?9@ 000724f4     libeay32:obj_dat.obj
 0002:0000b524       ??_C@_0CF@IEBLBMOP@id?9Gost28147?989?9CryptoPro?9D?9Para@ 00072524     libeay32:obj_dat.obj
 0002:0000b54c       ??_C@_0CF@KNCAAJGM@id?9Gost28147?989?9CryptoPro?9C?9Para@ 0007254c     libeay32:obj_dat.obj
 0002:0000b574       ??_C@_0CF@GMKONGKM@id?9Gost28147?989?9CryptoPro?9B?9Para@ 00072574     libeay32:obj_dat.obj
 0002:0000b59c       ??_C@_0CF@PFEMLAKN@id?9Gost28147?989?9CryptoPro?9A?9Para@ 0007259c     libeay32:obj_dat.obj
 0002:0000b5c4       ??_C@_0BN@GKJFBLMI@id?9Gost28147?989?9TestParamSet?$AA@ 000725c4     libeay32:obj_dat.obj
 0002:0000b5e4       ??_C@_0CC@DOHJLMBI@id?9GostR3411?994?9CryptoProParamSe@ 000725e4     libeay32:obj_dat.obj
 0002:0000b608       ??_C@_0BN@DPLCCDOE@id?9GostR3411?994?9TestParamSet?$AA@ 00072608     libeay32:obj_dat.obj
 0002:0000b628       ??_C@_0CA@BLJAEGEG@id?9Gost28147?989?9None?9KeyMeshing?$AA@ 00072628     libeay32:obj_dat.obj
 0002:0000b648       ??_C@_0CF@MMKONEIK@id?9Gost28147?989?9CryptoPro?9KeyMes@ 00072648     libeay32:obj_dat.obj
 0002:0000b670       ??_C@_0BD@LGKAOLPL@GOST?5R?534?410?994?5DH?$AA@ 00072670     libeay32:obj_dat.obj
 0002:0000b684       ??_C@_0BC@CEMDDFNK@id?9GostR3410?994DH?$AA@ 00072684     libeay32:obj_dat.obj
 0002:0000b698       ??_C@_0BF@OKPANPLK@GOST?5R?534?410?92001?5DH?$AA@ 00072698     libeay32:obj_dat.obj
 0002:0000b6b0       ??_C@_0BE@OBKEJCJB@id?9GostR3410?92001DH?$AA@ 000726b0     libeay32:obj_dat.obj
 0002:0000b6c4       ??_C@_0BE@FFELJBNB@GOST?5R?534?411?994?5PRF?$AA@ 000726c4     libeay32:obj_dat.obj
 0002:0000b6d8       ??_C@_0BB@LJIINAAP@prf?9gostr3411?994?$AA@ 000726d8     libeay32:obj_dat.obj
 0002:0000b6ec       ??_C@_0BC@BPAGAEJB@GOST?528147?989?5MAC?$AA@ 000726ec     libeay32:obj_dat.obj
 0002:0000b700       ??_C@_08JCNEGNFC@gost?9mac?$AA@ 00072700     libeay32:obj_dat.obj
 0002:0000b70c       ??_C@_0L@INGOKGPP@gost89?9cnt?$AA@ 0007270c     libeay32:obj_dat.obj
 0002:0000b718       ??_C@_0O@POKHNLDL@GOST?528147?989?$AA@ 00072718     libeay32:obj_dat.obj
 0002:0000b728       ??_C@_06KLPDHLCD@gost89?$AA@ 00072728     libeay32:obj_dat.obj
 0002:0000b730       ??_C@_0BA@JOCBNIHN@GOST?5R?534?410?994?$AA@ 00072730     libeay32:obj_dat.obj
 0002:0000b740       ??_C@_06BPJPGPFJ@gost94?$AA@ 00072740     libeay32:obj_dat.obj
 0002:0000b748       ??_C@_0BC@IBNIHBI@GOST?5R?534?410?92001?$AA@ 00072748     libeay32:obj_dat.obj
 0002:0000b75c       ??_C@_08KMPAMBCP@gost2001?$AA@ 0007275c     libeay32:obj_dat.obj
 0002:0000b768       ??_C@_0BD@BHKLGKNG@HMAC?5GOST?534?411?994?$AA@ 00072768     libeay32:obj_dat.obj
 0002:0000b77c       ??_C@_0BE@EBBOKDGI@id?9HMACGostR3411?994?$AA@ 0007277c     libeay32:obj_dat.obj
 0002:0000b790       ??_C@_0BA@KDEBPBMN@GOST?5R?534?411?994?$AA@ 00072790     libeay32:obj_dat.obj
 0002:0000b7a0       ??_C@_09MIOJGGFD@md_gost94?$AA@ 000727a0     libeay32:obj_dat.obj
 0002:0000b7ac       ??_C@_0CF@PAGBHGOC@GOST?5R?534?411?994?5with?5GOST?5R?534?41@ 000727ac     libeay32:obj_dat.obj
 0002:0000b7d4       ??_C@_0CC@LCAPGDKC@id?9GostR3411?994?9with?9GostR3410?99@ 000727d4     libeay32:obj_dat.obj
 0002:0000b7f8       ??_C@_0CH@MPKKPBGC@GOST?5R?534?411?994?5with?5GOST?5R?534?41@ 000727f8     libeay32:obj_dat.obj
 0002:0000b820       ??_C@_0CE@FCAOBIOC@id?9GostR3411?994?9with?9GostR3410?92@ 00072820     libeay32:obj_dat.obj
 0002:0000b844       ??_C@_09JGBNPHGI@cryptocom?$AA@ 00072844     libeay32:obj_dat.obj
 0002:0000b850       ??_C@_09PCHJFNLI@cryptopro?$AA@ 00072850     libeay32:obj_dat.obj
 0002:0000b85c       ??_C@_09DEGKDAEL@whirlpool?$AA@ 0007285c     libeay32:obj_dat.obj
 0002:0000b868       ??_C@_0BA@FMFCOCGA@dsa_with_SHA256?$AA@ 00072868     libeay32:obj_dat.obj
 0002:0000b878       ??_C@_0BA@GLCLJGGH@dsa_with_SHA224?$AA@ 00072878     libeay32:obj_dat.obj
 0002:0000b888       ??_C@_0P@FLKKCAHA@hmacWithSHA512?$AA@ 00072888     libeay32:obj_dat.obj
 0002:0000b898       ??_C@_0P@CHEKODKF@hmacWithSHA384?$AA@ 00072898     libeay32:obj_dat.obj
 0002:0000b8a8       ??_C@_0P@KFBIHFBB@hmacWithSHA256?$AA@ 000728a8     libeay32:obj_dat.obj
 0002:0000b8b8       ??_C@_0P@JCGBABBG@hmacWithSHA224?$AA@ 000728b8     libeay32:obj_dat.obj
 0002:0000b8c8       ??_C@_0M@KOBPMNIO@hmacWithMD5?$AA@ 000728c8     libeay32:obj_dat.obj
 0002:0000b8d4       ??_C@_0BC@DONDMJAG@ecdsa?9with?9SHA512?$AA@ 000728d4     libeay32:obj_dat.obj
 0002:0000b8e8       ??_C@_0BC@ECDDAKND@ecdsa?9with?9SHA384?$AA@ 000728e8     libeay32:obj_dat.obj
 0002:0000b8fc       ??_C@_0BC@MAGBJMGH@ecdsa?9with?9SHA256?$AA@ 000728fc     libeay32:obj_dat.obj
 0002:0000b910       ??_C@_0BC@PHBIOIGA@ecdsa?9with?9SHA224?$AA@ 00072910     libeay32:obj_dat.obj
 0002:0000b924       ??_C@_0BF@INFCLNHO@ecdsa?9with?9Specified?$AA@ 00072924     libeay32:obj_dat.obj
 0002:0000b93c       ??_C@_0BH@GCJALNKM@ecdsa?9with?9Recommended?$AA@ 0007293c     libeay32:obj_dat.obj
 0002:0000b954       ??_C@_0P@KDMMBOEP@id?9aes256?9wrap?$AA@ 00072954     libeay32:obj_dat.obj
 0002:0000b964       ??_C@_0P@DJKBBDNG@id?9aes192?9wrap?$AA@ 00072964     libeay32:obj_dat.obj
 0002:0000b974       ??_C@_0P@MALLFAMO@id?9aes128?9wrap?$AA@ 00072974     libeay32:obj_dat.obj
 0002:0000b984       ??_C@_0BI@FNBGJEPL@id?9ct?9asciiTextWithCRLF?$AA@ 00072984     libeay32:obj_dat.obj
 0002:0000b99c       ??_C@_0BL@HEJKLKLL@id?9smime?9ct?9compressedData?$AA@ 0007299c     libeay32:obj_dat.obj
 0002:0000b9b8       ??_C@_0O@LBCGFGCI@CA?5Repository?$AA@ 000729b8     libeay32:obj_dat.obj
 0002:0000b9c8       ??_C@_0N@CKNFLOGG@caRepository?$AA@ 000729c8     libeay32:obj_dat.obj
 0002:0000b9d8       ??_C@_0BD@MGCOMIO@id?9it?9suppLangTags?$AA@ 000729d8     libeay32:obj_dat.obj
 0002:0000b9ec       ??_C@_0BJ@CDGIGDFG@Diffie?9Hellman?5based?5MAC?$AA@ 000729ec     libeay32:obj_dat.obj
 0002:0000ba08       ??_C@_0O@MEHCKGFD@id?9DHBasedMac?$AA@ 00072a08     libeay32:obj_dat.obj
 0002:0000ba18       ??_C@_0BD@FANJCJAP@password?5based?5MAC?$AA@ 00072a18     libeay32:obj_dat.obj
 0002:0000ba2c       ??_C@_0BE@HCNFOMHA@id?9PasswordBasedMAC?$AA@ 00072a2c     libeay32:obj_dat.obj
 0002:0000ba40       ??_C@_09KBOMLGBN@hmac?9sha1?$AA@ 00072a40     libeay32:obj_dat.obj
 0002:0000ba4c       ??_C@_09DDFKKHO@HMAC?9SHA1?$AA@ 00072a4c     libeay32:obj_dat.obj
 0002:0000ba58       ??_C@_08LPACCAD@hmac?9md5?$AA@ 00072a58     libeay32:obj_dat.obj
 0002:0000ba64       ??_C@_08CABJBHIC@HMAC?9MD5?$AA@ 00072a64     libeay32:obj_dat.obj
 0002:0000ba70       ??_C@_08JGLJJHP@seed?9cfb?$AA@ 00072a70     libeay32:obj_dat.obj
 0002:0000ba7c       ??_C@_08LHAGIIFM@SEED?9CFB?$AA@ 00072a7c     libeay32:obj_dat.obj
 0002:0000ba88       ??_C@_08EDLNCGMH@seed?9ofb?$AA@ 00072a88     libeay32:obj_dat.obj
 0002:0000ba94       ??_C@_08PNNADHOE@SEED?9OFB?$AA@ 00072a94     libeay32:obj_dat.obj
 0002:0000baa0       ??_C@_08BHHJAAOC@seed?9cbc?$AA@ 00072aa0     libeay32:obj_dat.obj
 0002:0000baac       ??_C@_08KJBEBBMB@SEED?9CBC?$AA@ 00072aac     libeay32:obj_dat.obj
 0002:0000bab8       ??_C@_08CKMLAEEI@seed?9ecb?$AA@ 00072ab8     libeay32:obj_dat.obj
 0002:0000bac4       ??_C@_08JEKGBFGL@SEED?9ECB?$AA@ 00072ac4     libeay32:obj_dat.obj
 0002:0000bad0       ??_C@_04LLEAHKNI@kisa?$AA@ 00072ad0     libeay32:obj_dat.obj
 0002:0000bad8       ??_C@_04HHHKJIKA@KISA?$AA@ 00072ad8     libeay32:obj_dat.obj
 0002:0000bae0       ??_C@_0BK@EMNEMCDI@X509v3?5Certificate?5Issuer?$AA@ 00072ae0     libeay32:obj_dat.obj
 0002:0000bafc       ??_C@_0BC@NAJGKAHO@certificateIssuer?$AA@ 00072afc     libeay32:obj_dat.obj
 0002:0000bb10       ??_C@_0CC@MMIACGNM@X509v3?5Issuing?5Distrubution?5Poin@ 00072b10     libeay32:obj_dat.obj
 0002:0000bb34       ??_C@_0BJ@OAOPOBMH@issuingDistributionPoint?$AA@ 00072b34     libeay32:obj_dat.obj
 0002:0000bb50       ??_C@_0CE@OGGDDHCK@X509v3?5Subject?5Directory?5Attribu@ 00072b50     libeay32:obj_dat.obj
 0002:0000bb74       ??_C@_0BL@GAJEKNCJ@subjectDirectoryAttributes?$AA@ 00072b74     libeay32:obj_dat.obj
 0002:0000bb90       ??_C@_0BB@EGAOKAEM@camellia?9256?9ofb?$AA@ 00072b90     libeay32:obj_dat.obj
 0002:0000bba4       ??_C@_0BB@FFEGHOPL@CAMELLIA?9256?9OFB?$AA@ 00072ba4     libeay32:obj_dat.obj
 0002:0000bbb8       ??_C@_0BB@JELAIPMN@camellia?9192?9ofb?$AA@ 00072bb8     libeay32:obj_dat.obj
 0002:0000bbcc       ??_C@_0BB@IHPIFBHK@CAMELLIA?9192?9OFB?$AA@ 00072bcc     libeay32:obj_dat.obj
 0002:0000bbe0       ??_C@_0BB@DHCMPIFB@camellia?9128?9ofb?$AA@ 00072be0     libeay32:obj_dat.obj
 0002:0000bbf4       ??_C@_0BB@CEGECGOG@CAMELLIA?9128?9OFB?$AA@ 00072bf4     libeay32:obj_dat.obj
 0002:0000bc08       ??_C@_0BC@KNEDFCOB@camellia?9256?9cfb8?$AA@ 00072c08     libeay32:obj_dat.obj
 0002:0000bc1c       ??_C@_0BC@PIFFDMBA@CAMELLIA?9256?9CFB8?$AA@ 00072c1c     libeay32:obj_dat.obj
 0002:0000bc30       ??_C@_0BC@DHCOFPHI@camellia?9192?9cfb8?$AA@ 00072c30     libeay32:obj_dat.obj
 0002:0000bc44       ??_C@_0BC@GCDIDBIJ@CAMELLIA?9192?9CFB8?$AA@ 00072c44     libeay32:obj_dat.obj
 0002:0000bc58       ??_C@_0BC@MODEBMGA@camellia?9128?9cfb8?$AA@ 00072c58     libeay32:obj_dat.obj
 0002:0000bc6c       ??_C@_0BC@JLCCHCJB@CAMELLIA?9128?9CFB8?$AA@ 00072c6c     libeay32:obj_dat.obj
 0002:0000bc80       ??_C@_0BC@HMIBOJKI@camellia?9256?9cfb1?$AA@ 00072c80     libeay32:obj_dat.obj
 0002:0000bc94       ??_C@_0BC@CJJHIHFJ@CAMELLIA?9256?9CFB1?$AA@ 00072c94     libeay32:obj_dat.obj
 0002:0000bca8       ??_C@_0BC@OGOMOEDB@camellia?9192?9cfb1?$AA@ 00072ca8     libeay32:obj_dat.obj
 0002:0000bcbc       ??_C@_0BC@LDPKIKMA@CAMELLIA?9192?9CFB1?$AA@ 00072cbc     libeay32:obj_dat.obj
 0002:0000bcd0       ??_C@_0BC@BPPGKHCJ@camellia?9128?9cfb1?$AA@ 00072cd0     libeay32:obj_dat.obj
 0002:0000bce4       ??_C@_0BC@EKOAMJNI@CAMELLIA?9128?9CFB1?$AA@ 00072ce4     libeay32:obj_dat.obj
 0002:0000bcf8       ??_C@_0BB@MNIBPPE@camellia?9256?9cfb?$AA@ 00072cf8     libeay32:obj_dat.obj
 0002:0000bd0c       ??_C@_0BB@BPJAMBED@CAMELLIA?9256?9CFB?$AA@ 00072d0c     libeay32:obj_dat.obj
 0002:0000bd20       ??_C@_0BB@NOGGDAHF@camellia?9192?9cfb?$AA@ 00072d20     libeay32:obj_dat.obj
 0002:0000bd34       ??_C@_0BB@MNCOOOMC@CAMELLIA?9192?9CFB?$AA@ 00072d34     libeay32:obj_dat.obj
 0002:0000bd48       ??_C@_0BB@HNPKEHOJ@camellia?9128?9cfb?$AA@ 00072d48     libeay32:obj_dat.obj
 0002:0000bd5c       ??_C@_0BB@GOLCJJFO@CAMELLIA?9128?9CFB?$AA@ 00072d5c     libeay32:obj_dat.obj
 0002:0000bd70       ??_C@_0BB@CPHIICMD@camellia?9256?9ecb?$AA@ 00072d70     libeay32:obj_dat.obj
 0002:0000bd84       ??_C@_0BB@DMDAFMHE@CAMELLIA?9256?9ECB?$AA@ 00072d84     libeay32:obj_dat.obj
 0002:0000bd98       ??_C@_0BB@PNMGKNEC@camellia?9192?9ecb?$AA@ 00072d98     libeay32:obj_dat.obj
 0002:0000bdac       ??_C@_0BB@OOIOHDPF@CAMELLIA?9192?9ECB?$AA@ 00072dac     libeay32:obj_dat.obj
 0002:0000bdc0       ??_C@_0BB@FOFKNKNO@camellia?9128?9ecb?$AA@ 00072dc0     libeay32:obj_dat.obj
 0002:0000bdd4       ??_C@_0BB@ENBCAEGJ@CAMELLIA?9128?9ECB?$AA@ 00072dd4     libeay32:obj_dat.obj
 0002:0000bde8       ??_C@_0BB@BCMKIGGJ@camellia?9256?9cbc?$AA@ 00072de8     libeay32:obj_dat.obj
 0002:0000bdfc       ??_C@_0BB@BICFINO@CAMELLIA?9256?9CBC?$AA@ 00072dfc     libeay32:obj_dat.obj
 0002:0000be10       ??_C@_0BB@MAHEKJOI@camellia?9192?9cbc?$AA@ 00072e10     libeay32:obj_dat.obj
 0002:0000be24       ??_C@_0BB@NDDMHHFP@CAMELLIA?9192?9CBC?$AA@ 00072e24     libeay32:obj_dat.obj
 0002:0000be38       ??_C@_0BB@GDOINOHE@camellia?9128?9cbc?$AA@ 00072e38     libeay32:obj_dat.obj
 0002:0000be4c       ??_C@_0BB@HAKAAAMD@CAMELLIA?9128?9CBC?$AA@ 00072e4c     libeay32:obj_dat.obj
 0002:0000be60       ??_C@_06DEKODPNG@ipsec4?$AA@ 00072e60     libeay32:obj_dat.obj
 0002:0000be68       ??_C@_0O@FENFAHJA@Oakley?9EC2N?94?$AA@ 00072e68     libeay32:obj_dat.obj
 0002:0000be78       ??_C@_06HLOPKJBB@ipsec3?$AA@ 00072e78     libeay32:obj_dat.obj
 0002:0000be80       ??_C@_0O@BLJEJBFH@Oakley?9EC2N?93?$AA@ 00072e80     libeay32:obj_dat.obj
 0002:0000be90       ??_C@_0BK@FPAAFIAO@X509v3?5Inhibit?5Any?5Policy?$AA@ 00072e90     libeay32:obj_dat.obj
 0002:0000beac       ??_C@_0BB@CFCCDKGF@inhibitAnyPolicy?$AA@ 00072eac     libeay32:obj_dat.obj
 0002:0000bec0       ??_C@_0BH@NJBPACCN@X509v3?5Policy?5Mappings?$AA@ 00072ec0     libeay32:obj_dat.obj
 0002:0000bed8       ??_C@_0P@MEGGINDP@policyMappings?$AA@ 00072ed8     libeay32:obj_dat.obj
 0002:0000bee8       ??_C@_0BC@CEEMIAHF@X509v3?5Any?5Policy?$AA@ 00072ee8     libeay32:obj_dat.obj
 0002:0000befc       ??_C@_09HBBJOJHB@anyPolicy?$AA@ 00072efc     libeay32:obj_dat.obj
 0002:0000bf08       ??_C@_0BI@MNOLKEAO@wap?9wsg?9idm?9ecid?9wtls12?$AA@ 00072f08     libeay32:obj_dat.obj
 0002:0000bf20       ??_C@_0BI@OGMGPHMN@wap?9wsg?9idm?9ecid?9wtls11?$AA@ 00072f20     libeay32:obj_dat.obj
 0002:0000bf38       ??_C@_0BI@PPNNMGIM@wap?9wsg?9idm?9ecid?9wtls10?$AA@ 00072f38     libeay32:obj_dat.obj
 0002:0000bf50       ??_C@_0BH@DMKMEGHN@wap?9wsg?9idm?9ecid?9wtls9?$AA@ 00072f50     libeay32:obj_dat.obj
 0002:0000bf68       ??_C@_0BH@CFLHHHDM@wap?9wsg?9idm?9ecid?9wtls8?$AA@ 00072f68     libeay32:obj_dat.obj
 0002:0000bf80       ??_C@_0BH@KCCPGLPD@wap?9wsg?9idm?9ecid?9wtls7?$AA@ 00072f80     libeay32:obj_dat.obj
 0002:0000bf98       ??_C@_0BH@LLDEFKLC@wap?9wsg?9idm?9ecid?9wtls6?$AA@ 00072f98     libeay32:obj_dat.obj
 0002:0000bfb0       ??_C@_0BH@JABJAJHB@wap?9wsg?9idm?9ecid?9wtls5?$AA@ 00072fb0     libeay32:obj_dat.obj
 0002:0000bfc8       ??_C@_0BH@IJACDIDA@wap?9wsg?9idm?9ecid?9wtls4?$AA@ 00072fc8     libeay32:obj_dat.obj
 0002:0000bfe0       ??_C@_0BH@MGEDKOPH@wap?9wsg?9idm?9ecid?9wtls3?$AA@ 00072fe0     libeay32:obj_dat.obj
 0002:0000bff8       ??_C@_0BH@PEHFMMHF@wap?9wsg?9idm?9ecid?9wtls1?$AA@ 00072ff8     libeay32:obj_dat.obj
 0002:0000c010       ??_C@_09MPLFOIFJ@sect571r1?$AA@ 00073010     libeay32:obj_dat.obj
 0002:0000c01c       ??_C@_09NMECHAKG@sect571k1?$AA@ 0007301c     libeay32:obj_dat.obj
 0002:0000c028       ??_C@_09HDHNMPAD@sect409r1?$AA@ 00073028     libeay32:obj_dat.obj
 0002:0000c034       ??_C@_09GAIKFHPM@sect409k1?$AA@ 00073034     libeay32:obj_dat.obj
 0002:0000c040       ??_C@_09PKOJIHLL@sect283r1?$AA@ 00073040     libeay32:obj_dat.obj
 0002:0000c04c       ??_C@_09OJBOBPEE@sect283k1?$AA@ 0007304c     libeay32:obj_dat.obj
 0002:0000c058       ??_C@_09PBHDMODB@sect239k1?$AA@ 00073058     libeay32:obj_dat.obj
 0002:0000c064       ??_C@_09INDJLGKK@sect233r1?$AA@ 00073064     libeay32:obj_dat.obj
 0002:0000c070       ??_C@_09JOMOCOFF@sect233k1?$AA@ 00073070     libeay32:obj_dat.obj
 0002:0000c07c       ??_C@_09GKDAIPGG@sect193r2?$AA@ 0007307c     libeay32:obj_dat.obj
 0002:0000c088       ??_C@_09EBBNNMKF@sect193r1?$AA@ 00073088     libeay32:obj_dat.obj
 0002:0000c094       ??_C@_09OIGABILH@sect163r2?$AA@ 00073094     libeay32:obj_dat.obj
 0002:0000c0a0       ??_C@_09MDENELHE@sect163r1?$AA@ 000730a0     libeay32:obj_dat.obj
 0002:0000c0ac       ??_C@_09NALKNDIL@sect163k1?$AA@ 000730ac     libeay32:obj_dat.obj
 0002:0000c0b8       ??_C@_09IKIJFPEM@sect131r2?$AA@ 000730b8     libeay32:obj_dat.obj
 0002:0000c0c4       ??_C@_09KBKEAMIP@sect131r1?$AA@ 000730c4     libeay32:obj_dat.obj
 0002:0000c0d0       ??_C@_09FKEAMEKH@sect113r2?$AA@ 000730d0     libeay32:obj_dat.obj
 0002:0000c0dc       ??_C@_09HBGNJHGE@sect113r1?$AA@ 000730dc     libeay32:obj_dat.obj
 0002:0000c0e8       ??_C@_09PDBKEDDK@secp521r1?$AA@ 000730e8     libeay32:obj_dat.obj
 0002:0000c0f4       ??_C@_09FICNEILE@secp384r1?$AA@ 000730f4     libeay32:obj_dat.obj
 0002:0000c100       ??_C@_09NCBPAPNE@secp256k1?$AA@ 00073100     libeay32:obj_dat.obj
 0002:0000c10c       ??_C@_09NJMBIDLA@secp224r1?$AA@ 0007310c     libeay32:obj_dat.obj
 0002:0000c118       ??_C@_09MKDGBLEP@secp224k1?$AA@ 00073118     libeay32:obj_dat.obj
 0002:0000c124       ??_C@_09BOBJAHCM@secp192k1?$AA@ 00073124     libeay32:obj_dat.obj
 0002:0000c130       ??_C@_09OJKJDEK@secp160r2?$AA@ 00073130     libeay32:obj_dat.obj
 0002:0000c13c       ??_C@_09CFLHMAIJ@secp160r1?$AA@ 0007313c     libeay32:obj_dat.obj
 0002:0000c148       ??_C@_09DGEAFIHG@secp160k1?$AA@ 00073148     libeay32:obj_dat.obj
 0002:0000c154       ??_C@_09DOKOBNGF@secp128r2?$AA@ 00073154     libeay32:obj_dat.obj
 0002:0000c160       ??_C@_09BFIDEOKG@secp128r1?$AA@ 00073160     libeay32:obj_dat.obj
 0002:0000c16c       ??_C@_09BGLDIHNB@secp112r2?$AA@ 0007316c     libeay32:obj_dat.obj
 0002:0000c178       ??_C@_09DNJONEBC@secp112r1?$AA@ 00073178     libeay32:obj_dat.obj
 0002:0000c184       ??_C@_0L@OFJKDCBG@c2tnb431r1?$AA@ 00073184     libeay32:obj_dat.obj
 0002:0000c190       ??_C@_0L@BGFAFBLD@c2pnb368w1?$AA@ 00073190     libeay32:obj_dat.obj
 0002:0000c19c       ??_C@_0L@LFGCHHDN@c2tnb359v1?$AA@ 0007319c     libeay32:obj_dat.obj
 0002:0000c1a8       ??_C@_0L@NDMGBLKL@c2pnb304w1?$AA@ 000731a8     libeay32:obj_dat.obj
 0002:0000c1b4       ??_C@_0L@IPNBELMC@c2pnb272w1?$AA@ 000731b4     libeay32:obj_dat.obj
 0002:0000c1c0       ??_C@_0L@LLIHEIJA@c2onb239v5?$AA@ 000731c0     libeay32:obj_dat.obj
 0002:0000c1cc       ??_C@_0L@KCJMHJNB@c2onb239v4?$AA@ 000731cc     libeay32:obj_dat.obj
 0002:0000c1d8       ??_C@_0L@MDEIDDLK@c2tnb239v3?$AA@ 000731d8     libeay32:obj_dat.obj
 0002:0000c1e4       ??_C@_0L@NKFDACPL@c2tnb239v2?$AA@ 000731e4     libeay32:obj_dat.obj
 0002:0000c1f0       ??_C@_0L@PBHOFBDI@c2tnb239v1?$AA@ 000731f0     libeay32:obj_dat.obj
 0002:0000c1fc       ??_C@_0L@FCEMHHLG@c2pnb208w1?$AA@ 000731fc     libeay32:obj_dat.obj
 0002:0000c208       ??_C@_0L@LCBHAKHA@c2onb191v5?$AA@ 00073208     libeay32:obj_dat.obj
 0002:0000c214       ??_C@_0L@KLAMDLDB@c2onb191v4?$AA@ 00073214     libeay32:obj_dat.obj
 0002:0000c220       ??_C@_0L@MKNIHBFK@c2tnb191v3?$AA@ 00073220     libeay32:obj_dat.obj
 0002:0000c22c       ??_C@_0L@NDMDEABL@c2tnb191v2?$AA@ 0007322c     libeay32:obj_dat.obj
 0002:0000c238       ??_C@_0L@PIOOBDNI@c2tnb191v1?$AA@ 00073238     libeay32:obj_dat.obj
 0002:0000c244       ??_C@_0L@IHOFMEAM@c2pnb176v1?$AA@ 00073244     libeay32:obj_dat.obj
 0002:0000c250       ??_C@_0L@LPGNHPAM@c2pnb163v3?$AA@ 00073250     libeay32:obj_dat.obj
 0002:0000c25c       ??_C@_0L@KGHGEOEN@c2pnb163v2?$AA@ 0007325c     libeay32:obj_dat.obj
 0002:0000c268       ??_C@_0L@INFLBNIO@c2pnb163v1?$AA@ 00073268     libeay32:obj_dat.obj
 0002:0000c274       ??_C@_07GLJEBFP@ppBasis?$AA@ 00073274     libeay32:obj_dat.obj
 0002:0000c27c       ??_C@_07ICPDEPKF@tpBasis?$AA@ 0007327c     libeay32:obj_dat.obj
 0002:0000c284       ??_C@_07JEMDIFEL@onBasis?$AA@ 00073284     libeay32:obj_dat.obj
 0002:0000c28c       ??_C@_0BM@PPOCDOAJ@id?9characteristic?9two?9basis?$AA@ 0007328c     libeay32:obj_dat.obj
 0002:0000c2a8       ??_C@_07KJBJKKHG@wap?9wsg?$AA@ 000732a8     libeay32:obj_dat.obj
 0002:0000c2b0       ??_C@_03EOHJGACH@wap?$AA@  000732b0     libeay32:obj_dat.obj
 0002:0000c2b4       ??_C@_0N@GOPBJFID@certicom?9arc?$AA@ 000732b4     libeay32:obj_dat.obj
 0002:0000c2c4       ??_C@_0BI@NDBFOMIA@identified?9organization?$AA@ 000732c4     libeay32:obj_dat.obj
 0002:0000c2dc       ??_C@_06DJABMLNO@sha224?$AA@ 000732dc     libeay32:obj_dat.obj
 0002:0000c2e4       ??_C@_06DANBNIHA@SHA224?$AA@ 000732e4     libeay32:obj_dat.obj
 0002:0000c2ec       ??_C@_06PAMKOKLI@sha512?$AA@ 000732ec     libeay32:obj_dat.obj
 0002:0000c2f4       ??_C@_06PJBKPJBG@SHA512?$AA@ 000732f4     libeay32:obj_dat.obj
 0002:0000c2fc       ??_C@_06IMCKCJGN@sha384?$AA@ 000732fc     libeay32:obj_dat.obj
 0002:0000c304       ??_C@_06IFPKDKMD@SHA384?$AA@ 00073304     libeay32:obj_dat.obj
 0002:0000c30c       ??_C@_06OHILPNJ@sha256?$AA@ 0007330c     libeay32:obj_dat.obj
 0002:0000c314       ??_C@_06HKIKMHH@SHA256?$AA@ 00073314     libeay32:obj_dat.obj
 0002:0000c31c       ??_C@_0BI@HODNLFBE@sha224WithRSAEncryption?$AA@ 0007331c     libeay32:obj_dat.obj
 0002:0000c334       ??_C@_0L@BPFBIPIP@RSA?9SHA224?$AA@ 00073334     libeay32:obj_dat.obj
 0002:0000c340       ??_C@_0BI@CFKPHFJF@sha512WithRSAEncryption?$AA@ 00073340     libeay32:obj_dat.obj
 0002:0000c358       ??_C@_0L@NGJKKOOJ@RSA?9SHA512?$AA@ 00073358     libeay32:obj_dat.obj
 0002:0000c364       ??_C@_0BI@LGPCJGLE@sha384WithRSAEncryption?$AA@ 00073364     libeay32:obj_dat.obj
 0002:0000c37c       ??_C@_0L@KKHKGNDM@RSA?9SHA384?$AA@ 0007337c     libeay32:obj_dat.obj
 0002:0000c388       ??_C@_0BI@OLMNBFHG@sha256WithRSAEncryption?$AA@ 00073388     libeay32:obj_dat.obj
 0002:0000c3a0       ??_C@_0L@CICIPLII@RSA?9SHA256?$AA@ 000733a0     libeay32:obj_dat.obj
 0002:0000c3ac       ??_C@_0M@MLMKHJLC@Independent?$AA@ 000733ac     libeay32:obj_dat.obj
 0002:0000c3b8       ??_C@_0BD@JMNHHICP@id?9ppl?9independent?$AA@ 000733b8     libeay32:obj_dat.obj
 0002:0000c3cc       ??_C@_0BI@MLJLAGL@X509v3?5Name?5Constraints?$AA@ 000733cc     libeay32:obj_dat.obj
 0002:0000c3e4       ??_C@_0BA@NDBMPGLN@nameConstraints?$AA@ 000733e4     libeay32:obj_dat.obj
 0002:0000c3f4       ??_C@_0M@FFLAPACB@Inherit?5all?$AA@ 000733f4     libeay32:obj_dat.obj
 0002:0000c400       ??_C@_0BC@PCEJIIF@id?9ppl?9inheritAll?$AA@ 00073400     libeay32:obj_dat.obj
 0002:0000c414       ??_C@_0N@BEBFEGLC@Any?5language?$AA@ 00073414     libeay32:obj_dat.obj
 0002:0000c424       ??_C@_0BD@HNCKDFAM@id?9ppl?9anyLanguage?$AA@ 00073424     libeay32:obj_dat.obj
 0002:0000c438       ??_C@_0BO@CCHFGBDO@Proxy?5Certificate?5Information?$AA@ 00073438     libeay32:obj_dat.obj
 0002:0000c458       ??_C@_0O@LOINHHBF@proxyCertInfo?$AA@ 00073458     libeay32:obj_dat.obj
 0002:0000c468       ??_C@_06CAAPGDCJ@id?9ppl?$AA@ 00073468     libeay32:obj_dat.obj
 0002:0000c470       ??_C@_0L@NCDHJCMF@postalCode?$AA@ 00073470     libeay32:obj_dat.obj
 0002:0000c47c       ??_C@_0O@GFJANBCD@streetAddress?$AA@ 0007347c     libeay32:obj_dat.obj
 0002:0000c48c       ??_C@_06KFAFKEEH@street?$AA@ 0007348c     libeay32:obj_dat.obj
 0002:0000c494       ??_C@_0O@KGNFGAAA@des?9ede3?9cfb8?$AA@ 00073494     libeay32:obj_dat.obj
 0002:0000c4a4       ??_C@_0O@KNJKKNCK@DES?9EDE3?9CFB8?$AA@ 000734a4     libeay32:obj_dat.obj
 0002:0000c4b4       ??_C@_0O@HHBHNLEJ@des?9ede3?9cfb1?$AA@ 000734b4     libeay32:obj_dat.obj
 0002:0000c4c4       ??_C@_0O@HMFIBGGD@DES?9EDE3?9CFB1?$AA@ 000734c4     libeay32:obj_dat.obj
 0002:0000c4d4       ??_C@_08HKNDEPIP@des?9cfb8?$AA@ 000734d4     libeay32:obj_dat.obj
 0002:0000c4e0       ??_C@_08JHFHFADM@DES?9CFB8?$AA@ 000734e0     libeay32:obj_dat.obj
 0002:0000c4ec       ??_C@_08KLBBPEMG@des?9cfb1?$AA@ 000734ec     libeay32:obj_dat.obj
 0002:0000c4f8       ??_C@_08EGJFOLHF@DES?9CFB1?$AA@ 000734f8     libeay32:obj_dat.obj
 0002:0000c504       ??_C@_0N@GPAECIBG@aes?9256?9cfb8?$AA@ 00073504     libeay32:obj_dat.obj
 0002:0000c514       ??_C@_0N@BLGJPBBG@AES?9256?9CFB8?$AA@ 00073514     libeay32:obj_dat.obj
 0002:0000c524       ??_C@_0N@PFGJCFIP@aes?9192?9cfb8?$AA@ 00073524     libeay32:obj_dat.obj
 0002:0000c534       ??_C@_0N@IBAEPMIP@AES?9192?9CFB8?$AA@ 00073534     libeay32:obj_dat.obj
 0002:0000c544       ??_C@_0N@MHDGGJH@aes?9128?9cfb8?$AA@ 00073544     libeay32:obj_dat.obj
 0002:0000c554       ??_C@_0N@HIBOLPJH@AES?9128?9CFB8?$AA@ 00073554     libeay32:obj_dat.obj
 0002:0000c564       ??_C@_0N@LOMGJDFP@aes?9256?9cfb1?$AA@ 00073564     libeay32:obj_dat.obj
 0002:0000c574       ??_C@_0N@MKKLEKFP@AES?9256?9CFB1?$AA@ 00073574     libeay32:obj_dat.obj
 0002:0000c584       ??_C@_0N@CEKLJOMG@aes?9192?9cfb1?$AA@ 00073584     libeay32:obj_dat.obj
 0002:0000c594       ??_C@_0N@FAMGEHMG@AES?9192?9CFB1?$AA@ 00073594     libeay32:obj_dat.obj
 0002:0000c5a4       ??_C@_0N@NNLBNNNO@aes?9128?9cfb1?$AA@ 000735a4     libeay32:obj_dat.obj
 0002:0000c5b4       ??_C@_0N@KJNMAENO@AES?9128?9CFB1?$AA@ 000735b4     libeay32:obj_dat.obj
 0002:0000c5c4       ??_C@_0CD@POJHJMFG@Microsoft?5Universal?5Principal?5Na@ 000735c4     libeay32:obj_dat.obj
 0002:0000c5e8       ??_C@_05LKLAGLGM@msUPN?$AA@ 000735e8     libeay32:obj_dat.obj
 0002:0000c5f0       ??_C@_0BJ@BHLLFCI@Microsoft?5Smartcardlogin?$AA@ 000735f0     libeay32:obj_dat.obj
 0002:0000c60c       ??_C@_0BB@MJPMDGHF@msSmartcardLogin?$AA@ 0007360c     libeay32:obj_dat.obj
 0002:0000c620       ??_C@_0BM@PGMBEIHL@International?5Organizations?$AA@ 00073620     libeay32:obj_dat.obj
 0002:0000c63c       ??_C@_0BM@PBBEOBAP@international?9organizations?$AA@ 0007363c     libeay32:obj_dat.obj
 0002:0000c658       ??_C@_0BA@DDCJMADA@joint?9iso?9itu?9t?$AA@ 00073658     libeay32:obj_dat.obj
 0002:0000c668       ??_C@_0BA@NPJCPIN@JOINT?9ISO?9ITU?9T?$AA@ 00073668     libeay32:obj_dat.obj
 0002:0000c678       ??_C@_05EKLDHPCO@itu?9t?$AA@ 00073678     libeay32:obj_dat.obj
 0002:0000c680       ??_C@_05LJGINOIA@ITU?9T?$AA@ 00073680     libeay32:obj_dat.obj
 0002:0000c688       ??_C@_0BF@EIIDBKMM@rsaOAEPEncryptionSET?$AA@ 00073688     libeay32:obj_dat.obj
 0002:0000c6a0       ??_C@_08PPLOLAOD@des?9cdmf?$AA@ 000736a0     libeay32:obj_dat.obj
 0002:0000c6ac       ??_C@_08IHLOILPC@DES?9CDMF?$AA@ 000736ac     libeay32:obj_dat.obj
 0002:0000c6b8       ??_C@_0BA@JHOGHBHC@set?9brand?9Novus?$AA@ 000736b8     libeay32:obj_dat.obj
 0002:0000c6c8       ??_C@_0BF@EKCBHCKG@set?9brand?9MasterCard?$AA@ 000736c8     libeay32:obj_dat.obj
 0002:0000c6e0       ??_C@_0P@KADKEMKM@set?9brand?9Visa?$AA@ 000736e0     libeay32:obj_dat.obj
 0002:0000c6f0       ??_C@_0O@ODFDKJIN@set?9brand?9JCB?$AA@ 000736f0     libeay32:obj_dat.obj
 0002:0000c700       ??_C@_0BK@NGHCPIFJ@set?9brand?9AmericanExpress?$AA@ 00073700     libeay32:obj_dat.obj
 0002:0000c71c       ??_C@_0BB@MJOMIBOM@set?9brand?9Diners?$AA@ 0007371c     libeay32:obj_dat.obj
 0002:0000c730       ??_C@_0BD@EBDAHFCK@set?9brand?9IATA?9ATA?$AA@ 00073730     libeay32:obj_dat.obj
 0002:0000c744       ??_C@_0BI@BMDLNIII@secure?5device?5signature?$AA@ 00073744     libeay32:obj_dat.obj
 0002:0000c75c       ??_C@_0BC@HILPEDHB@setAttr?9SecDevSig?$AA@ 0007375c     libeay32:obj_dat.obj
 0002:0000c770       ??_C@_0BH@FLMFBHA@ICC?5or?5token?5signature?$AA@ 00073770     libeay32:obj_dat.obj
 0002:0000c788       ??_C@_0BC@KFHJNGAA@setAttr?9TokICCsig?$AA@ 00073788     libeay32:obj_dat.obj
 0002:0000c79c       ??_C@_0BC@EEELFHMJ@cleartext?5track?52?$AA@ 0007379c     libeay32:obj_dat.obj
 0002:0000c7b0       ??_C@_0BD@GDDCOMNC@setAttr?9T2cleartxt?$AA@ 000737b0     libeay32:obj_dat.obj
 0002:0000c7c4       ??_C@_0BC@MCHFBPJF@encrypted?5track?52?$AA@ 000737c4     libeay32:obj_dat.obj
 0002:0000c7d8       ??_C@_0O@GFEDKLID@setAttr?9T2Enc?$AA@ 000737d8     libeay32:obj_dat.obj
 0002:0000c7e8       ??_C@_0BE@BANBLNDJ@generate?5cryptogram?$AA@ 000737e8     libeay32:obj_dat.obj
 0002:0000c7fc       ??_C@_0BE@FJCINFHM@setAttr?9GenCryptgrm?$AA@ 000737fc     libeay32:obj_dat.obj
 0002:0000c810       ??_C@_0BD@DMNGIJGO@setAttr?9IssCap?9Sig?$AA@ 00073810     libeay32:obj_dat.obj
 0002:0000c824       ??_C@_0BC@FKLLNJMF@setAttr?9IssCap?9T2?$AA@ 00073824     libeay32:obj_dat.obj
 0002:0000c838       ??_C@_0BD@CMJDLAHE@setAttr?9IssCap?9CVM?$AA@ 00073838     libeay32:obj_dat.obj
 0002:0000c84c       ??_C@_0BG@ICNBHDJ@setAttr?9Token?9B0Prime?$AA@ 0007384c     libeay32:obj_dat.obj
 0002:0000c864       ??_C@_0BC@BMANBENP@setAttr?9Token?9EMV?$AA@ 00073864     libeay32:obj_dat.obj
 0002:0000c878       ??_C@_0O@NOCONBCM@set?9addPolicy?$AA@ 00073878     libeay32:obj_dat.obj
 0002:0000c888       ??_C@_0BB@MADMNAKK@set?9rootKeyThumb?$AA@ 00073888     libeay32:obj_dat.obj
 0002:0000c89c       ??_C@_0BE@HBDPGKCG@issuer?5capabilities?$AA@ 0007389c     libeay32:obj_dat.obj
 0002:0000c8b0       ??_C@_0P@OGFLCCKL@setAttr?9IssCap?$AA@ 000738b0     libeay32:obj_dat.obj
 0002:0000c8c0       ??_C@_0BC@IKOKMCIL@setAttr?9TokenType?$AA@ 000738c0     libeay32:obj_dat.obj
 0002:0000c8d4       ??_C@_0BN@HEFBDPEB@payment?5gateway?5capabilities?$AA@ 000738d4     libeay32:obj_dat.obj
 0002:0000c8f4       ??_C@_0BA@FAIFDKDK@setAttr?9PGWYcap?$AA@ 000738f4     libeay32:obj_dat.obj
 0002:0000c904       ??_C@_0N@DCNKAAPN@setAttr?9Cert?$AA@ 00073904     libeay32:obj_dat.obj
 0002:0000c914       ??_C@_0BL@OLCLGJDA@setCext?9IssuerCapabilities?$AA@ 00073914     libeay32:obj_dat.obj
 0002:0000c930       ??_C@_0BC@KMFGLCBL@setCext?9TokenType?$AA@ 00073930     libeay32:obj_dat.obj
 0002:0000c944       ??_C@_0BD@FHFLAKJD@setCext?9Track2Data?$AA@ 00073944     libeay32:obj_dat.obj
 0002:0000c958       ??_C@_0BI@FIIEHNL@setCext?9TokenIdentifier?$AA@ 00073958     libeay32:obj_dat.obj
 0002:0000c970       ??_C@_0BJ@CNLNHONG@setCext?9PGWYcapabilities?$AA@ 00073970     libeay32:obj_dat.obj
 0002:0000c98c       ??_C@_0BB@HIAOOOIO@setCext?9setQualf?$AA@ 0007398c     libeay32:obj_dat.obj
 0002:0000c9a0       ??_C@_0P@DFHCPLJG@setCext?9setExt?$AA@ 000739a0     libeay32:obj_dat.obj
 0002:0000c9b0       ??_C@_0BC@BPADJLFJ@setCext?9tunneling?$AA@ 000739b0     libeay32:obj_dat.obj
 0002:0000c9c4       ??_C@_0BG@CMNKGOHO@setCext?9cCertRequired?$AA@ 000739c4     libeay32:obj_dat.obj
 0002:0000c9dc       ??_C@_0BC@ONMLOIHK@setCext?9merchData?$AA@ 000739dc     libeay32:obj_dat.obj
 0002:0000c9f0       ??_C@_0BB@LHGCHNFD@setCext?9certType?$AA@ 000739f0     libeay32:obj_dat.obj
 0002:0000ca04       ??_C@_0BD@MELPLACB@setCext?9hashedRoot?$AA@ 00073a04     libeay32:obj_dat.obj
 0002:0000ca18       ??_C@_0BA@DLJGCPKK@set?9policy?9root?$AA@ 00073a18     libeay32:obj_dat.obj
 0002:0000ca28       ??_C@_0BI@MFPOFNGC@additional?5verification?$AA@ 00073a28     libeay32:obj_dat.obj
 0002:0000ca40       ??_C@_09GMOEIEJI@setext?9cv?$AA@ 00073a40     libeay32:obj_dat.obj
 0002:0000ca4c       ??_C@_0O@PNAFPHHK@setext?9track2?$AA@ 00073a4c     libeay32:obj_dat.obj
 0002:0000ca5c       ??_C@_0O@PNHGIFHA@setext?9pinAny?$AA@ 00073a5c     libeay32:obj_dat.obj
 0002:0000ca6c       ??_C@_0BB@IKLFBNP@setext?9pinSecure?$AA@ 00073a6c     libeay32:obj_dat.obj
 0002:0000ca80       ??_C@_0BI@IMGNFPLI@merchant?5initiated?5auth?$AA@ 00073a80     libeay32:obj_dat.obj
 0002:0000ca98       ??_C@_0O@IFMPKKOL@setext?9miAuth?$AA@ 00073a98     libeay32:obj_dat.obj
 0002:0000caa8       ??_C@_0BD@IMJHIOH@generic?5cryptogram?$AA@ 00073aa8     libeay32:obj_dat.obj
 0002:0000cabc       ??_C@_0BA@NKJJMGPC@setext?9genCrypt?$AA@ 00073abc     libeay32:obj_dat.obj
 0002:0000cacc       ??_C@_0BJ@BPGLEKIJ@setct?9BCIDistributionTBS?$AA@ 00073acc     libeay32:obj_dat.obj
 0002:0000cae8       ??_C@_0BM@GINBKIMJ@setct?9CRLNotificationResTBS?$AA@ 00073ae8     libeay32:obj_dat.obj
 0002:0000cb04       ??_C@_0BJ@KMIJGANO@setct?9CRLNotificationTBS?$AA@ 00073b04     libeay32:obj_dat.obj
 0002:0000cb20       ??_C@_0BB@KEDMFAIN@setct?9CertResTBE?$AA@ 00073b20     libeay32:obj_dat.obj
 0002:0000cb34       ??_C@_0BC@KMAHLFJK@setct?9CertReqTBEX?$AA@ 00073b34     libeay32:obj_dat.obj
 0002:0000cb48       ??_C@_0BB@NOPMADON@setct?9CertReqTBE?$AA@ 00073b48     libeay32:obj_dat.obj
 0002:0000cb5c       ??_C@_0BE@MIADHNEP@setct?9RegFormReqTBE?$AA@ 00073b5c     libeay32:obj_dat.obj
 0002:0000cb70       ??_C@_0BH@PFFPEIML@setct?9BatchAdminResTBE?$AA@ 00073b70     libeay32:obj_dat.obj
 0002:0000cb88       ??_C@_0BH@IPJPBLKL@setct?9BatchAdminReqTBE?$AA@ 00073b88     libeay32:obj_dat.obj
 0002:0000cba0       ??_C@_0BE@MGLMPAHD@setct?9CredRevResTBE?$AA@ 00073ba0     libeay32:obj_dat.obj
 0002:0000cbb4       ??_C@_0BF@PGGAOKCB@setct?9CredRevReqTBEX?$AA@ 00073bb4     libeay32:obj_dat.obj
 0002:0000cbcc       ??_C@_0BE@LMHMKDBD@setct?9CredRevReqTBE?$AA@ 00073bcc     libeay32:obj_dat.obj
 0002:0000cbe0       ??_C@_0BB@NFFENEIP@setct?9CredResTBE?$AA@ 00073be0     libeay32:obj_dat.obj
 0002:0000cbf4       ??_C@_0BC@ECHILMDC@setct?9CredReqTBEX?$AA@ 00073bf4     libeay32:obj_dat.obj
 0002:0000cc08       ??_C@_0BB@KPJEIHOP@setct?9CredReqTBE?$AA@ 00073c08     libeay32:obj_dat.obj
 0002:0000cc1c       ??_C@_0BD@GIBDNMDG@setct?9CapRevResTBE?$AA@ 00073c1c     libeay32:obj_dat.obj
 0002:0000cc30       ??_C@_0BE@PAHIPABC@setct?9CapRevReqTBEX?$AA@ 00073c30     libeay32:obj_dat.obj
 0002:0000cc44       ??_C@_0BD@BCNDIPFG@setct?9CapRevReqTBE?$AA@ 00073c44     libeay32:obj_dat.obj
 0002:0000cc58       ??_C@_0BA@MEFGIEBL@setct?9CapResTBE?$AA@ 00073c58     libeay32:obj_dat.obj
 0002:0000cc68       ??_C@_0BB@LFALOJDP@setct?9CapReqTBEX?$AA@ 00073c68     libeay32:obj_dat.obj
 0002:0000cc7c       ??_C@_0BA@LOJGNHHL@setct?9CapReqTBE?$AA@ 00073c7c     libeay32:obj_dat.obj
 0002:0000cc8c       ??_C@_0BF@KKFFJIHO@setct?9AuthRevResTBEB?$AA@ 00073c8c     libeay32:obj_dat.obj
 0002:0000cca4       ??_C@_0BE@MHAGABNC@setct?9AuthRevResTBE?$AA@ 00073ca4     libeay32:obj_dat.obj
 0002:0000ccb8       ??_C@_0BE@LNMGFCLC@setct?9AuthRevReqTBE?$AA@ 00073cb8     libeay32:obj_dat.obj
 0002:0000cccc       ??_C@_0BI@PALCIALL@setct?9AcqCardCodeMsgTBE?$AA@ 00073ccc     libeay32:obj_dat.obj
 0002:0000cce4       ??_C@_0BD@OMCOOIME@setct?9CapTokenTBEX?$AA@ 00073ce4     libeay32:obj_dat.obj
 0002:0000ccf8       ??_C@_0BC@CIKKDLAH@setct?9CapTokenTBE?$AA@ 00073cf8     libeay32:obj_dat.obj
 0002:0000cd0c       ??_C@_0BD@DHGMJDKO@setct?9AuthTokenTBE?$AA@ 00073d0c     libeay32:obj_dat.obj
 0002:0000cd20       ??_C@_0BC@OEOIIPOH@setct?9AuthResTBEX?$AA@ 00073d20     libeay32:obj_dat.obj
 0002:0000cd34       ??_C@_0BB@IDPADFEK@setct?9AuthResTBE?$AA@ 00073d34     libeay32:obj_dat.obj
 0002:0000cd48       ??_C@_0BB@PJDAGGCK@setct?9AuthReqTBE?$AA@ 00073d48     libeay32:obj_dat.obj
 0002:0000cd5c       ??_C@_0BE@IBOAPLDD@setct?9PIUnsignedTBE?$AA@ 00073d5c     libeay32:obj_dat.obj
 0002:0000cd70       ??_C@_0BG@JDDNBPAG@setct?9PIDualSignedTBE?$AA@ 00073d70     libeay32:obj_dat.obj
 0002:0000cd88       ??_C@_0P@DLHKHMDJ@setct?9ErrorTBS?$AA@ 00073d88     libeay32:obj_dat.obj
 0002:0000cd98       ??_C@_0BE@OIDIJLCF@setct?9CertInqReqTBS?$AA@ 00073d98     libeay32:obj_dat.obj
 0002:0000cdac       ??_C@_0BC@BIIFIBNO@setct?9CertResData?$AA@ 00073dac     libeay32:obj_dat.obj
 0002:0000cdc0       ??_C@_0BB@MCGELGDK@setct?9CertReqTBS?$AA@ 00073dc0     libeay32:obj_dat.obj
 0002:0000cdd4       ??_C@_0BC@FFENCANF@setct?9CertReqData?$AA@ 00073dd4     libeay32:obj_dat.obj
 0002:0000cde8       ??_C@_0BE@KOFLJLPI@setct?9RegFormResTBS?$AA@ 00073de8     libeay32:obj_dat.obj
 0002:0000cdfc       ??_C@_0BG@DIBJJIJB@setct?9MeAqCInitResTBS?$AA@ 00073dfc     libeay32:obj_dat.obj
 0002:0000ce14       ??_C@_0BG@OMHIHPPP@setct?9CardCInitResTBS?$AA@ 00073e14     libeay32:obj_dat.obj
 0002:0000ce2c       ??_C@_0BI@IHGLAGGD@setct?9BatchAdminResData?$AA@ 00073e2c     libeay32:obj_dat.obj
 0002:0000ce44       ??_C@_0BI@MKKDKHGI@setct?9BatchAdminReqData?$AA@ 00073e44     libeay32:obj_dat.obj
 0002:0000ce5c       ??_C@_0BC@CFHCKIIA@setct?9PCertResTBS?$AA@ 00073e5c     libeay32:obj_dat.obj
 0002:0000ce70       ??_C@_0BD@DDNGMNFC@setct?9PCertReqData?$AA@ 00073e70     libeay32:obj_dat.obj
 0002:0000ce84       ??_C@_0BF@ECOCNOGF@setct?9CredRevResData?$AA@ 00073e84     libeay32:obj_dat.obj
 0002:0000ce9c       ??_C@_0BF@OOMLDFOD@setct?9CredRevReqTBSX?$AA@ 00073e9c     libeay32:obj_dat.obj
 0002:0000ceb4       ??_C@_0BE@KAOEBGME@setct?9CredRevReqTBS?$AA@ 00073eb4     libeay32:obj_dat.obj
 0002:0000cec8       ??_C@_0BC@PGPKIIHG@setct?9CredResData?$AA@ 00073ec8     libeay32:obj_dat.obj
 0002:0000cedc       ??_C@_0BC@FKNDGDPA@setct?9CredReqTBSX?$AA@ 00073edc     libeay32:obj_dat.obj
 0002:0000cef0       ??_C@_0BB@LDAMDCDI@setct?9CredReqTBS?$AA@ 00073ef0     libeay32:obj_dat.obj
 0002:0000cf04       ??_C@_0BE@EEPKMEFG@setct?9CapRevResData?$AA@ 00073f04     libeay32:obj_dat.obj
 0002:0000cf18       ??_C@_0BE@OINDCPNA@setct?9CapRevReqTBSX?$AA@ 00073f18     libeay32:obj_dat.obj
 0002:0000cf2c       ??_C@_0BD@OELDKIB@setct?9CapRevReqTBS?$AA@ 00073f2c     libeay32:obj_dat.obj
 0002:0000cf40       ??_C@_0BB@BIJNNHL@setct?9CapResData?$AA@ 00073f40     libeay32:obj_dat.obj
 0002:0000cf54       ??_C@_0BB@KNKADGPN@setct?9CapReqTBSX?$AA@ 00073f54     libeay32:obj_dat.obj
 0002:0000cf68       ??_C@_0BA@KCAOGCKM@setct?9CapReqTBS?$AA@ 00073f68     libeay32:obj_dat.obj
 0002:0000cf78       ??_C@_0BE@NLJOLEAF@setct?9AuthRevResTBS?$AA@ 00073f78     libeay32:obj_dat.obj
 0002:0000cf8c       ??_C@_0BF@ODDCPHOK@setct?9AuthRevResData?$AA@ 00073f8c     libeay32:obj_dat.obj
 0002:0000cfa4       ??_C@_0BE@KBFOOHGF@setct?9AuthRevReqTBS?$AA@ 00073fa4     libeay32:obj_dat.obj
 0002:0000cfb8       ??_C@_0BF@LAOAGKEH@setct?9AcqCardCodeMsg?$AA@ 00073fb8     libeay32:obj_dat.obj
 0002:0000cfd0       ??_C@_0BC@DEDCIONA@setct?9CapTokenTBS?$AA@ 00073fd0     libeay32:obj_dat.obj
 0002:0000cfe4       ??_C@_0BD@BFGEHNIL@setct?9CapTokenData?$AA@ 00073fe4     libeay32:obj_dat.obj
 0002:0000cff8       ??_C@_0BD@CLPECGHJ@setct?9AuthTokenTBS?$AA@ 00073ff8     libeay32:obj_dat.obj
 0002:0000d00c       ??_C@_0BC@PMEDFACF@setct?9AuthResTBSX?$AA@ 0007400c     libeay32:obj_dat.obj
 0002:0000d020       ??_C@_0BB@JPGIIAJN@setct?9AuthResTBS?$AA@ 00074020     libeay32:obj_dat.obj
 0002:0000d034       ??_C@_0BB@OFKINDPN@setct?9AuthReqTBS?$AA@ 00074034     libeay32:obj_dat.obj
 0002:0000d048       ??_C@_0P@NGDEPBBH@setct?9PResData?$AA@ 00074048     libeay32:obj_dat.obj
 0002:0000d058       ??_C@_0N@GIGHFPBJ@setct?9PI?9TBS?$AA@ 00074058     libeay32:obj_dat.obj
 0002:0000d068       ??_C@_0BD@GIEGHJGD@setct?9PInitResData?$AA@ 00074068     libeay32:obj_dat.obj
 0002:0000d07c       ??_C@_0BC@DDFFKACM@setct?9CapTokenSeq?$AA@ 0007407c     libeay32:obj_dat.obj
 0002:0000d090       ??_C@_0BI@CNLKCNFM@setct?9AuthRevResBaggage?$AA@ 00074090     libeay32:obj_dat.obj
 0002:0000d0a8       ??_C@_0BI@DEMAFNK@setct?9AuthRevReqBaggage?$AA@ 000740a8     libeay32:obj_dat.obj
 0002:0000d0c0       ??_C@_0BF@EFHLGKOJ@setct?9AuthResBaggage?$AA@ 000740c0     libeay32:obj_dat.obj
 0002:0000d0d8       ??_C@_0P@LPBKKIBL@setct?9HODInput?$AA@ 000740d8     libeay32:obj_dat.obj
 0002:0000d0e8       ??_C@_0BF@BDFGFMFJ@setct?9PIDataUnsigned?$AA@ 000740e8     libeay32:obj_dat.obj
 0002:0000d100       ??_C@_0N@PGCGIPOF@setct?9PIData?$AA@ 00074100     libeay32:obj_dat.obj
 0002:0000d110       ??_C@_08MNJJNIEC@setct?9PI?$AA@ 00074110     libeay32:obj_dat.obj
 0002:0000d11c       ??_C@_0N@GHLAGDMC@setct?9OIData?$AA@ 0007411c     libeay32:obj_dat.obj
 0002:0000d12c       ??_C@_0O@PFJCCKAL@setct?9PANOnly?$AA@ 0007412c     libeay32:obj_dat.obj
 0002:0000d13c       ??_C@_0P@LAMDLEMO@setct?9PANToken?$AA@ 0007413c     libeay32:obj_dat.obj
 0002:0000d14c       ??_C@_0O@EKAPGBNN@setct?9PANData?$AA@ 0007414c     libeay32:obj_dat.obj
 0002:0000d15c       ??_C@_09JHODGPNO@set?9brand?$AA@ 0007415c     libeay32:obj_dat.obj
 0002:0000d168       ??_C@_0BH@PDPIEGPA@certificate?5extensions?$AA@ 00074168     libeay32:obj_dat.obj
 0002:0000d180       ??_C@_0M@KEIBDDC@set?9certExt?$AA@ 00074180     libeay32:obj_dat.obj
 0002:0000d18c       ??_C@_0L@LAAAKICM@set?9policy?$AA@ 0007418c     libeay32:obj_dat.obj
 0002:0000d198       ??_C@_08OFDIOKIA@set?9attr?$AA@ 00074198     libeay32:obj_dat.obj
 0002:0000d1a4       ??_C@_0BD@LEIDLLNO@message?5extensions?$AA@ 000741a4     libeay32:obj_dat.obj
 0002:0000d1b8       ??_C@_0L@PKPEIEIJ@set?9msgExt?$AA@ 000741b8     libeay32:obj_dat.obj
 0002:0000d1c4       ??_C@_0O@HJGLMADJ@content?5types?$AA@ 000741c4     libeay32:obj_dat.obj
 0002:0000d1d4       ??_C@_09EJPBIJJA@set?9ctype?$AA@ 000741d4     libeay32:obj_dat.obj
 0002:0000d1e0       ??_C@_0BP@KEIHJPNF@Secure?5Electronic?5Transactions?$AA@ 000741e0     libeay32:obj_dat.obj
 0002:0000d200       ??_C@_06KKEMDFAF@id?9set?$AA@ 00074200     libeay32:obj_dat.obj
 0002:0000d208       ??_C@_09NNMENHIH@pseudonym?$AA@ 00074208     libeay32:obj_dat.obj
 0002:0000d214       ??_C@_0BE@DAEHFOO@generationQualifier?$AA@ 00074214     libeay32:obj_dat.obj
 0002:0000d228       ??_C@_0BJ@KCNAIDP@id?9hex?9multipart?9message?$AA@ 00074228     libeay32:obj_dat.obj
 0002:0000d244       ??_C@_0BH@ILCJEHBB@id?9hex?9partial?9message?$AA@ 00074244     libeay32:obj_dat.obj
 0002:0000d25c       ??_C@_0BA@MOFCNIEE@mime?9mhs?9bodies?$AA@ 0007425c     libeay32:obj_dat.obj
 0002:0000d26c       ??_C@_0BC@NIFMCBEJ@mime?9mhs?9headings?$AA@ 0007426c     libeay32:obj_dat.obj
 0002:0000d280       ??_C@_08DNBACEKK@MIME?5MHS?$AA@ 00074280     libeay32:obj_dat.obj
 0002:0000d28c       ??_C@_08HLONPBDI@mime?9mhs?$AA@ 0007428c     libeay32:obj_dat.obj
 0002:0000d298       ??_C@_0BF@EFCCADKK@x500UniqueIdentifier?$AA@ 00074298     libeay32:obj_dat.obj
 0002:0000d2b0       ??_C@_0BC@KCCHJGGO@documentPublisher?$AA@ 000742b0     libeay32:obj_dat.obj
 0002:0000d2c4       ??_C@_05KNIAAKIP@audio?$AA@ 000742c4     libeay32:obj_dat.obj
 0002:0000d2cc       ??_C@_0M@KIABODOB@dITRedirect?$AA@ 000742cc     libeay32:obj_dat.obj
 0002:0000d2d8       ??_C@_0BC@CBOFINFC@personalSignature?$AA@ 000742d8     libeay32:obj_dat.obj
 0002:0000d2ec       ??_C@_0BG@FLFPEGPE@subtreeMaximumQuality?$AA@ 000742ec     libeay32:obj_dat.obj
 0002:0000d304       ??_C@_0BG@HMOECBMF@subtreeMinimumQuality?$AA@ 00074304     libeay32:obj_dat.obj
 0002:0000d31c       ??_C@_0BD@EHDOPADK@singleLevelQuality?$AA@ 0007431c     libeay32:obj_dat.obj
 0002:0000d330       ??_C@_0L@LMCCHBHL@dSAQuality?$AA@ 00074330     libeay32:obj_dat.obj
 0002:0000d33c       ??_C@_0N@POAALOHC@buildingName?$AA@ 0007433c     libeay32:obj_dat.obj
 0002:0000d34c       ??_C@_0BF@OFOHKDCI@mailPreferenceOption?$AA@ 0007434c     libeay32:obj_dat.obj
 0002:0000d364       ??_C@_0N@DGNBNBGJ@janetMailbox?$AA@ 00074364     libeay32:obj_dat.obj
 0002:0000d374       ??_C@_0BF@IANLBJMF@organizationalStatus?$AA@ 00074374     libeay32:obj_dat.obj
 0002:0000d38c       ??_C@_0BE@MGDAFGCM@friendlyCountryName?$AA@ 0007438c     libeay32:obj_dat.obj
 0002:0000d3a0       ??_C@_0BF@JICDDEFM@pagerTelephoneNumber?$AA@ 000743a0     libeay32:obj_dat.obj
 0002:0000d3b8       ??_C@_0BG@DCPABLLG@mobileTelephoneNumber?$AA@ 000743b8     libeay32:obj_dat.obj
 0002:0000d3d0       ??_C@_0O@CCHLDBGG@personalTitle?$AA@ 000743d0     libeay32:obj_dat.obj
 0002:0000d3e0       ??_C@_0BC@NPJKACJF@homePostalAddress?$AA@ 000743e0     libeay32:obj_dat.obj
 0002:0000d3f4       ??_C@_0P@OJOOFNGB@associatedName?$AA@ 000743f4     libeay32:obj_dat.obj
 0002:0000d404       ??_C@_0BB@MEFMIBKO@associatedDomain?$AA@ 00074404     libeay32:obj_dat.obj
 0002:0000d418       ??_C@_0M@GHEAGPOE@cNAMERecord?$AA@ 00074418     libeay32:obj_dat.obj
 0002:0000d424       ??_C@_09OCFHDJJF@sOARecord?$AA@ 00074424     libeay32:obj_dat.obj
 0002:0000d430       ??_C@_08FBLONLGA@nSRecord?$AA@ 00074430     libeay32:obj_dat.obj
 0002:0000d43c       ??_C@_08DFFJPLPD@mXRecord?$AA@ 0007443c     libeay32:obj_dat.obj
 0002:0000d448       ??_C@_0BF@MIIMJDJB@pilotAttributeType27?$AA@ 00074448     libeay32:obj_dat.obj
 0002:0000d460       ??_C@_07IBNMBOJB@aRecord?$AA@ 00074460     libeay32:obj_dat.obj
 0002:0000d468       ??_C@_0P@ECLEJAJJ@lastModifiedBy?$AA@ 00074468     libeay32:obj_dat.obj
 0002:0000d478       ??_C@_0BB@LHLABCIP@lastModifiedTime?$AA@ 00074478     libeay32:obj_dat.obj
 0002:0000d48c       ??_C@_0N@CEOKELFP@otherMailbox?$AA@ 0007448c     libeay32:obj_dat.obj
 0002:0000d49c       ??_C@_09EMBFDNKC@secretary?$AA@ 0007449c     libeay32:obj_dat.obj
 0002:0000d4a8       ??_C@_0BE@CPLAKLNE@homeTelephoneNumber?$AA@ 000744a8     libeay32:obj_dat.obj
 0002:0000d4bc       ??_C@_0BB@COFKDFJ@documentLocation?$AA@ 000744bc     libeay32:obj_dat.obj
 0002:0000d4d0       ??_C@_0P@DABDJKFB@documentAuthor?$AA@ 000744d0     libeay32:obj_dat.obj
 0002:0000d4e0       ??_C@_0BA@GHOLKFM@documentVersion?$AA@ 000744e0     libeay32:obj_dat.obj
 0002:0000d4f0       ??_C@_0O@BDIDABAC@documentTitle?$AA@ 000744f0     libeay32:obj_dat.obj
 0002:0000d500       ??_C@_0BD@MEPJGCEO@documentIdentifier?$AA@ 00074500     libeay32:obj_dat.obj
 0002:0000d514       ??_C@_07JPLKDPHP@manager?$AA@ 00074514     libeay32:obj_dat.obj
 0002:0000d51c       ??_C@_04OODOLJMA@host?$AA@ 0007451c     libeay32:obj_dat.obj
 0002:0000d524       ??_C@_09CCPGMHEM@userClass?$AA@ 00074524     libeay32:obj_dat.obj
 0002:0000d530       ??_C@_05DOIFDPKA@photo?$AA@ 00074530     libeay32:obj_dat.obj
 0002:0000d538       ??_C@_0L@DGKNANFO@roomNumber?$AA@ 00074538     libeay32:obj_dat.obj
 0002:0000d544       ??_C@_0P@PAMFCEKP@favouriteDrink?$AA@ 00074544     libeay32:obj_dat.obj
 0002:0000d554       ??_C@_04NIDJFNBE@info?$AA@ 00074554     libeay32:obj_dat.obj
 0002:0000d55c       ??_C@_0O@PDNFEOHL@rfc822Mailbox?$AA@ 0007455c     libeay32:obj_dat.obj
 0002:0000d56c       ??_C@_04FFKLPPHM@mail?$AA@ 0007456c     libeay32:obj_dat.obj
 0002:0000d574       ??_C@_0BF@HDIIKJDI@textEncodedORAddress?$AA@ 00074574     libeay32:obj_dat.obj
 0002:0000d58c       ??_C@_06LPELCIKE@userId?$AA@ 0007458c     libeay32:obj_dat.obj
 0002:0000d594       ??_C@_03MJDGODDN@UID?$AA@  00074594     libeay32:obj_dat.obj
 0002:0000d598       ??_C@_0BE@DDFOMMI@qualityLabelledData?$AA@ 00074598     libeay32:obj_dat.obj
 0002:0000d5ac       ??_C@_08MPJGPMC@pilotDSA?$AA@ 000745ac     libeay32:obj_dat.obj
 0002:0000d5b8       ??_C@_0BC@PLDKCMI@pilotOrganization?$AA@ 000745b8     libeay32:obj_dat.obj
 0002:0000d5cc       ??_C@_0BF@CONLNHDI@simpleSecurityObject?$AA@ 000745cc     libeay32:obj_dat.obj
 0002:0000d5e4       ??_C@_0BA@LKHIAMBK@friendlyCountry?$AA@ 000745e4     libeay32:obj_dat.obj
 0002:0000d5f4       ??_C@_0BE@OPAPHNCO@domainRelatedObject?$AA@ 000745f4     libeay32:obj_dat.obj
 0002:0000d608       ??_C@_09BOCGGGMK@dNSDomain?$AA@ 00074608     libeay32:obj_dat.obj
 0002:0000d614       ??_C@_0BA@KIAIOBLD@rFC822localPart?$AA@ 00074614     libeay32:obj_dat.obj
 0002:0000d624       ??_C@_0P@OAPEDDHP@documentSeries?$AA@ 00074624     libeay32:obj_dat.obj
 0002:0000d634       ??_C@_04EKFCMFOP@room?$AA@ 00074634     libeay32:obj_dat.obj
 0002:0000d63c       ??_C@_08JEEDKNPB@document?$AA@ 0007463c     libeay32:obj_dat.obj
 0002:0000d648       ??_C@_07PMDLEBNF@account?$AA@ 00074648     libeay32:obj_dat.obj
 0002:0000d650       ??_C@_0M@NCGDCEIP@pilotPerson?$AA@ 00074650     libeay32:obj_dat.obj
 0002:0000d65c       ??_C@_0M@MCCFCPKP@pilotObject?$AA@ 0007465c     libeay32:obj_dat.obj
 0002:0000d668       ??_C@_0BK@LELMGJGD@caseIgnoreIA5StringSyntax?$AA@ 00074668     libeay32:obj_dat.obj
 0002:0000d684       ??_C@_0BA@KPIIGILK@iA5StringSyntax?$AA@ 00074684     libeay32:obj_dat.obj
 0002:0000d694       ??_C@_0M@DLMEDAFC@pilotGroups?$AA@ 00074694     libeay32:obj_dat.obj
 0002:0000d6a0       ??_C@_0BB@MJFNAIDM@pilotObjectClass?$AA@ 000746a0     libeay32:obj_dat.obj
 0002:0000d6b4       ??_C@_0BF@CDEFHHCF@pilotAttributeSyntax?$AA@ 000746b4     libeay32:obj_dat.obj
 0002:0000d6cc       ??_C@_0BD@NEGIHOAI@pilotAttributeType?$AA@ 000746cc     libeay32:obj_dat.obj
 0002:0000d6e0       ??_C@_05KIBFDOPF@pilot?$AA@ 000746e0     libeay32:obj_dat.obj
 0002:0000d6e8       ??_C@_03BIDCBJP@ucl?$AA@   000746e8     libeay32:obj_dat.obj
 0002:0000d6ec       ??_C@_04PJOLNDGD@data?$AA@ 000746ec     libeay32:obj_dat.obj
 0002:0000d6f4       ??_C@_0BI@EEABHGCD@Hold?5Instruction?5Reject?$AA@ 000746f4     libeay32:obj_dat.obj
 0002:0000d70c       ??_C@_0BG@BDAACIJE@holdInstructionReject?$AA@ 0007470c     libeay32:obj_dat.obj
 0002:0000d724       ??_C@_0BN@IJKNPIFC@Hold?5Instruction?5Call?5Issuer?$AA@ 00074724     libeay32:obj_dat.obj
 0002:0000d744       ??_C@_0BK@ENEKHHMB@holdInstructionCallIssuer?$AA@ 00074744     libeay32:obj_dat.obj
 0002:0000d760       ??_C@_0BG@ECBIHNGK@Hold?5Instruction?5None?$AA@ 00074760     libeay32:obj_dat.obj
 0002:0000d778       ??_C@_0BE@KPEIPHPJ@holdInstructionNone?$AA@ 00074778     libeay32:obj_dat.obj
 0002:0000d78c       ??_C@_0BG@LHBPDMAN@Hold?5Instruction?5Code?$AA@ 0007478c     libeay32:obj_dat.obj
 0002:0000d7a4       ??_C@_0BE@FKEPLGJO@holdInstructionCode?$AA@ 000747a4     libeay32:obj_dat.obj
 0002:0000d7b8       ??_C@_0M@JMFNEPEI@aes?9256?9cfb?$AA@ 000747b8     libeay32:obj_dat.obj
 0002:0000d7c4       ??_C@_0M@EAFGNFML@AES?9256?9CFB?$AA@ 000747c4     libeay32:obj_dat.obj
 0002:0000d7d0       ??_C@_0M@NGILPAPA@aes?9256?9ofb?$AA@ 000747d0     libeay32:obj_dat.obj
 0002:0000d7dc       ??_C@_0M@KIAGKHD@AES?9256?9OFB?$AA@ 000747dc     libeay32:obj_dat.obj
 0002:0000d7e8       ??_C@_0M@ICEPNGNF@aes?9256?9cbc?$AA@ 000747e8     libeay32:obj_dat.obj
 0002:0000d7f4       ??_C@_0M@FOEEEMFG@AES?9256?9CBC?$AA@ 000747f4     libeay32:obj_dat.obj
 0002:0000d800       ??_C@_0M@LPPNNCHP@aes?9256?9ecb?$AA@ 00074800     libeay32:obj_dat.obj
 0002:0000d80c       ??_C@_0M@GDPGEIPM@AES?9256?9ECB?$AA@ 0007480c     libeay32:obj_dat.obj
 0002:0000d818       ??_C@_0M@EOODGAMJ@aes?9192?9cfb?$AA@ 00074818     libeay32:obj_dat.obj
 0002:0000d824       ??_C@_0M@JCOIPKEK@AES?9192?9CFB?$AA@ 00074824     libeay32:obj_dat.obj
 0002:0000d830       ??_C@_0M@EDFNPHB@aes?9192?9ofb?$AA@ 00074830     libeay32:obj_dat.obj
 0002:0000d83c       ??_C@_0M@NIDOEFPC@AES?9192?9OFB?$AA@ 0007483c     libeay32:obj_dat.obj
 0002:0000d848       ??_C@_0M@FAPBPJFE@aes?9192?9cbc?$AA@ 00074848     libeay32:obj_dat.obj
 0002:0000d854       ??_C@_0M@IMPKGDNH@AES?9192?9CBC?$AA@ 00074854     libeay32:obj_dat.obj
 0002:0000d860       ??_C@_0M@GNEDPNPO@aes?9192?9ecb?$AA@ 00074860     libeay32:obj_dat.obj
 0002:0000d86c       ??_C@_0M@LBEIGHHN@AES?9192?9ECB?$AA@ 0007486c     libeay32:obj_dat.obj
 0002:0000d878       ??_C@_0M@ONHPBHFF@aes?9128?9cfb?$AA@ 00074878     libeay32:obj_dat.obj
 0002:0000d884       ??_C@_0M@DBHEINNG@AES?9128?9CFB?$AA@ 00074884     libeay32:obj_dat.obj
 0002:0000d890       ??_C@_0M@KHKJKION@aes?9128?9ofb?$AA@ 00074890     libeay32:obj_dat.obj
 0002:0000d89c       ??_C@_0M@HLKCDCGO@AES?9128?9OFB?$AA@ 0007489c     libeay32:obj_dat.obj
 0002:0000d8a8       ??_C@_0M@PDGNIOMI@aes?9128?9cbc?$AA@ 000748a8     libeay32:obj_dat.obj
 0002:0000d8b4       ??_C@_0M@CPGGBEEL@AES?9128?9CBC?$AA@ 000748b4     libeay32:obj_dat.obj
 0002:0000d8c0       ??_C@_0M@MONPIKGC@aes?9128?9ecb?$AA@ 000748c0     libeay32:obj_dat.obj
 0002:0000d8cc       ??_C@_0M@BCNEBAOB@AES?9128?9ECB?$AA@ 000748cc     libeay32:obj_dat.obj
 0002:0000d8d8       ??_C@_0BD@HDEEGCLB@Microsoft?5CSP?5Name?$AA@ 000748d8     libeay32:obj_dat.obj
 0002:0000d8ec       ??_C@_07BPKAKPJK@CSPName?$AA@ 000748ec     libeay32:obj_dat.obj
 0002:0000d8f4       ??_C@_0BA@DGJNDOPM@ecdsa?9with?9SHA1?$AA@ 000748f4     libeay32:obj_dat.obj
 0002:0000d904       ??_C@_0L@JJFEINOP@prime256v1?$AA@ 00074904     libeay32:obj_dat.obj
 0002:0000d910       ??_C@_0L@HMEBAKJL@prime239v3?$AA@ 00074910     libeay32:obj_dat.obj
 0002:0000d91c       ??_C@_0L@GFFKDLNK@prime239v2?$AA@ 0007491c     libeay32:obj_dat.obj
 0002:0000d928       ??_C@_0L@EOHHGIBJ@prime239v1?$AA@ 00074928     libeay32:obj_dat.obj
 0002:0000d934       ??_C@_0L@GHGEOHJF@prime192v3?$AA@ 00074934     libeay32:obj_dat.obj
 0002:0000d940       ??_C@_0L@HOHPNGNE@prime192v2?$AA@ 00074940     libeay32:obj_dat.obj
 0002:0000d94c       ??_C@_0L@FFFCIFBH@prime192v1?$AA@ 0007494c     libeay32:obj_dat.obj
 0002:0000d958       ??_C@_0P@NEOBKIMO@id?9ecPublicKey?$AA@ 00074958     libeay32:obj_dat.obj
 0002:0000d968       ??_C@_0BJ@HECCMKCN@characteristic?9two?9field?$AA@ 00074968     libeay32:obj_dat.obj
 0002:0000d984       ??_C@_0M@LGLKIODB@prime?9field?$AA@ 00074984     libeay32:obj_dat.obj
 0002:0000d990       ??_C@_0L@HAOKGHPF@ANSI?5X9?462?$AA@ 00074990     libeay32:obj_dat.obj
 0002:0000d99c       ??_C@_0L@LBMOMFCJ@ansi?9X9?962?$AA@ 0007499c     libeay32:obj_dat.obj
 0002:0000d9a8       ??_C@_0BP@DEKFNCEH@X509v3?5No?5Revocation?5Available?$AA@ 000749a8     libeay32:obj_dat.obj
 0002:0000d9c8       ??_C@_0L@ECGDAGCK@noRevAvail?$AA@ 000749c8     libeay32:obj_dat.obj
 0002:0000d9d4       ??_C@_0BE@IECCFFCH@X509v3?5AC?5Targeting?$AA@ 000749d4     libeay32:obj_dat.obj
 0002:0000d9e8       ??_C@_0BC@JINDJNPM@targetInformation?$AA@ 000749e8     libeay32:obj_dat.obj
 0002:0000d9fc       ??_C@_0BK@DNMBLGM@X509v3?5Policy?5Constraints?$AA@ 000749fc     libeay32:obj_dat.obj
 0002:0000da18       ??_C@_0BC@IJLMCBHD@policyConstraints?$AA@ 00074a18     libeay32:obj_dat.obj
 0002:0000da2c       ??_C@_04IAMNPBLO@role?$AA@ 00074a2c     libeay32:obj_dat.obj
 0002:0000da34       ??_C@_0BA@PEFFHNFH@id?9aca?9encAttrs?$AA@ 00074a34     libeay32:obj_dat.obj
 0002:0000da44       ??_C@_0BL@OMFIOBLF@Subject?5Information?5Access?$AA@ 00074a44     libeay32:obj_dat.obj
 0002:0000da60       ??_C@_0BC@IEIBIKBA@subjectInfoAccess?$AA@ 00074a60     libeay32:obj_dat.obj
 0002:0000da74       ??_C@_0M@BKAIKGEL@ac?9proxying?$AA@ 00074a74     libeay32:obj_dat.obj
 0002:0000da80       ??_C@_0BF@JDOFKNPK@md4WithRSAEncryption?$AA@ 00074a80     libeay32:obj_dat.obj
 0002:0000da98       ??_C@_07MHHBEDHA@RSA?9MD4?$AA@ 00074a98     libeay32:obj_dat.obj
 0002:0000daa0       ??_C@_09ECGCCLFI@clearance?$AA@ 00074aa0     libeay32:obj_dat.obj
 0002:0000daac       ??_C@_0BJ@MAOJIBHF@Selected?5Attribute?5Types?$AA@ 00074aac     libeay32:obj_dat.obj
 0002:0000dac8       ??_C@_0BJ@BDDNHDDA@selected?9attribute?9types?$AA@ 00074ac8     libeay32:obj_dat.obj
 0002:0000dae4       ??_C@_04HIBGFPH@NULL?$AA@  00074ae4     libeay32:obj_dat.obj
 0002:0000daec       ??_C@_06HFDFFJHI@Domain?$AA@ 00074aec     libeay32:obj_dat.obj
 0002:0000daf4       ??_C@_06LKIIGAOE@domain?$AA@ 00074af4     libeay32:obj_dat.obj
 0002:0000dafc       ??_C@_0BA@DMAKFKAH@domainComponent?$AA@ 00074afc     libeay32:obj_dat.obj
 0002:0000db0c       ??_C@_02KMHJBPDH@DC?$AA@   00074b0c     libeay32:obj_dat.obj
 0002:0000db10       ??_C@_08GPNKJGDG@dcObject?$AA@ 00074b10     libeay32:obj_dat.obj
 0002:0000db1c       ??_C@_08KAGHKPKK@dcobject?$AA@ 00074b1c     libeay32:obj_dat.obj
 0002:0000db28       ??_C@_0M@CEEPHGPL@Enterprises?$AA@ 00074b28     libeay32:obj_dat.obj
 0002:0000db34       ??_C@_0M@DMHOKNAD@enterprises?$AA@ 00074b34     libeay32:obj_dat.obj
 0002:0000db40       ??_C@_04JEGKNAHI@Mail?$AA@ 00074b40     libeay32:obj_dat.obj
 0002:0000db48       ??_C@_06JDJOGLHO@SNMPv2?$AA@ 00074b48     libeay32:obj_dat.obj
 0002:0000db50       ??_C@_06DKHMNHOO@snmpv2?$AA@ 00074b50     libeay32:obj_dat.obj
 0002:0000db58       ??_C@_08EDKKPLCC@Security?$AA@ 00074b58     libeay32:obj_dat.obj
 0002:0000db64       ??_C@_08MBFLHJIB@security?$AA@ 00074b64     libeay32:obj_dat.obj
 0002:0000db70       ??_C@_07CFINJGKH@Private?$AA@ 00074b70     libeay32:obj_dat.obj
 0002:0000db78       ??_C@_07NMPLPEPB@private?$AA@ 00074b78     libeay32:obj_dat.obj
 0002:0000db80       ??_C@_0N@FKCIGJFM@Experimental?$AA@ 00074b80     libeay32:obj_dat.obj
 0002:0000db90       ??_C@_0N@OJFGCCKJ@experimental?$AA@ 00074b90     libeay32:obj_dat.obj
 0002:0000dba0       ??_C@_0L@ENAJINDB@Management?$AA@ 00074ba0     libeay32:obj_dat.obj
 0002:0000dbac       ??_C@_04PFNCJACF@mgmt?$AA@ 00074bac     libeay32:obj_dat.obj
 0002:0000dbb4       ??_C@_09EOAFACM@Directory?$AA@ 00074bb4     libeay32:obj_dat.obj
 0002:0000dbc0       ??_C@_09ELLNFDPM@directory?$AA@ 00074bc0     libeay32:obj_dat.obj
 0002:0000dbcc       ??_C@_04BAMKDBHE@iana?$AA@ 00074bcc     libeay32:obj_dat.obj
 0002:0000dbd4       ??_C@_04NMPANDAM@IANA?$AA@ 00074bd4     libeay32:obj_dat.obj
 0002:0000dbdc       ??_C@_03CIOFGCAJ@dod?$AA@  00074bdc     libeay32:obj_dat.obj
 0002:0000dbe0       ??_C@_03CFBOKPHF@DOD?$AA@  00074be0     libeay32:obj_dat.obj
 0002:0000dbe4       ??_C@_03MADHIGOI@org?$AA@  00074be4     libeay32:obj_dat.obj
 0002:0000dbe8       ??_C@_03MNMMELJE@ORG?$AA@  00074be8     libeay32:obj_dat.obj
 0002:0000dbec       ??_C@_0CA@FIOIBJEO@directory?5services?5?9?5algorithms?$AA@ 00074bec     libeay32:obj_dat.obj
 0002:0000dc0c       ??_C@_0P@NMIAKCBG@X500algorithms?$AA@ 00074c0c     libeay32:obj_dat.obj
 0002:0000dc1c       ??_C@_0N@JHANBHGC@rsaSignature?$AA@ 00074c1c     libeay32:obj_dat.obj
 0002:0000dc2c       ??_C@_09JPNFBOJG@algorithm?$AA@ 00074c2c     libeay32:obj_dat.obj
 0002:0000dc38       ??_C@_0L@INBPOG@Trust?5Root?$AA@ 00074c38     libeay32:obj_dat.obj
 0002:0000dc44       ??_C@_09LNEPAILM@trustRoot?$AA@ 00074c44     libeay32:obj_dat.obj
 0002:0000dc50       ??_C@_04LNEJFJGI@path?$AA@ 00074c50     libeay32:obj_dat.obj
 0002:0000dc58       ??_C@_05HDPIMK@valid?$AA@  00074c58     libeay32:obj_dat.obj
 0002:0000dc60       ??_C@_0BF@MPEDLKDP@Extended?5OCSP?5Status?$AA@ 00074c60     libeay32:obj_dat.obj
 0002:0000dc78       ??_C@_0P@EGENIBNC@extendedStatus?$AA@ 00074c78     libeay32:obj_dat.obj
 0002:0000dc88       ??_C@_0BF@CEIKAD@OCSP?5Service?5Locator?$AA@ 00074c88     libeay32:obj_dat.obj
 0002:0000dca0       ??_C@_0P@LCDAPLHC@serviceLocator?$AA@ 00074ca0     libeay32:obj_dat.obj
 0002:0000dcb0       ??_C@_0BE@JAFPABJB@OCSP?5Archive?5Cutoff?$AA@ 00074cb0     libeay32:obj_dat.obj
 0002:0000dcc4       ??_C@_0O@FIEDPKGI@archiveCutoff?$AA@ 00074cc4     libeay32:obj_dat.obj
 0002:0000dcd4       ??_C@_0O@HFOALJCG@OCSP?5No?5Check?$AA@ 00074cd4     libeay32:obj_dat.obj
 0002:0000dce4       ??_C@_07MCKMCKHJ@noCheck?$AA@ 00074ce4     libeay32:obj_dat.obj
 0002:0000dcec       ??_C@_0BK@JKKLNLEI@Acceptable?5OCSP?5Responses?$AA@ 00074cec     libeay32:obj_dat.obj
 0002:0000dd08       ??_C@_0BE@FBPDIHIK@acceptableResponses?$AA@ 00074d08     libeay32:obj_dat.obj
 0002:0000dd1c       ??_C@_0M@LCLKJALE@OCSP?5CRL?5ID?$AA@ 00074d1c     libeay32:obj_dat.obj
 0002:0000dd28       ??_C@_05NOENOBME@CrlID?$AA@ 00074d28     libeay32:obj_dat.obj
 0002:0000dd30       ??_C@_0L@NCNDEJFL@OCSP?5Nonce?$AA@ 00074d30     libeay32:obj_dat.obj
 0002:0000dd3c       ??_C@_05OJOPLPHH@Nonce?$AA@ 00074d3c     libeay32:obj_dat.obj
 0002:0000dd44       ??_C@_0BE@ONEEPEOL@Basic?5OCSP?5Response?$AA@ 00074d44     libeay32:obj_dat.obj
 0002:0000dd58       ??_C@_0BC@KFAFMFFF@basicOCSPResponse?$AA@ 00074d58     libeay32:obj_dat.obj
 0002:0000dd6c       ??_C@_07JCKMJMPC@ad?5dvcs?$AA@ 00074d6c     libeay32:obj_dat.obj
 0002:0000dd74       ??_C@_07JCCJJKFE@AD_DVCS?$AA@ 00074d74     libeay32:obj_dat.obj
 0002:0000dd7c       ??_C@_0BB@NMPPBOGK@AD?5Time?5Stamping?$AA@ 00074d7c     libeay32:obj_dat.obj
 0002:0000dd90       ??_C@_0BA@PBBONLHE@ad_timestamping?$AA@ 00074d90     libeay32:obj_dat.obj
 0002:0000dda0       ??_C@_0BD@DDALHPCH@id?9cct?9PKIResponse?$AA@ 00074da0     libeay32:obj_dat.obj
 0002:0000ddb4       ??_C@_0P@FNCPPGJO@id?9cct?9PKIData?$AA@ 00074db4     libeay32:obj_dat.obj
 0002:0000ddc4       ??_C@_0L@CDHPLMPE@id?9cct?9crs?$AA@ 00074dc4     libeay32:obj_dat.obj
 0002:0000ddd0       ??_C@_0BH@DJONLBHI@id?9qcs?9pkixQCSyntax?9v1?$AA@ 00074dd0     libeay32:obj_dat.obj
 0002:0000dde8       ??_C@_0M@FBOAJIIJ@id?9aca?9role?$AA@ 00074de8     libeay32:obj_dat.obj
 0002:0000ddf4       ??_C@_0N@HOPCGOGP@id?9aca?9group?$AA@ 00074df4     libeay32:obj_dat.obj
 0002:0000de04       ??_C@_0BI@IDHFJBKH@id?9aca?9chargingIdentity?$AA@ 00074e04     libeay32:obj_dat.obj
 0002:0000de1c       ??_C@_0BG@GFJCFEAI@id?9aca?9accessIdentity?$AA@ 00074e1c     libeay32:obj_dat.obj
 0002:0000de34       ??_C@_0BK@OFEDAOCA@id?9aca?9authenticationInfo?$AA@ 00074e34     libeay32:obj_dat.obj
 0002:0000de50       ??_C@_0BK@BJMNIGCJ@id?9pda?9countryOfResidence?$AA@ 00074e50     libeay32:obj_dat.obj
 0002:0000de6c       ??_C@_0BM@KMGEGNAB@id?9pda?9countryOfCitizenship?$AA@ 00074e6c     libeay32:obj_dat.obj
 0002:0000de88       ??_C@_0O@JMCFNPFD@id?9pda?9gender?$AA@ 00074e88     libeay32:obj_dat.obj
 0002:0000de98       ??_C@_0BE@NIFFDBPJ@id?9pda?9placeOfBirth?$AA@ 00074e98     libeay32:obj_dat.obj
 0002:0000deac       ??_C@_0BD@BADJMIPF@id?9pda?9dateOfBirth?$AA@ 00074eac     libeay32:obj_dat.obj
 0002:0000dec0       ??_C@_0BD@IGLADCFL@id?9on?9personalData?$AA@ 00074ec0     libeay32:obj_dat.obj
 0002:0000ded4       ??_C@_0BN@MIGHDJON@id?9cmc?9confirmCertAcceptance?$AA@ 00074ed4     libeay32:obj_dat.obj
 0002:0000def4       ??_C@_0BG@EEIJMDPB@id?9cmc?9popLinkWitness?$AA@ 00074ef4     libeay32:obj_dat.obj
 0002:0000df0c       ??_C@_0BF@GGLCNKGO@id?9cmc?9popLinkRandom?$AA@ 00074f0c     libeay32:obj_dat.obj
 0002:0000df24       ??_C@_0BE@JKLJLIIH@id?9cmc?9queryPending?$AA@ 00074f24     libeay32:obj_dat.obj
 0002:0000df38       ??_C@_0BE@CKMFMMDP@id?9cmc?9responseInfo?$AA@ 00074f38     libeay32:obj_dat.obj
 0002:0000df4c       ??_C@_0P@PCIOIKNC@id?9cmc?9regInfo?$AA@ 00074f4c     libeay32:obj_dat.obj
 0002:0000df5c       ??_C@_0BF@BOEAJJNI@id?9cmc?9revokeRequest?$AA@ 00074f5c     libeay32:obj_dat.obj
 0002:0000df74       ??_C@_0O@OIGIOBJ@id?9cmc?9getCRL?$AA@ 00074f74     libeay32:obj_dat.obj
 0002:0000df84       ??_C@_0P@GMDPJKDO@id?9cmc?9getCert?$AA@ 00074f84     libeay32:obj_dat.obj
 0002:0000df94       ??_C@_0BF@BMODAINP@id?9cmc?9lraPOPWitness?$AA@ 00074f94     libeay32:obj_dat.obj
 0002:0000dfac       ??_C@_0BE@KBIPLENG@id?9cmc?9decryptedPOP?$AA@ 00074fac     libeay32:obj_dat.obj
 0002:0000dfc0       ??_C@_0BE@NILMJFN@id?9cmc?9encryptedPOP?$AA@ 00074fc0     libeay32:obj_dat.obj
 0002:0000dfd4       ??_C@_0BF@HLOCACJF@id?9cmc?9addExtensions?$AA@ 00074fd4     libeay32:obj_dat.obj
 0002:0000dfec       ??_C@_0BG@JLHHNNCH@id?9cmc?9recipientNonce?$AA@ 00074fec     libeay32:obj_dat.obj
 0002:0000e004       ??_C@_0BD@BCMJDDMP@id?9cmc?9senderNonce?$AA@ 00075004     libeay32:obj_dat.obj
 0002:0000e018       ??_C@_0BF@GEJAHBF@id?9cmc?9transactionId?$AA@ 00075018     libeay32:obj_dat.obj
 0002:0000e030       ??_C@_0BC@LLJKCHEN@id?9cmc?9dataReturn?$AA@ 00075030     libeay32:obj_dat.obj
 0002:0000e044       ??_C@_0BF@IDAHNDCK@id?9cmc?9identityProof?$AA@ 00075044     libeay32:obj_dat.obj
 0002:0000e05c       ??_C@_0BG@PPIINOMK@id?9cmc?9identification?$AA@ 0007505c     libeay32:obj_dat.obj
 0002:0000e074       ??_C@_0BC@CMNEPEAI@id?9cmc?9statusInfo?$AA@ 00075074     libeay32:obj_dat.obj
 0002:0000e088       ??_C@_0O@OBGPPBGA@id?9alg?9dh?9pop?$AA@ 00075088     libeay32:obj_dat.obj
 0002:0000e098       ??_C@_0BI@KIODNBCM@id?9alg?9dh?9sig?9hmac?9sha1?$AA@ 00075098     libeay32:obj_dat.obj
 0002:0000e0b0       ??_C@_0BD@LAAJOBHI@id?9alg?9noSignature?$AA@ 000750b0     libeay32:obj_dat.obj
 0002:0000e0c4       ??_C@_0N@KIJONBNA@id?9alg?9des40?$AA@ 000750c4     libeay32:obj_dat.obj
 0002:0000e0d4       ??_C@_0BD@EEAPBNJJ@id?9regInfo?9certReq?$AA@ 000750d4     libeay32:obj_dat.obj
 0002:0000e0e8       ??_C@_0BF@FHFGHAHE@id?9regInfo?9utf8Pairs?$AA@ 000750e8     libeay32:obj_dat.obj
 0002:0000e100       ??_C@_0BL@GHBPLPHM@id?9regCtrl?9protocolEncrKey?$AA@ 00075100     libeay32:obj_dat.obj
 0002:0000e11c       ??_C@_0BF@GFJPNJIG@id?9regCtrl?9oldCertID?$AA@ 0007511c     libeay32:obj_dat.obj
 0002:0000e134       ??_C@_0BN@ONKHMAOP@id?9regCtrl?9pkiArchiveOptions?$AA@ 00075134     libeay32:obj_dat.obj
 0002:0000e154       ??_C@_0BO@GJKPPLPL@id?9regCtrl?9pkiPublicationInfo?$AA@ 00075154     libeay32:obj_dat.obj
 0002:0000e174       ??_C@_0BJ@FBKKLLKP@id?9regCtrl?9authenticator?$AA@ 00075174     libeay32:obj_dat.obj
 0002:0000e190       ??_C@_0BE@JDMKCIPE@id?9regCtrl?9regToken?$AA@ 00075190     libeay32:obj_dat.obj
 0002:0000e1a4       ??_C@_0L@BGHMJHOP@id?9regInfo?$AA@ 000751a4     libeay32:obj_dat.obj
 0002:0000e1b0       ??_C@_0L@FDGKGANK@id?9regCtrl?$AA@ 000751b0     libeay32:obj_dat.obj
 0002:0000e1bc       ??_C@_0BF@CLCJJGFI@id?9it?9origPKIMessage?$AA@ 000751bc     libeay32:obj_dat.obj
 0002:0000e1d4       ??_C@_0BG@KCBHNMIK@id?9it?9confirmWaitTime?$AA@ 000751d4     libeay32:obj_dat.obj
 0002:0000e1ec       ??_C@_0BG@MKDHCJKF@id?9it?9implicitConfirm?$AA@ 000751ec     libeay32:obj_dat.obj
 0002:0000e204       ??_C@_0BE@FOOOCPMH@id?9it?9revPassphrase?$AA@ 00075204     libeay32:obj_dat.obj
 0002:0000e218       ??_C@_0BG@KPIIFBLH@id?9it?9keyPairParamRep?$AA@ 00075218     libeay32:obj_dat.obj
 0002:0000e230       ??_C@_0BG@LGJDGAPG@id?9it?9keyPairParamReq?$AA@ 00075230     libeay32:obj_dat.obj
 0002:0000e248       ??_C@_0BL@HBPHBFLO@id?9it?9subscriptionResponse?$AA@ 00075248     libeay32:obj_dat.obj
 0002:0000e264       ??_C@_0BK@MKGCMKGI@id?9it?9subscriptionRequest?$AA@ 00075264     libeay32:obj_dat.obj
 0002:0000e280       ??_C@_0BG@BPLKDJPD@id?9it?9unsupportedOIDs?$AA@ 00075280     libeay32:obj_dat.obj
 0002:0000e298       ??_C@_0BB@NHKBGJFG@id?9it?9currentCRL?$AA@ 00075298     libeay32:obj_dat.obj
 0002:0000e2ac       ??_C@_0BG@OAKEHPLC@id?9it?9caKeyUpdateInfo?$AA@ 000752ac     libeay32:obj_dat.obj
 0002:0000e2c4       ??_C@_0BH@JFBOPDCH@id?9it?9preferredSymmAlg?$AA@ 000752c4     libeay32:obj_dat.obj
 0002:0000e2dc       ??_C@_0BG@FKIDIODL@id?9it?9encKeyPairTypes?$AA@ 000752dc     libeay32:obj_dat.obj
 0002:0000e2f4       ??_C@_0BH@POCENFBA@id?9it?9signKeyPairTypes?$AA@ 000752f4     libeay32:obj_dat.obj
 0002:0000e30c       ??_C@_0BE@GJACIPND@id?9it?9caProtEncCert?$AA@ 0007530c     libeay32:obj_dat.obj
 0002:0000e320       ??_C@_04FFLIHJGD@dvcs?$AA@ 00075320     libeay32:obj_dat.obj
 0002:0000e328       ??_C@_04JJICJLBL@DVCS?$AA@ 00075328     libeay32:obj_dat.obj
 0002:0000e330       ??_C@_0L@DECDDCGF@IPSec?5User?$AA@ 00075330     libeay32:obj_dat.obj
 0002:0000e33c       ??_C@_09GOHJKOFF@ipsecUser?$AA@ 0007533c     libeay32:obj_dat.obj
 0002:0000e348       ??_C@_0N@EKDIOGLO@IPSec?5Tunnel?$AA@ 00075348     libeay32:obj_dat.obj
 0002:0000e358       ??_C@_0M@GMMHFFHI@ipsecTunnel?$AA@ 00075358     libeay32:obj_dat.obj
 0002:0000e364       ??_C@_0BB@JEJDAICO@IPSec?5End?5System?$AA@ 00075364     libeay32:obj_dat.obj
 0002:0000e378       ??_C@_0P@MKBFMAPP@ipsecEndSystem?$AA@ 00075378     libeay32:obj_dat.obj
 0002:0000e388       ??_C@_0L@HLNNPJEH@textNotice?$AA@ 00075388     libeay32:obj_dat.obj
 0002:0000e394       ??_C@_0BG@JCJJBMAI@sbgp?9routerIdentifier?$AA@ 00075394     libeay32:obj_dat.obj
 0002:0000e3ac       ??_C@_0BG@OJEHJDKA@sbgp?9autonomousSysNum?$AA@ 000753ac     libeay32:obj_dat.obj
 0002:0000e3c4       ??_C@_0BB@NNCKCHBC@sbgp?9ipAddrBlock?$AA@ 000753c4     libeay32:obj_dat.obj
 0002:0000e3d8       ??_C@_0L@DLGBNBJE@aaControls?$AA@ 000753d8     libeay32:obj_dat.obj
 0002:0000e3e4       ??_C@_0N@FPEEOJCI@ac?9targeting?$AA@ 000753e4     libeay32:obj_dat.obj
 0002:0000e3f4       ??_C@_0P@CIOHPJGC@ac?9auditEntity?$AA@ 000753f4     libeay32:obj_dat.obj
 0002:0000e404       ??_C@_0N@FPMNLLM@qcStatements?$AA@ 00075404     libeay32:obj_dat.obj
 0002:0000e414       ??_C@_0P@KFKDECPH@Biometric?5Info?$AA@ 00075414     libeay32:obj_dat.obj
 0002:0000e424       ??_C@_0O@MPIIPAHM@biometricInfo?$AA@ 00075424     libeay32:obj_dat.obj
 0002:0000e434       ??_C@_0P@MMOAAMFD@id?9mod?9cmp2000?$AA@ 00075434     libeay32:obj_dat.obj
 0002:0000e444       ??_C@_0M@GHDGNJKI@id?9mod?9dvcs?$AA@ 00075444     libeay32:obj_dat.obj
 0002:0000e450       ??_C@_0M@EACKLPKH@id?9mod?9ocsp?$AA@ 00075450     libeay32:obj_dat.obj
 0002:0000e45c       ??_C@_0BK@GAJOODEK@id?9mod?9timestamp?9protocol?$AA@ 0007545c     libeay32:obj_dat.obj
 0002:0000e478       ??_C@_0BG@EPPFBJNH@id?9mod?9attribute?9cert?$AA@ 00075478     libeay32:obj_dat.obj
 0002:0000e490       ??_C@_0BJ@IGODAJIK@id?9mod?9qualified?9cert?993?$AA@ 00075490     libeay32:obj_dat.obj
 0002:0000e4ac       ??_C@_0BJ@GENFLKHG@id?9mod?9qualified?9cert?988?$AA@ 000754ac     libeay32:obj_dat.obj
 0002:0000e4c8       ??_C@_0L@MONEHBKH@id?9mod?9cmp?$AA@ 000754c8     libeay32:obj_dat.obj
 0002:0000e4d4       ??_C@_0BG@NAFGGBFM@id?9mod?9kea?9profile?993?$AA@ 000754d4     libeay32:obj_dat.obj
 0002:0000e4ec       ??_C@_0BG@DCGANCKA@id?9mod?9kea?9profile?988?$AA@ 000754ec     libeay32:obj_dat.obj
 0002:0000e504       ??_C@_0L@KPDLDADF@id?9mod?9cmc?$AA@ 00075504     libeay32:obj_dat.obj
 0002:0000e510       ??_C@_0M@GHFPFJPB@id?9mod?9crmf?$AA@ 00075510     libeay32:obj_dat.obj
 0002:0000e51c       ??_C@_0BF@EOKAKKIK@id?9pkix1?9implicit?993?$AA@ 0007551c     libeay32:obj_dat.obj
 0002:0000e534       ??_C@_0BF@JEALIPIC@id?9pkix1?9explicit?993?$AA@ 00075534     libeay32:obj_dat.obj
 0002:0000e54c       ??_C@_0BF@KMJGBJHG@id?9pkix1?9implicit?988?$AA@ 0007554c     libeay32:obj_dat.obj
 0002:0000e564       ??_C@_0BF@HGDNDMHO@id?9pkix1?9explicit?988?$AA@ 00075564     libeay32:obj_dat.obj
 0002:0000e57c       ??_C@_06PONIBOCI@id?9cct?$AA@ 0007557c     libeay32:obj_dat.obj
 0002:0000e584       ??_C@_06ELIJBHPL@id?9qcs?$AA@ 00075584     libeay32:obj_dat.obj
 0002:0000e58c       ??_C@_06GDGEDALH@id?9aca?$AA@ 0007558c     libeay32:obj_dat.obj
 0002:0000e594       ??_C@_06IOIOBGMI@id?9pda?$AA@ 00075594     libeay32:obj_dat.obj
 0002:0000e59c       ??_C@_05OHNJGMJE@id?9on?$AA@ 0007559c     libeay32:obj_dat.obj
 0002:0000e5a4       ??_C@_06PBMFLHLE@id?9cmc?$AA@ 000755a4     libeay32:obj_dat.obj
 0002:0000e5ac       ??_C@_06DOGCNAAM@id?9alg?$AA@ 000755ac     libeay32:obj_dat.obj
 0002:0000e5b4       ??_C@_07OMHOPMIM@id?9pkip?$AA@ 000755b4     libeay32:obj_dat.obj
 0002:0000e5bc       ??_C@_05FDHJOKPN@id?9it?$AA@ 000755bc     libeay32:obj_dat.obj
 0002:0000e5c4       ??_C@_05EBEMBIDF@id?9qt?$AA@ 000755c4     libeay32:obj_dat.obj
 0002:0000e5cc       ??_C@_0M@FNAFBNKE@id?9pkix?9mod?$AA@ 000755cc     libeay32:obj_dat.obj
 0002:0000e5d8       ??_C@_03ODADJPDG@md4?$AA@  000755d8     libeay32:obj_dat.obj
 0002:0000e5dc       ??_C@_03HLHMHGOI@MD4?$AA@  000755dc     libeay32:obj_dat.obj
 0002:0000e5e0       ??_C@_0CB@MICJDGGH@id?9smime?9cti?9ets?9proofOfCreation@ 000755e0     libeay32:obj_dat.obj
 0002:0000e604       ??_C@_0CB@DDLMHEBC@id?9smime?9cti?9ets?9proofOfApproval@ 00075604     libeay32:obj_dat.obj
 0002:0000e628       ??_C@_0BP@ODCAFFCM@id?9smime?9cti?9ets?9proofOfSender?$AA@ 00075628     libeay32:obj_dat.obj
 0002:0000e648       ??_C@_0CB@ICJGPMEP@id?9smime?9cti?9ets?9proofOfDelivery@ 00075648     libeay32:obj_dat.obj
 0002:0000e66c       ??_C@_0CA@HNGOKBGC@id?9smime?9cti?9ets?9proofOfReceipt?$AA@ 0007566c     libeay32:obj_dat.obj
 0002:0000e68c       ??_C@_0BP@BCHFEGHC@id?9smime?9cti?9ets?9proofOfOrigin?$AA@ 0007568c     libeay32:obj_dat.obj
 0002:0000e6ac       ??_C@_0BN@GPAAHNOH@id?9smime?9spq?9ets?9sqt?9unotice?$AA@ 000756ac     libeay32:obj_dat.obj
 0002:0000e6cc       ??_C@_0BJ@IMNKDGEG@id?9smime?9spq?9ets?9sqt?9uri?$AA@ 000756cc     libeay32:obj_dat.obj
 0002:0000e6e8       ??_C@_0BB@BMOBKAGE@id?9smime?9cd?9ldap?$AA@ 000756e8     libeay32:obj_dat.obj
 0002:0000e6fc       ??_C@_0BI@FIFDKKFJ@id?9smime?9alg?9CMSRC2wrap?$AA@ 000756fc     libeay32:obj_dat.obj
 0002:0000e714       ??_C@_0BJ@FOFHEIDB@id?9smime?9alg?9CMS3DESwrap?$AA@ 00075714     libeay32:obj_dat.obj
 0002:0000e730       ??_C@_0BC@COOODKPD@id?9smime?9alg?9ESDH?$AA@ 00075730     libeay32:obj_dat.obj
 0002:0000e744       ??_C@_0BF@JNCPAJCA@id?9smime?9alg?9RC2wrap?$AA@ 00075744     libeay32:obj_dat.obj
 0002:0000e75c       ??_C@_0BG@HHELPNAK@id?9smime?9alg?93DESwrap?$AA@ 0007575c     libeay32:obj_dat.obj
 0002:0000e774       ??_C@_0BJ@FIJMOHBJ@id?9smime?9alg?9ESDHwithRC2?$AA@ 00075774     libeay32:obj_dat.obj
 0002:0000e790       ??_C@_0BK@JNJOCCCB@id?9smime?9alg?9ESDHwith3DES?$AA@ 00075790     libeay32:obj_dat.obj
 0002:0000e7ac       ??_C@_0BF@KEMAMBKF@id?9smime?9aa?9dvcs?9dvc?$AA@ 000757ac     libeay32:obj_dat.obj
 0002:0000e7c4       ??_C@_0BK@HDBIPLFI@id?9smime?9aa?9signatureType?$AA@ 000757c4     libeay32:obj_dat.obj
 0002:0000e7e0       ??_C@_0CB@BEMKNJGO@id?9smime?9aa?9ets?9archiveTimeStamp@ 000757e0     libeay32:obj_dat.obj
 0002:0000e804       ??_C@_0CB@CJNBPJE@id?9smime?9aa?9ets?9certCRLTimestamp@ 00075804     libeay32:obj_dat.obj
 0002:0000e828       ??_C@_0BN@HGLOGOFI@id?9smime?9aa?9ets?9escTimeStamp?$AA@ 00075828     libeay32:obj_dat.obj
 0002:0000e848       ??_C@_0CB@GOCEFPFO@id?9smime?9aa?9ets?9revocationValues@ 00075848     libeay32:obj_dat.obj
 0002:0000e86c       ??_C@_0BL@IFKOLDIG@id?9smime?9aa?9ets?9certValues?$AA@ 0007586c     libeay32:obj_dat.obj
 0002:0000e888       ??_C@_0BP@BCHJHNFO@id?9smime?9aa?9ets?9RevocationRefs?$AA@ 00075888     libeay32:obj_dat.obj
 0002:0000e8a8       ??_C@_0CA@NKIOCHLG@id?9smime?9aa?9ets?9CertificateRefs?$AA@ 000758a8     libeay32:obj_dat.obj
 0002:0000e8c8       ??_C@_0CB@GHKINGOH@id?9smime?9aa?9ets?9contentTimestamp@ 000758c8     libeay32:obj_dat.obj
 0002:0000e8ec       ??_C@_0BN@JFIFOPBH@id?9smime?9aa?9ets?9otherSigCert?$AA@ 000758ec     libeay32:obj_dat.obj
 0002:0000e90c       ??_C@_0BL@KDJDAGDC@id?9smime?9aa?9ets?9signerAttr?$AA@ 0007590c     libeay32:obj_dat.obj
 0002:0000e928       ??_C@_0BP@EODAELPO@id?9smime?9aa?9ets?9signerLocation?$AA@ 00075928     libeay32:obj_dat.obj
 0002:0000e948       ??_C@_0BP@OLIFPEIM@id?9smime?9aa?9ets?9commitmentType?$AA@ 00075948     libeay32:obj_dat.obj
 0002:0000e968       ??_C@_0BM@GKFMJCFL@id?9smime?9aa?9ets?9sigPolicyId?$AA@ 00075968     libeay32:obj_dat.obj
 0002:0000e984       ??_C@_0BL@DHJOIJNE@id?9smime?9aa?9timeStampToken?$AA@ 00075984     libeay32:obj_dat.obj
 0002:0000e9a0       ??_C@_0BO@CEEOANBD@id?9smime?9aa?9smimeEncryptCerts?$AA@ 000759a0     libeay32:obj_dat.obj
 0002:0000e9c0       ??_C@_0BP@LHGJLGIB@id?9smime?9aa?9signingCertificate?$AA@ 000759c0     libeay32:obj_dat.obj
 0002:0000e9e0       ??_C@_0BK@LAPEFMP@id?9smime?9aa?9encrypKeyPref?$AA@ 000759e0     libeay32:obj_dat.obj
 0002:0000e9fc       ??_C@_0BN@LEFAEFL@id?9smime?9aa?9contentReference?$AA@ 000759fc     libeay32:obj_dat.obj
 0002:0000ea1c       ??_C@_0BN@NFAAOKEA@id?9smime?9aa?9equivalentLabels?$AA@ 00075a1c     libeay32:obj_dat.obj
 0002:0000ea3c       ??_C@_0BF@CFNHFPDB@id?9smime?9aa?9macValue?$AA@ 00075a3c     libeay32:obj_dat.obj
 0002:0000ea54       ??_C@_0BO@KMJGIAMK@id?9smime?9aa?9contentIdentifier?$AA@ 00075a54     libeay32:obj_dat.obj
 0002:0000ea74       ??_C@_0BN@GCCNOJCG@id?9smime?9aa?9encapContentType?$AA@ 00075a74     libeay32:obj_dat.obj
 0002:0000ea94       ??_C@_0BJ@LJLDKMDH@id?9smime?9aa?9msgSigDigest?$AA@ 00075a94     libeay32:obj_dat.obj
 0002:0000eab0       ??_C@_0BI@EMGPJFHB@id?9smime?9aa?9contentHint?$AA@ 00075ab0     libeay32:obj_dat.obj
 0002:0000eac8       ??_C@_0BM@OEKGBMLE@id?9smime?9aa?9mlExpandHistory?$AA@ 00075ac8     libeay32:obj_dat.obj
 0002:0000eae4       ??_C@_0BK@DNJNJILO@id?9smime?9aa?9securityLabel?$AA@ 00075ae4     libeay32:obj_dat.obj
 0002:0000eb00       ??_C@_0BL@LMGNMPFD@id?9smime?9aa?9receiptRequest?$AA@ 00075b00     libeay32:obj_dat.obj
 0002:0000eb1c       ??_C@_0BN@POKJLKJJ@id?9smime?9ct?9DVCSResponseData?$AA@ 00075b1c     libeay32:obj_dat.obj
 0002:0000eb3c       ??_C@_0BM@MFKPCEGN@id?9smime?9ct?9DVCSRequestData?$AA@ 00075b3c     libeay32:obj_dat.obj
 0002:0000eb58       ??_C@_0BI@BGKPNMK@id?9smime?9ct?9contentInfo?$AA@ 00075b58     libeay32:obj_dat.obj
 0002:0000eb70       ??_C@_0BE@FKPPBHI@id?9smime?9ct?9TDTInfo?$AA@ 00075b70     libeay32:obj_dat.obj
 0002:0000eb84       ??_C@_0BE@KHNGFDDI@id?9smime?9ct?9TSTInfo?$AA@ 00075b84     libeay32:obj_dat.obj
 0002:0000eb98       ??_C@_0BI@DBILCLFJ@id?9smime?9ct?9publishCert?$AA@ 00075b98     libeay32:obj_dat.obj
 0002:0000ebb0       ??_C@_0BF@KGEHGOF@id?9smime?9ct?9authData?$AA@ 00075bb0     libeay32:obj_dat.obj
 0002:0000ebc8       ??_C@_0BE@GCHIHBHA@id?9smime?9ct?9receipt?$AA@ 00075bc8     libeay32:obj_dat.obj
 0002:0000ebdc       ??_C@_0BP@CCCOHHAI@id?9smime?9mod?9ets?9eSigPolicy?997?$AA@ 00075bdc     libeay32:obj_dat.obj
 0002:0000ebfc       ??_C@_0BP@KEHEABPA@id?9smime?9mod?9ets?9eSigPolicy?988?$AA@ 00075bfc     libeay32:obj_dat.obj
 0002:0000ec1c       ??_C@_0BP@POGMGJII@id?9smime?9mod?9ets?9eSignature?997?$AA@ 00075c1c     libeay32:obj_dat.obj
 0002:0000ec3c       ??_C@_0BP@HIDGBPHA@id?9smime?9mod?9ets?9eSignature?988?$AA@ 00075c3c     libeay32:obj_dat.obj
 0002:0000ec5c       ??_C@_0BE@PEENABNJ@id?9smime?9mod?9msg?9v3?$AA@ 00075c5c     libeay32:obj_dat.obj
 0002:0000ec70       ??_C@_0BB@LBBEMNBN@id?9smime?9mod?9oid?$AA@ 00075c70     libeay32:obj_dat.obj
 0002:0000ec84       ??_C@_0BB@MKJLIPEJ@id?9smime?9mod?9ess?$AA@ 00075c84     libeay32:obj_dat.obj
 0002:0000ec98       ??_C@_0BB@PJEIFOOP@id?9smime?9mod?9cms?$AA@ 00075c98     libeay32:obj_dat.obj
 0002:0000ecac       ??_C@_0N@CFBKAPGC@id?9smime?9cti?$AA@ 00075cac     libeay32:obj_dat.obj
 0002:0000ecbc       ??_C@_0N@PABBGIHI@id?9smime?9spq?$AA@ 00075cbc     libeay32:obj_dat.obj
 0002:0000eccc       ??_C@_0M@LHBAJBP@id?9smime?9cd?$AA@ 00075ccc     libeay32:obj_dat.obj
 0002:0000ecd8       ??_C@_0N@DKFBIKP@id?9smime?9alg?$AA@ 00075cd8     libeay32:obj_dat.obj
 0002:0000ece8       ??_C@_0M@HFICCJDE@id?9smime?9aa?$AA@ 00075ce8     libeay32:obj_dat.obj
 0002:0000ecf4       ??_C@_0M@EBLDBLEO@id?9smime?9ct?$AA@ 00075cf4     libeay32:obj_dat.obj
 0002:0000ed00       ??_C@_0N@GABIEKIN@id?9smime?9mod?$AA@ 00075d00     libeay32:obj_dat.obj
 0002:0000ed10       ??_C@_06DFGHEKNE@S?1MIME?$AA@ 00075d10     libeay32:obj_dat.obj
 0002:0000ed18       ??_C@_05HHBEAKJJ@SMIME?$AA@ 00075d18     libeay32:obj_dat.obj
 0002:0000ed20       ??_C@_05HGOIFJJD@pkcs5?$AA@ 00075d20     libeay32:obj_dat.obj
 0002:0000ed28       ??_C@_0L@DJCLIPOH@X9?457?5CM?5?$DP?$AA@ 00075d28     libeay32:obj_dat.obj
 0002:0000ed34       ??_C@_04CGFPFLFA@X9cm?$AA@ 00075d34     libeay32:obj_dat.obj
 0002:0000ed3c       ??_C@_05PAJLFBHD@X9?457?$AA@ 00075d3c     libeay32:obj_dat.obj
 0002:0000ed44       ??_C@_05OCCOPOJN@X9?957?$AA@ 00075d44     libeay32:obj_dat.obj
 0002:0000ed4c       ??_C@_0BD@NMCDOJHL@ISO?5US?5Member?5Body?$AA@ 00075d4c     libeay32:obj_dat.obj
 0002:0000ed60       ??_C@_06EKAADAMF@ISO?9US?$AA@ 00075d60     libeay32:obj_dat.obj
 0002:0000ed68       ??_C@_0BA@BGDAEHGF@ISO?5Member?5Body?$AA@ 00075d68     libeay32:obj_dat.obj
 0002:0000ed78       ??_C@_0M@CMICFDOA@member?9body?$AA@ 00075d78     libeay32:obj_dat.obj
 0002:0000ed84       ??_C@_03CMEHDJAL@iso?$AA@  00075d84     libeay32:obj_dat.obj
 0002:0000ed88       ??_C@_03CBLMPEHH@ISO?$AA@  00075d88     libeay32:obj_dat.obj
 0002:0000ed8c       ??_C@_0N@CPJNIPDD@OCSP?5Signing?$AA@ 00075d8c     libeay32:obj_dat.obj
 0002:0000ed9c       ??_C@_0M@HBKJLKNM@OCSPSigning?$AA@ 00075d9c     libeay32:obj_dat.obj
 0002:0000eda8       ??_C@_0L@CABCENFK@CA?5Issuers?$AA@ 00075da8     libeay32:obj_dat.obj
 0002:0000edb4       ??_C@_09GFPECPIH@caIssuers?$AA@ 00075db4     libeay32:obj_dat.obj
 0002:0000edc0       ??_C@_04LOJOPNBE@OCSP?$AA@ 00075dc0     libeay32:obj_dat.obj
 0002:0000edc8       ??_C@_0BN@EILCOJAN@Authority?5Information?5Access?$AA@ 00075dc8     libeay32:obj_dat.obj
 0002:0000ede8       ??_C@_0BE@PLCGCINM@authorityInfoAccess?$AA@ 00075de8     libeay32:obj_dat.obj
 0002:0000edfc       ??_C@_05BHKIKJBE@id?9ad?$AA@ 00075dfc     libeay32:obj_dat.obj
 0002:0000ee04       ??_C@_05BDFHFBBC@id?9pe?$AA@ 00075e04     libeay32:obj_dat.obj
 0002:0000ee0c       ??_C@_0M@DNNLEIMI@dnQualifier?$AA@ 00075e0c     libeay32:obj_dat.obj
 0002:0000ee18       ??_C@_04MEMAJGDJ@name?$AA@ 00075e18     libeay32:obj_dat.obj
 0002:0000ee20       ??_C@_0BC@GLHEKHCC@Extension?5Request?$AA@ 00075e20     libeay32:obj_dat.obj
 0002:0000ee34       ??_C@_06EJACAMDF@extReq?$AA@ 00075e34     libeay32:obj_dat.obj
 0002:0000ee3c       ??_C@_0BM@MEJAMAEO@Microsoft?5Extension?5Request?$AA@ 00075e3c     libeay32:obj_dat.obj
 0002:0000ee58       ??_C@_08HCCJAOPJ@msExtReq?$AA@ 00075e58     libeay32:obj_dat.obj
 0002:0000ee64       ??_C@_0BG@JLHBEJLP@pbeWithSHA1AndDES?9CBC?$AA@ 00075e64     libeay32:obj_dat.obj
 0002:0000ee7c       ??_C@_0N@GOPIPBOD@PBE?9SHA1?9DES?$AA@ 00075e7c     libeay32:obj_dat.obj
 0002:0000ee8c       ??_C@_0BF@CKDLCJKD@pbeWithMD5AndRC2?9CBC?$AA@ 00075e8c     libeay32:obj_dat.obj
 0002:0000eea4       ??_C@_0P@IDPFKEHM@PBE?9MD5?9RC2?964?$AA@ 00075ea4     libeay32:obj_dat.obj
 0002:0000eeb4       ??_C@_0BF@FOKDMACM@pbeWithMD2AndRC2?9CBC?$AA@ 00075eb4     libeay32:obj_dat.obj
 0002:0000eecc       ??_C@_0P@OHJEMJLF@PBE?9MD2?9RC2?964?$AA@ 00075ecc     libeay32:obj_dat.obj
 0002:0000eedc       ??_C@_0BE@CEEFMCAI@S?1MIME?5Capabilities?$AA@ 00075edc     libeay32:obj_dat.obj
 0002:0000eef0       ??_C@_0L@LCBJGKJG@SMIME?9CAPS?$AA@ 00075ef0     libeay32:obj_dat.obj
 0002:0000eefc       ??_C@_0L@CLELMECA@rc2?964?9cbc?$AA@ 00075efc     libeay32:obj_dat.obj
 0002:0000ef08       ??_C@_0L@OPHBIFFL@RC2?964?9CBC?$AA@ 00075f08     libeay32:obj_dat.obj
 0002:0000ef14       ??_C@_0BN@KPMBKEE@Policy?5Qualifier?5User?5Notice?$AA@ 00075f14     libeay32:obj_dat.obj
 0002:0000ef34       ??_C@_0O@CJFHFAHE@id?9qt?9unotice?$AA@ 00075f34     libeay32:obj_dat.obj
 0002:0000ef44       ??_C@_0BF@HPKIKKPI@Policy?5Qualifier?5CPS?$AA@ 00075f44     libeay32:obj_dat.obj
 0002:0000ef5c       ??_C@_09MIPGHKGJ@id?9qt?9cps?$AA@ 00075f5c     libeay32:obj_dat.obj
 0002:0000ef68       ??_C@_0N@KANOAIP@hmacWithSHA1?$AA@ 00075f68     libeay32:obj_dat.obj
 0002:0000ef78       ??_C@_06DEJMPFNK@PBMAC1?$AA@ 00075f78     libeay32:obj_dat.obj
 0002:0000ef80       ??_C@_05EPMADBBF@PBES2?$AA@ 00075f80     libeay32:obj_dat.obj
 0002:0000ef88       ??_C@_07KAOEJCFK@x509Crl?$AA@ 00075f88     libeay32:obj_dat.obj
 0002:0000ef90       ??_C@_0BA@BFAOBDKH@sdsiCertificate?$AA@ 00075f90     libeay32:obj_dat.obj
 0002:0000efa0       ??_C@_0BA@EMOFOCJL@x509Certificate?$AA@ 00075fa0     libeay32:obj_dat.obj
 0002:0000efb0       ??_C@_0L@BCMHPPAO@localKeyID?$AA@ 00075fb0     libeay32:obj_dat.obj
 0002:0000efbc       ??_C@_0N@BGFMPLCM@friendlyName?$AA@ 00075fbc     libeay32:obj_dat.obj
 0002:0000efcc       ??_C@_0BA@KAKLKBBC@safeContentsBag?$AA@ 00075fcc     libeay32:obj_dat.obj
 0002:0000efdc       ??_C@_09DELDBPIE@secretBag?$AA@ 00075fdc     libeay32:obj_dat.obj
 0002:0000efe8       ??_C@_06JAFBIMLO@crlBag?$AA@ 00075fe8     libeay32:obj_dat.obj
 0002:0000eff0       ??_C@_07FDLMCII@certBag?$AA@ 00075ff0     libeay32:obj_dat.obj
 0002:0000eff8       ??_C@_0BE@ELJKIANF@pkcs8ShroudedKeyBag?$AA@ 00075ff8     libeay32:obj_dat.obj
 0002:0000f00c       ??_C@_06BFGNOIAI@keyBag?$AA@ 0007600c     libeay32:obj_dat.obj
 0002:0000f014       ??_C@_0BL@CKNKIMON@pbeWithSHA1And40BitRC2?9CBC?$AA@ 00076014     libeay32:obj_dat.obj
 0002:0000f030       ??_C@_0BA@MNBMNMAN@PBE?9SHA1?9RC2?940?$AA@ 00076030     libeay32:obj_dat.obj
 0002:0000f040       ??_C@_0BM@DOLDINME@pbeWithSHA1And128BitRC2?9CBC?$AA@ 00076040     libeay32:obj_dat.obj
 0002:0000f05c       ??_C@_0BB@FNLJPIMG@PBE?9SHA1?9RC2?9128?$AA@ 0007605c     libeay32:obj_dat.obj
 0002:0000f070       ??_C@_0CB@NCMPKEGH@pbeWithSHA1And2?9KeyTripleDES?9CBC@ 00076070     libeay32:obj_dat.obj
 0002:0000f094       ??_C@_0O@HOHOOIGM@PBE?9SHA1?92DES?$AA@ 00076094     libeay32:obj_dat.obj
 0002:0000f0a4       ??_C@_0CB@FCNCEDP@pbeWithSHA1And3?9KeyTripleDES?9CBC@ 000760a4     libeay32:obj_dat.obj
 0002:0000f0c8       ??_C@_0O@EDBOMBNM@PBE?9SHA1?93DES?$AA@ 000760c8     libeay32:obj_dat.obj
 0002:0000f0d8       ??_C@_0BH@OCAEJMIL@pbeWithSHA1And40BitRC4?$AA@ 000760d8     libeay32:obj_dat.obj
 0002:0000f0f0       ??_C@_0BA@ECFMCJKN@PBE?9SHA1?9RC4?940?$AA@ 000760f0     libeay32:obj_dat.obj
 0002:0000f100       ??_C@_0BI@LBIFCLPB@pbeWithSHA1And128BitRC4?$AA@ 00076100     libeay32:obj_dat.obj
 0002:0000f118       ??_C@_0BB@ILOABLNL@PBE?9SHA1?9RC4?9128?$AA@ 00076118     libeay32:obj_dat.obj
 0002:0000f12c       ??_C@_0BD@PNDCMCDK@Strong?5Extranet?5ID?$AA@ 0007612c     libeay32:obj_dat.obj
 0002:0000f140       ??_C@_07DKMNOLMH@SXNetID?$AA@ 00076140     libeay32:obj_dat.obj
 0002:0000f148       ??_C@_0BA@JDBEMONE@Invalidity?5Date?$AA@ 00076148     libeay32:obj_dat.obj
 0002:0000f158       ??_C@_0P@BKEGCOMO@invalidityDate?$AA@ 00076158     libeay32:obj_dat.obj
 0002:0000f168       ??_C@_0BH@GODIEFKG@X509v3?5CRL?5Reason?5Code?$AA@ 00076168     libeay32:obj_dat.obj
 0002:0000f180       ??_C@_09MCDAGILE@CRLReason?$AA@ 00076180     libeay32:obj_dat.obj
 0002:0000f18c       ??_C@_0BL@HLNLPBHP@X509v3?5Delta?5CRL?5Indicator?$AA@ 0007618c     libeay32:obj_dat.obj
 0002:0000f1a8       ??_C@_08ECNAKPJJ@deltaCRL?$AA@ 000761a8     libeay32:obj_dat.obj
 0002:0000f1b4       ??_C@_0BN@MDNLHLBL@Netscape?5Server?5Gated?5Crypto?$AA@ 000761b4     libeay32:obj_dat.obj
 0002:0000f1d4       ??_C@_05LFIIINKG@nsSGC?$AA@ 000761d4     libeay32:obj_dat.obj
 0002:0000f1dc       ??_C@_0CA@IJODBCMB@Microsoft?5Encrypted?5File?5System?$AA@ 000761dc     libeay32:obj_dat.obj
 0002:0000f1fc       ??_C@_05NGOIPCN@msEFS?$AA@ 000761fc     libeay32:obj_dat.obj
 0002:0000f204       ??_C@_0BO@FBDDCLK@Microsoft?5Server?5Gated?5Crypto?$AA@ 00076204     libeay32:obj_dat.obj
 0002:0000f224       ??_C@_05DDBMPPAI@msSGC?$AA@ 00076224     libeay32:obj_dat.obj
 0002:0000f22c       ??_C@_0BN@GNMCHNOI@Microsoft?5Trust?5List?5Signing?$AA@ 0007622c     libeay32:obj_dat.obj
 0002:0000f24c       ??_C@_09HGCLLDPK@msCTLSign?$AA@ 0007624c     libeay32:obj_dat.obj
 0002:0000f258       ??_C@_0CC@GKFNEBFA@Microsoft?5Commercial?5Code?5Signin@ 00076258     libeay32:obj_dat.obj
 0002:0000f27c       ??_C@_09PDGAMFAO@msCodeCom?$AA@ 0007627c     libeay32:obj_dat.obj
 0002:0000f288       ??_C@_0CC@NDDHKAMP@Microsoft?5Individual?5Code?5Signin@ 00076288     libeay32:obj_dat.obj
 0002:0000f2ac       ??_C@_09EMNNPEBE@msCodeInd?$AA@ 000762ac     libeay32:obj_dat.obj
 0002:0000f2b8       ??_C@_0O@GMMBLMEE@Time?5Stamping?$AA@ 000762b8     libeay32:obj_dat.obj
 0002:0000f2c8       ??_C@_0N@LONEBHPN@timeStamping?$AA@ 000762c8     libeay32:obj_dat.obj
 0002:0000f2d8       ??_C@_0BC@BLBGFKKG@E?9mail?5Protection?$AA@ 000762d8     libeay32:obj_dat.obj
 0002:0000f2ec       ??_C@_0BA@NPCFDPCO@emailProtection?$AA@ 000762ec     libeay32:obj_dat.obj
 0002:0000f2fc       ??_C@_0N@CHJHLHFC@Code?5Signing?$AA@ 000762fc     libeay32:obj_dat.obj
 0002:0000f30c       ??_C@_0M@OJNCNGJ@codeSigning?$AA@ 0007630c     libeay32:obj_dat.obj
 0002:0000f318       ??_C@_0BO@FEMCBEOF@TLS?5Web?5Client?5Authentication?$AA@ 00076318     libeay32:obj_dat.obj
 0002:0000f338       ??_C@_0L@HCMKLLOP@clientAuth?$AA@ 00076338     libeay32:obj_dat.obj
 0002:0000f344       ??_C@_0BO@HPFOJNNE@TLS?5Web?5Server?5Authentication?$AA@ 00076344     libeay32:obj_dat.obj
 0002:0000f364       ??_C@_0L@CINGAJGN@serverAuth?$AA@ 00076364     libeay32:obj_dat.obj
 0002:0000f370       ??_C@_05DEJBPLJH@id?9kp?$AA@ 00076370     libeay32:obj_dat.obj
 0002:0000f378       ??_C@_04EAPCHJAG@PKIX?$AA@ 00076378     libeay32:obj_dat.obj
 0002:0000f380       ??_C@_0BK@KFMGFBEG@X509v3?5Extended?5Key?5Usage?$AA@ 00076380     libeay32:obj_dat.obj
 0002:0000f39c       ??_C@_0BB@DGDLKPHD@extendedKeyUsage?$AA@ 0007639c     libeay32:obj_dat.obj
 0002:0000f3b0       ??_C@_0BB@KGNEOBKL@zlib?5compression?$AA@ 000763b0     libeay32:obj_dat.obj
 0002:0000f3c4       ??_C@_04CHLIKDMF@ZLIB?$AA@ 000763c4     libeay32:obj_dat.obj
 0002:0000f3cc       ??_C@_0BH@CAEIMNHD@run?5length?5compression?$AA@ 000763cc     libeay32:obj_dat.obj
 0002:0000f3e4       ??_C@_03ELDBCICO@RLE?$AA@  000763e4     libeay32:obj_dat.obj
 0002:0000f3e8       ??_C@_07NLMEMEEK@rc5?9ofb?$AA@ 000763e8     libeay32:obj_dat.obj
 0002:0000f3f0       ??_C@_07OAPEFCPM@RC5?9OFB?$AA@ 000763f0     libeay32:obj_dat.obj
 0002:0000f3f8       ??_C@_07JBBCHLPC@rc5?9cfb?$AA@ 000763f8     libeay32:obj_dat.obj
 0002:0000f400       ??_C@_07KKCCONEE@RC5?9CFB?$AA@ 00076400     libeay32:obj_dat.obj
 0002:0000f408       ??_C@_07LCLCOGMF@rc5?9ecb?$AA@ 00076408     libeay32:obj_dat.obj
 0002:0000f410       ??_C@_07IJICHAHD@RC5?9ECB?$AA@ 00076410     libeay32:obj_dat.obj
 0002:0000f418       ??_C@_07IPAAOCGP@rc5?9cbc?$AA@ 00076418     libeay32:obj_dat.obj
 0002:0000f420       ??_C@_07LEDAHENJ@RC5?9CBC?$AA@ 00076420     libeay32:obj_dat.obj
 0002:0000f428       ??_C@_0BB@DCJDAKFH@ripemd160WithRSA?$AA@ 00076428     libeay32:obj_dat.obj
 0002:0000f43c       ??_C@_0O@JPOIHGOH@RSA?9RIPEMD160?$AA@ 0007643c     libeay32:obj_dat.obj
 0002:0000f44c       ??_C@_09EDIPKBN@ripemd160?$AA@ 0007644c     libeay32:obj_dat.obj
 0002:0000f458       ??_C@_09DJDCAKJG@RIPEMD160?$AA@ 00076458     libeay32:obj_dat.obj
 0002:0000f464       ??_C@_0O@GMANLAEO@dsaEncryption?$AA@ 00076464     libeay32:obj_dat.obj
 0002:0000f474       ??_C@_03ENFFABCE@DSA?$AA@  00076474     libeay32:obj_dat.obj
 0002:0000f478       ??_C@_0M@KECGAPAA@sha1WithRSA?$AA@ 00076478     libeay32:obj_dat.obj
 0002:0000f484       ??_C@_0L@EMMEGDKK@RSA?9SHA1?92?$AA@ 00076484     libeay32:obj_dat.obj
 0002:0000f490       ??_C@_08GOLKFMKI@md5?9sha1?$AA@ 00076490     libeay32:obj_dat.obj
 0002:0000f49c       ??_C@_08EMIDHKIH@MD5?9SHA1?$AA@ 0007649c     libeay32:obj_dat.obj
 0002:0000f4a8       ??_C@_0M@EFJKPOPH@dsaWithSHA1?$AA@ 000764a8     libeay32:obj_dat.obj
 0002:0000f4b4       ??_C@_08IOHJAANG@DSA?9SHA1?$AA@ 000764b4     libeay32:obj_dat.obj
 0002:0000f4c0       ??_C@_0BG@JCFINJGL@pbeWithMD5AndCast5CBC?$AA@ 000764c0     libeay32:obj_dat.obj
 0002:0000f4d8       ??_C@_09ECHHPLBP@cast5?9ofb?$AA@ 000764d8     libeay32:obj_dat.obj
 0002:0000f4e4       ??_C@_09LEOLOMNK@CAST5?9OFB?$AA@ 000764e4     libeay32:obj_dat.obj
 0002:0000f4f0       ??_C@_09IKBEEKH@cast5?9cfb?$AA@ 000764f0     libeay32:obj_dat.obj
 0002:0000f4fc       ??_C@_09PODNFDGC@CAST5?9CFB?$AA@ 000764fc     libeay32:obj_dat.obj
 0002:0000f508       ??_C@_09CLABNJJA@cast5?9ecb?$AA@ 00076508     libeay32:obj_dat.obj
 0002:0000f514       ??_C@_09NNJNMOFF@CAST5?9ECB?$AA@ 00076514     libeay32:obj_dat.obj
 0002:0000f520       ??_C@_09BGLDNNDK@cast5?9cbc?$AA@ 00076520     libeay32:obj_dat.obj
 0002:0000f52c       ??_C@_09OACPMKPP@CAST5?9CBC?$AA@ 0007652c     libeay32:obj_dat.obj
 0002:0000f538       ??_C@_0M@PPJNHBMP@description?$AA@ 00076538     libeay32:obj_dat.obj
 0002:0000f544       ??_C@_05PHLGJONK@title?$AA@ 00076544     libeay32:obj_dat.obj
 0002:0000f54c       ??_C@_0N@OMOHFKCJ@serialNumber?$AA@ 0007654c     libeay32:obj_dat.obj
 0002:0000f55c       ??_C@_0L@CNDCBNIN@md5WithRSA?$AA@ 0007655c     libeay32:obj_dat.obj
 0002:0000f568       ??_C@_0L@NACEPNFC@RSA?9NP?9MD5?$AA@ 00076568     libeay32:obj_dat.obj
 0002:0000f574       ??_C@_0BP@EGHJGANM@X509v3?5CRL?5Distribution?5Points?$AA@ 00076574     libeay32:obj_dat.obj
 0002:0000f594       ??_C@_0BG@CCHGOEBE@crlDistributionPoints?$AA@ 00076594     libeay32:obj_dat.obj
 0002:0000f5ac       ??_C@_08PAKNLFON@initials?$AA@ 000765ac     libeay32:obj_dat.obj
 0002:0000f5b8       ??_C@_07LNKFHLHI@surname?$AA@ 000765b8     libeay32:obj_dat.obj
 0002:0000f5c0       ??_C@_02LONEIP@SN?$AA@     000765c0     libeay32:obj_dat.obj
 0002:0000f5c4       ??_C@_09GCBNJLNP@givenName?$AA@ 000765c4     libeay32:obj_dat.obj
 0002:0000f5d0       ??_C@_02BLJBNPCD@GN?$AA@   000765d0     libeay32:obj_dat.obj
 0002:0000f5d4       ??_C@_0L@CHEFJHBP@rc2?940?9cbc?$AA@ 000765d4     libeay32:obj_dat.obj
 0002:0000f5e0       ??_C@_0L@ODHPNGGE@RC2?940?9CBC?$AA@ 000765e0     libeay32:obj_dat.obj
 0002:0000f5ec       ??_C@_06GNNJIOGN@rc4?940?$AA@ 000765ec     libeay32:obj_dat.obj
 0002:0000f5f4       ??_C@_06KFMILCMH@RC4?940?$AA@ 000765f4     libeay32:obj_dat.obj
 0002:0000f5fc       ??_C@_0M@HGGNEPNN@mdc2WithRSA?$AA@ 000765fc     libeay32:obj_dat.obj
 0002:0000f608       ??_C@_08OMAMCKNL@RSA?9MDC2?$AA@ 00076608     libeay32:obj_dat.obj
 0002:0000f614       ??_C@_04ELNKPKEC@mdc2?$AA@ 00076614     libeay32:obj_dat.obj
 0002:0000f61c       ??_C@_04BCGEDMJI@MDC2?$AA@ 0007661c     libeay32:obj_dat.obj
 0002:0000f624       ??_C@_06OBJCCDFN@bf?9ofb?$AA@ 00076624     libeay32:obj_dat.obj
 0002:0000f62c       ??_C@_06CEHINCIL@BF?9OFB?$AA@ 0007662c     libeay32:obj_dat.obj
 0002:0000f634       ??_C@_06KLEEJMOF@bf?9cfb?$AA@ 00076634     libeay32:obj_dat.obj
 0002:0000f63c       ??_C@_06GOKOGNDD@BF?9CFB?$AA@ 0007663c     libeay32:obj_dat.obj
 0002:0000f644       ??_C@_06IIOEABNC@bf?9ecb?$AA@ 00076644     libeay32:obj_dat.obj
 0002:0000f64c       ??_C@_06ENAOPAAE@BF?9ECB?$AA@ 0007664c     libeay32:obj_dat.obj
 0002:0000f654       ??_C@_06LFFGAFHI@bf?9cbc?$AA@ 00076654     libeay32:obj_dat.obj
 0002:0000f65c       ??_C@_06HALMPEKO@BF?9CBC?$AA@ 0007665c     libeay32:obj_dat.obj
 0002:0000f664       ??_C@_0CA@GODCHEHD@X509v3?5Authority?5Key?5Identifier?$AA@ 00076664     libeay32:obj_dat.obj
 0002:0000f684       ??_C@_0BH@ICHFALGD@authorityKeyIdentifier?$AA@ 00076684     libeay32:obj_dat.obj
 0002:0000f69c       ??_C@_0BM@OOFGKLPK@X509v3?5Certificate?5Policies?$AA@ 0007669c     libeay32:obj_dat.obj
 0002:0000f6b8       ??_C@_0BE@OLMJNPEP@certificatePolicies?$AA@ 000766b8     libeay32:obj_dat.obj
 0002:0000f6cc       ??_C@_0BC@PCPNBDDJ@X509v3?5CRL?5Number?$AA@ 000766cc     libeay32:obj_dat.obj
 0002:0000f6e0       ??_C@_09JDPHHKMA@crlNumber?$AA@ 000766e0     libeay32:obj_dat.obj
 0002:0000f6ec       ??_C@_0BJ@FBHDAJML@X509v3?5Basic?5Constraints?$AA@ 000766ec     libeay32:obj_dat.obj
 0002:0000f708       ??_C@_0BB@IKNGJCLO@basicConstraints?$AA@ 00076708     libeay32:obj_dat.obj
 0002:0000f71c       ??_C@_0BP@FMJCGPCG@X509v3?5Issuer?5Alternative?5Name?$AA@ 0007671c     libeay32:obj_dat.obj
 0002:0000f73c       ??_C@_0O@DLIFHFCD@issuerAltName?$AA@ 0007673c     libeay32:obj_dat.obj
 0002:0000f74c       ??_C@_0CA@OPCJJLNF@X509v3?5Subject?5Alternative?5Name?$AA@ 0007674c     libeay32:obj_dat.obj
 0002:0000f76c       ??_C@_0P@EOFJHHKD@subjectAltName?$AA@ 0007676c     libeay32:obj_dat.obj
 0002:0000f77c       ??_C@_0CA@CLGHAMIP@X509v3?5Private?5Key?5Usage?5Period?$AA@ 0007677c     libeay32:obj_dat.obj
 0002:0000f79c       ??_C@_0BG@JOIAJOMN@privateKeyUsagePeriod?$AA@ 0007679c     libeay32:obj_dat.obj
 0002:0000f7b4       ??_C@_0BB@BPPOKNBO@X509v3?5Key?5Usage?$AA@ 000767b4     libeay32:obj_dat.obj
 0002:0000f7c8       ??_C@_08BCICBOHF@keyUsage?$AA@ 000767c8     libeay32:obj_dat.obj
 0002:0000f7d4       ??_C@_0BO@ILPNOINJ@X509v3?5Subject?5Key?5Identifier?$AA@ 000767d4     libeay32:obj_dat.obj
 0002:0000f7f4       ??_C@_0BF@MOEDIMBI@subjectKeyIdentifier?$AA@ 000767f4     libeay32:obj_dat.obj
 0002:0000f80c       ??_C@_05NDHEMDL@id?9ce?$AA@ 0007680c     libeay32:obj_dat.obj
 0002:0000f814       ??_C@_08KPMCEEEO@desx?9cbc?$AA@ 00076814     libeay32:obj_dat.obj
 0002:0000f820       ??_C@_08BBKPFFGN@DESX?9CBC?$AA@ 00076820     libeay32:obj_dat.obj
 0002:0000f82c       ??_C@_0BO@KKKBMKBD@Netscape?5Certificate?5Sequence?$AA@ 0007682c     libeay32:obj_dat.obj
 0002:0000f84c       ??_C@_0P@OCCBBJKK@nsCertSequence?$AA@ 0007684c     libeay32:obj_dat.obj
 0002:0000f85c       ??_C@_0BB@DCFBGIOA@Netscape?5Comment?$AA@ 0007685c     libeay32:obj_dat.obj
 0002:0000f870       ??_C@_09BALDFHMJ@nsComment?$AA@ 00076870     libeay32:obj_dat.obj
 0002:0000f87c       ??_C@_0BJ@GMBLEMAL@Netscape?5SSL?5Server?5Name?$AA@ 0007687c     libeay32:obj_dat.obj
 0002:0000f898       ??_C@_0BA@KNOKNJNE@nsSslServerName?$AA@ 00076898     libeay32:obj_dat.obj
 0002:0000f8a8       ??_C@_0BH@EMEFHLC@Netscape?5CA?5Policy?5Url?$AA@ 000768a8     libeay32:obj_dat.obj
 0002:0000f8c0       ??_C@_0O@DHDIMJD@nsCaPolicyUrl?$AA@ 000768c0     libeay32:obj_dat.obj
 0002:0000f8d0       ??_C@_0BF@FKENIIHB@Netscape?5Renewal?5Url?$AA@ 000768d0     libeay32:obj_dat.obj
 0002:0000f8e8       ??_C@_0N@JILHKMLM@nsRenewalUrl?$AA@ 000768e8     libeay32:obj_dat.obj
 0002:0000f8f8       ??_C@_0BL@EMOMOFDB@Netscape?5CA?5Revocation?5Url?$AA@ 000768f8     libeay32:obj_dat.obj
 0002:0000f914       ??_C@_0BC@IKAPCMGG@nsCaRevocationUrl?$AA@ 00076914     libeay32:obj_dat.obj
 0002:0000f928       ??_C@_0BI@BCDINENC@Netscape?5Revocation?5Url?$AA@ 00076928     libeay32:obj_dat.obj
 0002:0000f940       ??_C@_0BA@DKPGPAKK@nsRevocationUrl?$AA@ 00076940     libeay32:obj_dat.obj
 0002:0000f950       ??_C@_0BC@DIHCABP@Netscape?5Base?5Url?$AA@ 00076950     libeay32:obj_dat.obj
 0002:0000f964       ??_C@_09OCIGDOMM@nsBaseUrl?$AA@ 00076964     libeay32:obj_dat.obj
 0002:0000f970       ??_C@_0BD@NFPBEMEE@Netscape?5Cert?5Type?$AA@ 00076970     libeay32:obj_dat.obj
 0002:0000f984       ??_C@_0L@IICLKDNB@nsCertType?$AA@ 00076984     libeay32:obj_dat.obj
 0002:0000f990       ??_C@_0BA@DDLLDHEM@dsaWithSHA1?9old?$AA@ 00076990     libeay32:obj_dat.obj
 0002:0000f9a0       ??_C@_0N@ONIKBKNK@DSA?9SHA1?9old?$AA@ 000769a0     libeay32:obj_dat.obj
 0002:0000f9b0       ??_C@_06KBOEGBGA@PBKDF2?$AA@ 000769b0     libeay32:obj_dat.obj
 0002:0000f9b8       ??_C@_0BG@IBNNJING@pbeWithSHA1AndRC2?9CBC?$AA@ 000769b8     libeay32:obj_dat.obj
 0002:0000f9d0       ??_C@_0BA@KKPEMNGH@PBE?9SHA1?9RC2?964?$AA@ 000769d0     libeay32:obj_dat.obj
 0002:0000f9e0       ??_C@_0BC@FFHHBCCH@dsaEncryption?9old?$AA@ 000769e0     libeay32:obj_dat.obj
 0002:0000f9f4       ??_C@_07PLHLFGGF@DSA?9old?$AA@ 000769f4     libeay32:obj_dat.obj
 0002:0000f9fc       ??_C@_0L@BEHMICBH@dsaWithSHA?$AA@ 000769fc     libeay32:obj_dat.obj
 0002:0000fa08       ??_C@_07JGDBCPKH@DSA?9SHA?$AA@ 00076a08     libeay32:obj_dat.obj
 0002:0000fa10       ??_C@_0BG@DALFFFBE@sha1WithRSAEncryption?$AA@ 00076a10     libeay32:obj_dat.obj
 0002:0000fa28       ??_C@_08FBKDDLCN@RSA?9SHA1?$AA@ 00076a28     libeay32:obj_dat.obj
 0002:0000fa34       ??_C@_04PGHFOLLE@sha1?$AA@ 00076a34     libeay32:obj_dat.obj
 0002:0000fa3c       ??_C@_04KPMLCNGO@SHA1?$AA@ 00076a3c     libeay32:obj_dat.obj
 0002:0000fa44       ??_C@_0N@LODGAID@des?9ede3?9ofb?$AA@ 00076a44     libeay32:obj_dat.obj
 0002:0000fa54       ??_C@_0N@JPPBGLEM@DES?9EDE3?9OFB?$AA@ 00076a54     libeay32:obj_dat.obj
 0002:0000fa64       ??_C@_0M@BOHDOFGF@des?9ede?9ofb?$AA@ 00076a64     libeay32:obj_dat.obj
 0002:0000fa70       ??_C@_0M@PDBPCBBK@DES?9EDE?9OFB?$AA@ 00076a70     libeay32:obj_dat.obj
 0002:0000fa7c       ??_C@_0N@EBDFNPDL@des?9ede3?9cfb?$AA@ 00076a7c     libeay32:obj_dat.obj
 0002:0000fa8c       ??_C@_0N@NFCHNEPE@DES?9EDE3?9CFB?$AA@ 00076a8c     libeay32:obj_dat.obj
 0002:0000fa9c       ??_C@_0M@FEKFFKNN@des?9ede?9cfb?$AA@ 00076a9c     libeay32:obj_dat.obj
 0002:0000faa8       ??_C@_0M@LJMJJOKC@DES?9EDE?9CFB?$AA@ 00076aa8     libeay32:obj_dat.obj
 0002:0000fab4       ??_C@_0BD@JJEILMNP@Netscape?5Data?5Type?$AA@ 00076ab4     libeay32:obj_dat.obj
 0002:0000fac8       ??_C@_0L@FIMLGGPA@nsDataType?$AA@ 00076ac8     libeay32:obj_dat.obj
 0002:0000fad4       ??_C@_0BP@LHPGKGFM@Netscape?5Certificate?5Extension?$AA@ 00076ad4     libeay32:obj_dat.obj
 0002:0000faf4       ??_C@_09JDCKDNMG@nsCertExt?$AA@ 00076af4     libeay32:obj_dat.obj
 0002:0000fb00       ??_C@_0BO@IAIBEBGO@Netscape?5Communications?5Corp?4?$AA@ 00076b00     libeay32:obj_dat.obj
 0002:0000fb20       ??_C@_08BDEPHMAF@Netscape?$AA@ 00076b20     libeay32:obj_dat.obj
 0002:0000fb2c       ??_C@_0BO@LDCCNBPE@extendedCertificateAttributes?$AA@ 00076b2c     libeay32:obj_dat.obj
 0002:0000fb4c       ??_C@_0BE@MACPCAPF@unstructuredAddress?$AA@ 00076b4c     libeay32:obj_dat.obj
 0002:0000fb60       ??_C@_0BC@OKHONEEM@challengePassword?$AA@ 00076b60     libeay32:obj_dat.obj
 0002:0000fb74       ??_C@_0BB@IPFGMODP@countersignature?$AA@ 00076b74     libeay32:obj_dat.obj
 0002:0000fb88       ??_C@_0M@IJBJCCMP@signingTime?$AA@ 00076b88     libeay32:obj_dat.obj
 0002:0000fb94       ??_C@_0O@JDGJDGC@messageDigest?$AA@ 00076b94     libeay32:obj_dat.obj
 0002:0000fba4       ??_C@_0M@DOEFOEJD@contentType?$AA@ 00076ba4     libeay32:obj_dat.obj
 0002:0000fbb0       ??_C@_0BB@CJIILOEM@unstructuredName?$AA@ 00076bb0     libeay32:obj_dat.obj
 0002:0000fbc4       ??_C@_0N@IHLBAGEP@emailAddress?$AA@ 00076bc4     libeay32:obj_dat.obj
 0002:0000fbd4       ??_C@_05NKFNBGJP@pkcs9?$AA@ 00076bd4     libeay32:obj_dat.obj
 0002:0000fbdc       ??_C@_08OGDEHPAF@idea?9ofb?$AA@ 00076bdc     libeay32:obj_dat.obj
 0002:0000fbe8       ??_C@_08FIFJGOCG@IDEA?9OFB?$AA@ 00076be8     libeay32:obj_dat.obj
 0002:0000fbf4       ??_C@_07NLMBCAKN@des?9ofb?$AA@ 00076bf4     libeay32:obj_dat.obj
 0002:0000fbfc       ??_C@_07OHFNLDCN@DES?9OFB?$AA@ 00076bfc     libeay32:obj_dat.obj
 0002:0000fc04       ??_C@_0N@FPCHEGKG@des?9ede3?9cbc?$AA@ 00076c04     libeay32:obj_dat.obj
 0002:0000fc14       ??_C@_0N@MLDFENGJ@DES?9EDE3?9CBC?$AA@ 00076c14     libeay32:obj_dat.obj
 0002:0000fc24       ??_C@_0M@EKLHMDEA@des?9ede?9cbc?$AA@ 00076c24     libeay32:obj_dat.obj
 0002:0000fc30       ??_C@_0M@KHNLAHDP@DES?9EDE?9CBC?$AA@ 00076c30     libeay32:obj_dat.obj
 0002:0000fc3c       ??_C@_0BF@LIDINENF@shaWithRSAEncryption?$AA@ 00076c3c     libeay32:obj_dat.obj
 0002:0000fc54       ??_C@_07CMOFBHAL@RSA?9SHA?$AA@ 00076c54     libeay32:obj_dat.obj
 0002:0000fc5c       ??_C@_03JNBDOPOP@sha?$AA@  00076c5c     libeay32:obj_dat.obj
 0002:0000fc60       ??_C@_03JAOICCJD@SHA?$AA@  00076c60     libeay32:obj_dat.obj
 0002:0000fc64       ??_C@_07MGMBPEPC@rc2?9ofb?$AA@ 00076c64     libeay32:obj_dat.obj
 0002:0000fc6c       ??_C@_07PNPBGCEE@RC2?9OFB?$AA@ 00076c6c     libeay32:obj_dat.obj
 0002:0000fc74       ??_C@_07IMBHELEK@rc2?9cfb?$AA@ 00076c74     libeay32:obj_dat.obj
 0002:0000fc7c       ??_C@_07LHCHNNPM@RC2?9CFB?$AA@ 00076c7c     libeay32:obj_dat.obj
 0002:0000fc84       ??_C@_07KPLHNGHN@rc2?9ecb?$AA@ 00076c84     libeay32:obj_dat.obj
 0002:0000fc8c       ??_C@_07JEIHEAML@RC2?9ECB?$AA@ 00076c8c     libeay32:obj_dat.obj
 0002:0000fc94       ??_C@_07JCAFNCNH@rc2?9cbc?$AA@ 00076c94     libeay32:obj_dat.obj
 0002:0000fc9c       ??_C@_07KJDFEEGB@RC2?9CBC?$AA@ 00076c9c     libeay32:obj_dat.obj
 0002:0000fca4       ??_C@_08IPECFNIK@idea?9ecb?$AA@ 00076ca4     libeay32:obj_dat.obj
 0002:0000fcb0       ??_C@_08DBCPEMKJ@IDEA?9ECB?$AA@ 00076cb0     libeay32:obj_dat.obj
 0002:0000fcbc       ??_C@_08KMOCMALN@idea?9cfb?$AA@ 00076cbc     libeay32:obj_dat.obj
 0002:0000fcc8       ??_C@_08BCIPNBJO@IDEA?9CFB?$AA@ 00076cc8     libeay32:obj_dat.obj
 0002:0000fcd4       ??_C@_08LCPAFJCA@idea?9cbc?$AA@ 00076cd4     libeay32:obj_dat.obj
 0002:0000fce0       ??_C@_08MJNEIAD@IDEA?9CBC?$AA@ 00076ce0     libeay32:obj_dat.obj
 0002:0000fcec       ??_C@_08LJCBLNOK@des?9ede3?$AA@ 00076cec     libeay32:obj_dat.obj
 0002:0000fcf8       ??_C@_08FEKFKCFJ@DES?9EDE3?$AA@ 00076cf8     libeay32:obj_dat.obj
 0002:0000fd04       ??_C@_07PILJICGA@des?9ede?$AA@ 00076d04     libeay32:obj_dat.obj
 0002:0000fd0c       ??_C@_07MECFBBOA@DES?9EDE?$AA@ 00076d0c     libeay32:obj_dat.obj
 0002:0000fd14       ??_C@_07IPAFAGII@des?9cbc?$AA@ 00076d14     libeay32:obj_dat.obj
 0002:0000fd1c       ??_C@_07LDJJJFAI@DES?9CBC?$AA@ 00076d1c     libeay32:obj_dat.obj
 0002:0000fd24       ??_C@_07JBBHJPBF@des?9cfb?$AA@ 00076d24     libeay32:obj_dat.obj
 0002:0000fd2c       ??_C@_07KNILAMJF@DES?9CFB?$AA@ 00076d2c     libeay32:obj_dat.obj
 0002:0000fd34       ??_C@_07LCLHACCC@des?9ecb?$AA@ 00076d34     libeay32:obj_dat.obj
 0002:0000fd3c       ??_C@_07IOCLJBKC@DES?9ECB?$AA@ 00076d3c     libeay32:obj_dat.obj
 0002:0000fd44       ??_C@_0P@HCMIBBEB@dhKeyAgreement?$AA@ 00076d44     libeay32:obj_dat.obj
 0002:0000fd54       ??_C@_05CALCPOBF@pkcs3?$AA@ 00076d54     libeay32:obj_dat.obj
 0002:0000fd5c       ??_C@_0BE@CAMKAFJN@pkcs7?9encryptedData?$AA@ 00076d5c     libeay32:obj_dat.obj
 0002:0000fd70       ??_C@_0BB@CJNFBHDI@pkcs7?9digestData?$AA@ 00076d70     libeay32:obj_dat.obj
 0002:0000fd84       ??_C@_0BN@LMEEMCPG@pkcs7?9signedAndEnvelopedData?$AA@ 00076d84     libeay32:obj_dat.obj
 0002:0000fda4       ??_C@_0BE@FAIIHMP@pkcs7?9envelopedData?$AA@ 00076da4     libeay32:obj_dat.obj
 0002:0000fdb8       ??_C@_0BB@PEKKHBEJ@pkcs7?9signedData?$AA@ 00076db8     libeay32:obj_dat.obj
 0002:0000fdcc       ??_C@_0L@BCKMJOMA@pkcs7?9data?$AA@ 00076dcc     libeay32:obj_dat.obj
 0002:0000fdd8       ??_C@_05EENODLBB@pkcs7?$AA@ 00076dd8     libeay32:obj_dat.obj
 0002:0000fde0       ??_C@_03DICHAJGH@RSA?$AA@  00076de0     libeay32:obj_dat.obj
 0002:0000fde4       ??_C@_0BH@LAMMAAM@organizationalUnitName?$AA@ 00076de4     libeay32:obj_dat.obj
 0002:0000fdfc       ??_C@_02LMLEEFAB@OU?$AA@   00076dfc     libeay32:obj_dat.obj
 0002:0000fe00       ??_C@_0BB@GBCNPHLL@organizationName?$AA@ 00076e00     libeay32:obj_dat.obj
 0002:0000fe14       ??_C@_01MJMHLOMK@O?$AA@    00076e14     libeay32:obj_dat.obj
 0002:0000fe18       ??_C@_0BE@NKDCJFMD@stateOrProvinceName?$AA@ 00076e18     libeay32:obj_dat.obj
 0002:0000fe2c       ??_C@_02LAJDCOFE@ST?$AA@   00076e2c     libeay32:obj_dat.obj
 0002:0000fe30       ??_C@_0N@LEDCGGBI@localityName?$AA@ 00076e30     libeay32:obj_dat.obj
 0002:0000fe40       ??_C@_01OCOKONAJ@L?$AA@    00076e40     libeay32:obj_dat.obj
 0002:0000fe44       ??_C@_0M@NPBHECMC@countryName?$AA@ 00076e44     libeay32:obj_dat.obj
 0002:0000fe50       ??_C@_01GFHCPBMG@C?$AA@    00076e50     libeay32:obj_dat.obj
 0002:0000fe54       ??_C@_0L@OILMNBLH@commonName?$AA@ 00076e54     libeay32:obj_dat.obj
 0002:0000fe60       ??_C@_02BMJIHHPP@CN?$AA@   00076e60     libeay32:obj_dat.obj
 0002:0000fe64       ??_C@_04NMKEOMFB@X509?$AA@ 00076e64     libeay32:obj_dat.obj
 0002:0000fe6c       ??_C@_0BL@NJHHPHOL@directory?5services?5?$CIX?4500?$CJ?$AA@ 00076e6c     libeay32:obj_dat.obj
 0002:0000fe88       ??_C@_04NGGFHBI@X500?$AA@  00076e88     libeay32:obj_dat.obj
 0002:0000fe90       ??_C@_0BF@DAJHPIMK@pbeWithMD5AndDES?9CBC?$AA@ 00076e90     libeay32:obj_dat.obj
 0002:0000fea8       ??_C@_0M@KBNDBPIJ@PBE?9MD5?9DES?$AA@ 00076ea8     libeay32:obj_dat.obj
 0002:0000feb4       ??_C@_0BF@EEAPBBEF@pbeWithMD2AndDES?9CBC?$AA@ 00076eb4     libeay32:obj_dat.obj
 0002:0000fecc       ??_C@_0M@LMNGCPDB@PBE?9MD2?9DES?$AA@ 00076ecc     libeay32:obj_dat.obj
 0002:0000fed8       ??_C@_0BF@EEAHCNKC@md5WithRSAEncryption?$AA@ 00076ed8     libeay32:obj_dat.obj
 0002:0000fef0       ??_C@_07NOGKHCDB@RSA?9MD5?$AA@ 00076ef0     libeay32:obj_dat.obj
 0002:0000fef8       ??_C@_0BF@ODJKGOJ@md2WithRSAEncryption?$AA@ 00076ef8     libeay32:obj_dat.obj
 0002:0000ff10       ??_C@_07JBCLOEPG@RSA?9MD2?$AA@ 00076f10     libeay32:obj_dat.obj
 0002:0000ff18       ??_C@_0O@PCHNMHJE@rsaEncryption?$AA@ 00076f18     libeay32:obj_dat.obj
 0002:0000ff28       ??_C@_03OODGMOHK@rc4?$AA@  00076f28     libeay32:obj_dat.obj
 0002:0000ff2c       ??_C@_03HGEJCHKE@RC4?$AA@  00076f2c     libeay32:obj_dat.obj
 0002:0000ff30       ??_C@_03PKBIKOHH@md5?$AA@  00076f30     libeay32:obj_dat.obj
 0002:0000ff34       ??_C@_03GCGHEHKJ@MD5?$AA@  00076f34     libeay32:obj_dat.obj
 0002:0000ff38       ??_C@_03LFFJDILA@md2?$AA@  00076f38     libeay32:obj_dat.obj
 0002:0000ff3c       ??_C@_03CNCGNBGO@MD2?$AA@  00076f3c     libeay32:obj_dat.obj
 0002:0000ff40       ??_C@_0BN@EBHJCEC@RSA?5Data?5Security?0?5Inc?4?5PKCS?$AA@ 00076f40     libeay32:obj_dat.obj
 0002:0000ff60       ??_C@_04GCKLMHGD@pkcs?$AA@ 00076f60     libeay32:obj_dat.obj
 0002:0000ff68       ??_C@_0BI@MPBNCOIB@RSA?5Data?5Security?0?5Inc?4?$AA@ 00076f68     libeay32:obj_dat.obj
 0002:0000ff80       ??_C@_06GGEMKGKC@rsadsi?$AA@ 00076f80     libeay32:obj_dat.obj
 0002:0000ff88       ??_C@_09MLGAJAED@undefined?$AA@ 00076f88     libeay32:obj_dat.obj
 0002:0000ff94       ??_C@_05DBLJEJPC@UNDEF?$AA@ 00076f94     libeay32:obj_dat.obj
 0002:0000ffa0       ??_C@_0FB@EJHIDBFI@d?3?2wm653wehh?2platform?2mvv210?2src@ 00076fa0     libeay32:obj_dat.obj
 0002:0000fff4       ??_C@_04MDEFHJHM@?4?$CFlu?$AA@ 00076ff4     libeay32:obj_dat.obj
 0002:0000fffc       STACK_version              00076ffc     libeay32:stack.obj
 0002:00010028       ??_C@_0EN@GOCHBJJG@d?3?2wm653wehh?2platform?2mvv210?2src@ 00077028     libeay32:stack.obj
 0002:00010078       ??_C@_0EL@PAPNDPGN@d?3?2wm653wehh?2platform?2mvv210?2src@ 00077078     libeay32:p_lib.obj
 0002:000100c8       ??_C@_0FC@NEBNNILH@d?3?2wm653wehh?2platform?2mvv210?2src@ 000770c8     libeay32:tb_pkmeth.obj
 0002:00010120       ??_C@_0FC@LCBCBJII@d?3?2wm653wehh?2platform?2mvv210?2src@ 00077120     libeay32:eng_table.obj
 0002:00010178       ??_C@_0EJ@DIAKMCGH@d?3?2wm653wehh?2platform?2mvv210?2src@ 00077178     libeay32:mem_dbg.obj
 0002:000101c4       lh_version                 000771c4     libeay32:lhash.obj
 0002:000101f0       ??_C@_0EN@ECMNBMLE@d?3?2wm653wehh?2platform?2mvv210?2src@ 000771f0     libeay32:lhash.obj
 0002:00010240       ??_C@_0FA@OIJOADBF@d?3?2wm653wehh?2platform?2mvv210?2src@ 00077240     libeay32:buf_str.obj
 0002:00010290       ??_C@_0EN@GMEKCP@d?3?2wm653wehh?2platform?2mvv210?2src@ 00077290     libeay32:b_print.obj
 0002:000102e0       ??_C@_06CBHGEMFM@?$DMNULL?$DO?$AA@ 000772e0     libeay32:b_print.obj
 0002:000102e8       ??_C@_0BB@JCEFLFJE@0123456789abcdef?$AA@ 000772e8     libeay32:b_print.obj
 0002:000102fc       ??_C@_0BB@JGGOGLEG@0123456789ABCDEF?$AA@ 000772fc     libeay32:b_print.obj
 0002:00010310       ??_C@_02MDDDDAID@0x?$AA@   00077310     libeay32:b_print.obj
 0002:00010314       ??_C@_01GBGANLPD@0?$AA@    00077314     libeay32:b_print.obj
 0002:00010318       ??_C@_07DKNGGOEP@doapr?$CI?$CJ?$AA@ 00077318     libeay32:b_print.obj
 0002:00010320       ??_C@_0FA@DONMMNBK@d?3?2wm653wehh?2platform?2mvv210?2src@ 00077320     libeay32:eng_lib.obj
 0002:00010370       ??_C@_0EP@KDEOOFHE@d?3?2wm653wehh?2platform?2mvv210?2src@ 00077370     libeay32:evp_asn1.obj
 0002:000103c0       ??_C@_0EP@EOLMKMCC@d?3?2wm653wehh?2platform?2mvv210?2src@ 000773c0     libeay32:a_object.obj
 0002:00010410       ??_C@_09OJNEAJGG@?$DMINVALID?$DO?$AA@ 00077410     libeay32:a_object.obj
 0002:00010420       ??_C@_0EO@DEEJNAGE@d?3?2wm653wehh?2platform?2mvv210?2src@ 00077420     libeay32:rsa_crpt.obj
 0002:000104b4       ??_C@_08DFMPDBMK@X509_SIG?$AA@ 000774b4     libeay32:x_sig.obj
 0002:000104c0       ??_C@_05CJCEEADM@algor?$AA@ 000774c0     libeay32:x_sig.obj
 0002:000104c8       ??_C@_0EL@CJHJHLOJ@d?3?2wm653wehh?2platform?2mvv210?2src@ 000774c8     libeay32:cmac.obj
 0002:00010528       ??_C@_0EP@DFJOCJBM@d?3?2wm653wehh?2platform?2mvv210?2src@ 00077528     libeay32:v3_utl.obj
 0002:00010578       ??_C@_05MAJJAKPI@FALSE?$AA@ 00077578     libeay32:v3_utl.obj
 0002:00010580       ??_C@_04HCDDPBNL@TRUE?$AA@ 00077580     libeay32:v3_utl.obj
 0002:00010588       ??_C@_07BDICHDDB@?0value?3?$AA@ 00077588     libeay32:v3_utl.obj
 0002:00010590       ??_C@_06FONLLLNC@?0name?3?$AA@ 00077590     libeay32:v3_utl.obj
 0002:00010598       ??_C@_08PCLJGJAL@section?3?$AA@ 00077598     libeay32:v3_utl.obj
 0002:000105a4       ??_C@_02KAJCLHKP@no?$AA@   000775a4     libeay32:v3_utl.obj
 0002:000105a8       ??_C@_02NFLNFON@NO?$AA@    000775a8     libeay32:v3_utl.obj
 0002:000105ac       ??_C@_01EFFIKLCJ@n?$AA@    000775ac     libeay32:v3_utl.obj
 0002:000105b0       ??_C@_01NANMIPIL@N?$AA@    000775b0     libeay32:v3_utl.obj
 0002:000105b4       ??_C@_05LAPONLG@false?$AA@ 000775b4     libeay32:v3_utl.obj
 0002:000105bc       ??_C@_03ICICOMAL@yes?$AA@  000775bc     libeay32:v3_utl.obj
 0002:000105c0       ??_C@_03IPHJCBHH@YES?$AA@  000775c0     libeay32:v3_utl.obj
 0002:000105c4       ??_C@_01EANLCPLP@y?$AA@    000775c4     libeay32:v3_utl.obj
 0002:000105c8       ??_C@_01NFFPALBN@Y?$AA@    000775c8     libeay32:v3_utl.obj
 0002:000105cc       ??_C@_04LOAJBDKD@true?$AA@ 000775cc     libeay32:v3_utl.obj
 0002:000105d4       ??_C@_0M@PCENNPGA@?$CFd?4?$CFd?4?$CFd?4?$CFd?$AA@ 000775d4     libeay32:v3_utl.obj
 0002:000105e0       ??_C@_0CF@JFAAPJDH@len?$DO?$DN0?5?$CG?$CG?5len?$DM?$DN?$CIint?$CJsizeof?$CIctx?9?$DO@ 000775e0     libeay32:hmac.obj
 0002:00010608       ??_C@_0BL@OKHNPHMK@j?5?$DM?$DN?5?$CIint?$CJsizeof?$CIctx?9?$DOkey?$CJ?$AA@ 00077608     libeay32:hmac.obj
 0002:00010628       ??_C@_0EL@FKOMILBN@d?3?2wm653wehh?2platform?2mvv210?2src@ 00077628     libeay32:hmac.obj
 0002:000106a0       ??_C@_0EL@KJLPEPL@d?3?2wm653wehh?2platform?2mvv210?2src@ 000776a0     libeay32:ec_lib.obj
 0002:000106ec       ECDSA_version              000776ec     libeay32:ecs_lib.obj
 0002:00010718       ??_C@_0EP@HDBDKLOP@d?3?2wm653wehh?2platform?2mvv210?2src@ 00077718     libeay32:ecs_lib.obj
 0002:00010768       ??_C@_0EL@FFHGPJNM@d?3?2wm653wehh?2platform?2mvv210?2src@ 00077768     libeay32:ec_key.obj
 0002:00013c30       ??_C@_0HB@IIAMGFOE@?6?7IPSec?1IKE?1Oakley?5curve?5?$CD4?5over@ 0007ac30     libeay32:ec_curve.obj
 0002:00013ca8       ??_C@_0HB@LGGCBEEP@?6?7IPSec?1IKE?1Oakley?5curve?5?$CD3?5over@ 0007aca8     libeay32:ec_curve.obj
 0002:00013d1c       ??_C@_0CG@MLNHEHNL@WTLS?5curvs?5over?5a?5224?5bit?5prime?5@ 0007ad1c     libeay32:ec_curve.obj
 0002:00013d44       ??_C@_0CG@JBBHINGJ@WTLS?5curve?5over?5a?5160?5bit?5prime?5@ 0007ad44     libeay32:ec_curve.obj
 0002:00013d6c       ??_C@_0CG@NOPNGNKB@WTLS?5curve?5over?5a?5112?5bit?5prime?5@ 0007ad6c     libeay32:ec_curve.obj
 0002:00013d94       ??_C@_0CH@PAECJHG@WTLS?5curve?5over?5a?5113?5bit?5binary@ 0007ad94     libeay32:ec_curve.obj
 0002:00013dbc       ??_C@_0CI@PHOKEIPD@X9?462?5curve?5over?5a?5431?5bit?5binar@ 0007adbc     libeay32:ec_curve.obj
 0002:00013de4       ??_C@_0CI@GLMEIDGJ@X9?462?5curve?5over?5a?5368?5bit?5binar@ 0007ade4     libeay32:ec_curve.obj
 0002:00013e0c       ??_C@_0CI@BDIPEOPL@X9?462?5curve?5over?5a?5359?5bit?5binar@ 0007ae0c     libeay32:ec_curve.obj
 0002:00013e34       ??_C@_0CI@PCOAONL@X9?462?5curve?5over?5a?5304?5bit?5binar@ 0007ae34     libeay32:ec_curve.obj
 0002:00013e5c       ??_C@_0CI@OMGMCAMF@X9?462?5curve?5over?5a?5272?5bit?5binar@ 0007ae5c     libeay32:ec_curve.obj
 0002:00013e84       ??_C@_0CI@IHGFALA@X9?462?5curve?5over?5a?5239?5bit?5binar@ 0007ae84     libeay32:ec_curve.obj
 0002:00013eac       ??_C@_0CI@HADNJNCC@X9?462?5curve?5over?5a?5208?5bit?5binar@ 0007aeac     libeay32:ec_curve.obj
 0002:00013ed4       ??_C@_0CI@CNNMGPOI@X9?462?5curve?5over?5a?5191?5bit?5binar@ 0007aed4     libeay32:ec_curve.obj
 0002:00013efc       ??_C@_0CI@HOBKKPME@X9?462?5curve?5over?5a?5176?5bit?5binar@ 0007aefc     libeay32:ec_curve.obj
 0002:00013f24       ??_C@_0CI@CFPHBJDI@X9?462?5curve?5over?5a?5163?5bit?5binar@ 0007af24     libeay32:ec_curve.obj
 0002:00013f4c       ??_C@_0CM@EACJKLC@NIST?1SECG?5curve?5over?5a?5571?5bit?5b@ 0007af4c     libeay32:ec_curve.obj
 0002:00013f78       ??_C@_0CM@HDDNKCDK@NIST?1SECG?5curve?5over?5a?5409?5bit?5b@ 0007af78     libeay32:ec_curve.obj
 0002:00013fa4       ??_C@_0CM@GFMOGKDK@NIST?1SECG?5curve?5over?5a?5283?5bit?5b@ 0007afa4     libeay32:ec_curve.obj
 0002:00013fd0       ??_C@_0CH@CLCLBOGN@SECG?5curve?5over?5a?5239?5bit?5binary@ 0007afd0     libeay32:ec_curve.obj
 0002:00013ff8       ??_C@_0DB@PNCPLOPN@NIST?1SECG?1WTLS?5curve?5over?5a?5233?5@ 0007aff8     libeay32:ec_curve.obj
 0002:0001402c       ??_C@_0CH@HKDFCHME@SECG?5curve?5over?5a?5193?5bit?5binary@ 0007b02c     libeay32:ec_curve.obj
 0002:00014054       ??_C@_0CM@HCIKDLO@NIST?1SECG?5curve?5over?5a?5163?5bit?5b@ 0007b054     libeay32:ec_curve.obj
 0002:00014080       ??_C@_0CH@GKKFHOF@SECG?5curve?5over?5a?5163?5bit?5binary@ 0007b080     libeay32:ec_curve.obj
 0002:000140a8       ??_C@_0DB@KNLLOMAB@NIST?1SECG?1WTLS?5curve?5over?5a?5163?5@ 0007b0a8     libeay32:ec_curve.obj
 0002:000140dc       ??_C@_0CH@FJJEIBAL@SECG?5curve?5over?5a?5131?5bit?5binary@ 0007b0dc     libeay32:ec_curve.obj
 0002:00014104       ??_C@_0CM@EPOILLGK@SECG?1WTLS?5curve?5over?5a?5131?5bit?5b@ 0007b104     libeay32:ec_curve.obj
 0002:00014130       ??_C@_0CH@OHOOPBHG@SECG?5curve?5over?5a?5113?5bit?5binary@ 0007b130     libeay32:ec_curve.obj
 0002:00014158       ??_C@_0CM@IACJENLF@X9?462?1SECG?5curve?5over?5a?5256?5bit?5@ 0007b158     libeay32:ec_curve.obj
 0002:00014184       ??_C@_0CH@COBCAEEE@X9?462?5curve?5over?5a?5239?5bit?5prime@ 0007b184     libeay32:ec_curve.obj
 0002:000141ac       ??_C@_0CH@BHJCBJE@X9?462?5curve?5over?5a?5192?5bit?5prime@ 0007b1ac     libeay32:ec_curve.obj
 0002:000141d4       ??_C@_0DB@HJIMEGJL@NIST?1X9?462?1SECG?5curve?5over?5a?5192@ 0007b1d4     libeay32:ec_curve.obj
 0002:00014208       ??_C@_0CL@NCEJLDDF@NIST?1SECG?5curve?5over?5a?5521?5bit?5p@ 0007b208     libeay32:ec_curve.obj
 0002:00014234       ??_C@_0CL@MPIFFEHD@NIST?1SECG?5curve?5over?5a?5384?5bit?5p@ 0007b234     libeay32:ec_curve.obj
 0002:00014260       ??_C@_0CG@MBJIMJMI@SECG?5curve?5over?5a?5256?5bit?5prime?5@ 0007b260     libeay32:ec_curve.obj
 0002:00014288       ??_C@_0CL@NHPHHEEB@NIST?1SECG?5curve?5over?5a?5224?5bit?5p@ 0007b288     libeay32:ec_curve.obj
 0002:000142b4       ??_C@_0CG@IOHCCJAA@SECG?5curve?5over?5a?5224?5bit?5prime?5@ 0007b2b4     libeay32:ec_curve.obj
 0002:000142dc       ??_C@_0CG@IFFAEDGD@SECG?5curve?5over?5a?5192?5bit?5prime?5@ 0007b2dc     libeay32:ec_curve.obj
 0002:00014304       ??_C@_0CL@NDOOJKPB@SECG?1WTLS?5curve?5over?5a?5160?5bit?5p@ 0007b304     libeay32:ec_curve.obj
 0002:00014330       ??_C@_0CG@MDBLLOCO@SECG?5curve?5over?5a?5160?5bit?5prime?5@ 0007b330     libeay32:ec_curve.obj
 0002:00014358       ??_C@_0CG@DNCCBNMA@SECG?5curve?5over?5a?5128?5bit?5prime?5@ 0007b358     libeay32:ec_curve.obj
 0002:00014380       ??_C@_0CG@IMPBFOOG@SECG?5curve?5over?5a?5112?5bit?5prime?5@ 0007b380     libeay32:ec_curve.obj
 0002:000143a8       ??_C@_0CL@JMAEHKDJ@SECG?1WTLS?5curve?5over?5a?5112?5bit?5p@ 0007b3a8     libeay32:ec_curve.obj
 0002:000143d8       ??_C@_0EN@GGBLGKDN@d?3?2wm653wehh?2platform?2mvv210?2src@ 0007b3d8     libeay32:ec_curve.obj
 0002:00014668       ??_C@_08CCPALKOP@priv_key?$AA@ 0007b668     libeay32:dsa_asn1.obj
 0002:00014674       ??_C@_07CLGEADLH@pub_key?$AA@ 0007b674     libeay32:dsa_asn1.obj
 0002:0001467c       ??_C@_01JEJKBAGA@g?$AA@    0007b67c     libeay32:dsa_asn1.obj
 0002:00014680       ??_C@_01IIACKFLH@q?$AA@    0007b680     libeay32:dsa_asn1.obj
 0002:00014684       ??_C@_01JBBJJEPG@p?$AA@    0007b684     libeay32:dsa_asn1.obj
 0002:00014688       ??_C@_07CPCPJPKL@version?$AA@ 0007b688     libeay32:dsa_asn1.obj
 0002:00014690       ??_C@_07ECLLFBLJ@DSA_SIG?$AA@ 0007b690     libeay32:dsa_asn1.obj
 0002:00014698       ??_C@_01LKDEMHDF@s?$AA@    0007b698     libeay32:dsa_asn1.obj
 0002:0001469c       ??_C@_01KDCPPGHE@r?$AA@    0007b69c     libeay32:dsa_asn1.obj
 0002:000146a0       ??_C@_0EO@DLELNGDB@d?3?2wm653wehh?2platform?2mvv210?2src@ 0007b6a0     libeay32:dsa_asn1.obj
 0002:000146f0       DSA_version                0007b6f0     libeay32:dsa_lib.obj
 0002:00014718       ??_C@_0EN@HPPIDPIC@d?3?2wm653wehh?2platform?2mvv210?2src@ 0007b718     libeay32:dsa_lib.obj
 0002:00014768       DH_version                 0007b768     libeay32:dh_lib.obj
 0002:000147a0       ??_C@_0EL@PIAODHMF@d?3?2wm653wehh?2platform?2mvv210?2src@ 0007b7a0     libeay32:dh_lib.obj
 0002:000147f0       ??_C@_0EL@BNOPJFLP@d?3?2wm653wehh?2platform?2mvv210?2src@ 0007b7f0     libeay32:dh_gen.obj
 0002:0001483c       ??_C@_0BC@MGHKLCAP@OpenSSL?5DH?5Method?$AA@ 0007b83c     libeay32:dh_key.obj
 0002:00014850       ??_C@_0EL@KHODDKOC@d?3?2wm653wehh?2platform?2mvv210?2src@ 0007b850     libeay32:dh_key.obj
 0002:000148b8       BN_version                 0007b8b8     libeay32:bn_lib.obj
 0002:000149e8       ??_C@_0EL@EKPDCIGL@d?3?2wm653wehh?2platform?2mvv210?2src@ 0007b9e8     libeay32:bn_lib.obj
 0002:00014a40       ??_C@_0EN@HNNJMEMO@d?3?2wm653wehh?2platform?2mvv210?2src@ 0007ba40     libeay32:rsa_pss.obj
 0002:00014a90       ??_C@_0EO@IHJGGIGJ@d?3?2wm653wehh?2platform?2mvv210?2src@ 0007ba90     libeay32:rsa_x931.obj
 0002:00014ae0       ??_C@_0EO@KJLCAEHF@d?3?2wm653wehh?2platform?2mvv210?2src@ 0007bae0     libeay32:rsa_saos.obj
 0002:00014d30       ??_C@_0M@MMOLGLEG@X509_ALGORS?$AA@ 0007bd30     libeay32:x_algor.obj
 0002:00014d3c       ??_C@_0L@BNOBMJFK@algorithms?$AA@ 0007bd3c     libeay32:x_algor.obj
 0002:00014d48       ??_C@_0L@BFHONDPK@X509_ALGOR?$AA@ 0007bd48     libeay32:x_algor.obj
 0002:00014d54       ??_C@_09DAGAJHIH@parameter?$AA@ 0007bd54     libeay32:x_algor.obj
 0002:00014d60       ??_C@_0EN@EGODLFJH@d?3?2wm653wehh?2platform?2mvv210?2src@ 0007bd60     libeay32:cms_env.obj
 0002:00014dc8       ??_C@_0EN@HOIICIBH@d?3?2wm653wehh?2platform?2mvv210?2src@ 0007bdc8     libeay32:bn_print.obj
 0002:00014e18       ??_C@_04LJCFADJL@?$CF09u?$AA@ 0007be18     libeay32:bn_print.obj
 0002:00014e20       ??_C@_02GMHACPFF@?$CFu?$AA@ 0007be20     libeay32:bn_print.obj
 0002:00014e24       ??_C@_01JOAMLHOP@?9?$AA@   0007be24     libeay32:bn_print.obj
 0002:00014e28       RSA_version                0007be28     libeay32:rsa_lib.obj
 0002:00014e50       ??_C@_0EN@MLDILJPH@d?3?2wm653wehh?2platform?2mvv210?2src@ 0007be50     libeay32:rsa_lib.obj
 0002:00014ea0       ??_C@_0EN@CONJBLIN@d?3?2wm653wehh?2platform?2mvv210?2src@ 0007bea0     libeay32:rsa_gen.obj
 0002:00014ef0       ??_C@_0FB@OACJPALH@d?3?2wm653wehh?2platform?2mvv210?2src@ 0007bef0     libeay32:obj_lib.obj
 0002:00014f48       ??_C@_0EN@MBCJMNEM@d?3?2wm653wehh?2platform?2mvv210?2src@ 0007bf48     libeay32:bio_lib.obj
 0002:00014f98       ??_C@_01CLKCMJKC@?5?$AA@   0007bf98     libeay32:bio_lib.obj
 0002:00014f9c       ASN1_version               0007bf9c     libeay32:asn1_lib.obj
 0002:00014fc8       ??_C@_0EP@DFJJGEMF@d?3?2wm653wehh?2platform?2mvv210?2src@ 0007bfc8     libeay32:asn1_lib.obj
 0002:000150a0       ??_C@_06IEOJBDIK@object?$AA@ 0007c0a0     libeay32:x_attrib.obj
 0002:000150a8       ??_C@_0P@IBKNNFL@X509_ATTRIBUTE?$AA@ 0007c0a8     libeay32:x_attrib.obj
 0002:000150b8       ??_C@_0N@MCAEPLPL@value?4single?$AA@ 0007c0b8     libeay32:x_attrib.obj
 0002:000150c8       ??_C@_09MPCDAIAO@value?4set?$AA@ 0007c0c8     libeay32:x_attrib.obj
 0002:00015460       ??_C@_0EN@ODDCBIPI@d?3?2wm653wehh?2platform?2mvv210?2src@ 0007c460     libeay32:evp_pbe.obj
 0002:000154b0       ??_C@_05DLJFLBDA@TYPE?$DN?$AA@ 0007c4b0     libeay32:evp_pbe.obj
 0002:000154b8       ??_C@_02DKCKIIND@?$CFs?$AA@ 0007c4b8     libeay32:eng_ctrl.obj
 0002:000154bc       ??_C@_0N@JAGKAFD@FILE?5pointer?$AA@ 0007c4bc     libeay32:bss_file.obj
 0002:000154d0       ??_C@_0EO@GEBEJMNG@d?3?2wm653wehh?2platform?2mvv210?2src@ 0007c4d0     libeay32:bss_file.obj
 0002:00015520       ??_C@_02HJPKOJGD@?8?$CJ?$AA@ 0007c520     libeay32:bss_file.obj
 0002:00015524       ??_C@_03IMMLKIF@?8?0?8?$AA@ 0007c524     libeay32:bss_file.obj
 0002:00015528       ??_C@_07JMDFGFFH@fopen?$CI?8?$AA@ 0007c528     libeay32:bss_file.obj
 0002:00015530       ??_C@_01PFHFFBPC@t?$AA@    0007c530     libeay32:bss_file.obj
 0002:00015534       ??_C@_01OJONOECF@b?$AA@    0007c534     libeay32:bss_file.obj
 0002:00015538       ??_C@_01NOFIACDB@w?$AA@    0007c538     libeay32:bss_file.obj
 0002:0001553c       ??_C@_02CBLLGHLK@r?$CL?$AA@ 0007c53c     libeay32:bss_file.obj
 0002:00015540       ??_C@_02DPNLHKJD@a?$CL?$AA@ 0007c540     libeay32:bss_file.obj
 0002:00015548       ??_C@_0EJ@IBNICOFA@d?3?2wm653wehh?2platform?2mvv210?2src@ 0007c548     libeay32:ex_data.obj
 0002:00015598       ??_C@_0FC@BNEDDMOL@d?3?2wm653wehh?2platform?2mvv210?2src@ 0007c598     libeay32:tb_asnmth.obj
 0002:00015908       ??_C@_0N@KHICOJGI@ASN1_SET_ANY?$AA@ 0007c908     libeay32:tasn_typ.obj
 0002:00015918       ??_C@_0BC@COPGMDLD@ASN1_SEQUENCE_ANY?$AA@ 0007c918     libeay32:tasn_typ.obj
 0002:0001592c       ??_C@_0BH@HEBAELGA@ASN1_OCTET_STRING_NDEF?$AA@ 0007c92c     libeay32:tasn_typ.obj
 0002:00015944       ??_C@_0O@JKANHMPI@ASN1_FBOOLEAN?$AA@ 0007c944     libeay32:tasn_typ.obj
 0002:00015954       ??_C@_0O@BIDLBGAP@ASN1_TBOOLEAN?$AA@ 0007c954     libeay32:tasn_typ.obj
 0002:00015964       ??_C@_0N@HMAPMMGF@ASN1_BOOLEAN?$AA@ 0007c964     libeay32:tasn_typ.obj
 0002:00015974       ??_C@_0BA@CBHCBCAE@DIRECTORYSTRING?$AA@ 0007c974     libeay32:tasn_typ.obj
 0002:00015984       ??_C@_0M@FANFDIEE@DISPLAYTEXT?$AA@ 0007c984     libeay32:tasn_typ.obj
 0002:00015990       ??_C@_0P@NDKOCAEJ@ASN1_PRINTABLE?$AA@ 0007c990     libeay32:tasn_typ.obj
 0002:000159a0       ??_C@_0O@NJFCFMGE@ASN1_SEQUENCE?$AA@ 0007c9a0     libeay32:tasn_typ.obj
 0002:000159b0       ??_C@_08FIDCPDIJ@ASN1_ANY?$AA@ 0007c9b0     libeay32:tasn_typ.obj
 0002:000159bc       ??_C@_0P@CHICPHIN@ASN1_BMPSTRING?$AA@ 0007c9bc     libeay32:tasn_typ.obj
 0002:000159cc       ??_C@_0BF@DMDDFBNJ@ASN1_UNIVERSALSTRING?$AA@ 0007c9cc     libeay32:tasn_typ.obj
 0002:000159e4       ??_C@_0BD@HMMCNBGD@ASN1_VISIBLESTRING?$AA@ 0007c9e4     libeay32:tasn_typ.obj
 0002:000159f8       ??_C@_0BF@MPJFOIHC@ASN1_GENERALIZEDTIME?$AA@ 0007c9f8     libeay32:tasn_typ.obj
 0002:00015a10       ??_C@_0N@OIMCLPEM@ASN1_UTCTIME?$AA@ 0007ca10     libeay32:tasn_typ.obj
 0002:00015a20       ??_C@_0BD@EMMGLGMD@ASN1_GENERALSTRING?$AA@ 0007ca20     libeay32:tasn_typ.obj
 0002:00015a34       ??_C@_0P@KBFNFBLB@ASN1_IA5STRING?$AA@ 0007ca34     libeay32:tasn_typ.obj
 0002:00015a44       ??_C@_0P@GDIFPLAP@ASN1_T61STRING?$AA@ 0007ca44     libeay32:tasn_typ.obj
 0002:00015a54       ??_C@_0BF@CPDMNKCA@ASN1_PRINTABLESTRING?$AA@ 0007ca54     libeay32:tasn_typ.obj
 0002:00015a6c       ??_C@_0BA@LEPDCAOC@ASN1_UTF8STRING?$AA@ 0007ca6c     libeay32:tasn_typ.obj
 0002:00015a7c       ??_C@_0M@BJNOJGBL@ASN1_OBJECT?$AA@ 0007ca7c     libeay32:tasn_typ.obj
 0002:00015a88       ??_C@_09NHFFCPKK@ASN1_NULL?$AA@ 0007ca88     libeay32:tasn_typ.obj
 0002:00015a94       ??_C@_0BC@PEBEKNCO@ASN1_OCTET_STRING?$AA@ 0007ca94     libeay32:tasn_typ.obj
 0002:00015aa8       ??_C@_0BA@LJHGDIKH@ASN1_BIT_STRING?$AA@ 0007caa8     libeay32:tasn_typ.obj
 0002:00015ab8       ??_C@_0BA@CLGIIAJD@ASN1_ENUMERATED?$AA@ 0007cab8     libeay32:tasn_typ.obj
 0002:00015ac8       ??_C@_0N@KIGEHGKE@ASN1_INTEGER?$AA@ 0007cac8     libeay32:tasn_typ.obj
 0002:00015ad8       ??_C@_0EM@IJKLDGFG@d?3?2wm653wehh?2platform?2mvv210?2src@ 0007cad8     libeay32:a_int.obj
 0002:00015b28       ??_C@_0EN@CHOOKOEN@d?3?2wm653wehh?2platform?2mvv210?2src@ 0007cb28     libeay32:bn_blind.obj
 0002:00015b78       ??_C@_0EL@BMHBHOHG@d?3?2wm653wehh?2platform?2mvv210?2src@ 0007cb78     libeay32:bn_ctx.obj
 0002:00015bc8       ??_C@_0EL@EPOPJPNF@d?3?2wm653wehh?2platform?2mvv210?2src@ 0007cbc8     libeay32:bn_gcd.obj
 0002:00015c18       ??_C@_0EL@CLJGKANI@d?3?2wm653wehh?2platform?2mvv210?2src@ 0007cc18     libeay32:bn_add.obj
 0002:00015ce8       ??_C@_0EP@IJPFBBNM@d?3?2wm653wehh?2platform?2mvv210?2src@ 0007cce8     libeay32:tasn_dec.obj
 0002:00015d38       ??_C@_05GCCLHHOK@Type?$DN?$AA@ 0007cd38     libeay32:tasn_dec.obj
 0002:00015d40       ??_C@_07NHKPEHKF@?0?5Type?$DN?$AA@ 0007cd40     libeay32:tasn_dec.obj
 0002:00015d48       ??_C@_06GPKHKFJE@Field?$DN?$AA@ 0007cd48     libeay32:tasn_dec.obj
 0002:00015d50       ??_C@_0EP@DFHJPDGI@d?3?2wm653wehh?2platform?2mvv210?2src@ 0007cd50     libeay32:tasn_enc.obj
 0002:00015da0       ??_C@_0EP@PHBFPCHC@d?3?2wm653wehh?2platform?2mvv210?2src@ 0007cda0     libeay32:tasn_new.obj
 0002:00015df0       EVP_version                0007cdf0     libeay32:evp_enc.obj
 0002:00015e18       ??_C@_0EN@FALCDJAN@d?3?2wm653wehh?2platform?2mvv210?2src@ 0007ce18     libeay32:evp_enc.obj
 0002:00015e68       ??_C@_0BM@NOPGEACO@bl?5?$DM?$DN?5?$CIint?$CJsizeof?$CIctx?9?$DObuf?$CJ?$AA@ 0007ce68     libeay32:evp_enc.obj
 0002:00015e84       ??_C@_0BF@NLHGELBH@b?5?$DM?$DN?5sizeof?5ctx?9?$DObuf?$AA@ 0007ce84     libeay32:evp_enc.obj
 0002:00015e9c       ??_C@_0BH@JPOFFCDO@b?5?$DM?$DN?5sizeof?5ctx?9?$DOfinal?$AA@ 0007ce9c     libeay32:evp_enc.obj
 0002:00015eb4       ??_C@_0DG@IKOHIL@EVP_CIPHER_CTX_iv_length?$CIctx?$CJ?5?$DM?$DN@ 0007ceb4     libeay32:evp_enc.obj
 0002:00015ef0       ??_C@_0FO@KIBMBINE@ctx?9?$DOcipher?9?$DOblock_size?5?$DN?$DN?51?5?$HM?$HM?5@ 0007cef0     libeay32:evp_enc.obj
 0002:00015f50       ??_C@_0EN@MHHCMNBH@d?3?2wm653wehh?2platform?2mvv210?2src@ 0007cf50     libeay32:a_enum.obj
 0002:00015fa0       ??_C@_0EP@KFOAJJMD@d?3?2wm653wehh?2platform?2mvv210?2src@ 0007cfa0     libeay32:x509name.obj
 0002:00015ff0       ??_C@_05DFCJAACA@name?$DN?$AA@ 0007cff0     libeay32:x509name.obj
 0002:0001606c       v3_sinfo                   0007d06c     libeay32:v3_info.obj
 0002:000160a4       v3_info                    0007d0a4     libeay32:v3_info.obj
 0002:000160dc       ??_C@_0BG@PFEKCAHJ@AUTHORITY_INFO_ACCESS?$AA@ 0007d0dc     libeay32:v3_info.obj
 0002:000160f4       ??_C@_0N@CJKIBDLK@GeneralNames?$AA@ 0007d0f4     libeay32:v3_info.obj
 0002:00016104       ??_C@_0BD@IKHCEBLA@ACCESS_DESCRIPTION?$AA@ 0007d104     libeay32:v3_info.obj
 0002:00016118       ??_C@_08CBBFJFMD@location?$AA@ 0007d118     libeay32:v3_info.obj
 0002:00016124       ??_C@_06GABBCIBA@method?$AA@ 0007d124     libeay32:v3_info.obj
 0002:0001612c       ??_C@_03NLJIHOMM@?5?9?5?$AA@ 0007d12c     libeay32:v3_info.obj
 0002:00016130       ??_C@_0FA@EJINBECP@d?3?2wm653wehh?2platform?2mvv210?2src@ 0007d130     libeay32:v3_info.obj
 0002:00016180       ??_C@_06KFEJCPI@value?$DN?$AA@ 0007d180     libeay32:v3_info.obj
 0002:00016188       ??_C@_0EP@JMDNBNIF@d?3?2wm653wehh?2platform?2mvv210?2src@ 0007d188     libeay32:conf_mod.obj
 0002:000161d8       ??_C@_01KMDKNFGN@?1?$AA@   0007d1d8     libeay32:conf_mod.obj
 0002:0001636c       ??_C@_0O@NFAAPMIG@GENERAL_NAMES?$AA@ 0007d36c     libeay32:v3_genn.obj
 0002:0001637c       ??_C@_0N@JCNPGCGM@GENERAL_NAME?$AA@ 0007d37c     libeay32:v3_genn.obj
 0002:0001638c       ??_C@_0P@KIENIEMD@d?4registeredID?$AA@ 0007d38c     libeay32:v3_genn.obj
 0002:0001639c       ??_C@_0M@PANAALJB@d?4iPAddress?$AA@ 0007d39c     libeay32:v3_genn.obj
 0002:000163a8       ??_C@_0BM@CMCMADCA@d?4uniformResourceIdentifier?$AA@ 0007d3a8     libeay32:v3_genn.obj
 0002:000163c4       ??_C@_0P@OBCPPLOL@d?4ediPartyName?$AA@ 0007d3c4     libeay32:v3_genn.obj
 0002:000163d4       ??_C@_0BA@JLDFBFLN@d?4directoryName?$AA@ 0007d3d4     libeay32:v3_genn.obj
 0002:000163e4       ??_C@_0O@NKHOODFK@d?4x400Address?$AA@ 0007d3e4     libeay32:v3_genn.obj
 0002:000163f4       ??_C@_09HIBJABFB@d?4dNSName?$AA@ 0007d3f4     libeay32:v3_genn.obj
 0002:00016400       ??_C@_0N@MMCCMIPN@d?4rfc822Name?$AA@ 0007d400     libeay32:v3_genn.obj
 0002:00016410       ??_C@_0M@FGIBMCEL@d?4otherName?$AA@ 0007d410     libeay32:v3_genn.obj
 0002:0001641c       ??_C@_0N@GEILLNKP@EDIPARTYNAME?$AA@ 0007d41c     libeay32:v3_genn.obj
 0002:0001642c       ??_C@_09EHIHAIPF@partyName?$AA@ 0007d42c     libeay32:v3_genn.obj
 0002:00016438       ??_C@_0N@KBFEHHDO@nameAssigner?$AA@ 0007d438     libeay32:v3_genn.obj
 0002:00016448       ??_C@_09MAFAINAH@OTHERNAME?$AA@ 0007d448     libeay32:v3_genn.obj
 0002:00016454       ??_C@_05MFEJDJP@value?$AA@ 0007d454     libeay32:v3_genn.obj
 0002:0001645c       ??_C@_07EEDOJOAA@type_id?$AA@ 0007d45c     libeay32:v3_genn.obj
 0002:000164ec       ??_C@_0BA@JCMMJNEE@X509_EXTENSIONS?$AA@ 0007d4ec     libeay32:x_exten.obj
 0002:000164fc       ??_C@_09KMFOEAAA@Extension?$AA@ 0007d4fc     libeay32:x_exten.obj
 0002:00016508       ??_C@_0P@OMHBNPIC@X509_EXTENSION?$AA@ 0007d508     libeay32:x_exten.obj
 0002:00016518       ??_C@_08CBBMEOFB@critical?$AA@ 0007d518     libeay32:x_exten.obj
 0002:00016528       ??_C@_0EM@NFBEAOGE@d?3?2wm653wehh?2platform?2mvv210?2src@ 0007d528     libeay32:ec_mult.obj
 0002:000165b8       ??_C@_09FLJPBFIA@ECDSA_SIG?$AA@ 0007d5b8     libeay32:ecs_asn1.obj
 0002:000165c4       ??_C@_0BF@DJKLHCAL@OpenSSL?5ECDSA?5method?$AA@ 0007d5c4     libeay32:ecs_ossl.obj
 0002:000165e0       ??_C@_0FA@PJGMNPFB@d?3?2wm653wehh?2platform?2mvv210?2src@ 0007d5e0     libeay32:ecs_ossl.obj
 0002:00016634       ECDH_version               0007d634     libeay32:ech_lib.obj
 0002:00016660       ??_C@_0EO@JGKBLENE@d?3?2wm653wehh?2platform?2mvv210?2src@ 0007d660     libeay32:ech_lib.obj
 0002:000166b0       ??_C@_0EM@GFDFNKJ@d?3?2wm653wehh?2platform?2mvv210?2src@ 0007d6b0     libeay32:bn_rand.obj
 0002:00016734       ??_C@_06CHOIGJDB@BIGNUM?$AA@ 0007d734     libeay32:x_bignum.obj
 0002:00016774       ??_C@_05HIGAPBOG@ZLONG?$AA@ 0007d774     libeay32:x_long.obj
 0002:0001677c       ??_C@_04KCJFIMMJ@LONG?$AA@ 0007d77c     libeay32:x_long.obj
 0002:00016788       ??_C@_0EN@OBFIOJLM@d?3?2wm653wehh?2platform?2mvv210?2src@ 0007d788     libeay32:x_long.obj
 0002:000167d8       ??_C@_04PEDNGLFL@?$CFld?6?$AA@ 0007d7d8     libeay32:x_long.obj
 0002:000167e0       ??_C@_0EM@KNGHBEEM@d?3?2wm653wehh?2platform?2mvv210?2src@ 0007d7e0     libeay32:a_dup.obj
 0002:00016830       ??_C@_0EO@PHDJAHKO@d?3?2wm653wehh?2platform?2mvv210?2src@ 0007d830     libeay32:dsa_sign.obj
 0002:00016880       ??_C@_0BD@IBKHKBJA@OpenSSL?5DSA?5method?$AA@ 0007d880     libeay32:dsa_ossl.obj
 0002:00016898       ??_C@_0EO@MKGDCJCA@d?3?2wm653wehh?2platform?2mvv210?2src@ 0007d898     libeay32:dsa_ossl.obj
 0002:000168f0       ??_C@_0EL@MKGMFIIF@d?3?2wm653wehh?2platform?2mvv210?2src@ 0007d8f0     libeay32:bn_exp.obj
 0002:00016940       ??_C@_0EM@PNNGIHGB@d?3?2wm653wehh?2platform?2mvv210?2src@ 0007d940     libeay32:bn_mont.obj
 0002:00016990       ??_C@_0EL@HJNLGKMO@d?3?2wm653wehh?2platform?2mvv210?2src@ 0007d990     libeay32:bn_div.obj
 0002:000179e8       ??_C@_0EO@FBMJEFIA@d?3?2wm653wehh?2platform?2mvv210?2src@ 0007e9e8     libeay32:rsa_oaep.obj
 0002:00017a38       SHA1_version               0007ea38     libeay32:sha1dgst.obj
 0002:00017a60       SHA256_version             0007ea60     libeay32:sha256.obj
 0002:00017b90       SHA512_version             0007eb90     libeay32:sha512.obj
 0002:00018c1c       ??_C@_0M@GJHAMFIP@CMS_Receipt?$AA@ 0007fc1c     libeay32:cms_asn1.obj
 0002:00018c28       ??_C@_0BJ@OPFDHHHB@originatorSignatureValue?$AA@ 0007fc28     libeay32:cms_asn1.obj
 0002:00018c44       ??_C@_0BD@KOFKAGLC@CMS_ReceiptRequest?$AA@ 0007fc44     libeay32:cms_asn1.obj
 0002:00018c58       ??_C@_0L@BBBJMFCF@receiptsTo?$AA@ 0007fc58     libeay32:cms_asn1.obj
 0002:00018c64       ??_C@_0N@CIHGCFJG@receiptsFrom?$AA@ 0007fc64     libeay32:cms_asn1.obj
 0002:00018c74       ??_C@_0BI@BHIBPADG@signedContentIdentifier?$AA@ 0007fc74     libeay32:cms_asn1.obj
 0002:00018c8c       ??_C@_0BB@JKAAKCKP@CMS_ReceiptsFrom?$AA@ 0007fc8c     libeay32:cms_asn1.obj
 0002:00018ca0       ??_C@_0O@ECMNNMJA@d?4receiptList?$AA@ 0007fca0     libeay32:cms_asn1.obj
 0002:00018cb0       ??_C@_0BB@DENHEDOF@d?4allOrFirstTier?$AA@ 0007fcb0     libeay32:cms_asn1.obj
 0002:00018cc4       ??_C@_0BG@NLALJKHJ@CMS_Attributes_Verify?$AA@ 0007fcc4     libeay32:cms_asn1.obj
 0002:00018cdc       ??_C@_0BE@PAHMALPK@CMS_Attributes_Sign?$AA@ 0007fcdc     libeay32:cms_asn1.obj
 0002:00018cf0       ??_C@_0P@KAJKPCJH@CMS_ATTRIBUTES?$AA@ 0007fcf0     libeay32:cms_asn1.obj
 0002:00018d00       ??_C@_0BA@ECDDPOHH@CMS_ContentInfo?$AA@ 0007fd00     libeay32:cms_asn1.obj
 0002:00018d10       ??_C@_0BB@NELCELCK@d?4compressedData?$AA@ 0007fd10     libeay32:cms_asn1.obj
 0002:00018d24       ??_C@_0BE@NPCJHPOJ@d?4authenticatedData?$AA@ 0007fd24     libeay32:cms_asn1.obj
 0002:00018d38       ??_C@_0BA@HJCBJEH@d?4encryptedData?$AA@ 0007fd38     libeay32:cms_asn1.obj
 0002:00018d48       ??_C@_0P@HJCJOBOP@d?4digestedData?$AA@ 0007fd48     libeay32:cms_asn1.obj
 0002:00018d58       ??_C@_0BA@CCFAJLBF@d?4envelopedData?$AA@ 0007fd58     libeay32:cms_asn1.obj
 0002:00018d68       ??_C@_0N@DDIMJOHE@d?4signedData?$AA@ 0007fd68     libeay32:cms_asn1.obj
 0002:00018d78       ??_C@_06OAPKPHLA@d?4data?$AA@ 0007fd78     libeay32:cms_asn1.obj
 0002:00018d80       ??_C@_0BD@IAIGGNCI@CMS_CompressedData?$AA@ 0007fd80     libeay32:cms_asn1.obj
 0002:00018d94       ??_C@_0BF@PNIPCJJ@compressionAlgorithm?$AA@ 0007fd94     libeay32:cms_asn1.obj
 0002:00018dac       ??_C@_0BG@DOMHNMEC@CMS_AuthenticatedData?$AA@ 0007fdac     libeay32:cms_asn1.obj
 0002:00018dc4       ??_C@_0M@FBFPDIHA@unauthAttrs?$AA@ 0007fdc4     libeay32:cms_asn1.obj
 0002:00018dd0       ??_C@_03BADCJGEO@mac?$AA@  0007fdd0     libeay32:cms_asn1.obj
 0002:00018dd4       ??_C@_09HHELNNLD@authAttrs?$AA@ 0007fdd4     libeay32:cms_asn1.obj
 0002:00018de0       ??_C@_0N@PGIFJMM@macAlgorithm?$AA@ 0007fde0     libeay32:cms_asn1.obj
 0002:00018df0       ??_C@_0BC@ONODDCLB@CMS_EncryptedData?$AA@ 0007fdf0     libeay32:cms_asn1.obj
 0002:00018e04       ??_C@_0BB@NNEFCOGL@CMS_DigestedData?$AA@ 0007fe04     libeay32:cms_asn1.obj
 0002:00018e18       ??_C@_0BC@MICBLAOD@CMS_EnvelopedData?$AA@ 0007fe18     libeay32:cms_asn1.obj
 0002:00018e2c       ??_C@_0BB@JCNJKAMK@unprotectedAttrs?$AA@ 0007fe2c     libeay32:cms_asn1.obj
 0002:00018e40       ??_C@_0BF@OHLPJHAO@encryptedContentInfo?$AA@ 0007fe40     libeay32:cms_asn1.obj
 0002:00018e58       ??_C@_0P@MHKJPFAE@recipientInfos?$AA@ 0007fe58     libeay32:cms_asn1.obj
 0002:00018e68       ??_C@_0P@HMLDCEHI@originatorInfo?$AA@ 0007fe68     libeay32:cms_asn1.obj
 0002:00018e78       ??_C@_0BC@OIOGGOHC@CMS_RecipientInfo?$AA@ 0007fe78     libeay32:cms_asn1.obj
 0002:00018e8c       ??_C@_05CDKGAJPA@d?4ori?$AA@ 0007fe8c     libeay32:cms_asn1.obj
 0002:00018e94       ??_C@_06MMLMDIAL@d?4pwri?$AA@ 0007fe94     libeay32:cms_asn1.obj
 0002:00018e9c       ??_C@_07GNHCNHGA@d?4kekri?$AA@ 0007fe9c     libeay32:cms_asn1.obj
 0002:00018ea4       ??_C@_06KOPOJGNL@d?4kari?$AA@ 0007fea4     libeay32:cms_asn1.obj
 0002:00018eac       ??_C@_06MJDJDBHG@d?4ktri?$AA@ 0007feac     libeay32:cms_asn1.obj
 0002:00018eb4       ??_C@_0BH@ELFPNLNE@CMS_OtherRecipientInfo?$AA@ 0007feb4     libeay32:cms_asn1.obj
 0002:00018ecc       ??_C@_08CPLCPCAK@oriValue?$AA@ 0007fecc     libeay32:cms_asn1.obj
 0002:00018ed8       ??_C@_07FAMFHMLO@oriType?$AA@ 0007fed8     libeay32:cms_asn1.obj
 0002:00018ee0       ??_C@_0BK@KBPCOALF@CMS_PasswordRecipientInfo?$AA@ 0007fee0     libeay32:cms_asn1.obj
 0002:00018efc       ??_C@_0BH@OGDBOKG@keyDerivationAlgorithm?$AA@ 0007fefc     libeay32:cms_asn1.obj
 0002:00018f14       ??_C@_0BF@NBHFGDNK@CMS_KEKRecipientInfo?$AA@ 0007ff14     libeay32:cms_asn1.obj
 0002:00018f2c       ??_C@_05NHGMHHPG@kekid?$AA@ 0007ff2c     libeay32:cms_asn1.obj
 0002:00018f34       ??_C@_0BC@MBEMIKEG@CMS_KEKIdentifier?$AA@ 0007ff34     libeay32:cms_asn1.obj
 0002:00018f48       ??_C@_0O@NFJHJHKH@keyIdentifier?$AA@ 0007ff48     libeay32:cms_asn1.obj
 0002:00018f58       ??_C@_0BK@FMJLFKK@CMS_KeyAgreeRecipientInfo?$AA@ 0007ff58     libeay32:cms_asn1.obj
 0002:00018f74       ??_C@_0BH@PJIHPFGD@recipientEncryptedKeys?$AA@ 0007ff74     libeay32:cms_asn1.obj
 0002:00018f8c       ??_C@_03BGILEBGG@ukm?$AA@  0007ff8c     libeay32:cms_asn1.obj
 0002:00018f90       ??_C@_0L@LNFLHOFG@originator?$AA@ 0007ff90     libeay32:cms_asn1.obj
 0002:00018f9c       ??_C@_0BO@EGGGKLC@CMS_OriginatorIdentifierOrKey?$AA@ 0007ff9c     libeay32:cms_asn1.obj
 0002:00018fbc       ??_C@_0BA@GMAGEPIK@d?4originatorKey?$AA@ 0007ffbc     libeay32:cms_asn1.obj
 0002:00018fcc       ??_C@_0BI@BANGJHOF@CMS_OriginatorPublicKey?$AA@ 0007ffcc     libeay32:cms_asn1.obj
 0002:00018fe4       ??_C@_09IDENFCJL@publicKey?$AA@ 0007ffe4     libeay32:cms_asn1.obj
 0002:00018ff0       ??_C@_0BK@PEPAIBDP@CMS_RecipientEncryptedKey?$AA@ 0007fff0     libeay32:cms_asn1.obj
 0002:0001900c       ??_C@_0CA@LLLOPIGI@CMS_KeyAgreeRecipientIdentifier?$AA@ 0008000c     libeay32:cms_asn1.obj
 0002:0001902c       ??_C@_08NDNCHPPH@d?4rKeyId?$AA@ 0008002c     libeay32:cms_asn1.obj
 0002:00019038       ??_C@_0BL@KIFNEPBG@CMS_RecipientKeyIdentifier?$AA@ 00080038     libeay32:cms_asn1.obj
 0002:00019054       ??_C@_05BGEKGIIP@other?$AA@ 00080054     libeay32:cms_asn1.obj
 0002:0001905c       ??_C@_04JNIHBGGH@date?$AA@ 0008005c     libeay32:cms_asn1.obj
 0002:00019064       ??_C@_0BG@MPKMCLOF@CMS_OtherKeyAttribute?$AA@ 00080064     libeay32:cms_asn1.obj
 0002:0001907c       ??_C@_07CNMADOPK@keyAttr?$AA@ 0008007c     libeay32:cms_asn1.obj
 0002:00019084       ??_C@_09FBOICBLA@keyAttrId?$AA@ 00080084     libeay32:cms_asn1.obj
 0002:00019090       ??_C@_0BK@JKNAJMBM@CMS_KeyTransRecipientInfo?$AA@ 00080090     libeay32:cms_asn1.obj
 0002:000190ac       ??_C@_0N@DJLGIBLA@encryptedKey?$AA@ 000800ac     libeay32:cms_asn1.obj
 0002:000190bc       ??_C@_0BH@NBKKPKMP@keyEncryptionAlgorithm?$AA@ 000800bc     libeay32:cms_asn1.obj
 0002:000190d4       ??_C@_03FJBKBGPI@rid?$AA@  000800d4     libeay32:cms_asn1.obj
 0002:000190d8       ??_C@_0BJ@IHPALOIM@CMS_EncryptedContentInfo?$AA@ 000800d8     libeay32:cms_asn1.obj
 0002:000190f4       ??_C@_0BB@HAOJNDCF@encryptedContent?$AA@ 000800f4     libeay32:cms_asn1.obj
 0002:00019108       ??_C@_0BL@JFGGCGJK@contentEncryptionAlgorithm?$AA@ 00080108     libeay32:cms_asn1.obj
 0002:00019124       ??_C@_0BD@BOLANDH@CMS_OriginatorInfo?$AA@ 00080124     libeay32:cms_asn1.obj
 0002:00019138       ??_C@_0P@IFJHOEIE@CMS_SignedData?$AA@ 00080138     libeay32:cms_asn1.obj
 0002:00019148       ??_C@_0M@OPIAHELE@signerInfos?$AA@ 00080148     libeay32:cms_asn1.obj
 0002:00019154       ??_C@_04GDKGHFBJ@crls?$AA@ 00080154     libeay32:cms_asn1.obj
 0002:0001915c       ??_C@_0N@NGKEHKOM@certificates?$AA@ 0008015c     libeay32:cms_asn1.obj
 0002:0001916c       ??_C@_0BB@EFFJPOAL@encapContentInfo?$AA@ 0008016c     libeay32:cms_asn1.obj
 0002:00019180       ??_C@_0BB@CMPBPEDI@digestAlgorithms?$AA@ 00080180     libeay32:cms_asn1.obj
 0002:00019194       ??_C@_0BJ@MJACOINL@CMS_RevocationInfoChoice?$AA@ 00080194     libeay32:cms_asn1.obj
 0002:000191b0       ??_C@_05BEAHECAN@d?4crl?$AA@ 000801b0     libeay32:cms_asn1.obj
 0002:000191b8       ??_C@_0BO@ONAFHMMC@CMS_OtherRevocationInfoFormat?$AA@ 000801b8     libeay32:cms_asn1.obj
 0002:000191d8       ??_C@_0N@MOBLFMFA@otherRevInfo?$AA@ 000801d8     libeay32:cms_asn1.obj
 0002:000191e8       ??_C@_0BD@HLCFDNLB@otherRevInfoFormat?$AA@ 000801e8     libeay32:cms_asn1.obj
 0002:000191fc       ??_C@_0P@HBMKILHF@CMS_SignerInfo?$AA@ 000801fc     libeay32:cms_asn1.obj
 0002:0001920c       ??_C@_0O@PDNEMLFH@unsignedAttrs?$AA@ 0008020c     libeay32:cms_asn1.obj
 0002:0001921c       ??_C@_09CMIIOJHF@signature?$AA@ 0008021c     libeay32:cms_asn1.obj
 0002:00019228       ??_C@_0BD@CBMBFDMH@signatureAlgorithm?$AA@ 00080228     libeay32:cms_asn1.obj
 0002:0001923c       ??_C@_0M@MDGDHPDJ@signedAttrs?$AA@ 0008023c     libeay32:cms_asn1.obj
 0002:00019248       ??_C@_0BA@OBGGJDDI@digestAlgorithm?$AA@ 00080248     libeay32:cms_asn1.obj
 0002:00019258       ??_C@_03OBKGHBJN@sid?$AA@  00080258     libeay32:cms_asn1.obj
 0002:0001925c       ??_C@_0BM@FGCJFMKP@CMS_EncapsulatedContentInfo?$AA@ 0008025c     libeay32:cms_asn1.obj
 0002:00019278       ??_C@_08OOKAKDHE@eContent?$AA@ 00080278     libeay32:cms_asn1.obj
 0002:00019284       ??_C@_0N@EBAJNGML@eContentType?$AA@ 00080284     libeay32:cms_asn1.obj
 0002:00019294       ??_C@_0BF@HIKDPBH@CMS_SignerIdentifier?$AA@ 00080294     libeay32:cms_asn1.obj
 0002:000192ac       ??_C@_0BH@LJLJDHKP@d?4subjectKeyIdentifier?$AA@ 000802ac     libeay32:cms_asn1.obj
 0002:000192c4       ??_C@_0BI@DNGDMGHK@d?4issuerAndSerialNumber?$AA@ 000802c4     libeay32:cms_asn1.obj
 0002:000192dc       ??_C@_0BH@CFNIJMB@CMS_CertificateChoices?$AA@ 000802dc     libeay32:cms_asn1.obj
 0002:000192f4       ??_C@_07JIJPKMF@d?4other?$AA@ 000802f4     libeay32:cms_asn1.obj
 0002:000192fc       ??_C@_0N@FODDOFO@d?4v2AttrCert?$AA@ 000802fc     libeay32:cms_asn1.obj
 0002:0001930c       ??_C@_0N@OONEIFFN@d?4v1AttrCert?$AA@ 0008030c     libeay32:cms_asn1.obj
 0002:0001931c       ??_C@_0BG@NLAONGA@d?4extendedCertificate?$AA@ 0008031c     libeay32:cms_asn1.obj
 0002:00019334       ??_C@_0O@MNFCNMPJ@d?4certificate?$AA@ 00080334     libeay32:cms_asn1.obj
 0002:00019344       ??_C@_0BL@CACJFKMB@CMS_OtherCertificateFormat?$AA@ 00080344     libeay32:cms_asn1.obj
 0002:00019360       ??_C@_09CDBALEP@otherCert?$AA@ 00080360     libeay32:cms_asn1.obj
 0002:0001936c       ??_C@_0BA@FEKMLOFK@otherCertFormat?$AA@ 0008036c     libeay32:cms_asn1.obj
 0002:0001937c       ??_C@_0BK@GLMHLHML@CMS_IssuerAndSerialNumber?$AA@ 0008037c     libeay32:cms_asn1.obj
 0002:00019398       ??_C@_06EAINIONG@issuer?$AA@ 00080398     libeay32:cms_asn1.obj
 0002:000193a0       ??_C@_0EN@MLHPIIH@d?3?2wm653wehh?2platform?2mvv210?2src@ 000803a0     libeay32:cms_lib.obj
 0002:000193f0       ??_C@_0EN@CBCEBCDK@d?3?2wm653wehh?2platform?2mvv210?2src@ 000803f0     libeay32:cms_enc.obj
 0002:00019440       ??_C@_0EM@PJNFBCEL@d?3?2wm653wehh?2platform?2mvv210?2src@ 00080440     libeay32:cms_sd.obj
 0002:000194b8       ??_C@_0O@MABGKINF@timestampsign?$AA@ 000804b8     libeay32:v3_purp.obj
 0002:000194c8       ??_C@_0BD@HLGKGIIB@Time?5Stamp?5signing?$AA@ 000804c8     libeay32:v3_purp.obj
 0002:000194dc       ??_C@_0L@IMHCEJBK@ocsphelper?$AA@ 000804dc     libeay32:v3_purp.obj
 0002:000194e8       ??_C@_0M@NEPIMEJA@OCSP?5helper?$AA@ 000804e8     libeay32:v3_purp.obj
 0002:000194f4       ??_C@_03OBJFJEBA@any?$AA@  000804f4     libeay32:v3_purp.obj
 0002:000194f8       ??_C@_0M@NMNFLNDB@Any?5Purpose?$AA@ 000804f8     libeay32:v3_purp.obj
 0002:00019504       ??_C@_07IOMCDAPH@crlsign?$AA@ 00080504     libeay32:v3_purp.obj
 0002:0001950c       ??_C@_0M@MEKLJHLA@CRL?5signing?$AA@ 0008050c     libeay32:v3_purp.obj
 0002:00019518       ??_C@_0N@BPFJELMP@smimeencrypt?$AA@ 00080518     libeay32:v3_purp.obj
 0002:00019528       ??_C@_0BC@DOGNOPGC@S?1MIME?5encryption?$AA@ 00080528     libeay32:v3_purp.obj
 0002:0001953c       ??_C@_09JPGBHOKH@smimesign?$AA@ 0008053c     libeay32:v3_purp.obj
 0002:00019548       ??_C@_0P@LNDEBCCO@S?1MIME?5signing?$AA@ 00080548     libeay32:v3_purp.obj
 0002:00019558       ??_C@_0M@GKHHMMAE@nssslserver?$AA@ 00080558     libeay32:v3_purp.obj
 0002:00019564       ??_C@_0BE@BPEJPGJG@Netscape?5SSL?5server?$AA@ 00080564     libeay32:v3_purp.obj
 0002:00019578       ??_C@_09FEILOJPJ@sslserver?$AA@ 00080578     libeay32:v3_purp.obj
 0002:00019584       ??_C@_0L@PNDNFADH@SSL?5server?$AA@ 00080584     libeay32:v3_purp.obj
 0002:00019590       ??_C@_09BLMJDCHK@sslclient?$AA@ 00080590     libeay32:v3_purp.obj
 0002:0001959c       ??_C@_0L@LCHPILLE@SSL?5client?$AA@ 0008059c     libeay32:v3_purp.obj
 0002:000195a8       ??_C@_0FA@EPMAEJOB@d?3?2wm653wehh?2platform?2mvv210?2src@ 000805a8     libeay32:v3_purp.obj
 0002:000195f8       ??_C@_0EO@PHNCOBFO@d?3?2wm653wehh?2platform?2mvv210?2src@ 000805f8     libeay32:pmeth_fn.obj
 0002:00019650       AES_version                00080650     libeay32:aes_misc.obj
 0002:00019678       ??_C@_0EO@LKMDOFNL@d?3?2wm653wehh?2platform?2mvv210?2src@ 00080678     libeay32:cms_pwri.obj
 0002:000196c8       ??_C@_0BI@NFPKAKEA@Eric?5Young?8s?5PKCS?$CD1?5RSA?$AA@ 000806c8     libeay32:rsa_eay.obj
 0002:000196e0       ??_C@_0EN@FLFPHDGA@d?3?2wm653wehh?2platform?2mvv210?2src@ 000806e0     libeay32:rsa_eay.obj
 0002:00019738       cmac_asn1_meth             00080738     libeay32:cm_ameth.obj
 0002:000197a4       ??_C@_0BE@GBIGMENL@OpenSSL?5CMAC?5method?$AA@ 000807a4     libeay32:cm_ameth.obj
 0002:000197b8       hmac_asn1_meth             000807b8     libeay32:hm_ameth.obj
 0002:00019824       ??_C@_0BE@BABEGANF@OpenSSL?5HMAC?5method?$AA@ 00080824     libeay32:hm_ameth.obj
 0002:00019838       ??_C@_0EP@LPMJCFIA@d?3?2wm653wehh?2platform?2mvv210?2src@ 00080838     libeay32:hm_ameth.obj
 0002:00019888       eckey_asn1_meth            00080888     libeay32:ec_ameth.obj
 0002:000198f4       ??_C@_0BF@DKDIFOGG@OpenSSL?5EC?5algorithm?$AA@ 000808f4     libeay32:ec_ameth.obj
 0002:0001990c       ??_C@_02KNLLHFAA@EC?$AA@   0008090c     libeay32:ec_ameth.obj
 0002:00019910       ??_C@_0EN@OGHGAGHH@d?3?2wm653wehh?2platform?2mvv210?2src@ 00080910     libeay32:ec_ameth.obj
 0002:00019960       ??_C@_05FJHKEHEO@pub?3?5?$AA@ 00080960     libeay32:ec_ameth.obj
 0002:00019968       ??_C@_05PFPGJCCA@priv?3?$AA@ 00080968     libeay32:ec_ameth.obj
 0002:00019970       ??_C@_0O@OPPPNLCD@?$CFs?3?5?$CI?$CFd?5bit?$CJ?6?$AA@ 00080970     libeay32:ec_ameth.obj
 0002:00019980       ??_C@_0BB@DMDKLH@ECDSA?9Parameters?$AA@ 00080980     libeay32:ec_ameth.obj
 0002:00019994       ??_C@_0L@FMJMEKAC@Public?9Key?$AA@ 00080994     libeay32:ec_ameth.obj
 0002:000199a0       ??_C@_0M@CJKOCIEC@Private?9Key?$AA@ 000809a0     libeay32:ec_ameth.obj
 0002:000199b0       dsa_asn1_meths             000809b0     libeay32:dsa_ameth.obj
 0002:00019bd0       ??_C@_0EP@BEDNKKJD@d?3?2wm653wehh?2platform?2mvv210?2src@ 00080bd0     libeay32:dsa_ameth.obj
 0002:00019c20       ??_C@_05LKAKAJND@G?3?5?5?5?$AA@ 00080c20     libeay32:dsa_ameth.obj
 0002:00019c28       ??_C@_05GPIFOIFF@Q?3?5?5?5?$AA@ 00080c28     libeay32:dsa_ameth.obj
 0002:00019c30       ??_C@_05KENJDLPA@P?3?5?5?5?$AA@ 00080c30     libeay32:dsa_ameth.obj
 0002:00019c38       ??_C@_0P@LAFOADJN@DSA?9Parameters?$AA@ 00080c38     libeay32:dsa_ameth.obj
 0002:00019c48       ??_C@_05CFOBEMGI@s?3?5?5?5?$AA@ 00080c48     libeay32:dsa_ameth.obj
 0002:00019c50       ??_C@_05OOLNJPMN@r?3?5?5?5?$AA@ 00080c50     libeay32:dsa_ameth.obj
 0002:00019c58       ??_C@_01EEMJAFIK@?6?$AA@   00080c58     libeay32:dsa_ameth.obj
 0002:00019c60       dh_asn1_meth               00080c60     libeay32:dh_ameth.obj
 0002:00019ccc       ??_C@_0BJ@OPGBMMOB@OpenSSL?5PKCS?$CD3?5DH?5method?$AA@ 00080ccc     libeay32:dh_ameth.obj
 0002:00019ce8       ??_C@_02EPINMGPM@DH?$AA@   00080ce8     libeay32:dh_ameth.obj
 0002:00019cf0       ??_C@_0EN@KFNOHMJF@d?3?2wm653wehh?2platform?2mvv210?2src@ 00080cf0     libeay32:dh_ameth.obj
 0002:00019d40       ??_C@_0CF@KKPEILHE@recommended?9private?9length?3?5?$CFd?5b@ 00080d40     libeay32:dh_ameth.obj
 0002:00019d68       ??_C@_0L@HDGHCIJF@generator?3?$AA@ 00080d68     libeay32:dh_ameth.obj
 0002:00019d74       ??_C@_06POMKLBDA@prime?3?$AA@ 00080d74     libeay32:dh_ameth.obj
 0002:00019d7c       ??_C@_0M@BCALNHOD@public?9key?3?$AA@ 00080d7c     libeay32:dh_ameth.obj
 0002:00019d88       ??_C@_0N@MPONDEBM@private?9key?3?$AA@ 00080d88     libeay32:dh_ameth.obj
 0002:00019d98       ??_C@_0BF@HJBOBPFM@PKCS?$CD3?5DH?5Parameters?$AA@ 00080d98     libeay32:dh_ameth.obj
 0002:00019db0       ??_C@_0BF@NEOAIGKI@PKCS?$CD3?5DH?5Public?9Key?$AA@ 00080db0     libeay32:dh_ameth.obj
 0002:00019dc8       ??_C@_0BG@BPCFBOHI@PKCS?$CD3?5DH?5Private?9Key?$AA@ 00080dc8     libeay32:dh_ameth.obj
 0002:00019de0       rsa_asn1_meths             00080de0     libeay32:rsa_ameth.obj
 0002:00019eb8       ??_C@_0BD@MHOEKPBI@OpenSSL?5RSA?5method?$AA@ 00080eb8     libeay32:rsa_ameth.obj
 0002:00019ed0       ??_C@_0EP@ECKOLFPF@d?3?2wm653wehh?2platform?2mvv210?2src@ 00080ed0     libeay32:rsa_ameth.obj
 0002:00019f20       ??_C@_0N@GNAMJPHF@coefficient?3?$AA@ 00080f20     libeay32:rsa_ameth.obj
 0002:00019f30       ??_C@_0L@OKKEHIPG@exponent2?3?$AA@ 00080f30     libeay32:rsa_ameth.obj
 0002:00019f3c       ??_C@_0L@OIOCMGKP@exponent1?3?$AA@ 00080f3c     libeay32:rsa_ameth.obj
 0002:00019f48       ??_C@_07NJNHFNM@prime2?3?$AA@ 00080f48     libeay32:rsa_ameth.obj
 0002:00019f50       ??_C@_07PNLMLIF@prime1?3?$AA@ 00080f50     libeay32:rsa_ameth.obj
 0002:00019f58       ??_C@_0BB@NFOLHHHJ@privateExponent?3?$AA@ 00080f58     libeay32:rsa_ameth.obj
 0002:00019f6c       ??_C@_08GIMLILAA@Modulus?3?$AA@ 00080f6c     libeay32:rsa_ameth.obj
 0002:00019f78       ??_C@_09DALHJPOO@Exponent?3?$AA@ 00080f78     libeay32:rsa_ameth.obj
 0002:00019f84       ??_C@_0BG@HAJOCCOP@Public?9Key?3?5?$CI?$CFd?5bit?$CJ?6?$AA@ 00080f84     libeay32:rsa_ameth.obj
 0002:00019f9c       ??_C@_08OKDKAJKD@modulus?3?$AA@ 00080f9c     libeay32:rsa_ameth.obj
 0002:00019fa8       ??_C@_0BA@FAAMOFHC@publicExponent?3?$AA@ 00080fa8     libeay32:rsa_ameth.obj
 0002:00019fb8       ??_C@_0BH@JHLDJION@Private?9Key?3?5?$CI?$CFd?5bit?$CJ?6?$AA@ 00080fb8     libeay32:rsa_ameth.obj
 0002:00019fd0       ??_C@_0P@DDPOEOJA@0xbc?5?$CIdefault?$CJ?$AA@ 00080fd0     libeay32:rsa_ameth.obj
 0002:00019fe0       ??_C@_0BA@LIMPMLCB@Trailer?5Field?3?5?$AA@ 00080fe0     libeay32:rsa_ameth.obj
 0002:00019ff0       ??_C@_0N@LMKHLINK@20?5?$CIdefault?$CJ?$AA@ 00080ff0     libeay32:rsa_ameth.obj
 0002:0001a000       ??_C@_0O@KKNIODBM@Salt?5Length?3?5?$AA@ 00081000     libeay32:rsa_ameth.obj
 0002:0001a010       ??_C@_0BJ@NNFOENLD@mgf1?5with?5sha1?5?$CIdefault?$CJ?$AA@ 00081010     libeay32:rsa_ameth.obj
 0002:0001a02c       ??_C@_07DNODLGKM@INVALID?$AA@ 0008102c     libeay32:rsa_ameth.obj
 0002:0001a034       ??_C@_06BIDGLIKJ@?5with?5?$AA@ 00081034     libeay32:rsa_ameth.obj
 0002:0001a03c       ??_C@_0BB@HEAMLCPA@Mask?5Algorithm?3?5?$AA@ 0008103c     libeay32:rsa_ameth.obj
 0002:0001a050       ??_C@_0P@ODEAMLKF@sha1?5?$CIdefault?$CJ?$AA@ 00081050     libeay32:rsa_ameth.obj
 0002:0001a060       ??_C@_0BB@PMMDHLKH@Hash?5Algorithm?3?5?$AA@ 00081060     libeay32:rsa_ameth.obj
 0002:0001a074       ??_C@_0BL@KMBKPBGM@?5?$CIINVALID?5PSS?5PARAMETERS?$CJ?6?$AA@ 00081074     libeay32:rsa_ameth.obj
 0002:0001a090       ??_C@_0BF@JMOFLBJO@keylen?5?$DM?$DN?5sizeof?5key?$AA@ 00081090     libeay32:p5_crpt2.obj
 0002:0001a0a8       ??_C@_0EO@DONPFFAH@d?3?2wm653wehh?2platform?2mvv210?2src@ 000810a8     libeay32:p5_crpt2.obj
 0002:0001a0f8       ??_C@_0FB@IJLBCKEP@d?3?2wm653wehh?2platform?2mvv210?2src@ 000810f8     libeay32:p12_crpt.obj
 0002:0001a14c       ??_C@_0CD@HMFJNEFL@EVP_CIPHER_iv_length?$CIcipher?$CJ?5?$DM?$DN?5@ 0008114c     libeay32:p5_crpt.obj
 0002:0001a170       ??_C@_0DF@FHOHFFEB@EVP_CIPHER_key_length?$CIcipher?$CJ?5?$DM?$DN@ 00081170     libeay32:p5_crpt.obj
 0002:0001a1a8       ??_C@_0EN@DFHCIHFJ@d?3?2wm653wehh?2platform?2mvv210?2src@ 000811a8     libeay32:p5_crpt.obj
 0002:0001a1f8       RAND_version               000811f8     libeay32:md_rand.obj
 0002:0001a220       ??_C@_0EO@OKPIHEJM@d?3?2wm653wehh?2platform?2mvv210?2src@ 00081220     libeay32:md_rand.obj
 0002:0001a270       ??_C@_0EK@MHBHPLPP@You?5need?5to?5read?5the?5OpenSSL?5FAQ@ 00081270     libeay32:md_rand.obj
 0002:0001a2bc       ??_C@_0BF@KNMHCCP@?4?4?4?4?4?4?4?4?4?4?4?4?4?4?4?4?4?4?4?4?$AA@ 000812bc     libeay32:md_rand.obj
 0002:0001a2d8       ??_C@_0EP@DLKDJLKC@d?3?2wm653wehh?2platform?2mvv210?2src@ 000812d8     libeay32:buffer.obj
 0002:0001a328       ??_C@_0EL@CLIEFBLC@d?3?2wm653wehh?2platform?2mvv210?2src@ 00081328     libeay32:bn_mod.obj
 0002:0001a378       ??_C@_0EP@PHFMEFHI@d?3?2wm653wehh?2platform?2mvv210?2src@ 00081378     libeay32:a_bitstr.obj
 0002:0001a3c8       ??_C@_0EP@EEJMGOIG@d?3?2wm653wehh?2platform?2mvv210?2src@ 000813c8     libeay32:tasn_utl.obj
 0002:0001a418       ??_C@_0FC@NLMGEGGH@d?3?2wm653wehh?2platform?2mvv210?2src@ 00081418     libeay32:tb_cipher.obj
 0002:0001a4b0       x509_name_ff               000814b0     libeay32:x_name.obj
 0002:0001a548       ??_C@_09KGNJKBNF@X509_NAME?$AA@ 00081548     libeay32:x_name.obj
 0002:0001a554       ??_C@_0BD@FDNDONGH@X509_NAME_INTERNAL?$AA@ 00081554     libeay32:x_name.obj
 0002:0001a568       ??_C@_04FABLJDN@Name?$AA@  00081568     libeay32:x_name.obj
 0002:0001a570       ??_C@_0BC@GJMCELDI@X509_NAME_ENTRIES?$AA@ 00081570     libeay32:x_name.obj
 0002:0001a584       ??_C@_04IEOKPFHO@RDNS?$AA@ 00081584     libeay32:x_name.obj
 0002:0001a58c       ??_C@_0BA@KEPIIMOE@X509_NAME_ENTRY?$AA@ 0008158c     libeay32:x_name.obj
 0002:0001a5a0       ??_C@_0EN@KBGECLLO@d?3?2wm653wehh?2platform?2mvv210?2src@ 000815a0     libeay32:x_name.obj
 0002:0001a76c       ??_C@_07DLHCIBDH@default?$AA@ 0008176c     libeay32:a_strnid.obj
 0002:0001a778       v3_alt                     00081778     libeay32:v3_alt.obj
 0002:0001a820       ??_C@_0O@KAIENCPE@Registered?5ID?$AA@ 00081820     libeay32:v3_alt.obj
 0002:0001a830       ??_C@_09DPMBDOD@?$DMinvalid?$DO?$AA@ 00081830     libeay32:v3_alt.obj
 0002:0001a83c       ??_C@_0L@NGHMMCPJ@IP?5Address?$AA@ 0008183c     libeay32:v3_alt.obj
 0002:0001a848       ??_C@_01JLIPDDHJ@?3?$AA@   00081848     libeay32:v3_alt.obj
 0002:0001a84c       ??_C@_02EMFKHFLK@?$CFX?$AA@ 0008184c     libeay32:v3_alt.obj
 0002:0001a850       ??_C@_07FDBCPIKC@DirName?$AA@ 00081850     libeay32:v3_alt.obj
 0002:0001a858       ??_C@_03GMOLNBOB@URI?$AA@  00081858     libeay32:v3_alt.obj
 0002:0001a85c       ??_C@_03CBFPEBNE@DNS?$AA@  0008185c     libeay32:v3_alt.obj
 0002:0001a860       ??_C@_05HKHCDHCL@email?$AA@ 00081860     libeay32:v3_alt.obj
 0002:0001a868       ??_C@_0N@EEELPIKD@EdiPartyName?$AA@ 00081868     libeay32:v3_alt.obj
 0002:0001a878       ??_C@_08EBDOEGJI@X400Name?$AA@ 00081878     libeay32:v3_alt.obj
 0002:0001a884       ??_C@_0O@NHCJKCDC@?$DMunsupported?$DO?$AA@ 00081884     libeay32:v3_alt.obj
 0002:0001a894       ??_C@_09PAKBLAPA@othername?$AA@ 00081894     libeay32:v3_alt.obj
 0002:0001a8a0       ??_C@_0BF@JMMIKJMP@IP?5Address?3?$DMinvalid?$DO?$AA@ 000818a0     libeay32:v3_alt.obj
 0002:0001a8b8       ??_C@_03NMJGLHB@?3?$CFX?$AA@ 000818b8     libeay32:v3_alt.obj
 0002:0001a8bc       ??_C@_0BH@OAMIHBGI@IP?5Address?3?$CFd?4?$CFd?4?$CFd?4?$CFd?$AA@ 000818bc     libeay32:v3_alt.obj
 0002:0001a8d4       ??_C@_09JDCPLDLD@DirName?3?5?$AA@ 000818d4     libeay32:v3_alt.obj
 0002:0001a8e0       ??_C@_06KCNJMDKO@URI?3?$CFs?$AA@ 000818e0     libeay32:v3_alt.obj
 0002:0001a8e8       ??_C@_06DNDEBJBH@DNS?3?$CFs?$AA@ 000818e8     libeay32:v3_alt.obj
 0002:0001a8f0       ??_C@_08LPBGKPKE@email?3?$CFs?$AA@ 000818f0     libeay32:v3_alt.obj
 0002:0001a8fc       ??_C@_0BL@HEOLJEB@EdiPartyName?3?$DMunsupported?$DO?$AA@ 000818fc     libeay32:v3_alt.obj
 0002:0001a918       ??_C@_0BH@HDOLFIDG@X400Name?3?$DMunsupported?$DO?$AA@ 00081918     libeay32:v3_alt.obj
 0002:0001a930       ??_C@_0BI@PGFKPDEJ@othername?3?$DMunsupported?$DO?$AA@ 00081930     libeay32:v3_alt.obj
 0002:0001a948       ??_C@_0EP@GIOEMKKC@d?3?2wm653wehh?2platform?2mvv210?2src@ 00081948     libeay32:v3_alt.obj
 0002:0001a998       ??_C@_08LNPIPPMM@section?$DN?$AA@ 00081998     libeay32:v3_alt.obj
 0002:0001a9a4       ??_C@_09DBGAJPPE@otherName?$AA@ 000819a4     libeay32:v3_alt.obj
 0002:0001a9b0       ??_C@_07KKGEJKPE@dirName?$AA@ 000819b0     libeay32:v3_alt.obj
 0002:0001a9b8       ??_C@_02MFEOMNPG@IP?$AA@   000819b8     libeay32:v3_alt.obj
 0002:0001a9bc       ??_C@_03FEOBNLIE@RID?$AA@  000819bc     libeay32:v3_alt.obj
 0002:0001a9c0       ??_C@_04COAGEIMF@copy?$AA@ 000819c0     libeay32:v3_alt.obj
 0002:0001a9c8       ??_C@_04HDMMNHEL@move?$AA@ 000819c8     libeay32:v3_alt.obj
 0002:0001a9d0       ??_C@_0EN@IDEDPOKO@d?3?2wm653wehh?2platform?2mvv210?2src@ 000819d0     libeay32:dso_lib.obj
 0002:0001aa20       CONF_version               00081a20     libeay32:conf_lib.obj
 0002:0001aa48       ??_C@_0EP@PNEKGEFM@d?3?2wm653wehh?2platform?2mvv210?2src@ 00081a48     libeay32:conf_lib.obj
 0002:0001aa98       ??_C@_06NGDKEHGB@?5name?$DN?$AA@ 00081a98     libeay32:conf_lib.obj
 0002:0001aaa0       ??_C@_06BDPCGOPM@group?$DN?$AA@ 00081aa0     libeay32:conf_lib.obj
 0002:0001aaa8       ??_C@_02JDPG@rb?$AA@       00081aa8     libeay32:conf_lib.obj
 0002:0001ab10       ??_C@_0EP@ELMNNBNC@d?3?2wm653wehh?2platform?2mvv210?2src@ 00081b10     libeay32:x509_obj.obj
 0002:0001ab60       ??_C@_0N@MJCHLFGM@NO?5X509_NAME?$AA@ 00081b60     libeay32:x509_obj.obj
 0002:0001abcc       ??_C@_0M@INJPOKDH@X509_PUBKEY?$AA@ 00081bcc     libeay32:x_pubkey.obj
 0002:0001abd8       ??_C@_0L@PJCANJEE@public_key?$AA@ 00081bd8     libeay32:x_pubkey.obj
 0002:0001abe8       ??_C@_0EP@OKMPOBJE@d?3?2wm653wehh?2platform?2mvv210?2src@ 00081be8     libeay32:x_pubkey.obj
 0002:0001acfc       v3_idp                     00081cfc     libeay32:v3_crld.obj
 0002:0001ad34       v3_freshest_crl            00081d34     libeay32:v3_crld.obj
 0002:0001ad6c       v3_crld                    00081d6c     libeay32:v3_crld.obj
 0002:0001aed0       ??_C@_0BD@ENBCPHJ@ISSUING_DIST_POINT?$AA@ 00081ed0     libeay32:v3_crld.obj
 0002:0001aee4       ??_C@_08DBIINPPL@onlyattr?$AA@ 00081ee4     libeay32:v3_crld.obj
 0002:0001aef0       ??_C@_0M@BECDICJC@indirectCRL?$AA@ 00081ef0     libeay32:v3_crld.obj
 0002:0001aefc       ??_C@_0BA@FNMBIJDN@onlysomereasons?$AA@ 00081efc     libeay32:v3_crld.obj
 0002:0001af0c       ??_C@_06PMNIEKCA@onlyCA?$AA@ 00081f0c     libeay32:v3_crld.obj
 0002:0001af14       ??_C@_08CENLBPEH@onlyuser?$AA@ 00081f14     libeay32:v3_crld.obj
 0002:0001af20       ??_C@_0BA@BBHAIMOE@CRL_DIST_POINTS?$AA@ 00081f20     libeay32:v3_crld.obj
 0002:0001af30       ??_C@_0BG@CHNNADAE@CRLDistributionPoints?$AA@ 00081f30     libeay32:v3_crld.obj
 0002:0001af48       ??_C@_0L@ELIKPJIH@DIST_POINT?$AA@ 00081f48     libeay32:v3_crld.obj
 0002:0001af54       ??_C@_09GJHADLCP@CRLissuer?$AA@ 00081f54     libeay32:v3_crld.obj
 0002:0001af60       ??_C@_07PFOCLIJD@reasons?$AA@ 00081f60     libeay32:v3_crld.obj
 0002:0001af68       ??_C@_09FBDFGJDL@distpoint?$AA@ 00081f68     libeay32:v3_crld.obj
 0002:0001af74       ??_C@_0BA@MLHIPLLG@DIST_POINT_NAME?$AA@ 00081f74     libeay32:v3_crld.obj
 0002:0001af84       ??_C@_0BC@JDMJBKME@name?4relativename?$AA@ 00081f84     libeay32:v3_crld.obj
 0002:0001af98       ??_C@_0O@HJHJCLAE@name?4fullname?$AA@ 00081f98     libeay32:v3_crld.obj
 0002:0001afa8       ??_C@_0N@LOIIODKP@AACompromise?$AA@ 00081fa8     libeay32:v3_crld.obj
 0002:0001afb8       ??_C@_0O@PAGOKAK@AA?5Compromise?$AA@ 00081fb8     libeay32:v3_crld.obj
 0002:0001afc8       ??_C@_0BD@PBLGJKCE@privilegeWithdrawn?$AA@ 00081fc8     libeay32:v3_crld.obj
 0002:0001afdc       ??_C@_0BE@FJCCMGMM@Privilege?5Withdrawn?$AA@ 00081fdc     libeay32:v3_crld.obj
 0002:0001aff0       ??_C@_0BA@FBHLCNLK@certificateHold?$AA@ 00081ff0     libeay32:v3_crld.obj
 0002:0001b000       ??_C@_0BB@IPDHDNJD@Certificate?5Hold?$AA@ 00082000     libeay32:v3_crld.obj
 0002:0001b014       ??_C@_0BF@IGJCOPF@cessationOfOperation?$AA@ 00082014     libeay32:v3_crld.obj
 0002:0001b02c       ??_C@_0BH@OLCOAMGF@Cessation?5Of?5Operation?$AA@ 0008202c     libeay32:v3_crld.obj
 0002:0001b044       ??_C@_0L@NHCKNIFL@superseded?$AA@ 00082044     libeay32:v3_crld.obj
 0002:0001b050       ??_C@_0L@FBLGFHIM@Superseded?$AA@ 00082050     libeay32:v3_crld.obj
 0002:0001b05c       ??_C@_0BD@BNOFAJLL@affiliationChanged?$AA@ 0008205c     libeay32:v3_crld.obj
 0002:0001b070       ??_C@_0BE@EECEIFAP@Affiliation?5Changed?$AA@ 00082070     libeay32:v3_crld.obj
 0002:0001b084       ??_C@_0N@NONEFGOE@CACompromise?$AA@ 00082084     libeay32:v3_crld.obj
 0002:0001b094       ??_C@_0O@OOGICOKH@CA?5Compromise?$AA@ 00082094     libeay32:v3_crld.obj
 0002:0001b0a4       ??_C@_0O@MCEAAJLH@keyCompromise?$AA@ 000820a4     libeay32:v3_crld.obj
 0002:0001b0b4       ??_C@_0P@JENDIECI@Key?5Compromise?$AA@ 000820b4     libeay32:v3_crld.obj
 0002:0001b0c4       ??_C@_06OJAIHGIC@unused?$AA@ 000820c4     libeay32:v3_crld.obj
 0002:0001b0cc       ??_C@_06CGLFEPBO@Unused?$AA@ 000820cc     libeay32:v3_crld.obj
 0002:0001b0d8       ??_C@_0FA@EFIBGCB@d?3?2wm653wehh?2platform?2mvv210?2src@ 000820d8     libeay32:v3_crld.obj
 0002:0001b128       ??_C@_08DGFAABGD@?$DMEMPTY?$DO?6?$AA@ 00082128     libeay32:v3_crld.obj
 0002:0001b134       ??_C@_02KEGNLNML@?0?5?$AA@ 00082134     libeay32:v3_crld.obj
 0002:0001b138       ??_C@_0L@NHIBCNGO@?$CF?$CKs?$CFs?3?6?$CF?$CKs?$AA@ 00082138     libeay32:v3_crld.obj
 0002:0001b144       ??_C@_03HIJPJGOM@?$CF?$CKs?$AA@ 00082144     libeay32:v3_crld.obj
 0002:0001b148       ??_C@_0BG@GIOHENJJ@?$CF?$CKsRelative?5Name?3?6?$CF?$CKs?$AA@ 00082148     libeay32:v3_crld.obj
 0002:0001b160       ??_C@_0P@DKAHDIGH@?$CF?$CKsFull?5Name?3?6?$AA@ 00082160     libeay32:v3_crld.obj
 0002:0001b170       ??_C@_0M@FCFDJGIC@?$CF?$CKs?$DMEMPTY?$DO?6?$AA@ 00082170     libeay32:v3_crld.obj
 0002:0001b17c       ??_C@_0CA@IIIJNMJM@?$CF?$CKsOnly?5Attribute?5Certificates?6?$AA@ 0008217c     libeay32:v3_crld.obj
 0002:0001b19c       ??_C@_0BC@JDEOGEEL@Only?5Some?5Reasons?$AA@ 0008219c     libeay32:v3_crld.obj
 0002:0001b1b0       ??_C@_0BB@FLBIDOKD@?$CF?$CKsIndirect?5CRL?6?$AA@ 000821b0     libeay32:v3_crld.obj
 0002:0001b1c4       ??_C@_0BJ@GKBBKMLO@?$CF?$CKsOnly?5CA?5Certificates?6?$AA@ 000821c4     libeay32:v3_crld.obj
 0002:0001b1e0       ??_C@_0BL@FLJCHEKF@?$CF?$CKsOnly?5User?5Certificates?6?$AA@ 000821e0     libeay32:v3_crld.obj
 0002:0001b1fc       ??_C@_0BA@NBJIBLNE@?$CF?$CKsCRL?5Issuer?3?6?$AA@ 000821fc     libeay32:v3_crld.obj
 0002:0001b20c       ??_C@_07MJENKMF@Reasons?$AA@ 0008220c     libeay32:v3_crld.obj
 0002:0001b214       ??_C@_0N@LGEOMMHB@relativename?$AA@ 00082214     libeay32:v3_crld.obj
 0002:0001b224       ??_C@_08BMACPLOA@fullname?$AA@ 00082224     libeay32:v3_crld.obj
 0002:0001b230       ??_C@_06PPFMJOEO@onlyAA?$AA@ 00082230     libeay32:v3_crld.obj
 0002:0001b238       v3_inhibit_anyp            00082238     libeay32:v3_int.obj
 0002:0001b270       v3_delta_crl               00082270     libeay32:v3_int.obj
 0002:0001b2a8       v3_crl_num                 000822a8     libeay32:v3_int.obj
 0002:0001b354       v3_policy_mappings         00082354     libeay32:v3_pmaps.obj
 0002:0001b38c       ??_C@_0BA@DHPBCFFC@POLICY_MAPPINGS?$AA@ 0008238c     libeay32:v3_pmaps.obj
 0002:0001b39c       ??_C@_0P@NLHMKCKF@POLICY_MAPPING?$AA@ 0008239c     libeay32:v3_pmaps.obj
 0002:0001b3ac       ??_C@_0BE@FFIKMOKF@subjectDomainPolicy?$AA@ 000823ac     libeay32:v3_pmaps.obj
 0002:0001b3c0       ??_C@_0BD@JILOPHFL@issuerDomainPolicy?$AA@ 000823c0     libeay32:v3_pmaps.obj
 0002:0001b3d8       ??_C@_0FB@JMEEBLD@d?3?2wm653wehh?2platform?2mvv210?2src@ 000823d8     libeay32:v3_pmaps.obj
 0002:0001b48c       v3_name_constraints        0008248c     libeay32:v3_ncons.obj
 0002:0001b500       ??_C@_0BB@MLLJAFMN@NAME_CONSTRAINTS?$AA@ 00082500     libeay32:v3_ncons.obj
 0002:0001b514       ??_C@_0BB@HLFEMJKE@excludedSubtrees?$AA@ 00082514     libeay32:v3_ncons.obj
 0002:0001b528       ??_C@_0BC@FACFJLFB@permittedSubtrees?$AA@ 00082528     libeay32:v3_ncons.obj
 0002:0001b53c       ??_C@_0BA@ECMIFHDE@GENERAL_SUBTREE?$AA@ 0008253c     libeay32:v3_ncons.obj
 0002:0001b54c       ??_C@_07MEIENILC@maximum?$AA@ 0008254c     libeay32:v3_ncons.obj
 0002:0001b554       ??_C@_07CCOEHHFD@minimum?$AA@ 00082554     libeay32:v3_ncons.obj
 0002:0001b55c       ??_C@_04BHIIPFEC@base?$AA@ 0008255c     libeay32:v3_ncons.obj
 0002:0001b568       ??_C@_0FB@NFBAFBGE@d?3?2wm653wehh?2platform?2mvv210?2src@ 00082568     libeay32:v3_ncons.obj
 0002:0001b5bc       ??_C@_08HPCEJEEF@excluded?$AA@ 000825bc     libeay32:v3_ncons.obj
 0002:0001b5c8       ??_C@_09HAKFOFAM@permitted?$AA@ 000825c8     libeay32:v3_ncons.obj
 0002:0001b5d4       ??_C@_0BI@IFNIGPEJ@?$CFd?4?$CFd?4?$CFd?4?$CFd?1?$CFd?4?$CFd?4?$CFd?4?$CFd?$AA@ 000825d4     libeay32:v3_ncons.obj
 0002:0001b5ec       ??_C@_03HBLCMHJN@IP?3?$AA@ 000825ec     libeay32:v3_ncons.obj
 0002:0001b5f0       ??_C@_07GOIIHCND@?$CF?$CKs?$CFs?3?6?$AA@ 000825f0     libeay32:v3_ncons.obj
 0002:0001b5f8       ??_C@_09DPPIOGNM@Permitted?$AA@ 000825f8     libeay32:v3_ncons.obj
 0002:0001b604       ??_C@_08PNNFBGOG@Excluded?$AA@ 00082604     libeay32:v3_ncons.obj
 0002:0001b610       v3_pci                     00082610     libeay32:v3_pci.obj
 0002:0001b648       ??_C@_0BE@HDJEDONA@?$CF?$CKsPolicy?5Text?3?5?$CFs?6?$AA@ 00082648     libeay32:v3_pci.obj
 0002:0001b65c       ??_C@_0BF@CGHJNACM@?$CF?$CKsPolicy?5Language?3?5?$AA@ 0008265c     libeay32:v3_pci.obj
 0002:0001b674       ??_C@_08MAJEGHKB@infinite?$AA@ 00082674     libeay32:v3_pci.obj
 0002:0001b680       ??_C@_0BM@BMCPHDD@?$CF?$CKsPath?5Length?5Constraint?3?5?$AA@ 00082680     libeay32:v3_pci.obj
 0002:0001b69c       ??_C@_05FHIGHPDA@text?3?$AA@ 0008269c     libeay32:v3_pci.obj
 0002:0001b6a4       ??_C@_05BOPHDICO@file?3?$AA@ 000826a4     libeay32:v3_pci.obj
 0002:0001b6ac       ??_C@_04ODCMNEMO@hex?3?$AA@ 000826ac     libeay32:v3_pci.obj
 0002:0001b6b4       ??_C@_06NJNJNICG@policy?$AA@ 000826b4     libeay32:v3_pci.obj
 0002:0001b6bc       ??_C@_07OGCPICFF@pathlen?$AA@ 000826bc     libeay32:v3_pci.obj
 0002:0001b6c8       ??_C@_0EP@IAENADAP@d?3?2wm653wehh?2platform?2mvv210?2src@ 000826c8     libeay32:v3_pci.obj
 0002:0001b718       ??_C@_08JGCCIMAA@language?$AA@ 00082718     libeay32:v3_pci.obj
 0002:0001b724       v3_ocsp_serviceloc         00082724     libeay32:v3_ocsp.obj
 0002:0001b75c       v3_ocsp_nocheck            0008275c     libeay32:v3_ocsp.obj
 0002:0001b794       v3_ocsp_nonce              00082794     libeay32:v3_ocsp.obj
 0002:0001b7cc       v3_crl_hold                000827cc     libeay32:v3_ocsp.obj
 0002:0001b804       v3_crl_invdate             00082804     libeay32:v3_ocsp.obj
 0002:0001b83c       v3_ocsp_acutoff            0008283c     libeay32:v3_ocsp.obj
 0002:0001b874       v3_ocsp_crlid              00082874     libeay32:v3_ocsp.obj
 0002:0001b8ac       ??_C@_0N@IBJOMEDL@?$CF?$CKscrlTime?3?5?$AA@ 000828ac     libeay32:v3_ocsp.obj
 0002:0001b8bc       ??_C@_0M@MLCMBODE@?$CF?$CKscrlNum?3?5?$AA@ 000828bc     libeay32:v3_ocsp.obj
 0002:0001b8c8       ??_C@_0M@KIKBFHBJ@?$CF?$CKscrlUrl?3?5?$AA@ 000828c8     libeay32:v3_ocsp.obj
 0002:0001b8d8       ??_C@_0FA@DGLJGNPA@d?3?2wm653wehh?2platform?2mvv210?2src@ 000828d8     libeay32:v3_ocsp.obj
 0002:0001b928       ??_C@_04NFEJKGEM@?6?$CF?$CKs?$AA@ 00082928     libeay32:v3_ocsp.obj
 0002:0001b930       ??_C@_0M@IHOINNJF@?$CF?$CKsIssuer?3?5?$AA@ 00082930     libeay32:v3_ocsp.obj
 0002:0001b980       v3_policy_constraints      00082980     libeay32:v3_pcons.obj
 0002:0001b9b8       ??_C@_0BD@MMPNIEIJ@POLICY_CONSTRAINTS?$AA@ 000829b8     libeay32:v3_pcons.obj
 0002:0001b9cc       ??_C@_0BF@MOMLJGAL@inhibitPolicyMapping?$AA@ 000829cc     libeay32:v3_pcons.obj
 0002:0001b9e4       ??_C@_0BG@HGJBEKFE@requireExplicitPolicy?$AA@ 000829e4     libeay32:v3_pcons.obj
 0002:0001b9fc       ??_C@_0BI@HNCHDEDI@Require?5Explicit?5Policy?$AA@ 000829fc     libeay32:v3_pcons.obj
 0002:0001ba14       ??_C@_0BH@HMKHOMED@Inhibit?5Policy?5Mapping?$AA@ 00082a14     libeay32:v3_pcons.obj
 0002:0001ba30       ??_C@_0FB@LMCBHCHN@d?3?2wm653wehh?2platform?2mvv210?2src@ 00082a30     libeay32:v3_pcons.obj
 0002:0001bab4       v3_ocsp_accresp            00082ab4     libeay32:v3_extku.obj
 0002:0001baec       v3_ext_ku                  00082aec     libeay32:v3_extku.obj
 0002:0001bb24       ??_C@_0BD@CKAGEBEF@EXTENDED_KEY_USAGE?$AA@ 00082b24     libeay32:v3_extku.obj
 0002:0001bb38       ??_C@_0FB@GJDJKHPC@d?3?2wm653wehh?2platform?2mvv210?2src@ 00082b38     libeay32:v3_extku.obj
 0002:0001bc14       v3_sxnet                   00082c14     libeay32:v3_sxnet.obj
 0002:0001bc4c       ??_C@_05BPAJFIHK@SXNET?$AA@ 00082c4c     libeay32:v3_sxnet.obj
 0002:0001bc54       ??_C@_03NDFJNBKD@ids?$AA@  00082c54     libeay32:v3_sxnet.obj
 0002:0001bc58       ??_C@_07FLDOGLPN@SXNETID?$AA@ 00082c58     libeay32:v3_sxnet.obj
 0002:0001bc60       ??_C@_04CCHAHKJA@user?$AA@ 00082c60     libeay32:v3_sxnet.obj
 0002:0001bc68       ??_C@_04LDDJGOBB@zone?$AA@ 00082c68     libeay32:v3_sxnet.obj
 0002:0001bc70       ??_C@_0BF@NMLBNADB@?6?$CF?$CKsZone?3?5?$CFs?0?5User?3?5?$AA@ 00082c70     libeay32:v3_sxnet.obj
 0002:0001bc88       ??_C@_0BI@GOEPAKBG@?$CF?$CKsVersion?3?5?$CFld?5?$CI0x?$CFlX?$CJ?$AA@ 00082c88     libeay32:v3_sxnet.obj
 0002:0001bca0       ??_C@_0FB@HGCMGHKH@d?3?2wm653wehh?2platform?2mvv210?2src@ 00082ca0     libeay32:v3_sxnet.obj
 0002:0001bcf4       v3_crl_reason              00082cf4     libeay32:v3_enum.obj
 0002:0001bd2c       ??_C@_0O@BILLKPKO@removeFromCRL?$AA@ 00082d2c     libeay32:v3_enum.obj
 0002:0001bd3c       ??_C@_0BA@GLPEKBIK@Remove?5From?5CRL?$AA@ 00082d3c     libeay32:v3_enum.obj
 0002:0001bd4c       ??_C@_0M@MFMDLEDN@unspecified?$AA@ 00082d4c     libeay32:v3_enum.obj
 0002:0001bd58       ??_C@_0M@NNPCGPMF@Unspecified?$AA@ 00082d58     libeay32:v3_enum.obj
 0002:0001bd64       v3_akey_id                 00082d64     libeay32:v3_akey.obj
 0002:0001bd9c       ??_C@_06KCELPKEE@serial?$AA@ 00082d9c     libeay32:v3_akey.obj
 0002:0001bda4       ??_C@_05CNHMOIOC@keyid?$AA@ 00082da4     libeay32:v3_akey.obj
 0002:0001bdb0       ??_C@_0FA@BIHNLJGI@d?3?2wm653wehh?2platform?2mvv210?2src@ 00082db0     libeay32:v3_akey.obj
 0002:0001be00       ??_C@_06KHDOHNKC@always?$AA@ 00082e00     libeay32:v3_akey.obj
 0002:0001bfa8       v3_cpols                   00082fa8     libeay32:v3_cpols.obj
 0002:0001bfe0       ??_C@_09DFHLGOKA@NOTICEREF?$AA@ 00082fe0     libeay32:v3_cpols.obj
 0002:0001bfec       ??_C@_09CFGHNILC@noticenos?$AA@ 00082fec     libeay32:v3_cpols.obj
 0002:0001bff8       ??_C@_0N@HEIPMDAG@organization?$AA@ 00082ff8     libeay32:v3_cpols.obj
 0002:0001c008       ??_C@_0L@HCNDPADF@USERNOTICE?$AA@ 00083008     libeay32:v3_cpols.obj
 0002:0001c014       ??_C@_07MHGINJOA@exptext?$AA@ 00083014     libeay32:v3_cpols.obj
 0002:0001c01c       ??_C@_09FIKFDFH@noticeref?$AA@ 0008301c     libeay32:v3_cpols.obj
 0002:0001c028       ??_C@_0P@POBJIHLD@POLICYQUALINFO?$AA@ 00083028     libeay32:v3_cpols.obj
 0002:0001c038       ??_C@_07LEEILOKB@pqualid?$AA@ 00083038     libeay32:v3_cpols.obj
 0002:0001c040       ??_C@_0N@JPAHANFF@d?4usernotice?$AA@ 00083040     libeay32:v3_cpols.obj
 0002:0001c050       ??_C@_08EECALGEF@d?4cpsuri?$AA@ 00083050     libeay32:v3_cpols.obj
 0002:0001c05c       ??_C@_0L@POLPGHJK@POLICYINFO?$AA@ 0008305c     libeay32:v3_cpols.obj
 0002:0001c068       ??_C@_0L@HMNGMMJI@qualifiers?$AA@ 00083068     libeay32:v3_cpols.obj
 0002:0001c074       ??_C@_08NEBFOBH@policyid?$AA@ 00083074     libeay32:v3_cpols.obj
 0002:0001c080       ??_C@_0BE@GJBJOOCP@CERTIFICATEPOLICIES?$AA@ 00083080     libeay32:v3_cpols.obj
 0002:0001c098       ??_C@_0FB@GCODJBIG@d?3?2wm653wehh?2platform?2mvv210?2src@ 00083098     libeay32:v3_cpols.obj
 0002:0001c0ec       ??_C@_0BG@IHHCDAMH@?$CF?$CKsExplicit?5Text?3?5?$CFs?6?$AA@ 000830ec     libeay32:v3_cpols.obj
 0002:0001c104       ??_C@_0O@EFHNHHDA@?$CF?$CKsNumber?$CFs?3?5?$AA@ 00083104     libeay32:v3_cpols.obj
 0002:0001c114       ??_C@_0BF@OCNFPJOG@?$CF?$CKsOrganization?3?5?$CFs?6?$AA@ 00083114     libeay32:v3_cpols.obj
 0002:0001c12c       ??_C@_0O@OKDALMJE@noticeNumbers?$AA@ 0008312c     libeay32:v3_cpols.obj
 0002:0001c13c       ??_C@_0N@EALKMFB@explicitText?$AA@ 0008313c     libeay32:v3_cpols.obj
 0002:0001c14c       ??_C@_0M@ICGFCJNO@?$CF?$CKsCPS?3?5?$CFs?6?$AA@ 0008314c     libeay32:v3_cpols.obj
 0002:0001c158       ??_C@_0BB@MMPKKFLI@?$CF?$CKsUser?5Notice?3?6?$AA@ 00083158     libeay32:v3_cpols.obj
 0002:0001c16c       ??_C@_0BH@CHOAEJEJ@?$CF?$CKsUnknown?5Qualifier?3?5?$AA@ 0008316c     libeay32:v3_cpols.obj
 0002:0001c184       ??_C@_0M@BBFMFBLN@?$CF?$CKsPolicy?3?5?$AA@ 00083184     libeay32:v3_cpols.obj
 0002:0001c190       ??_C@_0L@LADHLIJ@userNotice?$AA@ 00083190     libeay32:v3_cpols.obj
 0002:0001c19c       ??_C@_03KKDAPHBH@CPS?$AA@  0008319c     libeay32:v3_cpols.obj
 0002:0001c1a0       ??_C@_0BB@FIJMMMGE@policyIdentifier?$AA@ 000831a0     libeay32:v3_cpols.obj
 0002:0001c1b4       ??_C@_06MIFIGELF@ia5org?$AA@ 000831b4     libeay32:v3_cpols.obj
 0002:0001c200       v3_bcons                   00083200     libeay32:v3_bcons.obj
 0002:0001c238       ??_C@_0BC@PKPCGCD@BASIC_CONSTRAINTS?$AA@ 00083238     libeay32:v3_bcons.obj
 0002:0001c24c       ??_C@_02DGMJAJHC@ca?$AA@   0008324c     libeay32:v3_bcons.obj
 0002:0001c250       ??_C@_02JLAAGLDA@CA?$AA@   00083250     libeay32:v3_bcons.obj
 0002:0001c258       ??_C@_0FB@ICLPEECL@d?3?2wm653wehh?2platform?2mvv210?2src@ 00083258     libeay32:v3_bcons.obj
 0002:0001c2f0       v3_pkey_usage_period       000832f0     libeay32:v3_pku.obj
 0002:0001c328       ??_C@_0BC@CCOKACDM@PKEY_USAGE_PERIOD?$AA@ 00083328     libeay32:v3_pku.obj
 0002:0001c33c       ??_C@_08PJIFIJBI@notAfter?$AA@ 0008333c     libeay32:v3_pku.obj
 0002:0001c348       ??_C@_09MJPOMOII@notBefore?$AA@ 00083348     libeay32:v3_pku.obj
 0002:0001c354       ??_C@_0M@FCHJLIHE@Not?5After?3?5?$AA@ 00083354     libeay32:v3_pku.obj
 0002:0001c360       ??_C@_0N@KGLJEEMK@Not?5Before?3?5?$AA@ 00083360     libeay32:v3_pku.obj
 0002:0001c370       v3_key_usage               00083370     libeay32:v3_bitst.obj
 0002:0001c3a8       v3_nscert                  000833a8     libeay32:v3_bitst.obj
 0002:0001c3e0       ??_C@_0N@LIFHMFCO@decipherOnly?$AA@ 000833e0     libeay32:v3_bitst.obj
 0002:0001c3f0       ??_C@_0O@FKBAPCEG@Decipher?5Only?$AA@ 000833f0     libeay32:v3_bitst.obj
 0002:0001c400       ??_C@_0N@BEFDLIKF@encipherOnly?$AA@ 00083400     libeay32:v3_bitst.obj
 0002:0001c410       ??_C@_0O@CANGKMJD@Encipher?5Only?$AA@ 00083410     libeay32:v3_bitst.obj
 0002:0001c420       ??_C@_07IHBCCDFJ@cRLSign?$AA@ 00083420     libeay32:v3_bitst.obj
 0002:0001c428       ??_C@_08OCJGKMAN@CRL?5Sign?$AA@ 00083428     libeay32:v3_bitst.obj
 0002:0001c434       ??_C@_0M@ONBOOMGI@keyCertSign?$AA@ 00083434     libeay32:v3_bitst.obj
 0002:0001c440       ??_C@_0BB@ELNGMDLH@Certificate?5Sign?$AA@ 00083440     libeay32:v3_bitst.obj
 0002:0001c454       ??_C@_0N@GONHKOEO@keyAgreement?$AA@ 00083454     libeay32:v3_bitst.obj
 0002:0001c464       ??_C@_0O@EOJOBCHL@Key?5Agreement?$AA@ 00083464     libeay32:v3_bitst.obj
 0002:0001c474       ??_C@_0BB@LBKKKIGO@dataEncipherment?$AA@ 00083474     libeay32:v3_bitst.obj
 0002:0001c488       ??_C@_0BC@GNPIAJLP@Data?5Encipherment?$AA@ 00083488     libeay32:v3_bitst.obj
 0002:0001c49c       ??_C@_0BA@MINCLOJG@keyEncipherment?$AA@ 0008349c     libeay32:v3_bitst.obj
 0002:0001c4ac       ??_C@_0BB@KNACIBEN@Key?5Encipherment?$AA@ 000834ac     libeay32:v3_bitst.obj
 0002:0001c4c0       ??_C@_0P@GPCNPOGO@nonRepudiation?$AA@ 000834c0     libeay32:v3_bitst.obj
 0002:0001c4d0       ??_C@_0BA@DJCGBBAI@Non?5Repudiation?$AA@ 000834d0     libeay32:v3_bitst.obj
 0002:0001c4e0       ??_C@_0BB@MFKHIIOM@digitalSignature?$AA@ 000834e0     libeay32:v3_bitst.obj
 0002:0001c4f4       ??_C@_0BC@DPKEIPIO@Digital?5Signature?$AA@ 000834f4     libeay32:v3_bitst.obj
 0002:0001c508       ??_C@_05JLEIJNEE@objCA?$AA@ 00083508     libeay32:v3_bitst.obj
 0002:0001c510       ??_C@_0BC@FAMHGMHB@Object?5Signing?5CA?$AA@ 00083510     libeay32:v3_bitst.obj
 0002:0001c524       ??_C@_07FFHDGPMJ@emailCA?$AA@ 00083524     libeay32:v3_bitst.obj
 0002:0001c52c       ??_C@_09GIEMCMEO@S?1MIME?5CA?$AA@ 0008352c     libeay32:v3_bitst.obj
 0002:0001c538       ??_C@_05JHLHLOEK@sslCA?$AA@ 00083538     libeay32:v3_bitst.obj
 0002:0001c540       ??_C@_06FMDLPOFJ@SSL?5CA?$AA@ 00083540     libeay32:v3_bitst.obj
 0002:0001c548       ??_C@_08FINKBBAF@reserved?$AA@ 00083548     libeay32:v3_bitst.obj
 0002:0001c554       ??_C@_07GIOKFKGL@objsign?$AA@ 00083554     libeay32:v3_bitst.obj
 0002:0001c55c       ??_C@_0P@DDHLFHHK@Object?5Signing?$AA@ 0008355c     libeay32:v3_bitst.obj
 0002:0001c56c       ??_C@_06HJHJCKIO@server?$AA@ 0008356c     libeay32:v3_bitst.obj
 0002:0001c574       ??_C@_0L@DCIAGJKL@SSL?5Server?$AA@ 00083574     libeay32:v3_bitst.obj
 0002:0001c580       ??_C@_06DGDLPBAN@client?$AA@ 00083580     libeay32:v3_bitst.obj
 0002:0001c588       ??_C@_0L@HNMCLCCI@SSL?5Client?$AA@ 00083588     libeay32:v3_bitst.obj
 0002:0001c598       ??_C@_0FB@EKHJICLH@d?3?2wm653wehh?2platform?2mvv210?2src@ 00083598     libeay32:v3_bitst.obj
 0002:0001c5ec       v3_skey_id                 000835ec     libeay32:v3_skey.obj
 0002:0001c628       ??_C@_0FA@OIDMDEIP@d?3?2wm653wehh?2platform?2mvv210?2src@ 00083628     libeay32:v3_skey.obj
 0002:0001c678       ??_C@_04OIJGJDKO@hash?$AA@ 00083678     libeay32:v3_skey.obj
 0002:0001c680       v3_ns_ia5_list             00083680     libeay32:v3_ia5.obj
 0002:0001c840       ??_C@_0EP@FPIPLDCG@d?3?2wm653wehh?2platform?2mvv210?2src@ 00083840     libeay32:v3_ia5.obj
 0002:0001c890       ??_C@_0FA@GLNJJMIP@d?3?2wm653wehh?2platform?2mvv210?2src@ 00083890     libeay32:v3_conf.obj
 0002:0001c9d8       ??_C@_08JIPBBKBM@X509_REQ?$AA@ 000839d8     libeay32:x_req.obj
 0002:0001c9e4       ??_C@_07OBHFIHGJ@sig_alg?$AA@ 000839e4     libeay32:x_req.obj
 0002:0001c9ec       ??_C@_08JILJKJG@req_info?$AA@ 000839ec     libeay32:x_req.obj
 0002:0001c9f8       ??_C@_0O@EHCMNJCB@X509_REQ_INFO?$AA@ 000839f8     libeay32:x_req.obj
 0002:0001ca08       ??_C@_0L@HNMJPKNA@attributes?$AA@ 00083a08     libeay32:x_req.obj
 0002:0001ca14       ??_C@_06GKCAPDID@pubkey?$AA@ 00083a14     libeay32:x_req.obj
 0002:0001ca1c       ??_C@_07JNNGEGGO@subject?$AA@ 00083a1c     libeay32:x_req.obj
 0002:0001ca28       ??_C@_0EP@COKBPCCM@d?3?2wm653wehh?2platform?2mvv210?2src@ 00083a28     libeay32:x509_att.obj
 0002:0001ca78       ??_C@_0BE@LILBBPKE@OpenSSL?5ECDH?5method?$AA@ 00083a78     libeay32:ech_ossl.obj
 0002:0001ca90       ??_C@_0EP@EIICIEGK@d?3?2wm653wehh?2platform?2mvv210?2src@ 00083a90     libeay32:ech_ossl.obj
 0002:0001cb88       ??_C@_0EN@LKHNEOCI@d?3?2wm653wehh?2platform?2mvv210?2src@ 00083b88     libeay32:ecp_mont.obj
 0002:0001cc78       ??_C@_0EN@MFLMOEJL@d?3?2wm653wehh?2platform?2mvv210?2src@ 00083c78     libeay32:ecp_nist.obj
 0002:0001cd68       ??_C@_0EN@HKENHFKC@d?3?2wm653wehh?2platform?2mvv210?2src@ 00083d68     libeay32:ec2_smpl.obj
 0002:0001cdb8       ??_C@_0EM@LBEFNFCH@d?3?2wm653wehh?2platform?2mvv210?2src@ 00083db8     libeay32:bn_exp2.obj
 0002:0001ce08       ??_C@_0EM@LKCJBLMG@d?3?2wm653wehh?2platform?2mvv210?2src@ 00083e08     libeay32:bn_recp.obj
 0002:0001cfe4       ??_C@_08JGFBPDAP@X509_CRL?$AA@ 00083fe4     libeay32:x_crl.obj
 0002:0001cff0       ??_C@_03GJBFOAJL@crl?$AA@  00083ff0     libeay32:x_crl.obj
 0002:0001cff4       ??_C@_0O@IMOAEKCP@X509_CRL_INFO?$AA@ 00083ff4     libeay32:x_crl.obj
 0002:0001d004       ??_C@_07MIJFAMBD@revoked?$AA@ 00084004     libeay32:x_crl.obj
 0002:0001d00c       ??_C@_0L@BMOABHOK@nextUpdate?$AA@ 0008400c     libeay32:x_crl.obj
 0002:0001d018       ??_C@_0L@MPDCJAIM@lastUpdate?$AA@ 00084018     libeay32:x_crl.obj
 0002:0001d024       ??_C@_0N@JBPKOADN@X509_REVOKED?$AA@ 00084024     libeay32:x_crl.obj
 0002:0001d034       ??_C@_0L@ICCCPLKC@extensions?$AA@ 00084034     libeay32:x_crl.obj
 0002:0001d040       ??_C@_0P@HBDMPDNI@revocationDate?$AA@ 00084040     libeay32:x_crl.obj
 0002:0001d050       ??_C@_0EM@HLHJDKMD@d?3?2wm653wehh?2platform?2mvv210?2src@ 00084050     libeay32:x_crl.obj
 0002:0001d210       ??_C@_09NKDPGBBA@cert_info?$AA@ 00084210     libeay32:x_x509.obj
 0002:0001d21c       ??_C@_09LCJGKABB@X509_CINF?$AA@ 0008421c     libeay32:x_x509.obj
 0002:0001d228       ??_C@_0L@JMFHLKAL@subjectUID?$AA@ 00084228     libeay32:x_x509.obj
 0002:0001d234       ??_C@_09KIIAMAEE@issuerUID?$AA@ 00084234     libeay32:x_x509.obj
 0002:0001d240       ??_C@_08GCHKOCBP@validity?$AA@ 00084240     libeay32:x_x509.obj
 0002:0001d250       ??_C@_0EM@EIEBKGJ@d?3?2wm653wehh?2platform?2mvv210?2src@ 00084250     libeay32:cms_io.obj
 0002:0001d29c       ??_C@_08POLPFBMC@SEQUENCE?$AA@ 0008429c     libeay32:tasn_prn.obj
 0002:0001d2a8       ??_C@_03KPIFFHNE@SET?$AA@  000842a8     libeay32:tasn_prn.obj
 0002:0001d2ac       ??_C@_0O@DIEIKEFB@memory?5buffer?$AA@ 000842ac     libeay32:bss_mem.obj
 0002:0001d2c0       ??_C@_0EN@IFBMAPDF@d?3?2wm653wehh?2platform?2mvv210?2src@ 000842c0     libeay32:bss_mem.obj
 0002:0001d310       ??_C@_0EM@CLBFFJNJ@d?3?2wm653wehh?2platform?2mvv210?2src@ 00084310     libeay32:cms_dd.obj
 0002:0001d360       ??_C@_0EN@GEIMIMFD@d?3?2wm653wehh?2platform?2mvv210?2src@ 00084360     libeay32:bio_enc.obj
 0002:0001d3cc       ??_C@_09DHMKJJNA@ASN1_TIME?$AA@ 000843cc     libeay32:a_time.obj
 0002:0001d3d8       ??_C@_0EN@IOPKJOHJ@d?3?2wm653wehh?2platform?2mvv210?2src@ 000843d8     libeay32:a_time.obj
 0002:0001d428       X509_version               00084428     libeay32:x509_vfy.obj
 0002:0001d458       ??_C@_0EO@ENFGJDHG@d?3?2wm653wehh?2platform?2mvv210?2src@ 00084458     libeay32:m_sigver.obj
 0002:0001d4a8       ??_C@_0EM@MHADPNEH@d?3?2wm653wehh?2platform?2mvv210?2src@ 000844a8     libeay32:p_sign.obj
 0002:0001d57c       ??_C@_0BK@PILNOGHK@PROXY_CERT_INFO_EXTENSION?$AA@ 0008457c     libeay32:v3_pcia.obj
 0002:0001d598       ??_C@_0M@KKFBCGOG@proxyPolicy?$AA@ 00084598     libeay32:v3_pcia.obj
 0002:0001d5a4       ??_C@_0BH@JBGKCLHC@pcPathLengthConstraint?$AA@ 000845a4     libeay32:v3_pcia.obj
 0002:0001d5bc       ??_C@_0N@CLKEFBDI@PROXY_POLICY?$AA@ 000845bc     libeay32:v3_pcia.obj
 0002:0001d5cc       ??_C@_0P@BLMEJDMO@policyLanguage?$AA@ 000845cc     libeay32:v3_pcia.obj
 0002:0001f7b8       ??_C@_0M@DPMJHKGH@PBKDF2PARAM?$AA@ 000867b8     libeay32:p5_pbev2.obj
 0002:0001f7c4       ??_C@_03NBFGPAGA@prf?$AA@  000867c4     libeay32:p5_pbev2.obj
 0002:0001f7c8       ??_C@_09PKJJLJJD@keylength?$AA@ 000867c8     libeay32:p5_pbev2.obj
 0002:0001f7d4       ??_C@_04BKLHDIKK@iter?$AA@ 000867d4     libeay32:p5_pbev2.obj
 0002:0001f7dc       ??_C@_04OKLIMCN@salt?$AA@  000867dc     libeay32:p5_pbev2.obj
 0002:0001f7e4       ??_C@_09DHBCCKCK@PBE2PARAM?$AA@ 000867e4     libeay32:p5_pbev2.obj
 0002:0001f7f0       ??_C@_0L@HBBFMHKN@encryption?$AA@ 000867f0     libeay32:p5_pbev2.obj
 0002:0001f7fc       ??_C@_07KEPFKPDN@keyfunc?$AA@ 000867fc     libeay32:p5_pbev2.obj
 0002:0001f808       ??_C@_0EP@ECCLNLMM@d?3?2wm653wehh?2platform?2mvv210?2src@ 00086808     libeay32:asn_pack.obj
 0002:0001f858       ??_C@_0EN@BMFEIIDL@d?3?2wm653wehh?2platform?2mvv210?2src@ 00086858     libeay32:rsa_pk1.obj
 0002:0001f8a8       ??_C@_0EN@PDDHPBKJ@d?3?2wm653wehh?2platform?2mvv210?2src@ 000868a8     libeay32:rsa_ssl.obj
 0002:0001f8f8       ??_C@_0EO@NNKDLJPI@d?3?2wm653wehh?2platform?2mvv210?2src@ 000868f8     libeay32:rsa_none.obj
 0002:0001fcc8       ??_C@_0O@DFJMHGOP@EC_PRIVATEKEY?$AA@ 00086cc8     libeay32:ec_asn1.obj
 0002:0001fcd8       ??_C@_0L@HHPOFMCB@parameters?$AA@ 00086cd8     libeay32:ec_asn1.obj
 0002:0001fce4       ??_C@_0L@BCENACFO@privateKey?$AA@ 00086ce4     libeay32:ec_asn1.obj
 0002:0001fcf0       ??_C@_0P@PBBIGPFJ@ECPKPARAMETERS?$AA@ 00086cf0     libeay32:ec_asn1.obj
 0002:0001fd00       ??_C@_0BD@HOIIAPI@value?4implicitlyCA?$AA@ 00086d00     libeay32:ec_asn1.obj
 0002:0001fd14       ??_C@_0BB@KOECJJJ@value?4parameters?$AA@ 00086d14     libeay32:ec_asn1.obj
 0002:0001fd28       ??_C@_0BC@JEJHGDNN@value?4named_curve?$AA@ 00086d28     libeay32:ec_asn1.obj
 0002:0001fd3c       ??_C@_0N@ECDPFONH@ECPARAMETERS?$AA@ 00086d3c     libeay32:ec_asn1.obj
 0002:0001fd4c       ??_C@_08DKFAOMDI@cofactor?$AA@ 00086d4c     libeay32:ec_asn1.obj
 0002:0001fd58       ??_C@_05NDNMCCJH@order?$AA@ 00086d58     libeay32:ec_asn1.obj
 0002:0001fd60       ??_C@_05HIKPKPAA@curve?$AA@ 00086d60     libeay32:ec_asn1.obj
 0002:0001fd68       ??_C@_07MJJGNICD@fieldID?$AA@ 00086d68     libeay32:ec_asn1.obj
 0002:0001fd70       ??_C@_0M@BHDPNPCK@X9_62_CURVE?$AA@ 00086d70     libeay32:ec_asn1.obj
 0002:0001fd7c       ??_C@_04MENKDCKE@seed?$AA@ 00086d7c     libeay32:ec_asn1.obj
 0002:0001fd84       ??_C@_0O@PGPIAKKH@X9_62_FIELDID?$AA@ 00086d84     libeay32:ec_asn1.obj
 0002:0001fd94       ??_C@_09OAOLGAOM@fieldType?$AA@ 00086d94     libeay32:ec_asn1.obj
 0002:0001fda0       ??_C@_0L@NLMAKEBL@p?4char_two?$AA@ 00086da0     libeay32:ec_asn1.obj
 0002:0001fdac       ??_C@_07DPJEDCLB@p?4prime?$AA@ 00086dac     libeay32:ec_asn1.obj
 0002:0001fdb4       ??_C@_0BJ@CCODLOLO@X9_62_CHARACTERISTIC_TWO?$AA@ 00086db4     libeay32:ec_asn1.obj
 0002:0001fdd0       ??_C@_04GPMDFGEJ@type?$AA@ 00086dd0     libeay32:ec_asn1.obj
 0002:0001fdd8       ??_C@_01GOHFPIOK@m?$AA@    00086dd8     libeay32:ec_asn1.obj
 0002:0001fddc       ??_C@_09DMGLCKOJ@p?4ppBasis?$AA@ 00086ddc     libeay32:ec_asn1.obj
 0002:0001fde8       ??_C@_09LICBCEBD@p?4tpBasis?$AA@ 00086de8     libeay32:ec_asn1.obj
 0002:0001fdf4       ??_C@_09KOBBOOPN@p?4onBasis?$AA@ 00086df4     libeay32:ec_asn1.obj
 0002:0001fe00       ??_C@_07PBHIMFBE@p?4other?$AA@ 00086e00     libeay32:ec_asn1.obj
 0002:0001fe08       ??_C@_0BC@NPDMPFCL@X9_62_PENTANOMIAL?$AA@ 00086e08     libeay32:ec_asn1.obj
 0002:0001fe1c       ??_C@_02LAFHGHBM@k3?$AA@   00086e1c     libeay32:ec_asn1.obj
 0002:0001fe20       ??_C@_02KJEMFGFN@k2?$AA@   00086e20     libeay32:ec_asn1.obj
 0002:0001fe24       ??_C@_02ICGBAFJO@k1?$AA@   00086e24     libeay32:ec_asn1.obj
 0002:0001fe28       ??_C@_0EM@BCOHHMGC@d?3?2wm653wehh?2platform?2mvv210?2src@ 00086e28     libeay32:ec_asn1.obj
 0002:0001ff00       ??_C@_0BE@LDIFBBLG@PKCS8_PRIV_KEY_INFO?$AA@ 00086f00     libeay32:p8_pkey.obj
 0002:0001ff14       ??_C@_04JMMJFDFL@pkey?$AA@ 00086f14     libeay32:p8_pkey.obj
 0002:0001ff1c       ??_C@_07PLCMOKAM@pkeyalg?$AA@ 00086f1c     libeay32:p8_pkey.obj
 0002:0001ff24       ??_C@_0BE@FPCNHCIJ@Generator?5?$CIhybrid?$CJ?3?$AA@ 00086f24     libeay32:eck_prn.obj
 0002:0001ff38       ??_C@_0BK@DOCPEENO@Generator?5?$CIuncompressed?$CJ?3?$AA@ 00086f38     libeay32:eck_prn.obj
 0002:0001ff54       ??_C@_0BI@DFFFIKFB@Generator?5?$CIcompressed?$CJ?3?$AA@ 00086f54     libeay32:eck_prn.obj
 0002:0001ff6c       ??_C@_06LEJCPMLM@?$CF02x?$CFs?$AA@ 00086f6c     libeay32:eck_prn.obj
 0002:0001ff78       ??_C@_0EM@FLNGOIDD@d?3?2wm653wehh?2platform?2mvv210?2src@ 00086f78     libeay32:eck_prn.obj
 0002:0001ffc4       ??_C@_05PDHKGGIM@Seed?3?$AA@ 00086fc4     libeay32:eck_prn.obj
 0002:0001ffcc       ??_C@_0L@IEMHODML@Cofactor?3?5?$AA@ 00086fcc     libeay32:eck_prn.obj
 0002:0001ffd8       ??_C@_07KOGOKIFH@Order?3?5?$AA@ 00086fd8     libeay32:eck_prn.obj
 0002:0001ffe0       ??_C@_05OKMHJIGA@B?3?5?5?5?$AA@ 00086fe0     libeay32:eck_prn.obj
 0002:0001ffe8       ??_C@_05GMFDOKMO@A?3?5?5?5?$AA@ 00086fe8     libeay32:eck_prn.obj
 0002:0001fff0       ??_C@_06DBHHIIKM@Prime?3?$AA@ 00086ff0     libeay32:eck_prn.obj
 0002:0001fff8       ??_C@_0M@JDIPGLHE@Polynomial?3?$AA@ 00086ff8     libeay32:eck_prn.obj
 0002:00020004       ??_C@_0BA@ENMKKION@Basis?5Type?3?5?$CFs?6?$AA@ 00087004     libeay32:eck_prn.obj
 0002:00020014       ??_C@_0BA@KNKNOIFH@Field?5Type?3?5?$CFs?6?$AA@ 00087014     libeay32:eck_prn.obj
 0002:00020024       ??_C@_0N@JOFLCJFF@ASN1?5OID?3?5?$CFs?$AA@ 00087024     libeay32:eck_prn.obj
 0002:00020034       ??_C@_04HDOCAJNK@?$CFs?$CFs?$AA@ 00087034     libeay32:t_pkey.obj
 0002:0002003c       ??_C@_0M@IBLDKCHK@?5?$CINegative?$CJ?$AA@ 0008703c     libeay32:t_pkey.obj
 0002:00020048       ??_C@_0BE@KHLFKPFC@?$CFs?5?$CFs?$CFlu?5?$CI?$CFs0x?$CFlx?$CJ?6?$AA@ 00087048     libeay32:t_pkey.obj
 0002:0002005c       ??_C@_05NJJIPCOC@?$CFs?50?6?$AA@ 0008705c     libeay32:t_pkey.obj
 0002:00020068       ??_C@_0EN@IAKMHMJK@d?3?2wm653wehh?2platform?2mvv210?2src@ 00087068     libeay32:ec_print.obj
 0002:000200b8       ??_C@_0EP@EBOHPFGP@d?3?2wm653wehh?2platform?2mvv210?2src@ 000870b8     libeay32:pk7_lib.obj
 0002:00020108       ??_C@_03MKABNOCG@Dec?$AA@  00087108     libeay32:t_x509.obj
 0002:0002010c       ??_C@_03JPJOFNIA@Nov?$AA@  0008710c     libeay32:t_x509.obj
 0002:00020110       ??_C@_03BMAOKBAD@Oct?$AA@  00087110     libeay32:t_x509.obj
 0002:00020114       ??_C@_03GGCAPAJC@Sep?$AA@  00087114     libeay32:t_x509.obj
 0002:00020118       ??_C@_03IFJFEIGA@Aug?$AA@  00087118     libeay32:t_x509.obj
 0002:0002011c       ??_C@_03LBGABGKK@Jul?$AA@  0008711c     libeay32:t_x509.obj
 0002:00020120       ??_C@_03IDFGHECI@Jun?$AA@  00087120     libeay32:t_x509.obj
 0002:00020124       ??_C@_03CNMDKL@May?$AA@    00087124     libeay32:t_x509.obj
 0002:00020128       ??_C@_03LEOLGMJP@Apr?$AA@  00087128     libeay32:t_x509.obj
 0002:0002012c       ??_C@_03ODNJBKGA@Mar?$AA@  0008712c     libeay32:t_x509.obj
 0002:00020130       ??_C@_03HJBDCHOM@Feb?$AA@  00087130     libeay32:t_x509.obj
 0002:00020134       ??_C@_03JIHJHPIE@Jan?$AA@  00087134     libeay32:t_x509.obj
 0002:00020138       ??_C@_0EN@JFBJIANP@d?3?2wm653wehh?2platform?2mvv210?2src@ 00087138     libeay32:t_x509.obj
 0002:00020188       ??_C@_0P@FGACABCD@Bad?5time?5value?$AA@ 00087188     libeay32:t_x509.obj
 0002:00020198       ??_C@_0BP@OGIOIJMK@?$CFs?5?$CF2d?5?$CF02d?3?$CF02d?3?$CF02d?$CF?4?$CKs?5?$CFd?$CFs?$AA@ 00087198     libeay32:t_x509.obj
 0002:000201b8       ??_C@_04FIEKMBKB@?5GMT?$AA@ 000871b8     libeay32:t_x509.obj
 0002:00020230       ??_C@_06IJDLPEM@length?$AA@ 00087230     libeay32:dh_asn1.obj
 0002:000203ec       ??_C@_0P@PJJHDFJB@RSA_PSS_PARAMS?$AA@ 000873ec     libeay32:rsa_asn1.obj
 0002:000203fc       ??_C@_0N@KGDDKMLA@trailerField?$AA@ 000873fc     libeay32:rsa_asn1.obj
 0002:0002040c       ??_C@_0L@PKGNFOCE@saltLength?$AA@ 0008740c     libeay32:rsa_asn1.obj
 0002:00020418       ??_C@_0BB@KKPGFJED@maskGenAlgorithm?$AA@ 00087418     libeay32:rsa_asn1.obj
 0002:0002042c       ??_C@_0O@DHJLLKEK@hashAlgorithm?$AA@ 0008742c     libeay32:rsa_asn1.obj
 0002:0002043c       ??_C@_04BBEMPLKC@iqmp?$AA@ 0008743c     libeay32:rsa_asn1.obj
 0002:00020444       ??_C@_04PENPDGE@dmq1?$AA@  00087444     libeay32:rsa_asn1.obj
 0002:0002044c       ??_C@_04OIPJJFD@dmp1?$AA@  0008744c     libeay32:rsa_asn1.obj
 0002:00020454       ??_C@_01LPLHEDKD@d?$AA@    00087454     libeay32:rsa_asn1.obj
 0002:00020458       ??_C@_01KGKMHCOC@e?$AA@    00087458     libeay32:rsa_asn1.obj
 0002:0002045c       ??_C@_02JPPHBJLD@?2?6?$AA@ 0008745c     libeay32:f_int.obj
 0002:00020460       ??_C@_02PLJDPFIO@00?$AA@   00087460     libeay32:f_int.obj
 0002:000204a8       ??_C@_08CKLJFNPB@PBEPARAM?$AA@ 000874a8     libeay32:p5_pbe.obj
 0002:000204b8       ??_C@_0FA@NBNNIDCA@d?3?2wm653wehh?2platform?2mvv210?2src@ 000874b8     libeay32:p12_key.obj
 0002:000205c0       ??_C@_02HDBGODGB@?2?2?$AA@ 000875c0     libeay32:a_strex.obj
 0002:000205c4       ??_C@_05JJPGCIKH@?2?$CF02X?$AA@ 000875c4     libeay32:a_strex.obj
 0002:000205cc       ??_C@_01KICIPPFI@?2?$AA@   000875cc     libeay32:a_strex.obj
 0002:000205d0       ??_C@_07FDBPKGOC@?2U?$CF04lX?$AA@ 000875d0     libeay32:a_strex.obj
 0002:000205d8       ??_C@_07IOFGAIHD@?2W?$CF08lX?$AA@ 000875d8     libeay32:a_strex.obj
 0002:000205e0       ??_C@_0EO@POPABNG@d?3?2wm653wehh?2platform?2mvv210?2src@ 000875e0     libeay32:a_strex.obj
 0002:00020630       ??_C@_01IPJKGB@?$CD?$AA@   00087630     libeay32:a_strex.obj
 0002:00020634       ??_C@_01BJJEKLCA@?$CC?$AA@ 00087634     libeay32:a_strex.obj
 0002:00020638       ??_C@_01NEMOKFLO@?$DN?$AA@ 00087638     libeay32:a_strex.obj
 0002:0002063c       ??_C@_03MHLONNLM@?5?$DN?5?$AA@ 0008763c     libeay32:a_strex.obj
 0002:00020640       ??_C@_01IHBHIGKO@?0?$AA@   00087640     libeay32:a_strex.obj
 0002:00020644       ??_C@_01MIFGBAGJ@?$CL?$AA@ 00087644     libeay32:a_strex.obj
 0002:00020648       ??_C@_02LNAEAIDO@?$DL?5?$AA@ 00087648     libeay32:a_strex.obj
 0002:0002064c       ??_C@_03NPBFACHO@?5?$CL?5?$AA@ 0008764c     libeay32:a_strex.obj
 0002:00020650       ??_C@_0M@PCEPOGPN@?8?$CI?$CJ?$CL?0?9?4?1?3?$DN?$DP?$AA@ 00087650     libeay32:a_mbstr.obj
 0002:0002065c       ??_C@_08EOPONIBF@maxsize?$DN?$AA@ 0008765c     libeay32:a_mbstr.obj
 0002:00020668       ??_C@_03JALODAI@?$CFld?$AA@ 00087668     libeay32:a_mbstr.obj
 0002:0002066c       ??_C@_08JJBFGKFE@minsize?$DN?$AA@ 0008766c     libeay32:a_mbstr.obj
 0002:00020678       ??_C@_0EO@JLLBAGMI@d?3?2wm653wehh?2platform?2mvv210?2src@ 00087678     libeay32:a_mbstr.obj
 0002:00020914       ??_C@_06DPGELLJH@FORMAT?$AA@ 00087914     libeay32:asn1_gen.obj
 0002:0002091c       ??_C@_04HPGCGPG@FORM?$AA@  0008791c     libeay32:asn1_gen.obj
 0002:00020924       ??_C@_07JHDNPBBM@BITWRAP?$AA@ 00087924     libeay32:asn1_gen.obj
 0002:0002092c       ??_C@_07OAIMKKNN@SETWRAP?$AA@ 0008792c     libeay32:asn1_gen.obj
 0002:00020934       ??_C@_07LAEBDLGO@SEQWRAP?$AA@ 00087934     libeay32:asn1_gen.obj
 0002:0002093c       ??_C@_07KIEILLID@OCTWRAP?$AA@ 0008793c     libeay32:asn1_gen.obj
 0002:00020944       ??_C@_08PPMOEJGF@IMPLICIT?$AA@ 00087944     libeay32:asn1_gen.obj
 0002:00020950       ??_C@_03PKFOHEJD@IMP?$AA@  00087950     libeay32:asn1_gen.obj
 0002:00020954       ??_C@_08CNKBIFDO@EXPLICIT?$AA@ 00087954     libeay32:asn1_gen.obj
 0002:00020960       ??_C@_03KKGFKKLA@EXP?$AA@  00087960     libeay32:asn1_gen.obj
 0002:00020964       ??_C@_03NCPCKDJB@SEQ?$AA@  00087964     libeay32:asn1_gen.obj
 0002:00020968       ??_C@_0O@DFADMOGA@NUMERICSTRING?$AA@ 00087968     libeay32:asn1_gen.obj
 0002:00020978       ??_C@_07DBOJJFHC@NUMERIC?$AA@ 00087978     libeay32:asn1_gen.obj
 0002:00020980       ??_C@_06GBOJAPHH@GENSTR?$AA@ 00087980     libeay32:asn1_gen.obj
 0002:00020988       ??_C@_0O@OIKLOOAP@GeneralString?$AA@ 00087988     libeay32:asn1_gen.obj
 0002:00020998       ??_C@_0O@GENPGMAM@TELETEXSTRING?$AA@ 00087998     libeay32:asn1_gen.obj
 0002:000209a8       ??_C@_09FMBHBANP@T61STRING?$AA@ 000879a8     libeay32:asn1_gen.obj
 0002:000209b4       ??_C@_03HMGPCGIG@T61?$AA@  000879b4     libeay32:asn1_gen.obj
 0002:000209b8       ??_C@_09OMDMMLJJ@PRINTABLE?$AA@ 000879b8     libeay32:asn1_gen.obj
 0002:000209c4       ??_C@_0BA@FKHILLED@PRINTABLESTRING?$AA@ 000879c4     libeay32:asn1_gen.obj
 0002:000209d4       ??_C@_07MCGNPFEO@VISIBLE?$AA@ 000879d4     libeay32:asn1_gen.obj
 0002:000209dc       ??_C@_0O@KDAJCBO@VISIBLESTRING?$AA@ 000879dc     libeay32:asn1_gen.obj
 0002:000209ec       ??_C@_09BIBABMFN@BMPSTRING?$AA@ 000879ec     libeay32:asn1_gen.obj
 0002:000209f8       ??_C@_03CNFPPDJC@BMP?$AA@  000879f8     libeay32:asn1_gen.obj
 0002:000209fc       ??_C@_0L@PJIJIHJD@UTF8String?$AA@ 000879fc     libeay32:asn1_gen.obj
 0002:00020a08       ??_C@_04OOMJJNCF@UTF8?$AA@ 00087a08     libeay32:asn1_gen.obj
 0002:00020a10       ??_C@_09JOMPLKGB@IA5STRING?$AA@ 00087a10     libeay32:asn1_gen.obj
 0002:00020a1c       ??_C@_03OLMOBCBF@IA5?$AA@  00087a1c     libeay32:asn1_gen.obj
 0002:00020a20       ??_C@_04CBEPCLMK@UNIV?$AA@ 00087a20     libeay32:asn1_gen.obj
 0002:00020a28       ??_C@_0BA@EJHHDALK@UNIVERSALSTRING?$AA@ 00087a28     libeay32:asn1_gen.obj
 0002:00020a38       ??_C@_09MBLGEDKL@BITSTRING?$AA@ 00087a38     libeay32:asn1_gen.obj
 0002:00020a44       ??_C@_06GOEDGPII@BITSTR?$AA@ 00087a44     libeay32:asn1_gen.obj
 0002:00020a4c       ??_C@_0M@JIDALIGG@OCTETSTRING?$AA@ 00087a4c     libeay32:asn1_gen.obj
 0002:00020a58       ??_C@_03LBMHMDEB@OCT?$AA@  00087a58     libeay32:asn1_gen.obj
 0002:00020a5c       ??_C@_07EECHABMP@GENTIME?$AA@ 00087a5c     libeay32:asn1_gen.obj
 0002:00020a64       ??_C@_0BA@LKNBIJBB@GENERALIZEDTIME?$AA@ 00087a64     libeay32:asn1_gen.obj
 0002:00020a74       ??_C@_03JCIJEFNJ@UTC?$AA@  00087a74     libeay32:asn1_gen.obj
 0002:00020a78       ??_C@_07HIOLDDN@UTCTIME?$AA@ 00087a78     libeay32:asn1_gen.obj
 0002:00020a80       ??_C@_06IAMCMNFI@OBJECT?$AA@ 00087a80     libeay32:asn1_gen.obj
 0002:00020a88       ??_C@_03PGJCFEMG@OID?$AA@  00087a88     libeay32:asn1_gen.obj
 0002:00020a8c       ??_C@_0L@KNIEMAKM@ENUMERATED?$AA@ 00087a8c     libeay32:asn1_gen.obj
 0002:00020a98       ??_C@_04PNKFCNMG@ENUM?$AA@ 00087a98     libeay32:asn1_gen.obj
 0002:00020aa0       ??_C@_07EHCIHKNF@INTEGER?$AA@ 00087aa0     libeay32:asn1_gen.obj
 0002:00020aa8       ??_C@_03JMHEAPMO@INT?$AA@  00087aa8     libeay32:asn1_gen.obj
 0002:00020aac       ??_C@_07JDEDMABE@BOOLEAN?$AA@ 00087aac     libeay32:asn1_gen.obj
 0002:00020ab4       ??_C@_04PPJDIBFE@BOOL?$AA@ 00087ab4     libeay32:asn1_gen.obj
 0002:00020abc       ??_C@_05NALEHOPE@Char?$DN?$AA@ 00087abc     libeay32:asn1_gen.obj
 0002:00020ac8       ??_C@_0EP@NAHIMGLP@d?3?2wm653wehh?2platform?2mvv210?2src@ 00087ac8     libeay32:asn1_gen.obj
 0002:00020b18       ??_C@_07HMNLDFAL@BITLIST?$AA@ 00087b18     libeay32:asn1_gen.obj
 0002:00020b20       ??_C@_03IECIMIEG@HEX?$AA@  00087b20     libeay32:asn1_gen.obj
 0002:00020b24       ??_C@_05CCNLIHFO@ASCII?$AA@ 00087b24     libeay32:asn1_gen.obj
 0002:00020b2c       ??_C@_04JBGFELJA@tag?$DN?$AA@ 00087b2c     libeay32:asn1_gen.obj
 0002:00020b34       ??_C@_07IOGEOOAA@string?$DN?$AA@ 00087b34     libeay32:asn1_gen.obj
 0002:00020b3c       ??_C@_05LKMDHMJN@WIN32?$AA@ 00087b3c     libeay32:conf_def.obj
 0002:00020b44       ??_C@_0BA@EEIGDPJJ@OpenSSL?5default?$AA@ 00087b44     libeay32:conf_def.obj
 0002:00020b54       CONF_def_version           00087b54     libeay32:conf_def.obj
 0002:00020b80       ??_C@_0EP@FLILJMGH@d?3?2wm653wehh?2platform?2mvv210?2src@ 00087b80     libeay32:conf_def.obj
 0002:00020bd0       ??_C@_07PNLMPOMH@?$FL?$FL?$CFs?$FN?$FN?6?$AA@ 00087bd0     libeay32:conf_def.obj
 0002:00020bd8       ??_C@_0M@CLCLGKAH@?$FL?$CFs?$FN?5?$CFs?$DN?$CFs?6?$AA@ 00087bd8     libeay32:conf_def.obj
 0002:00020be4       ??_C@_05KFEICJBI@line?5?$AA@ 00087be4     libeay32:conf_def.obj
 0002:00020bec       ??_C@_03OEJENCPE@ENV?$AA@  00087bec     libeay32:conf_api.obj
 0002:00020bf0       ??_C@_0L@BFMFELMC@vv?5?$DN?$DN?5NULL?$AA@ 00087bf0     libeay32:conf_api.obj
 0002:00020c00       ??_C@_0EP@PLCFAFHA@d?3?2wm653wehh?2platform?2mvv210?2src@ 00087c00     libeay32:conf_api.obj
 0002:00020c50       MD5_version                00087c50     libeay32:md5_dgst.obj
 0002:000211a4       ??_C@_0BA@JLGHGCLL@OCSP_SERVICELOC?$AA@ 000881a4     libeay32:ocsp_asn.obj
 0002:000211b4       ??_C@_07PAIKCKMF@locator?$AA@ 000881b4     libeay32:ocsp_asn.obj
 0002:000211bc       ??_C@_0L@JOKCDHBA@OCSP_CRLID?$AA@ 000881bc     libeay32:ocsp_asn.obj
 0002:000211c8       ??_C@_07BDEAJPPO@crlTime?$AA@ 000881c8     libeay32:ocsp_asn.obj
 0002:000211d0       ??_C@_06DLEHNACA@crlNum?$AA@ 000881d0     libeay32:ocsp_asn.obj
 0002:000211d8       ??_C@_06KAALCHHK@crlUrl?$AA@ 000881d8     libeay32:ocsp_asn.obj
 0002:000211e0       ??_C@_0P@CPCDLAO@OCSP_BASICRESP?$AA@ 000881e0     libeay32:ocsp_asn.obj
 0002:000211f0       ??_C@_0BA@OOPOFNLG@tbsResponseData?$AA@ 000881f0     libeay32:ocsp_asn.obj
 0002:00021200       ??_C@_0O@GNAMNHBK@OCSP_RESPDATA?$AA@ 00088200     libeay32:ocsp_asn.obj
 0002:00021210       ??_C@_0BD@LEANHDON@responseExtensions?$AA@ 00088210     libeay32:ocsp_asn.obj
 0002:00021224       ??_C@_09NKKOBILA@responses?$AA@ 00088224     libeay32:ocsp_asn.obj
 0002:00021230       ??_C@_0L@KADAOIGF@producedAt?$AA@ 00088230     libeay32:ocsp_asn.obj
 0002:0002123c       ??_C@_0M@CPBMKBOK@responderId?$AA@ 0008823c     libeay32:ocsp_asn.obj
 0002:00021248       ??_C@_0BA@CEMENBMB@OCSP_SINGLERESP?$AA@ 00088248     libeay32:ocsp_asn.obj
 0002:00021258       ??_C@_0BB@BHCHCCEI@singleExtensions?$AA@ 00088258     libeay32:ocsp_asn.obj
 0002:0002126c       ??_C@_0L@BEDJFPDO@thisUpdate?$AA@ 0008826c     libeay32:ocsp_asn.obj
 0002:00021278       ??_C@_0L@IGGFAGC@certStatus?$AA@ 00088278     libeay32:ocsp_asn.obj
 0002:00021284       ??_C@_06JJGBHEJI@certId?$AA@ 00088284     libeay32:ocsp_asn.obj
 0002:0002128c       ??_C@_0BA@JBJHLNOJ@OCSP_CERTSTATUS?$AA@ 0008828c     libeay32:ocsp_asn.obj
 0002:0002129c       ??_C@_0O@ICNBHFHN@value?4unknown?$AA@ 0008829c     libeay32:ocsp_asn.obj
 0002:000212ac       ??_C@_0O@GCBEBIKI@value?4revoked?$AA@ 000882ac     libeay32:ocsp_asn.obj
 0002:000212bc       ??_C@_0L@MEIDNBL@value?4good?$AA@ 000882bc     libeay32:ocsp_asn.obj
 0002:000212c8       ??_C@_0BB@CFNKINIP@OCSP_REVOKEDINFO?$AA@ 000882c8     libeay32:ocsp_asn.obj
 0002:000212dc       ??_C@_0BB@JHENKMOK@revocationReason?$AA@ 000882dc     libeay32:ocsp_asn.obj
 0002:000212f0       ??_C@_0P@MHJPNEEK@revocationTime?$AA@ 000882f0     libeay32:ocsp_asn.obj
 0002:00021300       ??_C@_0M@JBDPBGBO@OCSP_RESPID?$AA@ 00088300     libeay32:ocsp_asn.obj
 0002:0002130c       ??_C@_0M@OFGLOCKB@value?4byKey?$AA@ 0008830c     libeay32:ocsp_asn.obj
 0002:00021318       ??_C@_0N@OFBDHEPF@value?4byName?$AA@ 00088318     libeay32:ocsp_asn.obj
 0002:00021328       ??_C@_0O@CDJMCFNM@OCSP_RESPONSE?$AA@ 00088328     libeay32:ocsp_asn.obj
 0002:00021338       ??_C@_0O@MMHCFEHM@responseBytes?$AA@ 00088338     libeay32:ocsp_asn.obj
 0002:00021348       ??_C@_0P@GEHCLFGI@responseStatus?$AA@ 00088348     libeay32:ocsp_asn.obj
 0002:00021358       ??_C@_0P@ONFJGMLI@OCSP_RESPBYTES?$AA@ 00088358     libeay32:ocsp_asn.obj
 0002:00021368       ??_C@_08HKMEAON@response?$AA@ 00088368     libeay32:ocsp_asn.obj
 0002:00021374       ??_C@_0N@FPIGADMM@responseType?$AA@ 00088374     libeay32:ocsp_asn.obj
 0002:00021384       ??_C@_0N@PCNOLOBD@OCSP_REQUEST?$AA@ 00088384     libeay32:ocsp_asn.obj
 0002:00021394       ??_C@_0BC@GKDKILGO@optionalSignature?$AA@ 00088394     libeay32:ocsp_asn.obj
 0002:000213a8       ??_C@_0L@OIGCAPNH@tbsRequest?$AA@ 000883a8     libeay32:ocsp_asn.obj
 0002:000213b4       ??_C@_0N@DDBEOJJA@OCSP_REQINFO?$AA@ 000883b4     libeay32:ocsp_asn.obj
 0002:000213c4       ??_C@_0BC@CPAMEDLH@requestExtensions?$AA@ 000883c4     libeay32:ocsp_asn.obj
 0002:000213d8       ??_C@_0M@NNJGDIDJ@requestList?$AA@ 000883d8     libeay32:ocsp_asn.obj
 0002:000213e4       ??_C@_0O@NHDBCFOA@requestorName?$AA@ 000883e4     libeay32:ocsp_asn.obj
 0002:000213f4       ??_C@_0M@IGPHKOAK@OCSP_ONEREQ?$AA@ 000883f4     libeay32:ocsp_asn.obj
 0002:00021400       ??_C@_0BI@PPJDGJOP@singleRequestExtensions?$AA@ 00088400     libeay32:ocsp_asn.obj
 0002:00021418       ??_C@_07GCNFCODJ@reqCert?$AA@ 00088418     libeay32:ocsp_asn.obj
 0002:00021420       ??_C@_0M@OCJEDPID@OCSP_CERTID?$AA@ 00088420     libeay32:ocsp_asn.obj
 0002:0002142c       ??_C@_0O@KPBFDKHB@issuerKeyHash?$AA@ 0008842c     libeay32:ocsp_asn.obj
 0002:0002143c       ??_C@_0P@EKEFMOEP@issuerNameHash?$AA@ 0008843c     libeay32:ocsp_asn.obj
 0002:0002144c       ??_C@_0P@OIPGPNII@OCSP_SIGNATURE?$AA@ 0008844c     libeay32:ocsp_asn.obj
 0002:0002145c       ??_C@_05HFDFJDL@certs?$AA@ 0008845c     libeay32:ocsp_asn.obj
 0002:000214bc       ??_C@_0BA@OPHCNPAP@AUTHORITY_KEYID?$AA@ 000884bc     libeay32:v3_akeya.obj
 0002:000214d0       ??_C@_0EP@FNGDBEGO@d?3?2wm653wehh?2platform?2mvv210?2src@ 000884d0     libeay32:a_verify.obj
 0002:000215bc       ??_C@_0O@DBIGEIKO@NETSCAPE_SPKI?$AA@ 000885bc     libeay32:x_spki.obj
 0002:000215cc       ??_C@_09JJGBLAHB@sig_algor?$AA@ 000885cc     libeay32:x_spki.obj
 0002:000215d8       ??_C@_05NBLLCIIN@spkac?$AA@ 000885d8     libeay32:x_spki.obj
 0002:000215e0       ??_C@_0P@OEBIEFNJ@NETSCAPE_SPKAC?$AA@ 000885e0     libeay32:x_spki.obj
 0002:000215f0       ??_C@_09DBEGHIJJ@challenge?$AA@ 000885f0     libeay32:x_spki.obj
 0002:00021ba8       ??_C@_0BC@DLHIINOH@PKCS7_ATTR_VERIFY?$AA@ 00088ba8     libeay32:pk7_asn1.obj
 0002:00021bbc       ??_C@_0BA@IJMFEGLH@PKCS7_ATTR_SIGN?$AA@ 00088bbc     libeay32:pk7_asn1.obj
 0002:00021bcc       ??_C@_0BB@ODHHPICH@PKCS7_ATTRIBUTES?$AA@ 00088bcc     libeay32:pk7_asn1.obj
 0002:00021be0       ??_C@_0N@NAILNAH@PKCS7_DIGEST?$AA@ 00088be0     libeay32:pk7_asn1.obj
 0002:00021bf0       ??_C@_02EBCANADN@md?$AA@   00088bf0     libeay32:pk7_asn1.obj
 0002:00021bf4       ??_C@_0O@GIFGHKGC@PKCS7_ENCRYPT?$AA@ 00088bf4     libeay32:pk7_asn1.obj
 0002:00021c04       ??_C@_0BE@LMHBPFDD@PKCS7_SIGN_ENVELOPE?$AA@ 00088c04     libeay32:pk7_asn1.obj
 0002:00021c18       ??_C@_0BC@INKEDPEG@PKCS7_ENC_CONTENT?$AA@ 00088c18     libeay32:pk7_asn1.obj
 0002:00021c2c       ??_C@_0N@IEAAACJL@content_type?$AA@ 00088c2c     libeay32:pk7_asn1.obj
 0002:00021c3c       ??_C@_0BB@MGPEFENK@PKCS7_RECIP_INFO?$AA@ 00088c3c     libeay32:pk7_asn1.obj
 0002:00021c50       ??_C@_07LBLKCHGJ@enc_key?$AA@ 00088c50     libeay32:pk7_asn1.obj
 0002:00021c58       ??_C@_0O@ODFHHMFC@key_enc_algor?$AA@ 00088c58     libeay32:pk7_asn1.obj
 0002:00021c68       ??_C@_0P@KCJMJLOD@PKCS7_ENVELOPE?$AA@ 00088c68     libeay32:pk7_asn1.obj
 0002:00021c78       ??_C@_08ENNDKKOI@enc_data?$AA@ 00088c78     libeay32:pk7_asn1.obj
 0002:00021c84       ??_C@_0O@HGJALPPJ@recipientinfo?$AA@ 00088c84     libeay32:pk7_asn1.obj
 0002:00021c94       ??_C@_0BI@POAIONGK@PKCS7_ISSUER_AND_SERIAL?$AA@ 00088c94     libeay32:pk7_asn1.obj
 0002:00021cac       ??_C@_0BC@BFFCPPDG@PKCS7_SIGNER_INFO?$AA@ 00088cac     libeay32:pk7_asn1.obj
 0002:00021cc0       ??_C@_0M@NNBFAOJK@unauth_attr?$AA@ 00088cc0     libeay32:pk7_asn1.obj
 0002:00021ccc       ??_C@_0L@PJDBOMFC@enc_digest?$AA@ 00088ccc     libeay32:pk7_asn1.obj
 0002:00021cd8       ??_C@_0P@KLFHBHJD@digest_enc_alg?$AA@ 00088cd8     libeay32:pk7_asn1.obj
 0002:00021ce8       ??_C@_09PLABOLFJ@auth_attr?$AA@ 00088ce8     libeay32:pk7_asn1.obj
 0002:00021cf4       ??_C@_0L@OGBFEEJI@digest_alg?$AA@ 00088cf4     libeay32:pk7_asn1.obj
 0002:00021d00       ??_C@_0BC@PMGLGNPO@issuer_and_serial?$AA@ 00088d00     libeay32:pk7_asn1.obj
 0002:00021d14       ??_C@_0N@CKBJFFNF@PKCS7_SIGNED?$AA@ 00088d14     libeay32:pk7_asn1.obj
 0002:00021d24       ??_C@_0M@KEDNAHBP@signer_info?$AA@ 00088d24     libeay32:pk7_asn1.obj
 0002:00021d30       ??_C@_04PHJBACIC@cert?$AA@ 00088d30     libeay32:pk7_asn1.obj
 0002:00021d38       ??_C@_08ODCIAOPM@contents?$AA@ 00088d38     libeay32:pk7_asn1.obj
 0002:00021d44       ??_C@_07MPDKKGPO@md_algs?$AA@ 00088d44     libeay32:pk7_asn1.obj
 0002:00021d4c       ??_C@_05BKMMPIPN@PKCS7?$AA@ 00088d4c     libeay32:pk7_asn1.obj
 0002:00021d54       ??_C@_0M@IDEHBFAL@d?4encrypted?$AA@ 00088d54     libeay32:pk7_asn1.obj
 0002:00021d60       ??_C@_08JOIJLLGO@d?4digest?$AA@ 00088d60     libeay32:pk7_asn1.obj
 0002:00021d6c       ??_C@_0BH@FHPJHCLF@d?4signed_and_enveloped?$AA@ 00088d6c     libeay32:pk7_asn1.obj
 0002:00021d84       ??_C@_0M@CLKMIMCI@d?4enveloped?$AA@ 00088d84     libeay32:pk7_asn1.obj
 0002:00021d90       ??_C@_06GOHGJFCL@d?4sign?$AA@ 00088d90     libeay32:pk7_asn1.obj
 0002:00021e38       ??_C@_0EN@IKCJFOCD@d?3?2wm653wehh?2platform?2mvv210?2src@ 00088e38     libeay32:ecp_smpl.obj
 0002:00022338       ??_C@_0EN@JCJEBHDE@d?3?2wm653wehh?2platform?2mvv210?2src@ 00089338     libeay32:ec2_mult.obj
 0002:000223c8       ??_C@_0EM@KOFLLDDI@d?3?2wm653wehh?2platform?2mvv210?2src@ 000893c8     libeay32:bn_gf2m.obj
 0002:00022458       ??_C@_08OPPGEJIL@X509_VAL?$AA@ 00089458     libeay32:x_val.obj
 0002:0002252c       ??_C@_0P@BDECDGPA@X509_CERT_PAIR?$AA@ 0008952c     libeay32:x_x509a.obj
 0002:0002253c       ??_C@_07KOIEOCCE@reverse?$AA@ 0008953c     libeay32:x_x509a.obj
 0002:00022544       ??_C@_07CJMBKHEI@forward?$AA@ 00089544     libeay32:x_x509a.obj
 0002:0002254c       ??_C@_0O@LJIIOIG@X509_CERT_AUX?$AA@ 0008954c     libeay32:x_x509a.obj
 0002:0002255c       ??_C@_05NKHOCLEE@alias?$AA@ 0008955c     libeay32:x_x509a.obj
 0002:00022564       ??_C@_06JPOFNODM@reject?$AA@ 00089564     libeay32:x_x509a.obj
 0002:0002256c       ??_C@_05BMJJJIHB@trust?$AA@ 0008956c     libeay32:x_x509a.obj
 0002:00022588       PEM_version                00089588     libeay32:pem_lib.obj
 0002:00022634       ??_C@_09FGHEBGDO@?$DMASN1?529?$DO?$AA@ 00089634     libeay32:asn1_par.obj
 0002:00022640       ??_C@_0O@DKDEPFLO@GENERALSTRING?$AA@ 00089640     libeay32:asn1_par.obj
 0002:00022650       ??_C@_0O@MABADFB@GRAPHICSTRING?$AA@ 00089650     libeay32:asn1_par.obj
 0002:00022660       ??_C@_0P@LNAMNBEL@VIDEOTEXSTRING?$AA@ 00089660     libeay32:asn1_par.obj
 0002:00022670       ??_C@_09ENNLEALE@?$DMASN1?515?$DO?$AA@ 00089670     libeay32:asn1_par.obj
 0002:0002267c       ??_C@_09EMBJCKID@?$DMASN1?514?$DO?$AA@ 0008967c     libeay32:asn1_par.obj
 0002:00022688       ??_C@_09EJFGDMAG@?$DMASN1?513?$DO?$AA@ 00089688     libeay32:asn1_par.obj
 0002:00022694       ??_C@_0L@DCBPGANN@UTF8STRING?$AA@ 00089694     libeay32:asn1_par.obj
 0002:000226a0       ??_C@_09EKNCOIGI@?$DMASN1?511?$DO?$AA@ 000896a0     libeay32:asn1_par.obj
 0002:000226ac       ??_C@_04PKFANLLI@REAL?$AA@ 000896ac     libeay32:asn1_par.obj
 0002:000226b4       ??_C@_08JHLDEHEK@EXTERNAL?$AA@ 000896b4     libeay32:asn1_par.obj
 0002:000226c0       ??_C@_0BC@HDOCNDIH@OBJECT?5DESCRIPTOR?$AA@ 000896c0     libeay32:asn1_par.obj
 0002:000226d4       ??_C@_0N@KPGGMDFC@OCTET?5STRING?$AA@ 000896d4     libeay32:asn1_par.obj
 0002:000226e4       ??_C@_0L@EKOKPLKE@BIT?5STRING?$AA@ 000896e4     libeay32:asn1_par.obj
 0002:000226f0       ??_C@_03NCODFONH@EOC?$AA@  000896f0     libeay32:asn1_par.obj
 0002:000226f4       ??_C@_09GPGAJHPD@?$CIunknown?$CJ?$AA@ 000896f4     libeay32:asn1_par.obj
 0002:00022748       ??_C@_0BK@EMDNDBLP@?$CF04d?$CF02d?$CF02d?$CF02d?$CF02d?$CF02dZ?$AA@ 00089748     libeay32:a_gentm.obj
 0002:00022768       ??_C@_0EO@HIOEHCAC@d?3?2wm653wehh?2platform?2mvv210?2src@ 00089768     libeay32:a_gentm.obj
 0002:000227f8       ??_C@_0BK@PMAAGDOP@?$CF02d?$CF02d?$CF02d?$CF02d?$CF02d?$CF02dZ?$AA@ 000897f8     libeay32:a_utctm.obj
 0002:00022818       ??_C@_0EO@DLENMAPA@d?3?2wm653wehh?2platform?2mvv210?2src@ 00089818     libeay32:a_utctm.obj
 0002:00022868       ??_C@_0L@CFEJKCOD@TSA?5server?$AA@ 00089868     libeay32:x509_trs.obj
 0002:00022874       ??_C@_0N@CAJJAOJD@OCSP?5request?$AA@ 00089874     libeay32:x509_trs.obj
 0002:00022884       ??_C@_0P@JHCOMJOI@OCSP?5responder?$AA@ 00089884     libeay32:x509_trs.obj
 0002:00022894       ??_C@_0O@EEPBMPKP@Object?5Signer?$AA@ 00089894     libeay32:x509_trs.obj
 0002:000228a4       ??_C@_0N@OEEPKGPL@S?1MIME?5email?$AA@ 000898a4     libeay32:x509_trs.obj
 0002:000228b4       ??_C@_0L@JNOGJJCA@compatible?$AA@ 000898b4     libeay32:x509_trs.obj
 0002:00022960       ??_C@_0L@MDHNNNKP@ssl_server?$AA@ 00089960     libeay32:x509_vpm.obj
 0002:0002296c       ??_C@_0L@IMDPAGCM@ssl_client?$AA@ 0008996c     libeay32:x509_vpm.obj
 0002:00022978       ??_C@_0L@GGDBHMO@smime_sign?$AA@ 00089978     libeay32:x509_vpm.obj
 0002:00022988       ??_C@_0EL@LDMNJGLH@d?3?2wm653wehh?2platform?2mvv210?2src@ 00089988     libeay32:ec_oct.obj
 0002:000229d8       ??_C@_0FA@NCEGPJFE@d?3?2wm653wehh?2platform?2mvv210?2src@ 000899d8     libeay32:p12_utl.obj
 0002:00022a28       ??_C@_0CG@ELPNGFCJ@OpenSSL?5?8win32?8?5shared?5library?5m@ 00089a28     libeay32:dso_win32.obj
 0002:00022a50       ??_C@_01PKGAHCOL@?$CJ?$AA@ 00089a50     libeay32:dso_win32.obj
 0002:00022a54       ??_C@_09CCCHLKJP@filename?$CI?$AA@ 00089a54     libeay32:dso_win32.obj
 0002:00022a60       ??_C@_0EP@KLFAEIED@d?3?2wm653wehh?2platform?2mvv210?2src@ 00089a60     libeay32:dso_win32.obj
 0002:00022ab0       ??_C@_08MFAHALLH@symname?$CI?$AA@ 00089ab0     libeay32:dso_win32.obj
 0002:00022abc       ??_C@_06DAJAKOAL@?$CFs?4dll?$AA@ 00089abc     libeay32:dso_win32.obj
 0002:00022ac4       ??_C@_0BI@GJJDGJIM@CloseToolhelp32Snapshot?$AA@ 00089ac4     libeay32:dso_win32.obj
 0002:00022adc       ??_C@_0O@CNMFJJGO@Module32First?$AA@ 00089adc     libeay32:dso_win32.obj
 0002:00022aec       ??_C@_0N@KIGOLBLC@Module32Next?$AA@ 00089aec     libeay32:dso_win32.obj
 0002:00022afc       ??_C@_0BJ@JEFKDHMD@CreateToolhelp32Snapshot?$AA@ 00089afc     libeay32:dso_win32.obj
 0002:00022b18       ??_C@_1BK@NKALKHPI@?$AAT?$AAO?$AAO?$AAL?$AAH?$AAE?$AAL?$AAP?$AA?4?$AAD?$AAL?$AAL?$AA?$AA@ 00089b18     libeay32:dso_win32.obj
 0002:00022b38       ??_C@_0FA@NNAIMOGG@d?3?2wm653wehh?2platform?2mvv210?2src@ 00089b38     libeay32:pk7_doit.obj
 0002:00022c50       ??_C@_0CK@NJACHFBA@ctx?9?$DOlength?5?$DM?$DN?5?$CIint?$CJsizeof?$CIctx?9?$DO@ 00089c50     libeay32:encode.obj
 0002:00022c80       ??_C@_0EM@EJBFCLJI@d?3?2wm653wehh?2platform?2mvv210?2src@ 00089c80     libeay32:encode.obj
 0002:00022ccc       ??_C@_0BP@KGJPJK@n?5?$DM?5?$CIint?$CJsizeof?$CIctx?9?$DOenc_data?$CJ?$AA@ 00089ccc     libeay32:encode.obj
 0002:00022cec       ??_C@_04GABBLIPF@asn1?$AA@ 00089cec     libeay32:bio_asn1.obj
 0002:00022cf8       ??_C@_0EP@CPKJKHDC@d?3?2wm653wehh?2platform?2mvv210?2src@ 00089cf8     libeay32:bio_asn1.obj
 0002:00022d48       ??_C@_0BM@FIMHHPDL@ctx?9?$DObuflen?5?$DM?$DN?5ctx?9?$DObufsize?$AA@ 00089d48     libeay32:bio_asn1.obj
 0002:00022d64       ??_C@_0BA@CNEIDKOH@base64?5encoding?$AA@ 00089d64     libeay32:bio_b64.obj
 0002:00022d78       ??_C@_0EN@CHDAAPPK@d?3?2wm653wehh?2platform?2mvv210?2src@ 00089d78     libeay32:bio_b64.obj
 0002:00022dc8       ??_C@_0CH@JADBFJCL@ctx?9?$DObuf_off?$CLi?5?$DM?5?$CIint?$CJsizeof?$CIctx@ 00089dc8     libeay32:bio_b64.obj
 0002:00022df0       ??_C@_0BN@FPMDFEFM@ctx?9?$DObuf_len?5?$DO?$DN?5ctx?9?$DObuf_off?$AA@ 00089df0     libeay32:bio_b64.obj
 0002:00022e10       ??_C@_0BC@BEKEPBME@ctx?9?$DOtmp_len?5?$DM?$DN?53?$AA@ 00089e10     libeay32:bio_b64.obj
 0002:00022e24       ??_C@_0CG@NALBBCEM@ctx?9?$DObuf_off?5?$DM?$DN?5?$CIint?$CJsizeof?$CIctx?9@ 00089e24     libeay32:bio_b64.obj
 0002:00022e4c       ??_C@_06NOLCFJLD@i?5?$DM?$DN?5n?$AA@ 00089e4c     libeay32:bio_b64.obj
 0002:00022e54       ??_C@_0CG@LFOFKIIN@ctx?9?$DObuf_len?5?$DM?$DN?5?$CIint?$CJsizeof?$CIctx?9@ 00089e54     libeay32:bio_b64.obj
 0002:00022e7c       ??_C@_0CF@ELLFOHKP@ctx?9?$DObuf_off?5?$DM?5?$CIint?$CJsizeof?$CIctx?9?$DO@ 00089e7c     libeay32:bio_b64.obj
 0002:00022ea4       ??_C@_06HOHPNJLC@buffer?$AA@ 00089ea4     libeay32:bf_buff.obj
 0002:00022eb0       ??_C@_0EN@HLACMGKH@d?3?2wm653wehh?2platform?2mvv210?2src@ 00089eb0     libeay32:bf_buff.obj
 0002:00022f00       ??_C@_0EM@IBBLLJFJ@d?3?2wm653wehh?2platform?2mvv210?2src@ 00089f00     libeay32:ec2_oct.obj
 0002:00022f50       ??_C@_0EM@OKKDHMMJ@d?3?2wm653wehh?2platform?2mvv210?2src@ 00089f50     libeay32:ecp_oct.obj
 0002:00023288       ??_C@_0BB@BIPBIGGF@PKCS12_AUTHSAFES?$AA@ 0008a288     libeay32:p12_asn.obj
 0002:0002329c       ??_C@_0BA@MCGBLIFE@PKCS12_SAFEBAGS?$AA@ 0008a29c     libeay32:p12_asn.obj
 0002:000232ac       ??_C@_06CEIPPJF@attrib?$AA@ 0008a2ac     libeay32:p12_asn.obj
 0002:000232b4       ??_C@_0P@EECFPDPC@PKCS12_SAFEBAG?$AA@ 0008a2b4     libeay32:p12_asn.obj
 0002:000232c4       ??_C@_09EBGANBLK@value?4bag?$AA@ 0008a2c4     libeay32:p12_asn.obj
 0002:000232d0       ??_C@_0M@NFMGHALF@value?4safes?$AA@ 0008a2d0     libeay32:p12_asn.obj
 0002:000232dc       ??_C@_0P@FIADCDOI@value?4shkeybag?$AA@ 0008a2dc     libeay32:p12_asn.obj
 0002:000232ec       ??_C@_0N@DOAHKDFI@value?4keybag?$AA@ 0008a2ec     libeay32:p12_asn.obj
 0002:000232fc       ??_C@_0M@BNPBMADO@PKCS12_BAGS?$AA@ 0008a2fc     libeay32:p12_asn.obj
 0002:00023308       ??_C@_0P@OEFHMPFE@value?4sdsicert?$AA@ 0008a308     libeay32:p12_asn.obj
 0002:00023318       ??_C@_0O@KKFHCJNP@value?4x509crl?$AA@ 0008a318     libeay32:p12_asn.obj
 0002:00023328       ??_C@_0P@IGODMFMC@value?4x509cert?$AA@ 0008a328     libeay32:p12_asn.obj
 0002:00023338       ??_C@_0M@PABGOMNF@value?4other?$AA@ 0008a338     libeay32:p12_asn.obj
 0002:00023344       ??_C@_0BA@LPMCLHLH@PKCS12_MAC_DATA?$AA@ 0008a344     libeay32:p12_asn.obj
 0002:00023354       ??_C@_05DMLMEGOG@dinfo?$AA@ 0008a354     libeay32:p12_asn.obj
 0002:0002335c       ??_C@_06CKOLGKJK@PKCS12?$AA@ 0008a35c     libeay32:p12_asn.obj
 0002:00023364       ??_C@_09HFIAEJAG@authsafes?$AA@ 0008a364     libeay32:p12_asn.obj
 0002:00023370       ??_C@_0FA@FLDKBPHG@d?3?2wm653wehh?2platform?2mvv210?2src@ 0008a370     libeay32:pk7_attr.obj
 0002:000233e0       ??_C@_0EM@FGPLHJJK@d?3?2wm653wehh?2platform?2mvv210?2src@ 0008a3e0     libeay32:bn_sqrt.obj
 0002:0002342c       ??_C@_0BP@JCDKFDNH@OpenSSL?5default?5user?5interface?$AA@ 0008a42c     libeay32:ui_openssl.obj
 0002:00023450       ??_C@_0EP@FLBPENKO@d?3?2wm653wehh?2platform?2mvv210?2src@ 0008a450     libeay32:ui_openssl.obj
 0002:000234a0       ??_C@_03EPNNLCDK@con?$AA@  0008a4a0     libeay32:ui_openssl.obj
 0002:000234a4       ??_C@_0BA@GANIJHKH@Verify?5failure?6?$AA@ 0008a4a4     libeay32:ui_openssl.obj
 0002:000234b4       ??_C@_0P@IOLEFIHN@Verifying?5?9?5?$CFs?$AA@ 0008a4b4     libeay32:ui_openssl.obj
 0002:000234c4       ??_C@_0BG@KLEAJEFJ@Illegal?5byte?5sequence?$AA@ 0008a4c4     wcecompatex:string_extras.obj
 0002:000234dc       ??_C@_0BE@ICMCHPHH@Directory?5not?5empty?$AA@ 0008a4dc     wcecompatex:string_extras.obj
 0002:000234f0       ??_C@_0BJ@IHEHINLI@Function?5not?5implemented?$AA@ 0008a4f0     wcecompatex:string_extras.obj
 0002:0002350c       ??_C@_0BD@CLHBCGPB@No?5locks?5available?$AA@ 0008a50c     wcecompatex:string_extras.obj
 0002:00023520       ??_C@_0BC@BEDIHIDK@Filename?5too?5long?$AA@ 0008a520     wcecompatex:string_extras.obj
 0002:00023534       ??_C@_0BK@JAEBMJJM@Resource?5deadlock?5avoided?$AA@ 0008a534     wcecompatex:string_extras.obj
 0002:00023550       ??_C@_0BB@FCBJFCAJ@Result?5too?5large?$AA@ 0008a550     wcecompatex:string_extras.obj
 0002:00023564       ??_C@_0N@MMJPGLJK@Domain?5error?$AA@ 0008a564     wcecompatex:string_extras.obj
 0002:00023574       ??_C@_0M@LHEPIIOM@Broken?5pipe?$AA@ 0008a574     wcecompatex:string_extras.obj
 0002:00023580       ??_C@_0P@PKCJJLLM@Too?5many?5links?$AA@ 0008a580     wcecompatex:string_extras.obj
 0002:00023590       ??_C@_0BG@DDBFNKBH@Read?9only?5file?5system?$AA@ 0008a590     wcecompatex:string_extras.obj
 0002:000235a8       ??_C@_0N@FEHLOILP@Invalid?5seek?$AA@ 0008a5a8     wcecompatex:string_extras.obj
 0002:000235b8       ??_C@_0BI@FEALHKLD@No?5space?5left?5on?5device?$AA@ 0008a5b8     wcecompatex:string_extras.obj
 0002:000235d0       ??_C@_0P@LFMMIPAE@File?5too?5large?$AA@ 0008a5d0     wcecompatex:string_extras.obj
 0002:000235e0       ??_C@_0CE@ONOKNLPF@Inappropriate?5I?1O?5control?5operat@ 0008a5e0     wcecompatex:string_extras.obj
 0002:00023604       ??_C@_0BE@INBJMKGG@Too?5many?5open?5files?$AA@ 0008a604     wcecompatex:string_extras.obj
 0002:00023618       ??_C@_0BO@IIFBODJE@Too?5many?5open?5files?5in?5system?$AA@ 0008a618     wcecompatex:string_extras.obj
 0002:00023638       ??_C@_0BB@HMGGCEBG@Invalid?5argument?$AA@ 0008a638     wcecompatex:string_extras.obj
 0002:0002364c       ??_C@_0P@NDHGCGKE@Is?5a?5directory?$AA@ 0008a64c     wcecompatex:string_extras.obj
 0002:0002365c       ??_C@_0BA@CJBACOOL@Not?5a?5directory?$AA@ 0008a65c     wcecompatex:string_extras.obj
 0002:0002366c       ??_C@_0P@NLEIANHE@No?5such?5device?$AA@ 0008a66c     wcecompatex:string_extras.obj
 0002:0002367c       ??_C@_0O@OAMDNOCP@Improper?5link?$AA@ 0008a67c     wcecompatex:string_extras.obj
 0002:0002368c       ??_C@_0M@NAAJNNGH@File?5exists?$AA@ 0008a68c     wcecompatex:string_extras.obj
 0002:00023698       ??_C@_0BI@PDLELJEJ@Device?5or?5resource?5busy?$AA@ 0008a698     wcecompatex:string_extras.obj
 0002:000236b0       ??_C@_0O@NIPGCINC@Unknown?5error?$AA@ 0008a6b0     wcecompatex:string_extras.obj
 0002:000236c0       ??_C@_0M@LOEHLCJD@Bad?5address?$AA@ 0008a6c0     wcecompatex:string_extras.obj
 0002:000236cc       ??_C@_0BC@HFNFNKAI@Permission?5denied?$AA@ 0008a6cc     wcecompatex:string_extras.obj
 0002:000236e0       ??_C@_0BC@BAKIAKOF@Not?5enough?5memory?$AA@ 0008a6e0     wcecompatex:string_extras.obj
 0002:000236f4       ??_C@_0CB@EPFKGNAK@Resource?5temporarily?5unavailable@ 0008a6f4     wcecompatex:string_extras.obj
 0002:00023718       ??_C@_0BD@LOHELEP@No?5child?5processes?$AA@ 0008a718     wcecompatex:string_extras.obj
 0002:0002372c       ??_C@_0BE@NFGDDCEF@Bad?5file?5descriptor?$AA@ 0008a72c     wcecompatex:string_extras.obj
 0002:00023740       ??_C@_0BC@HKPNECK@Exec?5format?5error?$AA@ 0008a740     wcecompatex:string_extras.obj
 0002:00023754       ??_C@_0BC@MFFGCDFL@Arg?5list?5too?5long?$AA@ 0008a754     wcecompatex:string_extras.obj
 0002:00023768       ??_C@_0BK@DPKMCKJ@No?5such?5device?5or?5address?$AA@ 0008a768     wcecompatex:string_extras.obj
 0002:00023784       ??_C@_09FIANMNHE@I?1O?5error?$AA@ 0008a784     wcecompatex:string_extras.obj
 0002:00023790       ??_C@_0BI@EAGLFFDI@Interrupted?5system?5call?$AA@ 0008a790     wcecompatex:string_extras.obj
 0002:000237a8       ??_C@_0BA@FKIAIBGA@No?5such?5process?$AA@ 0008a7a8     wcecompatex:string_extras.obj
 0002:000237b8       ??_C@_0BK@FMDHKPNF@No?5such?5file?5or?5directory?$AA@ 0008a7b8     wcecompatex:string_extras.obj
 0002:000237d4       ??_C@_0BI@BJFCGOHL@Operation?5not?5permitted?$AA@ 0008a7d4     wcecompatex:string_extras.obj
 0002:000237ec       ??_C@_08INEPGKHH@No?5error?$AA@ 0008a7ec     wcecompatex:string_extras.obj
 0002:000237f8       ??_C@_08EDHMEBNP@December?$AA@ 0008a7f8     wcecompatex:time.obj
 0002:00023804       ??_C@_08HCHEGEOA@November?$AA@ 0008a804     wcecompatex:time.obj
 0002:00023810       ??_C@_07JJNFCEND@October?$AA@ 0008a810     wcecompatex:time.obj
 0002:00023818       ??_C@_09BHHEALKD@September?$AA@ 0008a818     wcecompatex:time.obj
 0002:00023824       ??_C@_06LBBHFDDG@August?$AA@ 0008a824     wcecompatex:time.obj
 0002:0002382c       ??_C@_04MIEPOIFP@July?$AA@ 0008a82c     wcecompatex:time.obj
 0002:00023834       ??_C@_04CNLMGBGM@June?$AA@ 0008a834     wcecompatex:time.obj
 0002:0002383c       ??_C@_05DMJDNLEJ@April?$AA@ 0008a83c     wcecompatex:time.obj
 0002:00023844       ??_C@_05HPCKOFNC@March?$AA@ 0008a844     wcecompatex:time.obj
 0002:0002384c       ??_C@_08GNJGEPFN@February?$AA@ 0008a84c     wcecompatex:time.obj
 0002:00023858       ??_C@_07CGJPFGJA@January?$AA@ 0008a858     wcecompatex:time.obj
 0002:00023860       ??_C@_08INBOOONO@Saturday?$AA@ 0008a860     wcecompatex:time.obj
 0002:0002386c       ??_C@_06JECMNKMI@Friday?$AA@ 0008a86c     wcecompatex:time.obj
 0002:00023874       ??_C@_08HACCIKIA@Thursday?$AA@ 0008a874     wcecompatex:time.obj
 0002:00023880       ??_C@_09DLIGFAKA@Wednesday?$AA@ 0008a880     wcecompatex:time.obj
 0002:0002388c       ??_C@_07BAAGCFCM@Tuesday?$AA@ 0008a88c     wcecompatex:time.obj
 0002:00023894       ??_C@_06JLEDEDGH@Monday?$AA@ 0008a894     wcecompatex:time.obj
 0002:0002389c       ??_C@_06OOPIFAJ@Sunday?$AA@ 0008a89c     wcecompatex:time.obj
 0002:000238a4       ??_C@_03FEFJNEK@Sat?$AA@   0008a8a4     wcecompatex:time.obj
 0002:000238a8       ??_C@_03IDIOELNC@Fri?$AA@  0008a8a8     wcecompatex:time.obj
 0002:000238ac       ??_C@_03IOFIKPDN@Thu?$AA@  0008a8ac     wcecompatex:time.obj
 0002:000238b0       ??_C@_03MHOMLAJA@Wed?$AA@  0008a8b0     wcecompatex:time.obj
 0002:000238b4       ??_C@_03NAGEINEP@Tue?$AA@  0008a8b4     wcecompatex:time.obj
 0002:000238b8       ??_C@_03PDAGKDH@Mon?$AA@   0008a8b8     wcecompatex:time.obj
 0002:000238bc       ??_C@_03KOEHGMDN@Sun?$AA@  0008a8bc     wcecompatex:time.obj
 0002:000238dc       __IMPORT_DESCRIPTOR_COREDLL 0008a8dc     coredll:COREDLL.dll
 0002:000238f0       __NULL_IMPORT_DESCRIPTOR   0008a8f0     coredll:COREDLL.dll
 0003:00000000       __imp_sprintf              0008b000     coredll:COREDLL.dll
 0003:00000004       __imp_printf               0008b004     coredll:COREDLL.dll
 0003:00000008       __imp_strcmp               0008b008     coredll:COREDLL.dll
 0003:0000000c       __imp_strlen               0008b00c     coredll:COREDLL.dll
 0003:00000010       __imp_memset               0008b010     coredll:COREDLL.dll
 0003:00000014       __imp_memcpy               0008b014     coredll:COREDLL.dll
 0003:00000018       __imp_free                 0008b018     coredll:COREDLL.dll
 0003:0000001c       __imp_realloc              0008b01c     coredll:COREDLL.dll
 0003:00000020       __imp_malloc               0008b020     coredll:COREDLL.dll
 0003:00000024       __imp_strcpy               0008b024     coredll:COREDLL.dll
 0003:00000028       __imp_strncpy              0008b028     coredll:COREDLL.dll
 0003:0000002c       __imp_strchr               0008b02c     coredll:COREDLL.dll
 0003:00000030       __imp___itod               0008b030     coredll:COREDLL.dll
 0003:00000034       __imp___muld               0008b034     coredll:COREDLL.dll
 0003:00000038       __imp_memcmp               0008b038     coredll:COREDLL.dll
 0003:0000003c       __imp_MessageBoxW          0008b03c     coredll:COREDLL.dll
 0003:00000040       __imp__vsnwprintf          0008b040     coredll:COREDLL.dll
 0003:00000044       __imp_MultiByteToWideChar  0008b044     coredll:COREDLL.dll
 0003:00000048       __imp__getstdfilex         0008b048     coredll:COREDLL.dll
 0003:0000004c       __imp_memchr               0008b04c     coredll:COREDLL.dll
 0003:00000050       __imp_fprintf              0008b050     coredll:COREDLL.dll
 0003:00000054       __imp_atoi                 0008b054     coredll:COREDLL.dll
 0003:00000058       __imp__isctype             0008b058     coredll:COREDLL.dll
 0003:0000005c       __imp_qsort                0008b05c     coredll:COREDLL.dll
 0003:00000060       __imp___rt_udiv            0008b060     coredll:COREDLL.dll
 0003:00000064       __imp___ltd                0008b064     coredll:COREDLL.dll
 0003:00000068       __imp___negd               0008b068     coredll:COREDLL.dll
 0003:0000006c       __imp___dtoi               0008b06c     coredll:COREDLL.dll
 0003:00000070       __imp___subd               0008b070     coredll:COREDLL.dll
 0003:00000074       __imp___ged                0008b074     coredll:COREDLL.dll
 0003:00000078       __imp___rt_udiv64by64      0008b078     coredll:COREDLL.dll
 0003:0000007c       __imp___rt_urem64by64      0008b07c     coredll:COREDLL.dll
 0003:00000080       __imp_tolower              0008b080     coredll:COREDLL.dll
 0003:00000084       __imp_strncmp              0008b084     coredll:COREDLL.dll
 0003:00000088       __imp_sscanf               0008b088     coredll:COREDLL.dll
 0003:0000008c       __imp__strnicmp            0008b08c     coredll:COREDLL.dll
 0003:00000090       __imp_fclose               0008b090     coredll:COREDLL.dll
 0003:00000094       __imp_GetLastError         0008b094     coredll:COREDLL.dll
 0003:00000098       __imp_ferror               0008b098     coredll:COREDLL.dll
 0003:0000009c       __imp_fread                0008b09c     coredll:COREDLL.dll
 0003:000000a0       __imp_fwrite               0008b0a0     coredll:COREDLL.dll
 0003:000000a4       __imp__setmode             0008b0a4     coredll:COREDLL.dll
 0003:000000a8       __imp__fileno              0008b0a8     coredll:COREDLL.dll
 0003:000000ac       __imp_fopen                0008b0ac     coredll:COREDLL.dll
 0003:000000b0       __imp_fseek                0008b0b0     coredll:COREDLL.dll
 0003:000000b4       __imp_ftell                0008b0b4     coredll:COREDLL.dll
 0003:000000b8       __imp_feof                 0008b0b8     coredll:COREDLL.dll
 0003:000000bc       __imp_fflush               0008b0bc     coredll:COREDLL.dll
 0003:000000c0       __imp_strcat               0008b0c0     coredll:COREDLL.dll
 0003:000000c4       __imp_fgets                0008b0c4     coredll:COREDLL.dll
 0003:000000c8       __imp__wfopen              0008b0c8     coredll:COREDLL.dll
 0003:000000cc       __imp_strrchr              0008b0cc     coredll:COREDLL.dll
 0003:000000d0       __imp___rt_sdiv            0008b0d0     coredll:COREDLL.dll
 0003:000000d4       __imp___addd               0008b0d4     coredll:COREDLL.dll
 0003:000000d8       __imp_strtoul              0008b0d8     coredll:COREDLL.dll
 0003:000000dc       __imp__stricmp             0008b0dc     coredll:COREDLL.dll
 0003:000000e0       __imp_memmove              0008b0e0     coredll:COREDLL.dll
 0003:000000e4       __imp_GetTickCount         0008b0e4     coredll:COREDLL.dll
 0003:000000e8       __imp_QueryPerformanceCounter 0008b0e8     coredll:COREDLL.dll
 0003:000000ec       __imp_GlobalMemoryStatus   0008b0ec     coredll:COREDLL.dll
 0003:000000f0       __imp_CryptReleaseContext  0008b0f0     coredll:COREDLL.dll
 0003:000000f4       __imp_CryptGenRandom       0008b0f4     coredll:COREDLL.dll
 0003:000000f8       __imp_CryptAcquireContextW 0008b0f8     coredll:COREDLL.dll
 0003:000000fc       __imp_GetVersionExW        0008b0fc     coredll:COREDLL.dll
 0003:00000100       __imp_LoadLibraryW         0008b100     coredll:COREDLL.dll
 0003:00000104       __imp_SetLastError         0008b104     coredll:COREDLL.dll
 0003:00000108       __imp_FreeLibrary          0008b108     coredll:COREDLL.dll
 0003:0000010c       __imp_GetProcAddressA      0008b10c     coredll:COREDLL.dll
 0003:00000110       __imp_strstr               0008b110     coredll:COREDLL.dll
 0003:00000114       __imp_WideCharToMultiByte  0008b114     coredll:COREDLL.dll
 0003:00000118       __imp_fputs                0008b118     coredll:COREDLL.dll
 0003:0000011c       __imp_SystemTimeToFileTime 0008b11c     coredll:COREDLL.dll
 0003:00000120       __imp_GetSystemTime        0008b120     coredll:COREDLL.dll
 0003:00000124       __imp_FileTimeToSystemTime 0008b124     coredll:COREDLL.dll
 0003:00000128       __imp_LocalFree            0008b128     coredll:COREDLL.dll
 0003:0000012c       __imp__XcptFilter          0008b12c     coredll:COREDLL.dll
 0003:00000130       __imp___C_specific_handler 0008b130     coredll:COREDLL.dll
 0003:00000134       __imp_FindFirstFileW       0008b134     coredll:COREDLL.dll
 0003:00000138       __imp_FindClose            0008b138     coredll:COREDLL.dll
 0003:0000013c       __imp_FindNextFileW        0008b13c     coredll:COREDLL.dll
 0003:00000140       __imp_GetModuleFileNameW   0008b140     coredll:COREDLL.dll
 0003:00000144       \177COREDLL_NULL_THUNK_DATA 0008b144     coredll:COREDLL.dll
 0003:00000148       __xc_a                     0008b148     corelibc:crt0init.obj
 0003:0000014c       __xc_z                     0008b14c     corelibc:crt0init.obj
 0003:00000150       __xi_a                     0008b150     corelibc:crt0init.obj
 0003:00000154       __xi_z                     0008b154     corelibc:crt0init.obj
 0003:00000158       __xp_a                     0008b158     corelibc:crt0init.obj
 0003:0000015c       __xp_z                     0008b15c     corelibc:crt0init.obj
 0003:00000160       __xt_a                     0008b160     corelibc:crt0init.obj
 0003:00000164       __xt_z                     0008b164     corelibc:crt0init.obj
 0003:00000784       rand_ssleay_meth           0008b784     libeay32:md_rand.obj
 0003:00000958       default_pctx               0008b958     libeay32:tasn_prn.obj
 0003:00001058       ?messages@@3PAPADA         0008c058     wcecompatex:string_extras.obj
 0003:00001244       app_pkey_methods           0008c244     libeay32:pmeth_lib.obj
 0003:000028d0       OPENSSL_NONPIC_relocated   0008d8d0     libeay32:cryptlib.obj
 0003:00002900       cleanse_ctr                0008d900     libeay32:mem_clr.obj
 0003:00002b08       obj_cleanup_defer          0008db08     libeay32:obj_dat.obj
 0003:000031d4       _environ                   0008e1d4     wcecompatex:env.obj
 0003:000031d8       _wenviron                  0008e1d8     wcecompatex:env.obj
 0003:000031dc       ?num_env_vars@@3HA         0008e1dc     wcecompatex:env.obj
 0003:00003220       errno                      0008e220     wcecompatex:errno.obj
 0003:00003224       ?_timezone@@3HA            0008e224     wcecompatex:timeb.obj
 0003:00003228       ?altzone@@3HA              0008e228     wcecompatex:timeb.obj
 0003:0000322c       ?timezone@@3HA             0008e22c     wcecompatex:timeb.obj
 0003:00003230       sigx_app                   0008e230     <common>
 0003:00003234       sig_app                    0008e234     <common>
 0003:00003238       __onexitend                0008e238     <common>
 0003:0000323c       __onexitbegin              0008e23c     <common>
 0003:00003240       _exitflag                  0008e240     <common>

 entry point at        0001:00055730

 Static symbols

 0001:000007bc       init                       000117bc f   libeay32:m_ripemd.obj
 0001:000007d0       update                     000117d0 f   libeay32:m_ripemd.obj
 0001:000007e4       final                      000117e4 f   libeay32:m_ripemd.obj
 0001:0000080c       default_malloc_ex          0001180c f   libeay32:mem.obj
 0001:0000082c       default_realloc_ex         0001182c f   libeay32:mem.obj
 0001:0000084c       default_malloc_locked_ex   0001184c f   libeay32:mem.obj
 0001:00000c10       pmeth_cmp_BSEARCH_CMP_FN   00011c10 f   libeay32:pmeth_lib.obj
 0001:000011a8       err_fns_check              000121a8 f   libeay32:err.obj
 0001:00001210       err_string_data_LHASH_HASH 00012210 f   libeay32:err.obj
 0001:0000125c       err_string_data_LHASH_COMP 0001225c f   libeay32:err.obj
 0001:0000126c       int_err_get                0001226c f   libeay32:err.obj
 0001:00001318       int_err_del                00012318 f   libeay32:err.obj
 0001:00001374       int_err_get_item           00012374 f   libeay32:err.obj
 0001:000013f8       int_err_set_item           000123f8 f   libeay32:err.obj
 0001:00001478       int_err_del_item           00012478 f   libeay32:err.obj
 0001:000014fc       err_state_LHASH_HASH       000124fc f   libeay32:err.obj
 0001:00001514       err_state_LHASH_COMP       00012514 f   libeay32:err.obj
 0001:00001524       int_thread_get             00012524 f   libeay32:err.obj
 0001:000015dc       int_thread_release         000125dc f   libeay32:err.obj
 0001:00001638       int_thread_get_item        00012638 f   libeay32:err.obj
 0001:000016dc       int_thread_set_item        000126dc f   libeay32:err.obj
 0001:00001780       int_err_get_next_lib       00012780 f   libeay32:err.obj
 0001:000017d8       ERR_STATE_free             000127d8 f   libeay32:err.obj
 0001:00001b90       int_thread_del_item        00012b90 f   libeay32:err.obj
 0001:00004c34       pkey_cmac_init             00015c34 f   libeay32:cm_pmeth.obj
 0001:00004c64       pkey_cmac_copy             00015c64 f   libeay32:cm_pmeth.obj
 0001:00004ca8       pkey_cmac_cleanup          00015ca8 f   libeay32:cm_pmeth.obj
 0001:00004cbc       pkey_cmac_keygen           00015cbc f   libeay32:cm_pmeth.obj
 0001:00004d1c       int_update                 00015d1c f   libeay32:cm_pmeth.obj
 0001:00004d44       cmac_signctx_init          00015d44 f   libeay32:cm_pmeth.obj
 0001:00004d70       cmac_signctx               00015d70 f   libeay32:cm_pmeth.obj
 0001:00004d84       pkey_cmac_ctrl             00015d84 f   libeay32:cm_pmeth.obj
 0001:00004e58       pkey_cmac_ctrl_str         00015e58 f   libeay32:cm_pmeth.obj
 0001:00004f68       pkey_hmac_init             00015f68 f   libeay32:hm_pmeth.obj
 0001:00004fcc       pkey_hmac_copy             00015fcc f   libeay32:hm_pmeth.obj
 0001:00005054       pkey_hmac_cleanup          00016054 f   libeay32:hm_pmeth.obj
 0001:000050a0       pkey_hmac_keygen           000160a0 f   libeay32:hm_pmeth.obj
 0001:000050f4       int_update                 000160f4 f   libeay32:hm_pmeth.obj
 0001:00005120       hmac_signctx_init          00016120 f   libeay32:hm_pmeth.obj
 0001:00005160       hmac_signctx               00016160 f   libeay32:hm_pmeth.obj
 0001:000051d0       pkey_hmac_ctrl             000161d0 f   libeay32:hm_pmeth.obj
 0001:00005268       pkey_hmac_ctrl_str         00016268 f   libeay32:hm_pmeth.obj
 0001:00005328       pkey_ec_init               00016328 f   libeay32:ec_pmeth.obj
 0001:0000536c       pkey_ec_copy               0001636c f   libeay32:ec_pmeth.obj
 0001:000053cc       pkey_ec_cleanup            000163cc f   libeay32:ec_pmeth.obj
 0001:000053fc       pkey_ec_sign               000163fc f   libeay32:ec_pmeth.obj
 0001:000054c0       pkey_ec_verify             000164c0 f   libeay32:ec_pmeth.obj
 0001:00005520       pkey_ec_derive             00016520 f   libeay32:ec_pmeth.obj
 0001:000055e8       pkey_ec_ctrl               000165e8 f   libeay32:ec_pmeth.obj
 0001:00005734       pkey_ec_ctrl_str           00016734 f   libeay32:ec_pmeth.obj
 0001:000057e0       pkey_ec_paramgen           000167e0 f   libeay32:ec_pmeth.obj
 0001:00005874       pkey_ec_keygen             00016874 f   libeay32:ec_pmeth.obj
 0001:00005908       pkey_dsa_init              00016908 f   libeay32:dsa_pmeth.obj
 0001:00005970       pkey_dsa_copy              00016970 f   libeay32:dsa_pmeth.obj
 0001:000059c4       pkey_dsa_cleanup           000169c4 f   libeay32:dsa_pmeth.obj
 0001:000059e0       pkey_dsa_sign              000169e0 f   libeay32:dsa_pmeth.obj
 0001:00005a54       pkey_dsa_verify            00016a54 f   libeay32:dsa_pmeth.obj
 0001:00005ab4       pkey_dsa_ctrl              00016ab4 f   libeay32:dsa_pmeth.obj
 0001:00005cac       pkey_dsa_ctrl_str          00016cac f   libeay32:dsa_pmeth.obj
 0001:00005db4       pkey_dsa_paramgen          00016db4 f   libeay32:dsa_pmeth.obj
 0001:00005e5c       pkey_dsa_keygen            00016e5c f   libeay32:dsa_pmeth.obj
 0001:00005ef0       pkey_dh_init               00016ef0 f   libeay32:dh_pmeth.obj
 0001:00005f50       pkey_dh_copy               00016f50 f   libeay32:dh_pmeth.obj
 0001:00005f9c       pkey_dh_cleanup            00016f9c f   libeay32:dh_pmeth.obj
 0001:00005fb8       pkey_dh_ctrl               00016fb8 f   libeay32:dh_pmeth.obj
 0001:0000600c       pkey_dh_ctrl_str           0001700c f   libeay32:dh_pmeth.obj
 0001:000060c8       pkey_dh_paramgen           000170c8 f   libeay32:dh_pmeth.obj
 0001:00006154       pkey_dh_keygen             00017154 f   libeay32:dh_pmeth.obj
 0001:000061e4       pkey_dh_derive             000171e4 f   libeay32:dh_pmeth.obj
 0001:00006260       pkey_rsa_init              00017260 f   libeay32:rsa_pmeth.obj
 0001:000062d8       pkey_rsa_copy              000172d8 f   libeay32:rsa_pmeth.obj
 0001:00006348       setup_tbuf                 00017348 f   libeay32:rsa_pmeth.obj
 0001:00006394       pkey_rsa_cleanup           00017394 f   libeay32:rsa_pmeth.obj
 0001:000063d4       pkey_rsa_sign              000173d4 f   libeay32:rsa_pmeth.obj
 0001:000065bc       pkey_rsa_verifyrecover     000175bc f   libeay32:rsa_pmeth.obj
 0001:00006770       pkey_rsa_verify            00017770 f   libeay32:rsa_pmeth.obj
 0001:000068e8       pkey_rsa_encrypt           000178e8 f   libeay32:rsa_pmeth.obj
 0001:00006934       pkey_rsa_decrypt           00017934 f   libeay32:rsa_pmeth.obj
 0001:00006980       check_padding_md           00017980 f   libeay32:rsa_pmeth.obj
 0001:00006a10       pkey_rsa_ctrl              00017a10 f   libeay32:rsa_pmeth.obj
 0001:00006d50       pkey_rsa_ctrl_str          00017d50 f   libeay32:rsa_pmeth.obj
 0001:00006fc8       pkey_rsa_keygen            00017fc8 f   libeay32:rsa_pmeth.obj
 0001:00007090       sn_cmp_BSEARCH_CMP_FN      00018090 f   libeay32:obj_dat.obj
 0001:000070bc       ln_cmp_BSEARCH_CMP_FN      000180bc f   libeay32:obj_dat.obj
 0001:00007398       obj_cmp_BSEARCH_CMP_FN     00018398 f   libeay32:obj_dat.obj
 0001:00007e7c       internal_find              00018e7c f   libeay32:stack.obj
 0001:00008224       pkey_set_type              00019224 f   libeay32:p_lib.obj
 0001:000086e8       int_cb_LHASH_DOALL_ARG     000196e8 f   libeay32:eng_table.obj
 0001:00008950       app_info_LHASH_COMP        00019950 f   libeay32:mem_dbg.obj
 0001:00008960       app_info_LHASH_HASH        00019960 f   libeay32:mem_dbg.obj
 0001:00008998       pop_info                   00019998 f   libeay32:mem_dbg.obj
 0001:00008c60       expand                     00019c60 f   libeay32:lhash.obj
 0001:00008d98       contract                   00019d98 f   libeay32:lhash.obj
 0001:00008e90       getrn                      00019e90 f   libeay32:lhash.obj
 0001:000093f0       roundv                     0001a3f0 f   libeay32:b_print.obj
 0001:00009480       doapr_outch                0001a480 f   libeay32:b_print.obj
 0001:00009574       fmtstr                     0001a574 f   libeay32:b_print.obj
 0001:000096a4       fmtint                     0001a6a4 f   libeay32:b_print.obj
 0001:000099e4       fmtfp                      0001a9e4 f   libeay32:b_print.obj
 0001:00009ed4       _dopr                      0001aed4 f   libeay32:b_print.obj
 0001:0000b068       rsa_get_public_exp         0001c068 f   libeay32:rsa_crpt.obj
 0001:0000c040       strip_spaces               0001d040 f   libeay32:v3_utl.obj
 0001:0000c3b8       ipv4_from_asc              0001d3b8 f   libeay32:v3_utl.obj
 0001:0000c758       ipv6_cb                    0001d758 f   libeay32:v3_utl.obj
 0001:0000c868       ipv6_from_asc              0001d868 f   libeay32:v3_utl.obj
 0001:0000ead8       ecdsa_data_new             0001fad8 f   libeay32:ecs_lib.obj
 0001:0000ebcc       ecdsa_data_dup             0001fbcc f   libeay32:ecs_lib.obj
 0001:0000ebec       ecdsa_data_free            0001fbec f   libeay32:ecs_lib.obj
 0001:0000f2b0       ec_group_new_from_data     000202b0 f   libeay32:ec_curve.obj
 0001:0000f78c       sig_cb                     0002078c f   libeay32:dsa_asn1.obj
 0001:0000f820       dsa_cb                     00020820 f   libeay32:dsa_asn1.obj
 0001:0001047c       trans_cb                   0002147c f   libeay32:pmeth_gn.obj
 0001:000104cc       dsa_builtin_keygen         000214cc f   libeay32:dsa_key.obj
 0001:00010928       dh_builtin_genparams       00021928 f   libeay32:dh_gen.obj
 0001:00010b80       generate_key               00021b80 f   libeay32:dh_key.obj
 0001:00010d98       compute_key                00021d98 f   libeay32:dh_key.obj
 0001:00010f50       dh_bn_mod_exp              00021f50 f   libeay32:dh_key.obj
 0001:00010fd8       dh_init                    00021fd8 f   libeay32:dh_key.obj
 0001:00010ff0       dh_finish                  00021ff0 f   libeay32:dh_key.obj
 0001:000111d4       bn_expand_internal         000221d4 f   libeay32:bn_lib.obj
 0001:000125a8       init                       000235a8 f   libeay32:m_sha1.obj
 0001:000125bc       update                     000235bc f   libeay32:m_sha1.obj
 0001:000125d0       final                      000235d0 f   libeay32:m_sha1.obj
 0001:000125f8       init224                    000235f8 f   libeay32:m_sha1.obj
 0001:0001260c       init256                    0002360c f   libeay32:m_sha1.obj
 0001:00012620       update256                  00023620 f   libeay32:m_sha1.obj
 0001:00012634       final256                   00023634 f   libeay32:m_sha1.obj
 0001:00012650       init384                    00023650 f   libeay32:m_sha1.obj
 0001:00012664       init512                    00023664 f   libeay32:m_sha1.obj
 0001:00012678       update512                  00023678 f   libeay32:m_sha1.obj
 0001:0001268c       final512                   0002368c f   libeay32:m_sha1.obj
 0001:000128b4       cms_RecipientInfo_ktri_encrypt 000238b4 f   libeay32:cms_env.obj
 0001:00012a40       cms_RecipientInfo_kekri_encrypt 00023a40 f   libeay32:cms_env.obj
 0001:000135b4       rsa_builtin_keygen         000245b4 f   libeay32:rsa_gen.obj
 0001:00014f64       asn1_get_length            00025f64 f   libeay32:asn1_lib.obj
 0001:000155a4       ameth_cmp_BSEARCH_CMP_FN   000265a4 f   libeay32:ameth_lib.obj
 0001:00015954       obj_name_LHASH_HASH        00026954 f   libeay32:o_names.obj
 0001:000159b4       obj_name_LHASH_COMP        000269b4 f   libeay32:o_names.obj
 0001:00015b3c       sig_cmp_BSEARCH_CMP_FN     00026b3c f   libeay32:obj_xref.obj
 0001:00015b4c       sigx_cmp_BSEARCH_CMP_FN    00026b4c f   libeay32:obj_xref.obj
 0001:00015cbc       pbe2_cmp_BSEARCH_CMP_FN    00026cbc f   libeay32:evp_pbe.obj
 0001:00015f60       file_new                   00026f60 f   libeay32:bss_file.obj
 0001:00015f7c       file_free                  00026f7c f   libeay32:bss_file.obj
 0001:00015fd8       file_read                  00026fd8 f   libeay32:bss_file.obj
 0001:00016078       file_write                 00027078 f   libeay32:bss_file.obj
 0001:000160c4       file_ctrl                  000270c4 f   libeay32:bss_file.obj
 0001:00016358       file_gets                  00027358 f   libeay32:bss_file.obj
 0001:000163ac       file_puts                  000273ac f   libeay32:bss_file.obj
 0001:00016628       impl_check                 00027628 f   libeay32:ex_data.obj
 0001:0001667c       ex_class_item_LHASH_HASH   0002767c f   libeay32:ex_data.obj
 0001:00016684       ex_class_item_LHASH_COMP   00027684 f   libeay32:ex_data.obj
 0001:00016694       ex_data_check              00027694 f   libeay32:ex_data.obj
 0001:00016710       def_cleanup_util_cb        00027710 f   libeay32:ex_data.obj
 0001:00016720       def_cleanup_cb             00027720 f   libeay32:ex_data.obj
 0001:00016748       def_get_class              00027748 f   libeay32:ex_data.obj
 0001:00016844       def_add_index              00027844 f   libeay32:ex_data.obj
 0001:00016978       int_new_class              00027978 f   libeay32:ex_data.obj
 0001:000169d0       int_cleanup                000279d0 f   libeay32:ex_data.obj
 0001:00016a24       int_get_new_index          00027a24 f   libeay32:ex_data.obj
 0001:00016c24       int_new_ex_data            00027c24 f   libeay32:ex_data.obj
 0001:00016da0       int_dup_ex_data            00027da0 f   libeay32:ex_data.obj
 0001:00016f48       int_free_ex_data           00027f48 f   libeay32:ex_data.obj
 0001:00017168       look_str_cb                00028168 f   libeay32:tb_asnmth.obj
 0001:000184f4       BN_POOL_get                000294f4 f   libeay32:bn_ctx.obj
 0001:000188e0       euclid                     000298e0 f   libeay32:bn_gcd.obj
 0001:00018a0c       BN_mod_inverse_no_branch   00029a0c f   libeay32:bn_gcd.obj
 0001:00019e78       asn1_check_tlen            0002ae78 f   libeay32:tasn_dec.obj
 0001:0001a078       asn1_template_ex_d2i       0002b078 f   libeay32:tasn_dec.obj
 0001:0001a294       asn1_find_end              0002b294 f   libeay32:tasn_dec.obj
 0001:0001a3e8       asn1_collect               0002b3e8 f   libeay32:tasn_dec.obj
 0001:0001a644       asn1_d2i_ex_primitive      0002b644 f   libeay32:tasn_dec.obj
 0001:0001b40c       asn1_template_noexp_d2i    0002c40c f   libeay32:tasn_dec.obj
 0001:0001b828       asn1_template_ex_i2d       0002c828 f   libeay32:tasn_enc.obj
 0001:0001bb48       der_cmp                    0002cb48 f   libeay32:tasn_enc.obj
 0001:0001bd68       asn1_i2d_ex_primitive      0002cd68 f   libeay32:tasn_enc.obj
 0001:0001c240       asn1_set_seq_out           0002d240 f   libeay32:tasn_enc.obj
 0001:0001c488       asn1_item_flags_i2d        0002d488 f   libeay32:tasn_enc.obj
 0001:0001c67c       asn1_item_ex_combine_new   0002d67c f   libeay32:tasn_new.obj
 0001:0001c95c       asn1_item_clear            0002d95c f   libeay32:tasn_new.obj
 0001:0001ccac       asn1_item_combine_free     0002dcac f   libeay32:tasn_fre.obj
 0001:0001e5e0       i2v_AUTHORITY_INFO_ACCESS  0002f5e0 f   libeay32:v3_info.obj
 0001:0001e71c       v2i_AUTHORITY_INFO_ACCESS  0002f71c f   libeay32:v3_info.obj
 0001:0001ec7c       ext_cmp_BSEARCH_CMP_FN     0002fc7c f   libeay32:v3_lib.obj
 0001:0001eeb0       ec_pre_comp_dup            0002feb0 f   libeay32:ec_mult.obj
 0001:0001eeec       ec_pre_comp_free           0002feec f   libeay32:ec_mult.obj
 0001:0001ef68       ec_pre_comp_clear_free     0002ff68 f   libeay32:ec_mult.obj
 0001:0001effc       compute_wNAF               0002fffc f   libeay32:ec_mult.obj
 0001:0002041c       ecdsa_sign_setup           0003141c f   libeay32:ecs_ossl.obj
 0001:00020804       ecdsa_do_sign              00031804 f   libeay32:ecs_ossl.obj
 0001:00020bec       ecdsa_do_verify            00031bec f   libeay32:ecs_ossl.obj
 0001:000210f8       ecdh_data_new              000320f8 f   libeay32:ech_lib.obj
 0001:000211ec       ecdh_data_dup              000321ec f   libeay32:ech_lib.obj
 0001:0002120c       ecdh_data_free             0003220c f   libeay32:ech_lib.obj
 0001:000212cc       bnrand                     000322cc f   libeay32:bn_rand.obj
 0001:00021534       bn_rand_range              00032534 f   libeay32:bn_rand.obj
 0001:0002189c       bn_new                     0003289c f   libeay32:x_bignum.obj
 0001:000218c4       bn_free                    000328c4 f   libeay32:x_bignum.obj
 0001:00021900       bn_i2c                     00032900 f   libeay32:x_bignum.obj
 0001:00021970       bn_c2i                     00032970 f   libeay32:x_bignum.obj
 0001:000219e8       long_new                   000329e8 f   libeay32:x_long.obj
 0001:000219fc       long_free                  000329fc f   libeay32:x_long.obj
 0001:00021a08       long_i2c                   00032a08 f   libeay32:x_long.obj
 0001:00021ac0       long_c2i                   00032ac0 f   libeay32:x_long.obj
 0001:00021bb4       long_print                 00032bb4 f   libeay32:x_long.obj
 0001:00021d38       dsa_do_sign                00032d38 f   libeay32:dsa_ossl.obj
 0001:00021f88       dsa_sign_setup             00032f88 f   libeay32:dsa_ossl.obj
 0001:00022224       dsa_do_verify              00033224 f   libeay32:dsa_ossl.obj
 0001:0002253c       dsa_init                   0003353c f   libeay32:dsa_ossl.obj
 0001:00022554       dsa_finish                 00033554 f   libeay32:dsa_ossl.obj
 0001:00022908       MOD_EXP_CTIME_COPY_FROM_PREBUF 00033908 f   libeay32:bn_exp.obj
 0001:00023888       BN_from_montgomery_word    00034888 f   libeay32:bn_mont.obj
 0001:00024628       witness                    00035628 f   libeay32:bn_prime.obj
 0001:00024734       probable_prime_dh          00035734 f   libeay32:bn_prime.obj
 0001:00024858       probable_prime_dh_safe     00035858 f   libeay32:bn_prime.obj
 0001:0002581c       sha1_block_data_order      0003681c f   libeay32:sha1dgst.obj
 0001:00025ef0       sha256_block_data_order    00036ef0 f   libeay32:sha256.obj
 0001:00026680       sha512_block_data_order    00037680 f   libeay32:sha512.obj
 0001:00027210       cms_si_cb                  00038210 f   libeay32:cms_asn1.obj
 0001:00027324       cms_ri_cb                  00038324 f   libeay32:cms_asn1.obj
 0001:000273f4       CMS_ContentInfo_adb        000383f4 f   libeay32:cms_asn1.obj
 0001:00027400       cms_cb                     00038400 f   libeay32:cms_asn1.obj
 0001:00027de4       cms_get0_signed            00038de4 f   libeay32:cms_sd.obj
 0001:00027e38       cms_sd_set_version         00038e38 f   libeay32:cms_sd.obj
 0001:000282f4       cms_SignerInfo_content_sign 000392f4 f   libeay32:cms_sd.obj
 0001:000285e0       nid_cmp_BSEARCH_CMP_FN     000395e0 f   libeay32:v3_purp.obj
 0001:0002864c       setup_crldp                0003964c f   libeay32:v3_purp.obj
 0001:00028780       x509v3_cache_extensions    00039780 f   libeay32:v3_purp.obj
 0001:00028c64       check_ca                   00039c64 f   libeay32:v3_purp.obj
 0001:00028ccc       check_purpose_ssl_client   00039ccc f   libeay32:v3_purp.obj
 0001:00028d5c       check_purpose_ssl_server   00039d5c f   libeay32:v3_purp.obj
 0001:00028dec       check_purpose_ns_ssl_server 00039dec f   libeay32:v3_purp.obj
 0001:00028e2c       purpose_smime              00039e2c f   libeay32:v3_purp.obj
 0001:00028eb8       check_purpose_smime_sign   00039eb8 f   libeay32:v3_purp.obj
 0001:00028f00       check_purpose_smime_encrypt 00039f00 f   libeay32:v3_purp.obj
 0001:00028f48       check_purpose_crl_sign     00039f48 f   libeay32:v3_purp.obj
 0001:00028f9c       ocsp_helper                00039f9c f   libeay32:v3_purp.obj
 0001:00028fc4       check_purpose_timestamp_sign 00039fc4 f   libeay32:v3_purp.obj
 0001:00029060       no_check                   0003a060 f   libeay32:v3_purp.obj
 0001:000296a8       kek_unwrap_key             0003a6a8 f   libeay32:cms_pwri.obj
 0001:0002982c       kek_wrap_key               0003a82c f   libeay32:cms_pwri.obj
 0001:00029ca4       RSA_eay_public_encrypt     0003aca4 f   libeay32:rsa_eay.obj
 0001:00029ff4       rsa_get_blinding           0003aff4 f   libeay32:rsa_eay.obj
 0001:0002a164       rsa_blinding_convert       0003b164 f   libeay32:rsa_eay.obj
 0001:0002a1ec       RSA_eay_private_encrypt    0003b1ec f   libeay32:rsa_eay.obj
 0001:0002a658       RSA_eay_private_decrypt    0003b658 f   libeay32:rsa_eay.obj
 0001:0002aac8       RSA_eay_public_decrypt     0003bac8 f   libeay32:rsa_eay.obj
 0001:0002ae40       RSA_eay_mod_exp            0003be40 f   libeay32:rsa_eay.obj
 0001:0002b45c       RSA_eay_init               0003c45c f   libeay32:rsa_eay.obj
 0001:0002b474       RSA_eay_finish             0003c474 f   libeay32:rsa_eay.obj
 0001:0002b690       cmac_size                  0003c690 f   libeay32:cm_ameth.obj
 0001:0002b698       cmac_key_free              0003c698 f   libeay32:cm_ameth.obj
 0001:0002b6b4       hmac_size                  0003c6b4 f   libeay32:hm_ameth.obj
 0001:0002b6bc       hmac_key_free              0003c6bc f   libeay32:hm_ameth.obj
 0001:0002b6f0       hmac_pkey_ctrl             0003c6f0 f   libeay32:hm_ameth.obj
 0001:0002b708       old_hmac_decode            0003c708 f   libeay32:hm_ameth.obj
 0001:0002b768       old_hmac_encode            0003c768 f   libeay32:hm_ameth.obj
 0001:0002b7d8       eckey_param2type           0003c7d8 f   libeay32:ec_ameth.obj
 0001:0002b8c0       eckey_pub_encode           0003c8c0 f   libeay32:ec_ameth.obj
 0001:0002b9c4       eckey_type2param           0003c9c4 f   libeay32:ec_ameth.obj
 0001:0002bad0       eckey_pub_decode           0003cad0 f   libeay32:ec_ameth.obj
 0001:0002bbcc       eckey_pub_cmp              0003cbcc f   libeay32:ec_ameth.obj
 0001:0002bc34       eckey_priv_decode          0003cc34 f   libeay32:ec_ameth.obj
 0001:0002be5c       eckey_priv_encode          0003ce5c f   libeay32:ec_ameth.obj
 0001:0002bff4       int_ec_size                0003cff4 f   libeay32:ec_ameth.obj
 0001:0002c008       ec_bits                    0003d008 f   libeay32:ec_ameth.obj
 0001:0002c064       ec_missing_parameters      0003d064 f   libeay32:ec_ameth.obj
 0001:0002c088       ec_copy_parameters         0003d088 f   libeay32:ec_ameth.obj
 0001:0002c0d8       ec_cmp_parameters          0003d0d8 f   libeay32:ec_ameth.obj
 0001:0002c11c       int_ec_free                0003d11c f   libeay32:ec_ameth.obj
 0001:0002c130       do_EC_KEY_print            0003d130 f   libeay32:ec_ameth.obj
 0001:0002c3c4       eckey_param_decode         0003d3c4 f   libeay32:ec_ameth.obj
 0001:0002c428       eckey_param_encode         0003d428 f   libeay32:ec_ameth.obj
 0001:0002c43c       eckey_param_print          0003d43c f   libeay32:ec_ameth.obj
 0001:0002c454       eckey_pub_print            0003d454 f   libeay32:ec_ameth.obj
 0001:0002c46c       eckey_priv_print           0003d46c f   libeay32:ec_ameth.obj
 0001:0002c484       old_ec_priv_decode         0003d484 f   libeay32:ec_ameth.obj
 0001:0002c4ec       old_ec_priv_encode         0003d4ec f   libeay32:ec_ameth.obj
 0001:0002c500       ec_pkey_ctrl               0003d500 f   libeay32:ec_ameth.obj
 0001:0002c654       dsa_pub_decode             0003d654 f   libeay32:dsa_ameth.obj
 0001:0002c800       dsa_pub_encode             0003d800 f   libeay32:dsa_ameth.obj
 0001:0002c93c       dsa_priv_decode            0003d93c f   libeay32:dsa_ameth.obj
 0001:0002cc28       dsa_priv_encode            0003dc28 f   libeay32:dsa_ameth.obj
 0001:0002cd80       int_dsa_size               0003dd80 f   libeay32:dsa_ameth.obj
 0001:0002cd94       dsa_bits                   0003dd94 f   libeay32:dsa_ameth.obj
 0001:0002cdac       dsa_missing_parameters     0003ddac f   libeay32:dsa_ameth.obj
 0001:0002cddc       dsa_copy_parameters        0003dddc f   libeay32:dsa_ameth.obj
 0001:0002ce90       dsa_cmp_parameters         0003de90 f   libeay32:dsa_ameth.obj
 0001:0002cf04       dsa_pub_cmp                0003df04 f   libeay32:dsa_ameth.obj
 0001:0002cf34       int_dsa_free               0003df34 f   libeay32:dsa_ameth.obj
 0001:0002cf48       do_dsa_print               0003df48 f   libeay32:dsa_ameth.obj
 0001:0002d1d0       dsa_param_decode           0003e1d0 f   libeay32:dsa_ameth.obj
 0001:0002d234       dsa_param_encode           0003e234 f   libeay32:dsa_ameth.obj
 0001:0002d248       dsa_param_print            0003e248 f   libeay32:dsa_ameth.obj
 0001:0002d260       dsa_pub_print              0003e260 f   libeay32:dsa_ameth.obj
 0001:0002d278       dsa_priv_print             0003e278 f   libeay32:dsa_ameth.obj
 0001:0002d290       old_dsa_priv_decode        0003e290 f   libeay32:dsa_ameth.obj
 0001:0002d2f8       old_dsa_priv_encode        0003e2f8 f   libeay32:dsa_ameth.obj
 0001:0002d30c       dsa_sig_print              0003e30c f   libeay32:dsa_ameth.obj
 0001:0002d49c       dsa_pkey_ctrl              0003e49c f   libeay32:dsa_ameth.obj
 0001:0002d5f0       int_dh_free                0003e5f0 f   libeay32:dh_ameth.obj
 0001:0002d604       dh_pub_decode              0003e604 f   libeay32:dh_ameth.obj
 0001:0002d774       dh_pub_encode              0003e774 f   libeay32:dh_ameth.obj
 0001:0002d888       dh_priv_decode             0003e888 f   libeay32:dh_ameth.obj
 0001:0002d9bc       dh_priv_encode             0003e9bc f   libeay32:dh_ameth.obj
 0001:0002db08       dh_param_decode            0003eb08 f   libeay32:dh_ameth.obj
 0001:0002db6c       dh_param_encode            0003eb6c f   libeay32:dh_ameth.obj
 0001:0002db80       do_dh_print                0003eb80 f   libeay32:dh_ameth.obj
 0001:0002de0c       int_dh_size                0003ee0c f   libeay32:dh_ameth.obj
 0001:0002de20       dh_bits                    0003ee20 f   libeay32:dh_ameth.obj
 0001:0002de38       dh_cmp_parameters          0003ee38 f   libeay32:dh_ameth.obj
 0001:0002de90       dh_copy_parameters         0003ee90 f   libeay32:dh_ameth.obj
 0001:0002df14       dh_missing_parameters      0003ef14 f   libeay32:dh_ameth.obj
 0001:0002df34       dh_pub_cmp                 0003ef34 f   libeay32:dh_ameth.obj
 0001:0002df80       dh_param_print             0003ef80 f   libeay32:dh_ameth.obj
 0001:0002dfa4       dh_public_print            0003efa4 f   libeay32:dh_ameth.obj
 0001:0002dfc8       dh_private_print           0003efc8 f   libeay32:dh_ameth.obj
 0001:0002dfec       rsa_pub_encode             0003efec f   libeay32:rsa_ameth.obj
 0001:0002e064       rsa_pub_decode             0003f064 f   libeay32:rsa_ameth.obj
 0001:0002e0f4       rsa_pub_cmp                0003f0f4 f   libeay32:rsa_ameth.obj
 0001:0002e14c       old_rsa_priv_decode        0003f14c f   libeay32:rsa_ameth.obj
 0001:0002e1b0       old_rsa_priv_encode        0003f1b0 f   libeay32:rsa_ameth.obj
 0001:0002e1c4       rsa_priv_encode            0003f1c4 f   libeay32:rsa_ameth.obj
 0001:0002e284       rsa_priv_decode            0003f284 f   libeay32:rsa_ameth.obj
 0001:0002e2d0       int_rsa_size               0003f2d0 f   libeay32:rsa_ameth.obj
 0001:0002e2e4       rsa_bits                   0003f2e4 f   libeay32:rsa_ameth.obj
 0001:0002e2fc       int_rsa_free               0003f2fc f   libeay32:rsa_ameth.obj
 0001:0002e310       do_rsa_print               0003f310 f   libeay32:rsa_ameth.obj
 0001:0002e6ac       rsa_pub_print              0003f6ac f   libeay32:rsa_ameth.obj
 0001:0002e6c4       rsa_priv_print             0003f6c4 f   libeay32:rsa_ameth.obj
 0001:0002e6dc       rsa_pss_decode             0003f6dc f   libeay32:rsa_ameth.obj
 0001:0002e7a4       rsa_pss_param_print        0003f7a4 f   libeay32:rsa_ameth.obj
 0001:0002e9f8       rsa_sig_print              0003f9f8 f   libeay32:rsa_ameth.obj
 0001:0002eac0       rsa_pkey_ctrl              0003fac0 f   libeay32:rsa_ameth.obj
 0001:0002ebb0       rsa_item_verify            0003fbb0 f   libeay32:rsa_ameth.obj
 0001:0002ee80       rsa_item_sign              0003fe80 f   libeay32:rsa_ameth.obj
 0001:0002fc24       ssleay_rand_cleanup        00040c24 f   libeay32:md_rand.obj
 0001:0002fc8c       ssleay_rand_add            00040c8c f   libeay32:md_rand.obj
 0001:00030024       ssleay_rand_seed           00041024 f   libeay32:md_rand.obj
 0001:00030064       ssleay_rand_bytes          00041064 f   libeay32:md_rand.obj
 0001:000304a0       ssleay_rand_nopseudo_bytes 000414a0 f   libeay32:md_rand.obj
 0001:000304b4       ssleay_rand_pseudo_bytes   000414b4 f   libeay32:md_rand.obj
 0001:000304c8       ssleay_rand_status         000414c8 f   libeay32:md_rand.obj
 0001:000315c4       x509_name_ex_new           000425c4 f   libeay32:x_name.obj
 0001:00031678       x509_name_ex_free          00042678 f   libeay32:x_name.obj
 0001:000316d0       local_sk_X509_NAME_ENTRY_free 000426d0 f   libeay32:x_name.obj
 0001:000316e0       local_sk_X509_NAME_ENTRY_pop_free 000426e0 f   libeay32:x_name.obj
 0001:000316f8       x509_name_encode           000426f8 f   libeay32:x_name.obj
 0001:00031860       x509_name_ex_print         00042860 f   libeay32:x_name.obj
 0001:0003188c       asn1_string_canon          0004288c f   libeay32:x_name.obj
 0001:000319f8       i2d_name_canon             000429f8 f   libeay32:x_name.obj
 0001:00031a84       x509_name_canon            00042a84 f   libeay32:x_name.obj
 0001:00031c08       x509_name_ex_d2i           00042c08 f   libeay32:x_name.obj
 0001:00031dc4       x509_name_ex_i2d           00042dc4 f   libeay32:x_name.obj
 0001:00031f38       table_cmp_BSEARCH_CMP_FN   00042f38 f   libeay32:a_strnid.obj
 0001:000323fc       copy_issuer                000433fc f   libeay32:v3_alt.obj
 0001:0003252c       copy_email                 0004352c f   libeay32:v3_alt.obj
 0001:000326c0       do_othername               000436c0 f   libeay32:v3_alt.obj
 0001:0003279c       do_dirname                 0004379c f   libeay32:v3_alt.obj
 0001:00032cf8       v2i_issuer_alt             00043cf8 f   libeay32:v3_alt.obj
 0001:00032e1c       v2i_subject_alt            00043e1c f   libeay32:v3_alt.obj
 0001:000334d8       init                       000444d8 f   libeay32:m_md5.obj
 0001:000334ec       update                     000444ec f   libeay32:m_md5.obj
 0001:00033500       final                      00044500 f   libeay32:m_md5.obj
 0001:000338cc       pubkey_cb                  000448cc f   libeay32:x_pubkey.obj
 0001:00033b78       gnames_from_sectname       00044b78 f   libeay32:v3_crld.obj
 0001:00033c2c       set_reasons                00044c2c f   libeay32:v3_crld.obj
 0001:00033d34       print_reasons              00044d34 f   libeay32:v3_crld.obj
 0001:00033e0c       dpn_cb                     00044e0c f   libeay32:v3_crld.obj
 0001:00033ec8       print_gens                 00044ec8 f   libeay32:v3_crld.obj
 0001:00033f50       print_distpoint            00044f50 f   libeay32:v3_crld.obj
 0001:00033ff8       i2r_idp                    00044ff8 f   libeay32:v3_crld.obj
 0001:00034128       i2r_crldp                  00045128 f   libeay32:v3_crld.obj
 0001:000342bc       set_dist_point_name        000452bc f   libeay32:v3_crld.obj
 0001:000344a8       crldp_from_section         000454a8 f   libeay32:v3_crld.obj
 0001:00034594       v2i_crld                   00045594 f   libeay32:v3_crld.obj
 0001:00034754       v2i_idp                    00045754 f   libeay32:v3_crld.obj
 0001:00034920       s2i_asn1_int               00045920 f   libeay32:v3_int.obj
 0001:00034964       i2v_POLICY_MAPPINGS        00045964 f   libeay32:v3_pmaps.obj
 0001:000349f0       v2i_POLICY_MAPPINGS        000459f0 f   libeay32:v3_pmaps.obj
 0001:00034c00       v2i_NAME_CONSTRAINTS       00045c00 f   libeay32:v3_ncons.obj
 0001:00034db4       do_i2r_name_constraints    00045db4 f   libeay32:v3_ncons.obj
 0001:00034f64       i2r_NAME_CONSTRAINTS       00045f64 f   libeay32:v3_ncons.obj
 0001:00034fc0       i2r_pci                    00045fc0 f   libeay32:v3_pci.obj
 0001:000350a0       process_pci_value          000460a0 f   libeay32:v3_pci.obj
 0001:000357d0       r2i_pci                    000467d0 f   libeay32:v3_pci.obj
 0001:00035b18       i2r_ocsp_crlid             00046b18 f   libeay32:v3_ocsp.obj
 0001:00035c50       i2r_ocsp_acutoff           00046c50 f   libeay32:v3_ocsp.obj
 0001:00035cb0       i2r_object                 00046cb0 f   libeay32:v3_ocsp.obj
 0001:00035d10       ocsp_nonce_new             00046d10 f   libeay32:v3_ocsp.obj
 0001:00035d20       i2d_ocsp_nonce             00046d20 f   libeay32:v3_ocsp.obj
 0001:00035d5c       d2i_ocsp_nonce             00046d5c f   libeay32:v3_ocsp.obj
 0001:00035e10       ocsp_nonce_free            00046e10 f   libeay32:v3_ocsp.obj
 0001:00035e20       i2r_ocsp_nonce             00046e20 f   libeay32:v3_ocsp.obj
 0001:00035e84       i2r_ocsp_nocheck           00046e84 f   libeay32:v3_ocsp.obj
 0001:00035e8c       s2i_ocsp_nocheck           00046e8c f   libeay32:v3_ocsp.obj
 0001:00035e9c       i2r_ocsp_serviceloc        00046e9c f   libeay32:v3_ocsp.obj
 0001:00035fac       i2v_POLICY_CONSTRAINTS     00046fac f   libeay32:v3_pcons.obj
 0001:00035ff0       v2i_POLICY_CONSTRAINTS     00046ff0 f   libeay32:v3_pcons.obj
 0001:0003616c       i2v_EXTENDED_KEY_USAGE     0004716c f   libeay32:v3_extku.obj
 0001:000361e4       v2i_EXTENDED_KEY_USAGE     000471e4 f   libeay32:v3_extku.obj
 0001:00036318       sxnet_i2r                  00047318 f   libeay32:v3_sxnet.obj
 0001:0003666c       sxnet_v2i                  0004766c f   libeay32:v3_sxnet.obj
 0001:00036748       i2v_AUTHORITY_KEYID        00047748 f   libeay32:v3_akey.obj
 0001:00036800       v2i_AUTHORITY_KEYID        00047800 f   libeay32:v3_akey.obj
 0001:00036b10       POLICYQUALINFO_adb         00047b10 f   libeay32:v3_cpols.obj
 0001:00036b58       nref_nos                   00047b58 f   libeay32:v3_cpols.obj
 0001:00036c34       notice_section             00047c34 f   libeay32:v3_cpols.obj
 0001:00036f18       print_qualifiers           00047f18 f   libeay32:v3_cpols.obj
 0001:00037108       policy_section             00048108 f   libeay32:v3_cpols.obj
 0001:00037474       i2r_certpol                00048474 f   libeay32:v3_cpols.obj
 0001:00037518       r2i_certpol                00048518 f   libeay32:v3_cpols.obj
 0001:00037804       i2v_BASIC_CONSTRAINTS      00048804 f   libeay32:v3_bcons.obj
 0001:00037848       v2i_BASIC_CONSTRAINTS      00048848 f   libeay32:v3_bcons.obj
 0001:0003799c       i2r_PKEY_USAGE_PERIOD      0004899c f   libeay32:v3_pku.obj
 0001:00037cd0       s2i_skey_id                00048cd0 f   libeay32:v3_skey.obj
 0001:00037e54       i2s_ASN1_IA5STRING         00048e54 f   libeay32:v3_ia5.obj
 0001:00037edc       s2i_ASN1_IA5STRING         00048edc f   libeay32:v3_ia5.obj
 0001:00038010       nconf_get_string           00049010 f   libeay32:v3_conf.obj
 0001:00038020       nconf_get_section          00049020 f   libeay32:v3_conf.obj
 0001:00038030       conf_lhash_get_string      00049030 f   libeay32:v3_conf.obj
 0001:00038040       conf_lhash_get_section     00049040 f   libeay32:v3_conf.obj
 0001:00038050       rinf_cb                    00049050 f   libeay32:x_req.obj
 0001:000385f8       ecdh_compute_key           000495f8 f   libeay32:ech_ossl.obj
 0001:0003aff0       crl_set_issuers            0004bff0 f   libeay32:x_crl.obj
 0001:0003b17c       setup_idp                  0004c17c f   libeay32:x_crl.obj
 0001:0003b280       X509_REVOKED_cmp           0004c280 f   libeay32:x_crl.obj
 0001:0003b2a0       def_crl_verify             0004c2a0 f   libeay32:x_crl.obj
 0001:0003b2d4       def_crl_lookup             0004c2d4 f   libeay32:x_crl.obj
 0001:0003b460       crl_inf_cb                 0004c460 f   libeay32:x_crl.obj
 0001:0003b49c       crl_cb                     0004c49c f   libeay32:x_crl.obj
 0001:0003b700       x509_cb                    0004c700 f   libeay32:x_x509.obj
 0001:0003b8bc       md_new                     0004c8bc f   libeay32:bio_md.obj
 0001:0003b8f0       md_free                    0004c8f0 f   libeay32:bio_md.obj
 0001:0003b928       md_read                    0004c928 f   libeay32:bio_md.obj
 0001:0003b9b8       md_write                   0004c9b8 f   libeay32:bio_md.obj
 0001:0003ba68       md_ctrl                    0004ca68 f   libeay32:bio_md.obj
 0001:0003bbb4       md_callback_ctrl           0004cbb4 f   libeay32:bio_md.obj
 0001:0003bbdc       md_gets                    0004cbdc f   libeay32:bio_md.obj
 0001:0003bcb8       mem_new                    0004ccb8 f   libeay32:bss_mem.obj
 0001:0003bcf4       mem_free                   0004ccf4 f   libeay32:bss_mem.obj
 0001:0003bd50       mem_read                   0004cd50 f   libeay32:bss_mem.obj
 0001:0003be04       mem_write                  0004ce04 f   libeay32:bss_mem.obj
 0001:0003bebc       mem_ctrl                   0004cebc f   libeay32:bss_mem.obj
 0001:0003bffc       mem_gets                   0004cffc f   libeay32:bss_mem.obj
 0001:0003c088       mem_puts                   0004d088 f   libeay32:bss_mem.obj
 0001:0003c0c0       null_new                   0004d0c0 f   libeay32:bss_null.obj
 0001:0003c0dc       null_free                  0004d0dc f   libeay32:bss_null.obj
 0001:0003c0ec       null_read                  0004d0ec f   libeay32:bss_null.obj
 0001:0003c0f4       null_write                 0004d0f4 f   libeay32:bss_null.obj
 0001:0003c0fc       null_ctrl                  0004d0fc f   libeay32:bss_null.obj
 0001:0003c13c       null_gets                  0004d13c f   libeay32:bss_null.obj
 0001:0003c144       null_puts                  0004d144 f   libeay32:bss_null.obj
 0001:0003c28c       enc_new                    0004d28c f   libeay32:bio_enc.obj
 0001:0003c2f8       enc_free                   0004d2f8 f   libeay32:bio_enc.obj
 0001:0003c34c       enc_read                   0004d34c f   libeay32:bio_enc.obj
 0001:0003c4ec       enc_write                  0004d4ec f   libeay32:bio_enc.obj
 0001:0003c634       enc_ctrl                   0004d634 f   libeay32:bio_enc.obj
 0001:0003c830       enc_callback_ctrl          0004d830 f   libeay32:bio_enc.obj
 0001:0003ca98       do_sigver_init             0004da98 f   libeay32:m_sigver.obj
 0001:0003e844       X9_62_CHARACTERISTIC_TWO_adb 0004f844 f   libeay32:ec_asn1.obj
 0001:0003e85c       X9_62_FIELDID_adb          0004f85c f   libeay32:ec_asn1.obj
 0001:0003e898       ec_asn1_group2fieldid      0004f898 f   libeay32:ec_asn1.obj
 0001:0003ec0c       ec_asn1_group2curve        0004fc0c f   libeay32:ec_asn1.obj
 0001:0003eff4       ec_asn1_group2parameters   0004fff4 f   libeay32:ec_asn1.obj
 0001:0003f388       ec_asn1_group2pkparameters 00050388 f   libeay32:ec_asn1.obj
 0001:0003f488       ec_asn1_parameters2group   00050488 f   libeay32:ec_asn1.obj
 0001:0003fc84       ec_asn1_pkparameters2group 00050c84 f   libeay32:ec_asn1.obj
 0001:000408c8       pkey_cb                    000518c8 f   libeay32:p8_pkey.obj
 0001:00040a60       print_bin                  00051a60 f   libeay32:eck_prn.obj
 0001:00041b74       dh_cb                      00052b74 f   libeay32:dh_asn1.obj
 0001:00041c00       rsa_cb                     00052c00 f   libeay32:rsa_asn1.obj
 0001:00042460       readtimer                  00053460 f   libeay32:rand_win.obj
 0001:000425b4       send_bio_chars             000535b4 f   libeay32:a_strex.obj
 0001:000425e4       do_esc_char                000535e4 f   libeay32:a_strex.obj
 0001:000427d0       do_buf                     000537d0 f   libeay32:a_strex.obj
 0001:0004297c       do_hex_dump                0005397c f   libeay32:a_strex.obj
 0001:00042a08       do_dump                    00053a08 f   libeay32:a_strex.obj
 0001:00042af4       do_print_ex                00053af4 f   libeay32:a_strex.obj
 0001:00042cc4       do_indent                  00053cc4 f   libeay32:a_strex.obj
 0001:00042d24       do_name_ex                 00053d24 f   libeay32:a_strex.obj
 0001:00043190       traverse_string            00054190 f   libeay32:a_mbstr.obj
 0001:00043290       in_utf8                    00054290 f   libeay32:a_mbstr.obj
 0001:000432a4       out_utf8                   000542a4 f   libeay32:a_mbstr.obj
 0001:000432d8       cpy_asc                    000542d8 f   libeay32:a_mbstr.obj
 0001:000432f8       cpy_bmp                    000542f8 f   libeay32:a_mbstr.obj
 0001:00043328       cpy_univ                   00054328 f   libeay32:a_mbstr.obj
 0001:00043368       cpy_utf8                   00054368 f   libeay32:a_mbstr.obj
 0001:0004339c       type_str                   0005439c f   libeay32:a_mbstr.obj
 0001:00043980       parse_tagging              00054980 f   libeay32:asn1_gen.obj
 0001:00043ac0       append_exp                 00054ac0 f   libeay32:asn1_gen.obj
 0001:00043b9c       bitstr_cb                  00054b9c f   libeay32:asn1_gen.obj
 0001:00043c68       asn1_cb                    00054c68 f   libeay32:asn1_gen.obj
 0001:000440b0       asn1_str2type              000550b0 f   libeay32:asn1_gen.obj
 0001:000448cc       asn1_multi                 000558cc f   libeay32:asn1_gen.obj
 0001:00044a2c       def_create                 00055a2c f   libeay32:conf_def.obj
 0001:00044a80       def_init_default           00055a80 f   libeay32:conf_def.obj
 0001:00044aa8       def_init_WIN32             00055aa8 f   libeay32:conf_def.obj
 0001:00044ad0       def_destroy_data           00055ad0 f   libeay32:conf_def.obj
 0001:00044af4       str_copy                   00055af4 f   libeay32:conf_def.obj
 0001:00044ea0       dump_value_LHASH_DOALL_ARG 00055ea0 f   libeay32:conf_def.obj
 0001:00044ef4       def_dump                   00055ef4 f   libeay32:conf_def.obj
 0001:00044f18       def_is_number              00055f18 f   libeay32:conf_def.obj
 0001:00044f30       def_to_int                 00055f30 f   libeay32:conf_def.obj
 0001:00044f38       def_destroy                00055f38 f   libeay32:conf_def.obj
 0001:00044f6c       clear_comments             00055f6c f   libeay32:conf_def.obj
 0001:000450b8       def_load_bio               000560b8 f   libeay32:conf_def.obj
 0001:000458f0       def_load                   000568f0 f   libeay32:conf_def.obj
 0001:00045b38       conf_value_LHASH_HASH      00056b38 f   libeay32:conf_api.obj
 0001:00045b60       conf_value_LHASH_COMP      00056b60 f   libeay32:conf_api.obj
 0001:00045d04       value_free_hash_LHASH_DOALL_ARG 00056d04 f   libeay32:conf_api.obj
 0001:00045d28       value_free_stack_LHASH_DOALL 00056d28 f   libeay32:conf_api.obj
 0001:00047130       PKCS7_adb                  00058130 f   libeay32:pk7_asn1.obj
 0001:0004713c       pk7_cb                     0005813c f   libeay32:pk7_asn1.obj
 0001:000471d8       si_cb                      000581d8 f   libeay32:pk7_asn1.obj
 0001:0004721c       ri_cb                      0005821c f   libeay32:pk7_asn1.obj
 0001:0004991c       nist_cp_bn_0               0005a91c f   libeay32:bn_nist.obj
 0001:0004abfc       gf2m_Mdouble               0005bbfc f   libeay32:ec2_mult.obj
 0001:0004ad58       gf2m_Madd                  0005bd58 f   libeay32:ec2_mult.obj
 0001:0004aed0       gf2m_Mxy                   0005bed0 f   libeay32:ec2_mult.obj
 0001:0004b27c       ec_GF2m_montgomery_point_multiply 0005c27c f   libeay32:ec2_mult.obj
 0001:0004b818       bn_GF2m_mul_1x1            0005c818 f   libeay32:bn_gf2m.obj
 0001:0004d3cc       julian_to_date             0005e3cc f   libeay32:o_time.obj
 0001:0004d72c       trust_compat               0005e72c f   libeay32:x509_trs.obj
 0001:0004d760       obj_trust                  0005e760 f   libeay32:x509_trs.obj
 0001:0004d830       trust_1oidany              0005e830 f   libeay32:x509_trs.obj
 0001:0004d89c       trust_1oid                 0005e89c f   libeay32:x509_trs.obj
 0001:0004e27c       LoadLibraryA               0005f27c f   libeay32:dso_win32.obj
 0001:0004e31c       win32_load                 0005f31c f   libeay32:dso_win32.obj
 0001:0004e458       win32_unload               0005f458 f   libeay32:dso_win32.obj
 0001:0004e52c       win32_bind_var             0005f52c f   libeay32:dso_win32.obj
 0001:0004e640       win32_bind_func            0005f640 f   libeay32:dso_win32.obj
 0001:0004e754       win32_splitter             0005f754 f   libeay32:dso_win32.obj
 0001:0004e988       win32_name_converter       0005f988 f   libeay32:dso_win32.obj
 0001:0004ea70       win32_pathbyaddr           0005fa70 f   libeay32:dso_win32.obj
 0001:0004ec98       win32_globallookup         0005fc98 f   libeay32:dso_win32.obj
 0001:0004ee30       win32_joiner               0005fe30 f   libeay32:dso_win32.obj
 0001:0004f168       win32_merger               00060168 f   libeay32:dso_win32.obj
 0001:0004f3a4       PKCS7_get_octet_string     000603a4 f   libeay32:pk7_doit.obj
 0001:0004f404       PKCS7_bio_add_digest       00060404 f   libeay32:pk7_doit.obj
 0001:0004f4f8       pkcs7_encode_rinfo         000604f8 f   libeay32:pk7_doit.obj
 0001:0004fab8       PKCS7_find_digest          00060ab8 f   libeay32:pk7_doit.obj
 0001:0004fd3c       get_attribute              00060d3c f   libeay32:pk7_doit.obj
 0001:0004fde4       add_attribute              00060de4 f   libeay32:pk7_doit.obj
 0001:0004ff00       do_pkcs7_signed_attrib     00060f00 f   libeay32:pk7_doit.obj
 0001:00050a94       asn1_bio_free              00061a94 f   libeay32:bio_asn1.obj
 0001:00050ae4       asn1_bio_flush_ex          00061ae4 f   libeay32:bio_asn1.obj
 0001:00050b88       asn1_bio_read              00061b88 f   libeay32:bio_asn1.obj
 0001:00050bb0       asn1_bio_gets              00061bb0 f   libeay32:bio_asn1.obj
 0001:00050bd8       asn1_bio_callback_ctrl     00061bd8 f   libeay32:bio_asn1.obj
 0001:00050c00       asn1_bio_ctrl              00061c00 f   libeay32:bio_asn1.obj
 0001:00050da8       asn1_bio_new               00061da8 f   libeay32:bio_asn1.obj
 0001:00050e44       asn1_bio_write             00061e44 f   libeay32:bio_asn1.obj
 0001:00051078       asn1_bio_puts              00062078 f   libeay32:bio_asn1.obj
 0001:000510a4       b64_new                    000620a4 f   libeay32:bio_b64.obj
 0001:00051114       b64_free                   00062114 f   libeay32:bio_b64.obj
 0001:0005114c       b64_read                   0006214c f   libeay32:bio_b64.obj
 0001:000515f0       b64_write                  000625f0 f   libeay32:bio_b64.obj
 0001:00051a30       b64_ctrl                   00062a30 f   libeay32:bio_b64.obj
 0001:00051c48       b64_callback_ctrl          00062c48 f   libeay32:bio_b64.obj
 0001:00051c70       b64_puts                   00062c70 f   libeay32:bio_b64.obj
 0001:00051c9c       buffer_new                 00062c9c f   libeay32:bf_buff.obj
 0001:00051d50       buffer_free                00062d50 f   libeay32:bf_buff.obj
 0001:00051dac       buffer_read                00062dac f   libeay32:bf_buff.obj
 0001:00051eec       buffer_write               00062eec f   libeay32:bf_buff.obj
 0001:000520ac       buffer_ctrl                000630ac f   libeay32:bf_buff.obj
 0001:00052484       buffer_callback_ctrl       00063484 f   libeay32:bf_buff.obj
 0001:000524ac       buffer_gets                000634ac f   libeay32:bf_buff.obj
 0001:000525b4       buffer_puts                000635b4 f   libeay32:bf_buff.obj
 0001:00053afc       PKCS12_BAGS_adb            00064afc f   libeay32:p12_asn.obj
 0001:00053b14       PKCS12_SAFEBAG_adb         00064b14 f   libeay32:p12_asn.obj
 0001:00054770       write_string               00065770 f   libeay32:ui_openssl.obj
 0001:000547b8       open_console               000657b8 f   libeay32:ui_openssl.obj
 0001:00054844       close_console              00065844 f   libeay32:ui_openssl.obj
 0001:000548a8       read_string                000658a8 f   libeay32:ui_openssl.obj
 0001:00054a44       cmp64                      00065a44 f   wcecompatex:time.obj
 0001:00054a90       topBit                     00065a90 f   wcecompatex:time.obj
 0001:00054c1c       div64                      00065c1c f   wcecompatex:time.obj
 0001:000555f4       doexit                     000665f4 f   corelibc:crt0dat.obj
 0001:000557c8       ?getCmdLineArg@@YA?AW4ArgType@@PAPA_WPA_WHPAURedirArg@@PA_N@Z 000667c8 f   wcecompatex:args.obj
 0001:00055af4       ?qsort_stricmp@@YAHPBX0@Z  00066af4 f   wcecompatex:args.obj
