 sha256t

 Timestamp is 511c9ae1 (Thu Feb 14 17:05:53 2013)

 Preferred load address is 00010000

 Start         Length     Name                   Class
 0001:00000000 000545fcH .text                   CODE
 0002:00000000 00023750H .rdata                  DATA
 0002:00023750 00000014H .xdata                  DATA
 0002:00023764 00000014H .idata$2                DATA
 0002:00023778 00000014H .idata$3                DATA
 0002:0002378c 00000144H .idata$4                DATA
 0002:000238d0 0000000cH .idata$6                DATA
 0002:000238dc 00000000H .edata                  DATA
 0003:00000000 00000144H .idata$5                DATA
 0003:00000144 00000004H .CRT$XCA                DATA
 0003:00000148 00000004H .CRT$XCZ                DATA
 0003:0000014c 00000004H .CRT$XIA                DATA
 0003:00000150 00000004H .CRT$XIZ                DATA
 0003:00000154 00000004H .CRT$XPA                DATA
 0003:00000158 00000004H .CRT$XPZ                DATA
 0003:0000015c 00000004H .CRT$XTA                DATA
 0003:00000160 00000004H .CRT$XTZ                DATA
 0003:00000168 000010e0H .data                   DATA
 0003:00001260 00002019H .bss                    DATA
 0004:00000000 00003508H .pdata                  DATA

  Address         Publics by Value              Rva+Base     Lib:Object

 0000:00000000       ___safe_se_handler_count   00000000     <absolute>
 0000:00000000       ___safe_se_handler_table   00000000     <absolute>
 0001:00000000       main                       00011000 f   sha256t.obj
 0001:000003c0       EVP_sha1                   000113c0 f   libeay32:m_sha1.obj
 0001:00000424       EVP_sha224                 00011424 f   libeay32:m_sha1.obj
 0001:00000430       EVP_sha256                 00011430 f   libeay32:m_sha1.obj
 0001:00000494       EVP_MD_CTX_init            00011494 f   libeay32:digest.obj
 0001:000004ac       EVP_MD_CTX_create          000114ac f   libeay32:digest.obj
 0001:000004e4       EVP_DigestInit_ex          000114e4 f   libeay32:digest.obj
 0001:000006fc       EVP_DigestUpdate           000116fc f   libeay32:digest.obj
 0001:00000714       EVP_DigestFinal_ex         00011714 f   libeay32:digest.obj
 0001:000007c0       EVP_MD_CTX_cleanup         000117c0 f   libeay32:digest.obj
 0001:0000088c       EVP_MD_CTX_copy_ex         0001188c f   libeay32:digest.obj
 0001:00000a3c       EVP_Digest                 00011a3c f   libeay32:digest.obj
 0001:00000ae0       EVP_MD_CTX_destroy         00011ae0 f   libeay32:digest.obj
 0001:00000afc       EVP_MD_CTX_copy            00011afc f   libeay32:digest.obj
 0001:00000b28       RSA_sign                   00011b28 f   libeay32:rsa_sign.obj
 0001:00000d6c       int_rsa_verify             00011d6c f   libeay32:rsa_sign.obj
 0001:00001158       RSA_verify                 00012158 f   libeay32:rsa_sign.obj
 0001:000011d0       SHA1_Init                  000121d0 f   libeay32:sha1dgst.obj
 0001:00001588       SHA1_Update                00012588 f   libeay32:sha1dgst.obj
 0001:00001690       SHA1_Final                 00012690 f   libeay32:sha1dgst.obj
 0001:00001800       SHA224_Init                00012800 f   libeay32:sha256.obj
 0001:00001880       SHA256_Init                00012880 f   libeay32:sha256.obj
 0001:00001c20       SHA256_Update              00012c20 f   libeay32:sha256.obj
 0001:00001d28       SHA256_Final               00012d28 f   libeay32:sha256.obj
 0001:00001eb0       SHA384_Init                00012eb0 f   libeay32:sha512.obj
 0001:00001fa0       SHA512_Init                00012fa0 f   libeay32:sha512.obj
 0001:00002868       SHA512_Final               00013868 f   libeay32:sha512.obj
 0001:00002a94       SHA512_Update              00013a94 f   libeay32:sha512.obj
 0001:00002c44       CRYPTO_free_locked         00013c44 f   libeay32:mem.obj
 0001:00002ca0       CRYPTO_malloc              00013ca0 f   libeay32:mem.obj
 0001:00002d80       CRYPTO_realloc             00013d80 f   libeay32:mem.obj
 0001:00002e68       CRYPTO_realloc_clean       00013e68 f   libeay32:mem.obj
 0001:00002f8c       CRYPTO_free                00013f8c f   libeay32:mem.obj
 0001:00003000       EVP_PKEY_meth_find         00014000 f   libeay32:pmeth_lib.obj
 0001:00003098       EVP_PKEY_meth_free         00014098 f   libeay32:pmeth_lib.obj
 0001:000030b4       EVP_PKEY_CTX_free          000140b4 f   libeay32:pmeth_lib.obj
 0001:0000311c       EVP_PKEY_CTX_ctrl          0001411c f   libeay32:pmeth_lib.obj
 0001:00003240       EVP_PKEY_CTX_get0_pkey     00014240 f   libeay32:pmeth_lib.obj
 0001:00003248       EVP_PKEY_CTX_new           00014248 f   libeay32:pmeth_lib.obj
 0001:000033c4       EVP_PKEY_CTX_dup           000143c4 f   libeay32:pmeth_lib.obj
 0001:00003500       ENGINE_get_digest_engine   00014500 f   libeay32:tb_digest.obj
 0001:0000351c       ENGINE_get_digest          0001451c f   libeay32:tb_digest.obj
 0001:00003c08       ERR_get_state              00014c08 f   libeay32:err.obj
 0001:00003d08       ERR_set_error_data         00014d08 f   libeay32:err.obj
 0001:00003d5c       ERR_add_error_vdata        00014d5c f   libeay32:err.obj
 0001:00003e30       ERR_set_mark               00014e30 f   libeay32:err.obj
 0001:00003e70       ERR_pop_to_mark            00014e70 f   libeay32:err.obj
 0001:00004040       ERR_put_error              00015040 f   libeay32:err.obj
 0001:00004134       ERR_clear_error            00015134 f   libeay32:err.obj
 0001:000041a0       ERR_add_error_data         000151a0 f   libeay32:err.obj
 0001:000041c0       ERR_peek_last_error        000151c0 f   libeay32:err.obj
 0001:000041ec       engine_unlocked_init       000151ec f   libeay32:eng_init.obj
 0001:00004244       engine_unlocked_finish     00015244 f   libeay32:eng_init.obj
 0001:00004308       ENGINE_init                00015308 f   libeay32:eng_init.obj
 0001:00004384       ENGINE_finish              00015384 f   libeay32:eng_init.obj
 0001:00004428       EVP_CIPHER_CTX_block_size  00015428 f   libeay32:evp_lib.obj
 0001:00004434       EVP_Cipher                 00015434 f   libeay32:evp_lib.obj
 0001:00004450       EVP_CIPHER_CTX_cipher      00015450 f   libeay32:evp_lib.obj
 0001:00004458       EVP_CIPHER_CTX_flags       00015458 f   libeay32:evp_lib.obj
 0001:00004464       EVP_CIPHER_iv_length       00015464 f   libeay32:evp_lib.obj
 0001:0000446c       EVP_CIPHER_CTX_iv_length   0001546c f   libeay32:evp_lib.obj
 0001:00004478       EVP_CIPHER_key_length      00015478 f   libeay32:evp_lib.obj
 0001:00004480       EVP_CIPHER_CTX_key_length  00015480 f   libeay32:evp_lib.obj
 0001:00004488       EVP_MD_block_size          00015488 f   libeay32:evp_lib.obj
 0001:00004490       EVP_MD_type                00015490 f   libeay32:evp_lib.obj
 0001:00004498       EVP_MD_pkey_type           00015498 f   libeay32:evp_lib.obj
 0001:000044a0       EVP_MD_size                000154a0 f   libeay32:evp_lib.obj
 0001:000044ec       EVP_MD_CTX_md              000154ec f   libeay32:evp_lib.obj
 0001:000044fc       EVP_MD_CTX_set_flags       000154fc f   libeay32:evp_lib.obj
 0001:0000450c       EVP_MD_CTX_clear_flags     0001550c f   libeay32:evp_lib.obj
 0001:0000451c       EVP_MD_CTX_test_flags      0001551c f   libeay32:evp_lib.obj
 0001:00004528       EVP_CIPHER_get_asn1_iv     00015528 f   libeay32:evp_lib.obj
 0001:000045a0       EVP_CIPHER_set_asn1_iv     000155a0 f   libeay32:evp_lib.obj
 0001:000045f0       EVP_CIPHER_type            000155f0 f   libeay32:evp_lib.obj
 0001:00004720       EVP_CIPHER_param_to_asn1   00015720 f   libeay32:evp_lib.obj
 0001:00004768       EVP_CIPHER_asn1_to_param   00015768 f   libeay32:evp_lib.obj
 0001:000047b0       CRYPTO_destroy_dynlockid   000157b0 f   libeay32:cryptlib.obj
 0001:000048b4       CRYPTO_get_dynlock_value   000158b4 f   libeay32:cryptlib.obj
 0001:00004950       CRYPTO_THREADID_current    00015950 f   libeay32:cryptlib.obj
 0001:000049cc       CRYPTO_THREADID_cmp        000159cc f   libeay32:cryptlib.obj
 0001:000049e0       CRYPTO_THREADID_cpy        000159e0 f   libeay32:cryptlib.obj
 0001:000049f4       CRYPTO_THREADID_hash       000159f4 f   libeay32:cryptlib.obj
 0001:000049fc       OPENSSL_showfatal          000159fc f   libeay32:cryptlib.obj
 0001:00004b84       OpenSSLDie                 00015b84 f   libeay32:cryptlib.obj
 0001:00004bb8       CRYPTO_memcmp              00015bb8 f   libeay32:cryptlib.obj
 0001:00004bf4       CRYPTO_lock                00015bf4 f   libeay32:cryptlib.obj
 0001:00004cc0       CRYPTO_add_lock            00015cc0 f   libeay32:cryptlib.obj
 0001:00004d4c       OPENSSL_cleanse            00015d4c f   libeay32:mem_clr.obj
 0001:00004da8       RSA_size                   00015da8 f   libeay32:rsa_crpt.obj
 0001:00004dcc       RSA_public_encrypt         00015dcc f   libeay32:rsa_crpt.obj
 0001:00004df8       RSA_private_encrypt        00015df8 f   libeay32:rsa_crpt.obj
 0001:00004e24       RSA_private_decrypt        00015e24 f   libeay32:rsa_crpt.obj
 0001:00004e50       RSA_public_decrypt         00015e50 f   libeay32:rsa_crpt.obj
 0001:00004f60       RSA_setup_blinding         00015f60 f   libeay32:rsa_crpt.obj
 0001:00005134       X509_SIG_it                00016134 f   libeay32:x_sig.obj
 0001:00005140       d2i_X509_SIG               00016140 f   libeay32:x_sig.obj
 0001:00005158       i2d_X509_SIG               00016158 f   libeay32:x_sig.obj
 0001:00005170       X509_SIG_free              00016170 f   libeay32:x_sig.obj
 0001:000051e4       OBJ_nid2obj                000161e4 f   libeay32:obj_dat.obj
 0001:000052c4       OBJ_nid2sn                 000162c4 f   libeay32:obj_dat.obj
 0001:000053a8       OBJ_nid2ln                 000163a8 f   libeay32:obj_dat.obj
 0001:000054d0       OBJ_bsearch_ex_            000164d0 f   libeay32:obj_dat.obj
 0001:000055b4       OBJ_bsearch_               000165b4 f   libeay32:obj_dat.obj
 0001:000055dc       OBJ_obj2nid                000165dc f   libeay32:obj_dat.obj
 0001:000056a4       OBJ_obj2txt                000166a4 f   libeay32:obj_dat.obj
 0001:000059a4       OBJ_ln2nid                 000169a4 f   libeay32:obj_dat.obj
 0001:00005a54       OBJ_sn2nid                 00016a54 f   libeay32:obj_dat.obj
 0001:00005b04       OBJ_txt2obj                00016b04 f   libeay32:obj_dat.obj
 0001:00005bf8       EVP_get_cipherbyname       00016bf8 f   libeay32:names.obj
 0001:00005c0c       EVP_get_digestbyname       00016c0c f   libeay32:names.obj
 0001:00005c20       ASN1_TYPE_get              00016c20 f   libeay32:a_type.obj
 0001:00005c44       ASN1_TYPE_set              00016c44 f   libeay32:a_type.obj
 0001:00005cb0       ASN1_TYPE_set1             00016cb0 f   libeay32:a_type.obj
 0001:00008180       sk_set_cmp_func            00019180 f   libeay32:stack.obj
 0001:0000819c       sk_new                     0001919c f   libeay32:stack.obj
 0001:00008224       sk_insert                  00019224 f   libeay32:stack.obj
 0001:000082fc       sk_delete                  000192fc f   libeay32:stack.obj
 0001:00008368       sk_push                    00019368 f   libeay32:stack.obj
 0001:0000837c       sk_pop                     0001937c f   libeay32:stack.obj
 0001:000083b0       sk_free                    000193b0 f   libeay32:stack.obj
 0001:000083dc       sk_num                     000193dc f   libeay32:stack.obj
 0001:000083ec       sk_value                   000193ec f   libeay32:stack.obj
 0001:00008418       sk_set                     00019418 f   libeay32:stack.obj
 0001:0000844c       sk_sort                    0001944c f   libeay32:stack.obj
 0001:00008488       sk_is_sorted               00019488 f   libeay32:stack.obj
 0001:00008498       sk_new_null                00019498 f   libeay32:stack.obj
 0001:000084ac       sk_delete_ptr              000194ac f   libeay32:stack.obj
 0001:000085c0       sk_find                    000195c0 f   libeay32:stack.obj
 0001:000085d4       sk_pop_free                000195d4 f   libeay32:stack.obj
 0001:0000863c       EVP_PKEY_bits              0001963c f   libeay32:p_lib.obj
 0001:0000867c       EVP_PKEY_size              0001967c f   libeay32:p_lib.obj
 0001:000086bc       EVP_PKEY_missing_parameters 000196bc f   libeay32:p_lib.obj
 0001:000086f4       EVP_PKEY_new               000196f4 f   libeay32:p_lib.obj
 0001:00008770       EVP_PKEY_type              00019770 f   libeay32:p_lib.obj
 0001:000087ac       EVP_PKEY_id                000197ac f   libeay32:p_lib.obj
 0001:000087b4       EVP_PKEY_get_default_digest_nid 000197b4 f   libeay32:p_lib.obj
 0001:000087f8       EVP_PKEY_copy_parameters   000197f8 f   libeay32:p_lib.obj
 0001:000089e4       EVP_PKEY_set_type          000199e4 f   libeay32:p_lib.obj
 0001:000089fc       EVP_PKEY_assign            000199fc f   libeay32:p_lib.obj
 0001:00008a34       EVP_PKEY_free              00019a34 f   libeay32:p_lib.obj
 0001:00008ae0       ENGINE_get_pkey_meth_engine 00019ae0 f   libeay32:tb_pkmeth.obj
 0001:00008afc       engine_pkey_meths_free     00019afc f   libeay32:tb_pkmeth.obj
 0001:00008b7c       ENGINE_get_pkey_meth       00019b7c f   libeay32:tb_pkmeth.obj
 0001:00008be0       engine_table_select        00019be0 f   libeay32:eng_table.obj
 0001:00008d6c       engine_table_doall         00019d6c f   libeay32:eng_table.obj
 0001:00008da0       CRYPTO_mem_ctrl            00019da0 f   libeay32:mem_dbg.obj
 0001:00008f14       CRYPTO_is_mem_check_on     00019f14 f   libeay32:mem_dbg.obj
 0001:00009090       CRYPTO_push_info_          0001a090 f   libeay32:mem_dbg.obj
 0001:00009160       CRYPTO_pop_info            0001a160 f   libeay32:mem_dbg.obj
 0001:000091a0       lh_free                    0001a1a0 f   libeay32:lhash.obj
 0001:00009208       lh_doall                   0001a208 f   libeay32:lhash.obj
 0001:0000925c       lh_doall_arg               0001a25c f   libeay32:lhash.obj
 0001:000095c0       lh_strhash                 0001a5c0 f   libeay32:lhash.obj
 0001:0000962c       lh_num_items               0001a62c f   libeay32:lhash.obj
 0001:0000963c       lh_new                     0001a63c f   libeay32:lhash.obj
 0001:00009738       lh_insert                  0001a738 f   libeay32:lhash.obj
 0001:0000981c       lh_delete                  0001a81c f   libeay32:lhash.obj
 0001:000098c8       lh_retrieve                0001a8c8 f   libeay32:lhash.obj
 0001:00009918       BUF_strlcpy                0001a918 f   libeay32:buf_str.obj
 0001:00009968       BUF_strlcat                0001a968 f   libeay32:buf_str.obj
 0001:000099a4       BUF_strndup                0001a9a4 f   libeay32:buf_str.obj
 0001:00009a18       BUF_strdup                 0001aa18 f   libeay32:buf_str.obj
 0001:0000aae0       BIO_vprintf                0001bae0 f   libeay32:b_print.obj
 0001:0000aba8       BIO_vsnprintf              0001bba8 f   libeay32:b_print.obj
 0001:0000ac0c       BIO_printf                 0001bc0c f   libeay32:b_print.obj
 0001:0000ac2c       BIO_snprintf               0001bc2c f   libeay32:b_print.obj
 0001:0000ac4c       engine_free_util           0001bc4c f   libeay32:eng_lib.obj
 0001:0000ad0c       ENGINE_free                0001bd0c f   libeay32:eng_lib.obj
 0001:0000ad20       ASN1_TYPE_set_octetstring  0001bd20 f   libeay32:evp_asn1.obj
 0001:0000ad80       ASN1_TYPE_get_octetstring  0001bd80 f   libeay32:evp_asn1.obj
 0001:0000adf4       a2d_ASN1_OBJECT            0001bdf4 f   libeay32:a_object.obj
 0001:0000b1cc       i2t_ASN1_OBJECT            0001c1cc f   libeay32:a_object.obj
 0001:0000b1e0       i2a_ASN1_OBJECT            0001c1e0 f   libeay32:a_object.obj
 0001:0000b2bc       ASN1_OBJECT_new            0001c2bc f   libeay32:a_object.obj
 0001:0000b338       ASN1_OBJECT_free           0001c338 f   libeay32:a_object.obj
 0001:0000b3b8       c2i_ASN1_OBJECT            0001c3b8 f   libeay32:a_object.obj
 0001:0000b54c       d2i_ASN1_OBJECT            0001c54c f   libeay32:a_object.obj
 0001:0000b5ec       BN_value_one               0001c5ec f   libeay32:bn_lib.obj
 0001:0000b5f8       BN_num_bits_word           0001c5f8 f   libeay32:bn_lib.obj
 0001:0000b63c       BN_num_bits                0001c63c f   libeay32:bn_lib.obj
 0001:0000b670       BN_clear_free              0001c670 f   libeay32:bn_lib.obj
 0001:0000b6c8       BN_free                    0001c6c8 f   libeay32:bn_lib.obj
 0001:0000b720       BN_init                    0001c720 f   libeay32:bn_lib.obj
 0001:0000b738       BN_new                     0001c738 f   libeay32:bn_lib.obj
 0001:0000b8fc       bn_expand2                 0001c8fc f   libeay32:bn_lib.obj
 0001:0000b948       BN_copy                    0001c948 f   libeay32:bn_lib.obj
 0001:0000ba10       BN_set_word                0001ca10 f   libeay32:bn_lib.obj
 0001:0000ba68       BN_bin2bn                  0001ca68 f   libeay32:bn_lib.obj
 0001:0000bb64       BN_bn2bin                  0001cb64 f   libeay32:bn_lib.obj
 0001:0000bbc0       BN_ucmp                    0001cbc0 f   libeay32:bn_lib.obj
 0001:0000bc2c       BN_cmp                     0001cc2c f   libeay32:bn_lib.obj
 0001:0000bcf4       BN_set_bit                 0001ccf4 f   libeay32:bn_lib.obj
 0001:0000bd90       BN_is_bit_set              0001cd90 f   libeay32:bn_lib.obj
 0001:0000bdd0       BN_mask_bits               0001cdd0 f   libeay32:bn_lib.obj
 0001:0000be68       BN_set_negative            0001ce68 f   libeay32:bn_lib.obj
 0001:0000be88       BN_dup                     0001ce88 f   libeay32:bn_lib.obj
 0001:0000becc       BN_BLINDING_free           0001cecc f   libeay32:bn_blind.obj
 0001:0000bf28       BN_BLINDING_invert_ex      0001cf28 f   libeay32:bn_blind.obj
 0001:0000bfac       BN_BLINDING_thread_id      0001cfac f   libeay32:bn_blind.obj
 0001:0000bfb4       BN_BLINDING_new            0001cfb4 f   libeay32:bn_blind.obj
 0001:0000c0a8       BN_BLINDING_create_param   0001d0a8 f   libeay32:bn_blind.obj
 0001:0000c284       BN_BLINDING_update         0001d284 f   libeay32:bn_blind.obj
 0001:0000c398       BN_BLINDING_convert_ex     0001d398 f   libeay32:bn_blind.obj
 0001:0000c544       BN_CTX_new                 0001d544 f   libeay32:bn_ctx.obj
 0001:0000c5cc       BN_CTX_free                0001d5cc f   libeay32:bn_ctx.obj
 0001:0000c648       BN_CTX_start               0001d648 f   libeay32:bn_ctx.obj
 0001:0000c738       BN_CTX_end                 0001d738 f   libeay32:bn_ctx.obj
 0001:0000c7c8       BN_CTX_get                 0001d7c8 f   libeay32:bn_ctx.obj
 0001:0000ccb4       BN_gcd                     0001dcb4 f   libeay32:bn_gcd.obj
 0001:0000cd88       BN_mod_inverse             0001dd88 f   libeay32:bn_gcd.obj
 0001:0000d3fc       bn_mul_normal              0001e3fc f   libeay32:bn_mul.obj
 0001:0000d50c       BN_mul                     0001e50c f   libeay32:bn_mul.obj
 0001:0000d62c       BN_uadd                    0001e62c f   libeay32:bn_add.obj
 0001:0000d728       BN_usub                    0001e728 f   libeay32:bn_add.obj
 0001:0000d8d0       BN_sub                     0001e8d0 f   libeay32:bn_add.obj
 0001:0000d9c8       BN_add                     0001e9c8 f   libeay32:bn_add.obj
 0001:0000da7c       RAND_get_rand_method       0001ea7c f   libeay32:rand_lib.obj
 0001:0000dae4       RAND_seed                  0001eae4 f   libeay32:rand_lib.obj
 0001:0000db18       RAND_add                   0001eb18 f   libeay32:rand_lib.obj
 0001:0000db5c       RAND_bytes                 0001eb5c f   libeay32:rand_lib.obj
 0001:0000dba4       RAND_pseudo_bytes          0001eba4 f   libeay32:rand_lib.obj
 0001:0000dbec       RAND_status                0001ebec f   libeay32:rand_lib.obj
 0001:0000dc24       ASN1_INTEGER_it            0001ec24 f   libeay32:tasn_typ.obj
 0001:0000dc30       d2i_ASN1_INTEGER           0001ec30 f   libeay32:tasn_typ.obj
 0001:0000dc48       i2d_ASN1_INTEGER           0001ec48 f   libeay32:tasn_typ.obj
 0001:0000dc60       ASN1_INTEGER_new           0001ec60 f   libeay32:tasn_typ.obj
 0001:0000dc78       ASN1_INTEGER_free          0001ec78 f   libeay32:tasn_typ.obj
 0001:0000dc90       ASN1_ENUMERATED_it         0001ec90 f   libeay32:tasn_typ.obj
 0001:0000dc9c       ASN1_ENUMERATED_free       0001ec9c f   libeay32:tasn_typ.obj
 0001:0000dcb4       ASN1_BIT_STRING_it         0001ecb4 f   libeay32:tasn_typ.obj
 0001:0000dcc0       ASN1_BIT_STRING_new        0001ecc0 f   libeay32:tasn_typ.obj
 0001:0000dcd8       ASN1_BIT_STRING_free       0001ecd8 f   libeay32:tasn_typ.obj
 0001:0000dcf0       ASN1_OCTET_STRING_it       0001ecf0 f   libeay32:tasn_typ.obj
 0001:0000dcfc       i2d_ASN1_OCTET_STRING      0001ecfc f   libeay32:tasn_typ.obj
 0001:0000dd14       ASN1_OCTET_STRING_new      0001ed14 f   libeay32:tasn_typ.obj
 0001:0000dd2c       ASN1_OCTET_STRING_free     0001ed2c f   libeay32:tasn_typ.obj
 0001:0000dd44       ASN1_NULL_it               0001ed44 f   libeay32:tasn_typ.obj
 0001:0000dd50       ASN1_NULL_new              0001ed50 f   libeay32:tasn_typ.obj
 0001:0000dd68       ASN1_OBJECT_it             0001ed68 f   libeay32:tasn_typ.obj
 0001:0000dd74       ASN1_UTF8STRING_it         0001ed74 f   libeay32:tasn_typ.obj
 0001:0000dd80       ASN1_IA5STRING_it          0001ed80 f   libeay32:tasn_typ.obj
 0001:0000dd8c       ASN1_GENERALIZEDTIME_it    0001ed8c f   libeay32:tasn_typ.obj
 0001:0000dd98       ASN1_ANY_it                0001ed98 f   libeay32:tasn_typ.obj
 0001:0000dda4       ASN1_SEQUENCE_it           0001eda4 f   libeay32:tasn_typ.obj
 0001:0000ddb0       d2i_ASN1_TYPE              0001edb0 f   libeay32:tasn_typ.obj
 0001:0000ddc8       i2d_ASN1_TYPE              0001edc8 f   libeay32:tasn_typ.obj
 0001:0000dde0       ASN1_TYPE_new              0001ede0 f   libeay32:tasn_typ.obj
 0001:0000ddf8       ASN1_TYPE_free             0001edf8 f   libeay32:tasn_typ.obj
 0001:0000de10       ASN1_PRINTABLE_it          0001ee10 f   libeay32:tasn_typ.obj
 0001:0000de1c       DISPLAYTEXT_it             0001ee1c f   libeay32:tasn_typ.obj
 0001:0000de28       DIRECTORYSTRING_it         0001ee28 f   libeay32:tasn_typ.obj
 0001:0000de34       ASN1_BOOLEAN_it            0001ee34 f   libeay32:tasn_typ.obj
 0001:0000de40       ASN1_FBOOLEAN_it           0001ee40 f   libeay32:tasn_typ.obj
 0001:0000de4c       ASN1_OCTET_STRING_NDEF_it  0001ee4c f   libeay32:tasn_typ.obj
 0001:0000de58       d2i_ASN1_SEQUENCE_ANY      0001ee58 f   libeay32:tasn_typ.obj
 0001:0000de70       i2d_ASN1_SEQUENCE_ANY      0001ee70 f   libeay32:tasn_typ.obj
 0001:0000de88       i2d_ASN1_SET_ANY           0001ee88 f   libeay32:tasn_typ.obj
 0001:0000dea0       X509_ALGOR_it              0001eea0 f   libeay32:x_algor.obj
 0001:0000deac       d2i_X509_ALGOR             0001eeac f   libeay32:x_algor.obj
 0001:0000dec4       X509_ALGOR_new             0001eec4 f   libeay32:x_algor.obj
 0001:0000dedc       X509_ALGOR_free            0001eedc f   libeay32:x_algor.obj
 0001:0000def4       X509_ALGOR_set0            0001eef4 f   libeay32:x_algor.obj
 0001:0000df9c       X509_ALGOR_get0            0001ef9c f   libeay32:x_algor.obj
 0001:0000dff0       X509_ALGOR_set_md          0001eff0 f   libeay32:x_algor.obj
 0001:0000e030       ASN1_tag2bit               0001f030 f   libeay32:tasn_dec.obj
 0001:0000e048       asn1_ex_c2i                0001f048 f   libeay32:tasn_dec.obj
 0001:0000ef20       ASN1_item_ex_d2i           0001ff20 f   libeay32:tasn_dec.obj
 0001:0000fcf4       ASN1_item_d2i              00020cf4 f   libeay32:tasn_dec.obj
 0001:000100a4       asn1_ex_i2c                000210a4 f   libeay32:tasn_enc.obj
 0001:00010390       ASN1_item_ex_i2d           00021390 f   libeay32:tasn_enc.obj
 0001:00010a68       ASN1_item_i2d              00021a68 f   libeay32:tasn_enc.obj
 0001:00010a7c       ASN1_primitive_new         00021a7c f   libeay32:tasn_new.obj
 0001:00010fb8       ASN1_item_ex_new           00021fb8 f   libeay32:tasn_new.obj
 0001:00010fcc       ASN1_template_new          00021fcc f   libeay32:tasn_new.obj
 0001:000110a4       ASN1_item_new              000220a4 f   libeay32:tasn_new.obj
 0001:000110dc       ASN1_primitive_free        000220dc f   libeay32:tasn_fre.obj
 0001:00011450       ASN1_template_free         00022450 f   libeay32:tasn_fre.obj
 0001:00011504       ASN1_item_free             00022504 f   libeay32:tasn_fre.obj
 0001:00011524       ASN1_item_ex_free          00022524 f   libeay32:tasn_fre.obj
 0001:00011538       OBJ_dup                    00022538 f   libeay32:obj_lib.obj
 0001:000116d8       OBJ_cmp                    000226d8 f   libeay32:obj_lib.obj
 0001:00011704       BIO_set                    00022704 f   libeay32:bio_lib.obj
 0001:000117a4       BIO_free                   000227a4 f   libeay32:bio_lib.obj
 0001:00011868       BIO_clear_flags            00022868 f   libeay32:bio_lib.obj
 0001:00011878       BIO_test_flags             00022878 f   libeay32:bio_lib.obj
 0001:00011884       BIO_set_flags              00022884 f   libeay32:bio_lib.obj
 0001:00011894       BIO_read                   00022894 f   libeay32:bio_lib.obj
 0001:000119c4       BIO_write                  000229c4 f   libeay32:bio_lib.obj
 0001:00011af8       BIO_puts                   00022af8 f   libeay32:bio_lib.obj
 0001:00011c20       BIO_gets                   00022c20 f   libeay32:bio_lib.obj
 0001:00011d48       BIO_indent                 00022d48 f   libeay32:bio_lib.obj
 0001:00011da4       BIO_ctrl                   00022da4 f   libeay32:bio_lib.obj
 0001:00011ea0       BIO_callback_ctrl          00022ea0 f   libeay32:bio_lib.obj
 0001:00011fa4       BIO_push                   00022fa4 f   libeay32:bio_lib.obj
 0001:00011ff8       BIO_find_type              00022ff8 f   libeay32:bio_lib.obj
 0001:00012040       BIO_next                   00023040 f   libeay32:bio_lib.obj
 0001:00012050       BIO_free_all               00023050 f   libeay32:bio_lib.obj
 0001:00012084       BIO_copy_next_retry        00023084 f   libeay32:bio_lib.obj
 0001:000120a8       BIO_new                    000230a8 f   libeay32:bio_lib.obj
 0001:00012120       BIO_int_ctrl               00023120 f   libeay32:bio_lib.obj
 0001:00012144       BN_bn2dec                  00023144 f   libeay32:bn_print.obj
 0001:00012330       BN_hex2bn                  00023330 f   libeay32:bn_print.obj
 0001:000124c0       BN_dec2bn                  000234c0 f   libeay32:bn_print.obj
 0001:00012654       BN_asc2bn                  00023654 f   libeay32:bn_print.obj
 0001:000126d4       BN_mod_word                000236d4 f   libeay32:bn_word.obj
 0001:00012738       BN_div_word                00023738 f   libeay32:bn_word.obj
 0001:00012800       BN_add_word                00023800 f   libeay32:bn_word.obj
 0001:0001290c       BN_sub_word                0002390c f   libeay32:bn_word.obj
 0001:00012a10       BN_mul_word                00023a10 f   libeay32:bn_word.obj
 0001:00012a9c       BN_lshift1                 00023a9c f   libeay32:bn_shift.obj
 0001:00012b70       BN_rshift1                 00023b70 f   libeay32:bn_shift.obj
 0001:00012c4c       BN_lshift                  00023c4c f   libeay32:bn_shift.obj
 0001:00012d78       BN_rshift                  00023d78 f   libeay32:bn_shift.obj
 0001:00012f4c       ASN1_put_eoc               00023f4c f   libeay32:asn1_lib.obj
 0001:00012f6c       ASN1_object_size           00023f6c f   libeay32:asn1_lib.obj
 0001:00012fbc       ASN1_STRING_set            00023fbc f   libeay32:asn1_lib.obj
 0001:000130ac       ASN1_STRING_set0           000240ac f   libeay32:asn1_lib.obj
 0001:000130dc       ASN1_STRING_type_new       000240dc f   libeay32:asn1_lib.obj
 0001:00013148       ASN1_STRING_free           00024148 f   libeay32:asn1_lib.obj
 0001:0001317c       ASN1_STRING_cmp            0002417c f   libeay32:asn1_lib.obj
 0001:000131bc       ASN1_get_object            000241bc f   libeay32:asn1_lib.obj
 0001:00013314       ASN1_put_object            00024314 f   libeay32:asn1_lib.obj
 0001:00013428       ASN1_STRING_copy           00024428 f   libeay32:asn1_lib.obj
 0001:00013474       ASN1_STRING_new            00024474 f   libeay32:asn1_lib.obj
 0001:00013488       ASN1_STRING_dup            00024488 f   libeay32:asn1_lib.obj
 0001:000135a8       OBJ_NAME_init              000245a8 f   libeay32:o_names.obj
 0001:00013610       OBJ_NAME_get               00024610 f   libeay32:o_names.obj
 0001:000136f4       OBJ_find_sigid_algs        000246f4 f   libeay32:obj_xref.obj
 0001:00013794       OBJ_find_sigid_by_algs     00024794 f   libeay32:obj_xref.obj
 0001:00013860       EVP_PBE_find               00024860 f   libeay32:evp_pbe.obj
 0001:00013924       EVP_PBE_CipherInit         00024924 f   libeay32:evp_pbe.obj
 0001:00013adc       CMAC_CTX_new               00024adc f   libeay32:cmac.obj
 0001:00013b1c       CMAC_CTX_cleanup           00024b1c f   libeay32:cmac.obj
 0001:00013b68       CMAC_CTX_free              00024b68 f   libeay32:cmac.obj
 0001:00013b84       CMAC_CTX_copy              00024b84 f   libeay32:cmac.obj
 0001:00013c14       CMAC_Init                  00024c14 f   libeay32:cmac.obj
 0001:00013e90       CMAC_Update                00024e90 f   libeay32:cmac.obj
 0001:00013f74       CMAC_Final                 00024f74 f   libeay32:cmac.obj
 0001:00014074       X509V3_add_value           00025074 f   libeay32:v3_utl.obj
 0001:0001416c       X509V3_add_value_uchar     0002516c f   libeay32:v3_utl.obj
 0001:0001417c       X509V3_conf_free           0002517c f   libeay32:v3_utl.obj
 0001:000141c8       X509V3_add_value_bool      000251c8 f   libeay32:v3_utl.obj
 0001:000141ec       i2s_ASN1_ENUMERATED        000251ec f   libeay32:v3_utl.obj
 0001:0001425c       i2s_ASN1_INTEGER           0002525c f   libeay32:v3_utl.obj
 0001:000142cc       s2i_ASN1_INTEGER           000252cc f   libeay32:v3_utl.obj
 0001:0001441c       X509V3_add_value_int       0002541c f   libeay32:v3_utl.obj
 0001:00014470       X509V3_get_value_bool      00025470 f   libeay32:v3_utl.obj
 0001:0001462c       X509V3_get_value_int       0002562c f   libeay32:v3_utl.obj
 0001:00014740       hex_to_string              00025740 f   libeay32:v3_utl.obj
 0001:00014800       string_to_hex              00025800 f   libeay32:v3_utl.obj
 0001:000149c8       name_cmp                   000259c8 f   libeay32:v3_utl.obj
 0001:00014aac       X509V3_NAME_from_section   00025aac f   libeay32:v3_utl.obj
 0001:00014b94       X509V3_parse_list          00025b94 f   libeay32:v3_utl.obj
 0001:00015004       a2i_ipadd                  00026004 f   libeay32:v3_utl.obj
 0001:00015068       a2i_IPADDRESS              00026068 f   libeay32:v3_utl.obj
 0001:000150c4       a2i_IPADDRESS_NC           000260c4 f   libeay32:v3_utl.obj
 0001:00015190       HMAC_Init_ex               00026190 f   libeay32:hmac.obj
 0001:00015388       HMAC_Update                00026388 f   libeay32:hmac.obj
 0001:0001539c       HMAC_Final                 0002639c f   libeay32:hmac.obj
 0001:00015424       HMAC_CTX_init              00026424 f   libeay32:hmac.obj
 0001:0001544c       HMAC_CTX_copy              0002644c f   libeay32:hmac.obj
 0001:000154cc       HMAC_CTX_cleanup           000264cc f   libeay32:hmac.obj
 0001:00015504       HMAC_CTX_set_flags         00026504 f   libeay32:hmac.obj
 0001:00015538       HMAC_Init                  00026538 f   libeay32:hmac.obj
 0001:0001559c       HMAC                       0002659c f   libeay32:hmac.obj
 0001:00015648       ASN1_OCTET_STRING_dup      00026648 f   libeay32:a_octet.obj
 0001:00015658       ASN1_OCTET_STRING_set      00026658 f   libeay32:a_octet.obj
 0001:00015668       EC_GROUP_new               00026668 f   libeay32:ec_lib.obj
 0001:00015768       EC_GROUP_method_of         00026768 f   libeay32:ec_lib.obj
 0001:00015770       EC_METHOD_get_field_type   00026770 f   libeay32:ec_lib.obj
 0001:00015778       EC_GROUP_get0_generator    00026778 f   libeay32:ec_lib.obj
 0001:00015780       EC_GROUP_get_order         00026780 f   libeay32:ec_lib.obj
 0001:000157b4       EC_GROUP_get_cofactor      000267b4 f   libeay32:ec_lib.obj
 0001:000157ec       EC_GROUP_set_curve_name    000267ec f   libeay32:ec_lib.obj
 0001:000157f4       EC_GROUP_get_curve_name    000267f4 f   libeay32:ec_lib.obj
 0001:000157fc       EC_GROUP_set_asn1_flag     000267fc f   libeay32:ec_lib.obj
 0001:00015804       EC_GROUP_get_asn1_flag     00026804 f   libeay32:ec_lib.obj
 0001:0001580c       EC_GROUP_set_point_conversion_form 0002680c f   libeay32:ec_lib.obj
 0001:00015814       EC_GROUP_get_point_conversion_form 00026814 f   libeay32:ec_lib.obj
 0001:0001581c       EC_GROUP_set_seed          0002681c f   libeay32:ec_lib.obj
 0001:000158a8       EC_GROUP_get0_seed         000268a8 f   libeay32:ec_lib.obj
 0001:000158b0       EC_GROUP_get_seed_len      000268b0 f   libeay32:ec_lib.obj
 0001:000158b8       EC_GROUP_set_curve_GFp     000268b8 f   libeay32:ec_lib.obj
 0001:00015920       EC_GROUP_get_curve_GFp     00026920 f   libeay32:ec_lib.obj
 0001:00015988       EC_GROUP_set_curve_GF2m    00026988 f   libeay32:ec_lib.obj
 0001:000159f0       EC_GROUP_get_curve_GF2m    000269f0 f   libeay32:ec_lib.obj
 0001:00015a54       EC_GROUP_get_degree        00026a54 f   libeay32:ec_lib.obj
 0001:00015aac       EC_EX_DATA_set_data        00026aac f   libeay32:ec_lib.obj
 0001:00015b88       EC_EX_DATA_get_data        00026b88 f   libeay32:ec_lib.obj
 0001:00015bdc       EC_EX_DATA_free_data       00026bdc f   libeay32:ec_lib.obj
 0001:00015c64       EC_EX_DATA_free_all_data   00026c64 f   libeay32:ec_lib.obj
 0001:00015cb4       EC_EX_DATA_clear_free_all_data 00026cb4 f   libeay32:ec_lib.obj
 0001:00015d04       EC_POINT_new               00026d04 f   libeay32:ec_lib.obj
 0001:00015de4       EC_POINT_free              00026de4 f   libeay32:ec_lib.obj
 0001:00015e18       EC_POINT_clear_free        00026e18 f   libeay32:ec_lib.obj
 0001:00015e74       EC_POINT_copy              00026e74 f   libeay32:ec_lib.obj
 0001:00015f08       EC_POINT_dup               00026f08 f   libeay32:ec_lib.obj
 0001:00015f50       EC_POINT_set_to_infinity   00026f50 f   libeay32:ec_lib.obj
 0001:00015fdc       EC_POINT_set_Jprojective_coordinates_GFp 00026fdc f   libeay32:ec_lib.obj
 0001:00016090       EC_POINT_set_affine_coordinates_GFp 00027090 f   libeay32:ec_lib.obj
 0001:00016130       EC_POINT_set_affine_coordinates_GF2m 00027130 f   libeay32:ec_lib.obj
 0001:000161d4       EC_POINT_get_affine_coordinates_GFp 000271d4 f   libeay32:ec_lib.obj
 0001:00016278       EC_POINT_get_affine_coordinates_GF2m 00027278 f   libeay32:ec_lib.obj
 0001:00016318       EC_POINT_add               00027318 f   libeay32:ec_lib.obj
 0001:000163d4       EC_POINT_dbl               000273d4 f   libeay32:ec_lib.obj
 0001:00016474       EC_POINT_invert            00027474 f   libeay32:ec_lib.obj
 0001:00016500       EC_POINT_is_at_infinity    00027500 f   libeay32:ec_lib.obj
 0001:00016588       EC_POINT_is_on_curve       00027588 f   libeay32:ec_lib.obj
 0001:00016610       EC_POINT_cmp               00027610 f   libeay32:ec_lib.obj
 0001:000166b0       EC_POINT_make_affine       000276b0 f   libeay32:ec_lib.obj
 0001:00016738       EC_POINTs_make_affine      00027738 f   libeay32:ec_lib.obj
 0001:00016800       EC_POINTs_mul              00027800 f   libeay32:ec_lib.obj
 0001:0001687c       EC_POINT_mul               0002787c f   libeay32:ec_lib.obj
 0001:000168d0       EC_GROUP_have_precompute_mult 000278d0 f   libeay32:ec_lib.obj
 0001:00016918       EC_GROUP_free              00027918 f   libeay32:ec_lib.obj
 0001:00016984       EC_GROUP_clear_free        00027984 f   libeay32:ec_lib.obj
 0001:00016a28       EC_GROUP_copy              00027a28 f   libeay32:ec_lib.obj
 0001:00016c3c       EC_GROUP_dup               00027c3c f   libeay32:ec_lib.obj
 0001:00016c84       EC_GROUP_set_generator     00027c84 f   libeay32:ec_lib.obj
 0001:00016d64       EC_GROUP_cmp               00027d64 f   libeay32:ec_lib.obj
 0001:00016fd0       ECDSA_do_sign_ex           00027fd0 f   libeay32:ecs_sign.obj
 0001:00017030       ECDSA_sign_ex              00028030 f   libeay32:ecs_sign.obj
 0001:000170b8       ECDSA_sign_setup           000280b8 f   libeay32:ecs_sign.obj
 0001:00017108       ECDSA_sign                 00028108 f   libeay32:ecs_sign.obj
 0001:00017294       ecdsa_check                00028294 f   libeay32:ecs_lib.obj
 0001:00017310       ECDSA_size                 00028310 f   libeay32:ecs_lib.obj
 0001:000173c8       ECDSA_do_verify            000283c8 f   libeay32:ecs_vrf.obj
 0001:0001741c       ECDSA_verify               0002841c f   libeay32:ecs_vrf.obj
 0001:00017494       ECDH_compute_key           00028494 f   libeay32:ech_key.obj
 0001:000174f4       EC_KEY_new                 000284f4 f   libeay32:ec_key.obj
 0001:00017578       EC_KEY_free                00028578 f   libeay32:ec_key.obj
 0001:00017608       EC_KEY_generate_key        00028608 f   libeay32:ec_key.obj
 0001:00017764       EC_KEY_get0_group          00028764 f   libeay32:ec_key.obj
 0001:0001776c       EC_KEY_set_group           0002876c f   libeay32:ec_key.obj
 0001:000177ac       EC_KEY_get0_private_key    000287ac f   libeay32:ec_key.obj
 0001:000177b4       EC_KEY_get0_public_key     000287b4 f   libeay32:ec_key.obj
 0001:000177bc       EC_KEY_set_public_key      000287bc f   libeay32:ec_key.obj
 0001:00017800       EC_KEY_get_enc_flags       00028800 f   libeay32:ec_key.obj
 0001:00017808       EC_KEY_set_enc_flags       00028808 f   libeay32:ec_key.obj
 0001:00017810       EC_KEY_get_conv_form       00028810 f   libeay32:ec_key.obj
 0001:00017818       EC_KEY_get_key_method_data 00028818 f   libeay32:ec_key.obj
 0001:00017884       EC_KEY_insert_key_method_data 00028884 f   libeay32:ec_key.obj
 0001:00017d44       EC_GROUP_new_by_curve_name 00028d44 f   libeay32:ec_curve.obj
 0001:00017e6c       d2i_DSA_SIG                00028e6c f   libeay32:dsa_asn1.obj
 0001:00017ee0       d2i_DSAPrivateKey          00028ee0 f   libeay32:dsa_asn1.obj
 0001:00017ef8       i2d_DSAPrivateKey          00028ef8 f   libeay32:dsa_asn1.obj
 0001:00017f10       d2i_DSAparams              00028f10 f   libeay32:dsa_asn1.obj
 0001:00017f28       i2d_DSAparams              00028f28 f   libeay32:dsa_asn1.obj
 0001:00017f40       dsa_pub_internal_it        00028f40 f   libeay32:dsa_asn1.obj
 0001:00017f4c       i2d_DSAPublicKey           00028f4c f   libeay32:dsa_asn1.obj
 0001:00017f64       DSA_sign                   00028f64 f   libeay32:dsa_asn1.obj
 0001:00017fe4       DSA_verify                 00028fe4 f   libeay32:dsa_asn1.obj
 0001:00018064       DSA_new_method             00029064 f   libeay32:dsa_lib.obj
 0001:00018214       DSA_free                   00029214 f   libeay32:dsa_lib.obj
 0001:00018308       DSA_size                   00029308 f   libeay32:dsa_lib.obj
 0001:0001836c       DSA_new                    0002936c f   libeay32:dsa_lib.obj
 0001:00018380       dsa_builtin_paramgen       00029380 f   libeay32:dsa_gen.obj
 0001:00018b14       evp_pkey_set_cb_translate  00029b14 f   libeay32:pmeth_gn.obj
 0001:00018c68       DSA_generate_key           00029c68 f   libeay32:dsa_key.obj
 0001:00018c98       DH_new_method              00029c98 f   libeay32:dh_lib.obj
 0001:00018e50       DH_free                    00029e50 f   libeay32:dh_lib.obj
 0001:00018f54       DH_size                    00029f54 f   libeay32:dh_lib.obj
 0001:00018f78       DH_new                     00029f78 f   libeay32:dh_lib.obj
 0001:00019170       DH_generate_parameters_ex  0002a170 f   libeay32:dh_gen.obj
 0001:000191a0       DH_generate_key            0002a1a0 f   libeay32:dh_key.obj
 0001:000191bc       DH_compute_key             0002a1bc f   libeay32:dh_key.obj
 0001:000191d8       DH_OpenSSL                 0002a1d8 f   libeay32:dh_key.obj
 0001:00019674       RSA_verify_PKCS1_PSS_mgf1  0002a674 f   libeay32:rsa_pss.obj
 0001:00019ba4       RSA_padding_add_PKCS1_PSS_mgf1 0002aba4 f   libeay32:rsa_pss.obj
 0001:00019ff8       RSA_padding_add_X931       0002aff8 f   libeay32:rsa_x931.obj
 0001:0001a0a4       RSA_padding_check_X931     0002b0a4 f   libeay32:rsa_x931.obj
 0001:0001a1cc       RSA_X931_hash_id           0002b1cc f   libeay32:rsa_x931.obj
 0001:0001a21c       RSA_sign_ASN1_OCTET_STRING 0002b21c f   libeay32:rsa_saos.obj
 0001:0001a32c       CMS_RecipientInfo_ktri_get0_algs 0002b32c f   libeay32:cms_env.obj
 0001:0001a688       cms_EnvelopedData_init_bio 0002b688 f   libeay32:cms_env.obj
 0001:0001a7ec       RSA_new_method             0002b7ec f   libeay32:rsa_lib.obj
 0001:0001a9d0       RSA_free                   0002b9d0 f   libeay32:rsa_lib.obj
 0001:0001ab04       RSA_new                    0002bb04 f   libeay32:rsa_lib.obj
 0001:0001b0d0       RSA_generate_key_ex        0002c0d0 f   libeay32:rsa_gen.obj
 0001:0001b118       EVP_PKEY_asn1_get_count    0002c118 f   libeay32:ameth_lib.obj
 0001:0001b148       EVP_PKEY_asn1_get0         0002c148 f   libeay32:ameth_lib.obj
 0001:0001b190       EVP_PKEY_asn1_find         0002c190 f   libeay32:ameth_lib.obj
 0001:0001b278       EVP_PKEY_asn1_find_str     0002c278 f   libeay32:ameth_lib.obj
 0001:0001b360       EVP_PKEY_asn1_free         0002c360 f   libeay32:ameth_lib.obj
 0001:0001b3a8       X509_ATTRIBUTE_SET_it      0002c3a8 f   libeay32:x_attrib.obj
 0001:0001b3b4       X509_ATTRIBUTE_it          0002c3b4 f   libeay32:x_attrib.obj
 0001:0001b3c0       X509_ATTRIBUTE_new         0002c3c0 f   libeay32:x_attrib.obj
 0001:0001b3d8       X509_ATTRIBUTE_free        0002c3d8 f   libeay32:x_attrib.obj
 0001:0001b3f0       X509_ATTRIBUTE_dup         0002c3f0 f   libeay32:x_attrib.obj
 0001:0001b40c       X509_ATTRIBUTE_create      0002c40c f   libeay32:x_attrib.obj
 0001:0001b928       BIO_new_file               0002c928 f   libeay32:bss_file.obj
 0001:0001bfc0       CRYPTO_new_ex_data         0002cfc0 f   libeay32:ex_data.obj
 0001:0001c00c       CRYPTO_free_ex_data        0002d00c f   libeay32:ex_data.obj
 0001:0001c058       CRYPTO_set_ex_data         0002d058 f   libeay32:ex_data.obj
 0001:0001c12c       CRYPTO_get_ex_data         0002d12c f   libeay32:ex_data.obj
 0001:0001c61c       ENGINE_get_pkey_asn1_meth_engine 0002d61c f   libeay32:tb_asnmth.obj
 0001:0001c638       engine_pkey_asn1_meths_free 0002d638 f   libeay32:tb_asnmth.obj
 0001:0001c774       ENGINE_pkey_asn1_find_str  0002d774 f   libeay32:tb_asnmth.obj
 0001:0001c814       ENGINE_get_pkey_asn1_meth  0002d814 f   libeay32:tb_asnmth.obj
 0001:0001c878       ASN1_INTEGER_cmp           0002d878 f   libeay32:a_int.obj
 0001:0001c8c0       i2c_ASN1_INTEGER           0002d8c0 f   libeay32:a_int.obj
 0001:0001ca14       c2i_ASN1_INTEGER           0002da14 f   libeay32:a_int.obj
 0001:0001cbd8       d2i_ASN1_UINTEGER          0002dbd8 f   libeay32:a_int.obj
 0001:0001cd48       ASN1_INTEGER_set           0002dd48 f   libeay32:a_int.obj
 0001:0001ce50       ASN1_INTEGER_get           0002de50 f   libeay32:a_int.obj
 0001:0001cee4       BN_to_ASN1_INTEGER         0002dee4 f   libeay32:a_int.obj
 0001:0001d00c       ASN1_INTEGER_to_BN         0002e00c f   libeay32:a_int.obj
 0001:0001d084       BN_nnmod                   0002e084 f   libeay32:bn_mod.obj
 0001:0001d104       BN_mod_add                 0002e104 f   libeay32:bn_mod.obj
 0001:0001d140       BN_mod_add_quick           0002e140 f   libeay32:bn_mod.obj
 0001:0001d198       BN_mod_sub_quick           0002e198 f   libeay32:bn_mod.obj
 0001:0001d1e8       BN_mod_mul                 0002e1e8 f   libeay32:bn_mod.obj
 0001:0001d278       BN_mod_sqr                 0002e278 f   libeay32:bn_mod.obj
 0001:0001d2bc       BN_mod_lshift1_quick       0002e2bc f   libeay32:bn_mod.obj
 0001:0001d314       BN_mod_lshift_quick        0002e314 f   libeay32:bn_mod.obj
 0001:0001d404       BN_mod_exp_recp            0002e404 f   libeay32:bn_exp.obj
 0001:0001d810       BN_mod_exp_mont_consttime  0002e810 f   libeay32:bn_exp.obj
 0001:0001ddb4       BN_mod_exp_mont_word       0002edb4 f   libeay32:bn_exp.obj
 0001:0001e1d4       BN_mod_exp_mont            0002f1d4 f   libeay32:bn_exp.obj
 0001:0001e634       BN_mod_exp                 0002f634 f   libeay32:bn_exp.obj
 0001:0001e8fc       BN_rand                    0002f8fc f   libeay32:bn_rand.obj
 0001:0001e92c       BN_pseudo_rand             0002f92c f   libeay32:bn_rand.obj
 0001:0001eb44       BN_rand_range              0002fb44 f   libeay32:bn_rand.obj
 0001:0001eb60       BN_pseudo_rand_range       0002fb60 f   libeay32:bn_rand.obj
 0001:0001eb7c       BN_div                     0002fb7c f   libeay32:bn_div.obj
 0001:0001f130       bn_mul_add_words           00030130 f   libeay32:bn_asm.obj
 0001:0001f188       bn_mul_words               00030188 f   libeay32:bn_asm.obj
 0001:0001f1d4       bn_sqr_words               000301d4 f   libeay32:bn_asm.obj
 0001:0001f200       bn_div_words               00030200 f   libeay32:bn_asm.obj
 0001:0001f230       bn_add_words               00030230 f   libeay32:bn_asm.obj
 0001:0001f284       bn_sub_words               00030284 f   libeay32:bn_asm.obj
 0001:0001f2e4       RAND_SSLeay                000302e4 f   libeay32:md_rand.obj
 0001:0001fcec       ENGINE_get_default_RAND    00030cec f   libeay32:tb_rand.obj
 0001:0001fd08       ENGINE_get_RAND            00030d08 f   libeay32:tb_rand.obj
 0001:0001fd10       ASN1_item_dup              00030d10 f   libeay32:a_dup.obj
 0001:0001fda4       ASN1_BIT_STRING_set        00030da4 f   libeay32:a_bitstr.obj
 0001:0001fdb4       i2c_ASN1_BIT_STRING        00030db4 f   libeay32:a_bitstr.obj
 0001:0001feb8       c2i_ASN1_BIT_STRING        00030eb8 f   libeay32:a_bitstr.obj
 0001:0001fffc       ASN1_BIT_STRING_set_bit    00030ffc f   libeay32:a_bitstr.obj
 0001:0002014c       ASN1_BIT_STRING_get_bit    0003114c f   libeay32:a_bitstr.obj
 0001:000201a8       BUF_MEM_new                000311a8 f   libeay32:buffer.obj
 0001:0002020c       BUF_MEM_free               0003120c f   libeay32:buffer.obj
 0001:0002024c       BUF_MEM_grow               0003124c f   libeay32:buffer.obj
 0001:00020354       BUF_MEM_grow_clean         00031354 f   libeay32:buffer.obj
 0001:00020470       asn1_get_choice_selector   00031470 f   libeay32:tasn_utl.obj
 0001:00020480       asn1_set_choice_selector   00031480 f   libeay32:tasn_utl.obj
 0001:0002049c       asn1_do_lock               0003149c f   libeay32:tasn_utl.obj
 0001:00020520       asn1_enc_init              00031520 f   libeay32:tasn_utl.obj
 0001:00020578       asn1_enc_free              00031578 f   libeay32:tasn_utl.obj
 0001:000205ec       asn1_enc_save              000315ec f   libeay32:tasn_utl.obj
 0001:00020698       asn1_enc_restore           00031698 f   libeay32:tasn_utl.obj
 0001:00020740       asn1_get_field_ptr         00031740 f   libeay32:tasn_utl.obj
 0001:00020758       asn1_do_adb                00031758 f   libeay32:tasn_utl.obj
 0001:00020850       PKCS5_PBKDF2_HMAC          00031850 f   libeay32:p5_crpt2.obj
 0001:00020a18       PKCS5_v2_PBKDF2_keyivgen   00031a18 f   libeay32:p5_crpt2.obj
 0001:00020cb8       PKCS5_v2_PBE_keyivgen      00031cb8 f   libeay32:p5_crpt2.obj
 0001:00020e74       PKCS12_PBE_keyivgen        00031e74 f   libeay32:p12_crpt.obj
 0001:00021068       PKCS5_PBE_keyivgen         00032068 f   libeay32:p5_crpt.obj
 0001:00021320       EVP_CIPHER_CTX_init        00032320 f   libeay32:evp_enc.obj
 0001:00021338       EVP_EncryptUpdate          00032338 f   libeay32:evp_enc.obj
 0001:00021528       EVP_EncryptFinal_ex        00032528 f   libeay32:evp_enc.obj
 0001:00021654       EVP_DecryptUpdate          00032654 f   libeay32:evp_enc.obj
 0001:000217d0       EVP_DecryptFinal_ex        000327d0 f   libeay32:evp_enc.obj
 0001:000219a8       EVP_CIPHER_CTX_cleanup     000329a8 f   libeay32:evp_enc.obj
 0001:00021a34       EVP_CIPHER_CTX_set_padding 00032a34 f   libeay32:evp_enc.obj
 0001:00021a50       EVP_CIPHER_CTX_ctrl        00032a50 f   libeay32:evp_enc.obj
 0001:00021b00       EVP_CIPHER_CTX_rand_key    00032b00 f   libeay32:evp_enc.obj
 0001:00021b54       EVP_CIPHER_CTX_copy        00032b54 f   libeay32:evp_enc.obj
 0001:00021ca4       EVP_CipherInit_ex          00032ca4 f   libeay32:evp_enc.obj
 0001:00022004       EVP_CipherUpdate           00033004 f   libeay32:evp_enc.obj
 0001:00022048       EVP_CipherFinal_ex         00033048 f   libeay32:evp_enc.obj
 0001:00022070       EVP_EncryptInit_ex         00033070 f   libeay32:evp_enc.obj
 0001:00022098       EVP_DecryptInit_ex         00033098 f   libeay32:evp_enc.obj
 0001:000220c0       EVP_CIPHER_CTX_set_key_length 000330c0 f   libeay32:evp_enc.obj
 0001:00022148       ASN1_ENUMERATED_get        00033148 f   libeay32:a_enum.obj
 0001:000221dc       ASN1_ENUMERATED_to_BN      000331dc f   libeay32:a_enum.obj
 0001:00022250       X509_NAME_entry_count      00033250 f   libeay32:x509name.obj
 0001:00022274       X509_NAME_get_index_by_OBJ 00033274 f   libeay32:x509name.obj
 0001:000222e0       X509_NAME_get_entry        000332e0 f   libeay32:x509name.obj
 0001:00022328       X509_NAME_delete_entry     00033328 f   libeay32:x509name.obj
 0001:000223fc       X509_NAME_add_entry        000333fc f   libeay32:x509name.obj
 0001:00022568       X509_NAME_ENTRY_set_object 00033568 f   libeay32:x509name.obj
 0001:000225dc       X509_NAME_ENTRY_set_data   000335dc f   libeay32:x509name.obj
 0001:000226bc       X509_NAME_ENTRY_get_object 000336bc f   libeay32:x509name.obj
 0001:000226cc       X509_NAME_ENTRY_get_data   000336cc f   libeay32:x509name.obj
 0001:000226dc       X509_NAME_get_index_by_NID 000336dc f   libeay32:x509name.obj
 0001:00022718       X509_NAME_ENTRY_create_by_OBJ 00033718 f   libeay32:x509name.obj
 0001:000227c4       X509_NAME_ENTRY_create_by_txt 000337c4 f   libeay32:x509name.obj
 0001:00022868       X509_NAME_add_entry_by_txt 00033868 f   libeay32:x509name.obj
 0001:000228c0       ACCESS_DESCRIPTION_it      000338c0 f   libeay32:v3_info.obj
 0001:000228cc       ACCESS_DESCRIPTION_free    000338cc f   libeay32:v3_info.obj
 0001:000228e4       AUTHORITY_INFO_ACCESS_it   000338e4 f   libeay32:v3_info.obj
 0001:00022c38       X509_CRL_get_ext_d2i       00033c38 f   libeay32:x509_ext.obj
 0001:00022c50       X509_get_ext_count         00033c50 f   libeay32:x509_ext.obj
 0001:00022c68       X509_get_ext_by_NID        00033c68 f   libeay32:x509_ext.obj
 0001:00022c80       X509_get_ext               00033c80 f   libeay32:x509_ext.obj
 0001:00022c98       X509_get_ext_d2i           00033c98 f   libeay32:x509_ext.obj
 0001:00022cb0       X509_REVOKED_get_ext_d2i   00033cb0 f   libeay32:x509_ext.obj
 0001:00022cc4       CONF_parse_list            00033cc4 f   libeay32:conf_mod.obj
 0001:00022df0       OTHERNAME_it               00033df0 f   libeay32:v3_genn.obj
 0001:00022dfc       OTHERNAME_new              00033dfc f   libeay32:v3_genn.obj
 0001:00022e14       EDIPARTYNAME_it            00033e14 f   libeay32:v3_genn.obj
 0001:00022e20       GENERAL_NAME_it            00033e20 f   libeay32:v3_genn.obj
 0001:00022e2c       GENERAL_NAME_new           00033e2c f   libeay32:v3_genn.obj
 0001:00022e44       GENERAL_NAME_free          00033e44 f   libeay32:v3_genn.obj
 0001:00022e5c       GENERAL_NAMES_it           00033e5c f   libeay32:v3_genn.obj
 0001:00022e68       GENERAL_NAMES_new          00033e68 f   libeay32:v3_genn.obj
 0001:00022e80       GENERAL_NAMES_free         00033e80 f   libeay32:v3_genn.obj
 0001:00022e98       X509_get_issuer_name       00033e98 f   libeay32:x509_cmp.obj
 0001:00022ea4       X509_get_subject_name      00033ea4 f   libeay32:x509_cmp.obj
 0001:00022eb0       X509_get_serialNumber      00033eb0 f   libeay32:x509_cmp.obj
 0001:00022ebc       X509_NAME_cmp              00033ebc f   libeay32:x509_cmp.obj
 0001:00022f4c       X509_get_pubkey            00033f4c f   libeay32:x509_cmp.obj
 0001:00022f80       X509_EXTENSION_it          00033f80 f   libeay32:x_exten.obj
 0001:00022fa4       X509V3_EXT_get_nid         00033fa4 f   libeay32:v3_lib.obj
 0001:00023034       X509V3_EXT_d2i             00034034 f   libeay32:v3_lib.obj
 0001:000230c4       X509V3_get_d2i             000340c4 f   libeay32:v3_lib.obj
 0001:000235d0       ec_wNAF_mul                000345d0 f   libeay32:ec_mult.obj
 0001:00024178       ec_wNAF_precompute_mult    00035178 f   libeay32:ec_mult.obj
 0001:00024684       ec_wNAF_have_precompute_mult 00035684 f   libeay32:ec_mult.obj
 0001:000246c0       d2i_ECDSA_SIG              000356c0 f   libeay32:ecs_asn1.obj
 0001:000246d8       i2d_ECDSA_SIG              000356d8 f   libeay32:ecs_asn1.obj
 0001:000246f0       ECDSA_SIG_new              000356f0 f   libeay32:ecs_asn1.obj
 0001:00024708       ECDSA_SIG_free             00035708 f   libeay32:ecs_asn1.obj
 0001:00024720       ECDSA_OpenSSL              00035720 f   libeay32:ecs_ossl.obj
 0001:000253e4       ENGINE_get_default_ECDSA   000363e4 f   libeay32:tb_ecdsa.obj
 0001:00025400       ENGINE_get_ECDSA           00036400 f   libeay32:tb_ecdsa.obj
 0001:00025560       ecdh_check                 00036560 f   libeay32:ech_lib.obj
 0001:000255dc       EC_GROUP_new_curve_GFp     000365dc f   libeay32:ec_cvt.obj
 0001:000256a8       EC_GROUP_new_curve_GF2m    000366a8 f   libeay32:ec_cvt.obj
 0001:0002570c       BIGNUM_it                  0003670c f   libeay32:x_bignum.obj
 0001:00025718       CBIGNUM_it                 00036718 f   libeay32:x_bignum.obj
 0001:00025858       LONG_it                    00036858 f   libeay32:x_long.obj
 0001:00025864       ZLONG_it                   00036864 f   libeay32:x_long.obj
 0001:00025a58       DSA_do_sign                00036a58 f   libeay32:dsa_sign.obj
 0001:00025a74       DSA_sign_setup             00036a74 f   libeay32:dsa_sign.obj
 0001:00025a90       DSA_SIG_new                00036a90 f   libeay32:dsa_sign.obj
 0001:00025ac8       DSA_SIG_free               00036ac8 f   libeay32:dsa_sign.obj
 0001:00025b04       DSA_do_verify              00036b04 f   libeay32:dsa_vrf.obj
 0001:00025b20       DSA_OpenSSL                00036b20 f   libeay32:dsa_ossl.obj
 0001:00026368       ENGINE_get_default_DSA     00037368 f   libeay32:tb_dsa.obj
 0001:00026384       ENGINE_get_DSA             00037384 f   libeay32:tb_dsa.obj
 0001:00026634       BN_from_montgomery         00037634 f   libeay32:bn_mont.obj
 0001:000266a0       BN_MONT_CTX_init           000376a0 f   libeay32:bn_mont.obj
 0001:000266d8       BN_MONT_CTX_free           000376d8 f   libeay32:bn_mont.obj
 0001:00026714       BN_MONT_CTX_set            00037714 f   libeay32:bn_mont.obj
 0001:000268dc       BN_MONT_CTX_copy           000378dc f   libeay32:bn_mont.obj
 0001:00026958       BN_mod_mul_montgomery      00037958 f   libeay32:bn_mont.obj
 0001:000269e4       BN_MONT_CTX_new            000379e4 f   libeay32:bn_mont.obj
 0001:00026a28       BN_MONT_CTX_set_locked     00037a28 f   libeay32:bn_mont.obj
 0001:00026b00       BN_GENCB_call              00037b00 f   libeay32:bn_prime.obj
 0001:00026f64       BN_is_prime_fasttest_ex    00037f64 f   libeay32:bn_prime.obj
 0001:00027358       BN_generate_prime_ex       00038358 f   libeay32:bn_prime.obj
 0001:000276c0       ENGINE_get_default_DH      000386c0 f   libeay32:tb_dh.obj
 0001:000276dc       ENGINE_get_DH              000386dc f   libeay32:tb_dh.obj
 0001:000276e4       DH_check_pub_key           000386e4 f   libeay32:dh_check.obj
 0001:00027780       PKCS1_MGF1                 00038780 f   libeay32:rsa_oaep.obj
 0001:000278a8       RSA_padding_add_PKCS1_OAEP 000388a8 f   libeay32:rsa_oaep.obj
 0001:00027aa0       RSA_padding_check_PKCS1_OAEP 00038aa0 f   libeay32:rsa_oaep.obj
 0001:00027d10       CMS_IssuerAndSerialNumber_it 00038d10 f   libeay32:cms_asn1.obj
 0001:00027d1c       CMS_OtherCertificateFormat_it 00038d1c f   libeay32:cms_asn1.obj
 0001:00027d28       CMS_CertificateChoices_it  00038d28 f   libeay32:cms_asn1.obj
 0001:00027d34       CMS_SignerIdentifier_it    00038d34 f   libeay32:cms_asn1.obj
 0001:00027d40       CMS_EncapsulatedContentInfo_it 00038d40 f   libeay32:cms_asn1.obj
 0001:00027d88       CMS_SignerInfo_it          00038d88 f   libeay32:cms_asn1.obj
 0001:00027d94       CMS_OtherRevocationInfoFormat_it 00038d94 f   libeay32:cms_asn1.obj
 0001:00027da0       CMS_RevocationInfoChoice_it 00038da0 f   libeay32:cms_asn1.obj
 0001:00027dac       CMS_SignedData_it          00038dac f   libeay32:cms_asn1.obj
 0001:00027db8       CMS_OriginatorInfo_it      00038db8 f   libeay32:cms_asn1.obj
 0001:00027dc4       CMS_EncryptedContentInfo_it 00038dc4 f   libeay32:cms_asn1.obj
 0001:00027dd0       CMS_KeyTransRecipientInfo_it 00038dd0 f   libeay32:cms_asn1.obj
 0001:00027ddc       CMS_OtherKeyAttribute_it   00038ddc f   libeay32:cms_asn1.obj
 0001:00027de8       CMS_RecipientKeyIdentifier_it 00038de8 f   libeay32:cms_asn1.obj
 0001:00027df4       CMS_KeyAgreeRecipientIdentifier_it 00038df4 f   libeay32:cms_asn1.obj
 0001:00027e00       CMS_RecipientEncryptedKey_it 00038e00 f   libeay32:cms_asn1.obj
 0001:00027e0c       CMS_OriginatorPublicKey_it 00038e0c f   libeay32:cms_asn1.obj
 0001:00027e18       CMS_OriginatorIdentifierOrKey_it 00038e18 f   libeay32:cms_asn1.obj
 0001:00027e24       CMS_KeyAgreeRecipientInfo_it 00038e24 f   libeay32:cms_asn1.obj
 0001:00027e30       CMS_KEKIdentifier_it       00038e30 f   libeay32:cms_asn1.obj
 0001:00027e3c       CMS_KEKRecipientInfo_it    00038e3c f   libeay32:cms_asn1.obj
 0001:00027e48       CMS_PasswordRecipientInfo_it 00038e48 f   libeay32:cms_asn1.obj
 0001:00027e54       CMS_OtherRecipientInfo_it  00038e54 f   libeay32:cms_asn1.obj
 0001:00027ee8       CMS_RecipientInfo_it       00038ee8 f   libeay32:cms_asn1.obj
 0001:00027ef4       CMS_EnvelopedData_it       00038ef4 f   libeay32:cms_asn1.obj
 0001:00027f00       CMS_DigestedData_it        00038f00 f   libeay32:cms_asn1.obj
 0001:00027f0c       CMS_EncryptedData_it       00038f0c f   libeay32:cms_asn1.obj
 0001:00027f18       CMS_AuthenticatedData_it   00038f18 f   libeay32:cms_asn1.obj
 0001:00027f24       CMS_CompressedData_it      00038f24 f   libeay32:cms_asn1.obj
 0001:00027fc8       CMS_Attributes_Sign_it     00038fc8 f   libeay32:cms_asn1.obj
 0001:00027fd4       CMS_ReceiptsFrom_it        00038fd4 f   libeay32:cms_asn1.obj
 0001:00027fe0       CMS_get0_content           00038fe0 f   libeay32:cms_lib.obj
 0001:000280d0       cms_DigestAlgorithm_init_bio 000390d0 f   libeay32:cms_lib.obj
 0001:00028198       cms_DigestAlgorithm_find_ctx 00039198 f   libeay32:cms_lib.obj
 0001:00028268       cms_content_bio            00039268 f   libeay32:cms_lib.obj
 0001:000282c4       CMS_dataInit               000392c4 f   libeay32:cms_lib.obj
 0001:000283c8       CMS_dataFinal              000393c8 f   libeay32:cms_lib.obj
 0001:00028530       cms_EncryptedContent_init_bio 00039530 f   libeay32:cms_enc.obj
 0001:000288f0       cms_EncryptedData_init_bio 000398f0 f   libeay32:cms_enc.obj
 0001:00028af8       CMS_SignerInfo_get0_algs   00039af8 f   libeay32:cms_sd.obj
 0001:00028b38       CMS_SignerInfo_sign        00039b38 f   libeay32:cms_sd.obj
 0001:00028d84       cms_SignedData_init_bio    00039d84 f   libeay32:cms_sd.obj
 0001:00028fe8       cms_SignedData_final       00039fe8 f   libeay32:cms_sd.obj
 0001:00029078       X509_PURPOSE_get0          0003a078 f   libeay32:v3_purp.obj
 0001:000290c4       X509_PURPOSE_get_by_id     0003a0c4 f   libeay32:v3_purp.obj
 0001:0002912c       X509_supported_extension   0003a12c f   libeay32:v3_purp.obj
 0001:00029ba4       X509_check_purpose         0003aba4 f   libeay32:v3_purp.obj
 0001:00029c3c       EVP_PKEY_sign_init         0003ac3c f   libeay32:pmeth_fn.obj
 0001:00029ccc       EVP_PKEY_sign              0003accc f   libeay32:pmeth_fn.obj
 0001:00029de0       EVP_PKEY_verify_init       0003ade0 f   libeay32:pmeth_fn.obj
 0001:00029e70       EVP_PKEY_verify            0003ae70 f   libeay32:pmeth_fn.obj
 0001:00029f14       EVP_PKEY_encrypt_init      0003af14 f   libeay32:pmeth_fn.obj
 0001:00029fa4       EVP_PKEY_encrypt           0003afa4 f   libeay32:pmeth_fn.obj
 0001:0002a0b8       AES_wrap_key               0003b0b8 f   libeay32:aes_wrap.obj
 0001:0002a1d4       AES_set_encrypt_key        0003b1d4 f   libeay32:aes_misc.obj
 0001:0002a464       cms_RecipientInfo_pwri_crypt 0003b464 f   libeay32:cms_pwri.obj
 0001:0002a7d4       RSA_PKCS1_SSLeay           0003b7d4 f   libeay32:rsa_eay.obj
 0001:0002bff4       ENGINE_get_default_RSA     0003cff4 f   libeay32:tb_rsa.obj
 0001:0002c010       ENGINE_get_RSA             0003d010 f   libeay32:tb_rsa.obj
 0001:0002fad0       bn_sqr_normal              00040ad0 f   libeay32:bn_sqr.obj
 0001:0002fbbc       BN_sqr                     00040bbc f   libeay32:bn_sqr.obj
 0001:0002fcf4       BN_RECP_CTX_init           00040cf4 f   libeay32:bn_recp.obj
 0001:0002fd1c       BN_RECP_CTX_free           00040d1c f   libeay32:bn_recp.obj
 0001:0002fd50       BN_RECP_CTX_set            00040d50 f   libeay32:bn_recp.obj
 0001:0002fd9c       BN_reciprocal              00040d9c f   libeay32:bn_recp.obj
 0001:0002fe1c       BN_div_recp                00040e1c f   libeay32:bn_recp.obj
 0001:00030078       BN_mod_mul_reciprocal      00041078 f   libeay32:bn_recp.obj
 0001:000301a0       RAND_poll                  000411a0 f   libeay32:rand_win.obj
 0001:00030278       d2i_PBE2PARAM              00041278 f   libeay32:p5_pbev2.obj
 0001:00030290       PBE2PARAM_free             00041290 f   libeay32:p5_pbev2.obj
 0001:000302a8       d2i_PBKDF2PARAM            000412a8 f   libeay32:p5_pbev2.obj
 0001:000302c0       PBKDF2PARAM_free           000412c0 f   libeay32:p5_pbev2.obj
 0001:000302d8       d2i_PBEPARAM               000412d8 f   libeay32:p5_pbe.obj
 0001:000302f0       PBEPARAM_free              000412f0 f   libeay32:p5_pbe.obj
 0001:00030308       PKCS12_key_gen_uni         00041308 f   libeay32:p12_key.obj
 0001:00030808       PKCS12_key_gen_asc         00041808 f   libeay32:p12_key.obj
 0001:000308e0       ENGINE_get_cipher_engine   000418e0 f   libeay32:tb_cipher.obj
 0001:000308fc       ENGINE_get_cipher          000418fc f   libeay32:tb_cipher.obj
 0001:00030960       X509_NAME_ENTRY_it         00041960 f   libeay32:x_name.obj
 0001:0003096c       X509_NAME_ENTRY_new        0004196c f   libeay32:x_name.obj
 0001:00030984       X509_NAME_ENTRY_free       00041984 f   libeay32:x_name.obj
 0001:0003099c       X509_NAME_ENTRY_dup        0004199c f   libeay32:x_name.obj
 0001:000309b8       X509_NAME_ENTRIES_it       000419b8 f   libeay32:x_name.obj
 0001:000309c4       X509_NAME_it               000419c4 f   libeay32:x_name.obj
 0001:000309d0       i2d_X509_NAME              000419d0 f   libeay32:x_name.obj
 0001:000309e8       X509_NAME_new              000419e8 f   libeay32:x_name.obj
 0001:00030a00       X509_NAME_free             00041a00 f   libeay32:x_name.obj
 0001:00030a18       X509_NAME_dup              00041a18 f   libeay32:x_name.obj
 0001:000312a4       ASN1_PRINTABLE_type        000422a4 f   libeay32:a_print.obj
 0001:000313b8       ASN1_STRING_TABLE_get      000423b8 f   libeay32:a_strnid.obj
 0001:00031434       ASN1_STRING_set_by_NID     00042434 f   libeay32:a_strnid.obj
 0001:000314f4       i2v_GENERAL_NAME           000424f4 f   libeay32:v3_alt.obj
 0001:000316c4       GENERAL_NAME_print         000426c4 f   libeay32:v3_alt.obj
 0001:00031cc8       i2v_GENERAL_NAMES          00042cc8 f   libeay32:v3_alt.obj
 0001:00031d3c       a2i_GENERAL_NAME           00042d3c f   libeay32:v3_alt.obj
 0001:00031fc4       v2i_GENERAL_NAME_ex        00042fc4 f   libeay32:v3_alt.obj
 0001:00032138       v2i_GENERAL_NAME           00043138 f   libeay32:v3_alt.obj
 0001:000323f4       v2i_GENERAL_NAMES          000433f4 f   libeay32:v3_alt.obj
 0001:000324c4       X509v3_get_ext_count       000434c4 f   libeay32:x509_v3.obj
 0001:000324e4       X509v3_get_ext_by_OBJ      000434e4 f   libeay32:x509_v3.obj
 0001:00032548       X509v3_get_ext             00043548 f   libeay32:x509_v3.obj
 0001:00032590       X509_EXTENSION_get_object  00043590 f   libeay32:x509_v3.obj
 0001:000325a0       X509_EXTENSION_get_critical 000435a0 f   libeay32:x509_v3.obj
 0001:000325c0       X509v3_get_ext_by_NID      000435c0 f   libeay32:x509_v3.obj
 0001:000325fc       DSO_convert_filename       000435fc f   libeay32:dso_lib.obj
 0001:0003273c       CONF_set_nconf             0004373c f   libeay32:conf_lib.obj
 0001:00032780       NCONF_get_section          00043780 f   libeay32:conf_lib.obj
 0001:000327fc       NCONF_get_string           000437fc f   libeay32:conf_lib.obj
 0001:00032894       CONF_get_section           00043894 f   libeay32:conf_lib.obj
 0001:000328d0       CONF_get_string            000438d0 f   libeay32:conf_lib.obj
 0001:00032914       CONF_free                  00043914 f   libeay32:conf_lib.obj
 0001:0003298c       X509_NAME_oneline          0004398c f   libeay32:x509_obj.obj
 0001:00032d5c       X509_PUBKEY_it             00043d5c f   libeay32:x_pubkey.obj
 0001:00032d68       X509_PUBKEY_get            00043d68 f   libeay32:x_pubkey.obj
 0001:00032f18       X509_PUBKEY_set0_param     00043f18 f   libeay32:x_pubkey.obj
 0001:00032f98       X509_PUBKEY_get0_param     00043f98 f   libeay32:x_pubkey.obj
 0001:000332c0       DIST_POINT_NAME_it         000442c0 f   libeay32:v3_crld.obj
 0001:000332cc       DIST_POINT_it              000442cc f   libeay32:v3_crld.obj
 0001:000332d8       DIST_POINT_free            000442d8 f   libeay32:v3_crld.obj
 0001:000332f0       CRL_DIST_POINTS_it         000442f0 f   libeay32:v3_crld.obj
 0001:000332fc       CRL_DIST_POINTS_free       000442fc f   libeay32:v3_crld.obj
 0001:00033314       ISSUING_DIST_POINT_it      00044314 f   libeay32:v3_crld.obj
 0001:00033320       ISSUING_DIST_POINT_free    00044320 f   libeay32:v3_crld.obj
 0001:00033668       DIST_POINT_set_dpname      00044668 f   libeay32:v3_crld.obj
 0001:00033da4       POLICY_MAPPING_it          00044da4 f   libeay32:v3_pmaps.obj
 0001:00033db0       POLICY_MAPPINGS_it         00044db0 f   libeay32:v3_pmaps.obj
 0001:00033dbc       POLICY_MAPPING_free        00044dbc f   libeay32:v3_pmaps.obj
 0001:00034040       GENERAL_SUBTREE_it         00045040 f   libeay32:v3_ncons.obj
 0001:0003404c       NAME_CONSTRAINTS_it        0004504c f   libeay32:v3_ncons.obj
 0001:00034058       NAME_CONSTRAINTS_free      00045058 f   libeay32:v3_ncons.obj
 0001:00035410       POLICY_CONSTRAINTS_it      00046410 f   libeay32:v3_pcons.obj
 0001:000355d0       EXTENDED_KEY_USAGE_it      000465d0 f   libeay32:v3_extku.obj
 0001:00035770       SXNETID_it                 00046770 f   libeay32:v3_sxnet.obj
 0001:0003577c       SXNET_it                   0004677c f   libeay32:v3_sxnet.obj
 0001:00035858       SXNET_get_id_INTEGER       00046858 f   libeay32:v3_sxnet.obj
 0001:000358c8       SXNET_add_id_INTEGER       000468c8 f   libeay32:v3_sxnet.obj
 0001:00035a70       SXNET_add_id_asc           00046a70 f   libeay32:v3_sxnet.obj
 0001:00035b5c       i2s_ASN1_ENUMERATED_TABLE  00046b5c f   libeay32:v3_enum.obj
 0001:00035f50       CERTIFICATEPOLICIES_it     00046f50 f   libeay32:v3_cpols.obj
 0001:00035f5c       POLICYINFO_it              00046f5c f   libeay32:v3_cpols.obj
 0001:00035f68       POLICYINFO_free            00046f68 f   libeay32:v3_cpols.obj
 0001:00035f8c       POLICYQUALINFO_it          00046f8c f   libeay32:v3_cpols.obj
 0001:00035f98       POLICYQUALINFO_free        00046f98 f   libeay32:v3_cpols.obj
 0001:00035fb0       USERNOTICE_it              00046fb0 f   libeay32:v3_cpols.obj
 0001:00035fbc       NOTICEREF_it               00046fbc f   libeay32:v3_cpols.obj
 0001:00036c50       BASIC_CONSTRAINTS_it       00047c50 f   libeay32:v3_bcons.obj
 0001:00036c5c       BASIC_CONSTRAINTS_free     00047c5c f   libeay32:v3_bcons.obj
 0001:00036e00       PKEY_USAGE_PERIOD_it       00047e00 f   libeay32:v3_pku.obj
 0001:00036ebc       i2v_ASN1_BIT_STRING        00047ebc f   libeay32:v3_bitst.obj
 0001:00036f20       v2i_ASN1_BIT_STRING        00047f20 f   libeay32:v3_bitst.obj
 0001:000370a0       i2s_ASN1_OCTET_STRING      000480a0 f   libeay32:v3_skey.obj
 0001:000370bc       s2i_ASN1_OCTET_STRING      000480bc f   libeay32:v3_skey.obj
 0001:000373e8       X509V3_get_section         000483e8 f   libeay32:v3_conf.obj
 0001:00037458       X509V3_section_free        00048458 f   libeay32:v3_conf.obj
 0001:000374f4       X509_REQ_INFO_it           000484f4 f   libeay32:x_req.obj
 0001:00037500       X509_digest                00048500 f   libeay32:x_all.obj
 0001:0003753c       X509_CRL_digest            0004853c f   libeay32:x_all.obj
 0001:00037578       X509at_get_attr_count      00048578 f   libeay32:x509_att.obj
 0001:00037588       X509at_get_attr_by_OBJ     00048588 f   libeay32:x509_att.obj
 0001:000375ec       X509at_add1_attr           000485ec f   libeay32:x509_att.obj
 0001:000376c0       X509_ATTRIBUTE_set1_object 000486c0 f   libeay32:x509_att.obj
 0001:00037704       X509_ATTRIBUTE_set1_data   00048704 f   libeay32:x509_att.obj
 0001:00037878       X509at_get_attr_by_NID     00048878 f   libeay32:x509_att.obj
 0001:000378b4       X509_ATTRIBUTE_create_by_OBJ 000488b4 f   libeay32:x509_att.obj
 0001:00037988       X509_ATTRIBUTE_create_by_NID 00048988 f   libeay32:x509_att.obj
 0001:00037a0c       X509at_add1_attr_by_NID    00048a0c f   libeay32:x509_att.obj
 0001:00037a5c       ECDH_OpenSSL               00048a5c f   libeay32:ech_ossl.obj
 0001:00037db4       ENGINE_get_default_ECDH    00048db4 f   libeay32:tb_ecdh.obj
 0001:00037dd0       ENGINE_get_ECDH            00048dd0 f   libeay32:tb_ecdh.obj
 0001:00037dd8       ec_GFp_mont_group_init     00048dd8 f   libeay32:ecp_mont.obj
 0001:00037df8       ec_GFp_mont_group_finish   00048df8 f   libeay32:ecp_mont.obj
 0001:00037e44       ec_GFp_mont_group_clear_finish 00048e44 f   libeay32:ecp_mont.obj
 0001:00037e90       ec_GFp_mont_group_copy     00048e90 f   libeay32:ecp_mont.obj
 0001:00037f60       ec_GFp_mont_group_set_curve 00048f60 f   libeay32:ecp_mont.obj
 0001:000380c0       ec_GFp_mont_field_mul      000490c0 f   libeay32:ecp_mont.obj
 0001:00038130       ec_GFp_mont_field_sqr      00049130 f   libeay32:ecp_mont.obj
 0001:0003819c       ec_GFp_mont_field_encode   0004919c f   libeay32:ecp_mont.obj
 0001:0003820c       ec_GFp_mont_field_decode   0004920c f   libeay32:ecp_mont.obj
 0001:0003826c       ec_GFp_mont_field_set_to_one 0004926c f   libeay32:ecp_mont.obj
 0001:000382d0       EC_GFp_mont_method         000492d0 f   libeay32:ecp_mont.obj
 0001:000382dc       ec_GFp_nist_group_copy     000492dc f   libeay32:ecp_nist.obj
 0001:000382f8       ec_GFp_nist_group_set_curve 000492f8 f   libeay32:ecp_nist.obj
 0001:00038444       ec_GFp_nist_field_mul      00049444 f   libeay32:ecp_nist.obj
 0001:00038520       ec_GFp_nist_field_sqr      00049520 f   libeay32:ecp_nist.obj
 0001:000385ec       EC_GFp_nist_method         000495ec f   libeay32:ecp_nist.obj
 0001:000385f8       ec_GF2m_simple_group_init  000495f8 f   libeay32:ec2_smpl.obj
 0001:00038624       ec_GF2m_simple_group_finish 00049624 f   libeay32:ec2_smpl.obj
 0001:0003864c       ec_GF2m_simple_group_clear_finish 0004964c f   libeay32:ec2_smpl.obj
 0001:00038694       ec_GF2m_simple_group_copy  00049694 f   libeay32:ec2_smpl.obj
 0001:000387e0       ec_GF2m_simple_group_set_curve 000497e0 f   libeay32:ec2_smpl.obj
 0001:00038950       ec_GF2m_simple_group_get_curve 00049950 f   libeay32:ec2_smpl.obj
 0001:000389cc       ec_GF2m_simple_group_get_degree 000499cc f   libeay32:ec2_smpl.obj
 0001:000389e4       ec_GF2m_simple_group_check_discriminant 000499e4 f   libeay32:ec2_smpl.obj
 0001:00038a98       ec_GF2m_simple_point_init  00049a98 f   libeay32:ec2_smpl.obj
 0001:00038ac4       ec_GF2m_simple_point_finish 00049ac4 f   libeay32:ec2_smpl.obj
 0001:00038aec       ec_GF2m_simple_point_clear_finish 00049aec f   libeay32:ec2_smpl.obj
 0001:00038b1c       ec_GF2m_simple_point_copy  00049b1c f   libeay32:ec2_smpl.obj
 0001:00038b84       ec_GF2m_simple_point_set_to_infinity 00049b84 f   libeay32:ec2_smpl.obj
 0001:00038bac       ec_GF2m_simple_point_set_affine_coordinates 00049bac f   libeay32:ec2_smpl.obj
 0001:00038c78       ec_GF2m_simple_point_get_affine_coordinates 00049c78 f   libeay32:ec2_smpl.obj
 0001:00038d68       ec_GF2m_simple_add         00049d68 f   libeay32:ec2_smpl.obj
 0001:0003916c       ec_GF2m_simple_dbl         0004a16c f   libeay32:ec2_smpl.obj
 0001:00039190       ec_GF2m_simple_invert      0004a190 f   libeay32:ec2_smpl.obj
 0001:000391fc       ec_GF2m_simple_is_at_infinity 0004a1fc f   libeay32:ec2_smpl.obj
 0001:00039210       ec_GF2m_simple_is_on_curve 0004a210 f   libeay32:ec2_smpl.obj
 0001:000393a0       ec_GF2m_simple_cmp         0004a3a0 f   libeay32:ec2_smpl.obj
 0001:0003952c       ec_GF2m_simple_make_affine 0004a52c f   libeay32:ec2_smpl.obj
 0001:00039630       ec_GF2m_simple_points_make_affine 0004a630 f   libeay32:ec2_smpl.obj
 0001:00039698       ec_GF2m_simple_field_mul   0004a698 f   libeay32:ec2_smpl.obj
 0001:000396d4       ec_GF2m_simple_field_sqr   0004a6d4 f   libeay32:ec2_smpl.obj
 0001:000396f8       ec_GF2m_simple_field_div   0004a6f8 f   libeay32:ec2_smpl.obj
 0001:00039734       EC_GF2m_simple_method      0004a734 f   libeay32:ec2_smpl.obj
 0001:00039740       BN_mod_exp2_mont           0004a740 f   libeay32:bn_exp2.obj
 0001:00039df4       X509_REVOKED_it            0004adf4 f   libeay32:x_crl.obj
 0001:00039e00       X509_CRL_INFO_it           0004ae00 f   libeay32:x_crl.obj
 0001:0003a090       X509_CRL_it                0004b090 f   libeay32:x_crl.obj
 0001:0003a510       X509_CINF_it               0004b510 f   libeay32:x_x509.obj
 0001:0003a60c       X509_it                    0004b60c f   libeay32:x_x509.obj
 0001:0003a618       X509_free                  0004b618 f   libeay32:x_x509.obj
 0001:0003a630       CMS_stream                 0004b630 f   libeay32:cms_io.obj
 0001:0003a6cc       BIO_f_md                   0004b6cc f   libeay32:bio_md.obj
 0001:0003aa38       BIO_s_mem                  0004ba38 f   libeay32:bss_mem.obj
 0001:0003aa44       BIO_new_mem_buf            0004ba44 f   libeay32:bss_mem.obj
 0001:0003aed0       BIO_s_null                 0004bed0 f   libeay32:bss_null.obj
 0001:0003af84       cms_DigestedData_init_bio  0004bf84 f   libeay32:cms_dd.obj
 0001:0003af9c       cms_DigestedData_do_final  0004bf9c f   libeay32:cms_dd.obj
 0001:0003b09c       BIO_f_cipher               0004c09c f   libeay32:bio_enc.obj
 0001:0003b674       ASN1_TIME_it               0004c674 f   libeay32:a_time.obj
 0001:0003b680       ASN1_TIME_free             0004c680 f   libeay32:a_time.obj
 0001:0003b698       ASN1_TIME_adj              0004c698 f   libeay32:a_time.obj
 0001:0003b768       ASN1_TIME_check            0004c768 f   libeay32:a_time.obj
 0001:0003b7a4       CMS_signed_get_attr_count  0004c7a4 f   libeay32:cms_att.obj
 0001:0003b7b8       CMS_signed_get_attr_by_NID 0004c7b8 f   libeay32:cms_att.obj
 0001:0003b7cc       CMS_signed_add1_attr_by_NID 0004c7cc f   libeay32:cms_att.obj
 0001:0003b7fc       X509_time_adj_ex           0004c7fc f   libeay32:x509_vfy.obj
 0001:0003b898       X509_gmtime_adj            0004c898 f   libeay32:x509_vfy.obj
 0001:0003ba30       EVP_DigestSignInit         0004ca30 f   libeay32:m_sigver.obj
 0001:0003ba58       EVP_DigestVerifyInit       0004ca58 f   libeay32:m_sigver.obj
 0001:0003ba80       EVP_DigestSignFinal        0004ca80 f   libeay32:m_sigver.obj
 0001:0003bbc0       EVP_DigestVerifyFinal      0004cbc0 f   libeay32:m_sigver.obj
 0001:0003bc94       EVP_SignFinal              0004cc94 f   libeay32:p_sign.obj
 0001:0003be60       PROXY_POLICY_it            0004ce60 f   libeay32:v3_pcia.obj
 0001:0003be6c       PROXY_CERT_INFO_EXTENSION_it 0004ce6c f   libeay32:v3_pcia.obj
 0001:0003be78       PROXY_CERT_INFO_EXTENSION_new 0004ce78 f   libeay32:v3_pcia.obj
 0001:0003be90       PROXY_CERT_INFO_EXTENSION_free 0004ce90 f   libeay32:v3_pcia.obj
 0001:0003bea8       private_AES_set_encrypt_key 0004cea8 f   libeay32:aes_core.obj
 0001:0003c48c       AES_encrypt                0004d48c f   libeay32:aes_core.obj
 0001:0003cc10       ASN1_item_pack             0004dc10 f   libeay32:asn_pack.obj
 0001:0003cd00       RSA_padding_add_PKCS1_type_1 0004dd00 f   libeay32:rsa_pk1.obj
 0001:0003cd94       RSA_padding_check_PKCS1_type_1 0004dd94 f   libeay32:rsa_pk1.obj
 0001:0003cedc       RSA_padding_add_PKCS1_type_2 0004dedc f   libeay32:rsa_pk1.obj
 0001:0003cfb4       RSA_padding_check_PKCS1_type_2 0004dfb4 f   libeay32:rsa_pk1.obj
 0001:0003d0c8       RSA_padding_add_SSLv23     0004e0c8 f   libeay32:rsa_ssl.obj
 0001:0003d1b0       RSA_padding_check_SSLv23   0004e1b0 f   libeay32:rsa_ssl.obj
 0001:0003d320       RSA_padding_add_none       0004e320 f   libeay32:rsa_none.obj
 0001:0003d3a0       RSA_padding_check_none     0004e3a0 f   libeay32:rsa_none.obj
 0001:0003d41c       EC_GROUP_get_basis_type    0004e41c f   libeay32:ec_asn1.obj
 0001:0003d494       EC_GROUP_get_trinomial_basis 0004e494 f   libeay32:ec_asn1.obj
 0001:0003d528       EC_GROUP_get_pentanomial_basis 0004e528 f   libeay32:ec_asn1.obj
 0001:0003d5f4       X9_62_PENTANOMIAL_it       0004e5f4 f   libeay32:ec_asn1.obj
 0001:0003d60c       X9_62_CHARACTERISTIC_TWO_it 0004e60c f   libeay32:ec_asn1.obj
 0001:0003d624       X9_62_FIELDID_it           0004e624 f   libeay32:ec_asn1.obj
 0001:0003d630       X9_62_CURVE_it             0004e630 f   libeay32:ec_asn1.obj
 0001:0003d63c       ECPARAMETERS_it            0004e63c f   libeay32:ec_asn1.obj
 0001:0003d648       ECPKPARAMETERS_it          0004e648 f   libeay32:ec_asn1.obj
 0001:0003eb48       d2i_ECPKParameters         0004fb48 f   libeay32:ec_asn1.obj
 0001:0003ec14       i2d_ECPKParameters         0004fc14 f   libeay32:ec_asn1.obj
 0001:0003ecb8       d2i_ECPrivateKey           0004fcb8 f   libeay32:ec_asn1.obj
 0001:0003ef74       i2d_ECPrivateKey           0004ff74 f   libeay32:ec_asn1.obj
 0001:0003f2f8       i2d_ECParameters           000502f8 f   libeay32:ec_asn1.obj
 0001:0003f348       d2i_ECParameters           00050348 f   libeay32:ec_asn1.obj
 0001:0003f42c       o2i_ECPublicKey            0005042c f   libeay32:ec_asn1.obj
 0001:0003f540       i2o_ECPublicKey            00050540 f   libeay32:ec_asn1.obj
 0001:0003f6c0       PKCS8_PRIV_KEY_INFO_it     000506c0 f   libeay32:p8_pkey.obj
 0001:0003f6cc       PKCS8_pkey_set0            000506cc f   libeay32:p8_pkey.obj
 0001:0003f77c       PKCS8_pkey_get0            0005077c f   libeay32:p8_pkey.obj
 0001:0003f964       ECPKParameters_print       00050964 f   libeay32:eck_prn.obj
 0001:0003ff4c       ASN1_bn_print              00050f4c f   libeay32:t_pkey.obj
 0001:00040140       EC_POINT_point2bn          00051140 f   libeay32:ec_print.obj
 0001:000401ec       PKCS7_ctrl                 000511ec f   libeay32:pk7_lib.obj
 0001:00040310       PKCS7_SIGNER_INFO_get0_algs 00051310 f   libeay32:pk7_lib.obj
 0001:00040340       PKCS7_RECIP_INFO_get0_alg  00051340 f   libeay32:pk7_lib.obj
 0001:00040350       PKCS7_stream               00051350 f   libeay32:pk7_lib.obj
 0001:00040424       X509_signature_dump        00051424 f   libeay32:t_x509.obj
 0001:00040510       ASN1_STRING_print          00051510 f   libeay32:t_x509.obj
 0001:000405e4       ASN1_GENERALIZEDTIME_print 000515e4 f   libeay32:t_x509.obj
 0001:00040800       X509_NAME_print            00051800 f   libeay32:t_x509.obj
 0001:0004098c       d2i_DHparams               0005198c f   libeay32:dh_asn1.obj
 0001:000409a4       i2d_DHparams               000519a4 f   libeay32:dh_asn1.obj
 0001:00040a18       RSA_PSS_PARAMS_it          00051a18 f   libeay32:rsa_asn1.obj
 0001:00040a24       d2i_RSA_PSS_PARAMS         00051a24 f   libeay32:rsa_asn1.obj
 0001:00040a3c       RSA_PSS_PARAMS_new         00051a3c f   libeay32:rsa_asn1.obj
 0001:00040a54       RSA_PSS_PARAMS_free        00051a54 f   libeay32:rsa_asn1.obj
 0001:00040a6c       d2i_RSAPrivateKey          00051a6c f   libeay32:rsa_asn1.obj
 0001:00040a84       i2d_RSAPrivateKey          00051a84 f   libeay32:rsa_asn1.obj
 0001:00040a9c       d2i_RSAPublicKey           00051a9c f   libeay32:rsa_asn1.obj
 0001:00040ab4       i2d_RSAPublicKey           00051ab4 f   libeay32:rsa_asn1.obj
 0001:00040acc       i2a_ASN1_INTEGER           00051acc f   libeay32:f_int.obj
 0001:00040c14       OPENSSL_asc2uni            00051c14 f   libeay32:p12_utl.obj
 0001:000417bc       X509_NAME_print_ex         000527bc f   libeay32:a_strex.obj
 0001:00041800       ASN1_STRING_to_UTF8        00052800 f   libeay32:a_strex.obj
 0001:00041b64       ASN1_mbstring_ncopy        00052b64 f   libeay32:a_mbstr.obj
 0001:00042054       ASN1_mbstring_copy         00053054 f   libeay32:a_mbstr.obj
 0001:00042cf0       ASN1_generate_v3           00053cf0 f   libeay32:asn1_gen.obj
 0001:00043120       NCONF_default              00054120 f   libeay32:conf_def.obj
 0001:000440a0       _CONF_get_section          000550a0 f   libeay32:conf_api.obj
 0001:000440e8       _CONF_get_section_values   000550e8 f   libeay32:conf_api.obj
 0001:00044108       _CONF_add_string           00055108 f   libeay32:conf_api.obj
 0001:00044180       _CONF_get_string           00055180 f   libeay32:conf_api.obj
 0001:000442e4       _CONF_new_data             000552e4 f   libeay32:conf_api.obj
 0001:00044334       _CONF_new_section          00055334 f   libeay32:conf_api.obj
 0001:000444a4       _CONF_free_data            000554a4 f   libeay32:conf_api.obj
 0001:000444f8       MD5_Init                   000554f8 f   libeay32:md5_dgst.obj
 0001:00044548       md5_block_data_order       00055548 f   libeay32:md5_dgst.obj
 0001:00045144       MD5_Update                 00056144 f   libeay32:md5_dgst.obj
 0001:0004524c       MD5_Final                  0005624c f   libeay32:md5_dgst.obj
 0001:0004539c       OCSP_SIGNATURE_it          0005639c f   libeay32:ocsp_asn.obj
 0001:000453a8       OCSP_CERTID_it             000563a8 f   libeay32:ocsp_asn.obj
 0001:000453b4       OCSP_ONEREQ_it             000563b4 f   libeay32:ocsp_asn.obj
 0001:000453c0       OCSP_REQINFO_it            000563c0 f   libeay32:ocsp_asn.obj
 0001:000453cc       OCSP_RESPBYTES_it          000563cc f   libeay32:ocsp_asn.obj
 0001:000453d8       OCSP_RESPID_it             000563d8 f   libeay32:ocsp_asn.obj
 0001:000453e4       OCSP_REVOKEDINFO_it        000563e4 f   libeay32:ocsp_asn.obj
 0001:000453f0       OCSP_CERTSTATUS_it         000563f0 f   libeay32:ocsp_asn.obj
 0001:000453fc       OCSP_SINGLERESP_it         000563fc f   libeay32:ocsp_asn.obj
 0001:00045408       OCSP_RESPDATA_it           00056408 f   libeay32:ocsp_asn.obj
 0001:00045414       OCSP_CRLID_it              00056414 f   libeay32:ocsp_asn.obj
 0001:00045420       OCSP_SERVICELOC_it         00056420 f   libeay32:ocsp_asn.obj
 0001:0004542c       i2a_ASN1_STRING            0005642c f   libeay32:f_string.obj
 0001:00045548       AUTHORITY_KEYID_it         00056548 f   libeay32:v3_akeya.obj
 0001:00045554       AUTHORITY_KEYID_new        00056554 f   libeay32:v3_akeya.obj
 0001:0004556c       AUTHORITY_KEYID_free       0005656c f   libeay32:v3_akeya.obj
 0001:00045584       ASN1_item_verify           00056584 f   libeay32:a_verify.obj
 0001:00045824       NETSCAPE_SPKAC_it          00056824 f   libeay32:x_spki.obj
 0001:000458c0       PKCS7_it                   000568c0 f   libeay32:pk7_asn1.obj
 0001:000458cc       PKCS7_SIGNED_it            000568cc f   libeay32:pk7_asn1.obj
 0001:000458f8       PKCS7_SIGNER_INFO_it       000568f8 f   libeay32:pk7_asn1.obj
 0001:00045904       PKCS7_ISSUER_AND_SERIAL_it 00056904 f   libeay32:pk7_asn1.obj
 0001:00045910       PKCS7_ENVELOPE_it          00056910 f   libeay32:pk7_asn1.obj
 0001:0004593c       PKCS7_RECIP_INFO_it        0005693c f   libeay32:pk7_asn1.obj
 0001:00045948       PKCS7_ENC_CONTENT_it       00056948 f   libeay32:pk7_asn1.obj
 0001:00045954       PKCS7_SIGN_ENVELOPE_it     00056954 f   libeay32:pk7_asn1.obj
 0001:00045960       PKCS7_ENCRYPT_it           00056960 f   libeay32:pk7_asn1.obj
 0001:0004596c       PKCS7_DIGEST_it            0005696c f   libeay32:pk7_asn1.obj
 0001:00045978       PKCS7_ATTR_SIGN_it         00056978 f   libeay32:pk7_asn1.obj
 0001:00045984       ASN1_item_digest           00056984 f   libeay32:a_digest.obj
 0001:00045a04       ec_GFp_simple_group_init   00056a04 f   libeay32:ecp_smpl.obj
 0001:00045a38       ec_GFp_simple_group_finish 00056a38 f   libeay32:ecp_smpl.obj
 0001:00045a60       ec_GFp_simple_group_clear_finish 00056a60 f   libeay32:ecp_smpl.obj
 0001:00045a88       ec_GFp_simple_group_copy   00056a88 f   libeay32:ecp_smpl.obj
 0001:00045af0       ec_GFp_simple_group_set_curve 00056af0 f   libeay32:ecp_smpl.obj
 0001:00045cbc       ec_GFp_simple_group_get_curve 00056cbc f   libeay32:ecp_smpl.obj
 0001:00045dec       ec_GFp_simple_group_get_degree 00056dec f   libeay32:ecp_smpl.obj
 0001:00045e00       ec_GFp_simple_group_check_discriminant 00056e00 f   libeay32:ecp_smpl.obj
 0001:00046024       ec_GFp_simple_point_init   00057024 f   libeay32:ecp_smpl.obj
 0001:00046058       ec_GFp_simple_point_finish 00057058 f   libeay32:ecp_smpl.obj
 0001:00046080       ec_GFp_simple_point_clear_finish 00057080 f   libeay32:ecp_smpl.obj
 0001:000460b0       ec_GFp_simple_point_copy   000570b0 f   libeay32:ecp_smpl.obj
 0001:00046118       ec_GFp_simple_point_set_to_infinity 00057118 f   libeay32:ecp_smpl.obj
 0001:00046140       ec_GFp_simple_set_Jprojective_coordinates_GFp 00057140 f   libeay32:ecp_smpl.obj
 0001:000462f0       ec_GFp_simple_get_Jprojective_coordinates_GFp 000572f0 f   libeay32:ecp_smpl.obj
 0001:00046440       ec_GFp_simple_point_set_affine_coordinates 00057440 f   libeay32:ecp_smpl.obj
 0001:000464c0       ec_GFp_simple_point_get_affine_coordinates 000574c0 f   libeay32:ecp_smpl.obj
 0001:000467fc       ec_GFp_simple_add          000577fc f   libeay32:ecp_smpl.obj
 0001:00046e0c       ec_GFp_simple_dbl          00057e0c f   libeay32:ecp_smpl.obj
 0001:000472e4       ec_GFp_simple_invert       000582e4 f   libeay32:ecp_smpl.obj
 0001:0004732c       ec_GFp_simple_is_at_infinity 0005832c f   libeay32:ecp_smpl.obj
 0001:00047340       ec_GFp_simple_is_on_curve  00058340 f   libeay32:ecp_smpl.obj
 0001:00047680       ec_GFp_simple_cmp          00058680 f   libeay32:ecp_smpl.obj
 0001:00047964       ec_GFp_simple_make_affine  00058964 f   libeay32:ecp_smpl.obj
 0001:00047a80       ec_GFp_simple_points_make_affine 00058a80 f   libeay32:ecp_smpl.obj
 0001:00047f80       ec_GFp_simple_field_mul    00058f80 f   libeay32:ecp_smpl.obj
 0001:00047fbc       ec_GFp_simple_field_sqr    00058fbc f   libeay32:ecp_smpl.obj
 0001:00047fe0       BN_get0_nist_prime_192     00058fe0 f   libeay32:bn_nist.obj
 0001:00047fec       BN_get0_nist_prime_224     00058fec f   libeay32:bn_nist.obj
 0001:00047ff8       BN_get0_nist_prime_256     00058ff8 f   libeay32:bn_nist.obj
 0001:00048004       BN_get0_nist_prime_384     00059004 f   libeay32:bn_nist.obj
 0001:00048010       BN_get0_nist_prime_521     00059010 f   libeay32:bn_nist.obj
 0001:0004806c       BN_nist_mod_192            0005906c f   libeay32:bn_nist.obj
 0001:00048334       BN_nist_mod_224            00059334 f   libeay32:bn_nist.obj
 0001:00048698       BN_nist_mod_256            00059698 f   libeay32:bn_nist.obj
 0001:00048b54       BN_nist_mod_384            00059b54 f   libeay32:bn_nist.obj
 0001:00049118       BN_nist_mod_521            0005a118 f   libeay32:bn_nist.obj
 0001:00049c7c       ec_GF2m_simple_mul         0005ac7c f   libeay32:ec2_mult.obj
 0001:00049ef8       ec_GF2m_precompute_mult    0005aef8 f   libeay32:ec2_mult.obj
 0001:00049f08       ec_GF2m_have_precompute_mult 0005af08 f   libeay32:ec2_mult.obj
 0001:0004a0b0       BN_GF2m_add                0005b0b0 f   libeay32:bn_gf2m.obj
 0001:0004a1a4       BN_GF2m_mod_arr            0005b1a4 f   libeay32:bn_gf2m.obj
 0001:0004a41c       BN_GF2m_mod_sqr_arr        0005b41c f   libeay32:bn_gf2m.obj
 0001:0004a5a4       BN_GF2m_poly2arr           0005b5a4 f   libeay32:bn_gf2m.obj
 0001:0004a648       BN_GF2m_mod                0005b648 f   libeay32:bn_gf2m.obj
 0001:0004a6c4       BN_GF2m_mod_mul_arr        0005b6c4 f   libeay32:bn_gf2m.obj
 0001:0004a914       BN_GF2m_mod_mul            0005b914 f   libeay32:bn_gf2m.obj
 0001:0004a9d8       BN_GF2m_mod_inv            0005b9d8 f   libeay32:bn_gf2m.obj
 0001:0004ae18       BN_GF2m_mod_div            0005be18 f   libeay32:bn_gf2m.obj
 0001:0004aea4       BN_GF2m_mod_exp_arr        0005bea4 f   libeay32:bn_gf2m.obj
 0001:0004afdc       BN_GF2m_mod_sqrt_arr       0005bfdc f   libeay32:bn_gf2m.obj
 0001:0004b078       BN_GF2m_mod_solve_quad_arr 0005c078 f   libeay32:bn_gf2m.obj
 0001:0004b3d8       X509_VAL_it                0005c3d8 f   libeay32:x_val.obj
 0001:0004b3e4       policy_cache_free          0005c3e4 f   libeay32:pcy_cache.obj
 0001:0004b428       X509_CERT_AUX_free         0005c428 f   libeay32:x_x509a.obj
 0001:0004b440       ASN1_tag2str               0005c440 f   libeay32:asn1_par.obj
 0001:0004b480       ASN1_GENERALIZEDTIME_check 0005c480 f   libeay32:a_gentm.obj
 0001:0004b65c       ASN1_GENERALIZEDTIME_adj   0005c65c f   libeay32:a_gentm.obj
 0001:0004b7a0       ASN1_UTCTIME_check         0005c7a0 f   libeay32:a_utctm.obj
 0001:0004b92c       ASN1_UTCTIME_adj           0005c92c f   libeay32:a_utctm.obj
 0001:0004ba9c       OPENSSL_gmtime             0005ca9c f   libeay32:o_time.obj
 0001:0004bc14       OPENSSL_gmtime_adj         0005cc14 f   libeay32:o_time.obj
 0001:0004bfc8       EC_POINT_set_compressed_coordinates_GFp 0005cfc8 f   libeay32:ec_oct.obj
 0001:0004c0c0       EC_POINT_set_compressed_coordinates_GF2m 0005d0c0 f   libeay32:ec_oct.obj
 0001:0004c1b8       EC_POINT_point2oct         0005d1b8 f   libeay32:ec_oct.obj
 0001:0004c2c8       EC_POINT_oct2point         0005d2c8 f   libeay32:ec_oct.obj
 0001:0004c3c0       PKCS12_MAC_DATA_it         0005d3c0 f   libeay32:p12_asn.obj
 0001:0004c3d8       PKCS12_BAGS_it             0005d3d8 f   libeay32:p12_asn.obj
 0001:0004c3f0       PKCS12_SAFEBAG_it          0005d3f0 f   libeay32:p12_asn.obj
 0001:0004c3fc       UTF8_getc                  0005d3fc f   libeay32:a_utf8.obj
 0001:0004c700       UTF8_putc                  0005d700 f   libeay32:a_utf8.obj
 0001:0004dcf4       PKCS7_dataInit             0005ecf4 f   libeay32:pk7_doit.obj
 0001:0004e218       PKCS7_SIGNER_INFO_sign     0005f218 f   libeay32:pk7_doit.obj
 0001:0004e588       PKCS7_add_signed_attribute 0005f588 f   libeay32:pk7_doit.obj
 0001:0004e6a0       PKCS7_dataFinal            0005f6a0 f   libeay32:pk7_doit.obj
 0001:0004eacc       policy_data_free           0005facc f   libeay32:pcy_data.obj
 0001:0004eb14       EVP_EncodeInit             0005fb14 f   libeay32:encode.obj
 0001:0004eb2c       EVP_EncodeBlock            0005fb2c f   libeay32:encode.obj
 0001:0004ec0c       EVP_DecodeInit             0005fc0c f   libeay32:encode.obj
 0001:0004ec28       EVP_DecodeBlock            0005fc28 f   libeay32:encode.obj
 0001:0004ed4c       EVP_EncodeUpdate           0005fd4c f   libeay32:encode.obj
 0001:0004ee78       EVP_EncodeFinal            0005fe78 f   libeay32:encode.obj
 0001:0004eecc       EVP_DecodeUpdate           0005fecc f   libeay32:encode.obj
 0001:00050c7c       ec_GF2m_simple_set_compressed_coordinates 00061c7c f   libeay32:ec2_oct.obj
 0001:00050f10       ec_GF2m_simple_point2oct   00061f10 f   libeay32:ec2_oct.obj
 0001:000512b4       ec_GF2m_simple_oct2point   000622b4 f   libeay32:ec2_oct.obj
 0001:00051660       ec_GFp_simple_set_compressed_coordinates 00062660 f   libeay32:ecp_oct.obj
 0001:00051aac       ec_GFp_simple_point2oct    00062aac f   libeay32:ecp_oct.obj
 0001:00051e1c       ec_GFp_simple_oct2point    00062e1c f   libeay32:ecp_oct.obj
 0001:0005218c       PKCS7_add0_attrib_signing_time 0006318c f   libeay32:pk7_attr.obj
 0001:000521fc       PKCS7_add1_attrib_digest   000631fc f   libeay32:pk7_attr.obj
 0001:00052268       UI_get_string_type         00063268 f   libeay32:ui_lib.obj
 0001:00052278       UI_get_input_flags         00063278 f   libeay32:ui_lib.obj
 0001:00052288       UI_get0_output_string      00063288 f   libeay32:ui_lib.obj
 0001:00052298       UI_get0_action_string      00063298 f   libeay32:ui_lib.obj
 0001:000522c4       UI_get0_result_string      000632c4 f   libeay32:ui_lib.obj
 0001:000522e8       UI_get0_test_string        000632e8 f   libeay32:ui_lib.obj
 0001:0005230c       BN_kronecker               0006330c f   libeay32:bn_kron.obj
 0001:000525c0       BN_mod_sqrt                000635c0 f   libeay32:bn_sqrt.obj
 0001:00053018       raise                      00064018 f   wcecompatex:signal.obj
 0001:00053020       getenv                     00064020 f   wcecompatex:env.obj
 0001:000533ec       w32_filetime_to_time_t     000643ec f   wcecompatex:time.obj
 0001:0005348c       time                       0006448c f   wcecompatex:time.obj
 0001:000534f0       dayOfYear                  000644f0 f   wcecompatex:time.obj
 0001:000535c4       gmtime                     000645c4 f   wcecompatex:time.obj
 0001:00053684       ?unicode2ascii@@YAXPB_WPAD@Z 00064684 f   wcecompatex:ts_string.obj
 0001:000536d8       ?ascii2unicode@@YAXPBDPA_WH@Z 000646d8 f   wcecompatex:ts_string.obj
 0001:00053778       ?unicode2ascii@@YAXPB_WPADH@Z 00064778 f   wcecompatex:ts_string.obj
 0001:00053808       fflush                     00064808 f   coredll:COREDLL.dll
 0001:00053818       fprintf                    00064818 f   coredll:COREDLL.dll
 0001:00053828       _getstdfilex               00064828 f   coredll:COREDLL.dll
 0001:00053838       memcmp                     00064838 f   coredll:COREDLL.dll
 0001:00053848       memset                     00064848 f   coredll:COREDLL.dll
 0001:00053858       memcpy                     00064858 f   coredll:COREDLL.dll
 0001:00053868       free                       00064868 f   coredll:COREDLL.dll
 0001:00053878       realloc                    00064878 f   coredll:COREDLL.dll
 0001:00053888       malloc                     00064888 f   coredll:COREDLL.dll
 0001:00053898       strcpy                     00064898 f   coredll:COREDLL.dll
 0001:000538a8       strlen                     000648a8 f   coredll:COREDLL.dll
 0001:000538b8       strcmp                     000648b8 f   coredll:COREDLL.dll
 0001:000538c8       strncpy                    000648c8 f   coredll:COREDLL.dll
 0001:000538d8       strchr                     000648d8 f   coredll:COREDLL.dll
 0001:000538e8       MessageBoxW                000648e8 f   coredll:COREDLL.dll
 0001:000538f8       _vsnwprintf                000648f8 f   coredll:COREDLL.dll
 0001:00053908       MultiByteToWideChar        00064908 f   coredll:COREDLL.dll
 0001:00053918       memchr                     00064918 f   coredll:COREDLL.dll
 0001:00053928       _isctype                   00064928 f   coredll:COREDLL.dll
 0001:00053938       atoi                       00064938 f   coredll:COREDLL.dll
 0001:00053948       qsort                      00064948 f   coredll:COREDLL.dll
 0001:00053958       tolower                    00064958 f   coredll:COREDLL.dll
 0001:00053968       strncmp                    00064968 f   coredll:COREDLL.dll
 0001:00053978       sscanf                     00064978 f   coredll:COREDLL.dll
 0001:00053988       _strnicmp                  00064988 f   coredll:COREDLL.dll
 0001:00053998       fclose                     00064998 f   coredll:COREDLL.dll
 0001:000539a8       GetLastError               000649a8 f   coredll:COREDLL.dll
 0001:000539b8       ferror                     000649b8 f   coredll:COREDLL.dll
 0001:000539c8       fread                      000649c8 f   coredll:COREDLL.dll
 0001:000539d8       fwrite                     000649d8 f   coredll:COREDLL.dll
 0001:000539e8       _setmode                   000649e8 f   coredll:COREDLL.dll
 0001:000539f8       _fileno                    000649f8 f   coredll:COREDLL.dll
 0001:00053a08       fopen                      00064a08 f   coredll:COREDLL.dll
 0001:00053a18       fseek                      00064a18 f   coredll:COREDLL.dll
 0001:00053a28       ftell                      00064a28 f   coredll:COREDLL.dll
 0001:00053a38       feof                       00064a38 f   coredll:COREDLL.dll
 0001:00053a48       strcat                     00064a48 f   coredll:COREDLL.dll
 0001:00053a58       fgets                      00064a58 f   coredll:COREDLL.dll
 0001:00053a68       _wfopen                    00064a68 f   coredll:COREDLL.dll
 0001:00053a78       strrchr                    00064a78 f   coredll:COREDLL.dll
 0001:00053a88       GetTickCount               00064a88 f   coredll:COREDLL.dll
 0001:00053a98       QueryPerformanceCounter    00064a98 f   coredll:COREDLL.dll
 0001:00053aa8       GlobalMemoryStatus         00064aa8 f   coredll:COREDLL.dll
 0001:00053ab8       CryptReleaseContext        00064ab8 f   coredll:COREDLL.dll
 0001:00053ac8       CryptGenRandom             00064ac8 f   coredll:COREDLL.dll
 0001:00053ad8       CryptAcquireContextW       00064ad8 f   coredll:COREDLL.dll
 0001:00053ae8       GetVersionExW              00064ae8 f   coredll:COREDLL.dll
 0001:00053af8       strtoul                    00064af8 f   coredll:COREDLL.dll
 0001:00053b08       _stricmp                   00064b08 f   coredll:COREDLL.dll
 0001:00053b18       memmove                    00064b18 f   coredll:COREDLL.dll
 0001:00053b28       LoadLibraryW               00064b28 f   coredll:COREDLL.dll
 0001:00053b38       SetLastError               00064b38 f   coredll:COREDLL.dll
 0001:00053b48       FreeLibrary                00064b48 f   coredll:COREDLL.dll
 0001:00053b58       GetProcAddressA            00064b58 f   coredll:COREDLL.dll
 0001:00053b68       sprintf                    00064b68 f   coredll:COREDLL.dll
 0001:00053b78       strstr                     00064b78 f   coredll:COREDLL.dll
 0001:00053b88       WideCharToMultiByte        00064b88 f   coredll:COREDLL.dll
 0001:00053b98       fputs                      00064b98 f   coredll:COREDLL.dll
 0001:00053ba8       SystemTimeToFileTime       00064ba8 f   coredll:COREDLL.dll
 0001:00053bb8       GetSystemTime              00064bb8 f   coredll:COREDLL.dll
 0001:00053bc8       FileTimeToSystemTime       00064bc8 f   coredll:COREDLL.dll
 0001:00053be0       WinMainCRTStartup          00064be0 f   corelibc:pegwmain.obj
 0001:00053c54       _cinit                     00064c54 f   corelibc:crt0dat.obj
 0001:00053dc4       exit                       00064dc4 f   corelibc:crt0dat.obj
 0001:00053ddc       _exit                      00064ddc f   corelibc:crt0dat.obj
 0001:00053df4       WinMain                    00064df4 f   wcecompatex:winmain.obj
 0001:00054150       ?processCmdLine@@YAHPA_WPAPAPAD@Z 00065150 f   wcecompatex:args.obj
 0001:0005458c       _XcptFilter                0006558c f   coredll:COREDLL.dll
 0001:0005459c       __C_specific_handler       0006559c f   coredll:COREDLL.dll
 0001:000545ac       LocalFree                  000655ac f   coredll:COREDLL.dll
 0001:000545bc       FindFirstFileW             000655bc f   coredll:COREDLL.dll
 0001:000545cc       FindClose                  000655cc f   coredll:COREDLL.dll
 0001:000545dc       FindNextFileW              000655dc f   coredll:COREDLL.dll
 0001:000545ec       GetModuleFileNameW         000655ec f   coredll:COREDLL.dll
 0002:00000000       ??_C@_0EB@DGHFABGM@aaaaaaaaaaaaaaaaaaaaaaaaaaaaaaaa@ 00066000     sha256t.obj
 0002:00000044       ??_C@_09MCFGFJHJ@?5passed?4?6?$AA@ 00066044     sha256t.obj
 0002:00000050       ??_C@_0BB@JIOJIDJ@Testing?5SHA?9224?5?$AA@ 00066050     sha256t.obj
 0002:00000064       ??_C@_0BG@ICFGJDMM@?6TEST?53?5of?53?5failed?4?6?$AA@ 00066064     sha256t.obj
 0002:00000080       ??_C@_0KB@KFLNPPHB@aaaaaaaaaaaaaaaaaaaaaaaaaaaaaaaa@ 00066080     sha256t.obj
 0002:00000124       ??_C@_0BG@CMDOACFN@?6TEST?52?5of?53?5failed?4?6?$AA@ 00066124     sha256t.obj
 0002:0000013c       ??_C@_01LFCBOECM@?4?$AA@   0006613c     sha256t.obj
 0002:00000140       ??_C@_0DJ@NGDOEGCI@abcdbcdecdefdefgefghfghighijhijk@ 00066140     sha256t.obj
 0002:0000017c       ??_C@_0BG@FPGLGKP@?6TEST?51?5of?53?5failed?4?6?$AA@ 0006617c     sha256t.obj
 0002:00000194       ??_C@_0BB@JHNNHEOO@Testing?5SHA?9256?5?$AA@ 00066194     sha256t.obj
 0002:000001a8       ??_C@_03FIKCJHKP@abc?$AA@  000661a8     sha256t.obj
 0002:00000340       ??_C@_0EM@DLBKEKNP@d?3?2wm653wehh?2platform?2mvv210?2src@ 00066340     libeay32:digest.obj
 0002:0000038c       ??_C@_0CI@KPJFNDOF@ctx?9?$DOdigest?9?$DOmd_size?5?$DM?$DN?5EVP_MAX_@ 0006638c     libeay32:digest.obj
 0002:000003b8       ??_C@_0EO@NHOCECJL@d?3?2wm653wehh?2platform?2mvv210?2src@ 000663b8     libeay32:rsa_sign.obj
 0002:00000408       ??_C@_0DF@DGNAAHIE@signature?5has?5problems?0?5re?9make?5@ 00066408     libeay32:rsa_sign.obj
 0002:00000440       SHA1_version               00066440     libeay32:sha1dgst.obj
 0002:00000468       SHA256_version             00066468     libeay32:sha256.obj
 0002:00000598       SHA512_version             00066598     libeay32:sha512.obj
 0002:00000848       ??_C@_0EP@HIMPJABG@d?3?2wm653wehh?2platform?2mvv210?2src@ 00066848     libeay32:pmeth_lib.obj
 0002:00000898       ??_C@_06IJPNAHC@digest?$AA@ 00066898     libeay32:pmeth_lib.obj
 0002:000008a0       ??_C@_0FC@GLILKHMO@d?3?2wm653wehh?2platform?2mvv210?2src@ 000668a0     libeay32:tb_digest.obj
 0002:00000920       ??_C@_0DE@JBNNAKOP@called?5a?5function?5that?5was?5disab@ 00066920     libeay32:err.obj
 0002:00000954       ??_C@_0P@LPIEGNHB@internal?5error?$AA@ 00066954     libeay32:err.obj
 0002:00000964       ??_C@_0BI@MMHLKOF@passed?5a?5null?5parameter?$AA@ 00066964     libeay32:err.obj
 0002:0000097c       ??_C@_0CG@JFIACAPA@called?5a?5function?5you?5should?5not@ 0006697c     libeay32:err.obj
 0002:000009a4       ??_C@_0P@BOLAOBGL@malloc?5failure?$AA@ 000669a4     libeay32:err.obj
 0002:000009b4       ??_C@_05FAMCFOJB@fatal?$AA@ 000669b4     libeay32:err.obj
 0002:000009bc       ??_C@_0BB@LLCBNOLO@missing?5asn1?5eos?$AA@ 000669bc     libeay32:err.obj
 0002:000009d0       ??_C@_0BF@JKEELALH@asn1?5length?5mismatch?$AA@ 000669d0     libeay32:err.obj
 0002:000009e8       ??_C@_0BL@PKJJDDDF@expecting?5an?5asn1?5sequence?$AA@ 000669e8     libeay32:err.obj
 0002:00000a04       ??_C@_0BJ@KHBMOGBI@bad?5get?5asn1?5object?5call?$AA@ 00066a04     libeay32:err.obj
 0002:00000a20       ??_C@_0BH@LJENPHMF@bad?5asn1?5object?5header?$AA@ 00066a20     libeay32:err.obj
 0002:00000a38       ??_C@_0BC@JPACPGKL@nested?5asn1?5error?$AA@ 00066a38     libeay32:err.obj
 0002:00000a4c       ??_C@_06JPOPAJEJ@TS?5lib?$AA@ 00066a4c     libeay32:err.obj
 0002:00000a54       ??_C@_08BIAIHGB@OCSP?5lib?$AA@ 00066a54     libeay32:err.obj
 0002:00000a60       ??_C@_0L@NEGIHAGL@ENGINE?5lib?$AA@ 00066a60     libeay32:err.obj
 0002:00000a6c       ??_C@_07HLMFDJCH@DSO?5lib?$AA@ 00066a6c     libeay32:err.obj
 0002:00000a74       ??_C@_08IAGEJILJ@RAND?5lib?$AA@ 00066a74     libeay32:err.obj
 0002:00000a80       ??_C@_0L@FBHADCPC@PKCS12?5lib?$AA@ 00066a80     libeay32:err.obj
 0002:00000a8c       ??_C@_0L@OHLIEDB@X509V3?5lib?$AA@ 00066a8c     libeay32:err.obj
 0002:00000a98       ??_C@_09PFAKBDBP@PKCS7?5lib?$AA@ 00066a98     libeay32:err.obj
 0002:00000aa4       ??_C@_07HOAEPDCA@BIO?5lib?$AA@ 00066aa4     libeay32:err.obj
 0002:00000aac       ??_C@_07ILCPHDLL@SSL?5lib?$AA@ 00066aac     libeay32:err.obj
 0002:00000ab4       ??_C@_06FNJAJMKI@EC?5lib?$AA@ 00066ab4     libeay32:err.obj
 0002:00000abc       ??_C@_0L@GEIMIIEL@CRYPTO?5lib?$AA@ 00066abc     libeay32:err.obj
 0002:00000ac8       ??_C@_08GDJNHNLC@CONF?5lib?$AA@ 00066ac8     libeay32:err.obj
 0002:00000ad4       ??_C@_08HAFIEMCJ@ASN1?5lib?$AA@ 00066ad4     libeay32:err.obj
 0002:00000ae0       ??_C@_08DGLLDICE@X509?5lib?$AA@ 00066ae0     libeay32:err.obj
 0002:00000aec       ??_C@_07EBMPFIFH@DSA?5lib?$AA@ 00066aec     libeay32:err.obj
 0002:00000af4       ??_C@_07MKPCAOAJ@PEM?5lib?$AA@ 00066af4     libeay32:err.obj
 0002:00000afc       ??_C@_07LHMLCDLI@OBJ?5lib?$AA@ 00066afc     libeay32:err.obj
 0002:00000b04       ??_C@_07PJHFFEFC@BUF?5lib?$AA@ 00066b04     libeay32:err.obj
 0002:00000b0c       ??_C@_07BHNHKGFA@EVP?5lib?$AA@ 00066b0c     libeay32:err.obj
 0002:00000b14       ??_C@_06JBCAGHNP@DH?5lib?$AA@ 00066b14     libeay32:err.obj
 0002:00000b1c       ??_C@_07PLBLGAPL@RSA?5lib?$AA@ 00066b1c     libeay32:err.obj
 0002:00000b24       ??_C@_06CEKJLBPI@BN?5lib?$AA@ 00066b24     libeay32:err.obj
 0002:00000b2c       ??_C@_0L@NFMIFFDK@system?5lib?$AA@ 00066b2c     libeay32:err.obj
 0002:00000b38       ??_C@_05FHPOAJDB@fread?$AA@ 00066b38     libeay32:err.obj
 0002:00000b40       ??_C@_07OPAOJOOA@opendir?$AA@ 00066b40     libeay32:err.obj
 0002:00000b48       ??_C@_0L@LNCNEFCG@WSAstartup?$AA@ 00066b48     libeay32:err.obj
 0002:00000b54       ??_C@_06MPKMECK@accept?$AA@ 00066b54     libeay32:err.obj
 0002:00000b5c       ??_C@_06OODDLKLE@listen?$AA@ 00066b5c     libeay32:err.obj
 0002:00000b64       ??_C@_04NPNJNMMP@bind?$AA@ 00066b64     libeay32:err.obj
 0002:00000b6c       ??_C@_0M@PBPOCKDG@ioctlsocket?$AA@ 00066b6c     libeay32:err.obj
 0002:00000b78       ??_C@_06HBELJPBO@socket?$AA@ 00066b78     libeay32:err.obj
 0002:00000b80       ??_C@_0O@NKLJGHIL@getservbyname?$AA@ 00066b80     libeay32:err.obj
 0002:00000b90       ??_C@_07KAIBNCHO@connect?$AA@ 00066b90     libeay32:err.obj
 0002:00000b98       ??_C@_05FFKPLNPJ@fopen?$AA@ 00066b98     libeay32:err.obj
 0002:00000ba0       ??_C@_0O@PBJMEGGG@HMAC?5routines?$AA@ 00066ba0     libeay32:err.obj
 0002:00000bb0       ??_C@_0N@MKJBFBO@CMS?5routines?$AA@ 00066bb0     libeay32:err.obj
 0002:00000bc0       ??_C@_0O@MDPFBMCI@FIPS?5routines?$AA@ 00066bc0     libeay32:err.obj
 0002:00000bd0       ??_C@_0O@LJIADBLP@OCSP?5routines?$AA@ 00066bd0     libeay32:err.obj
 0002:00000be0       ??_C@_0BA@MMHCJFKD@engine?5routines?$AA@ 00066be0     libeay32:err.obj
 0002:00000bf0       ??_C@_0BE@IMHDPIMO@time?5stamp?5routines?$AA@ 00066bf0     libeay32:err.obj
 0002:00000c04       ??_C@_0BF@BDHLAIEM@DSO?5support?5routines?$AA@ 00066c04     libeay32:err.obj
 0002:00000c1c       ??_C@_0BI@GMPKPCPG@random?5number?5generator?$AA@ 00066c1c     libeay32:err.obj
 0002:00000c34       ??_C@_0BA@KPFPMFD@PKCS12?5routines?$AA@ 00066c34     libeay32:err.obj
 0002:00000c44       ??_C@_0BB@LKDEPKLM@X509?5V3?5routines?$AA@ 00066c44     libeay32:err.obj
 0002:00000c58       ??_C@_0P@FBDCKDAN@PKCS7?5routines?$AA@ 00066c58     libeay32:err.obj
 0002:00000c68       ??_C@_0N@HGNFKBOI@BIO?5routines?$AA@ 00066c68     libeay32:err.obj
 0002:00000c78       ??_C@_0N@GAIJLNCL@SSL?5routines?$AA@ 00066c78     libeay32:err.obj
 0002:00000c88       ??_C@_0BI@NNCFPCDI@elliptic?5curve?5routines?$AA@ 00066c88     libeay32:err.obj
 0002:00000ca0       ??_C@_0BK@GOIAPJCF@common?5libcrypto?5routines?$AA@ 00066ca0     libeay32:err.obj
 0002:00000cbc       ??_C@_0BM@FNIFPKKP@configuration?5file?5routines?$AA@ 00066cbc     libeay32:err.obj
 0002:00000cd8       ??_C@_0BH@OKMDKJBH@asn1?5encoding?5routines?$AA@ 00066cd8     libeay32:err.obj
 0002:00000cf0       ??_C@_0BK@MLDIFNOG@x509?5certificate?5routines?$AA@ 00066cf0     libeay32:err.obj
 0002:00000d0c       ??_C@_0N@EPLKEPHE@dsa?5routines?$AA@ 00066d0c     libeay32:err.obj
 0002:00000d1c       ??_C@_0N@PPOIEGDJ@PEM?5routines?$AA@ 00066d1c     libeay32:err.obj
 0002:00000d2c       ??_C@_0BL@GAJLDLEG@object?5identifier?5routines?$AA@ 00066d2c     libeay32:err.obj
 0002:00000d48       ??_C@_0BH@GHBGFOKA@memory?5buffer?5routines?$AA@ 00066d48     libeay32:err.obj
 0002:00000d60       ??_C@_0BK@KCBHLAIJ@digital?5envelope?5routines?$AA@ 00066d60     libeay32:err.obj
 0002:00000d7c       ??_C@_0BI@BELEOFAM@Diffie?9Hellman?5routines?$AA@ 00066d7c     libeay32:err.obj
 0002:00000d94       ??_C@_0N@FLFIDGHD@rsa?5routines?$AA@ 00066d94     libeay32:err.obj
 0002:00000da4       ??_C@_0BA@BALAMMCD@bignum?5routines?$AA@ 00066da4     libeay32:err.obj
 0002:00000db4       ??_C@_0P@KJHLNCML@system?5library?$AA@ 00066db4     libeay32:err.obj
 0002:00000dc4       ??_C@_0BA@JLJAKIKL@unknown?5library?$AA@ 00066dc4     libeay32:err.obj
 0002:00000dd8       ??_C@_0EJ@LLHEHHLL@d?3?2wm653wehh?2platform?2mvv210?2src@ 00066dd8     libeay32:err.obj
 0002:00000e24       ??_C@_0BE@CGMKPIME@int_err_get?5?$CIerr?4c?$CJ?$AA@ 00066e24     libeay32:err.obj
 0002:00000e38       ??_C@_0BH@KBGLDIDO@int_thread_get?5?$CIerr?4c?$CJ?$AA@ 00066e38     libeay32:err.obj
 0002:00000e4f       ??_C@_00CNPNBAHC@?$AA@     00066e4f     libeay32:err.obj
 0002:00000e50       ??_C@_0FB@FHJDMCII@d?3?2wm653wehh?2platform?2mvv210?2src@ 00066e50     libeay32:eng_init.obj
 0002:00000ea8       ??_C@_0EN@HNCBNDLA@d?3?2wm653wehh?2platform?2mvv210?2src@ 00066ea8     libeay32:evp_lib.obj
 0002:00000ef8       ??_C@_0BD@LHHAEAAJ@l?5?$DM?$DN?5sizeof?$CIc?9?$DOiv?$CJ?$AA@ 00066ef8     libeay32:evp_lib.obj
 0002:00000f0c       ??_C@_0BD@CKKMELBK@j?5?$DM?$DN?5sizeof?$CIc?9?$DOiv?$CJ?$AA@ 00066f0c     libeay32:evp_lib.obj
 0002:00000fcc       ??_C@_05NEEKIFMD@fips2?$AA@ 00066fcc     libeay32:cryptlib.obj
 0002:00000fd4       ??_C@_04DJGCHAOD@fips?$AA@ 00066fd4     libeay32:cryptlib.obj
 0002:00000fdc       ??_C@_04OLDKMDKP@comp?$AA@ 00066fdc     libeay32:cryptlib.obj
 0002:00000fe4       ??_C@_05ODGDKDLF@store?$AA@ 00066fe4     libeay32:cryptlib.obj
 0002:00000fec       ??_C@_0M@FNJFEIGB@ec_pre_comp?$AA@ 00066fec     libeay32:cryptlib.obj
 0002:00000ff8       ??_C@_02LAJDHPIK@bn?$AA@   00066ff8     libeay32:cryptlib.obj
 0002:00000ffc       ??_C@_04KDGGCKGB@ecdh?$AA@ 00066ffc     libeay32:cryptlib.obj
 0002:00001004       ??_C@_02HCBHEC@ec?$AA@     00067004     libeay32:cryptlib.obj
 0002:00001008       ??_C@_05FGIDCBJD@ecdsa?$AA@ 00067008     libeay32:cryptlib.obj
 0002:00001010       ??_C@_02OGLLFMLI@ui?$AA@   00067010     libeay32:cryptlib.obj
 0002:00001014       ??_C@_06LOBMEHPF@engine?$AA@ 00067014     libeay32:cryptlib.obj
 0002:0000101c       ??_C@_07HGGNMPAJ@dynlock?$AA@ 0006701c     libeay32:cryptlib.obj
 0002:00001024       ??_C@_03NOCNOBNG@dso?$AA@  00067024     libeay32:cryptlib.obj
 0002:00001028       ??_C@_0O@PMFKBDME@debug_malloc2?$AA@ 00067028     libeay32:cryptlib.obj
 0002:00001038       ??_C@_02OCEEKELO@dh?$AA@   00067038     libeay32:cryptlib.obj
 0002:0000103c       ??_C@_0N@BGAJKBNF@RSA_blinding?$AA@ 0006703c     libeay32:cryptlib.obj
 0002:0000104c       ??_C@_07OMHHFDME@readdir?$AA@ 0006704c     libeay32:cryptlib.obj
 0002:00001054       ??_C@_0O@BFBCKHPD@gethostbyname?$AA@ 00067054     libeay32:cryptlib.obj
 0002:00001064       ??_C@_03OHAMFFNA@BIO?$AA@  00067064     libeay32:cryptlib.obj
 0002:00001068       ??_C@_0N@CLEMOJNL@debug_malloc?$AA@ 00067068     libeay32:cryptlib.obj
 0002:00001078       ??_C@_05NFNCBLNG@rand2?$AA@ 00067078     libeay32:cryptlib.obj
 0002:00001080       ??_C@_04HKINGDKC@rand?$AA@ 00067080     libeay32:cryptlib.obj
 0002:00001088       ??_C@_0L@NKBFNPDB@ssl_method?$AA@ 00067088     libeay32:cryptlib.obj
 0002:00001094       ??_C@_03DIMONNDD@ssl?$AA@  00067094     libeay32:cryptlib.obj
 0002:00001098       ??_C@_0O@LOCLBOHA@ssl_sess_cert?$AA@ 00067098     libeay32:cryptlib.obj
 0002:000010a8       ??_C@_0M@OAEAFGMD@ssl_session?$AA@ 000670a8     libeay32:cryptlib.obj
 0002:000010b4       ??_C@_08INIFBEOB@ssl_cert?$AA@ 000670b4     libeay32:cryptlib.obj
 0002:000010c0       ??_C@_07DNHKIAPH@ssl_ctx?$AA@ 000670c0     libeay32:cryptlib.obj
 0002:000010c8       ??_C@_0L@JCDDFIOK@x509_store?$AA@ 000670c8     libeay32:cryptlib.obj
 0002:000010d4       ??_C@_08NBJJIGBN@evp_pkey?$AA@ 000670d4     libeay32:cryptlib.obj
 0002:000010e0       ??_C@_03DFNMMEBL@rsa?$AA@  000670e0     libeay32:cryptlib.obj
 0002:000010e4       ??_C@_03EAKOMMFI@dsa?$AA@  000670e4     libeay32:cryptlib.obj
 0002:000010e8       ??_C@_08BHPLFFMD@x509_req?$AA@ 000670e8     libeay32:cryptlib.obj
 0002:000010f4       ??_C@_08BJFLLMNA@x509_crl?$AA@ 000670f4     libeay32:cryptlib.obj
 0002:00001100       ??_C@_09HNLHIFBP@x509_pkey?$AA@ 00067100     libeay32:cryptlib.obj
 0002:0000110c       ??_C@_09DJEHILFA@x509_info?$AA@ 0006710c     libeay32:cryptlib.obj
 0002:00001118       ??_C@_04BNGFMDFF@x509?$AA@ 00067118     libeay32:cryptlib.obj
 0002:00001120       ??_C@_07OALPHBKG@ex_data?$AA@ 00067120     libeay32:cryptlib.obj
 0002:00001128       ??_C@_03JIDPIAJI@err?$AA@  00067128     libeay32:cryptlib.obj
 0002:0000112c       ??_C@_09OGFJIAEE@?$DM?$DMERROR?$DO?$DO?$AA@ 0006712c     libeay32:cryptlib.obj
 0002:00001138       ??_C@_0EK@JACEKOIE@d?3?2wm653wehh?2platform?2mvv210?2src@ 00067138     libeay32:cryptlib.obj
 0002:00001184       ??_C@_1BO@DCCMIJEM@?$AAO?$AAp?$AAe?$AAn?$AAS?$AAS?$AAL?$AA?3?$AA?5?$AAF?$AAA?$AAT?$AAA?$AAL?$AA?$AA@ 00067184     libeay32:cryptlib.obj
 0002:000011a4       ??_C@_1BE@NLCFDLCA@?$AAn?$AAo?$AA?5?$AAs?$AAt?$AAa?$AAc?$AAk?$AA?$DP?$AA?$AA@ 000671a4     libeay32:cryptlib.obj
 0002:000011b8       ??_C@_0DG@JJAMFCAP@?$CFs?$CI?$CFd?$CJ?3?5OpenSSL?5internal?5error?0?5@ 000671b8     libeay32:cryptlib.obj
 0002:000011f0       ??_C@_0BA@LPBALOME@pointer?5?$CB?$DN?5NULL?$AA@ 000671f0     libeay32:cryptlib.obj
 0002:00001200       ??_C@_0EO@DEEJNAGE@d?3?2wm653wehh?2platform?2mvv210?2src@ 00067200     libeay32:rsa_crpt.obj
 0002:00001294       ??_C@_08DFMPDBMK@X509_SIG?$AA@ 00067294     libeay32:x_sig.obj
 0002:000012a0       ??_C@_05CJCEEADM@algor?$AA@ 000672a0     libeay32:x_sig.obj
 0002:0000aa40       ??_C@_09FHIEKOPH@rsaesOaep?$AA@ 00070a40     libeay32:obj_dat.obj
 0002:0000aa4c       ??_C@_0L@NCPDMLAN@RSAES?9OAEP?$AA@ 00070a4c     libeay32:obj_dat.obj
 0002:0000aa58       ??_C@_0BG@MBIALEGA@aes?9256?9cbc?9hmac?9sha1?$AA@ 00070a58     libeay32:obj_dat.obj
 0002:0000aa70       ??_C@_0BG@NJKHMG@AES?9256?9CBC?9HMAC?9SHA1?$AA@ 00070a70     libeay32:obj_dat.obj
 0002:0000aa88       ??_C@_0BG@GKCPENNE@aes?9192?9cbc?9hmac?9sha1?$AA@ 00070a88     libeay32:obj_dat.obj
 0002:0000aaa0       ??_C@_0BG@KLHGFOHC@AES?9192?9CBC?9HMAC?9SHA1?$AA@ 00070aa0     libeay32:obj_dat.obj
 0002:0000aab8       ??_C@_0BG@CLBGODOC@aes?9128?9cbc?9hmac?9sha1?$AA@ 00070ab8     libeay32:obj_dat.obj
 0002:0000aad0       ??_C@_0BG@OKEPPAEE@AES?9128?9CBC?9HMAC?9SHA1?$AA@ 00070ad0     libeay32:obj_dat.obj
 0002:0000aae8       ??_C@_0N@EFPJLHOG@rc4?9hmac?9md5?$AA@ 00070ae8     libeay32:obj_dat.obj
 0002:0000aaf8       ??_C@_0N@MFFPBCGK@RC4?9HMAC?9MD5?$AA@ 00070af8     libeay32:obj_dat.obj
 0002:0000ab08       ??_C@_0M@FHDOMLNI@aes?9256?9xts?$AA@ 00070b08     libeay32:obj_dat.obj
 0002:0000ab14       ??_C@_0M@ILDFFBFL@AES?9256?9XTS?$AA@ 00070b14     libeay32:obj_dat.obj
 0002:0000ab20       ??_C@_0M@CGBMJDMF@aes?9128?9xts?$AA@ 00070b20     libeay32:obj_dat.obj
 0002:0000ab2c       ??_C@_0M@PKBHAJEG@AES?9128?9XTS?$AA@ 00070b2c     libeay32:obj_dat.obj
 0002:0000ab38       ??_C@_09FGGKIFKD@rsassaPss?$AA@ 00070b38     libeay32:obj_dat.obj
 0002:0000ab44       ??_C@_0L@CPMAKEFG@RSASSA?9PSS?$AA@ 00070b44     libeay32:obj_dat.obj
 0002:0000ab50       ??_C@_04HEIJMEIE@mgf1?$AA@ 00070b50     libeay32:obj_dat.obj
 0002:0000ab58       ??_C@_04CNDHACFO@MGF1?$AA@ 00070b58     libeay32:obj_dat.obj
 0002:0000ab60       ??_C@_0BH@FHBOBBKO@Any?5Extended?5Key?5Usage?$AA@ 00070b60     libeay32:obj_dat.obj
 0002:0000ab78       ??_C@_0BE@FKFLDMON@anyExtendedKeyUsage?$AA@ 00070b78     libeay32:obj_dat.obj
 0002:0000ab8c       ??_C@_0BE@PHKLGFJC@id?9camellia256?9wrap?$AA@ 00070b8c     libeay32:obj_dat.obj
 0002:0000aba0       ??_C@_0BE@GNMGGIAL@id?9camellia192?9wrap?$AA@ 00070ba0     libeay32:obj_dat.obj
 0002:0000abb4       ??_C@_0BE@JENMCLBD@id?9camellia128?9wrap?$AA@ 00070bb4     libeay32:obj_dat.obj
 0002:0000abc8       ??_C@_0M@MJDNCKAH@aes?9256?9ctr?$AA@ 00070bc8     libeay32:obj_dat.obj
 0002:0000abd4       ??_C@_0M@BFDGLAIE@AES?9256?9CTR?$AA@ 00070bd4     libeay32:obj_dat.obj
 0002:0000abe0       ??_C@_0M@BLIDAFIG@aes?9192?9ctr?$AA@ 00070be0     libeay32:obj_dat.obj
 0002:0000abec       ??_C@_0M@MHIIJPAF@AES?9192?9CTR?$AA@ 00070bec     libeay32:obj_dat.obj
 0002:0000abf8       ??_C@_0M@LIBPHCBK@aes?9128?9ctr?$AA@ 00070bf8     libeay32:obj_dat.obj
 0002:0000ac04       ??_C@_0M@GEBEOIJJ@AES?9128?9CTR?$AA@ 00070c04     libeay32:obj_dat.obj
 0002:0000ac10       ??_C@_0BD@OHLFOIJM@id?9aes256?9wrap?9pad?$AA@ 00070c10     libeay32:obj_dat.obj
 0002:0000ac24       ??_C@_0M@BNAOJBGM@aes?9256?9ccm?$AA@ 00070c24     libeay32:obj_dat.obj
 0002:0000ac30       ??_C@_0O@EDMKMBKB@id?9aes256?9CCM?$AA@ 00070c30     libeay32:obj_dat.obj
 0002:0000ac40       ??_C@_0M@JCGMAGDL@aes?9256?9gcm?$AA@ 00070c40     libeay32:obj_dat.obj
 0002:0000ac4c       ??_C@_0O@MMKIFGPG@id?9aes256?9GCM?$AA@ 00070c4c     libeay32:obj_dat.obj
 0002:0000ac5c       ??_C@_0BD@OPKMLKFB@id?9aes192?9wrap?9pad?$AA@ 00070c5c     libeay32:obj_dat.obj
 0002:0000ac70       ??_C@_0M@MPLALOON@aes?9192?9ccm?$AA@ 00070c70     libeay32:obj_dat.obj
 0002:0000ac7c       ??_C@_0O@JBHEOOCA@id?9aes192?9CCM?$AA@ 00070c7c     libeay32:obj_dat.obj
 0002:0000ac8c       ??_C@_0M@EANCCJLK@aes?9192?9gcm?$AA@ 00070c8c     libeay32:obj_dat.obj
 0002:0000ac98       ??_C@_0O@BOBGHJHH@id?9aes192?9GCM?$AA@ 00070c98     libeay32:obj_dat.obj
 0002:0000aca8       ??_C@_0BD@HMJBEGNL@id?9aes128?9wrap?9pad?$AA@ 00070ca8     libeay32:obj_dat.obj
 0002:0000acbc       ??_C@_0M@GMCMMJHB@aes?9128?9ccm?$AA@ 00070cbc     libeay32:obj_dat.obj
 0002:0000acc8       ??_C@_0O@DCOIJJLM@id?9aes128?9CCM?$AA@ 00070cc8     libeay32:obj_dat.obj
 0002:0000acd8       ??_C@_0M@ODEOFOCG@aes?9128?9gcm?$AA@ 00070cd8     libeay32:obj_dat.obj
 0002:0000ace4       ??_C@_0O@LNIKAOOL@id?9aes128?9GCM?$AA@ 00070ce4     libeay32:obj_dat.obj
 0002:0000acf4       ??_C@_04CJMGLDNC@cmac?$AA@ 00070cf4     libeay32:obj_dat.obj
 0002:0000acfc       ??_C@_04OFPMFBKK@CMAC?$AA@ 00070cfc     libeay32:obj_dat.obj
 0002:0000ad04       ??_C@_0BA@NJOHMDIG@id?9alg?9PWRI?9KEK?$AA@ 00070d04     libeay32:obj_dat.obj
 0002:0000ad14       ??_C@_07ILKEFPGB@dmdName?$AA@ 00070d14     libeay32:obj_dat.obj
 0002:0000ad1c       ??_C@_0BE@MNOFELKF@deltaRevocationList?$AA@ 00070d1c     libeay32:obj_dat.obj
 0002:0000ad30       ??_C@_0BE@KGOGIPEN@supportedAlgorithms?$AA@ 00070d30     libeay32:obj_dat.obj
 0002:0000ad44       ??_C@_0BA@EKKIBBF@houseIdentifier?$AA@ 00070d44     libeay32:obj_dat.obj
 0002:0000ad54       ??_C@_0N@FIGDLDDJ@uniqueMember?$AA@ 00070d54     libeay32:obj_dat.obj
 0002:0000ad64       ??_C@_0BC@IIJOGNNH@distinguishedName?$AA@ 00070d64     libeay32:obj_dat.obj
 0002:0000ad78       ??_C@_0BE@FKAMNJMM@protocolInformation?$AA@ 00070d78     libeay32:obj_dat.obj
 0002:0000ad8c       ??_C@_0BE@NNAGLFEM@enhancedSearchGuide?$AA@ 00070d8c     libeay32:obj_dat.obj
 0002:0000ada0       ??_C@_0BF@GAAPBDAE@crossCertificatePair?$AA@ 00070da0     libeay32:obj_dat.obj
 0002:0000adb8       ??_C@_0BK@IMFDMOND@certificateRevocationList?$AA@ 00070db8     libeay32:obj_dat.obj
 0002:0000add4       ??_C@_0BI@EODAEBFG@authorityRevocationList?$AA@ 00070dd4     libeay32:obj_dat.obj
 0002:0000adec       ??_C@_0O@JJCNKCKK@cACertificate?$AA@ 00070dec     libeay32:obj_dat.obj
 0002:0000adfc       ??_C@_0BA@FEECIELF@userCertificate?$AA@ 00070dfc     libeay32:obj_dat.obj
 0002:0000ae0c       ??_C@_0N@JHMNNHKM@userPassword?$AA@ 00070e0c     libeay32:obj_dat.obj
 0002:0000ae1c       ??_C@_07JJAENDGN@seeAlso?$AA@ 00070e1c     libeay32:obj_dat.obj
 0002:0000ae24       ??_C@_0N@NAEJMDPF@roleOccupant?$AA@ 00070e24     libeay32:obj_dat.obj
 0002:0000ae34       ??_C@_05HEIBENID@owner?$AA@ 00070e34     libeay32:obj_dat.obj
 0002:0000ae3c       ??_C@_06HDFDANIG@member?$AA@ 00070e3c     libeay32:obj_dat.obj
 0002:0000ae44       ??_C@_0BM@NHJFOGBI@supportedApplicationContext?$AA@ 00070e44     libeay32:obj_dat.obj
 0002:0000ae60       ??_C@_0BE@KHACCONJ@presentationAddress?$AA@ 00070e60     libeay32:obj_dat.obj
 0002:0000ae74       ??_C@_0BI@MKMMOKIA@preferredDeliveryMethod?$AA@ 00070e74     libeay32:obj_dat.obj
 0002:0000ae8c       ??_C@_0BF@CMAFNEOO@destinationIndicator?$AA@ 00070e8c     libeay32:obj_dat.obj
 0002:0000aea4       ??_C@_0BC@DLLOJDNE@registeredAddress?$AA@ 00070ea4     libeay32:obj_dat.obj
 0002:0000aeb8       ??_C@_0BI@OAHCBLEE@internationaliSDNNumber?$AA@ 00070eb8     libeay32:obj_dat.obj
 0002:0000aed0       ??_C@_0M@MOCAHDLJ@x121Address?$AA@ 00070ed0     libeay32:obj_dat.obj
 0002:0000aedc       ??_C@_0BJ@NDMMBDAB@facsimileTelephoneNumber?$AA@ 00070edc     libeay32:obj_dat.obj
 0002:0000aef8       ??_C@_0BK@BBNEJJDC@teletexTerminalIdentifier?$AA@ 00070ef8     libeay32:obj_dat.obj
 0002:0000af14       ??_C@_0M@MMDMBPMM@telexNumber?$AA@ 00070f14     libeay32:obj_dat.obj
 0002:0000af20       ??_C@_0BA@NCAGJGBF@telephoneNumber?$AA@ 00070f20     libeay32:obj_dat.obj
 0002:0000af30       ??_C@_0BL@DENBGONK@physicalDeliveryOfficeName?$AA@ 00070f30     libeay32:obj_dat.obj
 0002:0000af4c       ??_C@_0O@PCCHCGPG@postOfficeBox?$AA@ 00070f4c     libeay32:obj_dat.obj
 0002:0000af5c       ??_C@_0O@KABBPKPG@postalAddress?$AA@ 00070f5c     libeay32:obj_dat.obj
 0002:0000af6c       ??_C@_0BB@GFJJGHBI@businessCategory?$AA@ 00070f6c     libeay32:obj_dat.obj
 0002:0000af80       ??_C@_0M@MCCFGANF@searchGuide?$AA@ 00070f80     libeay32:obj_dat.obj
 0002:0000af8c       ??_C@_0BF@DGGAJJCO@Permanent?5Identifier?$AA@ 00070f8c     libeay32:obj_dat.obj
 0002:0000afa4       ??_C@_0BK@BMFCOPIC@id?9on?9permanentIdentifier?$AA@ 00070fa4     libeay32:obj_dat.obj
 0002:0000afc0       ??_C@_0BE@KEJIKEFG@X509v3?5Freshest?5CRL?$AA@ 00070fc0     libeay32:obj_dat.obj
 0002:0000afd4       ??_C@_0M@PKNKMHEG@freshestCRL?$AA@ 00070fd4     libeay32:obj_dat.obj
 0002:0000afe0       ??_C@_0BI@FMFOLFMC@Microsoft?5Local?5Key?5set?$AA@ 00070fe0     libeay32:obj_dat.obj
 0002:0000aff8       ??_C@_0M@LCODBGNO@LocalKeySet?$AA@ 00070ff8     libeay32:obj_dat.obj
 0002:0000b004       ??_C@_04FOBGICMD@hmac?$AA@ 00071004     libeay32:obj_dat.obj
 0002:0000b00c       ??_C@_04JCCMGALL@HMAC?$AA@ 0007100c     libeay32:obj_dat.obj
 0002:0000b014       ??_C@_0CJ@NCCJHEBD@GOST?5R?53410?92001?5Parameter?5Set?5C@ 00071014     libeay32:obj_dat.obj
 0002:0000b040       ??_C@_0BO@LBPHKLOM@id?9GostR3410?92001?9ParamSet?9cc?$AA@ 00071040     libeay32:obj_dat.obj
 0002:0000b060       ??_C@_0DB@BGOOPLFE@GOST?5R?534?411?994?5with?5GOST?5R?534?41@ 00071060     libeay32:obj_dat.obj
 0002:0000b094       ??_C@_0CH@JJNMILDM@id?9GostR3411?994?9with?9GostR3410?92@ 00071094     libeay32:obj_dat.obj
 0002:0000b0bc       ??_C@_0CP@ILDIBBAJ@GOST?5R?534?411?994?5with?5GOST?5R?534?41@ 000710bc     libeay32:obj_dat.obj
 0002:0000b0ec       ??_C@_0CF@FCIKJGLH@id?9GostR3411?994?9with?9GostR3410?99@ 000710ec     libeay32:obj_dat.obj
 0002:0000b114       ??_C@_0BK@IGCJADLM@GOST?534?410?92001?5Cryptocom?$AA@ 00071114     libeay32:obj_dat.obj
 0002:0000b130       ??_C@_0L@PKDOCLKG@gost2001cc?$AA@ 00071130     libeay32:obj_dat.obj
 0002:0000b13c       ??_C@_0BI@GJIILMEB@GOST?534?410?994?5Cryptocom?$AA@ 0007113c     libeay32:obj_dat.obj
 0002:0000b154       ??_C@_08LCDFMIFG@gost94cc?$AA@ 00071154     libeay32:obj_dat.obj
 0002:0000b160       ??_C@_0CB@KNOPDNHN@GOST?528147?989?5Cryptocom?5ParamSet@ 00071160     libeay32:obj_dat.obj
 0002:0000b184       ??_C@_0BD@MEAAKKFJ@id?9Gost28147?989?9cc?$AA@ 00071184     libeay32:obj_dat.obj
 0002:0000b198       ??_C@_0BF@PGMBMCGF@id?9GostR3410?994?9bBis?$AA@ 00071198     libeay32:obj_dat.obj
 0002:0000b1b0       ??_C@_0BC@MKOAJFN@id?9GostR3410?994?9b?$AA@ 000711b0     libeay32:obj_dat.obj
 0002:0000b1c4       ??_C@_0BF@LBGBLILF@id?9GostR3410?994?9aBis?$AA@ 000711c4     libeay32:obj_dat.obj
 0002:0000b1dc       ??_C@_0BC@CHIDFKJO@id?9GostR3410?994?9a?$AA@ 000711dc     libeay32:obj_dat.obj
 0002:0000b1f0       ??_C@_0CK@GDLEHLKF@id?9GostR3410?92001?9CryptoPro?9XchB@ 000711f0     libeay32:obj_dat.obj
 0002:0000b21c       ??_C@_0CK@PKFGBNKE@id?9GostR3410?92001?9CryptoPro?9XchA@ 0007121c     libeay32:obj_dat.obj
 0002:0000b248       ??_C@_0CH@DLGDIIGO@id?9GostR3410?92001?9CryptoPro?9C?9Pa@ 00071248     libeay32:obj_dat.obj
 0002:0000b270       ??_C@_0CH@PKONFHKO@id?9GostR3410?92001?9CryptoPro?9B?9Pa@ 00071270     libeay32:obj_dat.obj
 0002:0000b298       ??_C@_0CH@GDAPDBKP@id?9GostR3410?92001?9CryptoPro?9A?9Pa@ 00071298     libeay32:obj_dat.obj
 0002:0000b2c0       ??_C@_0BP@GEEJLPDI@id?9GostR3410?92001?9TestParamSet?$AA@ 000712c0     libeay32:obj_dat.obj
 0002:0000b2e0       ??_C@_0CI@DAANNIN@id?9GostR3410?994?9CryptoPro?9XchC?9P@ 000712e0     libeay32:obj_dat.obj
 0002:0000b308       ??_C@_0CI@MCIOACEN@id?9GostR3410?994?9CryptoPro?9XchB?9P@ 00071308     libeay32:obj_dat.obj
 0002:0000b330       ??_C@_0CI@FLGMGEEM@id?9GostR3410?994?9CryptoPro?9XchA?9P@ 00071330     libeay32:obj_dat.obj
 0002:0000b358       ??_C@_0CF@LMAJFDGB@id?9GostR3410?994?9CryptoPro?9D?9Para@ 00071358     libeay32:obj_dat.obj
 0002:0000b380       ??_C@_0CF@JFDCEGOC@id?9GostR3410?994?9CryptoPro?9C?9Para@ 00071380     libeay32:obj_dat.obj
 0002:0000b3a8       ??_C@_0CF@FELMJJCC@id?9GostR3410?994?9CryptoPro?9B?9Para@ 000713a8     libeay32:obj_dat.obj
 0002:0000b3d0       ??_C@_0CF@MNFOPPCD@id?9GostR3410?994?9CryptoPro?9A?9Para@ 000713d0     libeay32:obj_dat.obj
 0002:0000b3f8       ??_C@_0BN@NAOAJFAF@id?9GostR3410?994?9TestParamSet?$AA@ 000713f8     libeay32:obj_dat.obj
 0002:0000b418       ??_C@_0CJ@IIADIAJH@id?9Gost28147?989?9CryptoPro?9RIC?91?9@ 00071418     libeay32:obj_dat.obj
 0002:0000b444       ??_C@_0CN@IIJDEMNM@id?9Gost28147?989?9CryptoPro?9Oscar?9@ 00071444     libeay32:obj_dat.obj
 0002:0000b474       ??_C@_0CN@EJBNJDBM@id?9Gost28147?989?9CryptoPro?9Oscar?9@ 00071474     libeay32:obj_dat.obj
 0002:0000b4a4       ??_C@_0CF@IEBLBMOP@id?9Gost28147?989?9CryptoPro?9D?9Para@ 000714a4     libeay32:obj_dat.obj
 0002:0000b4cc       ??_C@_0CF@KNCAAJGM@id?9Gost28147?989?9CryptoPro?9C?9Para@ 000714cc     libeay32:obj_dat.obj
 0002:0000b4f4       ??_C@_0CF@GMKONGKM@id?9Gost28147?989?9CryptoPro?9B?9Para@ 000714f4     libeay32:obj_dat.obj
 0002:0000b51c       ??_C@_0CF@PFEMLAKN@id?9Gost28147?989?9CryptoPro?9A?9Para@ 0007151c     libeay32:obj_dat.obj
 0002:0000b544       ??_C@_0BN@GKJFBLMI@id?9Gost28147?989?9TestParamSet?$AA@ 00071544     libeay32:obj_dat.obj
 0002:0000b564       ??_C@_0CC@DOHJLMBI@id?9GostR3411?994?9CryptoProParamSe@ 00071564     libeay32:obj_dat.obj
 0002:0000b588       ??_C@_0BN@DPLCCDOE@id?9GostR3411?994?9TestParamSet?$AA@ 00071588     libeay32:obj_dat.obj
 0002:0000b5a8       ??_C@_0CA@BLJAEGEG@id?9Gost28147?989?9None?9KeyMeshing?$AA@ 000715a8     libeay32:obj_dat.obj
 0002:0000b5c8       ??_C@_0CF@MMKONEIK@id?9Gost28147?989?9CryptoPro?9KeyMes@ 000715c8     libeay32:obj_dat.obj
 0002:0000b5f0       ??_C@_0BD@LGKAOLPL@GOST?5R?534?410?994?5DH?$AA@ 000715f0     libeay32:obj_dat.obj
 0002:0000b604       ??_C@_0BC@CEMDDFNK@id?9GostR3410?994DH?$AA@ 00071604     libeay32:obj_dat.obj
 0002:0000b618       ??_C@_0BF@OKPANPLK@GOST?5R?534?410?92001?5DH?$AA@ 00071618     libeay32:obj_dat.obj
 0002:0000b630       ??_C@_0BE@OBKEJCJB@id?9GostR3410?92001DH?$AA@ 00071630     libeay32:obj_dat.obj
 0002:0000b644       ??_C@_0BE@FFELJBNB@GOST?5R?534?411?994?5PRF?$AA@ 00071644     libeay32:obj_dat.obj
 0002:0000b658       ??_C@_0BB@LJIINAAP@prf?9gostr3411?994?$AA@ 00071658     libeay32:obj_dat.obj
 0002:0000b66c       ??_C@_0BC@BPAGAEJB@GOST?528147?989?5MAC?$AA@ 0007166c     libeay32:obj_dat.obj
 0002:0000b680       ??_C@_08JCNEGNFC@gost?9mac?$AA@ 00071680     libeay32:obj_dat.obj
 0002:0000b68c       ??_C@_0L@INGOKGPP@gost89?9cnt?$AA@ 0007168c     libeay32:obj_dat.obj
 0002:0000b698       ??_C@_0O@POKHNLDL@GOST?528147?989?$AA@ 00071698     libeay32:obj_dat.obj
 0002:0000b6a8       ??_C@_06KLPDHLCD@gost89?$AA@ 000716a8     libeay32:obj_dat.obj
 0002:0000b6b0       ??_C@_0BA@JOCBNIHN@GOST?5R?534?410?994?$AA@ 000716b0     libeay32:obj_dat.obj
 0002:0000b6c0       ??_C@_06BPJPGPFJ@gost94?$AA@ 000716c0     libeay32:obj_dat.obj
 0002:0000b6c8       ??_C@_0BC@IBNIHBI@GOST?5R?534?410?92001?$AA@ 000716c8     libeay32:obj_dat.obj
 0002:0000b6dc       ??_C@_08KMPAMBCP@gost2001?$AA@ 000716dc     libeay32:obj_dat.obj
 0002:0000b6e8       ??_C@_0BD@BHKLGKNG@HMAC?5GOST?534?411?994?$AA@ 000716e8     libeay32:obj_dat.obj
 0002:0000b6fc       ??_C@_0BE@EBBOKDGI@id?9HMACGostR3411?994?$AA@ 000716fc     libeay32:obj_dat.obj
 0002:0000b710       ??_C@_0BA@KDEBPBMN@GOST?5R?534?411?994?$AA@ 00071710     libeay32:obj_dat.obj
 0002:0000b720       ??_C@_09MIOJGGFD@md_gost94?$AA@ 00071720     libeay32:obj_dat.obj
 0002:0000b72c       ??_C@_0CF@PAGBHGOC@GOST?5R?534?411?994?5with?5GOST?5R?534?41@ 0007172c     libeay32:obj_dat.obj
 0002:0000b754       ??_C@_0CC@LCAPGDKC@id?9GostR3411?994?9with?9GostR3410?99@ 00071754     libeay32:obj_dat.obj
 0002:0000b778       ??_C@_0CH@MPKKPBGC@GOST?5R?534?411?994?5with?5GOST?5R?534?41@ 00071778     libeay32:obj_dat.obj
 0002:0000b7a0       ??_C@_0CE@FCAOBIOC@id?9GostR3411?994?9with?9GostR3410?92@ 000717a0     libeay32:obj_dat.obj
 0002:0000b7c4       ??_C@_09JGBNPHGI@cryptocom?$AA@ 000717c4     libeay32:obj_dat.obj
 0002:0000b7d0       ??_C@_09PCHJFNLI@cryptopro?$AA@ 000717d0     libeay32:obj_dat.obj
 0002:0000b7dc       ??_C@_09DEGKDAEL@whirlpool?$AA@ 000717dc     libeay32:obj_dat.obj
 0002:0000b7e8       ??_C@_0BA@FMFCOCGA@dsa_with_SHA256?$AA@ 000717e8     libeay32:obj_dat.obj
 0002:0000b7f8       ??_C@_0BA@GLCLJGGH@dsa_with_SHA224?$AA@ 000717f8     libeay32:obj_dat.obj
 0002:0000b808       ??_C@_0P@FLKKCAHA@hmacWithSHA512?$AA@ 00071808     libeay32:obj_dat.obj
 0002:0000b818       ??_C@_0P@CHEKODKF@hmacWithSHA384?$AA@ 00071818     libeay32:obj_dat.obj
 0002:0000b828       ??_C@_0P@KFBIHFBB@hmacWithSHA256?$AA@ 00071828     libeay32:obj_dat.obj
 0002:0000b838       ??_C@_0P@JCGBABBG@hmacWithSHA224?$AA@ 00071838     libeay32:obj_dat.obj
 0002:0000b848       ??_C@_0M@KOBPMNIO@hmacWithMD5?$AA@ 00071848     libeay32:obj_dat.obj
 0002:0000b854       ??_C@_0BC@DONDMJAG@ecdsa?9with?9SHA512?$AA@ 00071854     libeay32:obj_dat.obj
 0002:0000b868       ??_C@_0BC@ECDDAKND@ecdsa?9with?9SHA384?$AA@ 00071868     libeay32:obj_dat.obj
 0002:0000b87c       ??_C@_0BC@MAGBJMGH@ecdsa?9with?9SHA256?$AA@ 0007187c     libeay32:obj_dat.obj
 0002:0000b890       ??_C@_0BC@PHBIOIGA@ecdsa?9with?9SHA224?$AA@ 00071890     libeay32:obj_dat.obj
 0002:0000b8a4       ??_C@_0BF@INFCLNHO@ecdsa?9with?9Specified?$AA@ 000718a4     libeay32:obj_dat.obj
 0002:0000b8bc       ??_C@_0BH@GCJALNKM@ecdsa?9with?9Recommended?$AA@ 000718bc     libeay32:obj_dat.obj
 0002:0000b8d4       ??_C@_0P@KDMMBOEP@id?9aes256?9wrap?$AA@ 000718d4     libeay32:obj_dat.obj
 0002:0000b8e4       ??_C@_0P@DJKBBDNG@id?9aes192?9wrap?$AA@ 000718e4     libeay32:obj_dat.obj
 0002:0000b8f4       ??_C@_0P@MALLFAMO@id?9aes128?9wrap?$AA@ 000718f4     libeay32:obj_dat.obj
 0002:0000b904       ??_C@_0BI@FNBGJEPL@id?9ct?9asciiTextWithCRLF?$AA@ 00071904     libeay32:obj_dat.obj
 0002:0000b91c       ??_C@_0BL@HEJKLKLL@id?9smime?9ct?9compressedData?$AA@ 0007191c     libeay32:obj_dat.obj
 0002:0000b938       ??_C@_0O@LBCGFGCI@CA?5Repository?$AA@ 00071938     libeay32:obj_dat.obj
 0002:0000b948       ??_C@_0N@CKNFLOGG@caRepository?$AA@ 00071948     libeay32:obj_dat.obj
 0002:0000b958       ??_C@_0BD@MGCOMIO@id?9it?9suppLangTags?$AA@ 00071958     libeay32:obj_dat.obj
 0002:0000b96c       ??_C@_0BJ@CDGIGDFG@Diffie?9Hellman?5based?5MAC?$AA@ 0007196c     libeay32:obj_dat.obj
 0002:0000b988       ??_C@_0O@MEHCKGFD@id?9DHBasedMac?$AA@ 00071988     libeay32:obj_dat.obj
 0002:0000b998       ??_C@_0BD@FANJCJAP@password?5based?5MAC?$AA@ 00071998     libeay32:obj_dat.obj
 0002:0000b9ac       ??_C@_0BE@HCNFOMHA@id?9PasswordBasedMAC?$AA@ 000719ac     libeay32:obj_dat.obj
 0002:0000b9c0       ??_C@_09KBOMLGBN@hmac?9sha1?$AA@ 000719c0     libeay32:obj_dat.obj
 0002:0000b9cc       ??_C@_09DDFKKHO@HMAC?9SHA1?$AA@ 000719cc     libeay32:obj_dat.obj
 0002:0000b9d8       ??_C@_08LPACCAD@hmac?9md5?$AA@ 000719d8     libeay32:obj_dat.obj
 0002:0000b9e4       ??_C@_08CABJBHIC@HMAC?9MD5?$AA@ 000719e4     libeay32:obj_dat.obj
 0002:0000b9f0       ??_C@_08JGLJJHP@seed?9cfb?$AA@ 000719f0     libeay32:obj_dat.obj
 0002:0000b9fc       ??_C@_08LHAGIIFM@SEED?9CFB?$AA@ 000719fc     libeay32:obj_dat.obj
 0002:0000ba08       ??_C@_08EDLNCGMH@seed?9ofb?$AA@ 00071a08     libeay32:obj_dat.obj
 0002:0000ba14       ??_C@_08PNNADHOE@SEED?9OFB?$AA@ 00071a14     libeay32:obj_dat.obj
 0002:0000ba20       ??_C@_08BHHJAAOC@seed?9cbc?$AA@ 00071a20     libeay32:obj_dat.obj
 0002:0000ba2c       ??_C@_08KJBEBBMB@SEED?9CBC?$AA@ 00071a2c     libeay32:obj_dat.obj
 0002:0000ba38       ??_C@_08CKMLAEEI@seed?9ecb?$AA@ 00071a38     libeay32:obj_dat.obj
 0002:0000ba44       ??_C@_08JEKGBFGL@SEED?9ECB?$AA@ 00071a44     libeay32:obj_dat.obj
 0002:0000ba50       ??_C@_04LLEAHKNI@kisa?$AA@ 00071a50     libeay32:obj_dat.obj
 0002:0000ba58       ??_C@_04HHHKJIKA@KISA?$AA@ 00071a58     libeay32:obj_dat.obj
 0002:0000ba60       ??_C@_0BK@EMNEMCDI@X509v3?5Certificate?5Issuer?$AA@ 00071a60     libeay32:obj_dat.obj
 0002:0000ba7c       ??_C@_0BC@NAJGKAHO@certificateIssuer?$AA@ 00071a7c     libeay32:obj_dat.obj
 0002:0000ba90       ??_C@_0CC@MMIACGNM@X509v3?5Issuing?5Distrubution?5Poin@ 00071a90     libeay32:obj_dat.obj
 0002:0000bab4       ??_C@_0BJ@OAOPOBMH@issuingDistributionPoint?$AA@ 00071ab4     libeay32:obj_dat.obj
 0002:0000bad0       ??_C@_0CE@OGGDDHCK@X509v3?5Subject?5Directory?5Attribu@ 00071ad0     libeay32:obj_dat.obj
 0002:0000baf4       ??_C@_0BL@GAJEKNCJ@subjectDirectoryAttributes?$AA@ 00071af4     libeay32:obj_dat.obj
 0002:0000bb10       ??_C@_0BB@EGAOKAEM@camellia?9256?9ofb?$AA@ 00071b10     libeay32:obj_dat.obj
 0002:0000bb24       ??_C@_0BB@FFEGHOPL@CAMELLIA?9256?9OFB?$AA@ 00071b24     libeay32:obj_dat.obj
 0002:0000bb38       ??_C@_0BB@JELAIPMN@camellia?9192?9ofb?$AA@ 00071b38     libeay32:obj_dat.obj
 0002:0000bb4c       ??_C@_0BB@IHPIFBHK@CAMELLIA?9192?9OFB?$AA@ 00071b4c     libeay32:obj_dat.obj
 0002:0000bb60       ??_C@_0BB@DHCMPIFB@camellia?9128?9ofb?$AA@ 00071b60     libeay32:obj_dat.obj
 0002:0000bb74       ??_C@_0BB@CEGECGOG@CAMELLIA?9128?9OFB?$AA@ 00071b74     libeay32:obj_dat.obj
 0002:0000bb88       ??_C@_0BC@KNEDFCOB@camellia?9256?9cfb8?$AA@ 00071b88     libeay32:obj_dat.obj
 0002:0000bb9c       ??_C@_0BC@PIFFDMBA@CAMELLIA?9256?9CFB8?$AA@ 00071b9c     libeay32:obj_dat.obj
 0002:0000bbb0       ??_C@_0BC@DHCOFPHI@camellia?9192?9cfb8?$AA@ 00071bb0     libeay32:obj_dat.obj
 0002:0000bbc4       ??_C@_0BC@GCDIDBIJ@CAMELLIA?9192?9CFB8?$AA@ 00071bc4     libeay32:obj_dat.obj
 0002:0000bbd8       ??_C@_0BC@MODEBMGA@camellia?9128?9cfb8?$AA@ 00071bd8     libeay32:obj_dat.obj
 0002:0000bbec       ??_C@_0BC@JLCCHCJB@CAMELLIA?9128?9CFB8?$AA@ 00071bec     libeay32:obj_dat.obj
 0002:0000bc00       ??_C@_0BC@HMIBOJKI@camellia?9256?9cfb1?$AA@ 00071c00     libeay32:obj_dat.obj
 0002:0000bc14       ??_C@_0BC@CJJHIHFJ@CAMELLIA?9256?9CFB1?$AA@ 00071c14     libeay32:obj_dat.obj
 0002:0000bc28       ??_C@_0BC@OGOMOEDB@camellia?9192?9cfb1?$AA@ 00071c28     libeay32:obj_dat.obj
 0002:0000bc3c       ??_C@_0BC@LDPKIKMA@CAMELLIA?9192?9CFB1?$AA@ 00071c3c     libeay32:obj_dat.obj
 0002:0000bc50       ??_C@_0BC@BPPGKHCJ@camellia?9128?9cfb1?$AA@ 00071c50     libeay32:obj_dat.obj
 0002:0000bc64       ??_C@_0BC@EKOAMJNI@CAMELLIA?9128?9CFB1?$AA@ 00071c64     libeay32:obj_dat.obj
 0002:0000bc78       ??_C@_0BB@MNIBPPE@camellia?9256?9cfb?$AA@ 00071c78     libeay32:obj_dat.obj
 0002:0000bc8c       ??_C@_0BB@BPJAMBED@CAMELLIA?9256?9CFB?$AA@ 00071c8c     libeay32:obj_dat.obj
 0002:0000bca0       ??_C@_0BB@NOGGDAHF@camellia?9192?9cfb?$AA@ 00071ca0     libeay32:obj_dat.obj
 0002:0000bcb4       ??_C@_0BB@MNCOOOMC@CAMELLIA?9192?9CFB?$AA@ 00071cb4     libeay32:obj_dat.obj
 0002:0000bcc8       ??_C@_0BB@HNPKEHOJ@camellia?9128?9cfb?$AA@ 00071cc8     libeay32:obj_dat.obj
 0002:0000bcdc       ??_C@_0BB@GOLCJJFO@CAMELLIA?9128?9CFB?$AA@ 00071cdc     libeay32:obj_dat.obj
 0002:0000bcf0       ??_C@_0BB@CPHIICMD@camellia?9256?9ecb?$AA@ 00071cf0     libeay32:obj_dat.obj
 0002:0000bd04       ??_C@_0BB@DMDAFMHE@CAMELLIA?9256?9ECB?$AA@ 00071d04     libeay32:obj_dat.obj
 0002:0000bd18       ??_C@_0BB@PNMGKNEC@camellia?9192?9ecb?$AA@ 00071d18     libeay32:obj_dat.obj
 0002:0000bd2c       ??_C@_0BB@OOIOHDPF@CAMELLIA?9192?9ECB?$AA@ 00071d2c     libeay32:obj_dat.obj
 0002:0000bd40       ??_C@_0BB@FOFKNKNO@camellia?9128?9ecb?$AA@ 00071d40     libeay32:obj_dat.obj
 0002:0000bd54       ??_C@_0BB@ENBCAEGJ@CAMELLIA?9128?9ECB?$AA@ 00071d54     libeay32:obj_dat.obj
 0002:0000bd68       ??_C@_0BB@BCMKIGGJ@camellia?9256?9cbc?$AA@ 00071d68     libeay32:obj_dat.obj
 0002:0000bd7c       ??_C@_0BB@BICFINO@CAMELLIA?9256?9CBC?$AA@ 00071d7c     libeay32:obj_dat.obj
 0002:0000bd90       ??_C@_0BB@MAHEKJOI@camellia?9192?9cbc?$AA@ 00071d90     libeay32:obj_dat.obj
 0002:0000bda4       ??_C@_0BB@NDDMHHFP@CAMELLIA?9192?9CBC?$AA@ 00071da4     libeay32:obj_dat.obj
 0002:0000bdb8       ??_C@_0BB@GDOINOHE@camellia?9128?9cbc?$AA@ 00071db8     libeay32:obj_dat.obj
 0002:0000bdcc       ??_C@_0BB@HAKAAAMD@CAMELLIA?9128?9CBC?$AA@ 00071dcc     libeay32:obj_dat.obj
 0002:0000bde0       ??_C@_06DEKODPNG@ipsec4?$AA@ 00071de0     libeay32:obj_dat.obj
 0002:0000bde8       ??_C@_0O@FENFAHJA@Oakley?9EC2N?94?$AA@ 00071de8     libeay32:obj_dat.obj
 0002:0000bdf8       ??_C@_06HLOPKJBB@ipsec3?$AA@ 00071df8     libeay32:obj_dat.obj
 0002:0000be00       ??_C@_0O@BLJEJBFH@Oakley?9EC2N?93?$AA@ 00071e00     libeay32:obj_dat.obj
 0002:0000be10       ??_C@_0BK@FPAAFIAO@X509v3?5Inhibit?5Any?5Policy?$AA@ 00071e10     libeay32:obj_dat.obj
 0002:0000be2c       ??_C@_0BB@CFCCDKGF@inhibitAnyPolicy?$AA@ 00071e2c     libeay32:obj_dat.obj
 0002:0000be40       ??_C@_0BH@NJBPACCN@X509v3?5Policy?5Mappings?$AA@ 00071e40     libeay32:obj_dat.obj
 0002:0000be58       ??_C@_0P@MEGGINDP@policyMappings?$AA@ 00071e58     libeay32:obj_dat.obj
 0002:0000be68       ??_C@_0BC@CEEMIAHF@X509v3?5Any?5Policy?$AA@ 00071e68     libeay32:obj_dat.obj
 0002:0000be7c       ??_C@_09HBBJOJHB@anyPolicy?$AA@ 00071e7c     libeay32:obj_dat.obj
 0002:0000be88       ??_C@_0BI@MNOLKEAO@wap?9wsg?9idm?9ecid?9wtls12?$AA@ 00071e88     libeay32:obj_dat.obj
 0002:0000bea0       ??_C@_0BI@OGMGPHMN@wap?9wsg?9idm?9ecid?9wtls11?$AA@ 00071ea0     libeay32:obj_dat.obj
 0002:0000beb8       ??_C@_0BI@PPNNMGIM@wap?9wsg?9idm?9ecid?9wtls10?$AA@ 00071eb8     libeay32:obj_dat.obj
 0002:0000bed0       ??_C@_0BH@DMKMEGHN@wap?9wsg?9idm?9ecid?9wtls9?$AA@ 00071ed0     libeay32:obj_dat.obj
 0002:0000bee8       ??_C@_0BH@CFLHHHDM@wap?9wsg?9idm?9ecid?9wtls8?$AA@ 00071ee8     libeay32:obj_dat.obj
 0002:0000bf00       ??_C@_0BH@KCCPGLPD@wap?9wsg?9idm?9ecid?9wtls7?$AA@ 00071f00     libeay32:obj_dat.obj
 0002:0000bf18       ??_C@_0BH@LLDEFKLC@wap?9wsg?9idm?9ecid?9wtls6?$AA@ 00071f18     libeay32:obj_dat.obj
 0002:0000bf30       ??_C@_0BH@JABJAJHB@wap?9wsg?9idm?9ecid?9wtls5?$AA@ 00071f30     libeay32:obj_dat.obj
 0002:0000bf48       ??_C@_0BH@IJACDIDA@wap?9wsg?9idm?9ecid?9wtls4?$AA@ 00071f48     libeay32:obj_dat.obj
 0002:0000bf60       ??_C@_0BH@MGEDKOPH@wap?9wsg?9idm?9ecid?9wtls3?$AA@ 00071f60     libeay32:obj_dat.obj
 0002:0000bf78       ??_C@_0BH@PEHFMMHF@wap?9wsg?9idm?9ecid?9wtls1?$AA@ 00071f78     libeay32:obj_dat.obj
 0002:0000bf90       ??_C@_09MPLFOIFJ@sect571r1?$AA@ 00071f90     libeay32:obj_dat.obj
 0002:0000bf9c       ??_C@_09NMECHAKG@sect571k1?$AA@ 00071f9c     libeay32:obj_dat.obj
 0002:0000bfa8       ??_C@_09HDHNMPAD@sect409r1?$AA@ 00071fa8     libeay32:obj_dat.obj
 0002:0000bfb4       ??_C@_09GAIKFHPM@sect409k1?$AA@ 00071fb4     libeay32:obj_dat.obj
 0002:0000bfc0       ??_C@_09PKOJIHLL@sect283r1?$AA@ 00071fc0     libeay32:obj_dat.obj
 0002:0000bfcc       ??_C@_09OJBOBPEE@sect283k1?$AA@ 00071fcc     libeay32:obj_dat.obj
 0002:0000bfd8       ??_C@_09PBHDMODB@sect239k1?$AA@ 00071fd8     libeay32:obj_dat.obj
 0002:0000bfe4       ??_C@_09INDJLGKK@sect233r1?$AA@ 00071fe4     libeay32:obj_dat.obj
 0002:0000bff0       ??_C@_09JOMOCOFF@sect233k1?$AA@ 00071ff0     libeay32:obj_dat.obj
 0002:0000bffc       ??_C@_09GKDAIPGG@sect193r2?$AA@ 00071ffc     libeay32:obj_dat.obj
 0002:0000c008       ??_C@_09EBBNNMKF@sect193r1?$AA@ 00072008     libeay32:obj_dat.obj
 0002:0000c014       ??_C@_09OIGABILH@sect163r2?$AA@ 00072014     libeay32:obj_dat.obj
 0002:0000c020       ??_C@_09MDENELHE@sect163r1?$AA@ 00072020     libeay32:obj_dat.obj
 0002:0000c02c       ??_C@_09NALKNDIL@sect163k1?$AA@ 0007202c     libeay32:obj_dat.obj
 0002:0000c038       ??_C@_09IKIJFPEM@sect131r2?$AA@ 00072038     libeay32:obj_dat.obj
 0002:0000c044       ??_C@_09KBKEAMIP@sect131r1?$AA@ 00072044     libeay32:obj_dat.obj
 0002:0000c050       ??_C@_09FKEAMEKH@sect113r2?$AA@ 00072050     libeay32:obj_dat.obj
 0002:0000c05c       ??_C@_09HBGNJHGE@sect113r1?$AA@ 0007205c     libeay32:obj_dat.obj
 0002:0000c068       ??_C@_09PDBKEDDK@secp521r1?$AA@ 00072068     libeay32:obj_dat.obj
 0002:0000c074       ??_C@_09FICNEILE@secp384r1?$AA@ 00072074     libeay32:obj_dat.obj
 0002:0000c080       ??_C@_09NCBPAPNE@secp256k1?$AA@ 00072080     libeay32:obj_dat.obj
 0002:0000c08c       ??_C@_09NJMBIDLA@secp224r1?$AA@ 0007208c     libeay32:obj_dat.obj
 0002:0000c098       ??_C@_09MKDGBLEP@secp224k1?$AA@ 00072098     libeay32:obj_dat.obj
 0002:0000c0a4       ??_C@_09BOBJAHCM@secp192k1?$AA@ 000720a4     libeay32:obj_dat.obj
 0002:0000c0b0       ??_C@_09OJKJDEK@secp160r2?$AA@ 000720b0     libeay32:obj_dat.obj
 0002:0000c0bc       ??_C@_09CFLHMAIJ@secp160r1?$AA@ 000720bc     libeay32:obj_dat.obj
 0002:0000c0c8       ??_C@_09DGEAFIHG@secp160k1?$AA@ 000720c8     libeay32:obj_dat.obj
 0002:0000c0d4       ??_C@_09DOKOBNGF@secp128r2?$AA@ 000720d4     libeay32:obj_dat.obj
 0002:0000c0e0       ??_C@_09BFIDEOKG@secp128r1?$AA@ 000720e0     libeay32:obj_dat.obj
 0002:0000c0ec       ??_C@_09BGLDIHNB@secp112r2?$AA@ 000720ec     libeay32:obj_dat.obj
 0002:0000c0f8       ??_C@_09DNJONEBC@secp112r1?$AA@ 000720f8     libeay32:obj_dat.obj
 0002:0000c104       ??_C@_0L@OFJKDCBG@c2tnb431r1?$AA@ 00072104     libeay32:obj_dat.obj
 0002:0000c110       ??_C@_0L@BGFAFBLD@c2pnb368w1?$AA@ 00072110     libeay32:obj_dat.obj
 0002:0000c11c       ??_C@_0L@LFGCHHDN@c2tnb359v1?$AA@ 0007211c     libeay32:obj_dat.obj
 0002:0000c128       ??_C@_0L@NDMGBLKL@c2pnb304w1?$AA@ 00072128     libeay32:obj_dat.obj
 0002:0000c134       ??_C@_0L@IPNBELMC@c2pnb272w1?$AA@ 00072134     libeay32:obj_dat.obj
 0002:0000c140       ??_C@_0L@LLIHEIJA@c2onb239v5?$AA@ 00072140     libeay32:obj_dat.obj
 0002:0000c14c       ??_C@_0L@KCJMHJNB@c2onb239v4?$AA@ 0007214c     libeay32:obj_dat.obj
 0002:0000c158       ??_C@_0L@MDEIDDLK@c2tnb239v3?$AA@ 00072158     libeay32:obj_dat.obj
 0002:0000c164       ??_C@_0L@NKFDACPL@c2tnb239v2?$AA@ 00072164     libeay32:obj_dat.obj
 0002:0000c170       ??_C@_0L@PBHOFBDI@c2tnb239v1?$AA@ 00072170     libeay32:obj_dat.obj
 0002:0000c17c       ??_C@_0L@FCEMHHLG@c2pnb208w1?$AA@ 0007217c     libeay32:obj_dat.obj
 0002:0000c188       ??_C@_0L@LCBHAKHA@c2onb191v5?$AA@ 00072188     libeay32:obj_dat.obj
 0002:0000c194       ??_C@_0L@KLAMDLDB@c2onb191v4?$AA@ 00072194     libeay32:obj_dat.obj
 0002:0000c1a0       ??_C@_0L@MKNIHBFK@c2tnb191v3?$AA@ 000721a0     libeay32:obj_dat.obj
 0002:0000c1ac       ??_C@_0L@NDMDEABL@c2tnb191v2?$AA@ 000721ac     libeay32:obj_dat.obj
 0002:0000c1b8       ??_C@_0L@PIOOBDNI@c2tnb191v1?$AA@ 000721b8     libeay32:obj_dat.obj
 0002:0000c1c4       ??_C@_0L@IHOFMEAM@c2pnb176v1?$AA@ 000721c4     libeay32:obj_dat.obj
 0002:0000c1d0       ??_C@_0L@LPGNHPAM@c2pnb163v3?$AA@ 000721d0     libeay32:obj_dat.obj
 0002:0000c1dc       ??_C@_0L@KGHGEOEN@c2pnb163v2?$AA@ 000721dc     libeay32:obj_dat.obj
 0002:0000c1e8       ??_C@_0L@INFLBNIO@c2pnb163v1?$AA@ 000721e8     libeay32:obj_dat.obj
 0002:0000c1f4       ??_C@_07GLJEBFP@ppBasis?$AA@ 000721f4     libeay32:obj_dat.obj
 0002:0000c1fc       ??_C@_07ICPDEPKF@tpBasis?$AA@ 000721fc     libeay32:obj_dat.obj
 0002:0000c204       ??_C@_07JEMDIFEL@onBasis?$AA@ 00072204     libeay32:obj_dat.obj
 0002:0000c20c       ??_C@_0BM@PPOCDOAJ@id?9characteristic?9two?9basis?$AA@ 0007220c     libeay32:obj_dat.obj
 0002:0000c228       ??_C@_07KJBJKKHG@wap?9wsg?$AA@ 00072228     libeay32:obj_dat.obj
 0002:0000c230       ??_C@_03EOHJGACH@wap?$AA@  00072230     libeay32:obj_dat.obj
 0002:0000c234       ??_C@_0N@GOPBJFID@certicom?9arc?$AA@ 00072234     libeay32:obj_dat.obj
 0002:0000c244       ??_C@_0BI@NDBFOMIA@identified?9organization?$AA@ 00072244     libeay32:obj_dat.obj
 0002:0000c25c       ??_C@_06DJABMLNO@sha224?$AA@ 0007225c     libeay32:obj_dat.obj
 0002:0000c264       ??_C@_06DANBNIHA@SHA224?$AA@ 00072264     libeay32:obj_dat.obj
 0002:0000c26c       ??_C@_06PAMKOKLI@sha512?$AA@ 0007226c     libeay32:obj_dat.obj
 0002:0000c274       ??_C@_06PJBKPJBG@SHA512?$AA@ 00072274     libeay32:obj_dat.obj
 0002:0000c27c       ??_C@_06IMCKCJGN@sha384?$AA@ 0007227c     libeay32:obj_dat.obj
 0002:0000c284       ??_C@_06IFPKDKMD@SHA384?$AA@ 00072284     libeay32:obj_dat.obj
 0002:0000c28c       ??_C@_06OHILPNJ@sha256?$AA@ 0007228c     libeay32:obj_dat.obj
 0002:0000c294       ??_C@_06HKIKMHH@SHA256?$AA@ 00072294     libeay32:obj_dat.obj
 0002:0000c29c       ??_C@_0BI@HODNLFBE@sha224WithRSAEncryption?$AA@ 0007229c     libeay32:obj_dat.obj
 0002:0000c2b4       ??_C@_0L@BPFBIPIP@RSA?9SHA224?$AA@ 000722b4     libeay32:obj_dat.obj
 0002:0000c2c0       ??_C@_0BI@CFKPHFJF@sha512WithRSAEncryption?$AA@ 000722c0     libeay32:obj_dat.obj
 0002:0000c2d8       ??_C@_0L@NGJKKOOJ@RSA?9SHA512?$AA@ 000722d8     libeay32:obj_dat.obj
 0002:0000c2e4       ??_C@_0BI@LGPCJGLE@sha384WithRSAEncryption?$AA@ 000722e4     libeay32:obj_dat.obj
 0002:0000c2fc       ??_C@_0L@KKHKGNDM@RSA?9SHA384?$AA@ 000722fc     libeay32:obj_dat.obj
 0002:0000c308       ??_C@_0BI@OLMNBFHG@sha256WithRSAEncryption?$AA@ 00072308     libeay32:obj_dat.obj
 0002:0000c320       ??_C@_0L@CICIPLII@RSA?9SHA256?$AA@ 00072320     libeay32:obj_dat.obj
 0002:0000c32c       ??_C@_0M@MLMKHJLC@Independent?$AA@ 0007232c     libeay32:obj_dat.obj
 0002:0000c338       ??_C@_0BD@JMNHHICP@id?9ppl?9independent?$AA@ 00072338     libeay32:obj_dat.obj
 0002:0000c34c       ??_C@_0BI@MLJLAGL@X509v3?5Name?5Constraints?$AA@ 0007234c     libeay32:obj_dat.obj
 0002:0000c364       ??_C@_0BA@NDBMPGLN@nameConstraints?$AA@ 00072364     libeay32:obj_dat.obj
 0002:0000c374       ??_C@_0M@FFLAPACB@Inherit?5all?$AA@ 00072374     libeay32:obj_dat.obj
 0002:0000c380       ??_C@_0BC@PCEJIIF@id?9ppl?9inheritAll?$AA@ 00072380     libeay32:obj_dat.obj
 0002:0000c394       ??_C@_0N@BEBFEGLC@Any?5language?$AA@ 00072394     libeay32:obj_dat.obj
 0002:0000c3a4       ??_C@_0BD@HNCKDFAM@id?9ppl?9anyLanguage?$AA@ 000723a4     libeay32:obj_dat.obj
 0002:0000c3b8       ??_C@_0BO@CCHFGBDO@Proxy?5Certificate?5Information?$AA@ 000723b8     libeay32:obj_dat.obj
 0002:0000c3d8       ??_C@_0O@LOINHHBF@proxyCertInfo?$AA@ 000723d8     libeay32:obj_dat.obj
 0002:0000c3e8       ??_C@_06CAAPGDCJ@id?9ppl?$AA@ 000723e8     libeay32:obj_dat.obj
 0002:0000c3f0       ??_C@_0L@NCDHJCMF@postalCode?$AA@ 000723f0     libeay32:obj_dat.obj
 0002:0000c3fc       ??_C@_0O@GFJANBCD@streetAddress?$AA@ 000723fc     libeay32:obj_dat.obj
 0002:0000c40c       ??_C@_06KFAFKEEH@street?$AA@ 0007240c     libeay32:obj_dat.obj
 0002:0000c414       ??_C@_0O@KGNFGAAA@des?9ede3?9cfb8?$AA@ 00072414     libeay32:obj_dat.obj
 0002:0000c424       ??_C@_0O@KNJKKNCK@DES?9EDE3?9CFB8?$AA@ 00072424     libeay32:obj_dat.obj
 0002:0000c434       ??_C@_0O@HHBHNLEJ@des?9ede3?9cfb1?$AA@ 00072434     libeay32:obj_dat.obj
 0002:0000c444       ??_C@_0O@HMFIBGGD@DES?9EDE3?9CFB1?$AA@ 00072444     libeay32:obj_dat.obj
 0002:0000c454       ??_C@_08HKNDEPIP@des?9cfb8?$AA@ 00072454     libeay32:obj_dat.obj
 0002:0000c460       ??_C@_08JHFHFADM@DES?9CFB8?$AA@ 00072460     libeay32:obj_dat.obj
 0002:0000c46c       ??_C@_08KLBBPEMG@des?9cfb1?$AA@ 0007246c     libeay32:obj_dat.obj
 0002:0000c478       ??_C@_08EGJFOLHF@DES?9CFB1?$AA@ 00072478     libeay32:obj_dat.obj
 0002:0000c484       ??_C@_0N@GPAECIBG@aes?9256?9cfb8?$AA@ 00072484     libeay32:obj_dat.obj
 0002:0000c494       ??_C@_0N@BLGJPBBG@AES?9256?9CFB8?$AA@ 00072494     libeay32:obj_dat.obj
 0002:0000c4a4       ??_C@_0N@PFGJCFIP@aes?9192?9cfb8?$AA@ 000724a4     libeay32:obj_dat.obj
 0002:0000c4b4       ??_C@_0N@IBAEPMIP@AES?9192?9CFB8?$AA@ 000724b4     libeay32:obj_dat.obj
 0002:0000c4c4       ??_C@_0N@MHDGGJH@aes?9128?9cfb8?$AA@ 000724c4     libeay32:obj_dat.obj
 0002:0000c4d4       ??_C@_0N@HIBOLPJH@AES?9128?9CFB8?$AA@ 000724d4     libeay32:obj_dat.obj
 0002:0000c4e4       ??_C@_0N@LOMGJDFP@aes?9256?9cfb1?$AA@ 000724e4     libeay32:obj_dat.obj
 0002:0000c4f4       ??_C@_0N@MKKLEKFP@AES?9256?9CFB1?$AA@ 000724f4     libeay32:obj_dat.obj
 0002:0000c504       ??_C@_0N@CEKLJOMG@aes?9192?9cfb1?$AA@ 00072504     libeay32:obj_dat.obj
 0002:0000c514       ??_C@_0N@FAMGEHMG@AES?9192?9CFB1?$AA@ 00072514     libeay32:obj_dat.obj
 0002:0000c524       ??_C@_0N@NNLBNNNO@aes?9128?9cfb1?$AA@ 00072524     libeay32:obj_dat.obj
 0002:0000c534       ??_C@_0N@KJNMAENO@AES?9128?9CFB1?$AA@ 00072534     libeay32:obj_dat.obj
 0002:0000c544       ??_C@_0CD@POJHJMFG@Microsoft?5Universal?5Principal?5Na@ 00072544     libeay32:obj_dat.obj
 0002:0000c568       ??_C@_05LKLAGLGM@msUPN?$AA@ 00072568     libeay32:obj_dat.obj
 0002:0000c570       ??_C@_0BJ@BHLLFCI@Microsoft?5Smartcardlogin?$AA@ 00072570     libeay32:obj_dat.obj
 0002:0000c58c       ??_C@_0BB@MJPMDGHF@msSmartcardLogin?$AA@ 0007258c     libeay32:obj_dat.obj
 0002:0000c5a0       ??_C@_0BM@PGMBEIHL@International?5Organizations?$AA@ 000725a0     libeay32:obj_dat.obj
 0002:0000c5bc       ??_C@_0BM@PBBEOBAP@international?9organizations?$AA@ 000725bc     libeay32:obj_dat.obj
 0002:0000c5d8       ??_C@_0BA@DDCJMADA@joint?9iso?9itu?9t?$AA@ 000725d8     libeay32:obj_dat.obj
 0002:0000c5e8       ??_C@_0BA@NPJCPIN@JOINT?9ISO?9ITU?9T?$AA@ 000725e8     libeay32:obj_dat.obj
 0002:0000c5f8       ??_C@_05EKLDHPCO@itu?9t?$AA@ 000725f8     libeay32:obj_dat.obj
 0002:0000c600       ??_C@_05LJGINOIA@ITU?9T?$AA@ 00072600     libeay32:obj_dat.obj
 0002:0000c608       ??_C@_0BF@EIIDBKMM@rsaOAEPEncryptionSET?$AA@ 00072608     libeay32:obj_dat.obj
 0002:0000c620       ??_C@_08PPLOLAOD@des?9cdmf?$AA@ 00072620     libeay32:obj_dat.obj
 0002:0000c62c       ??_C@_08IHLOILPC@DES?9CDMF?$AA@ 0007262c     libeay32:obj_dat.obj
 0002:0000c638       ??_C@_0BA@JHOGHBHC@set?9brand?9Novus?$AA@ 00072638     libeay32:obj_dat.obj
 0002:0000c648       ??_C@_0BF@EKCBHCKG@set?9brand?9MasterCard?$AA@ 00072648     libeay32:obj_dat.obj
 0002:0000c660       ??_C@_0P@KADKEMKM@set?9brand?9Visa?$AA@ 00072660     libeay32:obj_dat.obj
 0002:0000c670       ??_C@_0O@ODFDKJIN@set?9brand?9JCB?$AA@ 00072670     libeay32:obj_dat.obj
 0002:0000c680       ??_C@_0BK@NGHCPIFJ@set?9brand?9AmericanExpress?$AA@ 00072680     libeay32:obj_dat.obj
 0002:0000c69c       ??_C@_0BB@MJOMIBOM@set?9brand?9Diners?$AA@ 0007269c     libeay32:obj_dat.obj
 0002:0000c6b0       ??_C@_0BD@EBDAHFCK@set?9brand?9IATA?9ATA?$AA@ 000726b0     libeay32:obj_dat.obj
 0002:0000c6c4       ??_C@_0BI@BMDLNIII@secure?5device?5signature?$AA@ 000726c4     libeay32:obj_dat.obj
 0002:0000c6dc       ??_C@_0BC@HILPEDHB@setAttr?9SecDevSig?$AA@ 000726dc     libeay32:obj_dat.obj
 0002:0000c6f0       ??_C@_0BH@FLMFBHA@ICC?5or?5token?5signature?$AA@ 000726f0     libeay32:obj_dat.obj
 0002:0000c708       ??_C@_0BC@KFHJNGAA@setAttr?9TokICCsig?$AA@ 00072708     libeay32:obj_dat.obj
 0002:0000c71c       ??_C@_0BC@EEELFHMJ@cleartext?5track?52?$AA@ 0007271c     libeay32:obj_dat.obj
 0002:0000c730       ??_C@_0BD@GDDCOMNC@setAttr?9T2cleartxt?$AA@ 00072730     libeay32:obj_dat.obj
 0002:0000c744       ??_C@_0BC@MCHFBPJF@encrypted?5track?52?$AA@ 00072744     libeay32:obj_dat.obj
 0002:0000c758       ??_C@_0O@GFEDKLID@setAttr?9T2Enc?$AA@ 00072758     libeay32:obj_dat.obj
 0002:0000c768       ??_C@_0BE@BANBLNDJ@generate?5cryptogram?$AA@ 00072768     libeay32:obj_dat.obj
 0002:0000c77c       ??_C@_0BE@FJCINFHM@setAttr?9GenCryptgrm?$AA@ 0007277c     libeay32:obj_dat.obj
 0002:0000c790       ??_C@_0BD@DMNGIJGO@setAttr?9IssCap?9Sig?$AA@ 00072790     libeay32:obj_dat.obj
 0002:0000c7a4       ??_C@_0BC@FKLLNJMF@setAttr?9IssCap?9T2?$AA@ 000727a4     libeay32:obj_dat.obj
 0002:0000c7b8       ??_C@_0BD@CMJDLAHE@setAttr?9IssCap?9CVM?$AA@ 000727b8     libeay32:obj_dat.obj
 0002:0000c7cc       ??_C@_0BG@ICNBHDJ@setAttr?9Token?9B0Prime?$AA@ 000727cc     libeay32:obj_dat.obj
 0002:0000c7e4       ??_C@_0BC@BMANBENP@setAttr?9Token?9EMV?$AA@ 000727e4     libeay32:obj_dat.obj
 0002:0000c7f8       ??_C@_0O@NOCONBCM@set?9addPolicy?$AA@ 000727f8     libeay32:obj_dat.obj
 0002:0000c808       ??_C@_0BB@MADMNAKK@set?9rootKeyThumb?$AA@ 00072808     libeay32:obj_dat.obj
 0002:0000c81c       ??_C@_0BE@HBDPGKCG@issuer?5capabilities?$AA@ 0007281c     libeay32:obj_dat.obj
 0002:0000c830       ??_C@_0P@OGFLCCKL@setAttr?9IssCap?$AA@ 00072830     libeay32:obj_dat.obj
 0002:0000c840       ??_C@_0BC@IKOKMCIL@setAttr?9TokenType?$AA@ 00072840     libeay32:obj_dat.obj
 0002:0000c854       ??_C@_0BN@HEFBDPEB@payment?5gateway?5capabilities?$AA@ 00072854     libeay32:obj_dat.obj
 0002:0000c874       ??_C@_0BA@FAIFDKDK@setAttr?9PGWYcap?$AA@ 00072874     libeay32:obj_dat.obj
 0002:0000c884       ??_C@_0N@DCNKAAPN@setAttr?9Cert?$AA@ 00072884     libeay32:obj_dat.obj
 0002:0000c894       ??_C@_0BL@OLCLGJDA@setCext?9IssuerCapabilities?$AA@ 00072894     libeay32:obj_dat.obj
 0002:0000c8b0       ??_C@_0BC@KMFGLCBL@setCext?9TokenType?$AA@ 000728b0     libeay32:obj_dat.obj
 0002:0000c8c4       ??_C@_0BD@FHFLAKJD@setCext?9Track2Data?$AA@ 000728c4     libeay32:obj_dat.obj
 0002:0000c8d8       ??_C@_0BI@FIIEHNL@setCext?9TokenIdentifier?$AA@ 000728d8     libeay32:obj_dat.obj
 0002:0000c8f0       ??_C@_0BJ@CNLNHONG@setCext?9PGWYcapabilities?$AA@ 000728f0     libeay32:obj_dat.obj
 0002:0000c90c       ??_C@_0BB@HIAOOOIO@setCext?9setQualf?$AA@ 0007290c     libeay32:obj_dat.obj
 0002:0000c920       ??_C@_0P@DFHCPLJG@setCext?9setExt?$AA@ 00072920     libeay32:obj_dat.obj
 0002:0000c930       ??_C@_0BC@BPADJLFJ@setCext?9tunneling?$AA@ 00072930     libeay32:obj_dat.obj
 0002:0000c944       ??_C@_0BG@CMNKGOHO@setCext?9cCertRequired?$AA@ 00072944     libeay32:obj_dat.obj
 0002:0000c95c       ??_C@_0BC@ONMLOIHK@setCext?9merchData?$AA@ 0007295c     libeay32:obj_dat.obj
 0002:0000c970       ??_C@_0BB@LHGCHNFD@setCext?9certType?$AA@ 00072970     libeay32:obj_dat.obj
 0002:0000c984       ??_C@_0BD@MELPLACB@setCext?9hashedRoot?$AA@ 00072984     libeay32:obj_dat.obj
 0002:0000c998       ??_C@_0BA@DLJGCPKK@set?9policy?9root?$AA@ 00072998     libeay32:obj_dat.obj
 0002:0000c9a8       ??_C@_0BI@MFPOFNGC@additional?5verification?$AA@ 000729a8     libeay32:obj_dat.obj
 0002:0000c9c0       ??_C@_09GMOEIEJI@setext?9cv?$AA@ 000729c0     libeay32:obj_dat.obj
 0002:0000c9cc       ??_C@_0O@PNAFPHHK@setext?9track2?$AA@ 000729cc     libeay32:obj_dat.obj
 0002:0000c9dc       ??_C@_0O@PNHGIFHA@setext?9pinAny?$AA@ 000729dc     libeay32:obj_dat.obj
 0002:0000c9ec       ??_C@_0BB@IKLFBNP@setext?9pinSecure?$AA@ 000729ec     libeay32:obj_dat.obj
 0002:0000ca00       ??_C@_0BI@IMGNFPLI@merchant?5initiated?5auth?$AA@ 00072a00     libeay32:obj_dat.obj
 0002:0000ca18       ??_C@_0O@IFMPKKOL@setext?9miAuth?$AA@ 00072a18     libeay32:obj_dat.obj
 0002:0000ca28       ??_C@_0BD@IMJHIOH@generic?5cryptogram?$AA@ 00072a28     libeay32:obj_dat.obj
 0002:0000ca3c       ??_C@_0BA@NKJJMGPC@setext?9genCrypt?$AA@ 00072a3c     libeay32:obj_dat.obj
 0002:0000ca4c       ??_C@_0BJ@BPGLEKIJ@setct?9BCIDistributionTBS?$AA@ 00072a4c     libeay32:obj_dat.obj
 0002:0000ca68       ??_C@_0BM@GINBKIMJ@setct?9CRLNotificationResTBS?$AA@ 00072a68     libeay32:obj_dat.obj
 0002:0000ca84       ??_C@_0BJ@KMIJGANO@setct?9CRLNotificationTBS?$AA@ 00072a84     libeay32:obj_dat.obj
 0002:0000caa0       ??_C@_0BB@KEDMFAIN@setct?9CertResTBE?$AA@ 00072aa0     libeay32:obj_dat.obj
 0002:0000cab4       ??_C@_0BC@KMAHLFJK@setct?9CertReqTBEX?$AA@ 00072ab4     libeay32:obj_dat.obj
 0002:0000cac8       ??_C@_0BB@NOPMADON@setct?9CertReqTBE?$AA@ 00072ac8     libeay32:obj_dat.obj
 0002:0000cadc       ??_C@_0BE@MIADHNEP@setct?9RegFormReqTBE?$AA@ 00072adc     libeay32:obj_dat.obj
 0002:0000caf0       ??_C@_0BH@PFFPEIML@setct?9BatchAdminResTBE?$AA@ 00072af0     libeay32:obj_dat.obj
 0002:0000cb08       ??_C@_0BH@IPJPBLKL@setct?9BatchAdminReqTBE?$AA@ 00072b08     libeay32:obj_dat.obj
 0002:0000cb20       ??_C@_0BE@MGLMPAHD@setct?9CredRevResTBE?$AA@ 00072b20     libeay32:obj_dat.obj
 0002:0000cb34       ??_C@_0BF@PGGAOKCB@setct?9CredRevReqTBEX?$AA@ 00072b34     libeay32:obj_dat.obj
 0002:0000cb4c       ??_C@_0BE@LMHMKDBD@setct?9CredRevReqTBE?$AA@ 00072b4c     libeay32:obj_dat.obj
 0002:0000cb60       ??_C@_0BB@NFFENEIP@setct?9CredResTBE?$AA@ 00072b60     libeay32:obj_dat.obj
 0002:0000cb74       ??_C@_0BC@ECHILMDC@setct?9CredReqTBEX?$AA@ 00072b74     libeay32:obj_dat.obj
 0002:0000cb88       ??_C@_0BB@KPJEIHOP@setct?9CredReqTBE?$AA@ 00072b88     libeay32:obj_dat.obj
 0002:0000cb9c       ??_C@_0BD@GIBDNMDG@setct?9CapRevResTBE?$AA@ 00072b9c     libeay32:obj_dat.obj
 0002:0000cbb0       ??_C@_0BE@PAHIPABC@setct?9CapRevReqTBEX?$AA@ 00072bb0     libeay32:obj_dat.obj
 0002:0000cbc4       ??_C@_0BD@BCNDIPFG@setct?9CapRevReqTBE?$AA@ 00072bc4     libeay32:obj_dat.obj
 0002:0000cbd8       ??_C@_0BA@MEFGIEBL@setct?9CapResTBE?$AA@ 00072bd8     libeay32:obj_dat.obj
 0002:0000cbe8       ??_C@_0BB@LFALOJDP@setct?9CapReqTBEX?$AA@ 00072be8     libeay32:obj_dat.obj
 0002:0000cbfc       ??_C@_0BA@LOJGNHHL@setct?9CapReqTBE?$AA@ 00072bfc     libeay32:obj_dat.obj
 0002:0000cc0c       ??_C@_0BF@KKFFJIHO@setct?9AuthRevResTBEB?$AA@ 00072c0c     libeay32:obj_dat.obj
 0002:0000cc24       ??_C@_0BE@MHAGABNC@setct?9AuthRevResTBE?$AA@ 00072c24     libeay32:obj_dat.obj
 0002:0000cc38       ??_C@_0BE@LNMGFCLC@setct?9AuthRevReqTBE?$AA@ 00072c38     libeay32:obj_dat.obj
 0002:0000cc4c       ??_C@_0BI@PALCIALL@setct?9AcqCardCodeMsgTBE?$AA@ 00072c4c     libeay32:obj_dat.obj
 0002:0000cc64       ??_C@_0BD@OMCOOIME@setct?9CapTokenTBEX?$AA@ 00072c64     libeay32:obj_dat.obj
 0002:0000cc78       ??_C@_0BC@CIKKDLAH@setct?9CapTokenTBE?$AA@ 00072c78     libeay32:obj_dat.obj
 0002:0000cc8c       ??_C@_0BD@DHGMJDKO@setct?9AuthTokenTBE?$AA@ 00072c8c     libeay32:obj_dat.obj
 0002:0000cca0       ??_C@_0BC@OEOIIPOH@setct?9AuthResTBEX?$AA@ 00072ca0     libeay32:obj_dat.obj
 0002:0000ccb4       ??_C@_0BB@IDPADFEK@setct?9AuthResTBE?$AA@ 00072cb4     libeay32:obj_dat.obj
 0002:0000ccc8       ??_C@_0BB@PJDAGGCK@setct?9AuthReqTBE?$AA@ 00072cc8     libeay32:obj_dat.obj
 0002:0000ccdc       ??_C@_0BE@IBOAPLDD@setct?9PIUnsignedTBE?$AA@ 00072cdc     libeay32:obj_dat.obj
 0002:0000ccf0       ??_C@_0BG@JDDNBPAG@setct?9PIDualSignedTBE?$AA@ 00072cf0     libeay32:obj_dat.obj
 0002:0000cd08       ??_C@_0P@DLHKHMDJ@setct?9ErrorTBS?$AA@ 00072d08     libeay32:obj_dat.obj
 0002:0000cd18       ??_C@_0BE@OIDIJLCF@setct?9CertInqReqTBS?$AA@ 00072d18     libeay32:obj_dat.obj
 0002:0000cd2c       ??_C@_0BC@BIIFIBNO@setct?9CertResData?$AA@ 00072d2c     libeay32:obj_dat.obj
 0002:0000cd40       ??_C@_0BB@MCGELGDK@setct?9CertReqTBS?$AA@ 00072d40     libeay32:obj_dat.obj
 0002:0000cd54       ??_C@_0BC@FFENCANF@setct?9CertReqData?$AA@ 00072d54     libeay32:obj_dat.obj
 0002:0000cd68       ??_C@_0BE@KOFLJLPI@setct?9RegFormResTBS?$AA@ 00072d68     libeay32:obj_dat.obj
 0002:0000cd7c       ??_C@_0BG@DIBJJIJB@setct?9MeAqCInitResTBS?$AA@ 00072d7c     libeay32:obj_dat.obj
 0002:0000cd94       ??_C@_0BG@OMHIHPPP@setct?9CardCInitResTBS?$AA@ 00072d94     libeay32:obj_dat.obj
 0002:0000cdac       ??_C@_0BI@IHGLAGGD@setct?9BatchAdminResData?$AA@ 00072dac     libeay32:obj_dat.obj
 0002:0000cdc4       ??_C@_0BI@MKKDKHGI@setct?9BatchAdminReqData?$AA@ 00072dc4     libeay32:obj_dat.obj
 0002:0000cddc       ??_C@_0BC@CFHCKIIA@setct?9PCertResTBS?$AA@ 00072ddc     libeay32:obj_dat.obj
 0002:0000cdf0       ??_C@_0BD@DDNGMNFC@setct?9PCertReqData?$AA@ 00072df0     libeay32:obj_dat.obj
 0002:0000ce04       ??_C@_0BF@ECOCNOGF@setct?9CredRevResData?$AA@ 00072e04     libeay32:obj_dat.obj
 0002:0000ce1c       ??_C@_0BF@OOMLDFOD@setct?9CredRevReqTBSX?$AA@ 00072e1c     libeay32:obj_dat.obj
 0002:0000ce34       ??_C@_0BE@KAOEBGME@setct?9CredRevReqTBS?$AA@ 00072e34     libeay32:obj_dat.obj
 0002:0000ce48       ??_C@_0BC@PGPKIIHG@setct?9CredResData?$AA@ 00072e48     libeay32:obj_dat.obj
 0002:0000ce5c       ??_C@_0BC@FKNDGDPA@setct?9CredReqTBSX?$AA@ 00072e5c     libeay32:obj_dat.obj
 0002:0000ce70       ??_C@_0BB@LDAMDCDI@setct?9CredReqTBS?$AA@ 00072e70     libeay32:obj_dat.obj
 0002:0000ce84       ??_C@_0BE@EEPKMEFG@setct?9CapRevResData?$AA@ 00072e84     libeay32:obj_dat.obj
 0002:0000ce98       ??_C@_0BE@OINDCPNA@setct?9CapRevReqTBSX?$AA@ 00072e98     libeay32:obj_dat.obj
 0002:0000ceac       ??_C@_0BD@OELDKIB@setct?9CapRevReqTBS?$AA@ 00072eac     libeay32:obj_dat.obj
 0002:0000cec0       ??_C@_0BB@BIJNNHL@setct?9CapResData?$AA@ 00072ec0     libeay32:obj_dat.obj
 0002:0000ced4       ??_C@_0BB@KNKADGPN@setct?9CapReqTBSX?$AA@ 00072ed4     libeay32:obj_dat.obj
 0002:0000cee8       ??_C@_0BA@KCAOGCKM@setct?9CapReqTBS?$AA@ 00072ee8     libeay32:obj_dat.obj
 0002:0000cef8       ??_C@_0BE@NLJOLEAF@setct?9AuthRevResTBS?$AA@ 00072ef8     libeay32:obj_dat.obj
 0002:0000cf0c       ??_C@_0BF@ODDCPHOK@setct?9AuthRevResData?$AA@ 00072f0c     libeay32:obj_dat.obj
 0002:0000cf24       ??_C@_0BE@KBFOOHGF@setct?9AuthRevReqTBS?$AA@ 00072f24     libeay32:obj_dat.obj
 0002:0000cf38       ??_C@_0BF@LAOAGKEH@setct?9AcqCardCodeMsg?$AA@ 00072f38     libeay32:obj_dat.obj
 0002:0000cf50       ??_C@_0BC@DEDCIONA@setct?9CapTokenTBS?$AA@ 00072f50     libeay32:obj_dat.obj
 0002:0000cf64       ??_C@_0BD@BFGEHNIL@setct?9CapTokenData?$AA@ 00072f64     libeay32:obj_dat.obj
 0002:0000cf78       ??_C@_0BD@CLPECGHJ@setct?9AuthTokenTBS?$AA@ 00072f78     libeay32:obj_dat.obj
 0002:0000cf8c       ??_C@_0BC@PMEDFACF@setct?9AuthResTBSX?$AA@ 00072f8c     libeay32:obj_dat.obj
 0002:0000cfa0       ??_C@_0BB@JPGIIAJN@setct?9AuthResTBS?$AA@ 00072fa0     libeay32:obj_dat.obj
 0002:0000cfb4       ??_C@_0BB@OFKINDPN@setct?9AuthReqTBS?$AA@ 00072fb4     libeay32:obj_dat.obj
 0002:0000cfc8       ??_C@_0P@NGDEPBBH@setct?9PResData?$AA@ 00072fc8     libeay32:obj_dat.obj
 0002:0000cfd8       ??_C@_0N@GIGHFPBJ@setct?9PI?9TBS?$AA@ 00072fd8     libeay32:obj_dat.obj
 0002:0000cfe8       ??_C@_0BD@GIEGHJGD@setct?9PInitResData?$AA@ 00072fe8     libeay32:obj_dat.obj
 0002:0000cffc       ??_C@_0BC@DDFFKACM@setct?9CapTokenSeq?$AA@ 00072ffc     libeay32:obj_dat.obj
 0002:0000d010       ??_C@_0BI@CNLKCNFM@setct?9AuthRevResBaggage?$AA@ 00073010     libeay32:obj_dat.obj
 0002:0000d028       ??_C@_0BI@DEMAFNK@setct?9AuthRevReqBaggage?$AA@ 00073028     libeay32:obj_dat.obj
 0002:0000d040       ??_C@_0BF@EFHLGKOJ@setct?9AuthResBaggage?$AA@ 00073040     libeay32:obj_dat.obj
 0002:0000d058       ??_C@_0P@LPBKKIBL@setct?9HODInput?$AA@ 00073058     libeay32:obj_dat.obj
 0002:0000d068       ??_C@_0BF@BDFGFMFJ@setct?9PIDataUnsigned?$AA@ 00073068     libeay32:obj_dat.obj
 0002:0000d080       ??_C@_0N@PGCGIPOF@setct?9PIData?$AA@ 00073080     libeay32:obj_dat.obj
 0002:0000d090       ??_C@_08MNJJNIEC@setct?9PI?$AA@ 00073090     libeay32:obj_dat.obj
 0002:0000d09c       ??_C@_0N@GHLAGDMC@setct?9OIData?$AA@ 0007309c     libeay32:obj_dat.obj
 0002:0000d0ac       ??_C@_0O@PFJCCKAL@setct?9PANOnly?$AA@ 000730ac     libeay32:obj_dat.obj
 0002:0000d0bc       ??_C@_0P@LAMDLEMO@setct?9PANToken?$AA@ 000730bc     libeay32:obj_dat.obj
 0002:0000d0cc       ??_C@_0O@EKAPGBNN@setct?9PANData?$AA@ 000730cc     libeay32:obj_dat.obj
 0002:0000d0dc       ??_C@_09JHODGPNO@set?9brand?$AA@ 000730dc     libeay32:obj_dat.obj
 0002:0000d0e8       ??_C@_0BH@PDPIEGPA@certificate?5extensions?$AA@ 000730e8     libeay32:obj_dat.obj
 0002:0000d100       ??_C@_0M@KEIBDDC@set?9certExt?$AA@ 00073100     libeay32:obj_dat.obj
 0002:0000d10c       ??_C@_0L@LAAAKICM@set?9policy?$AA@ 0007310c     libeay32:obj_dat.obj
 0002:0000d118       ??_C@_08OFDIOKIA@set?9attr?$AA@ 00073118     libeay32:obj_dat.obj
 0002:0000d124       ??_C@_0BD@LEIDLLNO@message?5extensions?$AA@ 00073124     libeay32:obj_dat.obj
 0002:0000d138       ??_C@_0L@PKPEIEIJ@set?9msgExt?$AA@ 00073138     libeay32:obj_dat.obj
 0002:0000d144       ??_C@_0O@HJGLMADJ@content?5types?$AA@ 00073144     libeay32:obj_dat.obj
 0002:0000d154       ??_C@_09EJPBIJJA@set?9ctype?$AA@ 00073154     libeay32:obj_dat.obj
 0002:0000d160       ??_C@_0BP@KEIHJPNF@Secure?5Electronic?5Transactions?$AA@ 00073160     libeay32:obj_dat.obj
 0002:0000d180       ??_C@_06KKEMDFAF@id?9set?$AA@ 00073180     libeay32:obj_dat.obj
 0002:0000d188       ??_C@_09NNMENHIH@pseudonym?$AA@ 00073188     libeay32:obj_dat.obj
 0002:0000d194       ??_C@_0BE@DAEHFOO@generationQualifier?$AA@ 00073194     libeay32:obj_dat.obj
 0002:0000d1a8       ??_C@_0BJ@KCNAIDP@id?9hex?9multipart?9message?$AA@ 000731a8     libeay32:obj_dat.obj
 0002:0000d1c4       ??_C@_0BH@ILCJEHBB@id?9hex?9partial?9message?$AA@ 000731c4     libeay32:obj_dat.obj
 0002:0000d1dc       ??_C@_0BA@MOFCNIEE@mime?9mhs?9bodies?$AA@ 000731dc     libeay32:obj_dat.obj
 0002:0000d1ec       ??_C@_0BC@NIFMCBEJ@mime?9mhs?9headings?$AA@ 000731ec     libeay32:obj_dat.obj
 0002:0000d200       ??_C@_08DNBACEKK@MIME?5MHS?$AA@ 00073200     libeay32:obj_dat.obj
 0002:0000d20c       ??_C@_08HLONPBDI@mime?9mhs?$AA@ 0007320c     libeay32:obj_dat.obj
 0002:0000d218       ??_C@_0BF@EFCCADKK@x500UniqueIdentifier?$AA@ 00073218     libeay32:obj_dat.obj
 0002:0000d230       ??_C@_0BC@KCCHJGGO@documentPublisher?$AA@ 00073230     libeay32:obj_dat.obj
 0002:0000d244       ??_C@_05KNIAAKIP@audio?$AA@ 00073244     libeay32:obj_dat.obj
 0002:0000d24c       ??_C@_0M@KIABODOB@dITRedirect?$AA@ 0007324c     libeay32:obj_dat.obj
 0002:0000d258       ??_C@_0BC@CBOFINFC@personalSignature?$AA@ 00073258     libeay32:obj_dat.obj
 0002:0000d26c       ??_C@_0BG@FLFPEGPE@subtreeMaximumQuality?$AA@ 0007326c     libeay32:obj_dat.obj
 0002:0000d284       ??_C@_0BG@HMOECBMF@subtreeMinimumQuality?$AA@ 00073284     libeay32:obj_dat.obj
 0002:0000d29c       ??_C@_0BD@EHDOPADK@singleLevelQuality?$AA@ 0007329c     libeay32:obj_dat.obj
 0002:0000d2b0       ??_C@_0L@LMCCHBHL@dSAQuality?$AA@ 000732b0     libeay32:obj_dat.obj
 0002:0000d2bc       ??_C@_0N@POAALOHC@buildingName?$AA@ 000732bc     libeay32:obj_dat.obj
 0002:0000d2cc       ??_C@_0BF@OFOHKDCI@mailPreferenceOption?$AA@ 000732cc     libeay32:obj_dat.obj
 0002:0000d2e4       ??_C@_0N@DGNBNBGJ@janetMailbox?$AA@ 000732e4     libeay32:obj_dat.obj
 0002:0000d2f4       ??_C@_0BF@IANLBJMF@organizationalStatus?$AA@ 000732f4     libeay32:obj_dat.obj
 0002:0000d30c       ??_C@_0BE@MGDAFGCM@friendlyCountryName?$AA@ 0007330c     libeay32:obj_dat.obj
 0002:0000d320       ??_C@_0BF@JICDDEFM@pagerTelephoneNumber?$AA@ 00073320     libeay32:obj_dat.obj
 0002:0000d338       ??_C@_0BG@DCPABLLG@mobileTelephoneNumber?$AA@ 00073338     libeay32:obj_dat.obj
 0002:0000d350       ??_C@_0O@CCHLDBGG@personalTitle?$AA@ 00073350     libeay32:obj_dat.obj
 0002:0000d360       ??_C@_0BC@NPJKACJF@homePostalAddress?$AA@ 00073360     libeay32:obj_dat.obj
 0002:0000d374       ??_C@_0P@OJOOFNGB@associatedName?$AA@ 00073374     libeay32:obj_dat.obj
 0002:0000d384       ??_C@_0BB@MEFMIBKO@associatedDomain?$AA@ 00073384     libeay32:obj_dat.obj
 0002:0000d398       ??_C@_0M@GHEAGPOE@cNAMERecord?$AA@ 00073398     libeay32:obj_dat.obj
 0002:0000d3a4       ??_C@_09OCFHDJJF@sOARecord?$AA@ 000733a4     libeay32:obj_dat.obj
 0002:0000d3b0       ??_C@_08FBLONLGA@nSRecord?$AA@ 000733b0     libeay32:obj_dat.obj
 0002:0000d3bc       ??_C@_08DFFJPLPD@mXRecord?$AA@ 000733bc     libeay32:obj_dat.obj
 0002:0000d3c8       ??_C@_0BF@MIIMJDJB@pilotAttributeType27?$AA@ 000733c8     libeay32:obj_dat.obj
 0002:0000d3e0       ??_C@_07IBNMBOJB@aRecord?$AA@ 000733e0     libeay32:obj_dat.obj
 0002:0000d3e8       ??_C@_0P@ECLEJAJJ@lastModifiedBy?$AA@ 000733e8     libeay32:obj_dat.obj
 0002:0000d3f8       ??_C@_0BB@LHLABCIP@lastModifiedTime?$AA@ 000733f8     libeay32:obj_dat.obj
 0002:0000d40c       ??_C@_0N@CEOKELFP@otherMailbox?$AA@ 0007340c     libeay32:obj_dat.obj
 0002:0000d41c       ??_C@_09EMBFDNKC@secretary?$AA@ 0007341c     libeay32:obj_dat.obj
 0002:0000d428       ??_C@_0BE@CPLAKLNE@homeTelephoneNumber?$AA@ 00073428     libeay32:obj_dat.obj
 0002:0000d43c       ??_C@_0BB@COFKDFJ@documentLocation?$AA@ 0007343c     libeay32:obj_dat.obj
 0002:0000d450       ??_C@_0P@DABDJKFB@documentAuthor?$AA@ 00073450     libeay32:obj_dat.obj
 0002:0000d460       ??_C@_0BA@GHOLKFM@documentVersion?$AA@ 00073460     libeay32:obj_dat.obj
 0002:0000d470       ??_C@_0O@BDIDABAC@documentTitle?$AA@ 00073470     libeay32:obj_dat.obj
 0002:0000d480       ??_C@_0BD@MEPJGCEO@documentIdentifier?$AA@ 00073480     libeay32:obj_dat.obj
 0002:0000d494       ??_C@_07JPLKDPHP@manager?$AA@ 00073494     libeay32:obj_dat.obj
 0002:0000d49c       ??_C@_04OODOLJMA@host?$AA@ 0007349c     libeay32:obj_dat.obj
 0002:0000d4a4       ??_C@_09CCPGMHEM@userClass?$AA@ 000734a4     libeay32:obj_dat.obj
 0002:0000d4b0       ??_C@_05DOIFDPKA@photo?$AA@ 000734b0     libeay32:obj_dat.obj
 0002:0000d4b8       ??_C@_0L@DGKNANFO@roomNumber?$AA@ 000734b8     libeay32:obj_dat.obj
 0002:0000d4c4       ??_C@_0P@PAMFCEKP@favouriteDrink?$AA@ 000734c4     libeay32:obj_dat.obj
 0002:0000d4d4       ??_C@_04NIDJFNBE@info?$AA@ 000734d4     libeay32:obj_dat.obj
 0002:0000d4dc       ??_C@_0O@PDNFEOHL@rfc822Mailbox?$AA@ 000734dc     libeay32:obj_dat.obj
 0002:0000d4ec       ??_C@_04FFKLPPHM@mail?$AA@ 000734ec     libeay32:obj_dat.obj
 0002:0000d4f4       ??_C@_0BF@HDIIKJDI@textEncodedORAddress?$AA@ 000734f4     libeay32:obj_dat.obj
 0002:0000d50c       ??_C@_06LPELCIKE@userId?$AA@ 0007350c     libeay32:obj_dat.obj
 0002:0000d514       ??_C@_03MJDGODDN@UID?$AA@  00073514     libeay32:obj_dat.obj
 0002:0000d518       ??_C@_0BE@DDFOMMI@qualityLabelledData?$AA@ 00073518     libeay32:obj_dat.obj
 0002:0000d52c       ??_C@_08MPJGPMC@pilotDSA?$AA@ 0007352c     libeay32:obj_dat.obj
 0002:0000d538       ??_C@_0BC@PLDKCMI@pilotOrganization?$AA@ 00073538     libeay32:obj_dat.obj
 0002:0000d54c       ??_C@_0BF@CONLNHDI@simpleSecurityObject?$AA@ 0007354c     libeay32:obj_dat.obj
 0002:0000d564       ??_C@_0BA@LKHIAMBK@friendlyCountry?$AA@ 00073564     libeay32:obj_dat.obj
 0002:0000d574       ??_C@_0BE@OPAPHNCO@domainRelatedObject?$AA@ 00073574     libeay32:obj_dat.obj
 0002:0000d588       ??_C@_09BOCGGGMK@dNSDomain?$AA@ 00073588     libeay32:obj_dat.obj
 0002:0000d594       ??_C@_0BA@KIAIOBLD@rFC822localPart?$AA@ 00073594     libeay32:obj_dat.obj
 0002:0000d5a4       ??_C@_0P@OAPEDDHP@documentSeries?$AA@ 000735a4     libeay32:obj_dat.obj
 0002:0000d5b4       ??_C@_04EKFCMFOP@room?$AA@ 000735b4     libeay32:obj_dat.obj
 0002:0000d5bc       ??_C@_08JEEDKNPB@document?$AA@ 000735bc     libeay32:obj_dat.obj
 0002:0000d5c8       ??_C@_07PMDLEBNF@account?$AA@ 000735c8     libeay32:obj_dat.obj
 0002:0000d5d0       ??_C@_0M@NCGDCEIP@pilotPerson?$AA@ 000735d0     libeay32:obj_dat.obj
 0002:0000d5dc       ??_C@_0M@MCCFCPKP@pilotObject?$AA@ 000735dc     libeay32:obj_dat.obj
 0002:0000d5e8       ??_C@_0BK@LELMGJGD@caseIgnoreIA5StringSyntax?$AA@ 000735e8     libeay32:obj_dat.obj
 0002:0000d604       ??_C@_0BA@KPIIGILK@iA5StringSyntax?$AA@ 00073604     libeay32:obj_dat.obj
 0002:0000d614       ??_C@_0M@DLMEDAFC@pilotGroups?$AA@ 00073614     libeay32:obj_dat.obj
 0002:0000d620       ??_C@_0BB@MJFNAIDM@pilotObjectClass?$AA@ 00073620     libeay32:obj_dat.obj
 0002:0000d634       ??_C@_0BF@CDEFHHCF@pilotAttributeSyntax?$AA@ 00073634     libeay32:obj_dat.obj
 0002:0000d64c       ??_C@_0BD@NEGIHOAI@pilotAttributeType?$AA@ 0007364c     libeay32:obj_dat.obj
 0002:0000d660       ??_C@_05KIBFDOPF@pilot?$AA@ 00073660     libeay32:obj_dat.obj
 0002:0000d668       ??_C@_03BIDCBJP@ucl?$AA@   00073668     libeay32:obj_dat.obj
 0002:0000d66c       ??_C@_03OHCBHMED@pss?$AA@  0007366c     libeay32:obj_dat.obj
 0002:0000d670       ??_C@_04PJOLNDGD@data?$AA@ 00073670     libeay32:obj_dat.obj
 0002:0000d678       ??_C@_0BI@EEABHGCD@Hold?5Instruction?5Reject?$AA@ 00073678     libeay32:obj_dat.obj
 0002:0000d690       ??_C@_0BG@BDAACIJE@holdInstructionReject?$AA@ 00073690     libeay32:obj_dat.obj
 0002:0000d6a8       ??_C@_0BN@IJKNPIFC@Hold?5Instruction?5Call?5Issuer?$AA@ 000736a8     libeay32:obj_dat.obj
 0002:0000d6c8       ??_C@_0BK@ENEKHHMB@holdInstructionCallIssuer?$AA@ 000736c8     libeay32:obj_dat.obj
 0002:0000d6e4       ??_C@_0BG@ECBIHNGK@Hold?5Instruction?5None?$AA@ 000736e4     libeay32:obj_dat.obj
 0002:0000d6fc       ??_C@_0BE@KPEIPHPJ@holdInstructionNone?$AA@ 000736fc     libeay32:obj_dat.obj
 0002:0000d710       ??_C@_0BG@LHBPDMAN@Hold?5Instruction?5Code?$AA@ 00073710     libeay32:obj_dat.obj
 0002:0000d728       ??_C@_0BE@FKEPLGJO@holdInstructionCode?$AA@ 00073728     libeay32:obj_dat.obj
 0002:0000d73c       ??_C@_0M@JMFNEPEI@aes?9256?9cfb?$AA@ 0007373c     libeay32:obj_dat.obj
 0002:0000d748       ??_C@_0M@EAFGNFML@AES?9256?9CFB?$AA@ 00073748     libeay32:obj_dat.obj
 0002:0000d754       ??_C@_0M@NGILPAPA@aes?9256?9ofb?$AA@ 00073754     libeay32:obj_dat.obj
 0002:0000d760       ??_C@_0M@KIAGKHD@AES?9256?9OFB?$AA@ 00073760     libeay32:obj_dat.obj
 0002:0000d76c       ??_C@_0M@ICEPNGNF@aes?9256?9cbc?$AA@ 0007376c     libeay32:obj_dat.obj
 0002:0000d778       ??_C@_0M@FOEEEMFG@AES?9256?9CBC?$AA@ 00073778     libeay32:obj_dat.obj
 0002:0000d784       ??_C@_0M@LPPNNCHP@aes?9256?9ecb?$AA@ 00073784     libeay32:obj_dat.obj
 0002:0000d790       ??_C@_0M@GDPGEIPM@AES?9256?9ECB?$AA@ 00073790     libeay32:obj_dat.obj
 0002:0000d79c       ??_C@_0M@EOODGAMJ@aes?9192?9cfb?$AA@ 0007379c     libeay32:obj_dat.obj
 0002:0000d7a8       ??_C@_0M@JCOIPKEK@AES?9192?9CFB?$AA@ 000737a8     libeay32:obj_dat.obj
 0002:0000d7b4       ??_C@_0M@EDFNPHB@aes?9192?9ofb?$AA@ 000737b4     libeay32:obj_dat.obj
 0002:0000d7c0       ??_C@_0M@NIDOEFPC@AES?9192?9OFB?$AA@ 000737c0     libeay32:obj_dat.obj
 0002:0000d7cc       ??_C@_0M@FAPBPJFE@aes?9192?9cbc?$AA@ 000737cc     libeay32:obj_dat.obj
 0002:0000d7d8       ??_C@_0M@IMPKGDNH@AES?9192?9CBC?$AA@ 000737d8     libeay32:obj_dat.obj
 0002:0000d7e4       ??_C@_0M@GNEDPNPO@aes?9192?9ecb?$AA@ 000737e4     libeay32:obj_dat.obj
 0002:0000d7f0       ??_C@_0M@LBEIGHHN@AES?9192?9ECB?$AA@ 000737f0     libeay32:obj_dat.obj
 0002:0000d7fc       ??_C@_0M@ONHPBHFF@aes?9128?9cfb?$AA@ 000737fc     libeay32:obj_dat.obj
 0002:0000d808       ??_C@_0M@DBHEINNG@AES?9128?9CFB?$AA@ 00073808     libeay32:obj_dat.obj
 0002:0000d814       ??_C@_0M@KHKJKION@aes?9128?9ofb?$AA@ 00073814     libeay32:obj_dat.obj
 0002:0000d820       ??_C@_0M@HLKCDCGO@AES?9128?9OFB?$AA@ 00073820     libeay32:obj_dat.obj
 0002:0000d82c       ??_C@_0M@PDGNIOMI@aes?9128?9cbc?$AA@ 0007382c     libeay32:obj_dat.obj
 0002:0000d838       ??_C@_0M@CPGGBEEL@AES?9128?9CBC?$AA@ 00073838     libeay32:obj_dat.obj
 0002:0000d844       ??_C@_0M@MONPIKGC@aes?9128?9ecb?$AA@ 00073844     libeay32:obj_dat.obj
 0002:0000d850       ??_C@_0M@BCNEBAOB@AES?9128?9ECB?$AA@ 00073850     libeay32:obj_dat.obj
 0002:0000d85c       ??_C@_0BD@HDEEGCLB@Microsoft?5CSP?5Name?$AA@ 0007385c     libeay32:obj_dat.obj
 0002:0000d870       ??_C@_07BPKAKPJK@CSPName?$AA@ 00073870     libeay32:obj_dat.obj
 0002:0000d878       ??_C@_0BA@DGJNDOPM@ecdsa?9with?9SHA1?$AA@ 00073878     libeay32:obj_dat.obj
 0002:0000d888       ??_C@_0L@JJFEINOP@prime256v1?$AA@ 00073888     libeay32:obj_dat.obj
 0002:0000d894       ??_C@_0L@HMEBAKJL@prime239v3?$AA@ 00073894     libeay32:obj_dat.obj
 0002:0000d8a0       ??_C@_0L@GFFKDLNK@prime239v2?$AA@ 000738a0     libeay32:obj_dat.obj
 0002:0000d8ac       ??_C@_0L@EOHHGIBJ@prime239v1?$AA@ 000738ac     libeay32:obj_dat.obj
 0002:0000d8b8       ??_C@_0L@GHGEOHJF@prime192v3?$AA@ 000738b8     libeay32:obj_dat.obj
 0002:0000d8c4       ??_C@_0L@HOHPNGNE@prime192v2?$AA@ 000738c4     libeay32:obj_dat.obj
 0002:0000d8d0       ??_C@_0L@FFFCIFBH@prime192v1?$AA@ 000738d0     libeay32:obj_dat.obj
 0002:0000d8dc       ??_C@_0P@NEOBKIMO@id?9ecPublicKey?$AA@ 000738dc     libeay32:obj_dat.obj
 0002:0000d8ec       ??_C@_0BJ@HECCMKCN@characteristic?9two?9field?$AA@ 000738ec     libeay32:obj_dat.obj
 0002:0000d908       ??_C@_0M@LGLKIODB@prime?9field?$AA@ 00073908     libeay32:obj_dat.obj
 0002:0000d914       ??_C@_0L@HAOKGHPF@ANSI?5X9?462?$AA@ 00073914     libeay32:obj_dat.obj
 0002:0000d920       ??_C@_0L@LBMOMFCJ@ansi?9X9?962?$AA@ 00073920     libeay32:obj_dat.obj
 0002:0000d92c       ??_C@_0BP@DEKFNCEH@X509v3?5No?5Revocation?5Available?$AA@ 0007392c     libeay32:obj_dat.obj
 0002:0000d94c       ??_C@_0L@ECGDAGCK@noRevAvail?$AA@ 0007394c     libeay32:obj_dat.obj
 0002:0000d958       ??_C@_0BE@IECCFFCH@X509v3?5AC?5Targeting?$AA@ 00073958     libeay32:obj_dat.obj
 0002:0000d96c       ??_C@_0BC@JINDJNPM@targetInformation?$AA@ 0007396c     libeay32:obj_dat.obj
 0002:0000d980       ??_C@_0BK@DNMBLGM@X509v3?5Policy?5Constraints?$AA@ 00073980     libeay32:obj_dat.obj
 0002:0000d99c       ??_C@_0BC@IJLMCBHD@policyConstraints?$AA@ 0007399c     libeay32:obj_dat.obj
 0002:0000d9b0       ??_C@_04IAMNPBLO@role?$AA@ 000739b0     libeay32:obj_dat.obj
 0002:0000d9b8       ??_C@_0BA@PEFFHNFH@id?9aca?9encAttrs?$AA@ 000739b8     libeay32:obj_dat.obj
 0002:0000d9c8       ??_C@_0BL@OMFIOBLF@Subject?5Information?5Access?$AA@ 000739c8     libeay32:obj_dat.obj
 0002:0000d9e4       ??_C@_0BC@IEIBIKBA@subjectInfoAccess?$AA@ 000739e4     libeay32:obj_dat.obj
 0002:0000d9f8       ??_C@_0M@BKAIKGEL@ac?9proxying?$AA@ 000739f8     libeay32:obj_dat.obj
 0002:0000da04       ??_C@_0BF@JDOFKNPK@md4WithRSAEncryption?$AA@ 00073a04     libeay32:obj_dat.obj
 0002:0000da1c       ??_C@_07MHHBEDHA@RSA?9MD4?$AA@ 00073a1c     libeay32:obj_dat.obj
 0002:0000da24       ??_C@_09ECGCCLFI@clearance?$AA@ 00073a24     libeay32:obj_dat.obj
 0002:0000da30       ??_C@_0BJ@MAOJIBHF@Selected?5Attribute?5Types?$AA@ 00073a30     libeay32:obj_dat.obj
 0002:0000da4c       ??_C@_0BJ@BDDNHDDA@selected?9attribute?9types?$AA@ 00073a4c     libeay32:obj_dat.obj
 0002:0000da68       ??_C@_04HIBGFPH@NULL?$AA@  00073a68     libeay32:obj_dat.obj
 0002:0000da70       ??_C@_06HFDFFJHI@Domain?$AA@ 00073a70     libeay32:obj_dat.obj
 0002:0000da78       ??_C@_06LKIIGAOE@domain?$AA@ 00073a78     libeay32:obj_dat.obj
 0002:0000da80       ??_C@_0BA@DMAKFKAH@domainComponent?$AA@ 00073a80     libeay32:obj_dat.obj
 0002:0000da90       ??_C@_02KMHJBPDH@DC?$AA@   00073a90     libeay32:obj_dat.obj
 0002:0000da94       ??_C@_08GPNKJGDG@dcObject?$AA@ 00073a94     libeay32:obj_dat.obj
 0002:0000daa0       ??_C@_08KAGHKPKK@dcobject?$AA@ 00073aa0     libeay32:obj_dat.obj
 0002:0000daac       ??_C@_0M@CEEPHGPL@Enterprises?$AA@ 00073aac     libeay32:obj_dat.obj
 0002:0000dab8       ??_C@_0M@DMHOKNAD@enterprises?$AA@ 00073ab8     libeay32:obj_dat.obj
 0002:0000dac4       ??_C@_04JEGKNAHI@Mail?$AA@ 00073ac4     libeay32:obj_dat.obj
 0002:0000dacc       ??_C@_06JDJOGLHO@SNMPv2?$AA@ 00073acc     libeay32:obj_dat.obj
 0002:0000dad4       ??_C@_06DKHMNHOO@snmpv2?$AA@ 00073ad4     libeay32:obj_dat.obj
 0002:0000dadc       ??_C@_08EDKKPLCC@Security?$AA@ 00073adc     libeay32:obj_dat.obj
 0002:0000dae8       ??_C@_08MBFLHJIB@security?$AA@ 00073ae8     libeay32:obj_dat.obj
 0002:0000daf4       ??_C@_07CFINJGKH@Private?$AA@ 00073af4     libeay32:obj_dat.obj
 0002:0000dafc       ??_C@_07NMPLPEPB@private?$AA@ 00073afc     libeay32:obj_dat.obj
 0002:0000db04       ??_C@_0N@FKCIGJFM@Experimental?$AA@ 00073b04     libeay32:obj_dat.obj
 0002:0000db14       ??_C@_0N@OJFGCCKJ@experimental?$AA@ 00073b14     libeay32:obj_dat.obj
 0002:0000db24       ??_C@_0L@ENAJINDB@Management?$AA@ 00073b24     libeay32:obj_dat.obj
 0002:0000db30       ??_C@_04PFNCJACF@mgmt?$AA@ 00073b30     libeay32:obj_dat.obj
 0002:0000db38       ??_C@_09EOAFACM@Directory?$AA@ 00073b38     libeay32:obj_dat.obj
 0002:0000db44       ??_C@_09ELLNFDPM@directory?$AA@ 00073b44     libeay32:obj_dat.obj
 0002:0000db50       ??_C@_04BAMKDBHE@iana?$AA@ 00073b50     libeay32:obj_dat.obj
 0002:0000db58       ??_C@_04NMPANDAM@IANA?$AA@ 00073b58     libeay32:obj_dat.obj
 0002:0000db60       ??_C@_03CIOFGCAJ@dod?$AA@  00073b60     libeay32:obj_dat.obj
 0002:0000db64       ??_C@_03CFBOKPHF@DOD?$AA@  00073b64     libeay32:obj_dat.obj
 0002:0000db68       ??_C@_03MADHIGOI@org?$AA@  00073b68     libeay32:obj_dat.obj
 0002:0000db6c       ??_C@_03MNMMELJE@ORG?$AA@  00073b6c     libeay32:obj_dat.obj
 0002:0000db70       ??_C@_0CA@FIOIBJEO@directory?5services?5?9?5algorithms?$AA@ 00073b70     libeay32:obj_dat.obj
 0002:0000db90       ??_C@_0P@NMIAKCBG@X500algorithms?$AA@ 00073b90     libeay32:obj_dat.obj
 0002:0000dba0       ??_C@_0N@JHANBHGC@rsaSignature?$AA@ 00073ba0     libeay32:obj_dat.obj
 0002:0000dbb0       ??_C@_09JPNFBOJG@algorithm?$AA@ 00073bb0     libeay32:obj_dat.obj
 0002:0000dbbc       ??_C@_0L@INBPOG@Trust?5Root?$AA@ 00073bbc     libeay32:obj_dat.obj
 0002:0000dbc8       ??_C@_09LNEPAILM@trustRoot?$AA@ 00073bc8     libeay32:obj_dat.obj
 0002:0000dbd4       ??_C@_04LNEJFJGI@path?$AA@ 00073bd4     libeay32:obj_dat.obj
 0002:0000dbdc       ??_C@_05HDPIMK@valid?$AA@  00073bdc     libeay32:obj_dat.obj
 0002:0000dbe4       ??_C@_0BF@MPEDLKDP@Extended?5OCSP?5Status?$AA@ 00073be4     libeay32:obj_dat.obj
 0002:0000dbfc       ??_C@_0P@EGENIBNC@extendedStatus?$AA@ 00073bfc     libeay32:obj_dat.obj
 0002:0000dc0c       ??_C@_0BF@CEIKAD@OCSP?5Service?5Locator?$AA@ 00073c0c     libeay32:obj_dat.obj
 0002:0000dc24       ??_C@_0P@LCDAPLHC@serviceLocator?$AA@ 00073c24     libeay32:obj_dat.obj
 0002:0000dc34       ??_C@_0BE@JAFPABJB@OCSP?5Archive?5Cutoff?$AA@ 00073c34     libeay32:obj_dat.obj
 0002:0000dc48       ??_C@_0O@FIEDPKGI@archiveCutoff?$AA@ 00073c48     libeay32:obj_dat.obj
 0002:0000dc58       ??_C@_0O@HFOALJCG@OCSP?5No?5Check?$AA@ 00073c58     libeay32:obj_dat.obj
 0002:0000dc68       ??_C@_07MCKMCKHJ@noCheck?$AA@ 00073c68     libeay32:obj_dat.obj
 0002:0000dc70       ??_C@_0BK@JKKLNLEI@Acceptable?5OCSP?5Responses?$AA@ 00073c70     libeay32:obj_dat.obj
 0002:0000dc8c       ??_C@_0BE@FBPDIHIK@acceptableResponses?$AA@ 00073c8c     libeay32:obj_dat.obj
 0002:0000dca0       ??_C@_0M@LCLKJALE@OCSP?5CRL?5ID?$AA@ 00073ca0     libeay32:obj_dat.obj
 0002:0000dcac       ??_C@_05NOENOBME@CrlID?$AA@ 00073cac     libeay32:obj_dat.obj
 0002:0000dcb4       ??_C@_0L@NCNDEJFL@OCSP?5Nonce?$AA@ 00073cb4     libeay32:obj_dat.obj
 0002:0000dcc0       ??_C@_05OJOPLPHH@Nonce?$AA@ 00073cc0     libeay32:obj_dat.obj
 0002:0000dcc8       ??_C@_0BE@ONEEPEOL@Basic?5OCSP?5Response?$AA@ 00073cc8     libeay32:obj_dat.obj
 0002:0000dcdc       ??_C@_0BC@KFAFMFFF@basicOCSPResponse?$AA@ 00073cdc     libeay32:obj_dat.obj
 0002:0000dcf0       ??_C@_07JCKMJMPC@ad?5dvcs?$AA@ 00073cf0     libeay32:obj_dat.obj
 0002:0000dcf8       ??_C@_07JCCJJKFE@AD_DVCS?$AA@ 00073cf8     libeay32:obj_dat.obj
 0002:0000dd00       ??_C@_0BB@NMPPBOGK@AD?5Time?5Stamping?$AA@ 00073d00     libeay32:obj_dat.obj
 0002:0000dd14       ??_C@_0BA@PBBONLHE@ad_timestamping?$AA@ 00073d14     libeay32:obj_dat.obj
 0002:0000dd24       ??_C@_0BD@DDALHPCH@id?9cct?9PKIResponse?$AA@ 00073d24     libeay32:obj_dat.obj
 0002:0000dd38       ??_C@_0P@FNCPPGJO@id?9cct?9PKIData?$AA@ 00073d38     libeay32:obj_dat.obj
 0002:0000dd48       ??_C@_0L@CDHPLMPE@id?9cct?9crs?$AA@ 00073d48     libeay32:obj_dat.obj
 0002:0000dd54       ??_C@_0BH@DJONLBHI@id?9qcs?9pkixQCSyntax?9v1?$AA@ 00073d54     libeay32:obj_dat.obj
 0002:0000dd6c       ??_C@_0M@FBOAJIIJ@id?9aca?9role?$AA@ 00073d6c     libeay32:obj_dat.obj
 0002:0000dd78       ??_C@_0N@HOPCGOGP@id?9aca?9group?$AA@ 00073d78     libeay32:obj_dat.obj
 0002:0000dd88       ??_C@_0BI@IDHFJBKH@id?9aca?9chargingIdentity?$AA@ 00073d88     libeay32:obj_dat.obj
 0002:0000dda0       ??_C@_0BG@GFJCFEAI@id?9aca?9accessIdentity?$AA@ 00073da0     libeay32:obj_dat.obj
 0002:0000ddb8       ??_C@_0BK@OFEDAOCA@id?9aca?9authenticationInfo?$AA@ 00073db8     libeay32:obj_dat.obj
 0002:0000ddd4       ??_C@_0BK@BJMNIGCJ@id?9pda?9countryOfResidence?$AA@ 00073dd4     libeay32:obj_dat.obj
 0002:0000ddf0       ??_C@_0BM@KMGEGNAB@id?9pda?9countryOfCitizenship?$AA@ 00073df0     libeay32:obj_dat.obj
 0002:0000de0c       ??_C@_0O@JMCFNPFD@id?9pda?9gender?$AA@ 00073e0c     libeay32:obj_dat.obj
 0002:0000de1c       ??_C@_0BE@NIFFDBPJ@id?9pda?9placeOfBirth?$AA@ 00073e1c     libeay32:obj_dat.obj
 0002:0000de30       ??_C@_0BD@BADJMIPF@id?9pda?9dateOfBirth?$AA@ 00073e30     libeay32:obj_dat.obj
 0002:0000de44       ??_C@_0BD@IGLADCFL@id?9on?9personalData?$AA@ 00073e44     libeay32:obj_dat.obj
 0002:0000de58       ??_C@_0BN@MIGHDJON@id?9cmc?9confirmCertAcceptance?$AA@ 00073e58     libeay32:obj_dat.obj
 0002:0000de78       ??_C@_0BG@EEIJMDPB@id?9cmc?9popLinkWitness?$AA@ 00073e78     libeay32:obj_dat.obj
 0002:0000de90       ??_C@_0BF@GGLCNKGO@id?9cmc?9popLinkRandom?$AA@ 00073e90     libeay32:obj_dat.obj
 0002:0000dea8       ??_C@_0BE@JKLJLIIH@id?9cmc?9queryPending?$AA@ 00073ea8     libeay32:obj_dat.obj
 0002:0000debc       ??_C@_0BE@CKMFMMDP@id?9cmc?9responseInfo?$AA@ 00073ebc     libeay32:obj_dat.obj
 0002:0000ded0       ??_C@_0P@PCIOIKNC@id?9cmc?9regInfo?$AA@ 00073ed0     libeay32:obj_dat.obj
 0002:0000dee0       ??_C@_0BF@BOEAJJNI@id?9cmc?9revokeRequest?$AA@ 00073ee0     libeay32:obj_dat.obj
 0002:0000def8       ??_C@_0O@OIGIOBJ@id?9cmc?9getCRL?$AA@ 00073ef8     libeay32:obj_dat.obj
 0002:0000df08       ??_C@_0P@GMDPJKDO@id?9cmc?9getCert?$AA@ 00073f08     libeay32:obj_dat.obj
 0002:0000df18       ??_C@_0BF@BMODAINP@id?9cmc?9lraPOPWitness?$AA@ 00073f18     libeay32:obj_dat.obj
 0002:0000df30       ??_C@_0BE@KBIPLENG@id?9cmc?9decryptedPOP?$AA@ 00073f30     libeay32:obj_dat.obj
 0002:0000df44       ??_C@_0BE@NILMJFN@id?9cmc?9encryptedPOP?$AA@ 00073f44     libeay32:obj_dat.obj
 0002:0000df58       ??_C@_0BF@HLOCACJF@id?9cmc?9addExtensions?$AA@ 00073f58     libeay32:obj_dat.obj
 0002:0000df70       ??_C@_0BG@JLHHNNCH@id?9cmc?9recipientNonce?$AA@ 00073f70     libeay32:obj_dat.obj
 0002:0000df88       ??_C@_0BD@BCMJDDMP@id?9cmc?9senderNonce?$AA@ 00073f88     libeay32:obj_dat.obj
 0002:0000df9c       ??_C@_0BF@GEJAHBF@id?9cmc?9transactionId?$AA@ 00073f9c     libeay32:obj_dat.obj
 0002:0000dfb4       ??_C@_0BC@LLJKCHEN@id?9cmc?9dataReturn?$AA@ 00073fb4     libeay32:obj_dat.obj
 0002:0000dfc8       ??_C@_0BF@IDAHNDCK@id?9cmc?9identityProof?$AA@ 00073fc8     libeay32:obj_dat.obj
 0002:0000dfe0       ??_C@_0BG@PPIINOMK@id?9cmc?9identification?$AA@ 00073fe0     libeay32:obj_dat.obj
 0002:0000dff8       ??_C@_0BC@CMNEPEAI@id?9cmc?9statusInfo?$AA@ 00073ff8     libeay32:obj_dat.obj
 0002:0000e00c       ??_C@_0O@OBGPPBGA@id?9alg?9dh?9pop?$AA@ 0007400c     libeay32:obj_dat.obj
 0002:0000e01c       ??_C@_0BI@KIODNBCM@id?9alg?9dh?9sig?9hmac?9sha1?$AA@ 0007401c     libeay32:obj_dat.obj
 0002:0000e034       ??_C@_0BD@LAAJOBHI@id?9alg?9noSignature?$AA@ 00074034     libeay32:obj_dat.obj
 0002:0000e048       ??_C@_0N@KIJONBNA@id?9alg?9des40?$AA@ 00074048     libeay32:obj_dat.obj
 0002:0000e058       ??_C@_0BD@EEAPBNJJ@id?9regInfo?9certReq?$AA@ 00074058     libeay32:obj_dat.obj
 0002:0000e06c       ??_C@_0BF@FHFGHAHE@id?9regInfo?9utf8Pairs?$AA@ 0007406c     libeay32:obj_dat.obj
 0002:0000e084       ??_C@_0BL@GHBPLPHM@id?9regCtrl?9protocolEncrKey?$AA@ 00074084     libeay32:obj_dat.obj
 0002:0000e0a0       ??_C@_0BF@GFJPNJIG@id?9regCtrl?9oldCertID?$AA@ 000740a0     libeay32:obj_dat.obj
 0002:0000e0b8       ??_C@_0BN@ONKHMAOP@id?9regCtrl?9pkiArchiveOptions?$AA@ 000740b8     libeay32:obj_dat.obj
 0002:0000e0d8       ??_C@_0BO@GJKPPLPL@id?9regCtrl?9pkiPublicationInfo?$AA@ 000740d8     libeay32:obj_dat.obj
 0002:0000e0f8       ??_C@_0BJ@FBKKLLKP@id?9regCtrl?9authenticator?$AA@ 000740f8     libeay32:obj_dat.obj
 0002:0000e114       ??_C@_0BE@JDMKCIPE@id?9regCtrl?9regToken?$AA@ 00074114     libeay32:obj_dat.obj
 0002:0000e128       ??_C@_0L@BGHMJHOP@id?9regInfo?$AA@ 00074128     libeay32:obj_dat.obj
 0002:0000e134       ??_C@_0L@FDGKGANK@id?9regCtrl?$AA@ 00074134     libeay32:obj_dat.obj
 0002:0000e140       ??_C@_0BF@CLCJJGFI@id?9it?9origPKIMessage?$AA@ 00074140     libeay32:obj_dat.obj
 0002:0000e158       ??_C@_0BG@KCBHNMIK@id?9it?9confirmWaitTime?$AA@ 00074158     libeay32:obj_dat.obj
 0002:0000e170       ??_C@_0BG@MKDHCJKF@id?9it?9implicitConfirm?$AA@ 00074170     libeay32:obj_dat.obj
 0002:0000e188       ??_C@_0BE@FOOOCPMH@id?9it?9revPassphrase?$AA@ 00074188     libeay32:obj_dat.obj
 0002:0000e19c       ??_C@_0BG@KPIIFBLH@id?9it?9keyPairParamRep?$AA@ 0007419c     libeay32:obj_dat.obj
 0002:0000e1b4       ??_C@_0BG@LGJDGAPG@id?9it?9keyPairParamReq?$AA@ 000741b4     libeay32:obj_dat.obj
 0002:0000e1cc       ??_C@_0BL@HBPHBFLO@id?9it?9subscriptionResponse?$AA@ 000741cc     libeay32:obj_dat.obj
 0002:0000e1e8       ??_C@_0BK@MKGCMKGI@id?9it?9subscriptionRequest?$AA@ 000741e8     libeay32:obj_dat.obj
 0002:0000e204       ??_C@_0BG@BPLKDJPD@id?9it?9unsupportedOIDs?$AA@ 00074204     libeay32:obj_dat.obj
 0002:0000e21c       ??_C@_0BB@NHKBGJFG@id?9it?9currentCRL?$AA@ 0007421c     libeay32:obj_dat.obj
 0002:0000e230       ??_C@_0BG@OAKEHPLC@id?9it?9caKeyUpdateInfo?$AA@ 00074230     libeay32:obj_dat.obj
 0002:0000e248       ??_C@_0BH@JFBOPDCH@id?9it?9preferredSymmAlg?$AA@ 00074248     libeay32:obj_dat.obj
 0002:0000e260       ??_C@_0BG@FKIDIODL@id?9it?9encKeyPairTypes?$AA@ 00074260     libeay32:obj_dat.obj
 0002:0000e278       ??_C@_0BH@POCENFBA@id?9it?9signKeyPairTypes?$AA@ 00074278     libeay32:obj_dat.obj
 0002:0000e290       ??_C@_0BE@GJACIPND@id?9it?9caProtEncCert?$AA@ 00074290     libeay32:obj_dat.obj
 0002:0000e2a4       ??_C@_04FFLIHJGD@dvcs?$AA@ 000742a4     libeay32:obj_dat.obj
 0002:0000e2ac       ??_C@_04JJICJLBL@DVCS?$AA@ 000742ac     libeay32:obj_dat.obj
 0002:0000e2b4       ??_C@_0L@DECDDCGF@IPSec?5User?$AA@ 000742b4     libeay32:obj_dat.obj
 0002:0000e2c0       ??_C@_09GOHJKOFF@ipsecUser?$AA@ 000742c0     libeay32:obj_dat.obj
 0002:0000e2cc       ??_C@_0N@EKDIOGLO@IPSec?5Tunnel?$AA@ 000742cc     libeay32:obj_dat.obj
 0002:0000e2dc       ??_C@_0M@GMMHFFHI@ipsecTunnel?$AA@ 000742dc     libeay32:obj_dat.obj
 0002:0000e2e8       ??_C@_0BB@JEJDAICO@IPSec?5End?5System?$AA@ 000742e8     libeay32:obj_dat.obj
 0002:0000e2fc       ??_C@_0P@MKBFMAPP@ipsecEndSystem?$AA@ 000742fc     libeay32:obj_dat.obj
 0002:0000e30c       ??_C@_0L@HLNNPJEH@textNotice?$AA@ 0007430c     libeay32:obj_dat.obj
 0002:0000e318       ??_C@_0BG@JCJJBMAI@sbgp?9routerIdentifier?$AA@ 00074318     libeay32:obj_dat.obj
 0002:0000e330       ??_C@_0BG@OJEHJDKA@sbgp?9autonomousSysNum?$AA@ 00074330     libeay32:obj_dat.obj
 0002:0000e348       ??_C@_0BB@NNCKCHBC@sbgp?9ipAddrBlock?$AA@ 00074348     libeay32:obj_dat.obj
 0002:0000e35c       ??_C@_0L@DLGBNBJE@aaControls?$AA@ 0007435c     libeay32:obj_dat.obj
 0002:0000e368       ??_C@_0N@FPEEOJCI@ac?9targeting?$AA@ 00074368     libeay32:obj_dat.obj
 0002:0000e378       ??_C@_0P@CIOHPJGC@ac?9auditEntity?$AA@ 00074378     libeay32:obj_dat.obj
 0002:0000e388       ??_C@_0N@FPMNLLM@qcStatements?$AA@ 00074388     libeay32:obj_dat.obj
 0002:0000e398       ??_C@_0P@KFKDECPH@Biometric?5Info?$AA@ 00074398     libeay32:obj_dat.obj
 0002:0000e3a8       ??_C@_0O@MPIIPAHM@biometricInfo?$AA@ 000743a8     libeay32:obj_dat.obj
 0002:0000e3b8       ??_C@_0P@MMOAAMFD@id?9mod?9cmp2000?$AA@ 000743b8     libeay32:obj_dat.obj
 0002:0000e3c8       ??_C@_0M@GHDGNJKI@id?9mod?9dvcs?$AA@ 000743c8     libeay32:obj_dat.obj
 0002:0000e3d4       ??_C@_0M@EACKLPKH@id?9mod?9ocsp?$AA@ 000743d4     libeay32:obj_dat.obj
 0002:0000e3e0       ??_C@_0BK@GAJOODEK@id?9mod?9timestamp?9protocol?$AA@ 000743e0     libeay32:obj_dat.obj
 0002:0000e3fc       ??_C@_0BG@EPPFBJNH@id?9mod?9attribute?9cert?$AA@ 000743fc     libeay32:obj_dat.obj
 0002:0000e414       ??_C@_0BJ@IGODAJIK@id?9mod?9qualified?9cert?993?$AA@ 00074414     libeay32:obj_dat.obj
 0002:0000e430       ??_C@_0BJ@GENFLKHG@id?9mod?9qualified?9cert?988?$AA@ 00074430     libeay32:obj_dat.obj
 0002:0000e44c       ??_C@_0L@MONEHBKH@id?9mod?9cmp?$AA@ 0007444c     libeay32:obj_dat.obj
 0002:0000e458       ??_C@_0BG@NAFGGBFM@id?9mod?9kea?9profile?993?$AA@ 00074458     libeay32:obj_dat.obj
 0002:0000e470       ??_C@_0BG@DCGANCKA@id?9mod?9kea?9profile?988?$AA@ 00074470     libeay32:obj_dat.obj
 0002:0000e488       ??_C@_0L@KPDLDADF@id?9mod?9cmc?$AA@ 00074488     libeay32:obj_dat.obj
 0002:0000e494       ??_C@_0M@GHFPFJPB@id?9mod?9crmf?$AA@ 00074494     libeay32:obj_dat.obj
 0002:0000e4a0       ??_C@_0BF@EOKAKKIK@id?9pkix1?9implicit?993?$AA@ 000744a0     libeay32:obj_dat.obj
 0002:0000e4b8       ??_C@_0BF@JEALIPIC@id?9pkix1?9explicit?993?$AA@ 000744b8     libeay32:obj_dat.obj
 0002:0000e4d0       ??_C@_0BF@KMJGBJHG@id?9pkix1?9implicit?988?$AA@ 000744d0     libeay32:obj_dat.obj
 0002:0000e4e8       ??_C@_0BF@HGDNDMHO@id?9pkix1?9explicit?988?$AA@ 000744e8     libeay32:obj_dat.obj
 0002:0000e500       ??_C@_06PONIBOCI@id?9cct?$AA@ 00074500     libeay32:obj_dat.obj
 0002:0000e508       ??_C@_06ELIJBHPL@id?9qcs?$AA@ 00074508     libeay32:obj_dat.obj
 0002:0000e510       ??_C@_06GDGEDALH@id?9aca?$AA@ 00074510     libeay32:obj_dat.obj
 0002:0000e518       ??_C@_06IOIOBGMI@id?9pda?$AA@ 00074518     libeay32:obj_dat.obj
 0002:0000e520       ??_C@_05OHNJGMJE@id?9on?$AA@ 00074520     libeay32:obj_dat.obj
 0002:0000e528       ??_C@_06PBMFLHLE@id?9cmc?$AA@ 00074528     libeay32:obj_dat.obj
 0002:0000e530       ??_C@_06DOGCNAAM@id?9alg?$AA@ 00074530     libeay32:obj_dat.obj
 0002:0000e538       ??_C@_07OMHOPMIM@id?9pkip?$AA@ 00074538     libeay32:obj_dat.obj
 0002:0000e540       ??_C@_05FDHJOKPN@id?9it?$AA@ 00074540     libeay32:obj_dat.obj
 0002:0000e548       ??_C@_05EBEMBIDF@id?9qt?$AA@ 00074548     libeay32:obj_dat.obj
 0002:0000e550       ??_C@_0M@FNAFBNKE@id?9pkix?9mod?$AA@ 00074550     libeay32:obj_dat.obj
 0002:0000e55c       ??_C@_03ODADJPDG@md4?$AA@  0007455c     libeay32:obj_dat.obj
 0002:0000e560       ??_C@_03HLHMHGOI@MD4?$AA@  00074560     libeay32:obj_dat.obj
 0002:0000e564       ??_C@_0CB@MICJDGGH@id?9smime?9cti?9ets?9proofOfCreation@ 00074564     libeay32:obj_dat.obj
 0002:0000e588       ??_C@_0CB@DDLMHEBC@id?9smime?9cti?9ets?9proofOfApproval@ 00074588     libeay32:obj_dat.obj
 0002:0000e5ac       ??_C@_0BP@ODCAFFCM@id?9smime?9cti?9ets?9proofOfSender?$AA@ 000745ac     libeay32:obj_dat.obj
 0002:0000e5cc       ??_C@_0CB@ICJGPMEP@id?9smime?9cti?9ets?9proofOfDelivery@ 000745cc     libeay32:obj_dat.obj
 0002:0000e5f0       ??_C@_0CA@HNGOKBGC@id?9smime?9cti?9ets?9proofOfReceipt?$AA@ 000745f0     libeay32:obj_dat.obj
 0002:0000e610       ??_C@_0BP@BCHFEGHC@id?9smime?9cti?9ets?9proofOfOrigin?$AA@ 00074610     libeay32:obj_dat.obj
 0002:0000e630       ??_C@_0BN@GPAAHNOH@id?9smime?9spq?9ets?9sqt?9unotice?$AA@ 00074630     libeay32:obj_dat.obj
 0002:0000e650       ??_C@_0BJ@IMNKDGEG@id?9smime?9spq?9ets?9sqt?9uri?$AA@ 00074650     libeay32:obj_dat.obj
 0002:0000e66c       ??_C@_0BB@BMOBKAGE@id?9smime?9cd?9ldap?$AA@ 0007466c     libeay32:obj_dat.obj
 0002:0000e680       ??_C@_0BI@FIFDKKFJ@id?9smime?9alg?9CMSRC2wrap?$AA@ 00074680     libeay32:obj_dat.obj
 0002:0000e698       ??_C@_0BJ@FOFHEIDB@id?9smime?9alg?9CMS3DESwrap?$AA@ 00074698     libeay32:obj_dat.obj
 0002:0000e6b4       ??_C@_0BC@COOODKPD@id?9smime?9alg?9ESDH?$AA@ 000746b4     libeay32:obj_dat.obj
 0002:0000e6c8       ??_C@_0BF@JNCPAJCA@id?9smime?9alg?9RC2wrap?$AA@ 000746c8     libeay32:obj_dat.obj
 0002:0000e6e0       ??_C@_0BG@HHELPNAK@id?9smime?9alg?93DESwrap?$AA@ 000746e0     libeay32:obj_dat.obj
 0002:0000e6f8       ??_C@_0BJ@FIJMOHBJ@id?9smime?9alg?9ESDHwithRC2?$AA@ 000746f8     libeay32:obj_dat.obj
 0002:0000e714       ??_C@_0BK@JNJOCCCB@id?9smime?9alg?9ESDHwith3DES?$AA@ 00074714     libeay32:obj_dat.obj
 0002:0000e730       ??_C@_0BF@KEMAMBKF@id?9smime?9aa?9dvcs?9dvc?$AA@ 00074730     libeay32:obj_dat.obj
 0002:0000e748       ??_C@_0BK@HDBIPLFI@id?9smime?9aa?9signatureType?$AA@ 00074748     libeay32:obj_dat.obj
 0002:0000e764       ??_C@_0CB@BEMKNJGO@id?9smime?9aa?9ets?9archiveTimeStamp@ 00074764     libeay32:obj_dat.obj
 0002:0000e788       ??_C@_0CB@CJNBPJE@id?9smime?9aa?9ets?9certCRLTimestamp@ 00074788     libeay32:obj_dat.obj
 0002:0000e7ac       ??_C@_0BN@HGLOGOFI@id?9smime?9aa?9ets?9escTimeStamp?$AA@ 000747ac     libeay32:obj_dat.obj
 0002:0000e7cc       ??_C@_0CB@GOCEFPFO@id?9smime?9aa?9ets?9revocationValues@ 000747cc     libeay32:obj_dat.obj
 0002:0000e7f0       ??_C@_0BL@IFKOLDIG@id?9smime?9aa?9ets?9certValues?$AA@ 000747f0     libeay32:obj_dat.obj
 0002:0000e80c       ??_C@_0BP@BCHJHNFO@id?9smime?9aa?9ets?9RevocationRefs?$AA@ 0007480c     libeay32:obj_dat.obj
 0002:0000e82c       ??_C@_0CA@NKIOCHLG@id?9smime?9aa?9ets?9CertificateRefs?$AA@ 0007482c     libeay32:obj_dat.obj
 0002:0000e84c       ??_C@_0CB@GHKINGOH@id?9smime?9aa?9ets?9contentTimestamp@ 0007484c     libeay32:obj_dat.obj
 0002:0000e870       ??_C@_0BN@JFIFOPBH@id?9smime?9aa?9ets?9otherSigCert?$AA@ 00074870     libeay32:obj_dat.obj
 0002:0000e890       ??_C@_0BL@KDJDAGDC@id?9smime?9aa?9ets?9signerAttr?$AA@ 00074890     libeay32:obj_dat.obj
 0002:0000e8ac       ??_C@_0BP@EODAELPO@id?9smime?9aa?9ets?9signerLocation?$AA@ 000748ac     libeay32:obj_dat.obj
 0002:0000e8cc       ??_C@_0BP@OLIFPEIM@id?9smime?9aa?9ets?9commitmentType?$AA@ 000748cc     libeay32:obj_dat.obj
 0002:0000e8ec       ??_C@_0BM@GKFMJCFL@id?9smime?9aa?9ets?9sigPolicyId?$AA@ 000748ec     libeay32:obj_dat.obj
 0002:0000e908       ??_C@_0BL@DHJOIJNE@id?9smime?9aa?9timeStampToken?$AA@ 00074908     libeay32:obj_dat.obj
 0002:0000e924       ??_C@_0BO@CEEOANBD@id?9smime?9aa?9smimeEncryptCerts?$AA@ 00074924     libeay32:obj_dat.obj
 0002:0000e944       ??_C@_0BP@LHGJLGIB@id?9smime?9aa?9signingCertificate?$AA@ 00074944     libeay32:obj_dat.obj
 0002:0000e964       ??_C@_0BK@LAPEFMP@id?9smime?9aa?9encrypKeyPref?$AA@ 00074964     libeay32:obj_dat.obj
 0002:0000e980       ??_C@_0BN@LEFAEFL@id?9smime?9aa?9contentReference?$AA@ 00074980     libeay32:obj_dat.obj
 0002:0000e9a0       ??_C@_0BN@NFAAOKEA@id?9smime?9aa?9equivalentLabels?$AA@ 000749a0     libeay32:obj_dat.obj
 0002:0000e9c0       ??_C@_0BF@CFNHFPDB@id?9smime?9aa?9macValue?$AA@ 000749c0     libeay32:obj_dat.obj
 0002:0000e9d8       ??_C@_0BO@KMJGIAMK@id?9smime?9aa?9contentIdentifier?$AA@ 000749d8     libeay32:obj_dat.obj
 0002:0000e9f8       ??_C@_0BN@GCCNOJCG@id?9smime?9aa?9encapContentType?$AA@ 000749f8     libeay32:obj_dat.obj
 0002:0000ea18       ??_C@_0BJ@LJLDKMDH@id?9smime?9aa?9msgSigDigest?$AA@ 00074a18     libeay32:obj_dat.obj
 0002:0000ea34       ??_C@_0BI@EMGPJFHB@id?9smime?9aa?9contentHint?$AA@ 00074a34     libeay32:obj_dat.obj
 0002:0000ea4c       ??_C@_0BM@OEKGBMLE@id?9smime?9aa?9mlExpandHistory?$AA@ 00074a4c     libeay32:obj_dat.obj
 0002:0000ea68       ??_C@_0BK@DNJNJILO@id?9smime?9aa?9securityLabel?$AA@ 00074a68     libeay32:obj_dat.obj
 0002:0000ea84       ??_C@_0BL@LMGNMPFD@id?9smime?9aa?9receiptRequest?$AA@ 00074a84     libeay32:obj_dat.obj
 0002:0000eaa0       ??_C@_0BN@POKJLKJJ@id?9smime?9ct?9DVCSResponseData?$AA@ 00074aa0     libeay32:obj_dat.obj
 0002:0000eac0       ??_C@_0BM@MFKPCEGN@id?9smime?9ct?9DVCSRequestData?$AA@ 00074ac0     libeay32:obj_dat.obj
 0002:0000eadc       ??_C@_0BI@BGKPNMK@id?9smime?9ct?9contentInfo?$AA@ 00074adc     libeay32:obj_dat.obj
 0002:0000eaf4       ??_C@_0BE@FKPPBHI@id?9smime?9ct?9TDTInfo?$AA@ 00074af4     libeay32:obj_dat.obj
 0002:0000eb08       ??_C@_0BE@KHNGFDDI@id?9smime?9ct?9TSTInfo?$AA@ 00074b08     libeay32:obj_dat.obj
 0002:0000eb1c       ??_C@_0BI@DBILCLFJ@id?9smime?9ct?9publishCert?$AA@ 00074b1c     libeay32:obj_dat.obj
 0002:0000eb34       ??_C@_0BF@KGEHGOF@id?9smime?9ct?9authData?$AA@ 00074b34     libeay32:obj_dat.obj
 0002:0000eb4c       ??_C@_0BE@GCHIHBHA@id?9smime?9ct?9receipt?$AA@ 00074b4c     libeay32:obj_dat.obj
 0002:0000eb60       ??_C@_0BP@CCCOHHAI@id?9smime?9mod?9ets?9eSigPolicy?997?$AA@ 00074b60     libeay32:obj_dat.obj
 0002:0000eb80       ??_C@_0BP@KEHEABPA@id?9smime?9mod?9ets?9eSigPolicy?988?$AA@ 00074b80     libeay32:obj_dat.obj
 0002:0000eba0       ??_C@_0BP@POGMGJII@id?9smime?9mod?9ets?9eSignature?997?$AA@ 00074ba0     libeay32:obj_dat.obj
 0002:0000ebc0       ??_C@_0BP@HIDGBPHA@id?9smime?9mod?9ets?9eSignature?988?$AA@ 00074bc0     libeay32:obj_dat.obj
 0002:0000ebe0       ??_C@_0BE@PEENABNJ@id?9smime?9mod?9msg?9v3?$AA@ 00074be0     libeay32:obj_dat.obj
 0002:0000ebf4       ??_C@_0BB@LBBEMNBN@id?9smime?9mod?9oid?$AA@ 00074bf4     libeay32:obj_dat.obj
 0002:0000ec08       ??_C@_0BB@MKJLIPEJ@id?9smime?9mod?9ess?$AA@ 00074c08     libeay32:obj_dat.obj
 0002:0000ec1c       ??_C@_0BB@PJEIFOOP@id?9smime?9mod?9cms?$AA@ 00074c1c     libeay32:obj_dat.obj
 0002:0000ec30       ??_C@_0N@CFBKAPGC@id?9smime?9cti?$AA@ 00074c30     libeay32:obj_dat.obj
 0002:0000ec40       ??_C@_0N@PABBGIHI@id?9smime?9spq?$AA@ 00074c40     libeay32:obj_dat.obj
 0002:0000ec50       ??_C@_0M@LHBAJBP@id?9smime?9cd?$AA@ 00074c50     libeay32:obj_dat.obj
 0002:0000ec5c       ??_C@_0N@DKFBIKP@id?9smime?9alg?$AA@ 00074c5c     libeay32:obj_dat.obj
 0002:0000ec6c       ??_C@_0M@HFICCJDE@id?9smime?9aa?$AA@ 00074c6c     libeay32:obj_dat.obj
 0002:0000ec78       ??_C@_0M@EBLDBLEO@id?9smime?9ct?$AA@ 00074c78     libeay32:obj_dat.obj
 0002:0000ec84       ??_C@_0N@GABIEKIN@id?9smime?9mod?$AA@ 00074c84     libeay32:obj_dat.obj
 0002:0000ec94       ??_C@_06DFGHEKNE@S?1MIME?$AA@ 00074c94     libeay32:obj_dat.obj
 0002:0000ec9c       ??_C@_05HHBEAKJJ@SMIME?$AA@ 00074c9c     libeay32:obj_dat.obj
 0002:0000eca4       ??_C@_05HGOIFJJD@pkcs5?$AA@ 00074ca4     libeay32:obj_dat.obj
 0002:0000ecac       ??_C@_05BCIEJMJH@pkcs1?$AA@ 00074cac     libeay32:obj_dat.obj
 0002:0000ecb4       ??_C@_0L@DJCLIPOH@X9?457?5CM?5?$DP?$AA@ 00074cb4     libeay32:obj_dat.obj
 0002:0000ecc0       ??_C@_04CGFPFLFA@X9cm?$AA@ 00074cc0     libeay32:obj_dat.obj
 0002:0000ecc8       ??_C@_05PAJLFBHD@X9?457?$AA@ 00074cc8     libeay32:obj_dat.obj
 0002:0000ecd0       ??_C@_05OCCOPOJN@X9?957?$AA@ 00074cd0     libeay32:obj_dat.obj
 0002:0000ecd8       ??_C@_0BD@NMCDOJHL@ISO?5US?5Member?5Body?$AA@ 00074cd8     libeay32:obj_dat.obj
 0002:0000ecec       ??_C@_06EKAADAMF@ISO?9US?$AA@ 00074cec     libeay32:obj_dat.obj
 0002:0000ecf4       ??_C@_0BA@BGDAEHGF@ISO?5Member?5Body?$AA@ 00074cf4     libeay32:obj_dat.obj
 0002:0000ed04       ??_C@_0M@CMICFDOA@member?9body?$AA@ 00074d04     libeay32:obj_dat.obj
 0002:0000ed10       ??_C@_03CMEHDJAL@iso?$AA@  00074d10     libeay32:obj_dat.obj
 0002:0000ed14       ??_C@_03CBLMPEHH@ISO?$AA@  00074d14     libeay32:obj_dat.obj
 0002:0000ed18       ??_C@_0N@CPJNIPDD@OCSP?5Signing?$AA@ 00074d18     libeay32:obj_dat.obj
 0002:0000ed28       ??_C@_0M@HBKJLKNM@OCSPSigning?$AA@ 00074d28     libeay32:obj_dat.obj
 0002:0000ed34       ??_C@_0L@CABCENFK@CA?5Issuers?$AA@ 00074d34     libeay32:obj_dat.obj
 0002:0000ed40       ??_C@_09GFPECPIH@caIssuers?$AA@ 00074d40     libeay32:obj_dat.obj
 0002:0000ed4c       ??_C@_04LOJOPNBE@OCSP?$AA@ 00074d4c     libeay32:obj_dat.obj
 0002:0000ed54       ??_C@_0BN@EILCOJAN@Authority?5Information?5Access?$AA@ 00074d54     libeay32:obj_dat.obj
 0002:0000ed74       ??_C@_0BE@PLCGCINM@authorityInfoAccess?$AA@ 00074d74     libeay32:obj_dat.obj
 0002:0000ed88       ??_C@_05BHKIKJBE@id?9ad?$AA@ 00074d88     libeay32:obj_dat.obj
 0002:0000ed90       ??_C@_05BDFHFBBC@id?9pe?$AA@ 00074d90     libeay32:obj_dat.obj
 0002:0000ed98       ??_C@_0M@DNNLEIMI@dnQualifier?$AA@ 00074d98     libeay32:obj_dat.obj
 0002:0000eda4       ??_C@_04MEMAJGDJ@name?$AA@ 00074da4     libeay32:obj_dat.obj
 0002:0000edac       ??_C@_0BC@GLHEKHCC@Extension?5Request?$AA@ 00074dac     libeay32:obj_dat.obj
 0002:0000edc0       ??_C@_06EJACAMDF@extReq?$AA@ 00074dc0     libeay32:obj_dat.obj
 0002:0000edc8       ??_C@_0BM@MEJAMAEO@Microsoft?5Extension?5Request?$AA@ 00074dc8     libeay32:obj_dat.obj
 0002:0000ede4       ??_C@_08HCCJAOPJ@msExtReq?$AA@ 00074de4     libeay32:obj_dat.obj
 0002:0000edf0       ??_C@_0BG@JLHBEJLP@pbeWithSHA1AndDES?9CBC?$AA@ 00074df0     libeay32:obj_dat.obj
 0002:0000ee08       ??_C@_0N@GOPIPBOD@PBE?9SHA1?9DES?$AA@ 00074e08     libeay32:obj_dat.obj
 0002:0000ee18       ??_C@_0BF@CKDLCJKD@pbeWithMD5AndRC2?9CBC?$AA@ 00074e18     libeay32:obj_dat.obj
 0002:0000ee30       ??_C@_0P@IDPFKEHM@PBE?9MD5?9RC2?964?$AA@ 00074e30     libeay32:obj_dat.obj
 0002:0000ee40       ??_C@_0BF@FOKDMACM@pbeWithMD2AndRC2?9CBC?$AA@ 00074e40     libeay32:obj_dat.obj
 0002:0000ee58       ??_C@_0P@OHJEMJLF@PBE?9MD2?9RC2?964?$AA@ 00074e58     libeay32:obj_dat.obj
 0002:0000ee68       ??_C@_0BE@CEEFMCAI@S?1MIME?5Capabilities?$AA@ 00074e68     libeay32:obj_dat.obj
 0002:0000ee7c       ??_C@_0L@LCBJGKJG@SMIME?9CAPS?$AA@ 00074e7c     libeay32:obj_dat.obj
 0002:0000ee88       ??_C@_0L@CLELMECA@rc2?964?9cbc?$AA@ 00074e88     libeay32:obj_dat.obj
 0002:0000ee94       ??_C@_0L@OPHBIFFL@RC2?964?9CBC?$AA@ 00074e94     libeay32:obj_dat.obj
 0002:0000eea0       ??_C@_0BN@KPMBKEE@Policy?5Qualifier?5User?5Notice?$AA@ 00074ea0     libeay32:obj_dat.obj
 0002:0000eec0       ??_C@_0O@CJFHFAHE@id?9qt?9unotice?$AA@ 00074ec0     libeay32:obj_dat.obj
 0002:0000eed0       ??_C@_0BF@HPKIKKPI@Policy?5Qualifier?5CPS?$AA@ 00074ed0     libeay32:obj_dat.obj
 0002:0000eee8       ??_C@_09MIPGHKGJ@id?9qt?9cps?$AA@ 00074ee8     libeay32:obj_dat.obj
 0002:0000eef4       ??_C@_0N@KANOAIP@hmacWithSHA1?$AA@ 00074ef4     libeay32:obj_dat.obj
 0002:0000ef04       ??_C@_06DEJMPFNK@PBMAC1?$AA@ 00074f04     libeay32:obj_dat.obj
 0002:0000ef0c       ??_C@_05EPMADBBF@PBES2?$AA@ 00074f0c     libeay32:obj_dat.obj
 0002:0000ef14       ??_C@_07KAOEJCFK@x509Crl?$AA@ 00074f14     libeay32:obj_dat.obj
 0002:0000ef1c       ??_C@_0BA@BFAOBDKH@sdsiCertificate?$AA@ 00074f1c     libeay32:obj_dat.obj
 0002:0000ef2c       ??_C@_0BA@EMOFOCJL@x509Certificate?$AA@ 00074f2c     libeay32:obj_dat.obj
 0002:0000ef3c       ??_C@_0L@BCMHPPAO@localKeyID?$AA@ 00074f3c     libeay32:obj_dat.obj
 0002:0000ef48       ??_C@_0N@BGFMPLCM@friendlyName?$AA@ 00074f48     libeay32:obj_dat.obj
 0002:0000ef58       ??_C@_0BA@KAKLKBBC@safeContentsBag?$AA@ 00074f58     libeay32:obj_dat.obj
 0002:0000ef68       ??_C@_09DELDBPIE@secretBag?$AA@ 00074f68     libeay32:obj_dat.obj
 0002:0000ef74       ??_C@_06JAFBIMLO@crlBag?$AA@ 00074f74     libeay32:obj_dat.obj
 0002:0000ef7c       ??_C@_07FDLMCII@certBag?$AA@ 00074f7c     libeay32:obj_dat.obj
 0002:0000ef84       ??_C@_0BE@ELJKIANF@pkcs8ShroudedKeyBag?$AA@ 00074f84     libeay32:obj_dat.obj
 0002:0000ef98       ??_C@_06BFGNOIAI@keyBag?$AA@ 00074f98     libeay32:obj_dat.obj
 0002:0000efa0       ??_C@_0BL@CKNKIMON@pbeWithSHA1And40BitRC2?9CBC?$AA@ 00074fa0     libeay32:obj_dat.obj
 0002:0000efbc       ??_C@_0BA@MNBMNMAN@PBE?9SHA1?9RC2?940?$AA@ 00074fbc     libeay32:obj_dat.obj
 0002:0000efcc       ??_C@_0BM@DOLDINME@pbeWithSHA1And128BitRC2?9CBC?$AA@ 00074fcc     libeay32:obj_dat.obj
 0002:0000efe8       ??_C@_0BB@FNLJPIMG@PBE?9SHA1?9RC2?9128?$AA@ 00074fe8     libeay32:obj_dat.obj
 0002:0000effc       ??_C@_0CB@NCMPKEGH@pbeWithSHA1And2?9KeyTripleDES?9CBC@ 00074ffc     libeay32:obj_dat.obj
 0002:0000f020       ??_C@_0O@HOHOOIGM@PBE?9SHA1?92DES?$AA@ 00075020     libeay32:obj_dat.obj
 0002:0000f030       ??_C@_0CB@FCNCEDP@pbeWithSHA1And3?9KeyTripleDES?9CBC@ 00075030     libeay32:obj_dat.obj
 0002:0000f054       ??_C@_0O@EDBOMBNM@PBE?9SHA1?93DES?$AA@ 00075054     libeay32:obj_dat.obj
 0002:0000f064       ??_C@_0BH@OCAEJMIL@pbeWithSHA1And40BitRC4?$AA@ 00075064     libeay32:obj_dat.obj
 0002:0000f07c       ??_C@_0BA@ECFMCJKN@PBE?9SHA1?9RC4?940?$AA@ 0007507c     libeay32:obj_dat.obj
 0002:0000f08c       ??_C@_0BI@LBIFCLPB@pbeWithSHA1And128BitRC4?$AA@ 0007508c     libeay32:obj_dat.obj
 0002:0000f0a4       ??_C@_0BB@ILOABLNL@PBE?9SHA1?9RC4?9128?$AA@ 000750a4     libeay32:obj_dat.obj
 0002:0000f0b8       ??_C@_0BD@PNDCMCDK@Strong?5Extranet?5ID?$AA@ 000750b8     libeay32:obj_dat.obj
 0002:0000f0cc       ??_C@_07DKMNOLMH@SXNetID?$AA@ 000750cc     libeay32:obj_dat.obj
 0002:0000f0d4       ??_C@_0BA@JDBEMONE@Invalidity?5Date?$AA@ 000750d4     libeay32:obj_dat.obj
 0002:0000f0e4       ??_C@_0P@BKEGCOMO@invalidityDate?$AA@ 000750e4     libeay32:obj_dat.obj
 0002:0000f0f4       ??_C@_0BH@GODIEFKG@X509v3?5CRL?5Reason?5Code?$AA@ 000750f4     libeay32:obj_dat.obj
 0002:0000f10c       ??_C@_09MCDAGILE@CRLReason?$AA@ 0007510c     libeay32:obj_dat.obj
 0002:0000f118       ??_C@_0BL@HLNLPBHP@X509v3?5Delta?5CRL?5Indicator?$AA@ 00075118     libeay32:obj_dat.obj
 0002:0000f134       ??_C@_08ECNAKPJJ@deltaCRL?$AA@ 00075134     libeay32:obj_dat.obj
 0002:0000f140       ??_C@_0BN@MDNLHLBL@Netscape?5Server?5Gated?5Crypto?$AA@ 00075140     libeay32:obj_dat.obj
 0002:0000f160       ??_C@_05LFIIINKG@nsSGC?$AA@ 00075160     libeay32:obj_dat.obj
 0002:0000f168       ??_C@_0CA@IJODBCMB@Microsoft?5Encrypted?5File?5System?$AA@ 00075168     libeay32:obj_dat.obj
 0002:0000f188       ??_C@_05NGOIPCN@msEFS?$AA@ 00075188     libeay32:obj_dat.obj
 0002:0000f190       ??_C@_0BO@FBDDCLK@Microsoft?5Server?5Gated?5Crypto?$AA@ 00075190     libeay32:obj_dat.obj
 0002:0000f1b0       ??_C@_05DDBMPPAI@msSGC?$AA@ 000751b0     libeay32:obj_dat.obj
 0002:0000f1b8       ??_C@_0BN@GNMCHNOI@Microsoft?5Trust?5List?5Signing?$AA@ 000751b8     libeay32:obj_dat.obj
 0002:0000f1d8       ??_C@_09HGCLLDPK@msCTLSign?$AA@ 000751d8     libeay32:obj_dat.obj
 0002:0000f1e4       ??_C@_0CC@GKFNEBFA@Microsoft?5Commercial?5Code?5Signin@ 000751e4     libeay32:obj_dat.obj
 0002:0000f208       ??_C@_09PDGAMFAO@msCodeCom?$AA@ 00075208     libeay32:obj_dat.obj
 0002:0000f214       ??_C@_0CC@NDDHKAMP@Microsoft?5Individual?5Code?5Signin@ 00075214     libeay32:obj_dat.obj
 0002:0000f238       ??_C@_09EMNNPEBE@msCodeInd?$AA@ 00075238     libeay32:obj_dat.obj
 0002:0000f244       ??_C@_0O@GMMBLMEE@Time?5Stamping?$AA@ 00075244     libeay32:obj_dat.obj
 0002:0000f254       ??_C@_0N@LONEBHPN@timeStamping?$AA@ 00075254     libeay32:obj_dat.obj
 0002:0000f264       ??_C@_0BC@BLBGFKKG@E?9mail?5Protection?$AA@ 00075264     libeay32:obj_dat.obj
 0002:0000f278       ??_C@_0BA@NPCFDPCO@emailProtection?$AA@ 00075278     libeay32:obj_dat.obj
 0002:0000f288       ??_C@_0N@CHJHLHFC@Code?5Signing?$AA@ 00075288     libeay32:obj_dat.obj
 0002:0000f298       ??_C@_0M@OJNCNGJ@codeSigning?$AA@ 00075298     libeay32:obj_dat.obj
 0002:0000f2a4       ??_C@_0BO@FEMCBEOF@TLS?5Web?5Client?5Authentication?$AA@ 000752a4     libeay32:obj_dat.obj
 0002:0000f2c4       ??_C@_0L@HCMKLLOP@clientAuth?$AA@ 000752c4     libeay32:obj_dat.obj
 0002:0000f2d0       ??_C@_0BO@HPFOJNNE@TLS?5Web?5Server?5Authentication?$AA@ 000752d0     libeay32:obj_dat.obj
 0002:0000f2f0       ??_C@_0L@CINGAJGN@serverAuth?$AA@ 000752f0     libeay32:obj_dat.obj
 0002:0000f2fc       ??_C@_05DEJBPLJH@id?9kp?$AA@ 000752fc     libeay32:obj_dat.obj
 0002:0000f304       ??_C@_04EAPCHJAG@PKIX?$AA@ 00075304     libeay32:obj_dat.obj
 0002:0000f30c       ??_C@_0BK@KFMGFBEG@X509v3?5Extended?5Key?5Usage?$AA@ 0007530c     libeay32:obj_dat.obj
 0002:0000f328       ??_C@_0BB@DGDLKPHD@extendedKeyUsage?$AA@ 00075328     libeay32:obj_dat.obj
 0002:0000f33c       ??_C@_0BB@KGNEOBKL@zlib?5compression?$AA@ 0007533c     libeay32:obj_dat.obj
 0002:0000f350       ??_C@_04CHLIKDMF@ZLIB?$AA@ 00075350     libeay32:obj_dat.obj
 0002:0000f358       ??_C@_0BH@CAEIMNHD@run?5length?5compression?$AA@ 00075358     libeay32:obj_dat.obj
 0002:0000f370       ??_C@_03ELDBCICO@RLE?$AA@  00075370     libeay32:obj_dat.obj
 0002:0000f374       ??_C@_07NLMEMEEK@rc5?9ofb?$AA@ 00075374     libeay32:obj_dat.obj
 0002:0000f37c       ??_C@_07OAPEFCPM@RC5?9OFB?$AA@ 0007537c     libeay32:obj_dat.obj
 0002:0000f384       ??_C@_07JBBCHLPC@rc5?9cfb?$AA@ 00075384     libeay32:obj_dat.obj
 0002:0000f38c       ??_C@_07KKCCONEE@RC5?9CFB?$AA@ 0007538c     libeay32:obj_dat.obj
 0002:0000f394       ??_C@_07LCLCOGMF@rc5?9ecb?$AA@ 00075394     libeay32:obj_dat.obj
 0002:0000f39c       ??_C@_07IJICHAHD@RC5?9ECB?$AA@ 0007539c     libeay32:obj_dat.obj
 0002:0000f3a4       ??_C@_07IPAAOCGP@rc5?9cbc?$AA@ 000753a4     libeay32:obj_dat.obj
 0002:0000f3ac       ??_C@_07LEDAHENJ@RC5?9CBC?$AA@ 000753ac     libeay32:obj_dat.obj
 0002:0000f3b4       ??_C@_0BB@DCJDAKFH@ripemd160WithRSA?$AA@ 000753b4     libeay32:obj_dat.obj
 0002:0000f3c8       ??_C@_0O@JPOIHGOH@RSA?9RIPEMD160?$AA@ 000753c8     libeay32:obj_dat.obj
 0002:0000f3d8       ??_C@_09EDIPKBN@ripemd160?$AA@ 000753d8     libeay32:obj_dat.obj
 0002:0000f3e4       ??_C@_09DJDCAKJG@RIPEMD160?$AA@ 000753e4     libeay32:obj_dat.obj
 0002:0000f3f0       ??_C@_0O@GMANLAEO@dsaEncryption?$AA@ 000753f0     libeay32:obj_dat.obj
 0002:0000f400       ??_C@_03ENFFABCE@DSA?$AA@  00075400     libeay32:obj_dat.obj
 0002:0000f404       ??_C@_0M@KECGAPAA@sha1WithRSA?$AA@ 00075404     libeay32:obj_dat.obj
 0002:0000f410       ??_C@_0L@EMMEGDKK@RSA?9SHA1?92?$AA@ 00075410     libeay32:obj_dat.obj
 0002:0000f41c       ??_C@_08GOLKFMKI@md5?9sha1?$AA@ 0007541c     libeay32:obj_dat.obj
 0002:0000f428       ??_C@_08EMIDHKIH@MD5?9SHA1?$AA@ 00075428     libeay32:obj_dat.obj
 0002:0000f434       ??_C@_0M@EFJKPOPH@dsaWithSHA1?$AA@ 00075434     libeay32:obj_dat.obj
 0002:0000f440       ??_C@_08IOHJAANG@DSA?9SHA1?$AA@ 00075440     libeay32:obj_dat.obj
 0002:0000f44c       ??_C@_0BG@JCFINJGL@pbeWithMD5AndCast5CBC?$AA@ 0007544c     libeay32:obj_dat.obj
 0002:0000f464       ??_C@_09ECHHPLBP@cast5?9ofb?$AA@ 00075464     libeay32:obj_dat.obj
 0002:0000f470       ??_C@_09LEOLOMNK@CAST5?9OFB?$AA@ 00075470     libeay32:obj_dat.obj
 0002:0000f47c       ??_C@_09IKBEEKH@cast5?9cfb?$AA@ 0007547c     libeay32:obj_dat.obj
 0002:0000f488       ??_C@_09PODNFDGC@CAST5?9CFB?$AA@ 00075488     libeay32:obj_dat.obj
 0002:0000f494       ??_C@_09CLABNJJA@cast5?9ecb?$AA@ 00075494     libeay32:obj_dat.obj
 0002:0000f4a0       ??_C@_09NNJNMOFF@CAST5?9ECB?$AA@ 000754a0     libeay32:obj_dat.obj
 0002:0000f4ac       ??_C@_09BGLDNNDK@cast5?9cbc?$AA@ 000754ac     libeay32:obj_dat.obj
 0002:0000f4b8       ??_C@_09OACPMKPP@CAST5?9CBC?$AA@ 000754b8     libeay32:obj_dat.obj
 0002:0000f4c4       ??_C@_0M@PPJNHBMP@description?$AA@ 000754c4     libeay32:obj_dat.obj
 0002:0000f4d0       ??_C@_05PHLGJONK@title?$AA@ 000754d0     libeay32:obj_dat.obj
 0002:0000f4d8       ??_C@_0N@OMOHFKCJ@serialNumber?$AA@ 000754d8     libeay32:obj_dat.obj
 0002:0000f4e8       ??_C@_0L@CNDCBNIN@md5WithRSA?$AA@ 000754e8     libeay32:obj_dat.obj
 0002:0000f4f4       ??_C@_0L@NACEPNFC@RSA?9NP?9MD5?$AA@ 000754f4     libeay32:obj_dat.obj
 0002:0000f500       ??_C@_0BP@EGHJGANM@X509v3?5CRL?5Distribution?5Points?$AA@ 00075500     libeay32:obj_dat.obj
 0002:0000f520       ??_C@_0BG@CCHGOEBE@crlDistributionPoints?$AA@ 00075520     libeay32:obj_dat.obj
 0002:0000f538       ??_C@_08PAKNLFON@initials?$AA@ 00075538     libeay32:obj_dat.obj
 0002:0000f544       ??_C@_07LNKFHLHI@surname?$AA@ 00075544     libeay32:obj_dat.obj
 0002:0000f54c       ??_C@_02LONEIP@SN?$AA@     0007554c     libeay32:obj_dat.obj
 0002:0000f550       ??_C@_09GCBNJLNP@givenName?$AA@ 00075550     libeay32:obj_dat.obj
 0002:0000f55c       ??_C@_02BLJBNPCD@GN?$AA@   0007555c     libeay32:obj_dat.obj
 0002:0000f560       ??_C@_0L@CHEFJHBP@rc2?940?9cbc?$AA@ 00075560     libeay32:obj_dat.obj
 0002:0000f56c       ??_C@_0L@ODHPNGGE@RC2?940?9CBC?$AA@ 0007556c     libeay32:obj_dat.obj
 0002:0000f578       ??_C@_06GNNJIOGN@rc4?940?$AA@ 00075578     libeay32:obj_dat.obj
 0002:0000f580       ??_C@_06KFMILCMH@RC4?940?$AA@ 00075580     libeay32:obj_dat.obj
 0002:0000f588       ??_C@_0M@HGGNEPNN@mdc2WithRSA?$AA@ 00075588     libeay32:obj_dat.obj
 0002:0000f594       ??_C@_08OMAMCKNL@RSA?9MDC2?$AA@ 00075594     libeay32:obj_dat.obj
 0002:0000f5a0       ??_C@_04ELNKPKEC@mdc2?$AA@ 000755a0     libeay32:obj_dat.obj
 0002:0000f5a8       ??_C@_04BCGEDMJI@MDC2?$AA@ 000755a8     libeay32:obj_dat.obj
 0002:0000f5b0       ??_C@_06OBJCCDFN@bf?9ofb?$AA@ 000755b0     libeay32:obj_dat.obj
 0002:0000f5b8       ??_C@_06CEHINCIL@BF?9OFB?$AA@ 000755b8     libeay32:obj_dat.obj
 0002:0000f5c0       ??_C@_06KLEEJMOF@bf?9cfb?$AA@ 000755c0     libeay32:obj_dat.obj
 0002:0000f5c8       ??_C@_06GOKOGNDD@BF?9CFB?$AA@ 000755c8     libeay32:obj_dat.obj
 0002:0000f5d0       ??_C@_06IIOEABNC@bf?9ecb?$AA@ 000755d0     libeay32:obj_dat.obj
 0002:0000f5d8       ??_C@_06ENAOPAAE@BF?9ECB?$AA@ 000755d8     libeay32:obj_dat.obj
 0002:0000f5e0       ??_C@_06LFFGAFHI@bf?9cbc?$AA@ 000755e0     libeay32:obj_dat.obj
 0002:0000f5e8       ??_C@_06HALMPEKO@BF?9CBC?$AA@ 000755e8     libeay32:obj_dat.obj
 0002:0000f5f0       ??_C@_0CA@GODCHEHD@X509v3?5Authority?5Key?5Identifier?$AA@ 000755f0     libeay32:obj_dat.obj
 0002:0000f610       ??_C@_0BH@ICHFALGD@authorityKeyIdentifier?$AA@ 00075610     libeay32:obj_dat.obj
 0002:0000f628       ??_C@_0BM@OOFGKLPK@X509v3?5Certificate?5Policies?$AA@ 00075628     libeay32:obj_dat.obj
 0002:0000f644       ??_C@_0BE@OLMJNPEP@certificatePolicies?$AA@ 00075644     libeay32:obj_dat.obj
 0002:0000f658       ??_C@_0BC@PCPNBDDJ@X509v3?5CRL?5Number?$AA@ 00075658     libeay32:obj_dat.obj
 0002:0000f66c       ??_C@_09JDPHHKMA@crlNumber?$AA@ 0007566c     libeay32:obj_dat.obj
 0002:0000f678       ??_C@_0BJ@FBHDAJML@X509v3?5Basic?5Constraints?$AA@ 00075678     libeay32:obj_dat.obj
 0002:0000f694       ??_C@_0BB@IKNGJCLO@basicConstraints?$AA@ 00075694     libeay32:obj_dat.obj
 0002:0000f6a8       ??_C@_0BP@FMJCGPCG@X509v3?5Issuer?5Alternative?5Name?$AA@ 000756a8     libeay32:obj_dat.obj
 0002:0000f6c8       ??_C@_0O@DLIFHFCD@issuerAltName?$AA@ 000756c8     libeay32:obj_dat.obj
 0002:0000f6d8       ??_C@_0CA@OPCJJLNF@X509v3?5Subject?5Alternative?5Name?$AA@ 000756d8     libeay32:obj_dat.obj
 0002:0000f6f8       ??_C@_0P@EOFJHHKD@subjectAltName?$AA@ 000756f8     libeay32:obj_dat.obj
 0002:0000f708       ??_C@_0CA@CLGHAMIP@X509v3?5Private?5Key?5Usage?5Period?$AA@ 00075708     libeay32:obj_dat.obj
 0002:0000f728       ??_C@_0BG@JOIAJOMN@privateKeyUsagePeriod?$AA@ 00075728     libeay32:obj_dat.obj
 0002:0000f740       ??_C@_0BB@BPPOKNBO@X509v3?5Key?5Usage?$AA@ 00075740     libeay32:obj_dat.obj
 0002:0000f754       ??_C@_08BCICBOHF@keyUsage?$AA@ 00075754     libeay32:obj_dat.obj
 0002:0000f760       ??_C@_0BO@ILPNOINJ@X509v3?5Subject?5Key?5Identifier?$AA@ 00075760     libeay32:obj_dat.obj
 0002:0000f780       ??_C@_0BF@MOEDIMBI@subjectKeyIdentifier?$AA@ 00075780     libeay32:obj_dat.obj
 0002:0000f798       ??_C@_05NDHEMDL@id?9ce?$AA@ 00075798     libeay32:obj_dat.obj
 0002:0000f7a0       ??_C@_08KPMCEEEO@desx?9cbc?$AA@ 000757a0     libeay32:obj_dat.obj
 0002:0000f7ac       ??_C@_08BBKPFFGN@DESX?9CBC?$AA@ 000757ac     libeay32:obj_dat.obj
 0002:0000f7b8       ??_C@_0BO@KKKBMKBD@Netscape?5Certificate?5Sequence?$AA@ 000757b8     libeay32:obj_dat.obj
 0002:0000f7d8       ??_C@_0P@OCCBBJKK@nsCertSequence?$AA@ 000757d8     libeay32:obj_dat.obj
 0002:0000f7e8       ??_C@_0BB@DCFBGIOA@Netscape?5Comment?$AA@ 000757e8     libeay32:obj_dat.obj
 0002:0000f7fc       ??_C@_09BALDFHMJ@nsComment?$AA@ 000757fc     libeay32:obj_dat.obj
 0002:0000f808       ??_C@_0BJ@GMBLEMAL@Netscape?5SSL?5Server?5Name?$AA@ 00075808     libeay32:obj_dat.obj
 0002:0000f824       ??_C@_0BA@KNOKNJNE@nsSslServerName?$AA@ 00075824     libeay32:obj_dat.obj
 0002:0000f834       ??_C@_0BH@EMEFHLC@Netscape?5CA?5Policy?5Url?$AA@ 00075834     libeay32:obj_dat.obj
 0002:0000f84c       ??_C@_0O@DHDIMJD@nsCaPolicyUrl?$AA@ 0007584c     libeay32:obj_dat.obj
 0002:0000f85c       ??_C@_0BF@FKENIIHB@Netscape?5Renewal?5Url?$AA@ 0007585c     libeay32:obj_dat.obj
 0002:0000f874       ??_C@_0N@JILHKMLM@nsRenewalUrl?$AA@ 00075874     libeay32:obj_dat.obj
 0002:0000f884       ??_C@_0BL@EMOMOFDB@Netscape?5CA?5Revocation?5Url?$AA@ 00075884     libeay32:obj_dat.obj
 0002:0000f8a0       ??_C@_0BC@IKAPCMGG@nsCaRevocationUrl?$AA@ 000758a0     libeay32:obj_dat.obj
 0002:0000f8b4       ??_C@_0BI@BCDINENC@Netscape?5Revocation?5Url?$AA@ 000758b4     libeay32:obj_dat.obj
 0002:0000f8cc       ??_C@_0BA@DKPGPAKK@nsRevocationUrl?$AA@ 000758cc     libeay32:obj_dat.obj
 0002:0000f8dc       ??_C@_0BC@DIHCABP@Netscape?5Base?5Url?$AA@ 000758dc     libeay32:obj_dat.obj
 0002:0000f8f0       ??_C@_09OCIGDOMM@nsBaseUrl?$AA@ 000758f0     libeay32:obj_dat.obj
 0002:0000f8fc       ??_C@_0BD@NFPBEMEE@Netscape?5Cert?5Type?$AA@ 000758fc     libeay32:obj_dat.obj
 0002:0000f910       ??_C@_0L@IICLKDNB@nsCertType?$AA@ 00075910     libeay32:obj_dat.obj
 0002:0000f91c       ??_C@_0BA@DDLLDHEM@dsaWithSHA1?9old?$AA@ 0007591c     libeay32:obj_dat.obj
 0002:0000f92c       ??_C@_0N@ONIKBKNK@DSA?9SHA1?9old?$AA@ 0007592c     libeay32:obj_dat.obj
 0002:0000f93c       ??_C@_06KBOEGBGA@PBKDF2?$AA@ 0007593c     libeay32:obj_dat.obj
 0002:0000f944       ??_C@_0BG@IBNNJING@pbeWithSHA1AndRC2?9CBC?$AA@ 00075944     libeay32:obj_dat.obj
 0002:0000f95c       ??_C@_0BA@KKPEMNGH@PBE?9SHA1?9RC2?964?$AA@ 0007595c     libeay32:obj_dat.obj
 0002:0000f96c       ??_C@_0BC@FFHHBCCH@dsaEncryption?9old?$AA@ 0007596c     libeay32:obj_dat.obj
 0002:0000f980       ??_C@_07PLHLFGGF@DSA?9old?$AA@ 00075980     libeay32:obj_dat.obj
 0002:0000f988       ??_C@_0L@BEHMICBH@dsaWithSHA?$AA@ 00075988     libeay32:obj_dat.obj
 0002:0000f994       ??_C@_07JGDBCPKH@DSA?9SHA?$AA@ 00075994     libeay32:obj_dat.obj
 0002:0000f99c       ??_C@_0BG@DALFFFBE@sha1WithRSAEncryption?$AA@ 0007599c     libeay32:obj_dat.obj
 0002:0000f9b4       ??_C@_08FBKDDLCN@RSA?9SHA1?$AA@ 000759b4     libeay32:obj_dat.obj
 0002:0000f9c0       ??_C@_04PGHFOLLE@sha1?$AA@ 000759c0     libeay32:obj_dat.obj
 0002:0000f9c8       ??_C@_04KPMLCNGO@SHA1?$AA@ 000759c8     libeay32:obj_dat.obj
 0002:0000f9d0       ??_C@_0N@LODGAID@des?9ede3?9ofb?$AA@ 000759d0     libeay32:obj_dat.obj
 0002:0000f9e0       ??_C@_0N@JPPBGLEM@DES?9EDE3?9OFB?$AA@ 000759e0     libeay32:obj_dat.obj
 0002:0000f9f0       ??_C@_0M@BOHDOFGF@des?9ede?9ofb?$AA@ 000759f0     libeay32:obj_dat.obj
 0002:0000f9fc       ??_C@_0M@PDBPCBBK@DES?9EDE?9OFB?$AA@ 000759fc     libeay32:obj_dat.obj
 0002:0000fa08       ??_C@_0N@EBDFNPDL@des?9ede3?9cfb?$AA@ 00075a08     libeay32:obj_dat.obj
 0002:0000fa18       ??_C@_0N@NFCHNEPE@DES?9EDE3?9CFB?$AA@ 00075a18     libeay32:obj_dat.obj
 0002:0000fa28       ??_C@_0M@FEKFFKNN@des?9ede?9cfb?$AA@ 00075a28     libeay32:obj_dat.obj
 0002:0000fa34       ??_C@_0M@LJMJJOKC@DES?9EDE?9CFB?$AA@ 00075a34     libeay32:obj_dat.obj
 0002:0000fa40       ??_C@_0BD@JJEILMNP@Netscape?5Data?5Type?$AA@ 00075a40     libeay32:obj_dat.obj
 0002:0000fa54       ??_C@_0L@FIMLGGPA@nsDataType?$AA@ 00075a54     libeay32:obj_dat.obj
 0002:0000fa60       ??_C@_0BP@LHPGKGFM@Netscape?5Certificate?5Extension?$AA@ 00075a60     libeay32:obj_dat.obj
 0002:0000fa80       ??_C@_09JDCKDNMG@nsCertExt?$AA@ 00075a80     libeay32:obj_dat.obj
 0002:0000fa8c       ??_C@_0BO@IAIBEBGO@Netscape?5Communications?5Corp?4?$AA@ 00075a8c     libeay32:obj_dat.obj
 0002:0000faac       ??_C@_08BDEPHMAF@Netscape?$AA@ 00075aac     libeay32:obj_dat.obj
 0002:0000fab8       ??_C@_0BO@LDCCNBPE@extendedCertificateAttributes?$AA@ 00075ab8     libeay32:obj_dat.obj
 0002:0000fad8       ??_C@_0BE@MACPCAPF@unstructuredAddress?$AA@ 00075ad8     libeay32:obj_dat.obj
 0002:0000faec       ??_C@_0BC@OKHONEEM@challengePassword?$AA@ 00075aec     libeay32:obj_dat.obj
 0002:0000fb00       ??_C@_0BB@IPFGMODP@countersignature?$AA@ 00075b00     libeay32:obj_dat.obj
 0002:0000fb14       ??_C@_0M@IJBJCCMP@signingTime?$AA@ 00075b14     libeay32:obj_dat.obj
 0002:0000fb20       ??_C@_0O@JDGJDGC@messageDigest?$AA@ 00075b20     libeay32:obj_dat.obj
 0002:0000fb30       ??_C@_0M@DOEFOEJD@contentType?$AA@ 00075b30     libeay32:obj_dat.obj
 0002:0000fb3c       ??_C@_0BB@CJIILOEM@unstructuredName?$AA@ 00075b3c     libeay32:obj_dat.obj
 0002:0000fb50       ??_C@_0N@IHLBAGEP@emailAddress?$AA@ 00075b50     libeay32:obj_dat.obj
 0002:0000fb60       ??_C@_05NKFNBGJP@pkcs9?$AA@ 00075b60     libeay32:obj_dat.obj
 0002:0000fb68       ??_C@_08OGDEHPAF@idea?9ofb?$AA@ 00075b68     libeay32:obj_dat.obj
 0002:0000fb74       ??_C@_08FIFJGOCG@IDEA?9OFB?$AA@ 00075b74     libeay32:obj_dat.obj
 0002:0000fb80       ??_C@_07NLMBCAKN@des?9ofb?$AA@ 00075b80     libeay32:obj_dat.obj
 0002:0000fb88       ??_C@_07OHFNLDCN@DES?9OFB?$AA@ 00075b88     libeay32:obj_dat.obj
 0002:0000fb90       ??_C@_0N@FPCHEGKG@des?9ede3?9cbc?$AA@ 00075b90     libeay32:obj_dat.obj
 0002:0000fba0       ??_C@_0N@MLDFENGJ@DES?9EDE3?9CBC?$AA@ 00075ba0     libeay32:obj_dat.obj
 0002:0000fbb0       ??_C@_0M@EKLHMDEA@des?9ede?9cbc?$AA@ 00075bb0     libeay32:obj_dat.obj
 0002:0000fbbc       ??_C@_0M@KHNLAHDP@DES?9EDE?9CBC?$AA@ 00075bbc     libeay32:obj_dat.obj
 0002:0000fbc8       ??_C@_0BF@LIDINENF@shaWithRSAEncryption?$AA@ 00075bc8     libeay32:obj_dat.obj
 0002:0000fbe0       ??_C@_07CMOFBHAL@RSA?9SHA?$AA@ 00075be0     libeay32:obj_dat.obj
 0002:0000fbe8       ??_C@_03JNBDOPOP@sha?$AA@  00075be8     libeay32:obj_dat.obj
 0002:0000fbec       ??_C@_03JAOICCJD@SHA?$AA@  00075bec     libeay32:obj_dat.obj
 0002:0000fbf0       ??_C@_07MGMBPEPC@rc2?9ofb?$AA@ 00075bf0     libeay32:obj_dat.obj
 0002:0000fbf8       ??_C@_07PNPBGCEE@RC2?9OFB?$AA@ 00075bf8     libeay32:obj_dat.obj
 0002:0000fc00       ??_C@_07IMBHELEK@rc2?9cfb?$AA@ 00075c00     libeay32:obj_dat.obj
 0002:0000fc08       ??_C@_07LHCHNNPM@RC2?9CFB?$AA@ 00075c08     libeay32:obj_dat.obj
 0002:0000fc10       ??_C@_07KPLHNGHN@rc2?9ecb?$AA@ 00075c10     libeay32:obj_dat.obj
 0002:0000fc18       ??_C@_07JEIHEAML@RC2?9ECB?$AA@ 00075c18     libeay32:obj_dat.obj
 0002:0000fc20       ??_C@_07JCAFNCNH@rc2?9cbc?$AA@ 00075c20     libeay32:obj_dat.obj
 0002:0000fc28       ??_C@_07KJDFEEGB@RC2?9CBC?$AA@ 00075c28     libeay32:obj_dat.obj
 0002:0000fc30       ??_C@_08IPECFNIK@idea?9ecb?$AA@ 00075c30     libeay32:obj_dat.obj
 0002:0000fc3c       ??_C@_08DBCPEMKJ@IDEA?9ECB?$AA@ 00075c3c     libeay32:obj_dat.obj
 0002:0000fc48       ??_C@_08KMOCMALN@idea?9cfb?$AA@ 00075c48     libeay32:obj_dat.obj
 0002:0000fc54       ??_C@_08BCIPNBJO@IDEA?9CFB?$AA@ 00075c54     libeay32:obj_dat.obj
 0002:0000fc60       ??_C@_08LCPAFJCA@idea?9cbc?$AA@ 00075c60     libeay32:obj_dat.obj
 0002:0000fc6c       ??_C@_08MJNEIAD@IDEA?9CBC?$AA@ 00075c6c     libeay32:obj_dat.obj
 0002:0000fc78       ??_C@_08LJCBLNOK@des?9ede3?$AA@ 00075c78     libeay32:obj_dat.obj
 0002:0000fc84       ??_C@_08FEKFKCFJ@DES?9EDE3?$AA@ 00075c84     libeay32:obj_dat.obj
 0002:0000fc90       ??_C@_07PILJICGA@des?9ede?$AA@ 00075c90     libeay32:obj_dat.obj
 0002:0000fc98       ??_C@_07MECFBBOA@DES?9EDE?$AA@ 00075c98     libeay32:obj_dat.obj
 0002:0000fca0       ??_C@_07IPAFAGII@des?9cbc?$AA@ 00075ca0     libeay32:obj_dat.obj
 0002:0000fca8       ??_C@_07LDJJJFAI@DES?9CBC?$AA@ 00075ca8     libeay32:obj_dat.obj
 0002:0000fcb0       ??_C@_07JBBHJPBF@des?9cfb?$AA@ 00075cb0     libeay32:obj_dat.obj
 0002:0000fcb8       ??_C@_07KNILAMJF@DES?9CFB?$AA@ 00075cb8     libeay32:obj_dat.obj
 0002:0000fcc0       ??_C@_07LCLHACCC@des?9ecb?$AA@ 00075cc0     libeay32:obj_dat.obj
 0002:0000fcc8       ??_C@_07IOCLJBKC@DES?9ECB?$AA@ 00075cc8     libeay32:obj_dat.obj
 0002:0000fcd0       ??_C@_0P@HCMIBBEB@dhKeyAgreement?$AA@ 00075cd0     libeay32:obj_dat.obj
 0002:0000fce0       ??_C@_05CALCPOBF@pkcs3?$AA@ 00075ce0     libeay32:obj_dat.obj
 0002:0000fce8       ??_C@_0BE@CAMKAFJN@pkcs7?9encryptedData?$AA@ 00075ce8     libeay32:obj_dat.obj
 0002:0000fcfc       ??_C@_0BB@CJNFBHDI@pkcs7?9digestData?$AA@ 00075cfc     libeay32:obj_dat.obj
 0002:0000fd10       ??_C@_0BN@LMEEMCPG@pkcs7?9signedAndEnvelopedData?$AA@ 00075d10     libeay32:obj_dat.obj
 0002:0000fd30       ??_C@_0BE@FAIIHMP@pkcs7?9envelopedData?$AA@ 00075d30     libeay32:obj_dat.obj
 0002:0000fd44       ??_C@_0BB@PEKKHBEJ@pkcs7?9signedData?$AA@ 00075d44     libeay32:obj_dat.obj
 0002:0000fd58       ??_C@_0L@BCKMJOMA@pkcs7?9data?$AA@ 00075d58     libeay32:obj_dat.obj
 0002:0000fd64       ??_C@_05EENODLBB@pkcs7?$AA@ 00075d64     libeay32:obj_dat.obj
 0002:0000fd6c       ??_C@_03DICHAJGH@RSA?$AA@  00075d6c     libeay32:obj_dat.obj
 0002:0000fd70       ??_C@_0BH@LAMMAAM@organizationalUnitName?$AA@ 00075d70     libeay32:obj_dat.obj
 0002:0000fd88       ??_C@_02LMLEEFAB@OU?$AA@   00075d88     libeay32:obj_dat.obj
 0002:0000fd8c       ??_C@_0BB@GBCNPHLL@organizationName?$AA@ 00075d8c     libeay32:obj_dat.obj
 0002:0000fda0       ??_C@_01MJMHLOMK@O?$AA@    00075da0     libeay32:obj_dat.obj
 0002:0000fda4       ??_C@_0BE@NKDCJFMD@stateOrProvinceName?$AA@ 00075da4     libeay32:obj_dat.obj
 0002:0000fdb8       ??_C@_02LAJDCOFE@ST?$AA@   00075db8     libeay32:obj_dat.obj
 0002:0000fdbc       ??_C@_0N@LEDCGGBI@localityName?$AA@ 00075dbc     libeay32:obj_dat.obj
 0002:0000fdcc       ??_C@_01OCOKONAJ@L?$AA@    00075dcc     libeay32:obj_dat.obj
 0002:0000fdd0       ??_C@_0M@NPBHECMC@countryName?$AA@ 00075dd0     libeay32:obj_dat.obj
 0002:0000fddc       ??_C@_01GFHCPBMG@C?$AA@    00075ddc     libeay32:obj_dat.obj
 0002:0000fde0       ??_C@_0L@OILMNBLH@commonName?$AA@ 00075de0     libeay32:obj_dat.obj
 0002:0000fdec       ??_C@_02BMJIHHPP@CN?$AA@   00075dec     libeay32:obj_dat.obj
 0002:0000fdf0       ??_C@_04NMKEOMFB@X509?$AA@ 00075df0     libeay32:obj_dat.obj
 0002:0000fdf8       ??_C@_0BL@NJHHPHOL@directory?5services?5?$CIX?4500?$CJ?$AA@ 00075df8     libeay32:obj_dat.obj
 0002:0000fe14       ??_C@_04NGGFHBI@X500?$AA@  00075e14     libeay32:obj_dat.obj
 0002:0000fe1c       ??_C@_0BF@DAJHPIMK@pbeWithMD5AndDES?9CBC?$AA@ 00075e1c     libeay32:obj_dat.obj
 0002:0000fe34       ??_C@_0M@KBNDBPIJ@PBE?9MD5?9DES?$AA@ 00075e34     libeay32:obj_dat.obj
 0002:0000fe40       ??_C@_0BF@EEAPBBEF@pbeWithMD2AndDES?9CBC?$AA@ 00075e40     libeay32:obj_dat.obj
 0002:0000fe58       ??_C@_0M@LMNGCPDB@PBE?9MD2?9DES?$AA@ 00075e58     libeay32:obj_dat.obj
 0002:0000fe64       ??_C@_0BF@EEAHCNKC@md5WithRSAEncryption?$AA@ 00075e64     libeay32:obj_dat.obj
 0002:0000fe7c       ??_C@_07NOGKHCDB@RSA?9MD5?$AA@ 00075e7c     libeay32:obj_dat.obj
 0002:0000fe84       ??_C@_0BF@ODJKGOJ@md2WithRSAEncryption?$AA@ 00075e84     libeay32:obj_dat.obj
 0002:0000fe9c       ??_C@_07JBCLOEPG@RSA?9MD2?$AA@ 00075e9c     libeay32:obj_dat.obj
 0002:0000fea4       ??_C@_0O@PCHNMHJE@rsaEncryption?$AA@ 00075ea4     libeay32:obj_dat.obj
 0002:0000feb4       ??_C@_03OODGMOHK@rc4?$AA@  00075eb4     libeay32:obj_dat.obj
 0002:0000feb8       ??_C@_03HGEJCHKE@RC4?$AA@  00075eb8     libeay32:obj_dat.obj
 0002:0000febc       ??_C@_03PKBIKOHH@md5?$AA@  00075ebc     libeay32:obj_dat.obj
 0002:0000fec0       ??_C@_03GCGHEHKJ@MD5?$AA@  00075ec0     libeay32:obj_dat.obj
 0002:0000fec4       ??_C@_03LFFJDILA@md2?$AA@  00075ec4     libeay32:obj_dat.obj
 0002:0000fec8       ??_C@_03CNCGNBGO@MD2?$AA@  00075ec8     libeay32:obj_dat.obj
 0002:0000fecc       ??_C@_0BN@EBHJCEC@RSA?5Data?5Security?0?5Inc?4?5PKCS?$AA@ 00075ecc     libeay32:obj_dat.obj
 0002:0000feec       ??_C@_04GCKLMHGD@pkcs?$AA@ 00075eec     libeay32:obj_dat.obj
 0002:0000fef4       ??_C@_0BI@MPBNCOIB@RSA?5Data?5Security?0?5Inc?4?$AA@ 00075ef4     libeay32:obj_dat.obj
 0002:0000ff0c       ??_C@_06GGEMKGKC@rsadsi?$AA@ 00075f0c     libeay32:obj_dat.obj
 0002:0000ff14       ??_C@_09MLGAJAED@undefined?$AA@ 00075f14     libeay32:obj_dat.obj
 0002:0000ff20       ??_C@_05DBLJEJPC@UNDEF?$AA@ 00075f20     libeay32:obj_dat.obj
 0002:0000ff28       ??_C@_0FB@EJHIDBFI@d?3?2wm653wehh?2platform?2mvv210?2src@ 00075f28     libeay32:obj_dat.obj
 0002:0000ff7c       ??_C@_04MDEFHJHM@?4?$CFlu?$AA@ 00075f7c     libeay32:obj_dat.obj
 0002:0000ff88       cmac_pkey_meth             00075f88     libeay32:cm_pmeth.obj
 0002:0000fff4       ??_C@_06BHJHKMJC@hexkey?$AA@ 00075ff4     libeay32:cm_pmeth.obj
 0002:0000fffc       ??_C@_06KDGDAFPH@cipher?$AA@ 00075ffc     libeay32:cm_pmeth.obj
 0002:00010004       ??_C@_03ICHNJLJF@key?$AA@  00076004     libeay32:cm_pmeth.obj
 0002:00010008       hmac_pkey_meth             00076008     libeay32:hm_pmeth.obj
 0002:00010078       ??_C@_0EP@PNIBEDF@d?3?2wm653wehh?2platform?2mvv210?2src@ 00076078     libeay32:hm_pmeth.obj
 0002:000100c8       ec_pkey_meth               000760c8     libeay32:ec_pmeth.obj
 0002:00010138       ??_C@_0EN@FGGHDHMC@d?3?2wm653wehh?2platform?2mvv210?2src@ 00076138     libeay32:ec_pmeth.obj
 0002:00010188       ??_C@_0BC@BLCJLNNM@ec_paramgen_curve?$AA@ 00076188     libeay32:ec_pmeth.obj
 0002:000101a0       dsa_pkey_meth              000761a0     libeay32:dsa_pmeth.obj
 0002:00010210       ??_C@_0EP@KECMJLCG@d?3?2wm653wehh?2platform?2mvv210?2src@ 00076210     libeay32:dsa_pmeth.obj
 0002:00010260       ??_C@_0BA@HDLNDIMK@dsa_paramgen_md?$AA@ 00076260     libeay32:dsa_pmeth.obj
 0002:00010270       ??_C@_0BE@JHBKDNPA@dsa_paramgen_q_bits?$AA@ 00076270     libeay32:dsa_pmeth.obj
 0002:00010284       ??_C@_0BC@DOMHFBFC@dsa_paramgen_bits?$AA@ 00076284     libeay32:dsa_pmeth.obj
 0002:00010298       dh_pkey_meth               00076298     libeay32:dh_pmeth.obj
 0002:00010308       ??_C@_0EN@BFMPENCA@d?3?2wm653wehh?2platform?2mvv210?2src@ 00076308     libeay32:dh_pmeth.obj
 0002:00010358       ??_C@_0BG@POLEFOHA@dh_paramgen_generator?$AA@ 00076358     libeay32:dh_pmeth.obj
 0002:00010370       ??_C@_0BG@LEMCDPBI@dh_paramgen_prime_len?$AA@ 00076370     libeay32:dh_pmeth.obj
 0002:00010388       rsa_pkey_meth              00076388     libeay32:rsa_pmeth.obj
 0002:000103f8       ??_C@_0EP@PCLPIEEA@d?3?2wm653wehh?2platform?2mvv210?2src@ 000763f8     libeay32:rsa_pmeth.obj
 0002:00010448       ??_C@_0BC@DMECNPFD@rsa_keygen_pubexp?$AA@ 00076448     libeay32:rsa_pmeth.obj
 0002:0001045c       ??_C@_0BA@GFPKPLAF@rsa_keygen_bits?$AA@ 0007645c     libeay32:rsa_pmeth.obj
 0002:0001046c       ??_C@_0BA@CIHMEEHB@rsa_pss_saltlen?$AA@ 0007646c     libeay32:rsa_pmeth.obj
 0002:0001047c       ??_C@_04JNCMEILM@x931?$AA@ 0007647c     libeay32:rsa_pmeth.obj
 0002:00010484       ??_C@_04EIGNDHKO@oeap?$AA@ 00076484     libeay32:rsa_pmeth.obj
 0002:0001048c       ??_C@_04CGFJFPFD@none?$AA@ 0007648c     libeay32:rsa_pmeth.obj
 0002:00010494       ??_C@_06PDLHKEJK@sslv23?$AA@ 00076494     libeay32:rsa_pmeth.obj
 0002:0001049c       ??_C@_0BB@BILFEOKG@rsa_padding_mode?$AA@ 0007649c     libeay32:rsa_pmeth.obj
 0002:000104b0       STACK_version              000764b0     libeay32:stack.obj
 0002:000104e0       ??_C@_0EN@GOCHBJJG@d?3?2wm653wehh?2platform?2mvv210?2src@ 000764e0     libeay32:stack.obj
 0002:00010530       ??_C@_0EL@PAPNDPGN@d?3?2wm653wehh?2platform?2mvv210?2src@ 00076530     libeay32:p_lib.obj
 0002:00010580       ??_C@_0FC@NEBNNILH@d?3?2wm653wehh?2platform?2mvv210?2src@ 00076580     libeay32:tb_pkmeth.obj
 0002:000105d8       ??_C@_0FC@LCBCBJII@d?3?2wm653wehh?2platform?2mvv210?2src@ 000765d8     libeay32:eng_table.obj
 0002:00010630       ??_C@_0EJ@DIAKMCGH@d?3?2wm653wehh?2platform?2mvv210?2src@ 00076630     libeay32:mem_dbg.obj
 0002:0001067c       lh_version                 0007667c     libeay32:lhash.obj
 0002:000106a8       ??_C@_0EN@ECMNBMLE@d?3?2wm653wehh?2platform?2mvv210?2src@ 000766a8     libeay32:lhash.obj
 0002:000106f8       ??_C@_0FA@OIJOADBF@d?3?2wm653wehh?2platform?2mvv210?2src@ 000766f8     libeay32:buf_str.obj
 0002:00010748       ??_C@_0EN@GMEKCP@d?3?2wm653wehh?2platform?2mvv210?2src@ 00076748     libeay32:b_print.obj
 0002:00010798       ??_C@_06CBHGEMFM@?$DMNULL?$DO?$AA@ 00076798     libeay32:b_print.obj
 0002:000107a0       ??_C@_0BB@JCEFLFJE@0123456789abcdef?$AA@ 000767a0     libeay32:b_print.obj
 0002:000107b4       ??_C@_0BB@JGGOGLEG@0123456789ABCDEF?$AA@ 000767b4     libeay32:b_print.obj
 0002:000107c8       ??_C@_02MDDDDAID@0x?$AA@   000767c8     libeay32:b_print.obj
 0002:000107cc       ??_C@_01GBGANLPD@0?$AA@    000767cc     libeay32:b_print.obj
 0002:000107d0       ??_C@_07DKNGGOEP@doapr?$CI?$CJ?$AA@ 000767d0     libeay32:b_print.obj
 0002:000107d8       ??_C@_0FA@DONMMNBK@d?3?2wm653wehh?2platform?2mvv210?2src@ 000767d8     libeay32:eng_lib.obj
 0002:00010828       ??_C@_0EP@KDEOOFHE@d?3?2wm653wehh?2platform?2mvv210?2src@ 00076828     libeay32:evp_asn1.obj
 0002:00010878       ??_C@_0EP@EOLMKMCC@d?3?2wm653wehh?2platform?2mvv210?2src@ 00076878     libeay32:a_object.obj
 0002:000108c8       ??_C@_09OJNEAJGG@?$DMINVALID?$DO?$AA@ 000768c8     libeay32:a_object.obj
 0002:000108f0       BN_version                 000768f0     libeay32:bn_lib.obj
 0002:00010a20       ??_C@_0EL@EKPDCIGL@d?3?2wm653wehh?2platform?2mvv210?2src@ 00076a20     libeay32:bn_lib.obj
 0002:00010a70       ??_C@_0EN@CHOOKOEN@d?3?2wm653wehh?2platform?2mvv210?2src@ 00076a70     libeay32:bn_blind.obj
 0002:00010ac0       ??_C@_0EL@BMHBHOHG@d?3?2wm653wehh?2platform?2mvv210?2src@ 00076ac0     libeay32:bn_ctx.obj
 0002:00010b10       ??_C@_0EL@EPOPJPNF@d?3?2wm653wehh?2platform?2mvv210?2src@ 00076b10     libeay32:bn_gcd.obj
 0002:00010b60       ??_C@_0EL@CLJGKANI@d?3?2wm653wehh?2platform?2mvv210?2src@ 00076b60     libeay32:bn_add.obj
 0002:00010ec8       ??_C@_0N@KHICOJGI@ASN1_SET_ANY?$AA@ 00076ec8     libeay32:tasn_typ.obj
 0002:00010ed8       ??_C@_0BC@COPGMDLD@ASN1_SEQUENCE_ANY?$AA@ 00076ed8     libeay32:tasn_typ.obj
 0002:00010eec       ??_C@_0BH@HEBAELGA@ASN1_OCTET_STRING_NDEF?$AA@ 00076eec     libeay32:tasn_typ.obj
 0002:00010f04       ??_C@_0O@JKANHMPI@ASN1_FBOOLEAN?$AA@ 00076f04     libeay32:tasn_typ.obj
 0002:00010f14       ??_C@_0O@BIDLBGAP@ASN1_TBOOLEAN?$AA@ 00076f14     libeay32:tasn_typ.obj
 0002:00010f24       ??_C@_0N@HMAPMMGF@ASN1_BOOLEAN?$AA@ 00076f24     libeay32:tasn_typ.obj
 0002:00010f34       ??_C@_0BA@CBHCBCAE@DIRECTORYSTRING?$AA@ 00076f34     libeay32:tasn_typ.obj
 0002:00010f44       ??_C@_0M@FANFDIEE@DISPLAYTEXT?$AA@ 00076f44     libeay32:tasn_typ.obj
 0002:00010f50       ??_C@_0P@NDKOCAEJ@ASN1_PRINTABLE?$AA@ 00076f50     libeay32:tasn_typ.obj
 0002:00010f60       ??_C@_0O@NJFCFMGE@ASN1_SEQUENCE?$AA@ 00076f60     libeay32:tasn_typ.obj
 0002:00010f70       ??_C@_08FIDCPDIJ@ASN1_ANY?$AA@ 00076f70     libeay32:tasn_typ.obj
 0002:00010f7c       ??_C@_0P@CHICPHIN@ASN1_BMPSTRING?$AA@ 00076f7c     libeay32:tasn_typ.obj
 0002:00010f8c       ??_C@_0BF@DMDDFBNJ@ASN1_UNIVERSALSTRING?$AA@ 00076f8c     libeay32:tasn_typ.obj
 0002:00010fa4       ??_C@_0BD@HMMCNBGD@ASN1_VISIBLESTRING?$AA@ 00076fa4     libeay32:tasn_typ.obj
 0002:00010fb8       ??_C@_0BF@MPJFOIHC@ASN1_GENERALIZEDTIME?$AA@ 00076fb8     libeay32:tasn_typ.obj
 0002:00010fd0       ??_C@_0N@OIMCLPEM@ASN1_UTCTIME?$AA@ 00076fd0     libeay32:tasn_typ.obj
 0002:00010fe0       ??_C@_0BD@EMMGLGMD@ASN1_GENERALSTRING?$AA@ 00076fe0     libeay32:tasn_typ.obj
 0002:00010ff4       ??_C@_0P@KBFNFBLB@ASN1_IA5STRING?$AA@ 00076ff4     libeay32:tasn_typ.obj
 0002:00011004       ??_C@_0P@GDIFPLAP@ASN1_T61STRING?$AA@ 00077004     libeay32:tasn_typ.obj
 0002:00011014       ??_C@_0BF@CPDMNKCA@ASN1_PRINTABLESTRING?$AA@ 00077014     libeay32:tasn_typ.obj
 0002:0001102c       ??_C@_0BA@LEPDCAOC@ASN1_UTF8STRING?$AA@ 0007702c     libeay32:tasn_typ.obj
 0002:0001103c       ??_C@_0M@BJNOJGBL@ASN1_OBJECT?$AA@ 0007703c     libeay32:tasn_typ.obj
 0002:00011048       ??_C@_09NHFFCPKK@ASN1_NULL?$AA@ 00077048     libeay32:tasn_typ.obj
 0002:00011054       ??_C@_0BC@PEBEKNCO@ASN1_OCTET_STRING?$AA@ 00077054     libeay32:tasn_typ.obj
 0002:00011068       ??_C@_0BA@LJHGDIKH@ASN1_BIT_STRING?$AA@ 00077068     libeay32:tasn_typ.obj
 0002:00011078       ??_C@_0BA@CLGIIAJD@ASN1_ENUMERATED?$AA@ 00077078     libeay32:tasn_typ.obj
 0002:00011088       ??_C@_0N@KIGEHGKE@ASN1_INTEGER?$AA@ 00077088     libeay32:tasn_typ.obj
 0002:0001110c       ??_C@_0M@MMOLGLEG@X509_ALGORS?$AA@ 0007710c     libeay32:x_algor.obj
 0002:00011118       ??_C@_0L@BNOBMJFK@algorithms?$AA@ 00077118     libeay32:x_algor.obj
 0002:00011124       ??_C@_0L@BFHONDPK@X509_ALGOR?$AA@ 00077124     libeay32:x_algor.obj
 0002:00011130       ??_C@_09DAGAJHIH@parameter?$AA@ 00077130     libeay32:x_algor.obj
 0002:000111c0       ??_C@_0EP@IJPFBBNM@d?3?2wm653wehh?2platform?2mvv210?2src@ 000771c0     libeay32:tasn_dec.obj
 0002:00011210       ??_C@_05GCCLHHOK@Type?$DN?$AA@ 00077210     libeay32:tasn_dec.obj
 0002:00011218       ??_C@_07NHKPEHKF@?0?5Type?$DN?$AA@ 00077218     libeay32:tasn_dec.obj
 0002:00011220       ??_C@_06GPKHKFJE@Field?$DN?$AA@ 00077220     libeay32:tasn_dec.obj
 0002:00011228       ??_C@_0EP@DFHJPDGI@d?3?2wm653wehh?2platform?2mvv210?2src@ 00077228     libeay32:tasn_enc.obj
 0002:00011278       ??_C@_0EP@PHBFPCHC@d?3?2wm653wehh?2platform?2mvv210?2src@ 00077278     libeay32:tasn_new.obj
 0002:000112c8       ??_C@_0FB@OACJPALH@d?3?2wm653wehh?2platform?2mvv210?2src@ 000772c8     libeay32:obj_lib.obj
 0002:00011320       ??_C@_0EN@MBCJMNEM@d?3?2wm653wehh?2platform?2mvv210?2src@ 00077320     libeay32:bio_lib.obj
 0002:00011370       ??_C@_01CLKCMJKC@?5?$AA@   00077370     libeay32:bio_lib.obj
 0002:00011388       ??_C@_0EN@HOIICIBH@d?3?2wm653wehh?2platform?2mvv210?2src@ 00077388     libeay32:bn_print.obj
 0002:000113d8       ??_C@_04LJCFADJL@?$CF09u?$AA@ 000773d8     libeay32:bn_print.obj
 0002:000113e0       ??_C@_02GMHACPFF@?$CFu?$AA@ 000773e0     libeay32:bn_print.obj
 0002:000113e4       ??_C@_01JOAMLHOP@?9?$AA@   000773e4     libeay32:bn_print.obj
 0002:000113e8       ASN1_version               000773e8     libeay32:asn1_lib.obj
 0002:00011418       ??_C@_0EP@DFJJGEMF@d?3?2wm653wehh?2platform?2mvv210?2src@ 00077418     libeay32:asn1_lib.obj
 0002:000117f0       ??_C@_0EN@ODDCBIPI@d?3?2wm653wehh?2platform?2mvv210?2src@ 000777f0     libeay32:evp_pbe.obj
 0002:00011840       ??_C@_05DLJFLBDA@TYPE?$DN?$AA@ 00077840     libeay32:evp_pbe.obj
 0002:00011848       ??_C@_0EL@CJHJHLOJ@d?3?2wm653wehh?2platform?2mvv210?2src@ 00077848     libeay32:cmac.obj
 0002:000118a8       ??_C@_0EP@DFJOCJBM@d?3?2wm653wehh?2platform?2mvv210?2src@ 000778a8     libeay32:v3_utl.obj
 0002:000118f8       ??_C@_05MAJJAKPI@FALSE?$AA@ 000778f8     libeay32:v3_utl.obj
 0002:00011900       ??_C@_04HCDDPBNL@TRUE?$AA@ 00077900     libeay32:v3_utl.obj
 0002:00011908       ??_C@_07BDICHDDB@?0value?3?$AA@ 00077908     libeay32:v3_utl.obj
 0002:00011910       ??_C@_06FONLLLNC@?0name?3?$AA@ 00077910     libeay32:v3_utl.obj
 0002:00011918       ??_C@_08PCLJGJAL@section?3?$AA@ 00077918     libeay32:v3_utl.obj
 0002:00011924       ??_C@_02KAJCLHKP@no?$AA@   00077924     libeay32:v3_utl.obj
 0002:00011928       ??_C@_02NFLNFON@NO?$AA@    00077928     libeay32:v3_utl.obj
 0002:0001192c       ??_C@_01EFFIKLCJ@n?$AA@    0007792c     libeay32:v3_utl.obj
 0002:00011930       ??_C@_01NANMIPIL@N?$AA@    00077930     libeay32:v3_utl.obj
 0002:00011934       ??_C@_05LAPONLG@false?$AA@ 00077934     libeay32:v3_utl.obj
 0002:0001193c       ??_C@_03ICICOMAL@yes?$AA@  0007793c     libeay32:v3_utl.obj
 0002:00011940       ??_C@_03IPHJCBHH@YES?$AA@  00077940     libeay32:v3_utl.obj
 0002:00011944       ??_C@_01EANLCPLP@y?$AA@    00077944     libeay32:v3_utl.obj
 0002:00011948       ??_C@_01NFFPALBN@Y?$AA@    00077948     libeay32:v3_utl.obj
 0002:0001194c       ??_C@_04LOAJBDKD@true?$AA@ 0007794c     libeay32:v3_utl.obj
 0002:00011954       ??_C@_0M@PCENNPGA@?$CFd?4?$CFd?4?$CFd?4?$CFd?$AA@ 00077954     libeay32:v3_utl.obj
 0002:00011960       ??_C@_0CF@JFAAPJDH@len?$DO?$DN0?5?$CG?$CG?5len?$DM?$DN?$CIint?$CJsizeof?$CIctx?9?$DO@ 00077960     libeay32:hmac.obj
 0002:00011988       ??_C@_0BL@OKHNPHMK@j?5?$DM?$DN?5?$CIint?$CJsizeof?$CIctx?9?$DOkey?$CJ?$AA@ 00077988     libeay32:hmac.obj
 0002:000119a8       ??_C@_0EL@FKOMILBN@d?3?2wm653wehh?2platform?2mvv210?2src@ 000779a8     libeay32:hmac.obj
 0002:00011a20       ??_C@_0EL@KJLPEPL@d?3?2wm653wehh?2platform?2mvv210?2src@ 00077a20     libeay32:ec_lib.obj
 0002:00011a6c       ECDSA_version              00077a6c     libeay32:ecs_lib.obj
 0002:00011a98       ??_C@_0EP@HDBDKLOP@d?3?2wm653wehh?2platform?2mvv210?2src@ 00077a98     libeay32:ecs_lib.obj
 0002:00011ae8       ??_C@_0EL@FFHGPJNM@d?3?2wm653wehh?2platform?2mvv210?2src@ 00077ae8     libeay32:ec_key.obj
 0002:00014fb0       ??_C@_0HB@IIAMGFOE@?6?7IPSec?1IKE?1Oakley?5curve?5?$CD4?5over@ 0007afb0     libeay32:ec_curve.obj
 0002:00015028       ??_C@_0HB@LGGCBEEP@?6?7IPSec?1IKE?1Oakley?5curve?5?$CD3?5over@ 0007b028     libeay32:ec_curve.obj
 0002:0001509c       ??_C@_0CG@MLNHEHNL@WTLS?5curvs?5over?5a?5224?5bit?5prime?5@ 0007b09c     libeay32:ec_curve.obj
 0002:000150c4       ??_C@_0CG@JBBHINGJ@WTLS?5curve?5over?5a?5160?5bit?5prime?5@ 0007b0c4     libeay32:ec_curve.obj
 0002:000150ec       ??_C@_0CG@NOPNGNKB@WTLS?5curve?5over?5a?5112?5bit?5prime?5@ 0007b0ec     libeay32:ec_curve.obj
 0002:00015114       ??_C@_0CH@PAECJHG@WTLS?5curve?5over?5a?5113?5bit?5binary@ 0007b114     libeay32:ec_curve.obj
 0002:0001513c       ??_C@_0CI@PHOKEIPD@X9?462?5curve?5over?5a?5431?5bit?5binar@ 0007b13c     libeay32:ec_curve.obj
 0002:00015164       ??_C@_0CI@GLMEIDGJ@X9?462?5curve?5over?5a?5368?5bit?5binar@ 0007b164     libeay32:ec_curve.obj
 0002:0001518c       ??_C@_0CI@BDIPEOPL@X9?462?5curve?5over?5a?5359?5bit?5binar@ 0007b18c     libeay32:ec_curve.obj
 0002:000151b4       ??_C@_0CI@PCOAONL@X9?462?5curve?5over?5a?5304?5bit?5binar@ 0007b1b4     libeay32:ec_curve.obj
 0002:000151dc       ??_C@_0CI@OMGMCAMF@X9?462?5curve?5over?5a?5272?5bit?5binar@ 0007b1dc     libeay32:ec_curve.obj
 0002:00015204       ??_C@_0CI@IHGFALA@X9?462?5curve?5over?5a?5239?5bit?5binar@ 0007b204     libeay32:ec_curve.obj
 0002:0001522c       ??_C@_0CI@HADNJNCC@X9?462?5curve?5over?5a?5208?5bit?5binar@ 0007b22c     libeay32:ec_curve.obj
 0002:00015254       ??_C@_0CI@CNNMGPOI@X9?462?5curve?5over?5a?5191?5bit?5binar@ 0007b254     libeay32:ec_curve.obj
 0002:0001527c       ??_C@_0CI@HOBKKPME@X9?462?5curve?5over?5a?5176?5bit?5binar@ 0007b27c     libeay32:ec_curve.obj
 0002:000152a4       ??_C@_0CI@CFPHBJDI@X9?462?5curve?5over?5a?5163?5bit?5binar@ 0007b2a4     libeay32:ec_curve.obj
 0002:000152cc       ??_C@_0CM@EACJKLC@NIST?1SECG?5curve?5over?5a?5571?5bit?5b@ 0007b2cc     libeay32:ec_curve.obj
 0002:000152f8       ??_C@_0CM@HDDNKCDK@NIST?1SECG?5curve?5over?5a?5409?5bit?5b@ 0007b2f8     libeay32:ec_curve.obj
 0002:00015324       ??_C@_0CM@GFMOGKDK@NIST?1SECG?5curve?5over?5a?5283?5bit?5b@ 0007b324     libeay32:ec_curve.obj
 0002:00015350       ??_C@_0CH@CLCLBOGN@SECG?5curve?5over?5a?5239?5bit?5binary@ 0007b350     libeay32:ec_curve.obj
 0002:00015378       ??_C@_0DB@PNCPLOPN@NIST?1SECG?1WTLS?5curve?5over?5a?5233?5@ 0007b378     libeay32:ec_curve.obj
 0002:000153ac       ??_C@_0CH@HKDFCHME@SECG?5curve?5over?5a?5193?5bit?5binary@ 0007b3ac     libeay32:ec_curve.obj
 0002:000153d4       ??_C@_0CM@HCIKDLO@NIST?1SECG?5curve?5over?5a?5163?5bit?5b@ 0007b3d4     libeay32:ec_curve.obj
 0002:00015400       ??_C@_0CH@GKKFHOF@SECG?5curve?5over?5a?5163?5bit?5binary@ 0007b400     libeay32:ec_curve.obj
 0002:00015428       ??_C@_0DB@KNLLOMAB@NIST?1SECG?1WTLS?5curve?5over?5a?5163?5@ 0007b428     libeay32:ec_curve.obj
 0002:0001545c       ??_C@_0CH@FJJEIBAL@SECG?5curve?5over?5a?5131?5bit?5binary@ 0007b45c     libeay32:ec_curve.obj
 0002:00015484       ??_C@_0CM@EPOILLGK@SECG?1WTLS?5curve?5over?5a?5131?5bit?5b@ 0007b484     libeay32:ec_curve.obj
 0002:000154b0       ??_C@_0CH@OHOOPBHG@SECG?5curve?5over?5a?5113?5bit?5binary@ 0007b4b0     libeay32:ec_curve.obj
 0002:000154d8       ??_C@_0CM@IACJENLF@X9?462?1SECG?5curve?5over?5a?5256?5bit?5@ 0007b4d8     libeay32:ec_curve.obj
 0002:00015504       ??_C@_0CH@COBCAEEE@X9?462?5curve?5over?5a?5239?5bit?5prime@ 0007b504     libeay32:ec_curve.obj
 0002:0001552c       ??_C@_0CH@BHJCBJE@X9?462?5curve?5over?5a?5192?5bit?5prime@ 0007b52c     libeay32:ec_curve.obj
 0002:00015554       ??_C@_0DB@HJIMEGJL@NIST?1X9?462?1SECG?5curve?5over?5a?5192@ 0007b554     libeay32:ec_curve.obj
 0002:00015588       ??_C@_0CL@NCEJLDDF@NIST?1SECG?5curve?5over?5a?5521?5bit?5p@ 0007b588     libeay32:ec_curve.obj
 0002:000155b4       ??_C@_0CL@MPIFFEHD@NIST?1SECG?5curve?5over?5a?5384?5bit?5p@ 0007b5b4     libeay32:ec_curve.obj
 0002:000155e0       ??_C@_0CG@MBJIMJMI@SECG?5curve?5over?5a?5256?5bit?5prime?5@ 0007b5e0     libeay32:ec_curve.obj
 0002:00015608       ??_C@_0CL@NHPHHEEB@NIST?1SECG?5curve?5over?5a?5224?5bit?5p@ 0007b608     libeay32:ec_curve.obj
 0002:00015634       ??_C@_0CG@IOHCCJAA@SECG?5curve?5over?5a?5224?5bit?5prime?5@ 0007b634     libeay32:ec_curve.obj
 0002:0001565c       ??_C@_0CG@IFFAEDGD@SECG?5curve?5over?5a?5192?5bit?5prime?5@ 0007b65c     libeay32:ec_curve.obj
 0002:00015684       ??_C@_0CL@NDOOJKPB@SECG?1WTLS?5curve?5over?5a?5160?5bit?5p@ 0007b684     libeay32:ec_curve.obj
 0002:000156b0       ??_C@_0CG@MDBLLOCO@SECG?5curve?5over?5a?5160?5bit?5prime?5@ 0007b6b0     libeay32:ec_curve.obj
 0002:000156d8       ??_C@_0CG@DNCCBNMA@SECG?5curve?5over?5a?5128?5bit?5prime?5@ 0007b6d8     libeay32:ec_curve.obj
 0002:00015700       ??_C@_0CG@IMPBFOOG@SECG?5curve?5over?5a?5112?5bit?5prime?5@ 0007b700     libeay32:ec_curve.obj
 0002:00015728       ??_C@_0CL@JMAEHKDJ@SECG?1WTLS?5curve?5over?5a?5112?5bit?5p@ 0007b728     libeay32:ec_curve.obj
 0002:00015758       ??_C@_0EN@GGBLGKDN@d?3?2wm653wehh?2platform?2mvv210?2src@ 0007b758     libeay32:ec_curve.obj
 0002:000159e8       ??_C@_08CCPALKOP@priv_key?$AA@ 0007b9e8     libeay32:dsa_asn1.obj
 0002:000159f4       ??_C@_07CLGEADLH@pub_key?$AA@ 0007b9f4     libeay32:dsa_asn1.obj
 0002:000159fc       ??_C@_01JEJKBAGA@g?$AA@    0007b9fc     libeay32:dsa_asn1.obj
 0002:00015a00       ??_C@_01IIACKFLH@q?$AA@    0007ba00     libeay32:dsa_asn1.obj
 0002:00015a04       ??_C@_01JBBJJEPG@p?$AA@    0007ba04     libeay32:dsa_asn1.obj
 0002:00015a08       ??_C@_07CPCPJPKL@version?$AA@ 0007ba08     libeay32:dsa_asn1.obj
 0002:00015a10       ??_C@_07ECLLFBLJ@DSA_SIG?$AA@ 0007ba10     libeay32:dsa_asn1.obj
 0002:00015a18       ??_C@_01LKDEMHDF@s?$AA@    0007ba18     libeay32:dsa_asn1.obj
 0002:00015a1c       ??_C@_01KDCPPGHE@r?$AA@    0007ba1c     libeay32:dsa_asn1.obj
 0002:00015a20       ??_C@_0EO@DLELNGDB@d?3?2wm653wehh?2platform?2mvv210?2src@ 0007ba20     libeay32:dsa_asn1.obj
 0002:00015a70       DSA_version                0007ba70     libeay32:dsa_lib.obj
 0002:00015a98       ??_C@_0EN@HPPIDPIC@d?3?2wm653wehh?2platform?2mvv210?2src@ 0007ba98     libeay32:dsa_lib.obj
 0002:00015ae8       DH_version                 0007bae8     libeay32:dh_lib.obj
 0002:00015b20       ??_C@_0EL@PIAODHMF@d?3?2wm653wehh?2platform?2mvv210?2src@ 0007bb20     libeay32:dh_lib.obj
 0002:00015b70       ??_C@_0EL@BNOPJFLP@d?3?2wm653wehh?2platform?2mvv210?2src@ 0007bb70     libeay32:dh_gen.obj
 0002:00015bbc       ??_C@_0BC@MGHKLCAP@OpenSSL?5DH?5Method?$AA@ 0007bbbc     libeay32:dh_key.obj
 0002:00015bd0       ??_C@_0EL@KHODDKOC@d?3?2wm653wehh?2platform?2mvv210?2src@ 0007bbd0     libeay32:dh_key.obj
 0002:00015c28       ??_C@_0EN@HNNJMEMO@d?3?2wm653wehh?2platform?2mvv210?2src@ 0007bc28     libeay32:rsa_pss.obj
 0002:00015c78       ??_C@_0EO@IHJGGIGJ@d?3?2wm653wehh?2platform?2mvv210?2src@ 0007bc78     libeay32:rsa_x931.obj
 0002:00015cc8       ??_C@_0EO@KJLCAEHF@d?3?2wm653wehh?2platform?2mvv210?2src@ 0007bcc8     libeay32:rsa_saos.obj
 0002:00015d18       ??_C@_0EN@EGODLFJH@d?3?2wm653wehh?2platform?2mvv210?2src@ 0007bd18     libeay32:cms_env.obj
 0002:00015d68       RSA_version                0007bd68     libeay32:rsa_lib.obj
 0002:00015d90       ??_C@_0EN@MLDILJPH@d?3?2wm653wehh?2platform?2mvv210?2src@ 0007bd90     libeay32:rsa_lib.obj
 0002:00015de0       ??_C@_0EN@CONJBLIN@d?3?2wm653wehh?2platform?2mvv210?2src@ 0007bde0     libeay32:rsa_gen.obj
 0002:00015eb8       ??_C@_06IEOJBDIK@object?$AA@ 0007beb8     libeay32:x_attrib.obj
 0002:00015ec0       ??_C@_0P@IBKNNFL@X509_ATTRIBUTE?$AA@ 0007bec0     libeay32:x_attrib.obj
 0002:00015ed0       ??_C@_0N@MCAEPLPL@value?4single?$AA@ 0007bed0     libeay32:x_attrib.obj
 0002:00015ee0       ??_C@_09MPCDAIAO@value?4set?$AA@ 0007bee0     libeay32:x_attrib.obj
 0002:00015eec       ??_C@_02DKCKIIND@?$CFs?$AA@ 0007beec     libeay32:eng_ctrl.obj
 0002:00015ef0       ??_C@_0N@JAGKAFD@FILE?5pointer?$AA@ 0007bef0     libeay32:bss_file.obj
 0002:00015f00       ??_C@_0EO@GEBEJMNG@d?3?2wm653wehh?2platform?2mvv210?2src@ 0007bf00     libeay32:bss_file.obj
 0002:00015f50       ??_C@_02HJPKOJGD@?8?$CJ?$AA@ 0007bf50     libeay32:bss_file.obj
 0002:00015f54       ??_C@_03IMMLKIF@?8?0?8?$AA@ 0007bf54     libeay32:bss_file.obj
 0002:00015f58       ??_C@_07JMDFGFFH@fopen?$CI?8?$AA@ 0007bf58     libeay32:bss_file.obj
 0002:00015f60       ??_C@_01PFHFFBPC@t?$AA@    0007bf60     libeay32:bss_file.obj
 0002:00015f64       ??_C@_01OJONOECF@b?$AA@    0007bf64     libeay32:bss_file.obj
 0002:00015f68       ??_C@_01NOFIACDB@w?$AA@    0007bf68     libeay32:bss_file.obj
 0002:00015f6c       ??_C@_02CBLLGHLK@r?$CL?$AA@ 0007bf6c     libeay32:bss_file.obj
 0002:00015f70       ??_C@_01MCMALHOG@a?$AA@    0007bf70     libeay32:bss_file.obj
 0002:00015f74       ??_C@_02DPNLHKJD@a?$CL?$AA@ 0007bf74     libeay32:bss_file.obj
 0002:00015f78       ??_C@_0EJ@IBNICOFA@d?3?2wm653wehh?2platform?2mvv210?2src@ 0007bf78     libeay32:ex_data.obj
 0002:00015fc8       ??_C@_0FC@BNEDDMOL@d?3?2wm653wehh?2platform?2mvv210?2src@ 0007bfc8     libeay32:tb_asnmth.obj
 0002:00016020       ??_C@_0EM@IJKLDGFG@d?3?2wm653wehh?2platform?2mvv210?2src@ 0007c020     libeay32:a_int.obj
 0002:00016070       ??_C@_0EL@CLIEFBLC@d?3?2wm653wehh?2platform?2mvv210?2src@ 0007c070     libeay32:bn_mod.obj
 0002:000160c0       ??_C@_0EL@MKGMFIIF@d?3?2wm653wehh?2platform?2mvv210?2src@ 0007c0c0     libeay32:bn_exp.obj
 0002:00016110       ??_C@_0EM@GFDFNKJ@d?3?2wm653wehh?2platform?2mvv210?2src@ 0007c110     libeay32:bn_rand.obj
 0002:00016160       ??_C@_0EL@HJNLGKMO@d?3?2wm653wehh?2platform?2mvv210?2src@ 0007c160     libeay32:bn_div.obj
 0002:000161ac       RAND_version               0007c1ac     libeay32:md_rand.obj
 0002:000161d8       ??_C@_0EO@OKPIHEJM@d?3?2wm653wehh?2platform?2mvv210?2src@ 0007c1d8     libeay32:md_rand.obj
 0002:00016228       ??_C@_0EK@MHBHPLPP@You?5need?5to?5read?5the?5OpenSSL?5FAQ@ 0007c228     libeay32:md_rand.obj
 0002:00016274       ??_C@_0BF@KNMHCCP@?4?4?4?4?4?4?4?4?4?4?4?4?4?4?4?4?4?4?4?4?$AA@ 0007c274     libeay32:md_rand.obj
 0002:00016290       ??_C@_0EM@KNGHBEEM@d?3?2wm653wehh?2platform?2mvv210?2src@ 0007c290     libeay32:a_dup.obj
 0002:000162e0       ??_C@_0EP@PHFMEFHI@d?3?2wm653wehh?2platform?2mvv210?2src@ 0007c2e0     libeay32:a_bitstr.obj
 0002:00016330       ??_C@_0EP@DLKDJLKC@d?3?2wm653wehh?2platform?2mvv210?2src@ 0007c330     libeay32:buffer.obj
 0002:00016380       ??_C@_0EP@EEJMGOIG@d?3?2wm653wehh?2platform?2mvv210?2src@ 0007c380     libeay32:tasn_utl.obj
 0002:000163d0       ??_C@_0BF@JMOFLBJO@keylen?5?$DM?$DN?5sizeof?5key?$AA@ 0007c3d0     libeay32:p5_crpt2.obj
 0002:000163e8       ??_C@_0EO@DONPFFAH@d?3?2wm653wehh?2platform?2mvv210?2src@ 0007c3e8     libeay32:p5_crpt2.obj
 0002:00016438       ??_C@_0FB@IJLBCKEP@d?3?2wm653wehh?2platform?2mvv210?2src@ 0007c438     libeay32:p12_crpt.obj
 0002:0001648c       ??_C@_0CD@HMFJNEFL@EVP_CIPHER_iv_length?$CIcipher?$CJ?5?$DM?$DN?5@ 0007c48c     libeay32:p5_crpt.obj
 0002:000164b0       ??_C@_0DF@FHOHFFEB@EVP_CIPHER_key_length?$CIcipher?$CJ?5?$DM?$DN@ 0007c4b0     libeay32:p5_crpt.obj
 0002:000164e8       ??_C@_0EN@DFHCIHFJ@d?3?2wm653wehh?2platform?2mvv210?2src@ 0007c4e8     libeay32:p5_crpt.obj
 0002:00016538       EVP_version                0007c538     libeay32:evp_enc.obj
 0002:00016560       ??_C@_0EN@FALCDJAN@d?3?2wm653wehh?2platform?2mvv210?2src@ 0007c560     libeay32:evp_enc.obj
 0002:000165b0       ??_C@_0BM@NOPGEACO@bl?5?$DM?$DN?5?$CIint?$CJsizeof?$CIctx?9?$DObuf?$CJ?$AA@ 0007c5b0     libeay32:evp_enc.obj
 0002:000165cc       ??_C@_0BF@NLHGELBH@b?5?$DM?$DN?5sizeof?5ctx?9?$DObuf?$AA@ 0007c5cc     libeay32:evp_enc.obj
 0002:000165e4       ??_C@_0BH@JPOFFCDO@b?5?$DM?$DN?5sizeof?5ctx?9?$DOfinal?$AA@ 0007c5e4     libeay32:evp_enc.obj
 0002:000165fc       ??_C@_0DG@IKOHIL@EVP_CIPHER_CTX_iv_length?$CIctx?$CJ?5?$DM?$DN@ 0007c5fc     libeay32:evp_enc.obj
 0002:00016638       ??_C@_0FO@KIBMBINE@ctx?9?$DOcipher?9?$DOblock_size?5?$DN?$DN?51?5?$HM?$HM?5@ 0007c638     libeay32:evp_enc.obj
 0002:00016698       ??_C@_0EN@MHHCMNBH@d?3?2wm653wehh?2platform?2mvv210?2src@ 0007c698     libeay32:a_enum.obj
 0002:000166e8       ??_C@_0EP@KFOAJJMD@d?3?2wm653wehh?2platform?2mvv210?2src@ 0007c6e8     libeay32:x509name.obj
 0002:00016738       ??_C@_05DFCJAACA@name?$DN?$AA@ 0007c738     libeay32:x509name.obj
 0002:000167b4       v3_sinfo                   0007c7b4     libeay32:v3_info.obj
 0002:000167ec       v3_info                    0007c7ec     libeay32:v3_info.obj
 0002:00016824       ??_C@_0BG@PFEKCAHJ@AUTHORITY_INFO_ACCESS?$AA@ 0007c824     libeay32:v3_info.obj
 0002:0001683c       ??_C@_0N@CJKIBDLK@GeneralNames?$AA@ 0007c83c     libeay32:v3_info.obj
 0002:0001684c       ??_C@_0BD@IKHCEBLA@ACCESS_DESCRIPTION?$AA@ 0007c84c     libeay32:v3_info.obj
 0002:00016860       ??_C@_08CBBFJFMD@location?$AA@ 0007c860     libeay32:v3_info.obj
 0002:0001686c       ??_C@_06GABBCIBA@method?$AA@ 0007c86c     libeay32:v3_info.obj
 0002:00016874       ??_C@_03NLJIHOMM@?5?9?5?$AA@ 0007c874     libeay32:v3_info.obj
 0002:00016878       ??_C@_0FA@EJINBECP@d?3?2wm653wehh?2platform?2mvv210?2src@ 0007c878     libeay32:v3_info.obj
 0002:000168c8       ??_C@_06KFEJCPI@value?$DN?$AA@ 0007c8c8     libeay32:v3_info.obj
 0002:000168d0       ??_C@_0EP@JMDNBNIF@d?3?2wm653wehh?2platform?2mvv210?2src@ 0007c8d0     libeay32:conf_mod.obj
 0002:00016920       ??_C@_01KMDKNFGN@?1?$AA@   0007c920     libeay32:conf_mod.obj
 0002:00016ab4       ??_C@_0O@NFAAPMIG@GENERAL_NAMES?$AA@ 0007cab4     libeay32:v3_genn.obj
 0002:00016ac4       ??_C@_0N@JCNPGCGM@GENERAL_NAME?$AA@ 0007cac4     libeay32:v3_genn.obj
 0002:00016ad4       ??_C@_0P@KIENIEMD@d?4registeredID?$AA@ 0007cad4     libeay32:v3_genn.obj
 0002:00016ae4       ??_C@_0M@PANAALJB@d?4iPAddress?$AA@ 0007cae4     libeay32:v3_genn.obj
 0002:00016af0       ??_C@_0BM@CMCMADCA@d?4uniformResourceIdentifier?$AA@ 0007caf0     libeay32:v3_genn.obj
 0002:00016b0c       ??_C@_0P@OBCPPLOL@d?4ediPartyName?$AA@ 0007cb0c     libeay32:v3_genn.obj
 0002:00016b1c       ??_C@_0BA@JLDFBFLN@d?4directoryName?$AA@ 0007cb1c     libeay32:v3_genn.obj
 0002:00016b2c       ??_C@_0O@NKHOODFK@d?4x400Address?$AA@ 0007cb2c     libeay32:v3_genn.obj
 0002:00016b3c       ??_C@_09HIBJABFB@d?4dNSName?$AA@ 0007cb3c     libeay32:v3_genn.obj
 0002:00016b48       ??_C@_0N@MMCCMIPN@d?4rfc822Name?$AA@ 0007cb48     libeay32:v3_genn.obj
 0002:00016b58       ??_C@_0M@FGIBMCEL@d?4otherName?$AA@ 0007cb58     libeay32:v3_genn.obj
 0002:00016b64       ??_C@_0N@GEILLNKP@EDIPARTYNAME?$AA@ 0007cb64     libeay32:v3_genn.obj
 0002:00016b74       ??_C@_09EHIHAIPF@partyName?$AA@ 0007cb74     libeay32:v3_genn.obj
 0002:00016b80       ??_C@_0N@KBFEHHDO@nameAssigner?$AA@ 0007cb80     libeay32:v3_genn.obj
 0002:00016b90       ??_C@_09MAFAINAH@OTHERNAME?$AA@ 0007cb90     libeay32:v3_genn.obj
 0002:00016b9c       ??_C@_05MFEJDJP@value?$AA@ 0007cb9c     libeay32:v3_genn.obj
 0002:00016ba4       ??_C@_07EEDOJOAA@type_id?$AA@ 0007cba4     libeay32:v3_genn.obj
 0002:00016c34       ??_C@_0BA@JCMMJNEE@X509_EXTENSIONS?$AA@ 0007cc34     libeay32:x_exten.obj
 0002:00016c44       ??_C@_09KMFOEAAA@Extension?$AA@ 0007cc44     libeay32:x_exten.obj
 0002:00016c50       ??_C@_0P@OMHBNPIC@X509_EXTENSION?$AA@ 0007cc50     libeay32:x_exten.obj
 0002:00016c60       ??_C@_08CBBMEOFB@critical?$AA@ 0007cc60     libeay32:x_exten.obj
 0002:00016c70       ??_C@_0EM@NFBEAOGE@d?3?2wm653wehh?2platform?2mvv210?2src@ 0007cc70     libeay32:ec_mult.obj
 0002:00016d00       ??_C@_09FLJPBFIA@ECDSA_SIG?$AA@ 0007cd00     libeay32:ecs_asn1.obj
 0002:00016d0c       ??_C@_0BF@DJKLHCAL@OpenSSL?5ECDSA?5method?$AA@ 0007cd0c     libeay32:ecs_ossl.obj
 0002:00016d28       ??_C@_0FA@PJGMNPFB@d?3?2wm653wehh?2platform?2mvv210?2src@ 0007cd28     libeay32:ecs_ossl.obj
 0002:00016d7c       ECDH_version               0007cd7c     libeay32:ech_lib.obj
 0002:00016da8       ??_C@_0EO@JGKBLENE@d?3?2wm653wehh?2platform?2mvv210?2src@ 0007cda8     libeay32:ech_lib.obj
 0002:00016e30       ??_C@_06CHOIGJDB@BIGNUM?$AA@ 0007ce30     libeay32:x_bignum.obj
 0002:00016e70       ??_C@_05HIGAPBOG@ZLONG?$AA@ 0007ce70     libeay32:x_long.obj
 0002:00016e78       ??_C@_04KCJFIMMJ@LONG?$AA@ 0007ce78     libeay32:x_long.obj
 0002:00016e80       ??_C@_0EN@OBFIOJLM@d?3?2wm653wehh?2platform?2mvv210?2src@ 0007ce80     libeay32:x_long.obj
 0002:00016ed0       ??_C@_04PEDNGLFL@?$CFld?6?$AA@ 0007ced0     libeay32:x_long.obj
 0002:00016ed8       ??_C@_0EO@PHDJAHKO@d?3?2wm653wehh?2platform?2mvv210?2src@ 0007ced8     libeay32:dsa_sign.obj
 0002:00016f28       ??_C@_0BD@IBKHKBJA@OpenSSL?5DSA?5method?$AA@ 0007cf28     libeay32:dsa_ossl.obj
 0002:00016f40       ??_C@_0EO@MKGDCJCA@d?3?2wm653wehh?2platform?2mvv210?2src@ 0007cf40     libeay32:dsa_ossl.obj
 0002:00016f98       ??_C@_0EM@PNNGIHGB@d?3?2wm653wehh?2platform?2mvv210?2src@ 0007cf98     libeay32:bn_mont.obj
 0002:00017ff0       ??_C@_0EO@FBMJEFIA@d?3?2wm653wehh?2platform?2mvv210?2src@ 0007dff0     libeay32:rsa_oaep.obj
 0002:00018e1c       ??_C@_0M@GJHAMFIP@CMS_Receipt?$AA@ 0007ee1c     libeay32:cms_asn1.obj
 0002:00018e28       ??_C@_0BJ@OPFDHHHB@originatorSignatureValue?$AA@ 0007ee28     libeay32:cms_asn1.obj
 0002:00018e44       ??_C@_0BD@KOFKAGLC@CMS_ReceiptRequest?$AA@ 0007ee44     libeay32:cms_asn1.obj
 0002:00018e58       ??_C@_0L@BBBJMFCF@receiptsTo?$AA@ 0007ee58     libeay32:cms_asn1.obj
 0002:00018e64       ??_C@_0N@CIHGCFJG@receiptsFrom?$AA@ 0007ee64     libeay32:cms_asn1.obj
 0002:00018e74       ??_C@_0BI@BHIBPADG@signedContentIdentifier?$AA@ 0007ee74     libeay32:cms_asn1.obj
 0002:00018e8c       ??_C@_0BB@JKAAKCKP@CMS_ReceiptsFrom?$AA@ 0007ee8c     libeay32:cms_asn1.obj
 0002:00018ea0       ??_C@_0O@ECMNNMJA@d?4receiptList?$AA@ 0007eea0     libeay32:cms_asn1.obj
 0002:00018eb0       ??_C@_0BB@DENHEDOF@d?4allOrFirstTier?$AA@ 0007eeb0     libeay32:cms_asn1.obj
 0002:00018ec4       ??_C@_0BG@NLALJKHJ@CMS_Attributes_Verify?$AA@ 0007eec4     libeay32:cms_asn1.obj
 0002:00018edc       ??_C@_0BE@PAHMALPK@CMS_Attributes_Sign?$AA@ 0007eedc     libeay32:cms_asn1.obj
 0002:00018ef0       ??_C@_0P@KAJKPCJH@CMS_ATTRIBUTES?$AA@ 0007eef0     libeay32:cms_asn1.obj
 0002:00018f00       ??_C@_0BA@ECDDPOHH@CMS_ContentInfo?$AA@ 0007ef00     libeay32:cms_asn1.obj
 0002:00018f10       ??_C@_0BB@NELCELCK@d?4compressedData?$AA@ 0007ef10     libeay32:cms_asn1.obj
 0002:00018f24       ??_C@_0BE@NPCJHPOJ@d?4authenticatedData?$AA@ 0007ef24     libeay32:cms_asn1.obj
 0002:00018f38       ??_C@_0BA@HJCBJEH@d?4encryptedData?$AA@ 0007ef38     libeay32:cms_asn1.obj
 0002:00018f48       ??_C@_0P@HJCJOBOP@d?4digestedData?$AA@ 0007ef48     libeay32:cms_asn1.obj
 0002:00018f58       ??_C@_0BA@CCFAJLBF@d?4envelopedData?$AA@ 0007ef58     libeay32:cms_asn1.obj
 0002:00018f68       ??_C@_0N@DDIMJOHE@d?4signedData?$AA@ 0007ef68     libeay32:cms_asn1.obj
 0002:00018f78       ??_C@_06OAPKPHLA@d?4data?$AA@ 0007ef78     libeay32:cms_asn1.obj
 0002:00018f80       ??_C@_0BD@IAIGGNCI@CMS_CompressedData?$AA@ 0007ef80     libeay32:cms_asn1.obj
 0002:00018f94       ??_C@_0BF@PNIPCJJ@compressionAlgorithm?$AA@ 0007ef94     libeay32:cms_asn1.obj
 0002:00018fac       ??_C@_0BG@DOMHNMEC@CMS_AuthenticatedData?$AA@ 0007efac     libeay32:cms_asn1.obj
 0002:00018fc4       ??_C@_0M@FBFPDIHA@unauthAttrs?$AA@ 0007efc4     libeay32:cms_asn1.obj
 0002:00018fd0       ??_C@_03BADCJGEO@mac?$AA@  0007efd0     libeay32:cms_asn1.obj
 0002:00018fd4       ??_C@_09HHELNNLD@authAttrs?$AA@ 0007efd4     libeay32:cms_asn1.obj
 0002:00018fe0       ??_C@_0N@PGIFJMM@macAlgorithm?$AA@ 0007efe0     libeay32:cms_asn1.obj
 0002:00018ff0       ??_C@_0BC@ONODDCLB@CMS_EncryptedData?$AA@ 0007eff0     libeay32:cms_asn1.obj
 0002:00019004       ??_C@_0BB@NNEFCOGL@CMS_DigestedData?$AA@ 0007f004     libeay32:cms_asn1.obj
 0002:00019018       ??_C@_0BC@MICBLAOD@CMS_EnvelopedData?$AA@ 0007f018     libeay32:cms_asn1.obj
 0002:0001902c       ??_C@_0BB@JCNJKAMK@unprotectedAttrs?$AA@ 0007f02c     libeay32:cms_asn1.obj
 0002:00019040       ??_C@_0BF@OHLPJHAO@encryptedContentInfo?$AA@ 0007f040     libeay32:cms_asn1.obj
 0002:00019058       ??_C@_0P@MHKJPFAE@recipientInfos?$AA@ 0007f058     libeay32:cms_asn1.obj
 0002:00019068       ??_C@_0P@HMLDCEHI@originatorInfo?$AA@ 0007f068     libeay32:cms_asn1.obj
 0002:00019078       ??_C@_0BC@OIOGGOHC@CMS_RecipientInfo?$AA@ 0007f078     libeay32:cms_asn1.obj
 0002:0001908c       ??_C@_05CDKGAJPA@d?4ori?$AA@ 0007f08c     libeay32:cms_asn1.obj
 0002:00019094       ??_C@_06MMLMDIAL@d?4pwri?$AA@ 0007f094     libeay32:cms_asn1.obj
 0002:0001909c       ??_C@_07GNHCNHGA@d?4kekri?$AA@ 0007f09c     libeay32:cms_asn1.obj
 0002:000190a4       ??_C@_06KOPOJGNL@d?4kari?$AA@ 0007f0a4     libeay32:cms_asn1.obj
 0002:000190ac       ??_C@_06MJDJDBHG@d?4ktri?$AA@ 0007f0ac     libeay32:cms_asn1.obj
 0002:000190b4       ??_C@_0BH@ELFPNLNE@CMS_OtherRecipientInfo?$AA@ 0007f0b4     libeay32:cms_asn1.obj
 0002:000190cc       ??_C@_08CPLCPCAK@oriValue?$AA@ 0007f0cc     libeay32:cms_asn1.obj
 0002:000190d8       ??_C@_07FAMFHMLO@oriType?$AA@ 0007f0d8     libeay32:cms_asn1.obj
 0002:000190e0       ??_C@_0BK@KBPCOALF@CMS_PasswordRecipientInfo?$AA@ 0007f0e0     libeay32:cms_asn1.obj
 0002:000190fc       ??_C@_0BH@OGDBOKG@keyDerivationAlgorithm?$AA@ 0007f0fc     libeay32:cms_asn1.obj
 0002:00019114       ??_C@_0BF@NBHFGDNK@CMS_KEKRecipientInfo?$AA@ 0007f114     libeay32:cms_asn1.obj
 0002:0001912c       ??_C@_05NHGMHHPG@kekid?$AA@ 0007f12c     libeay32:cms_asn1.obj
 0002:00019134       ??_C@_0BC@MBEMIKEG@CMS_KEKIdentifier?$AA@ 0007f134     libeay32:cms_asn1.obj
 0002:00019148       ??_C@_0O@NFJHJHKH@keyIdentifier?$AA@ 0007f148     libeay32:cms_asn1.obj
 0002:00019158       ??_C@_0BK@FMJLFKK@CMS_KeyAgreeRecipientInfo?$AA@ 0007f158     libeay32:cms_asn1.obj
 0002:00019174       ??_C@_0BH@PJIHPFGD@recipientEncryptedKeys?$AA@ 0007f174     libeay32:cms_asn1.obj
 0002:0001918c       ??_C@_03BGILEBGG@ukm?$AA@  0007f18c     libeay32:cms_asn1.obj
 0002:00019190       ??_C@_0L@LNFLHOFG@originator?$AA@ 0007f190     libeay32:cms_asn1.obj
 0002:0001919c       ??_C@_0BO@EGGGKLC@CMS_OriginatorIdentifierOrKey?$AA@ 0007f19c     libeay32:cms_asn1.obj
 0002:000191bc       ??_C@_0BA@GMAGEPIK@d?4originatorKey?$AA@ 0007f1bc     libeay32:cms_asn1.obj
 0002:000191cc       ??_C@_0BI@BANGJHOF@CMS_OriginatorPublicKey?$AA@ 0007f1cc     libeay32:cms_asn1.obj
 0002:000191e4       ??_C@_09IDENFCJL@publicKey?$AA@ 0007f1e4     libeay32:cms_asn1.obj
 0002:000191f0       ??_C@_0BK@PEPAIBDP@CMS_RecipientEncryptedKey?$AA@ 0007f1f0     libeay32:cms_asn1.obj
 0002:0001920c       ??_C@_0CA@LLLOPIGI@CMS_KeyAgreeRecipientIdentifier?$AA@ 0007f20c     libeay32:cms_asn1.obj
 0002:0001922c       ??_C@_08NDNCHPPH@d?4rKeyId?$AA@ 0007f22c     libeay32:cms_asn1.obj
 0002:00019238       ??_C@_0BL@KIFNEPBG@CMS_RecipientKeyIdentifier?$AA@ 0007f238     libeay32:cms_asn1.obj
 0002:00019254       ??_C@_05BGEKGIIP@other?$AA@ 0007f254     libeay32:cms_asn1.obj
 0002:0001925c       ??_C@_04JNIHBGGH@date?$AA@ 0007f25c     libeay32:cms_asn1.obj
 0002:00019264       ??_C@_0BG@MPKMCLOF@CMS_OtherKeyAttribute?$AA@ 0007f264     libeay32:cms_asn1.obj
 0002:0001927c       ??_C@_07CNMADOPK@keyAttr?$AA@ 0007f27c     libeay32:cms_asn1.obj
 0002:00019284       ??_C@_09FBOICBLA@keyAttrId?$AA@ 0007f284     libeay32:cms_asn1.obj
 0002:00019290       ??_C@_0BK@JKNAJMBM@CMS_KeyTransRecipientInfo?$AA@ 0007f290     libeay32:cms_asn1.obj
 0002:000192ac       ??_C@_0N@DJLGIBLA@encryptedKey?$AA@ 0007f2ac     libeay32:cms_asn1.obj
 0002:000192bc       ??_C@_0BH@NBKKPKMP@keyEncryptionAlgorithm?$AA@ 0007f2bc     libeay32:cms_asn1.obj
 0002:000192d4       ??_C@_03FJBKBGPI@rid?$AA@  0007f2d4     libeay32:cms_asn1.obj
 0002:000192d8       ??_C@_0BJ@IHPALOIM@CMS_EncryptedContentInfo?$AA@ 0007f2d8     libeay32:cms_asn1.obj
 0002:000192f4       ??_C@_0BB@HAOJNDCF@encryptedContent?$AA@ 0007f2f4     libeay32:cms_asn1.obj
 0002:00019308       ??_C@_0BL@JFGGCGJK@contentEncryptionAlgorithm?$AA@ 0007f308     libeay32:cms_asn1.obj
 0002:00019324       ??_C@_0BD@BOLANDH@CMS_OriginatorInfo?$AA@ 0007f324     libeay32:cms_asn1.obj
 0002:00019338       ??_C@_0P@IFJHOEIE@CMS_SignedData?$AA@ 0007f338     libeay32:cms_asn1.obj
 0002:00019348       ??_C@_0M@OPIAHELE@signerInfos?$AA@ 0007f348     libeay32:cms_asn1.obj
 0002:00019354       ??_C@_04GDKGHFBJ@crls?$AA@ 0007f354     libeay32:cms_asn1.obj
 0002:0001935c       ??_C@_0N@NGKEHKOM@certificates?$AA@ 0007f35c     libeay32:cms_asn1.obj
 0002:0001936c       ??_C@_0BB@EFFJPOAL@encapContentInfo?$AA@ 0007f36c     libeay32:cms_asn1.obj
 0002:00019380       ??_C@_0BB@CMPBPEDI@digestAlgorithms?$AA@ 0007f380     libeay32:cms_asn1.obj
 0002:00019394       ??_C@_0BJ@MJACOINL@CMS_RevocationInfoChoice?$AA@ 0007f394     libeay32:cms_asn1.obj
 0002:000193b0       ??_C@_05BEAHECAN@d?4crl?$AA@ 0007f3b0     libeay32:cms_asn1.obj
 0002:000193b8       ??_C@_0BO@ONAFHMMC@CMS_OtherRevocationInfoFormat?$AA@ 0007f3b8     libeay32:cms_asn1.obj
 0002:000193d8       ??_C@_0N@MOBLFMFA@otherRevInfo?$AA@ 0007f3d8     libeay32:cms_asn1.obj
 0002:000193e8       ??_C@_0BD@HLCFDNLB@otherRevInfoFormat?$AA@ 0007f3e8     libeay32:cms_asn1.obj
 0002:000193fc       ??_C@_0P@HBMKILHF@CMS_SignerInfo?$AA@ 0007f3fc     libeay32:cms_asn1.obj
 0002:0001940c       ??_C@_0O@PDNEMLFH@unsignedAttrs?$AA@ 0007f40c     libeay32:cms_asn1.obj
 0002:0001941c       ??_C@_09CMIIOJHF@signature?$AA@ 0007f41c     libeay32:cms_asn1.obj
 0002:00019428       ??_C@_0BD@CBMBFDMH@signatureAlgorithm?$AA@ 0007f428     libeay32:cms_asn1.obj
 0002:0001943c       ??_C@_0M@MDGDHPDJ@signedAttrs?$AA@ 0007f43c     libeay32:cms_asn1.obj
 0002:00019448       ??_C@_0BA@OBGGJDDI@digestAlgorithm?$AA@ 0007f448     libeay32:cms_asn1.obj
 0002:00019458       ??_C@_03OBKGHBJN@sid?$AA@  0007f458     libeay32:cms_asn1.obj
 0002:0001945c       ??_C@_0BM@FGCJFMKP@CMS_EncapsulatedContentInfo?$AA@ 0007f45c     libeay32:cms_asn1.obj
 0002:00019478       ??_C@_08OOKAKDHE@eContent?$AA@ 0007f478     libeay32:cms_asn1.obj
 0002:00019484       ??_C@_0N@EBAJNGML@eContentType?$AA@ 0007f484     libeay32:cms_asn1.obj
 0002:00019494       ??_C@_0BF@HIKDPBH@CMS_SignerIdentifier?$AA@ 0007f494     libeay32:cms_asn1.obj
 0002:000194ac       ??_C@_0BH@LJLJDHKP@d?4subjectKeyIdentifier?$AA@ 0007f4ac     libeay32:cms_asn1.obj
 0002:000194c4       ??_C@_0BI@DNGDMGHK@d?4issuerAndSerialNumber?$AA@ 0007f4c4     libeay32:cms_asn1.obj
 0002:000194dc       ??_C@_0BH@CFNIJMB@CMS_CertificateChoices?$AA@ 0007f4dc     libeay32:cms_asn1.obj
 0002:000194f4       ??_C@_07JIJPKMF@d?4other?$AA@ 0007f4f4     libeay32:cms_asn1.obj
 0002:000194fc       ??_C@_0N@FODDOFO@d?4v2AttrCert?$AA@ 0007f4fc     libeay32:cms_asn1.obj
 0002:0001950c       ??_C@_0N@OONEIFFN@d?4v1AttrCert?$AA@ 0007f50c     libeay32:cms_asn1.obj
 0002:0001951c       ??_C@_0BG@NLAONGA@d?4extendedCertificate?$AA@ 0007f51c     libeay32:cms_asn1.obj
 0002:00019534       ??_C@_0O@MNFCNMPJ@d?4certificate?$AA@ 0007f534     libeay32:cms_asn1.obj
 0002:00019544       ??_C@_0BL@CACJFKMB@CMS_OtherCertificateFormat?$AA@ 0007f544     libeay32:cms_asn1.obj
 0002:00019560       ??_C@_09CDBALEP@otherCert?$AA@ 0007f560     libeay32:cms_asn1.obj
 0002:0001956c       ??_C@_0BA@FEKMLOFK@otherCertFormat?$AA@ 0007f56c     libeay32:cms_asn1.obj
 0002:0001957c       ??_C@_0BK@GLMHLHML@CMS_IssuerAndSerialNumber?$AA@ 0007f57c     libeay32:cms_asn1.obj
 0002:00019598       ??_C@_06EAINIONG@issuer?$AA@ 0007f598     libeay32:cms_asn1.obj
 0002:000195a0       ??_C@_0EN@MLHPIIH@d?3?2wm653wehh?2platform?2mvv210?2src@ 0007f5a0     libeay32:cms_lib.obj
 0002:000195f0       ??_C@_0EN@CBCEBCDK@d?3?2wm653wehh?2platform?2mvv210?2src@ 0007f5f0     libeay32:cms_enc.obj
 0002:00019640       ??_C@_0EM@PJNFBCEL@d?3?2wm653wehh?2platform?2mvv210?2src@ 0007f640     libeay32:cms_sd.obj
 0002:000196b8       ??_C@_0O@MABGKINF@timestampsign?$AA@ 0007f6b8     libeay32:v3_purp.obj
 0002:000196c8       ??_C@_0BD@HLGKGIIB@Time?5Stamp?5signing?$AA@ 0007f6c8     libeay32:v3_purp.obj
 0002:000196dc       ??_C@_0L@IMHCEJBK@ocsphelper?$AA@ 0007f6dc     libeay32:v3_purp.obj
 0002:000196e8       ??_C@_0M@NEPIMEJA@OCSP?5helper?$AA@ 0007f6e8     libeay32:v3_purp.obj
 0002:000196f4       ??_C@_03OBJFJEBA@any?$AA@  0007f6f4     libeay32:v3_purp.obj
 0002:000196f8       ??_C@_0M@NMNFLNDB@Any?5Purpose?$AA@ 0007f6f8     libeay32:v3_purp.obj
 0002:00019704       ??_C@_07IOMCDAPH@crlsign?$AA@ 0007f704     libeay32:v3_purp.obj
 0002:0001970c       ??_C@_0M@MEKLJHLA@CRL?5signing?$AA@ 0007f70c     libeay32:v3_purp.obj
 0002:00019718       ??_C@_0N@BPFJELMP@smimeencrypt?$AA@ 0007f718     libeay32:v3_purp.obj
 0002:00019728       ??_C@_0BC@DOGNOPGC@S?1MIME?5encryption?$AA@ 0007f728     libeay32:v3_purp.obj
 0002:0001973c       ??_C@_09JPGBHOKH@smimesign?$AA@ 0007f73c     libeay32:v3_purp.obj
 0002:00019748       ??_C@_0P@LNDEBCCO@S?1MIME?5signing?$AA@ 0007f748     libeay32:v3_purp.obj
 0002:00019758       ??_C@_0M@GKHHMMAE@nssslserver?$AA@ 0007f758     libeay32:v3_purp.obj
 0002:00019764       ??_C@_0BE@BPEJPGJG@Netscape?5SSL?5server?$AA@ 0007f764     libeay32:v3_purp.obj
 0002:00019778       ??_C@_09FEILOJPJ@sslserver?$AA@ 0007f778     libeay32:v3_purp.obj
 0002:00019784       ??_C@_0L@PNDNFADH@SSL?5server?$AA@ 0007f784     libeay32:v3_purp.obj
 0002:00019790       ??_C@_09BLMJDCHK@sslclient?$AA@ 0007f790     libeay32:v3_purp.obj
 0002:0001979c       ??_C@_0L@LCHPILLE@SSL?5client?$AA@ 0007f79c     libeay32:v3_purp.obj
 0002:000197a8       ??_C@_0FA@EPMAEJOB@d?3?2wm653wehh?2platform?2mvv210?2src@ 0007f7a8     libeay32:v3_purp.obj
 0002:000197f8       ??_C@_0EO@PHNCOBFO@d?3?2wm653wehh?2platform?2mvv210?2src@ 0007f7f8     libeay32:pmeth_fn.obj
 0002:00019850       AES_version                0007f850     libeay32:aes_misc.obj
 0002:00019878       ??_C@_0EO@LKMDOFNL@d?3?2wm653wehh?2platform?2mvv210?2src@ 0007f878     libeay32:cms_pwri.obj
 0002:000198c8       ??_C@_0BI@NFPKAKEA@Eric?5Young?8s?5PKCS?$CD1?5RSA?$AA@ 0007f8c8     libeay32:rsa_eay.obj
 0002:000198e0       ??_C@_0EN@FLFPHDGA@d?3?2wm653wehh?2platform?2mvv210?2src@ 0007f8e0     libeay32:rsa_eay.obj
 0002:00019938       cmac_asn1_meth             0007f938     libeay32:cm_ameth.obj
 0002:000199a4       ??_C@_0BE@GBIGMENL@OpenSSL?5CMAC?5method?$AA@ 0007f9a4     libeay32:cm_ameth.obj
 0002:000199b8       hmac_asn1_meth             0007f9b8     libeay32:hm_ameth.obj
 0002:00019a24       ??_C@_0BE@BABEGANF@OpenSSL?5HMAC?5method?$AA@ 0007fa24     libeay32:hm_ameth.obj
 0002:00019a38       ??_C@_0EP@LPMJCFIA@d?3?2wm653wehh?2platform?2mvv210?2src@ 0007fa38     libeay32:hm_ameth.obj
 0002:00019a88       eckey_asn1_meth            0007fa88     libeay32:ec_ameth.obj
 0002:00019af4       ??_C@_0BF@DKDIFOGG@OpenSSL?5EC?5algorithm?$AA@ 0007faf4     libeay32:ec_ameth.obj
 0002:00019b0c       ??_C@_02KNLLHFAA@EC?$AA@   0007fb0c     libeay32:ec_ameth.obj
 0002:00019b10       ??_C@_0EN@OGHGAGHH@d?3?2wm653wehh?2platform?2mvv210?2src@ 0007fb10     libeay32:ec_ameth.obj
 0002:00019b60       ??_C@_05FJHKEHEO@pub?3?5?$AA@ 0007fb60     libeay32:ec_ameth.obj
 0002:00019b68       ??_C@_05PFPGJCCA@priv?3?$AA@ 0007fb68     libeay32:ec_ameth.obj
 0002:00019b70       ??_C@_0O@OPPPNLCD@?$CFs?3?5?$CI?$CFd?5bit?$CJ?6?$AA@ 0007fb70     libeay32:ec_ameth.obj
 0002:00019b80       ??_C@_0BB@DMDKLH@ECDSA?9Parameters?$AA@ 0007fb80     libeay32:ec_ameth.obj
 0002:00019b94       ??_C@_0L@FMJMEKAC@Public?9Key?$AA@ 0007fb94     libeay32:ec_ameth.obj
 0002:00019ba0       ??_C@_0M@CJKOCIEC@Private?9Key?$AA@ 0007fba0     libeay32:ec_ameth.obj
 0002:00019bb0       dsa_asn1_meths             0007fbb0     libeay32:dsa_ameth.obj
 0002:00019dd0       ??_C@_0EP@BEDNKKJD@d?3?2wm653wehh?2platform?2mvv210?2src@ 0007fdd0     libeay32:dsa_ameth.obj
 0002:00019e20       ??_C@_05LKAKAJND@G?3?5?5?5?$AA@ 0007fe20     libeay32:dsa_ameth.obj
 0002:00019e28       ??_C@_05GPIFOIFF@Q?3?5?5?5?$AA@ 0007fe28     libeay32:dsa_ameth.obj
 0002:00019e30       ??_C@_05KENJDLPA@P?3?5?5?5?$AA@ 0007fe30     libeay32:dsa_ameth.obj
 0002:00019e38       ??_C@_0P@LAFOADJN@DSA?9Parameters?$AA@ 0007fe38     libeay32:dsa_ameth.obj
 0002:00019e48       ??_C@_05CFOBEMGI@s?3?5?5?5?$AA@ 0007fe48     libeay32:dsa_ameth.obj
 0002:00019e50       ??_C@_05OOLNJPMN@r?3?5?5?5?$AA@ 0007fe50     libeay32:dsa_ameth.obj
 0002:00019e58       ??_C@_01EEMJAFIK@?6?$AA@   0007fe58     libeay32:dsa_ameth.obj
 0002:00019e60       dh_asn1_meth               0007fe60     libeay32:dh_ameth.obj
 0002:00019ecc       ??_C@_0BJ@OPGBMMOB@OpenSSL?5PKCS?$CD3?5DH?5method?$AA@ 0007fecc     libeay32:dh_ameth.obj
 0002:00019ee8       ??_C@_02EPINMGPM@DH?$AA@   0007fee8     libeay32:dh_ameth.obj
 0002:00019ef0       ??_C@_0EN@KFNOHMJF@d?3?2wm653wehh?2platform?2mvv210?2src@ 0007fef0     libeay32:dh_ameth.obj
 0002:00019f40       ??_C@_0CF@KKPEILHE@recommended?9private?9length?3?5?$CFd?5b@ 0007ff40     libeay32:dh_ameth.obj
 0002:00019f68       ??_C@_0L@HDGHCIJF@generator?3?$AA@ 0007ff68     libeay32:dh_ameth.obj
 0002:00019f74       ??_C@_06POMKLBDA@prime?3?$AA@ 0007ff74     libeay32:dh_ameth.obj
 0002:00019f7c       ??_C@_0M@BCALNHOD@public?9key?3?$AA@ 0007ff7c     libeay32:dh_ameth.obj
 0002:00019f88       ??_C@_0N@MPONDEBM@private?9key?3?$AA@ 0007ff88     libeay32:dh_ameth.obj
 0002:00019f98       ??_C@_0BF@HJBOBPFM@PKCS?$CD3?5DH?5Parameters?$AA@ 0007ff98     libeay32:dh_ameth.obj
 0002:00019fb0       ??_C@_0BF@NEOAIGKI@PKCS?$CD3?5DH?5Public?9Key?$AA@ 0007ffb0     libeay32:dh_ameth.obj
 0002:00019fc8       ??_C@_0BG@BPCFBOHI@PKCS?$CD3?5DH?5Private?9Key?$AA@ 0007ffc8     libeay32:dh_ameth.obj
 0002:00019fe0       rsa_asn1_meths             0007ffe0     libeay32:rsa_ameth.obj
 0002:0001a0b8       ??_C@_0BD@MHOEKPBI@OpenSSL?5RSA?5method?$AA@ 000800b8     libeay32:rsa_ameth.obj
 0002:0001a0d0       ??_C@_0EP@ECKOLFPF@d?3?2wm653wehh?2platform?2mvv210?2src@ 000800d0     libeay32:rsa_ameth.obj
 0002:0001a120       ??_C@_0N@GNAMJPHF@coefficient?3?$AA@ 00080120     libeay32:rsa_ameth.obj
 0002:0001a130       ??_C@_0L@OKKEHIPG@exponent2?3?$AA@ 00080130     libeay32:rsa_ameth.obj
 0002:0001a13c       ??_C@_0L@OIOCMGKP@exponent1?3?$AA@ 0008013c     libeay32:rsa_ameth.obj
 0002:0001a148       ??_C@_07NJNHFNM@prime2?3?$AA@ 00080148     libeay32:rsa_ameth.obj
 0002:0001a150       ??_C@_07PNLMLIF@prime1?3?$AA@ 00080150     libeay32:rsa_ameth.obj
 0002:0001a158       ??_C@_0BB@NFOLHHHJ@privateExponent?3?$AA@ 00080158     libeay32:rsa_ameth.obj
 0002:0001a16c       ??_C@_08GIMLILAA@Modulus?3?$AA@ 0008016c     libeay32:rsa_ameth.obj
 0002:0001a178       ??_C@_09DALHJPOO@Exponent?3?$AA@ 00080178     libeay32:rsa_ameth.obj
 0002:0001a184       ??_C@_0BG@HAJOCCOP@Public?9Key?3?5?$CI?$CFd?5bit?$CJ?6?$AA@ 00080184     libeay32:rsa_ameth.obj
 0002:0001a19c       ??_C@_08OKDKAJKD@modulus?3?$AA@ 0008019c     libeay32:rsa_ameth.obj
 0002:0001a1a8       ??_C@_0BA@FAAMOFHC@publicExponent?3?$AA@ 000801a8     libeay32:rsa_ameth.obj
 0002:0001a1b8       ??_C@_0BH@JHLDJION@Private?9Key?3?5?$CI?$CFd?5bit?$CJ?6?$AA@ 000801b8     libeay32:rsa_ameth.obj
 0002:0001a1d0       ??_C@_0P@DDPOEOJA@0xbc?5?$CIdefault?$CJ?$AA@ 000801d0     libeay32:rsa_ameth.obj
 0002:0001a1e0       ??_C@_0BA@LIMPMLCB@Trailer?5Field?3?5?$AA@ 000801e0     libeay32:rsa_ameth.obj
 0002:0001a1f0       ??_C@_0N@LMKHLINK@20?5?$CIdefault?$CJ?$AA@ 000801f0     libeay32:rsa_ameth.obj
 0002:0001a200       ??_C@_0O@KKNIODBM@Salt?5Length?3?5?$AA@ 00080200     libeay32:rsa_ameth.obj
 0002:0001a210       ??_C@_0BJ@NNFOENLD@mgf1?5with?5sha1?5?$CIdefault?$CJ?$AA@ 00080210     libeay32:rsa_ameth.obj
 0002:0001a22c       ??_C@_07DNODLGKM@INVALID?$AA@ 0008022c     libeay32:rsa_ameth.obj
 0002:0001a234       ??_C@_06BIDGLIKJ@?5with?5?$AA@ 00080234     libeay32:rsa_ameth.obj
 0002:0001a23c       ??_C@_0BB@HEAMLCPA@Mask?5Algorithm?3?5?$AA@ 0008023c     libeay32:rsa_ameth.obj
 0002:0001a250       ??_C@_0P@ODEAMLKF@sha1?5?$CIdefault?$CJ?$AA@ 00080250     libeay32:rsa_ameth.obj
 0002:0001a260       ??_C@_0BB@PMMDHLKH@Hash?5Algorithm?3?5?$AA@ 00080260     libeay32:rsa_ameth.obj
 0002:0001a274       ??_C@_0BL@KMBKPBGM@?5?$CIINVALID?5PSS?5PARAMETERS?$CJ?6?$AA@ 00080274     libeay32:rsa_ameth.obj
 0002:0001a290       ??_C@_0EM@LKCJBLMG@d?3?2wm653wehh?2platform?2mvv210?2src@ 00080290     libeay32:bn_recp.obj
 0002:0001a390       ??_C@_0M@DPMJHKGH@PBKDF2PARAM?$AA@ 00080390     libeay32:p5_pbev2.obj
 0002:0001a39c       ??_C@_03NBFGPAGA@prf?$AA@  0008039c     libeay32:p5_pbev2.obj
 0002:0001a3a0       ??_C@_09PKJJLJJD@keylength?$AA@ 000803a0     libeay32:p5_pbev2.obj
 0002:0001a3ac       ??_C@_04BKLHDIKK@iter?$AA@ 000803ac     libeay32:p5_pbev2.obj
 0002:0001a3b4       ??_C@_04OKLIMCN@salt?$AA@  000803b4     libeay32:p5_pbev2.obj
 0002:0001a3bc       ??_C@_09DHBCCKCK@PBE2PARAM?$AA@ 000803bc     libeay32:p5_pbev2.obj
 0002:0001a3c8       ??_C@_0L@HBBFMHKN@encryption?$AA@ 000803c8     libeay32:p5_pbev2.obj
 0002:0001a3d4       ??_C@_07KEPFKPDN@keyfunc?$AA@ 000803d4     libeay32:p5_pbev2.obj
 0002:0001a420       ??_C@_08CKLJFNPB@PBEPARAM?$AA@ 00080420     libeay32:p5_pbe.obj
 0002:0001a430       ??_C@_0FA@NBNNIDCA@d?3?2wm653wehh?2platform?2mvv210?2src@ 00080430     libeay32:p12_key.obj
 0002:0001a480       ??_C@_0FC@NLMGEGGH@d?3?2wm653wehh?2platform?2mvv210?2src@ 00080480     libeay32:tb_cipher.obj
 0002:0001a518       x509_name_ff               00080518     libeay32:x_name.obj
 0002:0001a5b0       ??_C@_09KGNJKBNF@X509_NAME?$AA@ 000805b0     libeay32:x_name.obj
 0002:0001a5bc       ??_C@_0BD@FDNDONGH@X509_NAME_INTERNAL?$AA@ 000805bc     libeay32:x_name.obj
 0002:0001a5d0       ??_C@_04FABLJDN@Name?$AA@  000805d0     libeay32:x_name.obj
 0002:0001a5d8       ??_C@_0BC@GJMCELDI@X509_NAME_ENTRIES?$AA@ 000805d8     libeay32:x_name.obj
 0002:0001a5ec       ??_C@_04IEOKPFHO@RDNS?$AA@ 000805ec     libeay32:x_name.obj
 0002:0001a5f4       ??_C@_0BA@KEPIIMOE@X509_NAME_ENTRY?$AA@ 000805f4     libeay32:x_name.obj
 0002:0001a608       ??_C@_0EN@KBGECLLO@d?3?2wm653wehh?2platform?2mvv210?2src@ 00080608     libeay32:x_name.obj
 0002:0001a7d4       ??_C@_07DLHCIBDH@default?$AA@ 000807d4     libeay32:a_strnid.obj
 0002:0001a7e0       v3_alt                     000807e0     libeay32:v3_alt.obj
 0002:0001a888       ??_C@_0O@KAIENCPE@Registered?5ID?$AA@ 00080888     libeay32:v3_alt.obj
 0002:0001a898       ??_C@_09DPMBDOD@?$DMinvalid?$DO?$AA@ 00080898     libeay32:v3_alt.obj
 0002:0001a8a4       ??_C@_0L@NGHMMCPJ@IP?5Address?$AA@ 000808a4     libeay32:v3_alt.obj
 0002:0001a8b0       ??_C@_01JLIPDDHJ@?3?$AA@   000808b0     libeay32:v3_alt.obj
 0002:0001a8b4       ??_C@_02EMFKHFLK@?$CFX?$AA@ 000808b4     libeay32:v3_alt.obj
 0002:0001a8b8       ??_C@_07FDBCPIKC@DirName?$AA@ 000808b8     libeay32:v3_alt.obj
 0002:0001a8c0       ??_C@_03GMOLNBOB@URI?$AA@  000808c0     libeay32:v3_alt.obj
 0002:0001a8c4       ??_C@_03CBFPEBNE@DNS?$AA@  000808c4     libeay32:v3_alt.obj
 0002:0001a8c8       ??_C@_05HKHCDHCL@email?$AA@ 000808c8     libeay32:v3_alt.obj
 0002:0001a8d0       ??_C@_0N@EEELPIKD@EdiPartyName?$AA@ 000808d0     libeay32:v3_alt.obj
 0002:0001a8e0       ??_C@_08EBDOEGJI@X400Name?$AA@ 000808e0     libeay32:v3_alt.obj
 0002:0001a8ec       ??_C@_0O@NHCJKCDC@?$DMunsupported?$DO?$AA@ 000808ec     libeay32:v3_alt.obj
 0002:0001a8fc       ??_C@_09PAKBLAPA@othername?$AA@ 000808fc     libeay32:v3_alt.obj
 0002:0001a908       ??_C@_0BF@JMMIKJMP@IP?5Address?3?$DMinvalid?$DO?$AA@ 00080908     libeay32:v3_alt.obj
 0002:0001a920       ??_C@_03NMJGLHB@?3?$CFX?$AA@ 00080920     libeay32:v3_alt.obj
 0002:0001a924       ??_C@_0BH@OAMIHBGI@IP?5Address?3?$CFd?4?$CFd?4?$CFd?4?$CFd?$AA@ 00080924     libeay32:v3_alt.obj
 0002:0001a93c       ??_C@_09JDCPLDLD@DirName?3?5?$AA@ 0008093c     libeay32:v3_alt.obj
 0002:0001a948       ??_C@_06KCNJMDKO@URI?3?$CFs?$AA@ 00080948     libeay32:v3_alt.obj
 0002:0001a950       ??_C@_06DNDEBJBH@DNS?3?$CFs?$AA@ 00080950     libeay32:v3_alt.obj
 0002:0001a958       ??_C@_08LPBGKPKE@email?3?$CFs?$AA@ 00080958     libeay32:v3_alt.obj
 0002:0001a964       ??_C@_0BL@HEOLJEB@EdiPartyName?3?$DMunsupported?$DO?$AA@ 00080964     libeay32:v3_alt.obj
 0002:0001a980       ??_C@_0BH@HDOLFIDG@X400Name?3?$DMunsupported?$DO?$AA@ 00080980     libeay32:v3_alt.obj
 0002:0001a998       ??_C@_0BI@PGFKPDEJ@othername?3?$DMunsupported?$DO?$AA@ 00080998     libeay32:v3_alt.obj
 0002:0001a9b0       ??_C@_0EP@GIOEMKKC@d?3?2wm653wehh?2platform?2mvv210?2src@ 000809b0     libeay32:v3_alt.obj
 0002:0001aa00       ??_C@_08LNPIPPMM@section?$DN?$AA@ 00080a00     libeay32:v3_alt.obj
 0002:0001aa0c       ??_C@_09DBGAJPPE@otherName?$AA@ 00080a0c     libeay32:v3_alt.obj
 0002:0001aa18       ??_C@_07KKGEJKPE@dirName?$AA@ 00080a18     libeay32:v3_alt.obj
 0002:0001aa20       ??_C@_02MFEOMNPG@IP?$AA@   00080a20     libeay32:v3_alt.obj
 0002:0001aa24       ??_C@_03FEOBNLIE@RID?$AA@  00080a24     libeay32:v3_alt.obj
 0002:0001aa28       ??_C@_04COAGEIMF@copy?$AA@ 00080a28     libeay32:v3_alt.obj
 0002:0001aa30       ??_C@_04HDMMNHEL@move?$AA@ 00080a30     libeay32:v3_alt.obj
 0002:0001aa38       ??_C@_0EN@IDEDPOKO@d?3?2wm653wehh?2platform?2mvv210?2src@ 00080a38     libeay32:dso_lib.obj
 0002:0001aa88       CONF_version               00080a88     libeay32:conf_lib.obj
 0002:0001aab0       ??_C@_0EP@PNEKGEFM@d?3?2wm653wehh?2platform?2mvv210?2src@ 00080ab0     libeay32:conf_lib.obj
 0002:0001ab00       ??_C@_06NGDKEHGB@?5name?$DN?$AA@ 00080b00     libeay32:conf_lib.obj
 0002:0001ab08       ??_C@_06BDPCGOPM@group?$DN?$AA@ 00080b08     libeay32:conf_lib.obj
 0002:0001ab10       ??_C@_02JDPG@rb?$AA@       00080b10     libeay32:conf_lib.obj
 0002:0001ab78       ??_C@_0EP@ELMNNBNC@d?3?2wm653wehh?2platform?2mvv210?2src@ 00080b78     libeay32:x509_obj.obj
 0002:0001abc8       ??_C@_0N@MJCHLFGM@NO?5X509_NAME?$AA@ 00080bc8     libeay32:x509_obj.obj
 0002:0001ac34       ??_C@_0M@INJPOKDH@X509_PUBKEY?$AA@ 00080c34     libeay32:x_pubkey.obj
 0002:0001ac40       ??_C@_0L@PJCANJEE@public_key?$AA@ 00080c40     libeay32:x_pubkey.obj
 0002:0001ac50       ??_C@_0EP@OKMPOBJE@d?3?2wm653wehh?2platform?2mvv210?2src@ 00080c50     libeay32:x_pubkey.obj
 0002:0001ad64       v3_idp                     00080d64     libeay32:v3_crld.obj
 0002:0001ad9c       v3_freshest_crl            00080d9c     libeay32:v3_crld.obj
 0002:0001add4       v3_crld                    00080dd4     libeay32:v3_crld.obj
 0002:0001af38       ??_C@_0BD@ENBCPHJ@ISSUING_DIST_POINT?$AA@ 00080f38     libeay32:v3_crld.obj
 0002:0001af4c       ??_C@_08DBIINPPL@onlyattr?$AA@ 00080f4c     libeay32:v3_crld.obj
 0002:0001af58       ??_C@_0M@BECDICJC@indirectCRL?$AA@ 00080f58     libeay32:v3_crld.obj
 0002:0001af64       ??_C@_0BA@FNMBIJDN@onlysomereasons?$AA@ 00080f64     libeay32:v3_crld.obj
 0002:0001af74       ??_C@_06PMNIEKCA@onlyCA?$AA@ 00080f74     libeay32:v3_crld.obj
 0002:0001af7c       ??_C@_08CENLBPEH@onlyuser?$AA@ 00080f7c     libeay32:v3_crld.obj
 0002:0001af88       ??_C@_0BA@BBHAIMOE@CRL_DIST_POINTS?$AA@ 00080f88     libeay32:v3_crld.obj
 0002:0001af98       ??_C@_0BG@CHNNADAE@CRLDistributionPoints?$AA@ 00080f98     libeay32:v3_crld.obj
 0002:0001afb0       ??_C@_0L@ELIKPJIH@DIST_POINT?$AA@ 00080fb0     libeay32:v3_crld.obj
 0002:0001afbc       ??_C@_09GJHADLCP@CRLissuer?$AA@ 00080fbc     libeay32:v3_crld.obj
 0002:0001afc8       ??_C@_07PFOCLIJD@reasons?$AA@ 00080fc8     libeay32:v3_crld.obj
 0002:0001afd0       ??_C@_09FBDFGJDL@distpoint?$AA@ 00080fd0     libeay32:v3_crld.obj
 0002:0001afdc       ??_C@_0BA@MLHIPLLG@DIST_POINT_NAME?$AA@ 00080fdc     libeay32:v3_crld.obj
 0002:0001afec       ??_C@_0BC@JDMJBKME@name?4relativename?$AA@ 00080fec     libeay32:v3_crld.obj
 0002:0001b000       ??_C@_0O@HJHJCLAE@name?4fullname?$AA@ 00081000     libeay32:v3_crld.obj
 0002:0001b010       ??_C@_0N@LOIIODKP@AACompromise?$AA@ 00081010     libeay32:v3_crld.obj
 0002:0001b020       ??_C@_0O@PAGOKAK@AA?5Compromise?$AA@ 00081020     libeay32:v3_crld.obj
 0002:0001b030       ??_C@_0BD@PBLGJKCE@privilegeWithdrawn?$AA@ 00081030     libeay32:v3_crld.obj
 0002:0001b044       ??_C@_0BE@FJCCMGMM@Privilege?5Withdrawn?$AA@ 00081044     libeay32:v3_crld.obj
 0002:0001b058       ??_C@_0BA@FBHLCNLK@certificateHold?$AA@ 00081058     libeay32:v3_crld.obj
 0002:0001b068       ??_C@_0BB@IPDHDNJD@Certificate?5Hold?$AA@ 00081068     libeay32:v3_crld.obj
 0002:0001b07c       ??_C@_0BF@IGJCOPF@cessationOfOperation?$AA@ 0008107c     libeay32:v3_crld.obj
 0002:0001b094       ??_C@_0BH@OLCOAMGF@Cessation?5Of?5Operation?$AA@ 00081094     libeay32:v3_crld.obj
 0002:0001b0ac       ??_C@_0L@NHCKNIFL@superseded?$AA@ 000810ac     libeay32:v3_crld.obj
 0002:0001b0b8       ??_C@_0L@FBLGFHIM@Superseded?$AA@ 000810b8     libeay32:v3_crld.obj
 0002:0001b0c4       ??_C@_0BD@BNOFAJLL@affiliationChanged?$AA@ 000810c4     libeay32:v3_crld.obj
 0002:0001b0d8       ??_C@_0BE@EECEIFAP@Affiliation?5Changed?$AA@ 000810d8     libeay32:v3_crld.obj
 0002:0001b0ec       ??_C@_0N@NONEFGOE@CACompromise?$AA@ 000810ec     libeay32:v3_crld.obj
 0002:0001b0fc       ??_C@_0O@OOGICOKH@CA?5Compromise?$AA@ 000810fc     libeay32:v3_crld.obj
 0002:0001b10c       ??_C@_0O@MCEAAJLH@keyCompromise?$AA@ 0008110c     libeay32:v3_crld.obj
 0002:0001b11c       ??_C@_0P@JENDIECI@Key?5Compromise?$AA@ 0008111c     libeay32:v3_crld.obj
 0002:0001b12c       ??_C@_06OJAIHGIC@unused?$AA@ 0008112c     libeay32:v3_crld.obj
 0002:0001b134       ??_C@_06CGLFEPBO@Unused?$AA@ 00081134     libeay32:v3_crld.obj
 0002:0001b140       ??_C@_0FA@EFIBGCB@d?3?2wm653wehh?2platform?2mvv210?2src@ 00081140     libeay32:v3_crld.obj
 0002:0001b190       ??_C@_08DGFAABGD@?$DMEMPTY?$DO?6?$AA@ 00081190     libeay32:v3_crld.obj
 0002:0001b19c       ??_C@_02KEGNLNML@?0?5?$AA@ 0008119c     libeay32:v3_crld.obj
 0002:0001b1a0       ??_C@_0L@NHIBCNGO@?$CF?$CKs?$CFs?3?6?$CF?$CKs?$AA@ 000811a0     libeay32:v3_crld.obj
 0002:0001b1ac       ??_C@_03HIJPJGOM@?$CF?$CKs?$AA@ 000811ac     libeay32:v3_crld.obj
 0002:0001b1b0       ??_C@_0BG@GIOHENJJ@?$CF?$CKsRelative?5Name?3?6?$CF?$CKs?$AA@ 000811b0     libeay32:v3_crld.obj
 0002:0001b1c8       ??_C@_0P@DKAHDIGH@?$CF?$CKsFull?5Name?3?6?$AA@ 000811c8     libeay32:v3_crld.obj
 0002:0001b1d8       ??_C@_0M@FCFDJGIC@?$CF?$CKs?$DMEMPTY?$DO?6?$AA@ 000811d8     libeay32:v3_crld.obj
 0002:0001b1e4       ??_C@_0CA@IIIJNMJM@?$CF?$CKsOnly?5Attribute?5Certificates?6?$AA@ 000811e4     libeay32:v3_crld.obj
 0002:0001b204       ??_C@_0BC@JDEOGEEL@Only?5Some?5Reasons?$AA@ 00081204     libeay32:v3_crld.obj
 0002:0001b218       ??_C@_0BB@FLBIDOKD@?$CF?$CKsIndirect?5CRL?6?$AA@ 00081218     libeay32:v3_crld.obj
 0002:0001b22c       ??_C@_0BJ@GKBBKMLO@?$CF?$CKsOnly?5CA?5Certificates?6?$AA@ 0008122c     libeay32:v3_crld.obj
 0002:0001b248       ??_C@_0BL@FLJCHEKF@?$CF?$CKsOnly?5User?5Certificates?6?$AA@ 00081248     libeay32:v3_crld.obj
 0002:0001b264       ??_C@_0BA@NBJIBLNE@?$CF?$CKsCRL?5Issuer?3?6?$AA@ 00081264     libeay32:v3_crld.obj
 0002:0001b274       ??_C@_07MJENKMF@Reasons?$AA@ 00081274     libeay32:v3_crld.obj
 0002:0001b27c       ??_C@_0N@LGEOMMHB@relativename?$AA@ 0008127c     libeay32:v3_crld.obj
 0002:0001b28c       ??_C@_08BMACPLOA@fullname?$AA@ 0008128c     libeay32:v3_crld.obj
 0002:0001b298       ??_C@_06PPFMJOEO@onlyAA?$AA@ 00081298     libeay32:v3_crld.obj
 0002:0001b2a0       v3_inhibit_anyp            000812a0     libeay32:v3_int.obj
 0002:0001b2d8       v3_delta_crl               000812d8     libeay32:v3_int.obj
 0002:0001b310       v3_crl_num                 00081310     libeay32:v3_int.obj
 0002:0001b3bc       v3_policy_mappings         000813bc     libeay32:v3_pmaps.obj
 0002:0001b3f4       ??_C@_0BA@DHPBCFFC@POLICY_MAPPINGS?$AA@ 000813f4     libeay32:v3_pmaps.obj
 0002:0001b404       ??_C@_0P@NLHMKCKF@POLICY_MAPPING?$AA@ 00081404     libeay32:v3_pmaps.obj
 0002:0001b414       ??_C@_0BE@FFIKMOKF@subjectDomainPolicy?$AA@ 00081414     libeay32:v3_pmaps.obj
 0002:0001b428       ??_C@_0BD@JILOPHFL@issuerDomainPolicy?$AA@ 00081428     libeay32:v3_pmaps.obj
 0002:0001b440       ??_C@_0FB@JMEEBLD@d?3?2wm653wehh?2platform?2mvv210?2src@ 00081440     libeay32:v3_pmaps.obj
 0002:0001b4f4       v3_name_constraints        000814f4     libeay32:v3_ncons.obj
 0002:0001b568       ??_C@_0BB@MLLJAFMN@NAME_CONSTRAINTS?$AA@ 00081568     libeay32:v3_ncons.obj
 0002:0001b57c       ??_C@_0BB@HLFEMJKE@excludedSubtrees?$AA@ 0008157c     libeay32:v3_ncons.obj
 0002:0001b590       ??_C@_0BC@FACFJLFB@permittedSubtrees?$AA@ 00081590     libeay32:v3_ncons.obj
 0002:0001b5a4       ??_C@_0BA@ECMIFHDE@GENERAL_SUBTREE?$AA@ 000815a4     libeay32:v3_ncons.obj
 0002:0001b5b4       ??_C@_07MEIENILC@maximum?$AA@ 000815b4     libeay32:v3_ncons.obj
 0002:0001b5bc       ??_C@_07CCOEHHFD@minimum?$AA@ 000815bc     libeay32:v3_ncons.obj
 0002:0001b5c4       ??_C@_04BHIIPFEC@base?$AA@ 000815c4     libeay32:v3_ncons.obj
 0002:0001b5d0       ??_C@_0FB@NFBAFBGE@d?3?2wm653wehh?2platform?2mvv210?2src@ 000815d0     libeay32:v3_ncons.obj
 0002:0001b624       ??_C@_08HPCEJEEF@excluded?$AA@ 00081624     libeay32:v3_ncons.obj
 0002:0001b630       ??_C@_09HAKFOFAM@permitted?$AA@ 00081630     libeay32:v3_ncons.obj
 0002:0001b63c       ??_C@_0BI@IFNIGPEJ@?$CFd?4?$CFd?4?$CFd?4?$CFd?1?$CFd?4?$CFd?4?$CFd?4?$CFd?$AA@ 0008163c     libeay32:v3_ncons.obj
 0002:0001b654       ??_C@_03HBLCMHJN@IP?3?$AA@ 00081654     libeay32:v3_ncons.obj
 0002:0001b658       ??_C@_07GOIIHCND@?$CF?$CKs?$CFs?3?6?$AA@ 00081658     libeay32:v3_ncons.obj
 0002:0001b660       ??_C@_09DPPIOGNM@Permitted?$AA@ 00081660     libeay32:v3_ncons.obj
 0002:0001b66c       ??_C@_08PNNFBGOG@Excluded?$AA@ 0008166c     libeay32:v3_ncons.obj
 0002:0001b678       v3_pci                     00081678     libeay32:v3_pci.obj
 0002:0001b6b0       ??_C@_0BE@HDJEDONA@?$CF?$CKsPolicy?5Text?3?5?$CFs?6?$AA@ 000816b0     libeay32:v3_pci.obj
 0002:0001b6c4       ??_C@_0BF@CGHJNACM@?$CF?$CKsPolicy?5Language?3?5?$AA@ 000816c4     libeay32:v3_pci.obj
 0002:0001b6dc       ??_C@_08MAJEGHKB@infinite?$AA@ 000816dc     libeay32:v3_pci.obj
 0002:0001b6e8       ??_C@_0BM@BMCPHDD@?$CF?$CKsPath?5Length?5Constraint?3?5?$AA@ 000816e8     libeay32:v3_pci.obj
 0002:0001b704       ??_C@_05FHIGHPDA@text?3?$AA@ 00081704     libeay32:v3_pci.obj
 0002:0001b70c       ??_C@_05BOPHDICO@file?3?$AA@ 0008170c     libeay32:v3_pci.obj
 0002:0001b714       ??_C@_04ODCMNEMO@hex?3?$AA@ 00081714     libeay32:v3_pci.obj
 0002:0001b71c       ??_C@_06NJNJNICG@policy?$AA@ 0008171c     libeay32:v3_pci.obj
 0002:0001b724       ??_C@_07OGCPICFF@pathlen?$AA@ 00081724     libeay32:v3_pci.obj
 0002:0001b730       ??_C@_0EP@IAENADAP@d?3?2wm653wehh?2platform?2mvv210?2src@ 00081730     libeay32:v3_pci.obj
 0002:0001b780       ??_C@_08JGCCIMAA@language?$AA@ 00081780     libeay32:v3_pci.obj
 0002:0001b78c       v3_ocsp_serviceloc         0008178c     libeay32:v3_ocsp.obj
 0002:0001b7c4       v3_ocsp_nocheck            000817c4     libeay32:v3_ocsp.obj
 0002:0001b7fc       v3_ocsp_nonce              000817fc     libeay32:v3_ocsp.obj
 0002:0001b834       v3_crl_hold                00081834     libeay32:v3_ocsp.obj
 0002:0001b86c       v3_crl_invdate             0008186c     libeay32:v3_ocsp.obj
 0002:0001b8a4       v3_ocsp_acutoff            000818a4     libeay32:v3_ocsp.obj
 0002:0001b8dc       v3_ocsp_crlid              000818dc     libeay32:v3_ocsp.obj
 0002:0001b914       ??_C@_0N@IBJOMEDL@?$CF?$CKscrlTime?3?5?$AA@ 00081914     libeay32:v3_ocsp.obj
 0002:0001b924       ??_C@_0M@MLCMBODE@?$CF?$CKscrlNum?3?5?$AA@ 00081924     libeay32:v3_ocsp.obj
 0002:0001b930       ??_C@_0M@KIKBFHBJ@?$CF?$CKscrlUrl?3?5?$AA@ 00081930     libeay32:v3_ocsp.obj
 0002:0001b940       ??_C@_0FA@DGLJGNPA@d?3?2wm653wehh?2platform?2mvv210?2src@ 00081940     libeay32:v3_ocsp.obj
 0002:0001b990       ??_C@_04NFEJKGEM@?6?$CF?$CKs?$AA@ 00081990     libeay32:v3_ocsp.obj
 0002:0001b998       ??_C@_0M@IHOINNJF@?$CF?$CKsIssuer?3?5?$AA@ 00081998     libeay32:v3_ocsp.obj
 0002:0001b9e8       v3_policy_constraints      000819e8     libeay32:v3_pcons.obj
 0002:0001ba20       ??_C@_0BD@MMPNIEIJ@POLICY_CONSTRAINTS?$AA@ 00081a20     libeay32:v3_pcons.obj
 0002:0001ba34       ??_C@_0BF@MOMLJGAL@inhibitPolicyMapping?$AA@ 00081a34     libeay32:v3_pcons.obj
 0002:0001ba4c       ??_C@_0BG@HGJBEKFE@requireExplicitPolicy?$AA@ 00081a4c     libeay32:v3_pcons.obj
 0002:0001ba64       ??_C@_0BI@HNCHDEDI@Require?5Explicit?5Policy?$AA@ 00081a64     libeay32:v3_pcons.obj
 0002:0001ba7c       ??_C@_0BH@HMKHOMED@Inhibit?5Policy?5Mapping?$AA@ 00081a7c     libeay32:v3_pcons.obj
 0002:0001ba98       ??_C@_0FB@LMCBHCHN@d?3?2wm653wehh?2platform?2mvv210?2src@ 00081a98     libeay32:v3_pcons.obj
 0002:0001bb1c       v3_ocsp_accresp            00081b1c     libeay32:v3_extku.obj
 0002:0001bb54       v3_ext_ku                  00081b54     libeay32:v3_extku.obj
 0002:0001bb8c       ??_C@_0BD@CKAGEBEF@EXTENDED_KEY_USAGE?$AA@ 00081b8c     libeay32:v3_extku.obj
 0002:0001bba0       ??_C@_0FB@GJDJKHPC@d?3?2wm653wehh?2platform?2mvv210?2src@ 00081ba0     libeay32:v3_extku.obj
 0002:0001bc7c       v3_sxnet                   00081c7c     libeay32:v3_sxnet.obj
 0002:0001bcb4       ??_C@_05BPAJFIHK@SXNET?$AA@ 00081cb4     libeay32:v3_sxnet.obj
 0002:0001bcbc       ??_C@_03NDFJNBKD@ids?$AA@  00081cbc     libeay32:v3_sxnet.obj
 0002:0001bcc0       ??_C@_07FLDOGLPN@SXNETID?$AA@ 00081cc0     libeay32:v3_sxnet.obj
 0002:0001bcc8       ??_C@_04CCHAHKJA@user?$AA@ 00081cc8     libeay32:v3_sxnet.obj
 0002:0001bcd0       ??_C@_04LDDJGOBB@zone?$AA@ 00081cd0     libeay32:v3_sxnet.obj
 0002:0001bcd8       ??_C@_0BF@NMLBNADB@?6?$CF?$CKsZone?3?5?$CFs?0?5User?3?5?$AA@ 00081cd8     libeay32:v3_sxnet.obj
 0002:0001bcf0       ??_C@_0BI@GOEPAKBG@?$CF?$CKsVersion?3?5?$CFld?5?$CI0x?$CFlX?$CJ?$AA@ 00081cf0     libeay32:v3_sxnet.obj
 0002:0001bd08       ??_C@_0FB@HGCMGHKH@d?3?2wm653wehh?2platform?2mvv210?2src@ 00081d08     libeay32:v3_sxnet.obj
 0002:0001bd5c       v3_crl_reason              00081d5c     libeay32:v3_enum.obj
 0002:0001bd94       ??_C@_0O@BILLKPKO@removeFromCRL?$AA@ 00081d94     libeay32:v3_enum.obj
 0002:0001bda4       ??_C@_0BA@GLPEKBIK@Remove?5From?5CRL?$AA@ 00081da4     libeay32:v3_enum.obj
 0002:0001bdb4       ??_C@_0M@MFMDLEDN@unspecified?$AA@ 00081db4     libeay32:v3_enum.obj
 0002:0001bdc0       ??_C@_0M@NNPCGPMF@Unspecified?$AA@ 00081dc0     libeay32:v3_enum.obj
 0002:0001bdcc       v3_akey_id                 00081dcc     libeay32:v3_akey.obj
 0002:0001be04       ??_C@_06KCELPKEE@serial?$AA@ 00081e04     libeay32:v3_akey.obj
 0002:0001be0c       ??_C@_05CNHMOIOC@keyid?$AA@ 00081e0c     libeay32:v3_akey.obj
 0002:0001be18       ??_C@_0FA@BIHNLJGI@d?3?2wm653wehh?2platform?2mvv210?2src@ 00081e18     libeay32:v3_akey.obj
 0002:0001be68       ??_C@_06KHDOHNKC@always?$AA@ 00081e68     libeay32:v3_akey.obj
 0002:0001c010       v3_cpols                   00082010     libeay32:v3_cpols.obj
 0002:0001c048       ??_C@_09DFHLGOKA@NOTICEREF?$AA@ 00082048     libeay32:v3_cpols.obj
 0002:0001c054       ??_C@_09CFGHNILC@noticenos?$AA@ 00082054     libeay32:v3_cpols.obj
 0002:0001c060       ??_C@_0N@HEIPMDAG@organization?$AA@ 00082060     libeay32:v3_cpols.obj
 0002:0001c070       ??_C@_0L@HCNDPADF@USERNOTICE?$AA@ 00082070     libeay32:v3_cpols.obj
 0002:0001c07c       ??_C@_07MHGINJOA@exptext?$AA@ 0008207c     libeay32:v3_cpols.obj
 0002:0001c084       ??_C@_09FIKFDFH@noticeref?$AA@ 00082084     libeay32:v3_cpols.obj
 0002:0001c090       ??_C@_0P@POBJIHLD@POLICYQUALINFO?$AA@ 00082090     libeay32:v3_cpols.obj
 0002:0001c0a0       ??_C@_07LEEILOKB@pqualid?$AA@ 000820a0     libeay32:v3_cpols.obj
 0002:0001c0a8       ??_C@_0N@JPAHANFF@d?4usernotice?$AA@ 000820a8     libeay32:v3_cpols.obj
 0002:0001c0b8       ??_C@_08EECALGEF@d?4cpsuri?$AA@ 000820b8     libeay32:v3_cpols.obj
 0002:0001c0c4       ??_C@_0L@POLPGHJK@POLICYINFO?$AA@ 000820c4     libeay32:v3_cpols.obj
 0002:0001c0d0       ??_C@_0L@HMNGMMJI@qualifiers?$AA@ 000820d0     libeay32:v3_cpols.obj
 0002:0001c0dc       ??_C@_08NEBFOBH@policyid?$AA@ 000820dc     libeay32:v3_cpols.obj
 0002:0001c0e8       ??_C@_0BE@GJBJOOCP@CERTIFICATEPOLICIES?$AA@ 000820e8     libeay32:v3_cpols.obj
 0002:0001c100       ??_C@_0FB@GCODJBIG@d?3?2wm653wehh?2platform?2mvv210?2src@ 00082100     libeay32:v3_cpols.obj
 0002:0001c154       ??_C@_0BG@IHHCDAMH@?$CF?$CKsExplicit?5Text?3?5?$CFs?6?$AA@ 00082154     libeay32:v3_cpols.obj
 0002:0001c16c       ??_C@_0O@EFHNHHDA@?$CF?$CKsNumber?$CFs?3?5?$AA@ 0008216c     libeay32:v3_cpols.obj
 0002:0001c17c       ??_C@_0BF@OCNFPJOG@?$CF?$CKsOrganization?3?5?$CFs?6?$AA@ 0008217c     libeay32:v3_cpols.obj
 0002:0001c194       ??_C@_0O@OKDALMJE@noticeNumbers?$AA@ 00082194     libeay32:v3_cpols.obj
 0002:0001c1a4       ??_C@_0N@EALKMFB@explicitText?$AA@ 000821a4     libeay32:v3_cpols.obj
 0002:0001c1b4       ??_C@_0M@ICGFCJNO@?$CF?$CKsCPS?3?5?$CFs?6?$AA@ 000821b4     libeay32:v3_cpols.obj
 0002:0001c1c0       ??_C@_0BB@MMPKKFLI@?$CF?$CKsUser?5Notice?3?6?$AA@ 000821c0     libeay32:v3_cpols.obj
 0002:0001c1d4       ??_C@_0BH@CHOAEJEJ@?$CF?$CKsUnknown?5Qualifier?3?5?$AA@ 000821d4     libeay32:v3_cpols.obj
 0002:0001c1ec       ??_C@_0M@BBFMFBLN@?$CF?$CKsPolicy?3?5?$AA@ 000821ec     libeay32:v3_cpols.obj
 0002:0001c1f8       ??_C@_0L@LADHLIJ@userNotice?$AA@ 000821f8     libeay32:v3_cpols.obj
 0002:0001c204       ??_C@_03KKDAPHBH@CPS?$AA@  00082204     libeay32:v3_cpols.obj
 0002:0001c208       ??_C@_0BB@FIJMMMGE@policyIdentifier?$AA@ 00082208     libeay32:v3_cpols.obj
 0002:0001c21c       ??_C@_06MIFIGELF@ia5org?$AA@ 0008221c     libeay32:v3_cpols.obj
 0002:0001c268       v3_bcons                   00082268     libeay32:v3_bcons.obj
 0002:0001c2a0       ??_C@_0BC@PKPCGCD@BASIC_CONSTRAINTS?$AA@ 000822a0     libeay32:v3_bcons.obj
 0002:0001c2b4       ??_C@_02DGMJAJHC@ca?$AA@   000822b4     libeay32:v3_bcons.obj
 0002:0001c2b8       ??_C@_02JLAAGLDA@CA?$AA@   000822b8     libeay32:v3_bcons.obj
 0002:0001c2c0       ??_C@_0FB@ICLPEECL@d?3?2wm653wehh?2platform?2mvv210?2src@ 000822c0     libeay32:v3_bcons.obj
 0002:0001c358       v3_pkey_usage_period       00082358     libeay32:v3_pku.obj
 0002:0001c390       ??_C@_0BC@CCOKACDM@PKEY_USAGE_PERIOD?$AA@ 00082390     libeay32:v3_pku.obj
 0002:0001c3a4       ??_C@_08PJIFIJBI@notAfter?$AA@ 000823a4     libeay32:v3_pku.obj
 0002:0001c3b0       ??_C@_09MJPOMOII@notBefore?$AA@ 000823b0     libeay32:v3_pku.obj
 0002:0001c3bc       ??_C@_0M@FCHJLIHE@Not?5After?3?5?$AA@ 000823bc     libeay32:v3_pku.obj
 0002:0001c3c8       ??_C@_0N@KGLJEEMK@Not?5Before?3?5?$AA@ 000823c8     libeay32:v3_pku.obj
 0002:0001c3d8       v3_key_usage               000823d8     libeay32:v3_bitst.obj
 0002:0001c410       v3_nscert                  00082410     libeay32:v3_bitst.obj
 0002:0001c448       ??_C@_0N@LIFHMFCO@decipherOnly?$AA@ 00082448     libeay32:v3_bitst.obj
 0002:0001c458       ??_C@_0O@FKBAPCEG@Decipher?5Only?$AA@ 00082458     libeay32:v3_bitst.obj
 0002:0001c468       ??_C@_0N@BEFDLIKF@encipherOnly?$AA@ 00082468     libeay32:v3_bitst.obj
 0002:0001c478       ??_C@_0O@CANGKMJD@Encipher?5Only?$AA@ 00082478     libeay32:v3_bitst.obj
 0002:0001c488       ??_C@_07IHBCCDFJ@cRLSign?$AA@ 00082488     libeay32:v3_bitst.obj
 0002:0001c490       ??_C@_08OCJGKMAN@CRL?5Sign?$AA@ 00082490     libeay32:v3_bitst.obj
 0002:0001c49c       ??_C@_0M@ONBOOMGI@keyCertSign?$AA@ 0008249c     libeay32:v3_bitst.obj
 0002:0001c4a8       ??_C@_0BB@ELNGMDLH@Certificate?5Sign?$AA@ 000824a8     libeay32:v3_bitst.obj
 0002:0001c4bc       ??_C@_0N@GONHKOEO@keyAgreement?$AA@ 000824bc     libeay32:v3_bitst.obj
 0002:0001c4cc       ??_C@_0O@EOJOBCHL@Key?5Agreement?$AA@ 000824cc     libeay32:v3_bitst.obj
 0002:0001c4dc       ??_C@_0BB@LBKKKIGO@dataEncipherment?$AA@ 000824dc     libeay32:v3_bitst.obj
 0002:0001c4f0       ??_C@_0BC@GNPIAJLP@Data?5Encipherment?$AA@ 000824f0     libeay32:v3_bitst.obj
 0002:0001c504       ??_C@_0BA@MINCLOJG@keyEncipherment?$AA@ 00082504     libeay32:v3_bitst.obj
 0002:0001c514       ??_C@_0BB@KNACIBEN@Key?5Encipherment?$AA@ 00082514     libeay32:v3_bitst.obj
 0002:0001c528       ??_C@_0P@GPCNPOGO@nonRepudiation?$AA@ 00082528     libeay32:v3_bitst.obj
 0002:0001c538       ??_C@_0BA@DJCGBBAI@Non?5Repudiation?$AA@ 00082538     libeay32:v3_bitst.obj
 0002:0001c548       ??_C@_0BB@MFKHIIOM@digitalSignature?$AA@ 00082548     libeay32:v3_bitst.obj
 0002:0001c55c       ??_C@_0BC@DPKEIPIO@Digital?5Signature?$AA@ 0008255c     libeay32:v3_bitst.obj
 0002:0001c570       ??_C@_05JLEIJNEE@objCA?$AA@ 00082570     libeay32:v3_bitst.obj
 0002:0001c578       ??_C@_0BC@FAMHGMHB@Object?5Signing?5CA?$AA@ 00082578     libeay32:v3_bitst.obj
 0002:0001c58c       ??_C@_07FFHDGPMJ@emailCA?$AA@ 0008258c     libeay32:v3_bitst.obj
 0002:0001c594       ??_C@_09GIEMCMEO@S?1MIME?5CA?$AA@ 00082594     libeay32:v3_bitst.obj
 0002:0001c5a0       ??_C@_05JHLHLOEK@sslCA?$AA@ 000825a0     libeay32:v3_bitst.obj
 0002:0001c5a8       ??_C@_06FMDLPOFJ@SSL?5CA?$AA@ 000825a8     libeay32:v3_bitst.obj
 0002:0001c5b0       ??_C@_08FINKBBAF@reserved?$AA@ 000825b0     libeay32:v3_bitst.obj
 0002:0001c5bc       ??_C@_07GIOKFKGL@objsign?$AA@ 000825bc     libeay32:v3_bitst.obj
 0002:0001c5c4       ??_C@_0P@DDHLFHHK@Object?5Signing?$AA@ 000825c4     libeay32:v3_bitst.obj
 0002:0001c5d4       ??_C@_06HJHJCKIO@server?$AA@ 000825d4     libeay32:v3_bitst.obj
 0002:0001c5dc       ??_C@_0L@DCIAGJKL@SSL?5Server?$AA@ 000825dc     libeay32:v3_bitst.obj
 0002:0001c5e8       ??_C@_06DGDLPBAN@client?$AA@ 000825e8     libeay32:v3_bitst.obj
 0002:0001c5f0       ??_C@_0L@HNMCLCCI@SSL?5Client?$AA@ 000825f0     libeay32:v3_bitst.obj
 0002:0001c600       ??_C@_0FB@EKHJICLH@d?3?2wm653wehh?2platform?2mvv210?2src@ 00082600     libeay32:v3_bitst.obj
 0002:0001c654       v3_skey_id                 00082654     libeay32:v3_skey.obj
 0002:0001c690       ??_C@_0FA@OIDMDEIP@d?3?2wm653wehh?2platform?2mvv210?2src@ 00082690     libeay32:v3_skey.obj
 0002:0001c6e0       ??_C@_04OIJGJDKO@hash?$AA@ 000826e0     libeay32:v3_skey.obj
 0002:0001c6e8       v3_ns_ia5_list             000826e8     libeay32:v3_ia5.obj
 0002:0001c8a8       ??_C@_0EP@FPIPLDCG@d?3?2wm653wehh?2platform?2mvv210?2src@ 000828a8     libeay32:v3_ia5.obj
 0002:0001c8f8       ??_C@_0FA@GLNJJMIP@d?3?2wm653wehh?2platform?2mvv210?2src@ 000828f8     libeay32:v3_conf.obj
 0002:0001ca40       ??_C@_08JIPBBKBM@X509_REQ?$AA@ 00082a40     libeay32:x_req.obj
 0002:0001ca4c       ??_C@_07OBHFIHGJ@sig_alg?$AA@ 00082a4c     libeay32:x_req.obj
 0002:0001ca54       ??_C@_08JILJKJG@req_info?$AA@ 00082a54     libeay32:x_req.obj
 0002:0001ca60       ??_C@_0O@EHCMNJCB@X509_REQ_INFO?$AA@ 00082a60     libeay32:x_req.obj
 0002:0001ca70       ??_C@_0L@HNMJPKNA@attributes?$AA@ 00082a70     libeay32:x_req.obj
 0002:0001ca7c       ??_C@_06GKCAPDID@pubkey?$AA@ 00082a7c     libeay32:x_req.obj
 0002:0001ca84       ??_C@_07JNNGEGGO@subject?$AA@ 00082a84     libeay32:x_req.obj
 0002:0001ca90       ??_C@_0EP@COKBPCCM@d?3?2wm653wehh?2platform?2mvv210?2src@ 00082a90     libeay32:x509_att.obj
 0002:0001cae0       ??_C@_0BE@LILBBPKE@OpenSSL?5ECDH?5method?$AA@ 00082ae0     libeay32:ech_ossl.obj
 0002:0001caf8       ??_C@_0EP@EIICIEGK@d?3?2wm653wehh?2platform?2mvv210?2src@ 00082af8     libeay32:ech_ossl.obj
 0002:0001cbf0       ??_C@_0EN@LKHNEOCI@d?3?2wm653wehh?2platform?2mvv210?2src@ 00082bf0     libeay32:ecp_mont.obj
 0002:0001cce0       ??_C@_0EN@MFLMOEJL@d?3?2wm653wehh?2platform?2mvv210?2src@ 00082ce0     libeay32:ecp_nist.obj
 0002:0001cdd0       ??_C@_0EN@HKENHFKC@d?3?2wm653wehh?2platform?2mvv210?2src@ 00082dd0     libeay32:ec2_smpl.obj
 0002:0001ce20       ??_C@_0EM@LBEFNFCH@d?3?2wm653wehh?2platform?2mvv210?2src@ 00082e20     libeay32:bn_exp2.obj
 0002:0001cffc       ??_C@_08JGFBPDAP@X509_CRL?$AA@ 00082ffc     libeay32:x_crl.obj
 0002:0001d008       ??_C@_03GJBFOAJL@crl?$AA@  00083008     libeay32:x_crl.obj
 0002:0001d00c       ??_C@_0O@IMOAEKCP@X509_CRL_INFO?$AA@ 0008300c     libeay32:x_crl.obj
 0002:0001d01c       ??_C@_07MIJFAMBD@revoked?$AA@ 0008301c     libeay32:x_crl.obj
 0002:0001d024       ??_C@_0L@BMOABHOK@nextUpdate?$AA@ 00083024     libeay32:x_crl.obj
 0002:0001d030       ??_C@_0L@MPDCJAIM@lastUpdate?$AA@ 00083030     libeay32:x_crl.obj
 0002:0001d03c       ??_C@_0N@JBPKOADN@X509_REVOKED?$AA@ 0008303c     libeay32:x_crl.obj
 0002:0001d04c       ??_C@_0L@ICCCPLKC@extensions?$AA@ 0008304c     libeay32:x_crl.obj
 0002:0001d058       ??_C@_0P@HBDMPDNI@revocationDate?$AA@ 00083058     libeay32:x_crl.obj
 0002:0001d068       ??_C@_0EM@HLHJDKMD@d?3?2wm653wehh?2platform?2mvv210?2src@ 00083068     libeay32:x_crl.obj
 0002:0001d228       ??_C@_09NKDPGBBA@cert_info?$AA@ 00083228     libeay32:x_x509.obj
 0002:0001d234       ??_C@_09LCJGKABB@X509_CINF?$AA@ 00083234     libeay32:x_x509.obj
 0002:0001d240       ??_C@_0L@JMFHLKAL@subjectUID?$AA@ 00083240     libeay32:x_x509.obj
 0002:0001d24c       ??_C@_09KIIAMAEE@issuerUID?$AA@ 0008324c     libeay32:x_x509.obj
 0002:0001d258       ??_C@_08GCHKOCBP@validity?$AA@ 00083258     libeay32:x_x509.obj
 0002:0001d268       ??_C@_0EM@EIEBKGJ@d?3?2wm653wehh?2platform?2mvv210?2src@ 00083268     libeay32:cms_io.obj
 0002:0001d2b4       ??_C@_08POLPFBMC@SEQUENCE?$AA@ 000832b4     libeay32:tasn_prn.obj
 0002:0001d2c0       ??_C@_03KPIFFHNE@SET?$AA@  000832c0     libeay32:tasn_prn.obj
 0002:0001d2c4       ??_C@_0P@ONGHGJEC@message?5digest?$AA@ 000832c4     libeay32:bio_md.obj
 0002:0001d2d4       ??_C@_0O@DIEIKEFB@memory?5buffer?$AA@ 000832d4     libeay32:bss_mem.obj
 0002:0001d2e8       ??_C@_0EN@IFBMAPDF@d?3?2wm653wehh?2platform?2mvv210?2src@ 000832e8     libeay32:bss_mem.obj
 0002:0001d338       ??_C@_0EM@CLBFFJNJ@d?3?2wm653wehh?2platform?2mvv210?2src@ 00083338     libeay32:cms_dd.obj
 0002:0001d388       ??_C@_0EN@GEIMIMFD@d?3?2wm653wehh?2platform?2mvv210?2src@ 00083388     libeay32:bio_enc.obj
 0002:0001d3f4       ??_C@_09DHMKJJNA@ASN1_TIME?$AA@ 000833f4     libeay32:a_time.obj
 0002:0001d400       ??_C@_0EN@IOPKJOHJ@d?3?2wm653wehh?2platform?2mvv210?2src@ 00083400     libeay32:a_time.obj
 0002:0001d450       X509_version               00083450     libeay32:x509_vfy.obj
 0002:0001d480       ??_C@_0EO@ENFGJDHG@d?3?2wm653wehh?2platform?2mvv210?2src@ 00083480     libeay32:m_sigver.obj
 0002:0001d4d0       ??_C@_0EM@MHADPNEH@d?3?2wm653wehh?2platform?2mvv210?2src@ 000834d0     libeay32:p_sign.obj
 0002:0001d5a4       ??_C@_0BK@PILNOGHK@PROXY_CERT_INFO_EXTENSION?$AA@ 000835a4     libeay32:v3_pcia.obj
 0002:0001d5c0       ??_C@_0M@KKFBCGOG@proxyPolicy?$AA@ 000835c0     libeay32:v3_pcia.obj
 0002:0001d5cc       ??_C@_0BH@JBGKCLHC@pcPathLengthConstraint?$AA@ 000835cc     libeay32:v3_pcia.obj
 0002:0001d5e4       ??_C@_0N@CLKEFBDI@PROXY_POLICY?$AA@ 000835e4     libeay32:v3_pcia.obj
 0002:0001d5f4       ??_C@_0P@BLMEJDMO@policyLanguage?$AA@ 000835f4     libeay32:v3_pcia.obj
 0002:0001f730       ??_C@_0EP@ECCLNLMM@d?3?2wm653wehh?2platform?2mvv210?2src@ 00085730     libeay32:asn_pack.obj
 0002:0001f780       ??_C@_0EN@BMFEIIDL@d?3?2wm653wehh?2platform?2mvv210?2src@ 00085780     libeay32:rsa_pk1.obj
 0002:0001f7d0       ??_C@_0EN@PDDHPBKJ@d?3?2wm653wehh?2platform?2mvv210?2src@ 000857d0     libeay32:rsa_ssl.obj
 0002:0001f820       ??_C@_0EO@NNKDLJPI@d?3?2wm653wehh?2platform?2mvv210?2src@ 00085820     libeay32:rsa_none.obj
 0002:0001fbf0       ??_C@_0O@DFJMHGOP@EC_PRIVATEKEY?$AA@ 00085bf0     libeay32:ec_asn1.obj
 0002:0001fc00       ??_C@_0L@HHPOFMCB@parameters?$AA@ 00085c00     libeay32:ec_asn1.obj
 0002:0001fc0c       ??_C@_0L@BCENACFO@privateKey?$AA@ 00085c0c     libeay32:ec_asn1.obj
 0002:0001fc18       ??_C@_0P@PBBIGPFJ@ECPKPARAMETERS?$AA@ 00085c18     libeay32:ec_asn1.obj
 0002:0001fc28       ??_C@_0BD@HOIIAPI@value?4implicitlyCA?$AA@ 00085c28     libeay32:ec_asn1.obj
 0002:0001fc3c       ??_C@_0BB@KOECJJJ@value?4parameters?$AA@ 00085c3c     libeay32:ec_asn1.obj
 0002:0001fc50       ??_C@_0BC@JEJHGDNN@value?4named_curve?$AA@ 00085c50     libeay32:ec_asn1.obj
 0002:0001fc64       ??_C@_0N@ECDPFONH@ECPARAMETERS?$AA@ 00085c64     libeay32:ec_asn1.obj
 0002:0001fc74       ??_C@_08DKFAOMDI@cofactor?$AA@ 00085c74     libeay32:ec_asn1.obj
 0002:0001fc80       ??_C@_05NDNMCCJH@order?$AA@ 00085c80     libeay32:ec_asn1.obj
 0002:0001fc88       ??_C@_05HIKPKPAA@curve?$AA@ 00085c88     libeay32:ec_asn1.obj
 0002:0001fc90       ??_C@_07MJJGNICD@fieldID?$AA@ 00085c90     libeay32:ec_asn1.obj
 0002:0001fc98       ??_C@_0M@BHDPNPCK@X9_62_CURVE?$AA@ 00085c98     libeay32:ec_asn1.obj
 0002:0001fca4       ??_C@_04MENKDCKE@seed?$AA@ 00085ca4     libeay32:ec_asn1.obj
 0002:0001fcac       ??_C@_0O@PGPIAKKH@X9_62_FIELDID?$AA@ 00085cac     libeay32:ec_asn1.obj
 0002:0001fcbc       ??_C@_09OAOLGAOM@fieldType?$AA@ 00085cbc     libeay32:ec_asn1.obj
 0002:0001fcc8       ??_C@_0L@NLMAKEBL@p?4char_two?$AA@ 00085cc8     libeay32:ec_asn1.obj
 0002:0001fcd4       ??_C@_07DPJEDCLB@p?4prime?$AA@ 00085cd4     libeay32:ec_asn1.obj
 0002:0001fcdc       ??_C@_0BJ@CCODLOLO@X9_62_CHARACTERISTIC_TWO?$AA@ 00085cdc     libeay32:ec_asn1.obj
 0002:0001fcf8       ??_C@_04GPMDFGEJ@type?$AA@ 00085cf8     libeay32:ec_asn1.obj
 0002:0001fd00       ??_C@_01GOHFPIOK@m?$AA@    00085d00     libeay32:ec_asn1.obj
 0002:0001fd04       ??_C@_09DMGLCKOJ@p?4ppBasis?$AA@ 00085d04     libeay32:ec_asn1.obj
 0002:0001fd10       ??_C@_09LICBCEBD@p?4tpBasis?$AA@ 00085d10     libeay32:ec_asn1.obj
 0002:0001fd1c       ??_C@_09KOBBOOPN@p?4onBasis?$AA@ 00085d1c     libeay32:ec_asn1.obj
 0002:0001fd28       ??_C@_07PBHIMFBE@p?4other?$AA@ 00085d28     libeay32:ec_asn1.obj
 0002:0001fd30       ??_C@_0BC@NPDMPFCL@X9_62_PENTANOMIAL?$AA@ 00085d30     libeay32:ec_asn1.obj
 0002:0001fd44       ??_C@_02LAFHGHBM@k3?$AA@   00085d44     libeay32:ec_asn1.obj
 0002:0001fd48       ??_C@_02KJEMFGFN@k2?$AA@   00085d48     libeay32:ec_asn1.obj
 0002:0001fd4c       ??_C@_02ICGBAFJO@k1?$AA@   00085d4c     libeay32:ec_asn1.obj
 0002:0001fd50       ??_C@_0EM@BCOHHMGC@d?3?2wm653wehh?2platform?2mvv210?2src@ 00085d50     libeay32:ec_asn1.obj
 0002:0001fe28       ??_C@_0BE@LDIFBBLG@PKCS8_PRIV_KEY_INFO?$AA@ 00085e28     libeay32:p8_pkey.obj
 0002:0001fe3c       ??_C@_04JMMJFDFL@pkey?$AA@ 00085e3c     libeay32:p8_pkey.obj
 0002:0001fe44       ??_C@_07PLCMOKAM@pkeyalg?$AA@ 00085e44     libeay32:p8_pkey.obj
 0002:0001fe4c       ??_C@_0BE@FPCNHCIJ@Generator?5?$CIhybrid?$CJ?3?$AA@ 00085e4c     libeay32:eck_prn.obj
 0002:0001fe60       ??_C@_0BK@DOCPEENO@Generator?5?$CIuncompressed?$CJ?3?$AA@ 00085e60     libeay32:eck_prn.obj
 0002:0001fe7c       ??_C@_0BI@DFFFIKFB@Generator?5?$CIcompressed?$CJ?3?$AA@ 00085e7c     libeay32:eck_prn.obj
 0002:0001fe94       ??_C@_06LEJCPMLM@?$CF02x?$CFs?$AA@ 00085e94     libeay32:eck_prn.obj
 0002:0001fea0       ??_C@_0EM@FLNGOIDD@d?3?2wm653wehh?2platform?2mvv210?2src@ 00085ea0     libeay32:eck_prn.obj
 0002:0001feec       ??_C@_05PDHKGGIM@Seed?3?$AA@ 00085eec     libeay32:eck_prn.obj
 0002:0001fef4       ??_C@_0L@IEMHODML@Cofactor?3?5?$AA@ 00085ef4     libeay32:eck_prn.obj
 0002:0001ff00       ??_C@_07KOGOKIFH@Order?3?5?$AA@ 00085f00     libeay32:eck_prn.obj
 0002:0001ff08       ??_C@_05OKMHJIGA@B?3?5?5?5?$AA@ 00085f08     libeay32:eck_prn.obj
 0002:0001ff10       ??_C@_05GMFDOKMO@A?3?5?5?5?$AA@ 00085f10     libeay32:eck_prn.obj
 0002:0001ff18       ??_C@_06DBHHIIKM@Prime?3?$AA@ 00085f18     libeay32:eck_prn.obj
 0002:0001ff20       ??_C@_0M@JDIPGLHE@Polynomial?3?$AA@ 00085f20     libeay32:eck_prn.obj
 0002:0001ff2c       ??_C@_0BA@ENMKKION@Basis?5Type?3?5?$CFs?6?$AA@ 00085f2c     libeay32:eck_prn.obj
 0002:0001ff3c       ??_C@_0BA@KNKNOIFH@Field?5Type?3?5?$CFs?6?$AA@ 00085f3c     libeay32:eck_prn.obj
 0002:0001ff4c       ??_C@_0N@JOFLCJFF@ASN1?5OID?3?5?$CFs?$AA@ 00085f4c     libeay32:eck_prn.obj
 0002:0001ff5c       ??_C@_04HDOCAJNK@?$CFs?$CFs?$AA@ 00085f5c     libeay32:t_pkey.obj
 0002:0001ff64       ??_C@_0M@IBLDKCHK@?5?$CINegative?$CJ?$AA@ 00085f64     libeay32:t_pkey.obj
 0002:0001ff70       ??_C@_0BE@KHLFKPFC@?$CFs?5?$CFs?$CFlu?5?$CI?$CFs0x?$CFlx?$CJ?6?$AA@ 00085f70     libeay32:t_pkey.obj
 0002:0001ff84       ??_C@_05NJJIPCOC@?$CFs?50?6?$AA@ 00085f84     libeay32:t_pkey.obj
 0002:0001ff90       ??_C@_0EN@IAKMHMJK@d?3?2wm653wehh?2platform?2mvv210?2src@ 00085f90     libeay32:ec_print.obj
 0002:0001ffe0       ??_C@_0EP@EBOHPFGP@d?3?2wm653wehh?2platform?2mvv210?2src@ 00085fe0     libeay32:pk7_lib.obj
 0002:00020030       ??_C@_03MKABNOCG@Dec?$AA@  00086030     libeay32:t_x509.obj
 0002:00020034       ??_C@_03JPJOFNIA@Nov?$AA@  00086034     libeay32:t_x509.obj
 0002:00020038       ??_C@_03BMAOKBAD@Oct?$AA@  00086038     libeay32:t_x509.obj
 0002:0002003c       ??_C@_03GGCAPAJC@Sep?$AA@  0008603c     libeay32:t_x509.obj
 0002:00020040       ??_C@_03IFJFEIGA@Aug?$AA@  00086040     libeay32:t_x509.obj
 0002:00020044       ??_C@_03LBGABGKK@Jul?$AA@  00086044     libeay32:t_x509.obj
 0002:00020048       ??_C@_03IDFGHECI@Jun?$AA@  00086048     libeay32:t_x509.obj
 0002:0002004c       ??_C@_03CNMDKL@May?$AA@    0008604c     libeay32:t_x509.obj
 0002:00020050       ??_C@_03LEOLGMJP@Apr?$AA@  00086050     libeay32:t_x509.obj
 0002:00020054       ??_C@_03ODNJBKGA@Mar?$AA@  00086054     libeay32:t_x509.obj
 0002:00020058       ??_C@_03HJBDCHOM@Feb?$AA@  00086058     libeay32:t_x509.obj
 0002:0002005c       ??_C@_03JIHJHPIE@Jan?$AA@  0008605c     libeay32:t_x509.obj
 0002:00020060       ??_C@_0EN@JFBJIANP@d?3?2wm653wehh?2platform?2mvv210?2src@ 00086060     libeay32:t_x509.obj
 0002:000200b0       ??_C@_0P@FGACABCD@Bad?5time?5value?$AA@ 000860b0     libeay32:t_x509.obj
 0002:000200c0       ??_C@_0BP@OGIOIJMK@?$CFs?5?$CF2d?5?$CF02d?3?$CF02d?3?$CF02d?$CF?4?$CKs?5?$CFd?$CFs?$AA@ 000860c0     libeay32:t_x509.obj
 0002:000200e0       ??_C@_04FIEKMBKB@?5GMT?$AA@ 000860e0     libeay32:t_x509.obj
 0002:00020158       ??_C@_06IJDLPEM@length?$AA@ 00086158     libeay32:dh_asn1.obj
 0002:00020314       ??_C@_0P@PJJHDFJB@RSA_PSS_PARAMS?$AA@ 00086314     libeay32:rsa_asn1.obj
 0002:00020324       ??_C@_0N@KGDDKMLA@trailerField?$AA@ 00086324     libeay32:rsa_asn1.obj
 0002:00020334       ??_C@_0L@PKGNFOCE@saltLength?$AA@ 00086334     libeay32:rsa_asn1.obj
 0002:00020340       ??_C@_0BB@KKPGFJED@maskGenAlgorithm?$AA@ 00086340     libeay32:rsa_asn1.obj
 0002:00020354       ??_C@_0O@DHJLLKEK@hashAlgorithm?$AA@ 00086354     libeay32:rsa_asn1.obj
 0002:00020364       ??_C@_04BBEMPLKC@iqmp?$AA@ 00086364     libeay32:rsa_asn1.obj
 0002:0002036c       ??_C@_04PENPDGE@dmq1?$AA@  0008636c     libeay32:rsa_asn1.obj
 0002:00020374       ??_C@_04OIPJJFD@dmp1?$AA@  00086374     libeay32:rsa_asn1.obj
 0002:0002037c       ??_C@_01LPLHEDKD@d?$AA@    0008637c     libeay32:rsa_asn1.obj
 0002:00020380       ??_C@_01KGKMHCOC@e?$AA@    00086380     libeay32:rsa_asn1.obj
 0002:00020384       ??_C@_02JPPHBJLD@?2?6?$AA@ 00086384     libeay32:f_int.obj
 0002:00020388       ??_C@_02PLJDPFIO@00?$AA@   00086388     libeay32:f_int.obj
 0002:00020390       ??_C@_0FA@NCEGPJFE@d?3?2wm653wehh?2platform?2mvv210?2src@ 00086390     libeay32:p12_utl.obj
 0002:00020498       ??_C@_02HDBGODGB@?2?2?$AA@ 00086498     libeay32:a_strex.obj
 0002:0002049c       ??_C@_05JJPGCIKH@?2?$CF02X?$AA@ 0008649c     libeay32:a_strex.obj
 0002:000204a4       ??_C@_01KICIPPFI@?2?$AA@   000864a4     libeay32:a_strex.obj
 0002:000204a8       ??_C@_07FDBPKGOC@?2U?$CF04lX?$AA@ 000864a8     libeay32:a_strex.obj
 0002:000204b0       ??_C@_07IOFGAIHD@?2W?$CF08lX?$AA@ 000864b0     libeay32:a_strex.obj
 0002:000204b8       ??_C@_0EO@POPABNG@d?3?2wm653wehh?2platform?2mvv210?2src@ 000864b8     libeay32:a_strex.obj
 0002:00020508       ??_C@_01IPJKGB@?$CD?$AA@   00086508     libeay32:a_strex.obj
 0002:0002050c       ??_C@_01BJJEKLCA@?$CC?$AA@ 0008650c     libeay32:a_strex.obj
 0002:00020510       ??_C@_01NEMOKFLO@?$DN?$AA@ 00086510     libeay32:a_strex.obj
 0002:00020514       ??_C@_03MHLONNLM@?5?$DN?5?$AA@ 00086514     libeay32:a_strex.obj
 0002:00020518       ??_C@_01IHBHIGKO@?0?$AA@   00086518     libeay32:a_strex.obj
 0002:0002051c       ??_C@_01MIFGBAGJ@?$CL?$AA@ 0008651c     libeay32:a_strex.obj
 0002:00020520       ??_C@_02LNAEAIDO@?$DL?5?$AA@ 00086520     libeay32:a_strex.obj
 0002:00020524       ??_C@_03NPBFACHO@?5?$CL?5?$AA@ 00086524     libeay32:a_strex.obj
 0002:00020528       ??_C@_0M@PCEPOGPN@?8?$CI?$CJ?$CL?0?9?4?1?3?$DN?$DP?$AA@ 00086528     libeay32:a_mbstr.obj
 0002:00020534       ??_C@_08EOPONIBF@maxsize?$DN?$AA@ 00086534     libeay32:a_mbstr.obj
 0002:00020540       ??_C@_03JALODAI@?$CFld?$AA@ 00086540     libeay32:a_mbstr.obj
 0002:00020544       ??_C@_08JJBFGKFE@minsize?$DN?$AA@ 00086544     libeay32:a_mbstr.obj
 0002:00020550       ??_C@_0EO@JLLBAGMI@d?3?2wm653wehh?2platform?2mvv210?2src@ 00086550     libeay32:a_mbstr.obj
 0002:000207ec       ??_C@_06DPGELLJH@FORMAT?$AA@ 000867ec     libeay32:asn1_gen.obj
 0002:000207f4       ??_C@_04HPGCGPG@FORM?$AA@  000867f4     libeay32:asn1_gen.obj
 0002:000207fc       ??_C@_07JHDNPBBM@BITWRAP?$AA@ 000867fc     libeay32:asn1_gen.obj
 0002:00020804       ??_C@_07OAIMKKNN@SETWRAP?$AA@ 00086804     libeay32:asn1_gen.obj
 0002:0002080c       ??_C@_07LAEBDLGO@SEQWRAP?$AA@ 0008680c     libeay32:asn1_gen.obj
 0002:00020814       ??_C@_07KIEILLID@OCTWRAP?$AA@ 00086814     libeay32:asn1_gen.obj
 0002:0002081c       ??_C@_08PPMOEJGF@IMPLICIT?$AA@ 0008681c     libeay32:asn1_gen.obj
 0002:00020828       ??_C@_03PKFOHEJD@IMP?$AA@  00086828     libeay32:asn1_gen.obj
 0002:0002082c       ??_C@_08CNKBIFDO@EXPLICIT?$AA@ 0008682c     libeay32:asn1_gen.obj
 0002:00020838       ??_C@_03KKGFKKLA@EXP?$AA@  00086838     libeay32:asn1_gen.obj
 0002:0002083c       ??_C@_03NCPCKDJB@SEQ?$AA@  0008683c     libeay32:asn1_gen.obj
 0002:00020840       ??_C@_0O@DFADMOGA@NUMERICSTRING?$AA@ 00086840     libeay32:asn1_gen.obj
 0002:00020850       ??_C@_07DBOJJFHC@NUMERIC?$AA@ 00086850     libeay32:asn1_gen.obj
 0002:00020858       ??_C@_06GBOJAPHH@GENSTR?$AA@ 00086858     libeay32:asn1_gen.obj
 0002:00020860       ??_C@_0O@OIKLOOAP@GeneralString?$AA@ 00086860     libeay32:asn1_gen.obj
 0002:00020870       ??_C@_0O@GENPGMAM@TELETEXSTRING?$AA@ 00086870     libeay32:asn1_gen.obj
 0002:00020880       ??_C@_09FMBHBANP@T61STRING?$AA@ 00086880     libeay32:asn1_gen.obj
 0002:0002088c       ??_C@_03HMGPCGIG@T61?$AA@  0008688c     libeay32:asn1_gen.obj
 0002:00020890       ??_C@_09OMDMMLJJ@PRINTABLE?$AA@ 00086890     libeay32:asn1_gen.obj
 0002:0002089c       ??_C@_0BA@FKHILLED@PRINTABLESTRING?$AA@ 0008689c     libeay32:asn1_gen.obj
 0002:000208ac       ??_C@_07MCGNPFEO@VISIBLE?$AA@ 000868ac     libeay32:asn1_gen.obj
 0002:000208b4       ??_C@_0O@KDAJCBO@VISIBLESTRING?$AA@ 000868b4     libeay32:asn1_gen.obj
 0002:000208c4       ??_C@_09BIBABMFN@BMPSTRING?$AA@ 000868c4     libeay32:asn1_gen.obj
 0002:000208d0       ??_C@_03CNFPPDJC@BMP?$AA@  000868d0     libeay32:asn1_gen.obj
 0002:000208d4       ??_C@_0L@PJIJIHJD@UTF8String?$AA@ 000868d4     libeay32:asn1_gen.obj
 0002:000208e0       ??_C@_04OOMJJNCF@UTF8?$AA@ 000868e0     libeay32:asn1_gen.obj
 0002:000208e8       ??_C@_09JOMPLKGB@IA5STRING?$AA@ 000868e8     libeay32:asn1_gen.obj
 0002:000208f4       ??_C@_03OLMOBCBF@IA5?$AA@  000868f4     libeay32:asn1_gen.obj
 0002:000208f8       ??_C@_04CBEPCLMK@UNIV?$AA@ 000868f8     libeay32:asn1_gen.obj
 0002:00020900       ??_C@_0BA@EJHHDALK@UNIVERSALSTRING?$AA@ 00086900     libeay32:asn1_gen.obj
 0002:00020910       ??_C@_09MBLGEDKL@BITSTRING?$AA@ 00086910     libeay32:asn1_gen.obj
 0002:0002091c       ??_C@_06GOEDGPII@BITSTR?$AA@ 0008691c     libeay32:asn1_gen.obj
 0002:00020924       ??_C@_0M@JIDALIGG@OCTETSTRING?$AA@ 00086924     libeay32:asn1_gen.obj
 0002:00020930       ??_C@_03LBMHMDEB@OCT?$AA@  00086930     libeay32:asn1_gen.obj
 0002:00020934       ??_C@_07EECHABMP@GENTIME?$AA@ 00086934     libeay32:asn1_gen.obj
 0002:0002093c       ??_C@_0BA@LKNBIJBB@GENERALIZEDTIME?$AA@ 0008693c     libeay32:asn1_gen.obj
 0002:0002094c       ??_C@_03JCIJEFNJ@UTC?$AA@  0008694c     libeay32:asn1_gen.obj
 0002:00020950       ??_C@_07HIOLDDN@UTCTIME?$AA@ 00086950     libeay32:asn1_gen.obj
 0002:00020958       ??_C@_06IAMCMNFI@OBJECT?$AA@ 00086958     libeay32:asn1_gen.obj
 0002:00020960       ??_C@_03PGJCFEMG@OID?$AA@  00086960     libeay32:asn1_gen.obj
 0002:00020964       ??_C@_0L@KNIEMAKM@ENUMERATED?$AA@ 00086964     libeay32:asn1_gen.obj
 0002:00020970       ??_C@_04PNKFCNMG@ENUM?$AA@ 00086970     libeay32:asn1_gen.obj
 0002:00020978       ??_C@_07EHCIHKNF@INTEGER?$AA@ 00086978     libeay32:asn1_gen.obj
 0002:00020980       ??_C@_03JMHEAPMO@INT?$AA@  00086980     libeay32:asn1_gen.obj
 0002:00020984       ??_C@_07JDEDMABE@BOOLEAN?$AA@ 00086984     libeay32:asn1_gen.obj
 0002:0002098c       ??_C@_04PPJDIBFE@BOOL?$AA@ 0008698c     libeay32:asn1_gen.obj
 0002:00020994       ??_C@_05NALEHOPE@Char?$DN?$AA@ 00086994     libeay32:asn1_gen.obj
 0002:000209a0       ??_C@_0EP@NAHIMGLP@d?3?2wm653wehh?2platform?2mvv210?2src@ 000869a0     libeay32:asn1_gen.obj
 0002:000209f0       ??_C@_07HMNLDFAL@BITLIST?$AA@ 000869f0     libeay32:asn1_gen.obj
 0002:000209f8       ??_C@_03IECIMIEG@HEX?$AA@  000869f8     libeay32:asn1_gen.obj
 0002:000209fc       ??_C@_05CCNLIHFO@ASCII?$AA@ 000869fc     libeay32:asn1_gen.obj
 0002:00020a04       ??_C@_04JBGFELJA@tag?$DN?$AA@ 00086a04     libeay32:asn1_gen.obj
 0002:00020a0c       ??_C@_07IOGEOOAA@string?$DN?$AA@ 00086a0c     libeay32:asn1_gen.obj
 0002:00020a14       ??_C@_05LKMDHMJN@WIN32?$AA@ 00086a14     libeay32:conf_def.obj
 0002:00020a1c       ??_C@_0BA@EEIGDPJJ@OpenSSL?5default?$AA@ 00086a1c     libeay32:conf_def.obj
 0002:00020a2c       CONF_def_version           00086a2c     libeay32:conf_def.obj
 0002:00020a58       ??_C@_0EP@FLILJMGH@d?3?2wm653wehh?2platform?2mvv210?2src@ 00086a58     libeay32:conf_def.obj
 0002:00020aa8       ??_C@_07PNLMPOMH@?$FL?$FL?$CFs?$FN?$FN?6?$AA@ 00086aa8     libeay32:conf_def.obj
 0002:00020ab0       ??_C@_0M@CLCLGKAH@?$FL?$CFs?$FN?5?$CFs?$DN?$CFs?6?$AA@ 00086ab0     libeay32:conf_def.obj
 0002:00020abc       ??_C@_05KFEICJBI@line?5?$AA@ 00086abc     libeay32:conf_def.obj
 0002:00020ac4       ??_C@_03OEJENCPE@ENV?$AA@  00086ac4     libeay32:conf_api.obj
 0002:00020ac8       ??_C@_0L@BFMFELMC@vv?5?$DN?$DN?5NULL?$AA@ 00086ac8     libeay32:conf_api.obj
 0002:00020ad8       ??_C@_0EP@PLCFAFHA@d?3?2wm653wehh?2platform?2mvv210?2src@ 00086ad8     libeay32:conf_api.obj
 0002:00020b28       MD5_version                00086b28     libeay32:md5_dgst.obj
 0002:0002107c       ??_C@_0BA@JLGHGCLL@OCSP_SERVICELOC?$AA@ 0008707c     libeay32:ocsp_asn.obj
 0002:0002108c       ??_C@_07PAIKCKMF@locator?$AA@ 0008708c     libeay32:ocsp_asn.obj
 0002:00021094       ??_C@_0L@JOKCDHBA@OCSP_CRLID?$AA@ 00087094     libeay32:ocsp_asn.obj
 0002:000210a0       ??_C@_07BDEAJPPO@crlTime?$AA@ 000870a0     libeay32:ocsp_asn.obj
 0002:000210a8       ??_C@_06DLEHNACA@crlNum?$AA@ 000870a8     libeay32:ocsp_asn.obj
 0002:000210b0       ??_C@_06KAALCHHK@crlUrl?$AA@ 000870b0     libeay32:ocsp_asn.obj
 0002:000210b8       ??_C@_0P@CPCDLAO@OCSP_BASICRESP?$AA@ 000870b8     libeay32:ocsp_asn.obj
 0002:000210c8       ??_C@_0BA@OOPOFNLG@tbsResponseData?$AA@ 000870c8     libeay32:ocsp_asn.obj
 0002:000210d8       ??_C@_0O@GNAMNHBK@OCSP_RESPDATA?$AA@ 000870d8     libeay32:ocsp_asn.obj
 0002:000210e8       ??_C@_0BD@LEANHDON@responseExtensions?$AA@ 000870e8     libeay32:ocsp_asn.obj
 0002:000210fc       ??_C@_09NKKOBILA@responses?$AA@ 000870fc     libeay32:ocsp_asn.obj
 0002:00021108       ??_C@_0L@KADAOIGF@producedAt?$AA@ 00087108     libeay32:ocsp_asn.obj
 0002:00021114       ??_C@_0M@CPBMKBOK@responderId?$AA@ 00087114     libeay32:ocsp_asn.obj
 0002:00021120       ??_C@_0BA@CEMENBMB@OCSP_SINGLERESP?$AA@ 00087120     libeay32:ocsp_asn.obj
 0002:00021130       ??_C@_0BB@BHCHCCEI@singleExtensions?$AA@ 00087130     libeay32:ocsp_asn.obj
 0002:00021144       ??_C@_0L@BEDJFPDO@thisUpdate?$AA@ 00087144     libeay32:ocsp_asn.obj
 0002:00021150       ??_C@_0L@IGGFAGC@certStatus?$AA@ 00087150     libeay32:ocsp_asn.obj
 0002:0002115c       ??_C@_06JJGBHEJI@certId?$AA@ 0008715c     libeay32:ocsp_asn.obj
 0002:00021164       ??_C@_0BA@JBJHLNOJ@OCSP_CERTSTATUS?$AA@ 00087164     libeay32:ocsp_asn.obj
 0002:00021174       ??_C@_0O@ICNBHFHN@value?4unknown?$AA@ 00087174     libeay32:ocsp_asn.obj
 0002:00021184       ??_C@_0O@GCBEBIKI@value?4revoked?$AA@ 00087184     libeay32:ocsp_asn.obj
 0002:00021194       ??_C@_0L@MEIDNBL@value?4good?$AA@ 00087194     libeay32:ocsp_asn.obj
 0002:000211a0       ??_C@_0BB@CFNKINIP@OCSP_REVOKEDINFO?$AA@ 000871a0     libeay32:ocsp_asn.obj
 0002:000211b4       ??_C@_0BB@JHENKMOK@revocationReason?$AA@ 000871b4     libeay32:ocsp_asn.obj
 0002:000211c8       ??_C@_0P@MHJPNEEK@revocationTime?$AA@ 000871c8     libeay32:ocsp_asn.obj
 0002:000211d8       ??_C@_0M@JBDPBGBO@OCSP_RESPID?$AA@ 000871d8     libeay32:ocsp_asn.obj
 0002:000211e4       ??_C@_0M@OFGLOCKB@value?4byKey?$AA@ 000871e4     libeay32:ocsp_asn.obj
 0002:000211f0       ??_C@_0N@OFBDHEPF@value?4byName?$AA@ 000871f0     libeay32:ocsp_asn.obj
 0002:00021200       ??_C@_0O@CDJMCFNM@OCSP_RESPONSE?$AA@ 00087200     libeay32:ocsp_asn.obj
 0002:00021210       ??_C@_0O@MMHCFEHM@responseBytes?$AA@ 00087210     libeay32:ocsp_asn.obj
 0002:00021220       ??_C@_0P@GEHCLFGI@responseStatus?$AA@ 00087220     libeay32:ocsp_asn.obj
 0002:00021230       ??_C@_0P@ONFJGMLI@OCSP_RESPBYTES?$AA@ 00087230     libeay32:ocsp_asn.obj
 0002:00021240       ??_C@_08HKMEAON@response?$AA@ 00087240     libeay32:ocsp_asn.obj
 0002:0002124c       ??_C@_0N@FPIGADMM@responseType?$AA@ 0008724c     libeay32:ocsp_asn.obj
 0002:0002125c       ??_C@_0N@PCNOLOBD@OCSP_REQUEST?$AA@ 0008725c     libeay32:ocsp_asn.obj
 0002:0002126c       ??_C@_0BC@GKDKILGO@optionalSignature?$AA@ 0008726c     libeay32:ocsp_asn.obj
 0002:00021280       ??_C@_0L@OIGCAPNH@tbsRequest?$AA@ 00087280     libeay32:ocsp_asn.obj
 0002:0002128c       ??_C@_0N@DDBEOJJA@OCSP_REQINFO?$AA@ 0008728c     libeay32:ocsp_asn.obj
 0002:0002129c       ??_C@_0BC@CPAMEDLH@requestExtensions?$AA@ 0008729c     libeay32:ocsp_asn.obj
 0002:000212b0       ??_C@_0M@NNJGDIDJ@requestList?$AA@ 000872b0     libeay32:ocsp_asn.obj
 0002:000212bc       ??_C@_0O@NHDBCFOA@requestorName?$AA@ 000872bc     libeay32:ocsp_asn.obj
 0002:000212cc       ??_C@_0M@IGPHKOAK@OCSP_ONEREQ?$AA@ 000872cc     libeay32:ocsp_asn.obj
 0002:000212d8       ??_C@_0BI@PPJDGJOP@singleRequestExtensions?$AA@ 000872d8     libeay32:ocsp_asn.obj
 0002:000212f0       ??_C@_07GCNFCODJ@reqCert?$AA@ 000872f0     libeay32:ocsp_asn.obj
 0002:000212f8       ??_C@_0M@OCJEDPID@OCSP_CERTID?$AA@ 000872f8     libeay32:ocsp_asn.obj
 0002:00021304       ??_C@_0O@KPBFDKHB@issuerKeyHash?$AA@ 00087304     libeay32:ocsp_asn.obj
 0002:00021314       ??_C@_0P@EKEFMOEP@issuerNameHash?$AA@ 00087314     libeay32:ocsp_asn.obj
 0002:00021324       ??_C@_0P@OIPGPNII@OCSP_SIGNATURE?$AA@ 00087324     libeay32:ocsp_asn.obj
 0002:00021334       ??_C@_05HFDFJDL@certs?$AA@ 00087334     libeay32:ocsp_asn.obj
 0002:00021394       ??_C@_0BA@OPHCNPAP@AUTHORITY_KEYID?$AA@ 00087394     libeay32:v3_akeya.obj
 0002:000213a8       ??_C@_0EP@FNGDBEGO@d?3?2wm653wehh?2platform?2mvv210?2src@ 000873a8     libeay32:a_verify.obj
 0002:00021494       ??_C@_0O@DBIGEIKO@NETSCAPE_SPKI?$AA@ 00087494     libeay32:x_spki.obj
 0002:000214a4       ??_C@_09JJGBLAHB@sig_algor?$AA@ 000874a4     libeay32:x_spki.obj
 0002:000214b0       ??_C@_05NBLLCIIN@spkac?$AA@ 000874b0     libeay32:x_spki.obj
 0002:000214b8       ??_C@_0P@OEBIEFNJ@NETSCAPE_SPKAC?$AA@ 000874b8     libeay32:x_spki.obj
 0002:000214c8       ??_C@_09DBEGHIJJ@challenge?$AA@ 000874c8     libeay32:x_spki.obj
 0002:00021a80       ??_C@_0BC@DLHIINOH@PKCS7_ATTR_VERIFY?$AA@ 00087a80     libeay32:pk7_asn1.obj
 0002:00021a94       ??_C@_0BA@IJMFEGLH@PKCS7_ATTR_SIGN?$AA@ 00087a94     libeay32:pk7_asn1.obj
 0002:00021aa4       ??_C@_0BB@ODHHPICH@PKCS7_ATTRIBUTES?$AA@ 00087aa4     libeay32:pk7_asn1.obj
 0002:00021ab8       ??_C@_0N@NAILNAH@PKCS7_DIGEST?$AA@ 00087ab8     libeay32:pk7_asn1.obj
 0002:00021ac8       ??_C@_02EBCANADN@md?$AA@   00087ac8     libeay32:pk7_asn1.obj
 0002:00021acc       ??_C@_0O@GIFGHKGC@PKCS7_ENCRYPT?$AA@ 00087acc     libeay32:pk7_asn1.obj
 0002:00021adc       ??_C@_0BE@LMHBPFDD@PKCS7_SIGN_ENVELOPE?$AA@ 00087adc     libeay32:pk7_asn1.obj
 0002:00021af0       ??_C@_0BC@INKEDPEG@PKCS7_ENC_CONTENT?$AA@ 00087af0     libeay32:pk7_asn1.obj
 0002:00021b04       ??_C@_0N@IEAAACJL@content_type?$AA@ 00087b04     libeay32:pk7_asn1.obj
 0002:00021b14       ??_C@_0BB@MGPEFENK@PKCS7_RECIP_INFO?$AA@ 00087b14     libeay32:pk7_asn1.obj
 0002:00021b28       ??_C@_07LBLKCHGJ@enc_key?$AA@ 00087b28     libeay32:pk7_asn1.obj
 0002:00021b30       ??_C@_0O@ODFHHMFC@key_enc_algor?$AA@ 00087b30     libeay32:pk7_asn1.obj
 0002:00021b40       ??_C@_0P@KCJMJLOD@PKCS7_ENVELOPE?$AA@ 00087b40     libeay32:pk7_asn1.obj
 0002:00021b50       ??_C@_08ENNDKKOI@enc_data?$AA@ 00087b50     libeay32:pk7_asn1.obj
 0002:00021b5c       ??_C@_0O@HGJALPPJ@recipientinfo?$AA@ 00087b5c     libeay32:pk7_asn1.obj
 0002:00021b6c       ??_C@_0BI@POAIONGK@PKCS7_ISSUER_AND_SERIAL?$AA@ 00087b6c     libeay32:pk7_asn1.obj
 0002:00021b84       ??_C@_0BC@BFFCPPDG@PKCS7_SIGNER_INFO?$AA@ 00087b84     libeay32:pk7_asn1.obj
 0002:00021b98       ??_C@_0M@NNBFAOJK@unauth_attr?$AA@ 00087b98     libeay32:pk7_asn1.obj
 0002:00021ba4       ??_C@_0L@PJDBOMFC@enc_digest?$AA@ 00087ba4     libeay32:pk7_asn1.obj
 0002:00021bb0       ??_C@_0P@KLFHBHJD@digest_enc_alg?$AA@ 00087bb0     libeay32:pk7_asn1.obj
 0002:00021bc0       ??_C@_09PLABOLFJ@auth_attr?$AA@ 00087bc0     libeay32:pk7_asn1.obj
 0002:00021bcc       ??_C@_0L@OGBFEEJI@digest_alg?$AA@ 00087bcc     libeay32:pk7_asn1.obj
 0002:00021bd8       ??_C@_0BC@PMGLGNPO@issuer_and_serial?$AA@ 00087bd8     libeay32:pk7_asn1.obj
 0002:00021bec       ??_C@_0N@CKBJFFNF@PKCS7_SIGNED?$AA@ 00087bec     libeay32:pk7_asn1.obj
 0002:00021bfc       ??_C@_0M@KEDNAHBP@signer_info?$AA@ 00087bfc     libeay32:pk7_asn1.obj
 0002:00021c08       ??_C@_04PHJBACIC@cert?$AA@ 00087c08     libeay32:pk7_asn1.obj
 0002:00021c10       ??_C@_08ODCIAOPM@contents?$AA@ 00087c10     libeay32:pk7_asn1.obj
 0002:00021c1c       ??_C@_07MPDKKGPO@md_algs?$AA@ 00087c1c     libeay32:pk7_asn1.obj
 0002:00021c24       ??_C@_05BKMMPIPN@PKCS7?$AA@ 00087c24     libeay32:pk7_asn1.obj
 0002:00021c2c       ??_C@_0M@IDEHBFAL@d?4encrypted?$AA@ 00087c2c     libeay32:pk7_asn1.obj
 0002:00021c38       ??_C@_08JOIJLLGO@d?4digest?$AA@ 00087c38     libeay32:pk7_asn1.obj
 0002:00021c44       ??_C@_0BH@FHPJHCLF@d?4signed_and_enveloped?$AA@ 00087c44     libeay32:pk7_asn1.obj
 0002:00021c5c       ??_C@_0M@CLKMIMCI@d?4enveloped?$AA@ 00087c5c     libeay32:pk7_asn1.obj
 0002:00021c68       ??_C@_06GOHGJFCL@d?4sign?$AA@ 00087c68     libeay32:pk7_asn1.obj
 0002:00021d10       ??_C@_0EN@IKCJFOCD@d?3?2wm653wehh?2platform?2mvv210?2src@ 00087d10     libeay32:ecp_smpl.obj
 0002:00022210       ??_C@_0EN@JCJEBHDE@d?3?2wm653wehh?2platform?2mvv210?2src@ 00088210     libeay32:ec2_mult.obj
 0002:000222a0       ??_C@_0EM@KOFLLDDI@d?3?2wm653wehh?2platform?2mvv210?2src@ 000882a0     libeay32:bn_gf2m.obj
 0002:00022330       ??_C@_08OPPGEJIL@X509_VAL?$AA@ 00088330     libeay32:x_val.obj
 0002:00022404       ??_C@_0P@BDECDGPA@X509_CERT_PAIR?$AA@ 00088404     libeay32:x_x509a.obj
 0002:00022414       ??_C@_07KOIEOCCE@reverse?$AA@ 00088414     libeay32:x_x509a.obj
 0002:0002241c       ??_C@_07CJMBKHEI@forward?$AA@ 0008841c     libeay32:x_x509a.obj
 0002:00022424       ??_C@_0O@LJIIOIG@X509_CERT_AUX?$AA@ 00088424     libeay32:x_x509a.obj
 0002:00022434       ??_C@_05NKHOCLEE@alias?$AA@ 00088434     libeay32:x_x509a.obj
 0002:0002243c       ??_C@_06JPOFNODM@reject?$AA@ 0008843c     libeay32:x_x509a.obj
 0002:00022444       ??_C@_05BMJJJIHB@trust?$AA@ 00088444     libeay32:x_x509a.obj
 0002:00022460       PEM_version                00088460     libeay32:pem_lib.obj
 0002:0002250c       ??_C@_09FGHEBGDO@?$DMASN1?529?$DO?$AA@ 0008850c     libeay32:asn1_par.obj
 0002:00022518       ??_C@_0O@DKDEPFLO@GENERALSTRING?$AA@ 00088518     libeay32:asn1_par.obj
 0002:00022528       ??_C@_0O@MABADFB@GRAPHICSTRING?$AA@ 00088528     libeay32:asn1_par.obj
 0002:00022538       ??_C@_0P@LNAMNBEL@VIDEOTEXSTRING?$AA@ 00088538     libeay32:asn1_par.obj
 0002:00022548       ??_C@_09ENNLEALE@?$DMASN1?515?$DO?$AA@ 00088548     libeay32:asn1_par.obj
 0002:00022554       ??_C@_09EMBJCKID@?$DMASN1?514?$DO?$AA@ 00088554     libeay32:asn1_par.obj
 0002:00022560       ??_C@_09EJFGDMAG@?$DMASN1?513?$DO?$AA@ 00088560     libeay32:asn1_par.obj
 0002:0002256c       ??_C@_0L@DCBPGANN@UTF8STRING?$AA@ 0008856c     libeay32:asn1_par.obj
 0002:00022578       ??_C@_09EKNCOIGI@?$DMASN1?511?$DO?$AA@ 00088578     libeay32:asn1_par.obj
 0002:00022584       ??_C@_04PKFANLLI@REAL?$AA@ 00088584     libeay32:asn1_par.obj
 0002:0002258c       ??_C@_08JHLDEHEK@EXTERNAL?$AA@ 0008858c     libeay32:asn1_par.obj
 0002:00022598       ??_C@_0BC@HDOCNDIH@OBJECT?5DESCRIPTOR?$AA@ 00088598     libeay32:asn1_par.obj
 0002:000225ac       ??_C@_0N@KPGGMDFC@OCTET?5STRING?$AA@ 000885ac     libeay32:asn1_par.obj
 0002:000225bc       ??_C@_0L@EKOKPLKE@BIT?5STRING?$AA@ 000885bc     libeay32:asn1_par.obj
 0002:000225c8       ??_C@_03NCODFONH@EOC?$AA@  000885c8     libeay32:asn1_par.obj
 0002:000225cc       ??_C@_09GPGAJHPD@?$CIunknown?$CJ?$AA@ 000885cc     libeay32:asn1_par.obj
 0002:00022620       ??_C@_0BK@EMDNDBLP@?$CF04d?$CF02d?$CF02d?$CF02d?$CF02d?$CF02dZ?$AA@ 00088620     libeay32:a_gentm.obj
 0002:00022640       ??_C@_0EO@HIOEHCAC@d?3?2wm653wehh?2platform?2mvv210?2src@ 00088640     libeay32:a_gentm.obj
 0002:000226d0       ??_C@_0BK@PMAAGDOP@?$CF02d?$CF02d?$CF02d?$CF02d?$CF02d?$CF02dZ?$AA@ 000886d0     libeay32:a_utctm.obj
 0002:000226f0       ??_C@_0EO@DLENMAPA@d?3?2wm653wehh?2platform?2mvv210?2src@ 000886f0     libeay32:a_utctm.obj
 0002:00022740       ??_C@_0L@CFEJKCOD@TSA?5server?$AA@ 00088740     libeay32:x509_trs.obj
 0002:0002274c       ??_C@_0N@CAJJAOJD@OCSP?5request?$AA@ 0008874c     libeay32:x509_trs.obj
 0002:0002275c       ??_C@_0P@JHCOMJOI@OCSP?5responder?$AA@ 0008875c     libeay32:x509_trs.obj
 0002:0002276c       ??_C@_0O@EEPBMPKP@Object?5Signer?$AA@ 0008876c     libeay32:x509_trs.obj
 0002:0002277c       ??_C@_0N@OEEPKGPL@S?1MIME?5email?$AA@ 0008877c     libeay32:x509_trs.obj
 0002:0002278c       ??_C@_0L@JNOGJJCA@compatible?$AA@ 0008878c     libeay32:x509_trs.obj
 0002:00022838       ??_C@_0L@MDHNNNKP@ssl_server?$AA@ 00088838     libeay32:x509_vpm.obj
 0002:00022844       ??_C@_0L@IMDPAGCM@ssl_client?$AA@ 00088844     libeay32:x509_vpm.obj
 0002:00022850       ??_C@_0L@GGDBHMO@smime_sign?$AA@ 00088850     libeay32:x509_vpm.obj
 0002:00022860       ??_C@_0EL@LDMNJGLH@d?3?2wm653wehh?2platform?2mvv210?2src@ 00088860     libeay32:ec_oct.obj
 0002:00022b98       ??_C@_0BB@BIPBIGGF@PKCS12_AUTHSAFES?$AA@ 00088b98     libeay32:p12_asn.obj
 0002:00022bac       ??_C@_0BA@MCGBLIFE@PKCS12_SAFEBAGS?$AA@ 00088bac     libeay32:p12_asn.obj
 0002:00022bbc       ??_C@_06CEIPPJF@attrib?$AA@ 00088bbc     libeay32:p12_asn.obj
 0002:00022bc4       ??_C@_0P@EECFPDPC@PKCS12_SAFEBAG?$AA@ 00088bc4     libeay32:p12_asn.obj
 0002:00022bd4       ??_C@_09EBGANBLK@value?4bag?$AA@ 00088bd4     libeay32:p12_asn.obj
 0002:00022be0       ??_C@_0M@NFMGHALF@value?4safes?$AA@ 00088be0     libeay32:p12_asn.obj
 0002:00022bec       ??_C@_0P@FIADCDOI@value?4shkeybag?$AA@ 00088bec     libeay32:p12_asn.obj
 0002:00022bfc       ??_C@_0N@DOAHKDFI@value?4keybag?$AA@ 00088bfc     libeay32:p12_asn.obj
 0002:00022c0c       ??_C@_0M@BNPBMADO@PKCS12_BAGS?$AA@ 00088c0c     libeay32:p12_asn.obj
 0002:00022c18       ??_C@_0P@OEFHMPFE@value?4sdsicert?$AA@ 00088c18     libeay32:p12_asn.obj
 0002:00022c28       ??_C@_0O@KKFHCJNP@value?4x509crl?$AA@ 00088c28     libeay32:p12_asn.obj
 0002:00022c38       ??_C@_0P@IGODMFMC@value?4x509cert?$AA@ 00088c38     libeay32:p12_asn.obj
 0002:00022c48       ??_C@_0M@PABGOMNF@value?4other?$AA@ 00088c48     libeay32:p12_asn.obj
 0002:00022c54       ??_C@_0BA@LPMCLHLH@PKCS12_MAC_DATA?$AA@ 00088c54     libeay32:p12_asn.obj
 0002:00022c64       ??_C@_05DMLMEGOG@dinfo?$AA@ 00088c64     libeay32:p12_asn.obj
 0002:00022c6c       ??_C@_06CKOLGKJK@PKCS12?$AA@ 00088c6c     libeay32:p12_asn.obj
 0002:00022c74       ??_C@_09HFIAEJAG@authsafes?$AA@ 00088c74     libeay32:p12_asn.obj
 0002:00022c80       ??_C@_0CG@ELPNGFCJ@OpenSSL?5?8win32?8?5shared?5library?5m@ 00088c80     libeay32:dso_win32.obj
 0002:00022ca8       ??_C@_01PKGAHCOL@?$CJ?$AA@ 00088ca8     libeay32:dso_win32.obj
 0002:00022cac       ??_C@_09CCCHLKJP@filename?$CI?$AA@ 00088cac     libeay32:dso_win32.obj
 0002:00022cb8       ??_C@_0EP@KLFAEIED@d?3?2wm653wehh?2platform?2mvv210?2src@ 00088cb8     libeay32:dso_win32.obj
 0002:00022d08       ??_C@_08MFAHALLH@symname?$CI?$AA@ 00088d08     libeay32:dso_win32.obj
 0002:00022d14       ??_C@_06DAJAKOAL@?$CFs?4dll?$AA@ 00088d14     libeay32:dso_win32.obj
 0002:00022d1c       ??_C@_0BI@GJJDGJIM@CloseToolhelp32Snapshot?$AA@ 00088d1c     libeay32:dso_win32.obj
 0002:00022d34       ??_C@_0O@CNMFJJGO@Module32First?$AA@ 00088d34     libeay32:dso_win32.obj
 0002:00022d44       ??_C@_0N@KIGOLBLC@Module32Next?$AA@ 00088d44     libeay32:dso_win32.obj
 0002:00022d54       ??_C@_0BJ@JEFKDHMD@CreateToolhelp32Snapshot?$AA@ 00088d54     libeay32:dso_win32.obj
 0002:00022d70       ??_C@_1BK@NKALKHPI@?$AAT?$AAO?$AAO?$AAL?$AAH?$AAE?$AAL?$AAP?$AA?4?$AAD?$AAL?$AAL?$AA?$AA@ 00088d70     libeay32:dso_win32.obj
 0002:00022d90       ??_C@_0FA@NNAIMOGG@d?3?2wm653wehh?2platform?2mvv210?2src@ 00088d90     libeay32:pk7_doit.obj
 0002:00022ea8       ??_C@_0CK@NJACHFBA@ctx?9?$DOlength?5?$DM?$DN?5?$CIint?$CJsizeof?$CIctx?9?$DO@ 00088ea8     libeay32:encode.obj
 0002:00022ed8       ??_C@_0EM@EJBFCLJI@d?3?2wm653wehh?2platform?2mvv210?2src@ 00088ed8     libeay32:encode.obj
 0002:00022f24       ??_C@_0BP@KGJPJK@n?5?$DM?5?$CIint?$CJsizeof?$CIctx?9?$DOenc_data?$CJ?$AA@ 00088f24     libeay32:encode.obj
 0002:00022f44       ??_C@_04GABBLIPF@asn1?$AA@ 00088f44     libeay32:bio_asn1.obj
 0002:00022f50       ??_C@_0EP@CPKJKHDC@d?3?2wm653wehh?2platform?2mvv210?2src@ 00088f50     libeay32:bio_asn1.obj
 0002:00022fa0       ??_C@_0BM@FIMHHPDL@ctx?9?$DObuflen?5?$DM?$DN?5ctx?9?$DObufsize?$AA@ 00088fa0     libeay32:bio_asn1.obj
 0002:00022fbc       ??_C@_0BA@CNEIDKOH@base64?5encoding?$AA@ 00088fbc     libeay32:bio_b64.obj
 0002:00022fd0       ??_C@_0EN@CHDAAPPK@d?3?2wm653wehh?2platform?2mvv210?2src@ 00088fd0     libeay32:bio_b64.obj
 0002:00023020       ??_C@_0CH@JADBFJCL@ctx?9?$DObuf_off?$CLi?5?$DM?5?$CIint?$CJsizeof?$CIctx@ 00089020     libeay32:bio_b64.obj
 0002:00023048       ??_C@_0BN@FPMDFEFM@ctx?9?$DObuf_len?5?$DO?$DN?5ctx?9?$DObuf_off?$AA@ 00089048     libeay32:bio_b64.obj
 0002:00023068       ??_C@_0BC@BEKEPBME@ctx?9?$DOtmp_len?5?$DM?$DN?53?$AA@ 00089068     libeay32:bio_b64.obj
 0002:0002307c       ??_C@_0CG@NALBBCEM@ctx?9?$DObuf_off?5?$DM?$DN?5?$CIint?$CJsizeof?$CIctx?9@ 0008907c     libeay32:bio_b64.obj
 0002:000230a4       ??_C@_06NOLCFJLD@i?5?$DM?$DN?5n?$AA@ 000890a4     libeay32:bio_b64.obj
 0002:000230ac       ??_C@_0CG@LFOFKIIN@ctx?9?$DObuf_len?5?$DM?$DN?5?$CIint?$CJsizeof?$CIctx?9@ 000890ac     libeay32:bio_b64.obj
 0002:000230d4       ??_C@_0CF@ELLFOHKP@ctx?9?$DObuf_off?5?$DM?5?$CIint?$CJsizeof?$CIctx?9?$DO@ 000890d4     libeay32:bio_b64.obj
 0002:000230fc       ??_C@_06HOHPNJLC@buffer?$AA@ 000890fc     libeay32:bf_buff.obj
 0002:00023108       ??_C@_0EN@HLACMGKH@d?3?2wm653wehh?2platform?2mvv210?2src@ 00089108     libeay32:bf_buff.obj
 0002:00023158       ??_C@_0EM@IBBLLJFJ@d?3?2wm653wehh?2platform?2mvv210?2src@ 00089158     libeay32:ec2_oct.obj
 0002:000231a8       ??_C@_0EM@OKKDHMMJ@d?3?2wm653wehh?2platform?2mvv210?2src@ 000891a8     libeay32:ecp_oct.obj
 0002:000231f8       ??_C@_0FA@FLDKBPHG@d?3?2wm653wehh?2platform?2mvv210?2src@ 000891f8     libeay32:pk7_attr.obj
 0002:00023268       ??_C@_0EM@FGPLHJJK@d?3?2wm653wehh?2platform?2mvv210?2src@ 00089268     libeay32:bn_sqrt.obj
 0002:000232b4       ??_C@_0BP@JCDKFDNH@OpenSSL?5default?5user?5interface?$AA@ 000892b4     libeay32:ui_openssl.obj
 0002:000232d8       ??_C@_0EP@FLBPENKO@d?3?2wm653wehh?2platform?2mvv210?2src@ 000892d8     libeay32:ui_openssl.obj
 0002:00023328       ??_C@_03EPNNLCDK@con?$AA@  00089328     libeay32:ui_openssl.obj
 0002:0002332c       ??_C@_0BA@GANIJHKH@Verify?5failure?6?$AA@ 0008932c     libeay32:ui_openssl.obj
 0002:0002333c       ??_C@_0P@IOLEFIHN@Verifying?5?9?5?$CFs?$AA@ 0008933c     libeay32:ui_openssl.obj
 0002:0002334c       ??_C@_0BG@KLEAJEFJ@Illegal?5byte?5sequence?$AA@ 0008934c     wcecompatex:string_extras.obj
 0002:00023364       ??_C@_0BE@ICMCHPHH@Directory?5not?5empty?$AA@ 00089364     wcecompatex:string_extras.obj
 0002:00023378       ??_C@_0BJ@IHEHINLI@Function?5not?5implemented?$AA@ 00089378     wcecompatex:string_extras.obj
 0002:00023394       ??_C@_0BD@CLHBCGPB@No?5locks?5available?$AA@ 00089394     wcecompatex:string_extras.obj
 0002:000233a8       ??_C@_0BC@BEDIHIDK@Filename?5too?5long?$AA@ 000893a8     wcecompatex:string_extras.obj
 0002:000233bc       ??_C@_0BK@JAEBMJJM@Resource?5deadlock?5avoided?$AA@ 000893bc     wcecompatex:string_extras.obj
 0002:000233d8       ??_C@_0BB@FCBJFCAJ@Result?5too?5large?$AA@ 000893d8     wcecompatex:string_extras.obj
 0002:000233ec       ??_C@_0N@MMJPGLJK@Domain?5error?$AA@ 000893ec     wcecompatex:string_extras.obj
 0002:000233fc       ??_C@_0M@LHEPIIOM@Broken?5pipe?$AA@ 000893fc     wcecompatex:string_extras.obj
 0002:00023408       ??_C@_0P@PKCJJLLM@Too?5many?5links?$AA@ 00089408     wcecompatex:string_extras.obj
 0002:00023418       ??_C@_0BG@DDBFNKBH@Read?9only?5file?5system?$AA@ 00089418     wcecompatex:string_extras.obj
 0002:00023430       ??_C@_0N@FEHLOILP@Invalid?5seek?$AA@ 00089430     wcecompatex:string_extras.obj
 0002:00023440       ??_C@_0BI@FEALHKLD@No?5space?5left?5on?5device?$AA@ 00089440     wcecompatex:string_extras.obj
 0002:00023458       ??_C@_0P@LFMMIPAE@File?5too?5large?$AA@ 00089458     wcecompatex:string_extras.obj
 0002:00023468       ??_C@_0CE@ONOKNLPF@Inappropriate?5I?1O?5control?5operat@ 00089468     wcecompatex:string_extras.obj
 0002:0002348c       ??_C@_0BE@INBJMKGG@Too?5many?5open?5files?$AA@ 0008948c     wcecompatex:string_extras.obj
 0002:000234a0       ??_C@_0BO@IIFBODJE@Too?5many?5open?5files?5in?5system?$AA@ 000894a0     wcecompatex:string_extras.obj
 0002:000234c0       ??_C@_0BB@HMGGCEBG@Invalid?5argument?$AA@ 000894c0     wcecompatex:string_extras.obj
 0002:000234d4       ??_C@_0P@NDHGCGKE@Is?5a?5directory?$AA@ 000894d4     wcecompatex:string_extras.obj
 0002:000234e4       ??_C@_0BA@CJBACOOL@Not?5a?5directory?$AA@ 000894e4     wcecompatex:string_extras.obj
 0002:000234f4       ??_C@_0P@NLEIANHE@No?5such?5device?$AA@ 000894f4     wcecompatex:string_extras.obj
 0002:00023504       ??_C@_0O@OAMDNOCP@Improper?5link?$AA@ 00089504     wcecompatex:string_extras.obj
 0002:00023514       ??_C@_0M@NAAJNNGH@File?5exists?$AA@ 00089514     wcecompatex:string_extras.obj
 0002:00023520       ??_C@_0BI@PDLELJEJ@Device?5or?5resource?5busy?$AA@ 00089520     wcecompatex:string_extras.obj
 0002:00023538       ??_C@_0O@NIPGCINC@Unknown?5error?$AA@ 00089538     wcecompatex:string_extras.obj
 0002:00023548       ??_C@_0M@LOEHLCJD@Bad?5address?$AA@ 00089548     wcecompatex:string_extras.obj
 0002:00023554       ??_C@_0BC@HFNFNKAI@Permission?5denied?$AA@ 00089554     wcecompatex:string_extras.obj
 0002:00023568       ??_C@_0BC@BAKIAKOF@Not?5enough?5memory?$AA@ 00089568     wcecompatex:string_extras.obj
 0002:0002357c       ??_C@_0CB@EPFKGNAK@Resource?5temporarily?5unavailable@ 0008957c     wcecompatex:string_extras.obj
 0002:000235a0       ??_C@_0BD@LOHELEP@No?5child?5processes?$AA@ 000895a0     wcecompatex:string_extras.obj
 0002:000235b4       ??_C@_0BE@NFGDDCEF@Bad?5file?5descriptor?$AA@ 000895b4     wcecompatex:string_extras.obj
 0002:000235c8       ??_C@_0BC@HKPNECK@Exec?5format?5error?$AA@ 000895c8     wcecompatex:string_extras.obj
 0002:000235dc       ??_C@_0BC@MFFGCDFL@Arg?5list?5too?5long?$AA@ 000895dc     wcecompatex:string_extras.obj
 0002:000235f0       ??_C@_0BK@DPKMCKJ@No?5such?5device?5or?5address?$AA@ 000895f0     wcecompatex:string_extras.obj
 0002:0002360c       ??_C@_09FIANMNHE@I?1O?5error?$AA@ 0008960c     wcecompatex:string_extras.obj
 0002:00023618       ??_C@_0BI@EAGLFFDI@Interrupted?5system?5call?$AA@ 00089618     wcecompatex:string_extras.obj
 0002:00023630       ??_C@_0BA@FKIAIBGA@No?5such?5process?$AA@ 00089630     wcecompatex:string_extras.obj
 0002:00023640       ??_C@_0BK@FMDHKPNF@No?5such?5file?5or?5directory?$AA@ 00089640     wcecompatex:string_extras.obj
 0002:0002365c       ??_C@_0BI@BJFCGOHL@Operation?5not?5permitted?$AA@ 0008965c     wcecompatex:string_extras.obj
 0002:00023674       ??_C@_08INEPGKHH@No?5error?$AA@ 00089674     wcecompatex:string_extras.obj
 0002:00023680       ??_C@_08EDHMEBNP@December?$AA@ 00089680     wcecompatex:time.obj
 0002:0002368c       ??_C@_08HCHEGEOA@November?$AA@ 0008968c     wcecompatex:time.obj
 0002:00023698       ??_C@_07JJNFCEND@October?$AA@ 00089698     wcecompatex:time.obj
 0002:000236a0       ??_C@_09BHHEALKD@September?$AA@ 000896a0     wcecompatex:time.obj
 0002:000236ac       ??_C@_06LBBHFDDG@August?$AA@ 000896ac     wcecompatex:time.obj
 0002:000236b4       ??_C@_04MIEPOIFP@July?$AA@ 000896b4     wcecompatex:time.obj
 0002:000236bc       ??_C@_04CNLMGBGM@June?$AA@ 000896bc     wcecompatex:time.obj
 0002:000236c4       ??_C@_05DMJDNLEJ@April?$AA@ 000896c4     wcecompatex:time.obj
 0002:000236cc       ??_C@_05HPCKOFNC@March?$AA@ 000896cc     wcecompatex:time.obj
 0002:000236d4       ??_C@_08GNJGEPFN@February?$AA@ 000896d4     wcecompatex:time.obj
 0002:000236e0       ??_C@_07CGJPFGJA@January?$AA@ 000896e0     wcecompatex:time.obj
 0002:000236e8       ??_C@_08INBOOONO@Saturday?$AA@ 000896e8     wcecompatex:time.obj
 0002:000236f4       ??_C@_06JECMNKMI@Friday?$AA@ 000896f4     wcecompatex:time.obj
 0002:000236fc       ??_C@_08HACCIKIA@Thursday?$AA@ 000896fc     wcecompatex:time.obj
 0002:00023708       ??_C@_09DLIGFAKA@Wednesday?$AA@ 00089708     wcecompatex:time.obj
 0002:00023714       ??_C@_07BAAGCFCM@Tuesday?$AA@ 00089714     wcecompatex:time.obj
 0002:0002371c       ??_C@_06JLEDEDGH@Monday?$AA@ 0008971c     wcecompatex:time.obj
 0002:00023724       ??_C@_06OOPIFAJ@Sunday?$AA@ 00089724     wcecompatex:time.obj
 0002:0002372c       ??_C@_03FEFJNEK@Sat?$AA@   0008972c     wcecompatex:time.obj
 0002:00023730       ??_C@_03IDIOELNC@Fri?$AA@  00089730     wcecompatex:time.obj
 0002:00023734       ??_C@_03IOFIKPDN@Thu?$AA@  00089734     wcecompatex:time.obj
 0002:00023738       ??_C@_03MHOMLAJA@Wed?$AA@  00089738     wcecompatex:time.obj
 0002:0002373c       ??_C@_03NAGEINEP@Tue?$AA@  0008973c     wcecompatex:time.obj
 0002:00023740       ??_C@_03PDAGKDH@Mon?$AA@   00089740     wcecompatex:time.obj
 0002:00023744       ??_C@_03KOEHGMDN@Sun?$AA@  00089744     wcecompatex:time.obj
 0002:00023764       __IMPORT_DESCRIPTOR_COREDLL 00089764     coredll:COREDLL.dll
 0002:00023778       __NULL_IMPORT_DESCRIPTOR   00089778     coredll:COREDLL.dll
 0003:00000000       __imp_fflush               0008a000     coredll:COREDLL.dll
 0003:00000004       __imp_fprintf              0008a004     coredll:COREDLL.dll
 0003:00000008       __imp__getstdfilex         0008a008     coredll:COREDLL.dll
 0003:0000000c       __imp_memcmp               0008a00c     coredll:COREDLL.dll
 0003:00000010       __imp_memset               0008a010     coredll:COREDLL.dll
 0003:00000014       __imp_memcpy               0008a014     coredll:COREDLL.dll
 0003:00000018       __imp_free                 0008a018     coredll:COREDLL.dll
 0003:0000001c       __imp_realloc              0008a01c     coredll:COREDLL.dll
 0003:00000020       __imp_malloc               0008a020     coredll:COREDLL.dll
 0003:00000024       __imp_strcpy               0008a024     coredll:COREDLL.dll
 0003:00000028       __imp_strlen               0008a028     coredll:COREDLL.dll
 0003:0000002c       __imp_strcmp               0008a02c     coredll:COREDLL.dll
 0003:00000030       __imp_strncpy              0008a030     coredll:COREDLL.dll
 0003:00000034       __imp_strchr               0008a034     coredll:COREDLL.dll
 0003:00000038       __imp___itod               0008a038     coredll:COREDLL.dll
 0003:0000003c       __imp___muld               0008a03c     coredll:COREDLL.dll
 0003:00000040       __imp_MessageBoxW          0008a040     coredll:COREDLL.dll
 0003:00000044       __imp__vsnwprintf          0008a044     coredll:COREDLL.dll
 0003:00000048       __imp_MultiByteToWideChar  0008a048     coredll:COREDLL.dll
 0003:0000004c       __imp_memchr               0008a04c     coredll:COREDLL.dll
 0003:00000050       __imp__isctype             0008a050     coredll:COREDLL.dll
 0003:00000054       __imp_atoi                 0008a054     coredll:COREDLL.dll
 0003:00000058       __imp_qsort                0008a058     coredll:COREDLL.dll
 0003:0000005c       __imp___rt_udiv            0008a05c     coredll:COREDLL.dll
 0003:00000060       __imp___ltd                0008a060     coredll:COREDLL.dll
 0003:00000064       __imp___negd               0008a064     coredll:COREDLL.dll
 0003:00000068       __imp___dtoi               0008a068     coredll:COREDLL.dll
 0003:0000006c       __imp___subd               0008a06c     coredll:COREDLL.dll
 0003:00000070       __imp___ged                0008a070     coredll:COREDLL.dll
 0003:00000074       __imp___rt_udiv64by64      0008a074     coredll:COREDLL.dll
 0003:00000078       __imp___rt_urem64by64      0008a078     coredll:COREDLL.dll
 0003:0000007c       __imp_tolower              0008a07c     coredll:COREDLL.dll
 0003:00000080       __imp_strncmp              0008a080     coredll:COREDLL.dll
 0003:00000084       __imp_sscanf               0008a084     coredll:COREDLL.dll
 0003:00000088       __imp__strnicmp            0008a088     coredll:COREDLL.dll
 0003:0000008c       __imp_fclose               0008a08c     coredll:COREDLL.dll
 0003:00000090       __imp_GetLastError         0008a090     coredll:COREDLL.dll
 0003:00000094       __imp_ferror               0008a094     coredll:COREDLL.dll
 0003:00000098       __imp_fread                0008a098     coredll:COREDLL.dll
 0003:0000009c       __imp_fwrite               0008a09c     coredll:COREDLL.dll
 0003:000000a0       __imp__setmode             0008a0a0     coredll:COREDLL.dll
 0003:000000a4       __imp__fileno              0008a0a4     coredll:COREDLL.dll
 0003:000000a8       __imp_fopen                0008a0a8     coredll:COREDLL.dll
 0003:000000ac       __imp_fseek                0008a0ac     coredll:COREDLL.dll
 0003:000000b0       __imp_ftell                0008a0b0     coredll:COREDLL.dll
 0003:000000b4       __imp_feof                 0008a0b4     coredll:COREDLL.dll
 0003:000000b8       __imp_strcat               0008a0b8     coredll:COREDLL.dll
 0003:000000bc       __imp_fgets                0008a0bc     coredll:COREDLL.dll
 0003:000000c0       __imp__wfopen              0008a0c0     coredll:COREDLL.dll
 0003:000000c4       __imp___rt_sdiv            0008a0c4     coredll:COREDLL.dll
 0003:000000c8       __imp___addd               0008a0c8     coredll:COREDLL.dll
 0003:000000cc       __imp_strrchr              0008a0cc     coredll:COREDLL.dll
 0003:000000d0       __imp_GetTickCount         0008a0d0     coredll:COREDLL.dll
 0003:000000d4       __imp_QueryPerformanceCounter 0008a0d4     coredll:COREDLL.dll
 0003:000000d8       __imp_GlobalMemoryStatus   0008a0d8     coredll:COREDLL.dll
 0003:000000dc       __imp_CryptReleaseContext  0008a0dc     coredll:COREDLL.dll
 0003:000000e0       __imp_CryptGenRandom       0008a0e0     coredll:COREDLL.dll
 0003:000000e4       __imp_CryptAcquireContextW 0008a0e4     coredll:COREDLL.dll
 0003:000000e8       __imp_GetVersionExW        0008a0e8     coredll:COREDLL.dll
 0003:000000ec       __imp_strtoul              0008a0ec     coredll:COREDLL.dll
 0003:000000f0       __imp__stricmp             0008a0f0     coredll:COREDLL.dll
 0003:000000f4       __imp_memmove              0008a0f4     coredll:COREDLL.dll
 0003:000000f8       __imp_LoadLibraryW         0008a0f8     coredll:COREDLL.dll
 0003:000000fc       __imp_SetLastError         0008a0fc     coredll:COREDLL.dll
 0003:00000100       __imp_FreeLibrary          0008a100     coredll:COREDLL.dll
 0003:00000104       __imp_GetProcAddressA      0008a104     coredll:COREDLL.dll
 0003:00000108       __imp_sprintf              0008a108     coredll:COREDLL.dll
 0003:0000010c       __imp_strstr               0008a10c     coredll:COREDLL.dll
 0003:00000110       __imp_WideCharToMultiByte  0008a110     coredll:COREDLL.dll
 0003:00000114       __imp_fputs                0008a114     coredll:COREDLL.dll
 0003:00000118       __imp_SystemTimeToFileTime 0008a118     coredll:COREDLL.dll
 0003:0000011c       __imp_GetSystemTime        0008a11c     coredll:COREDLL.dll
 0003:00000120       __imp_FileTimeToSystemTime 0008a120     coredll:COREDLL.dll
 0003:00000124       __imp__XcptFilter          0008a124     coredll:COREDLL.dll
 0003:00000128       __imp___C_specific_handler 0008a128     coredll:COREDLL.dll
 0003:0000012c       __imp_LocalFree            0008a12c     coredll:COREDLL.dll
 0003:00000130       __imp_FindFirstFileW       0008a130     coredll:COREDLL.dll
 0003:00000134       __imp_FindClose            0008a134     coredll:COREDLL.dll
 0003:00000138       __imp_FindNextFileW        0008a138     coredll:COREDLL.dll
 0003:0000013c       __imp_GetModuleFileNameW   0008a13c     coredll:COREDLL.dll
 0003:00000140       \177COREDLL_NULL_THUNK_DATA 0008a140     coredll:COREDLL.dll
 0003:00000144       __xc_a                     0008a144     corelibc:crt0init.obj
 0003:00000148       __xc_z                     0008a148     corelibc:crt0init.obj
 0003:0000014c       __xi_a                     0008a14c     corelibc:crt0init.obj
 0003:00000150       __xi_z                     0008a150     corelibc:crt0init.obj
 0003:00000154       __xp_a                     0008a154     corelibc:crt0init.obj
 0003:00000158       __xp_z                     0008a158     corelibc:crt0init.obj
 0003:0000015c       __xt_a                     0008a15c     corelibc:crt0init.obj
 0003:00000160       __xt_z                     0008a160     corelibc:crt0init.obj
 0003:00000168       addenum_3                  0008a168     sha256t.obj
 0003:00000184       addenum_2                  0008a184     sha256t.obj
 0003:000001a0       addenum_1                  0008a1a0     sha256t.obj
 0003:000001bc       app_b3                     0008a1bc     sha256t.obj
 0003:000001dc       app_b2                     0008a1dc     sha256t.obj
 0003:000001fc       app_b1                     0008a1fc     sha256t.obj
 0003:00000588       rand_ssleay_meth           0008a588     libeay32:md_rand.obj
 0003:000009d0       default_pctx               0008a9d0     libeay32:tasn_prn.obj
 0003:000010c8       ?messages@@3PAPADA         0008b0c8     wcecompatex:string_extras.obj
 0003:00001324       app_pkey_methods           0008b324     libeay32:pmeth_lib.obj
 0003:000029b0       OPENSSL_NONPIC_relocated   0008c9b0     libeay32:cryptlib.obj
 0003:000029e0       cleanse_ctr                0008c9e0     libeay32:mem_clr.obj
 0003:00002be8       obj_cleanup_defer          0008cbe8     libeay32:obj_dat.obj
 0003:0000320c       _environ                   0008d20c     wcecompatex:env.obj
 0003:00003210       _wenviron                  0008d210     wcecompatex:env.obj
 0003:00003214       ?num_env_vars@@3HA         0008d214     wcecompatex:env.obj
 0003:00003258       errno                      0008d258     wcecompatex:errno.obj
 0003:0000325c       ?_timezone@@3HA            0008d25c     wcecompatex:timeb.obj
 0003:00003260       ?altzone@@3HA              0008d260     wcecompatex:timeb.obj
 0003:00003264       ?timezone@@3HA             0008d264     wcecompatex:timeb.obj
 0003:00003268       sigx_app                   0008d268     <common>
 0003:0000326c       sig_app                    0008d26c     <common>
 0003:00003270       __onexitend                0008d270     <common>
 0003:00003274       __onexitbegin              0008d274     <common>
 0003:00003278       _exitflag                  0008d278     <common>

 entry point at        0001:00053be0

 Static symbols

 0001:0000037c       init                       0001137c f   libeay32:m_sha1.obj
 0001:00000390       update                     00011390 f   libeay32:m_sha1.obj
 0001:000003a4       final                      000113a4 f   libeay32:m_sha1.obj
 0001:000003cc       init224                    000113cc f   libeay32:m_sha1.obj
 0001:000003e0       init256                    000113e0 f   libeay32:m_sha1.obj
 0001:000003f4       update256                  000113f4 f   libeay32:m_sha1.obj
 0001:00000408       final256                   00011408 f   libeay32:m_sha1.obj
 0001:0000043c       init384                    0001143c f   libeay32:m_sha1.obj
 0001:00000450       init512                    00011450 f   libeay32:m_sha1.obj
 0001:00000464       update512                  00011464 f   libeay32:m_sha1.obj
 0001:00000478       final512                   00011478 f   libeay32:m_sha1.obj
 0001:0000122c       sha1_block_data_order      0001222c f   libeay32:sha1dgst.obj
 0001:00001900       sha256_block_data_order    00012900 f   libeay32:sha256.obj
 0001:00002090       sha512_block_data_order    00013090 f   libeay32:sha512.obj
 0001:00002be4       default_malloc_ex          00013be4 f   libeay32:mem.obj
 0001:00002c04       default_realloc_ex         00013c04 f   libeay32:mem.obj
 0001:00002c24       default_malloc_locked_ex   00013c24 f   libeay32:mem.obj
 0001:00002fe8       pmeth_cmp_BSEARCH_CMP_FN   00013fe8 f   libeay32:pmeth_lib.obj
 0001:00003580       err_fns_check              00014580 f   libeay32:err.obj
 0001:000035e8       err_string_data_LHASH_HASH 000145e8 f   libeay32:err.obj
 0001:00003634       err_string_data_LHASH_COMP 00014634 f   libeay32:err.obj
 0001:00003644       int_err_get                00014644 f   libeay32:err.obj
 0001:000036f0       int_err_del                000146f0 f   libeay32:err.obj
 0001:0000374c       int_err_get_item           0001474c f   libeay32:err.obj
 0001:000037d0       int_err_set_item           000147d0 f   libeay32:err.obj
 0001:00003850       int_err_del_item           00014850 f   libeay32:err.obj
 0001:000038d4       err_state_LHASH_HASH       000148d4 f   libeay32:err.obj
 0001:000038ec       err_state_LHASH_COMP       000148ec f   libeay32:err.obj
 0001:000038fc       int_thread_get             000148fc f   libeay32:err.obj
 0001:000039b4       int_thread_release         000149b4 f   libeay32:err.obj
 0001:00003a10       int_thread_get_item        00014a10 f   libeay32:err.obj
 0001:00003ab4       int_thread_set_item        00014ab4 f   libeay32:err.obj
 0001:00003b58       int_err_get_next_lib       00014b58 f   libeay32:err.obj
 0001:00003bb0       ERR_STATE_free             00014bb0 f   libeay32:err.obj
 0001:00003f68       int_thread_del_item        00014f68 f   libeay32:err.obj
 0001:00004e7c       rsa_get_public_exp         00015e7c f   libeay32:rsa_crpt.obj
 0001:00005188       sn_cmp_BSEARCH_CMP_FN      00016188 f   libeay32:obj_dat.obj
 0001:000051b4       ln_cmp_BSEARCH_CMP_FN      000161b4 f   libeay32:obj_dat.obj
 0001:00005490       obj_cmp_BSEARCH_CMP_FN     00016490 f   libeay32:obj_dat.obj
 0001:00005d24       pkey_cmac_init             00016d24 f   libeay32:cm_pmeth.obj
 0001:00005d54       pkey_cmac_copy             00016d54 f   libeay32:cm_pmeth.obj
 0001:00005d98       pkey_cmac_cleanup          00016d98 f   libeay32:cm_pmeth.obj
 0001:00005dac       pkey_cmac_keygen           00016dac f   libeay32:cm_pmeth.obj
 0001:00005e0c       int_update                 00016e0c f   libeay32:cm_pmeth.obj
 0001:00005e34       cmac_signctx_init          00016e34 f   libeay32:cm_pmeth.obj
 0001:00005e60       cmac_signctx               00016e60 f   libeay32:cm_pmeth.obj
 0001:00005e74       pkey_cmac_ctrl             00016e74 f   libeay32:cm_pmeth.obj
 0001:00005f48       pkey_cmac_ctrl_str         00016f48 f   libeay32:cm_pmeth.obj
 0001:00006058       pkey_hmac_init             00017058 f   libeay32:hm_pmeth.obj
 0001:000060bc       pkey_hmac_copy             000170bc f   libeay32:hm_pmeth.obj
 0001:00006144       pkey_hmac_cleanup          00017144 f   libeay32:hm_pmeth.obj
 0001:00006190       pkey_hmac_keygen           00017190 f   libeay32:hm_pmeth.obj
 0001:000061e4       int_update                 000171e4 f   libeay32:hm_pmeth.obj
 0001:00006210       hmac_signctx_init          00017210 f   libeay32:hm_pmeth.obj
 0001:00006250       hmac_signctx               00017250 f   libeay32:hm_pmeth.obj
 0001:000062c0       pkey_hmac_ctrl             000172c0 f   libeay32:hm_pmeth.obj
 0001:00006358       pkey_hmac_ctrl_str         00017358 f   libeay32:hm_pmeth.obj
 0001:00006418       pkey_ec_init               00017418 f   libeay32:ec_pmeth.obj
 0001:0000645c       pkey_ec_copy               0001745c f   libeay32:ec_pmeth.obj
 0001:000064bc       pkey_ec_cleanup            000174bc f   libeay32:ec_pmeth.obj
 0001:000064ec       pkey_ec_sign               000174ec f   libeay32:ec_pmeth.obj
 0001:000065b0       pkey_ec_verify             000175b0 f   libeay32:ec_pmeth.obj
 0001:00006610       pkey_ec_derive             00017610 f   libeay32:ec_pmeth.obj
 0001:000066d8       pkey_ec_ctrl               000176d8 f   libeay32:ec_pmeth.obj
 0001:00006824       pkey_ec_ctrl_str           00017824 f   libeay32:ec_pmeth.obj
 0001:000068d0       pkey_ec_paramgen           000178d0 f   libeay32:ec_pmeth.obj
 0001:00006964       pkey_ec_keygen             00017964 f   libeay32:ec_pmeth.obj
 0001:000069f8       pkey_dsa_init              000179f8 f   libeay32:dsa_pmeth.obj
 0001:00006a60       pkey_dsa_copy              00017a60 f   libeay32:dsa_pmeth.obj
 0001:00006ab4       pkey_dsa_cleanup           00017ab4 f   libeay32:dsa_pmeth.obj
 0001:00006ad0       pkey_dsa_sign              00017ad0 f   libeay32:dsa_pmeth.obj
 0001:00006b44       pkey_dsa_verify            00017b44 f   libeay32:dsa_pmeth.obj
 0001:00006ba4       pkey_dsa_ctrl              00017ba4 f   libeay32:dsa_pmeth.obj
 0001:00006d9c       pkey_dsa_ctrl_str          00017d9c f   libeay32:dsa_pmeth.obj
 0001:00006ea4       pkey_dsa_paramgen          00017ea4 f   libeay32:dsa_pmeth.obj
 0001:00006f4c       pkey_dsa_keygen            00017f4c f   libeay32:dsa_pmeth.obj
 0001:00006fe0       pkey_dh_init               00017fe0 f   libeay32:dh_pmeth.obj
 0001:00007040       pkey_dh_copy               00018040 f   libeay32:dh_pmeth.obj
 0001:0000708c       pkey_dh_cleanup            0001808c f   libeay32:dh_pmeth.obj
 0001:000070a8       pkey_dh_ctrl               000180a8 f   libeay32:dh_pmeth.obj
 0001:000070fc       pkey_dh_ctrl_str           000180fc f   libeay32:dh_pmeth.obj
 0001:000071b8       pkey_dh_paramgen           000181b8 f   libeay32:dh_pmeth.obj
 0001:00007244       pkey_dh_keygen             00018244 f   libeay32:dh_pmeth.obj
 0001:000072d4       pkey_dh_derive             000182d4 f   libeay32:dh_pmeth.obj
 0001:00007350       pkey_rsa_init              00018350 f   libeay32:rsa_pmeth.obj
 0001:000073c8       pkey_rsa_copy              000183c8 f   libeay32:rsa_pmeth.obj
 0001:00007438       setup_tbuf                 00018438 f   libeay32:rsa_pmeth.obj
 0001:00007484       pkey_rsa_cleanup           00018484 f   libeay32:rsa_pmeth.obj
 0001:000074c4       pkey_rsa_sign              000184c4 f   libeay32:rsa_pmeth.obj
 0001:000076ac       pkey_rsa_verifyrecover     000186ac f   libeay32:rsa_pmeth.obj
 0001:00007860       pkey_rsa_verify            00018860 f   libeay32:rsa_pmeth.obj
 0001:000079d8       pkey_rsa_encrypt           000189d8 f   libeay32:rsa_pmeth.obj
 0001:00007a24       pkey_rsa_decrypt           00018a24 f   libeay32:rsa_pmeth.obj
 0001:00007a70       check_padding_md           00018a70 f   libeay32:rsa_pmeth.obj
 0001:00007b00       pkey_rsa_ctrl              00018b00 f   libeay32:rsa_pmeth.obj
 0001:00007e40       pkey_rsa_ctrl_str          00018e40 f   libeay32:rsa_pmeth.obj
 0001:000080b8       pkey_rsa_keygen            000190b8 f   libeay32:rsa_pmeth.obj
 0001:000084fc       internal_find              000194fc f   libeay32:stack.obj
 0001:000088a4       pkey_set_type              000198a4 f   libeay32:p_lib.obj
 0001:00008d40       int_cb_LHASH_DOALL_ARG     00019d40 f   libeay32:eng_table.obj
 0001:00008fa8       app_info_LHASH_COMP        00019fa8 f   libeay32:mem_dbg.obj
 0001:00008fb8       app_info_LHASH_HASH        00019fb8 f   libeay32:mem_dbg.obj
 0001:00008ff0       pop_info                   00019ff0 f   libeay32:mem_dbg.obj
 0001:000092b8       expand                     0001a2b8 f   libeay32:lhash.obj
 0001:000093f0       contract                   0001a3f0 f   libeay32:lhash.obj
 0001:000094e8       getrn                      0001a4e8 f   libeay32:lhash.obj
 0001:00009a48       roundv                     0001aa48 f   libeay32:b_print.obj
 0001:00009ad8       doapr_outch                0001aad8 f   libeay32:b_print.obj
 0001:00009bcc       fmtstr                     0001abcc f   libeay32:b_print.obj
 0001:00009cfc       fmtint                     0001acfc f   libeay32:b_print.obj
 0001:0000a03c       fmtfp                      0001b03c f   libeay32:b_print.obj
 0001:0000a52c       _dopr                      0001b52c f   libeay32:b_print.obj
 0001:0000b7b0       bn_expand_internal         0001c7b0 f   libeay32:bn_lib.obj
 0001:0000c468       BN_POOL_get                0001d468 f   libeay32:bn_ctx.obj
 0001:0000c854       euclid                     0001d854 f   libeay32:bn_gcd.obj
 0001:0000c980       BN_mod_inverse_no_branch   0001d980 f   libeay32:bn_gcd.obj
 0001:0000e3a0       asn1_check_tlen            0001f3a0 f   libeay32:tasn_dec.obj
 0001:0000e5a0       asn1_template_ex_d2i       0001f5a0 f   libeay32:tasn_dec.obj
 0001:0000e7bc       asn1_find_end              0001f7bc f   libeay32:tasn_dec.obj
 0001:0000e910       asn1_collect               0001f910 f   libeay32:tasn_dec.obj
 0001:0000eb6c       asn1_d2i_ex_primitive      0001fb6c f   libeay32:tasn_dec.obj
 0001:0000f934       asn1_template_noexp_d2i    00020934 f   libeay32:tasn_dec.obj
 0001:0000fd50       asn1_template_ex_i2d       00020d50 f   libeay32:tasn_enc.obj
 0001:00010070       der_cmp                    00021070 f   libeay32:tasn_enc.obj
 0001:00010290       asn1_i2d_ex_primitive      00021290 f   libeay32:tasn_enc.obj
 0001:00010768       asn1_set_seq_out           00021768 f   libeay32:tasn_enc.obj
 0001:000109b0       asn1_item_flags_i2d        000219b0 f   libeay32:tasn_enc.obj
 0001:00010ba4       asn1_item_ex_combine_new   00021ba4 f   libeay32:tasn_new.obj
 0001:00010e84       asn1_item_clear            00021e84 f   libeay32:tasn_new.obj
 0001:000111d4       asn1_item_combine_free     000221d4 f   libeay32:tasn_fre.obj
 0001:00012e90       asn1_get_length            00023e90 f   libeay32:asn1_lib.obj
 0001:000134d0       obj_name_LHASH_HASH        000244d0 f   libeay32:o_names.obj
 0001:00013530       obj_name_LHASH_COMP        00024530 f   libeay32:o_names.obj
 0001:000136b8       sig_cmp_BSEARCH_CMP_FN     000246b8 f   libeay32:obj_xref.obj
 0001:000136c8       sigx_cmp_BSEARCH_CMP_FN    000246c8 f   libeay32:obj_xref.obj
 0001:00013838       pbe2_cmp_BSEARCH_CMP_FN    00024838 f   libeay32:evp_pbe.obj
 0001:000146a4       strip_spaces               000256a4 f   libeay32:v3_utl.obj
 0001:00014a1c       ipv4_from_asc              00025a1c f   libeay32:v3_utl.obj
 0001:00014dbc       ipv6_cb                    00025dbc f   libeay32:v3_utl.obj
 0001:00014ecc       ipv6_from_asc              00025ecc f   libeay32:v3_utl.obj
 0001:0001713c       ecdsa_data_new             0002813c f   libeay32:ecs_lib.obj
 0001:00017230       ecdsa_data_dup             00028230 f   libeay32:ecs_lib.obj
 0001:00017250       ecdsa_data_free            00028250 f   libeay32:ecs_lib.obj
 0001:00017914       ec_group_new_from_data     00028914 f   libeay32:ec_curve.obj
 0001:00017df0       sig_cb                     00028df0 f   libeay32:dsa_asn1.obj
 0001:00017e84       dsa_cb                     00028e84 f   libeay32:dsa_asn1.obj
 0001:00018ae0       trans_cb                   00029ae0 f   libeay32:pmeth_gn.obj
 0001:00018b30       dsa_builtin_keygen         00029b30 f   libeay32:dsa_key.obj
 0001:00018f8c       dh_builtin_genparams       00029f8c f   libeay32:dh_gen.obj
 0001:000191e4       generate_key               0002a1e4 f   libeay32:dh_key.obj
 0001:000193fc       compute_key                0002a3fc f   libeay32:dh_key.obj
 0001:000195b4       dh_bn_mod_exp              0002a5b4 f   libeay32:dh_key.obj
 0001:0001963c       dh_init                    0002a63c f   libeay32:dh_key.obj
 0001:00019654       dh_finish                  0002a654 f   libeay32:dh_key.obj
 0001:0001a3a8       cms_RecipientInfo_ktri_encrypt 0002b3a8 f   libeay32:cms_env.obj
 0001:0001a534       cms_RecipientInfo_kekri_encrypt 0002b534 f   libeay32:cms_env.obj
 0001:0001ab18       rsa_builtin_keygen         0002bb18 f   libeay32:rsa_gen.obj
 0001:0001b100       ameth_cmp_BSEARCH_CMP_FN   0002c100 f   libeay32:ameth_lib.obj
 0001:0001b4b0       file_new                   0002c4b0 f   libeay32:bss_file.obj
 0001:0001b4cc       file_free                  0002c4cc f   libeay32:bss_file.obj
 0001:0001b528       file_read                  0002c528 f   libeay32:bss_file.obj
 0001:0001b5c8       file_write                 0002c5c8 f   libeay32:bss_file.obj
 0001:0001b614       file_ctrl                  0002c614 f   libeay32:bss_file.obj
 0001:0001b8a8       file_gets                  0002c8a8 f   libeay32:bss_file.obj
 0001:0001b8fc       file_puts                  0002c8fc f   libeay32:bss_file.obj
 0001:0001bb78       impl_check                 0002cb78 f   libeay32:ex_data.obj
 0001:0001bbcc       ex_class_item_LHASH_HASH   0002cbcc f   libeay32:ex_data.obj
 0001:0001bbd4       ex_class_item_LHASH_COMP   0002cbd4 f   libeay32:ex_data.obj
 0001:0001bbe4       ex_data_check              0002cbe4 f   libeay32:ex_data.obj
 0001:0001bc60       def_cleanup_util_cb        0002cc60 f   libeay32:ex_data.obj
 0001:0001bc70       def_cleanup_cb             0002cc70 f   libeay32:ex_data.obj
 0001:0001bc98       def_get_class              0002cc98 f   libeay32:ex_data.obj
 0001:0001bd94       def_add_index              0002cd94 f   libeay32:ex_data.obj
 0001:0001bec8       int_new_class              0002cec8 f   libeay32:ex_data.obj
 0001:0001bf20       int_cleanup                0002cf20 f   libeay32:ex_data.obj
 0001:0001bf74       int_get_new_index          0002cf74 f   libeay32:ex_data.obj
 0001:0001c174       int_new_ex_data            0002d174 f   libeay32:ex_data.obj
 0001:0001c2f0       int_dup_ex_data            0002d2f0 f   libeay32:ex_data.obj
 0001:0001c498       int_free_ex_data           0002d498 f   libeay32:ex_data.obj
 0001:0001c6b8       look_str_cb                0002d6b8 f   libeay32:tb_asnmth.obj
 0001:0001d774       MOD_EXP_CTIME_COPY_FROM_PREBUF 0002e774 f   libeay32:bn_exp.obj
 0001:0001e6f4       bnrand                     0002f6f4 f   libeay32:bn_rand.obj
 0001:0001e95c       bn_rand_range              0002f95c f   libeay32:bn_rand.obj
 0001:0001f2f0       ssleay_rand_cleanup        000302f0 f   libeay32:md_rand.obj
 0001:0001f358       ssleay_rand_add            00030358 f   libeay32:md_rand.obj
 0001:0001f6f0       ssleay_rand_seed           000306f0 f   libeay32:md_rand.obj
 0001:0001f730       ssleay_rand_bytes          00030730 f   libeay32:md_rand.obj
 0001:0001fb6c       ssleay_rand_nopseudo_bytes 00030b6c f   libeay32:md_rand.obj
 0001:0001fb80       ssleay_rand_pseudo_bytes   00030b80 f   libeay32:md_rand.obj
 0001:0001fb94       ssleay_rand_status         00030b94 f   libeay32:md_rand.obj
 0001:000228f0       i2v_AUTHORITY_INFO_ACCESS  000338f0 f   libeay32:v3_info.obj
 0001:00022a2c       v2i_AUTHORITY_INFO_ACCESS  00033a2c f   libeay32:v3_info.obj
 0001:00022f8c       ext_cmp_BSEARCH_CMP_FN     00033f8c f   libeay32:v3_lib.obj
 0001:000231c0       ec_pre_comp_dup            000341c0 f   libeay32:ec_mult.obj
 0001:000231fc       ec_pre_comp_free           000341fc f   libeay32:ec_mult.obj
 0001:00023278       ec_pre_comp_clear_free     00034278 f   libeay32:ec_mult.obj
 0001:0002330c       compute_wNAF               0003430c f   libeay32:ec_mult.obj
 0001:0002472c       ecdsa_sign_setup           0003572c f   libeay32:ecs_ossl.obj
 0001:00024b14       ecdsa_do_sign              00035b14 f   libeay32:ecs_ossl.obj
 0001:00024efc       ecdsa_do_verify            00035efc f   libeay32:ecs_ossl.obj
 0001:00025408       ecdh_data_new              00036408 f   libeay32:ech_lib.obj
 0001:000254fc       ecdh_data_dup              000364fc f   libeay32:ech_lib.obj
 0001:0002551c       ecdh_data_free             0003651c f   libeay32:ech_lib.obj
 0001:00025724       bn_new                     00036724 f   libeay32:x_bignum.obj
 0001:0002574c       bn_free                    0003674c f   libeay32:x_bignum.obj
 0001:00025788       bn_i2c                     00036788 f   libeay32:x_bignum.obj
 0001:000257f8       bn_c2i                     000367f8 f   libeay32:x_bignum.obj
 0001:00025870       long_new                   00036870 f   libeay32:x_long.obj
 0001:00025884       long_free                  00036884 f   libeay32:x_long.obj
 0001:00025890       long_i2c                   00036890 f   libeay32:x_long.obj
 0001:00025948       long_c2i                   00036948 f   libeay32:x_long.obj
 0001:00025a3c       long_print                 00036a3c f   libeay32:x_long.obj
 0001:00025b2c       dsa_do_sign                00036b2c f   libeay32:dsa_ossl.obj
 0001:00025d7c       dsa_sign_setup             00036d7c f   libeay32:dsa_ossl.obj
 0001:00026018       dsa_do_verify              00037018 f   libeay32:dsa_ossl.obj
 0001:00026330       dsa_init                   00037330 f   libeay32:dsa_ossl.obj
 0001:00026348       dsa_finish                 00037348 f   libeay32:dsa_ossl.obj
 0001:0002638c       BN_from_montgomery_word    0003738c f   libeay32:bn_mont.obj
 0001:00026b78       witness                    00037b78 f   libeay32:bn_prime.obj
 0001:00026c84       probable_prime_dh          00037c84 f   libeay32:bn_prime.obj
 0001:00026da8       probable_prime_dh_safe     00037da8 f   libeay32:bn_prime.obj
 0001:00027d4c       cms_si_cb                  00038d4c f   libeay32:cms_asn1.obj
 0001:00027e60       cms_ri_cb                  00038e60 f   libeay32:cms_asn1.obj
 0001:00027f30       CMS_ContentInfo_adb        00038f30 f   libeay32:cms_asn1.obj
 0001:00027f3c       cms_cb                     00038f3c f   libeay32:cms_asn1.obj
 0001:00028920       cms_get0_signed            00039920 f   libeay32:cms_sd.obj
 0001:00028974       cms_sd_set_version         00039974 f   libeay32:cms_sd.obj
 0001:00028e30       cms_SignerInfo_content_sign 00039e30 f   libeay32:cms_sd.obj
 0001:0002911c       nid_cmp_BSEARCH_CMP_FN     0003a11c f   libeay32:v3_purp.obj
 0001:00029188       setup_crldp                0003a188 f   libeay32:v3_purp.obj
 0001:000292bc       x509v3_cache_extensions    0003a2bc f   libeay32:v3_purp.obj
 0001:000297a0       check_ca                   0003a7a0 f   libeay32:v3_purp.obj
 0001:00029808       check_purpose_ssl_client   0003a808 f   libeay32:v3_purp.obj
 0001:00029898       check_purpose_ssl_server   0003a898 f   libeay32:v3_purp.obj
 0001:00029928       check_purpose_ns_ssl_server 0003a928 f   libeay32:v3_purp.obj
 0001:00029968       purpose_smime              0003a968 f   libeay32:v3_purp.obj
 0001:000299f4       check_purpose_smime_sign   0003a9f4 f   libeay32:v3_purp.obj
 0001:00029a3c       check_purpose_smime_encrypt 0003aa3c f   libeay32:v3_purp.obj
 0001:00029a84       check_purpose_crl_sign     0003aa84 f   libeay32:v3_purp.obj
 0001:00029ad8       ocsp_helper                0003aad8 f   libeay32:v3_purp.obj
 0001:00029b00       check_purpose_timestamp_sign 0003ab00 f   libeay32:v3_purp.obj
 0001:00029b9c       no_check                   0003ab9c f   libeay32:v3_purp.obj
 0001:0002a1e4       kek_unwrap_key             0003b1e4 f   libeay32:cms_pwri.obj
 0001:0002a368       kek_wrap_key               0003b368 f   libeay32:cms_pwri.obj
 0001:0002a7e0       RSA_eay_public_encrypt     0003b7e0 f   libeay32:rsa_eay.obj
 0001:0002ab30       rsa_get_blinding           0003bb30 f   libeay32:rsa_eay.obj
 0001:0002aca0       rsa_blinding_convert       0003bca0 f   libeay32:rsa_eay.obj
 0001:0002ad28       RSA_eay_private_encrypt    0003bd28 f   libeay32:rsa_eay.obj
 0001:0002b194       RSA_eay_private_decrypt    0003c194 f   libeay32:rsa_eay.obj
 0001:0002b604       RSA_eay_public_decrypt     0003c604 f   libeay32:rsa_eay.obj
 0001:0002b97c       RSA_eay_mod_exp            0003c97c f   libeay32:rsa_eay.obj
 0001:0002bf98       RSA_eay_init               0003cf98 f   libeay32:rsa_eay.obj
 0001:0002bfb0       RSA_eay_finish             0003cfb0 f   libeay32:rsa_eay.obj
 0001:0002c018       cmac_size                  0003d018 f   libeay32:cm_ameth.obj
 0001:0002c020       cmac_key_free              0003d020 f   libeay32:cm_ameth.obj
 0001:0002c03c       hmac_size                  0003d03c f   libeay32:hm_ameth.obj
 0001:0002c044       hmac_key_free              0003d044 f   libeay32:hm_ameth.obj
 0001:0002c078       hmac_pkey_ctrl             0003d078 f   libeay32:hm_ameth.obj
 0001:0002c090       old_hmac_decode            0003d090 f   libeay32:hm_ameth.obj
 0001:0002c0f0       old_hmac_encode            0003d0f0 f   libeay32:hm_ameth.obj
 0001:0002c160       eckey_param2type           0003d160 f   libeay32:ec_ameth.obj
 0001:0002c248       eckey_pub_encode           0003d248 f   libeay32:ec_ameth.obj
 0001:0002c34c       eckey_type2param           0003d34c f   libeay32:ec_ameth.obj
 0001:0002c458       eckey_pub_decode           0003d458 f   libeay32:ec_ameth.obj
 0001:0002c554       eckey_pub_cmp              0003d554 f   libeay32:ec_ameth.obj
 0001:0002c5bc       eckey_priv_decode          0003d5bc f   libeay32:ec_ameth.obj
 0001:0002c7e4       eckey_priv_encode          0003d7e4 f   libeay32:ec_ameth.obj
 0001:0002c97c       int_ec_size                0003d97c f   libeay32:ec_ameth.obj
 0001:0002c990       ec_bits                    0003d990 f   libeay32:ec_ameth.obj
 0001:0002c9ec       ec_missing_parameters      0003d9ec f   libeay32:ec_ameth.obj
 0001:0002ca10       ec_copy_parameters         0003da10 f   libeay32:ec_ameth.obj
 0001:0002ca60       ec_cmp_parameters          0003da60 f   libeay32:ec_ameth.obj
 0001:0002caa4       int_ec_free                0003daa4 f   libeay32:ec_ameth.obj
 0001:0002cab8       do_EC_KEY_print            0003dab8 f   libeay32:ec_ameth.obj
 0001:0002cd4c       eckey_param_decode         0003dd4c f   libeay32:ec_ameth.obj
 0001:0002cdb0       eckey_param_encode         0003ddb0 f   libeay32:ec_ameth.obj
 0001:0002cdc4       eckey_param_print          0003ddc4 f   libeay32:ec_ameth.obj
 0001:0002cddc       eckey_pub_print            0003dddc f   libeay32:ec_ameth.obj
 0001:0002cdf4       eckey_priv_print           0003ddf4 f   libeay32:ec_ameth.obj
 0001:0002ce0c       old_ec_priv_decode         0003de0c f   libeay32:ec_ameth.obj
 0001:0002ce74       old_ec_priv_encode         0003de74 f   libeay32:ec_ameth.obj
 0001:0002ce88       ec_pkey_ctrl               0003de88 f   libeay32:ec_ameth.obj
 0001:0002cfdc       dsa_pub_decode             0003dfdc f   libeay32:dsa_ameth.obj
 0001:0002d188       dsa_pub_encode             0003e188 f   libeay32:dsa_ameth.obj
 0001:0002d2c4       dsa_priv_decode            0003e2c4 f   libeay32:dsa_ameth.obj
 0001:0002d5b0       dsa_priv_encode            0003e5b0 f   libeay32:dsa_ameth.obj
 0001:0002d708       int_dsa_size               0003e708 f   libeay32:dsa_ameth.obj
 0001:0002d71c       dsa_bits                   0003e71c f   libeay32:dsa_ameth.obj
 0001:0002d734       dsa_missing_parameters     0003e734 f   libeay32:dsa_ameth.obj
 0001:0002d764       dsa_copy_parameters        0003e764 f   libeay32:dsa_ameth.obj
 0001:0002d818       dsa_cmp_parameters         0003e818 f   libeay32:dsa_ameth.obj
 0001:0002d88c       dsa_pub_cmp                0003e88c f   libeay32:dsa_ameth.obj
 0001:0002d8bc       int_dsa_free               0003e8bc f   libeay32:dsa_ameth.obj
 0001:0002d8d0       do_dsa_print               0003e8d0 f   libeay32:dsa_ameth.obj
 0001:0002db58       dsa_param_decode           0003eb58 f   libeay32:dsa_ameth.obj
 0001:0002dbbc       dsa_param_encode           0003ebbc f   libeay32:dsa_ameth.obj
 0001:0002dbd0       dsa_param_print            0003ebd0 f   libeay32:dsa_ameth.obj
 0001:0002dbe8       dsa_pub_print              0003ebe8 f   libeay32:dsa_ameth.obj
 0001:0002dc00       dsa_priv_print             0003ec00 f   libeay32:dsa_ameth.obj
 0001:0002dc18       old_dsa_priv_decode        0003ec18 f   libeay32:dsa_ameth.obj
 0001:0002dc80       old_dsa_priv_encode        0003ec80 f   libeay32:dsa_ameth.obj
 0001:0002dc94       dsa_sig_print              0003ec94 f   libeay32:dsa_ameth.obj
 0001:0002de24       dsa_pkey_ctrl              0003ee24 f   libeay32:dsa_ameth.obj
 0001:0002df78       int_dh_free                0003ef78 f   libeay32:dh_ameth.obj
 0001:0002df8c       dh_pub_decode              0003ef8c f   libeay32:dh_ameth.obj
 0001:0002e0fc       dh_pub_encode              0003f0fc f   libeay32:dh_ameth.obj
 0001:0002e210       dh_priv_decode             0003f210 f   libeay32:dh_ameth.obj
 0001:0002e344       dh_priv_encode             0003f344 f   libeay32:dh_ameth.obj
 0001:0002e490       dh_param_decode            0003f490 f   libeay32:dh_ameth.obj
 0001:0002e4f4       dh_param_encode            0003f4f4 f   libeay32:dh_ameth.obj
 0001:0002e508       do_dh_print                0003f508 f   libeay32:dh_ameth.obj
 0001:0002e794       int_dh_size                0003f794 f   libeay32:dh_ameth.obj
 0001:0002e7a8       dh_bits                    0003f7a8 f   libeay32:dh_ameth.obj
 0001:0002e7c0       dh_cmp_parameters          0003f7c0 f   libeay32:dh_ameth.obj
 0001:0002e818       dh_copy_parameters         0003f818 f   libeay32:dh_ameth.obj
 0001:0002e89c       dh_missing_parameters      0003f89c f   libeay32:dh_ameth.obj
 0001:0002e8bc       dh_pub_cmp                 0003f8bc f   libeay32:dh_ameth.obj
 0001:0002e908       dh_param_print             0003f908 f   libeay32:dh_ameth.obj
 0001:0002e92c       dh_public_print            0003f92c f   libeay32:dh_ameth.obj
 0001:0002e950       dh_private_print           0003f950 f   libeay32:dh_ameth.obj
 0001:0002e974       rsa_pub_encode             0003f974 f   libeay32:rsa_ameth.obj
 0001:0002e9ec       rsa_pub_decode             0003f9ec f   libeay32:rsa_ameth.obj
 0001:0002ea7c       rsa_pub_cmp                0003fa7c f   libeay32:rsa_ameth.obj
 0001:0002ead4       old_rsa_priv_decode        0003fad4 f   libeay32:rsa_ameth.obj
 0001:0002eb38       old_rsa_priv_encode        0003fb38 f   libeay32:rsa_ameth.obj
 0001:0002eb4c       rsa_priv_encode            0003fb4c f   libeay32:rsa_ameth.obj
 0001:0002ec0c       rsa_priv_decode            0003fc0c f   libeay32:rsa_ameth.obj
 0001:0002ec58       int_rsa_size               0003fc58 f   libeay32:rsa_ameth.obj
 0001:0002ec6c       rsa_bits                   0003fc6c f   libeay32:rsa_ameth.obj
 0001:0002ec84       int_rsa_free               0003fc84 f   libeay32:rsa_ameth.obj
 0001:0002ec98       do_rsa_print               0003fc98 f   libeay32:rsa_ameth.obj
 0001:0002f034       rsa_pub_print              00040034 f   libeay32:rsa_ameth.obj
 0001:0002f04c       rsa_priv_print             0004004c f   libeay32:rsa_ameth.obj
 0001:0002f064       rsa_pss_decode             00040064 f   libeay32:rsa_ameth.obj
 0001:0002f12c       rsa_pss_param_print        0004012c f   libeay32:rsa_ameth.obj
 0001:0002f380       rsa_sig_print              00040380 f   libeay32:rsa_ameth.obj
 0001:0002f448       rsa_pkey_ctrl              00040448 f   libeay32:rsa_ameth.obj
 0001:0002f538       rsa_item_verify            00040538 f   libeay32:rsa_ameth.obj
 0001:0002f808       rsa_item_sign              00040808 f   libeay32:rsa_ameth.obj
 0001:00030124       readtimer                  00041124 f   libeay32:rand_win.obj
 0001:00030a34       x509_name_ex_new           00041a34 f   libeay32:x_name.obj
 0001:00030ae8       x509_name_ex_free          00041ae8 f   libeay32:x_name.obj
 0001:00030b40       local_sk_X509_NAME_ENTRY_free 00041b40 f   libeay32:x_name.obj
 0001:00030b50       local_sk_X509_NAME_ENTRY_pop_free 00041b50 f   libeay32:x_name.obj
 0001:00030b68       x509_name_encode           00041b68 f   libeay32:x_name.obj
 0001:00030cd0       x509_name_ex_print         00041cd0 f   libeay32:x_name.obj
 0001:00030cfc       asn1_string_canon          00041cfc f   libeay32:x_name.obj
 0001:00030e68       i2d_name_canon             00041e68 f   libeay32:x_name.obj
 0001:00030ef4       x509_name_canon            00041ef4 f   libeay32:x_name.obj
 0001:00031078       x509_name_ex_d2i           00042078 f   libeay32:x_name.obj
 0001:00031234       x509_name_ex_i2d           00042234 f   libeay32:x_name.obj
 0001:000313a8       table_cmp_BSEARCH_CMP_FN   000423a8 f   libeay32:a_strnid.obj
 0001:0003186c       copy_issuer                0004286c f   libeay32:v3_alt.obj
 0001:0003199c       copy_email                 0004299c f   libeay32:v3_alt.obj
 0001:00031b30       do_othername               00042b30 f   libeay32:v3_alt.obj
 0001:00031c0c       do_dirname                 00042c0c f   libeay32:v3_alt.obj
 0001:00032168       v2i_issuer_alt             00043168 f   libeay32:v3_alt.obj
 0001:0003228c       v2i_subject_alt            0004328c f   libeay32:v3_alt.obj
 0001:00032948       init                       00043948 f   libeay32:m_md5.obj
 0001:0003295c       update                     0004395c f   libeay32:m_md5.obj
 0001:00032970       final                      00043970 f   libeay32:m_md5.obj
 0001:00032d3c       pubkey_cb                  00043d3c f   libeay32:x_pubkey.obj
 0001:00032fe8       gnames_from_sectname       00043fe8 f   libeay32:v3_crld.obj
 0001:0003309c       set_reasons                0004409c f   libeay32:v3_crld.obj
 0001:000331a4       print_reasons              000441a4 f   libeay32:v3_crld.obj
 0001:0003327c       dpn_cb                     0004427c f   libeay32:v3_crld.obj
 0001:00033338       print_gens                 00044338 f   libeay32:v3_crld.obj
 0001:000333c0       print_distpoint            000443c0 f   libeay32:v3_crld.obj
 0001:00033468       i2r_idp                    00044468 f   libeay32:v3_crld.obj
 0001:00033598       i2r_crldp                  00044598 f   libeay32:v3_crld.obj
 0001:0003372c       set_dist_point_name        0004472c f   libeay32:v3_crld.obj
 0001:00033918       crldp_from_section         00044918 f   libeay32:v3_crld.obj
 0001:00033a04       v2i_crld                   00044a04 f   libeay32:v3_crld.obj
 0001:00033bc4       v2i_idp                    00044bc4 f   libeay32:v3_crld.obj
 0001:00033d90       s2i_asn1_int               00044d90 f   libeay32:v3_int.obj
 0001:00033dd4       i2v_POLICY_MAPPINGS        00044dd4 f   libeay32:v3_pmaps.obj
 0001:00033e60       v2i_POLICY_MAPPINGS        00044e60 f   libeay32:v3_pmaps.obj
 0001:00034070       v2i_NAME_CONSTRAINTS       00045070 f   libeay32:v3_ncons.obj
 0001:00034224       do_i2r_name_constraints    00045224 f   libeay32:v3_ncons.obj
 0001:000343d4       i2r_NAME_CONSTRAINTS       000453d4 f   libeay32:v3_ncons.obj
 0001:00034430       i2r_pci                    00045430 f   libeay32:v3_pci.obj
 0001:00034510       process_pci_value          00045510 f   libeay32:v3_pci.obj
 0001:00034c40       r2i_pci                    00045c40 f   libeay32:v3_pci.obj
 0001:00034f88       i2r_ocsp_crlid             00045f88 f   libeay32:v3_ocsp.obj
 0001:000350c0       i2r_ocsp_acutoff           000460c0 f   libeay32:v3_ocsp.obj
 0001:00035120       i2r_object                 00046120 f   libeay32:v3_ocsp.obj
 0001:00035180       ocsp_nonce_new             00046180 f   libeay32:v3_ocsp.obj
 0001:00035190       i2d_ocsp_nonce             00046190 f   libeay32:v3_ocsp.obj
 0001:000351cc       d2i_ocsp_nonce             000461cc f   libeay32:v3_ocsp.obj
 0001:00035280       ocsp_nonce_free            00046280 f   libeay32:v3_ocsp.obj
 0001:00035290       i2r_ocsp_nonce             00046290 f   libeay32:v3_ocsp.obj
 0001:000352f4       i2r_ocsp_nocheck           000462f4 f   libeay32:v3_ocsp.obj
 0001:000352fc       s2i_ocsp_nocheck           000462fc f   libeay32:v3_ocsp.obj
 0001:0003530c       i2r_ocsp_serviceloc        0004630c f   libeay32:v3_ocsp.obj
 0001:0003541c       i2v_POLICY_CONSTRAINTS     0004641c f   libeay32:v3_pcons.obj
 0001:00035460       v2i_POLICY_CONSTRAINTS     00046460 f   libeay32:v3_pcons.obj
 0001:000355dc       i2v_EXTENDED_KEY_USAGE     000465dc f   libeay32:v3_extku.obj
 0001:00035654       v2i_EXTENDED_KEY_USAGE     00046654 f   libeay32:v3_extku.obj
 0001:00035788       sxnet_i2r                  00046788 f   libeay32:v3_sxnet.obj
 0001:00035adc       sxnet_v2i                  00046adc f   libeay32:v3_sxnet.obj
 0001:00035bb8       i2v_AUTHORITY_KEYID        00046bb8 f   libeay32:v3_akey.obj
 0001:00035c70       v2i_AUTHORITY_KEYID        00046c70 f   libeay32:v3_akey.obj
 0001:00035f80       POLICYQUALINFO_adb         00046f80 f   libeay32:v3_cpols.obj
 0001:00035fc8       nref_nos                   00046fc8 f   libeay32:v3_cpols.obj
 0001:000360a4       notice_section             000470a4 f   libeay32:v3_cpols.obj
 0001:00036388       print_qualifiers           00047388 f   libeay32:v3_cpols.obj
 0001:00036578       policy_section             00047578 f   libeay32:v3_cpols.obj
 0001:000368e4       i2r_certpol                000478e4 f   libeay32:v3_cpols.obj
 0001:00036988       r2i_certpol                00047988 f   libeay32:v3_cpols.obj
 0001:00036c74       i2v_BASIC_CONSTRAINTS      00047c74 f   libeay32:v3_bcons.obj
 0001:00036cb8       v2i_BASIC_CONSTRAINTS      00047cb8 f   libeay32:v3_bcons.obj
 0001:00036e0c       i2r_PKEY_USAGE_PERIOD      00047e0c f   libeay32:v3_pku.obj
 0001:00037140       s2i_skey_id                00048140 f   libeay32:v3_skey.obj
 0001:000372c4       i2s_ASN1_IA5STRING         000482c4 f   libeay32:v3_ia5.obj
 0001:0003734c       s2i_ASN1_IA5STRING         0004834c f   libeay32:v3_ia5.obj
 0001:00037480       nconf_get_string           00048480 f   libeay32:v3_conf.obj
 0001:00037490       nconf_get_section          00048490 f   libeay32:v3_conf.obj
 0001:000374a0       conf_lhash_get_string      000484a0 f   libeay32:v3_conf.obj
 0001:000374b0       conf_lhash_get_section     000484b0 f   libeay32:v3_conf.obj
 0001:000374c0       rinf_cb                    000484c0 f   libeay32:x_req.obj
 0001:00037a68       ecdh_compute_key           00048a68 f   libeay32:ech_ossl.obj
 0001:00039e0c       crl_set_issuers            0004ae0c f   libeay32:x_crl.obj
 0001:00039f98       setup_idp                  0004af98 f   libeay32:x_crl.obj
 0001:0003a09c       X509_REVOKED_cmp           0004b09c f   libeay32:x_crl.obj
 0001:0003a0bc       def_crl_verify             0004b0bc f   libeay32:x_crl.obj
 0001:0003a0f0       def_crl_lookup             0004b0f0 f   libeay32:x_crl.obj
 0001:0003a27c       crl_inf_cb                 0004b27c f   libeay32:x_crl.obj
 0001:0003a2b8       crl_cb                     0004b2b8 f   libeay32:x_crl.obj
 0001:0003a51c       x509_cb                    0004b51c f   libeay32:x_x509.obj
 0001:0003a6d8       md_new                     0004b6d8 f   libeay32:bio_md.obj
 0001:0003a70c       md_free                    0004b70c f   libeay32:bio_md.obj
 0001:0003a744       md_read                    0004b744 f   libeay32:bio_md.obj
 0001:0003a7d4       md_write                   0004b7d4 f   libeay32:bio_md.obj
 0001:0003a884       md_ctrl                    0004b884 f   libeay32:bio_md.obj
 0001:0003a9d0       md_callback_ctrl           0004b9d0 f   libeay32:bio_md.obj
 0001:0003a9f8       md_gets                    0004b9f8 f   libeay32:bio_md.obj
 0001:0003aad4       mem_new                    0004bad4 f   libeay32:bss_mem.obj
 0001:0003ab10       mem_free                   0004bb10 f   libeay32:bss_mem.obj
 0001:0003ab6c       mem_read                   0004bb6c f   libeay32:bss_mem.obj
 0001:0003ac20       mem_write                  0004bc20 f   libeay32:bss_mem.obj
 0001:0003acd8       mem_ctrl                   0004bcd8 f   libeay32:bss_mem.obj
 0001:0003ae18       mem_gets                   0004be18 f   libeay32:bss_mem.obj
 0001:0003aea4       mem_puts                   0004bea4 f   libeay32:bss_mem.obj
 0001:0003aedc       null_new                   0004bedc f   libeay32:bss_null.obj
 0001:0003aef8       null_free                  0004bef8 f   libeay32:bss_null.obj
 0001:0003af08       null_read                  0004bf08 f   libeay32:bss_null.obj
 0001:0003af10       null_write                 0004bf10 f   libeay32:bss_null.obj
 0001:0003af18       null_ctrl                  0004bf18 f   libeay32:bss_null.obj
 0001:0003af58       null_gets                  0004bf58 f   libeay32:bss_null.obj
 0001:0003af60       null_puts                  0004bf60 f   libeay32:bss_null.obj
 0001:0003b0a8       enc_new                    0004c0a8 f   libeay32:bio_enc.obj
 0001:0003b114       enc_free                   0004c114 f   libeay32:bio_enc.obj
 0001:0003b168       enc_read                   0004c168 f   libeay32:bio_enc.obj
 0001:0003b308       enc_write                  0004c308 f   libeay32:bio_enc.obj
 0001:0003b450       enc_ctrl                   0004c450 f   libeay32:bio_enc.obj
 0001:0003b64c       enc_callback_ctrl          0004c64c f   libeay32:bio_enc.obj
 0001:0003b8b4       do_sigver_init             0004c8b4 f   libeay32:m_sigver.obj
 0001:0003d600       X9_62_CHARACTERISTIC_TWO_adb 0004e600 f   libeay32:ec_asn1.obj
 0001:0003d618       X9_62_FIELDID_adb          0004e618 f   libeay32:ec_asn1.obj
 0001:0003d654       ec_asn1_group2fieldid      0004e654 f   libeay32:ec_asn1.obj
 0001:0003d9c8       ec_asn1_group2curve        0004e9c8 f   libeay32:ec_asn1.obj
 0001:0003ddb0       ec_asn1_group2parameters   0004edb0 f   libeay32:ec_asn1.obj
 0001:0003e144       ec_asn1_group2pkparameters 0004f144 f   libeay32:ec_asn1.obj
 0001:0003e244       ec_asn1_parameters2group   0004f244 f   libeay32:ec_asn1.obj
 0001:0003ea40       ec_asn1_pkparameters2group 0004fa40 f   libeay32:ec_asn1.obj
 0001:0003f684       pkey_cb                    00050684 f   libeay32:p8_pkey.obj
 0001:0003f81c       print_bin                  0005081c f   libeay32:eck_prn.obj
 0001:00040930       dh_cb                      00051930 f   libeay32:dh_asn1.obj
 0001:000409bc       rsa_cb                     000519bc f   libeay32:rsa_asn1.obj
 0001:00040cb4       send_bio_chars             00051cb4 f   libeay32:a_strex.obj
 0001:00040ce4       do_esc_char                00051ce4 f   libeay32:a_strex.obj
 0001:00040ed0       do_buf                     00051ed0 f   libeay32:a_strex.obj
 0001:0004107c       do_hex_dump                0005207c f   libeay32:a_strex.obj
 0001:00041108       do_dump                    00052108 f   libeay32:a_strex.obj
 0001:000411f4       do_print_ex                000521f4 f   libeay32:a_strex.obj
 0001:000413c4       do_indent                  000523c4 f   libeay32:a_strex.obj
 0001:00041424       do_name_ex                 00052424 f   libeay32:a_strex.obj
 0001:00041890       traverse_string            00052890 f   libeay32:a_mbstr.obj
 0001:00041990       in_utf8                    00052990 f   libeay32:a_mbstr.obj
 0001:000419a4       out_utf8                   000529a4 f   libeay32:a_mbstr.obj
 0001:000419d8       cpy_asc                    000529d8 f   libeay32:a_mbstr.obj
 0001:000419f8       cpy_bmp                    000529f8 f   libeay32:a_mbstr.obj
 0001:00041a28       cpy_univ                   00052a28 f   libeay32:a_mbstr.obj
 0001:00041a68       cpy_utf8                   00052a68 f   libeay32:a_mbstr.obj
 0001:00041a9c       type_str                   00052a9c f   libeay32:a_mbstr.obj
 0001:00042080       parse_tagging              00053080 f   libeay32:asn1_gen.obj
 0001:000421c0       append_exp                 000531c0 f   libeay32:asn1_gen.obj
 0001:0004229c       bitstr_cb                  0005329c f   libeay32:asn1_gen.obj
 0001:00042368       asn1_cb                    00053368 f   libeay32:asn1_gen.obj
 0001:000427b0       asn1_str2type              000537b0 f   libeay32:asn1_gen.obj
 0001:00042fcc       asn1_multi                 00053fcc f   libeay32:asn1_gen.obj
 0001:0004312c       def_create                 0005412c f   libeay32:conf_def.obj
 0001:00043180       def_init_default           00054180 f   libeay32:conf_def.obj
 0001:000431a8       def_init_WIN32             000541a8 f   libeay32:conf_def.obj
 0001:000431d0       def_destroy_data           000541d0 f   libeay32:conf_def.obj
 0001:000431f4       str_copy                   000541f4 f   libeay32:conf_def.obj
 0001:000435a0       dump_value_LHASH_DOALL_ARG 000545a0 f   libeay32:conf_def.obj
 0001:000435f4       def_dump                   000545f4 f   libeay32:conf_def.obj
 0001:00043618       def_is_number              00054618 f   libeay32:conf_def.obj
 0001:00043630       def_to_int                 00054630 f   libeay32:conf_def.obj
 0001:00043638       def_destroy                00054638 f   libeay32:conf_def.obj
 0001:0004366c       clear_comments             0005466c f   libeay32:conf_def.obj
 0001:000437b8       def_load_bio               000547b8 f   libeay32:conf_def.obj
 0001:00043ff0       def_load                   00054ff0 f   libeay32:conf_def.obj
 0001:00044238       conf_value_LHASH_HASH      00055238 f   libeay32:conf_api.obj
 0001:00044260       conf_value_LHASH_COMP      00055260 f   libeay32:conf_api.obj
 0001:00044404       value_free_hash_LHASH_DOALL_ARG 00055404 f   libeay32:conf_api.obj
 0001:00044428       value_free_stack_LHASH_DOALL 00055428 f   libeay32:conf_api.obj
 0001:00045830       PKCS7_adb                  00056830 f   libeay32:pk7_asn1.obj
 0001:0004583c       pk7_cb                     0005683c f   libeay32:pk7_asn1.obj
 0001:000458d8       si_cb                      000568d8 f   libeay32:pk7_asn1.obj
 0001:0004591c       ri_cb                      0005691c f   libeay32:pk7_asn1.obj
 0001:0004801c       nist_cp_bn_0               0005901c f   libeay32:bn_nist.obj
 0001:000492fc       gf2m_Mdouble               0005a2fc f   libeay32:ec2_mult.obj
 0001:00049458       gf2m_Madd                  0005a458 f   libeay32:ec2_mult.obj
 0001:000495d0       gf2m_Mxy                   0005a5d0 f   libeay32:ec2_mult.obj
 0001:0004997c       ec_GF2m_montgomery_point_multiply 0005a97c f   libeay32:ec2_mult.obj
 0001:00049f18       bn_GF2m_mul_1x1            0005af18 f   libeay32:bn_gf2m.obj
 0001:0004bacc       julian_to_date             0005cacc f   libeay32:o_time.obj
 0001:0004be2c       trust_compat               0005ce2c f   libeay32:x509_trs.obj
 0001:0004be60       obj_trust                  0005ce60 f   libeay32:x509_trs.obj
 0001:0004bf30       trust_1oidany              0005cf30 f   libeay32:x509_trs.obj
 0001:0004bf9c       trust_1oid                 0005cf9c f   libeay32:x509_trs.obj
 0001:0004c3cc       PKCS12_BAGS_adb            0005d3cc f   libeay32:p12_asn.obj
 0001:0004c3e4       PKCS12_SAFEBAG_adb         0005d3e4 f   libeay32:p12_asn.obj
 0001:0004c918       LoadLibraryA               0005d918 f   libeay32:dso_win32.obj
 0001:0004c9b8       win32_load                 0005d9b8 f   libeay32:dso_win32.obj
 0001:0004caf4       win32_unload               0005daf4 f   libeay32:dso_win32.obj
 0001:0004cbc8       win32_bind_var             0005dbc8 f   libeay32:dso_win32.obj
 0001:0004ccdc       win32_bind_func            0005dcdc f   libeay32:dso_win32.obj
 0001:0004cdf0       win32_splitter             0005ddf0 f   libeay32:dso_win32.obj
 0001:0004d024       win32_name_converter       0005e024 f   libeay32:dso_win32.obj
 0001:0004d10c       win32_pathbyaddr           0005e10c f   libeay32:dso_win32.obj
 0001:0004d334       win32_globallookup         0005e334 f   libeay32:dso_win32.obj
 0001:0004d4cc       win32_joiner               0005e4cc f   libeay32:dso_win32.obj
 0001:0004d804       win32_merger               0005e804 f   libeay32:dso_win32.obj
 0001:0004da40       PKCS7_get_octet_string     0005ea40 f   libeay32:pk7_doit.obj
 0001:0004daa0       PKCS7_bio_add_digest       0005eaa0 f   libeay32:pk7_doit.obj
 0001:0004db94       pkcs7_encode_rinfo         0005eb94 f   libeay32:pk7_doit.obj
 0001:0004e154       PKCS7_find_digest          0005f154 f   libeay32:pk7_doit.obj
 0001:0004e3d8       get_attribute              0005f3d8 f   libeay32:pk7_doit.obj
 0001:0004e480       add_attribute              0005f480 f   libeay32:pk7_doit.obj
 0001:0004e59c       do_pkcs7_signed_attrib     0005f59c f   libeay32:pk7_doit.obj
 0001:0004f130       asn1_bio_free              00060130 f   libeay32:bio_asn1.obj
 0001:0004f180       asn1_bio_flush_ex          00060180 f   libeay32:bio_asn1.obj
 0001:0004f224       asn1_bio_read              00060224 f   libeay32:bio_asn1.obj
 0001:0004f24c       asn1_bio_gets              0006024c f   libeay32:bio_asn1.obj
 0001:0004f274       asn1_bio_callback_ctrl     00060274 f   libeay32:bio_asn1.obj
 0001:0004f29c       asn1_bio_ctrl              0006029c f   libeay32:bio_asn1.obj
 0001:0004f444       asn1_bio_new               00060444 f   libeay32:bio_asn1.obj
 0001:0004f4e0       asn1_bio_write             000604e0 f   libeay32:bio_asn1.obj
 0001:0004f714       asn1_bio_puts              00060714 f   libeay32:bio_asn1.obj
 0001:0004f740       b64_new                    00060740 f   libeay32:bio_b64.obj
 0001:0004f7b0       b64_free                   000607b0 f   libeay32:bio_b64.obj
 0001:0004f7e8       b64_read                   000607e8 f   libeay32:bio_b64.obj
 0001:0004fc8c       b64_write                  00060c8c f   libeay32:bio_b64.obj
 0001:000500cc       b64_ctrl                   000610cc f   libeay32:bio_b64.obj
 0001:000502e4       b64_callback_ctrl          000612e4 f   libeay32:bio_b64.obj
 0001:0005030c       b64_puts                   0006130c f   libeay32:bio_b64.obj
 0001:00050338       buffer_new                 00061338 f   libeay32:bf_buff.obj
 0001:000503ec       buffer_free                000613ec f   libeay32:bf_buff.obj
 0001:00050448       buffer_read                00061448 f   libeay32:bf_buff.obj
 0001:00050588       buffer_write               00061588 f   libeay32:bf_buff.obj
 0001:00050748       buffer_ctrl                00061748 f   libeay32:bf_buff.obj
 0001:00050b20       buffer_callback_ctrl       00061b20 f   libeay32:bf_buff.obj
 0001:00050b48       buffer_gets                00061b48 f   libeay32:bf_buff.obj
 0001:00050c50       buffer_puts                00061c50 f   libeay32:bf_buff.obj
 0001:00052dd0       write_string               00063dd0 f   libeay32:ui_openssl.obj
 0001:00052e18       open_console               00063e18 f   libeay32:ui_openssl.obj
 0001:00052ea4       close_console              00063ea4 f   libeay32:ui_openssl.obj
 0001:00052f08       read_string                00063f08 f   libeay32:ui_openssl.obj
 0001:000530a4       cmp64                      000640a4 f   wcecompatex:time.obj
 0001:000530f0       topBit                     000640f0 f   wcecompatex:time.obj
 0001:0005327c       div64                      0006427c f   wcecompatex:time.obj
 0001:00053cc0       doexit                     00064cc0 f   corelibc:crt0dat.obj
 0001:00053e18       ?getCmdLineArg@@YA?AW4ArgType@@PAPA_WPA_WHPAURedirArg@@PA_N@Z 00064e18 f   wcecompatex:args.obj
 0001:00054144       ?qsort_stricmp@@YAHPBX0@Z  00065144 f   wcecompatex:args.obj
