 shatest

 Timestamp is 511c9ae0 (Thu Feb 14 17:05:52 2013)

 Preferred load address is 00010000

 Start         Length     Name                   Class
 0001:00000000 00054b08H .text                   CODE
 0002:00000000 00023738H .rdata                  DATA
 0002:00023738 00000014H .xdata                  DATA
 0002:0002374c 00000014H .idata$2                DATA
 0002:00023760 00000014H .idata$3                DATA
 0002:00023774 00000148H .idata$4                DATA
 0002:000238bc 0000000cH .idata$6                DATA
 0002:000238c8 00000000H .edata                  DATA
 0003:00000000 00000148H .idata$5                DATA
 0003:00000148 00000004H .CRT$XCA                DATA
 0003:0000014c 00000004H .CRT$XCZ                DATA
 0003:00000150 00000004H .CRT$XIA                DATA
 0003:00000154 00000004H .CRT$XIZ                DATA
 0003:00000158 00000004H .CRT$XPA                DATA
 0003:0000015c 00000004H .CRT$XPZ                DATA
 0003:00000160 00000004H .CRT$XTA                DATA
 0003:00000164 00000004H .CRT$XTZ                DATA
 0003:00000168 00001040H .data                   DATA
 0003:000011c0 00002449H .bss                    DATA
 0004:00000000 00003538H .pdata                  DATA

  Address         Publics by Value              Rva+Base     Lib:Object

 0000:00000000       ___safe_se_handler_count   00000000     <absolute>
 0000:00000000       ___safe_se_handler_table   00000000     <absolute>
 0001:00000000       main                       00011000 f   shatest.obj
 0001:00000214       EVP_MD_CTX_init            00011214 f   libeay32:digest.obj
 0001:0000022c       EVP_MD_CTX_create          0001122c f   libeay32:digest.obj
 0001:00000264       EVP_DigestInit_ex          00011264 f   libeay32:digest.obj
 0001:0000047c       EVP_DigestUpdate           0001147c f   libeay32:digest.obj
 0001:00000494       EVP_DigestFinal_ex         00011494 f   libeay32:digest.obj
 0001:00000540       EVP_MD_CTX_cleanup         00011540 f   libeay32:digest.obj
 0001:0000060c       EVP_MD_CTX_copy_ex         0001160c f   libeay32:digest.obj
 0001:000007bc       EVP_Digest                 000117bc f   libeay32:digest.obj
 0001:00000860       EVP_MD_CTX_destroy         00011860 f   libeay32:digest.obj
 0001:0000087c       EVP_MD_CTX_copy            0001187c f   libeay32:digest.obj
 0001:000008ec       EVP_sha                    000118ec f   libeay32:m_sha.obj
 0001:00000958       CRYPTO_free_locked         00011958 f   libeay32:mem.obj
 0001:000009b4       CRYPTO_malloc              000119b4 f   libeay32:mem.obj
 0001:00000a94       CRYPTO_realloc             00011a94 f   libeay32:mem.obj
 0001:00000b7c       CRYPTO_realloc_clean       00011b7c f   libeay32:mem.obj
 0001:00000ca0       CRYPTO_free                00011ca0 f   libeay32:mem.obj
 0001:00000d14       EVP_PKEY_meth_find         00011d14 f   libeay32:pmeth_lib.obj
 0001:00000dac       EVP_PKEY_meth_free         00011dac f   libeay32:pmeth_lib.obj
 0001:00000dc8       EVP_PKEY_CTX_free          00011dc8 f   libeay32:pmeth_lib.obj
 0001:00000e30       EVP_PKEY_CTX_ctrl          00011e30 f   libeay32:pmeth_lib.obj
 0001:00000f54       EVP_PKEY_CTX_get0_pkey     00011f54 f   libeay32:pmeth_lib.obj
 0001:00000f5c       EVP_PKEY_CTX_new           00011f5c f   libeay32:pmeth_lib.obj
 0001:000010d8       EVP_PKEY_CTX_dup           000120d8 f   libeay32:pmeth_lib.obj
 0001:00001214       ENGINE_get_digest_engine   00012214 f   libeay32:tb_digest.obj
 0001:00001230       ENGINE_get_digest          00012230 f   libeay32:tb_digest.obj
 0001:0000191c       ERR_get_state              0001291c f   libeay32:err.obj
 0001:00001a1c       ERR_set_error_data         00012a1c f   libeay32:err.obj
 0001:00001a70       ERR_add_error_vdata        00012a70 f   libeay32:err.obj
 0001:00001b44       ERR_set_mark               00012b44 f   libeay32:err.obj
 0001:00001b84       ERR_pop_to_mark            00012b84 f   libeay32:err.obj
 0001:00001d54       ERR_put_error              00012d54 f   libeay32:err.obj
 0001:00001e48       ERR_clear_error            00012e48 f   libeay32:err.obj
 0001:00001eb4       ERR_add_error_data         00012eb4 f   libeay32:err.obj
 0001:00001ed4       ERR_peek_last_error        00012ed4 f   libeay32:err.obj
 0001:00001f00       engine_unlocked_init       00012f00 f   libeay32:eng_init.obj
 0001:00001f58       engine_unlocked_finish     00012f58 f   libeay32:eng_init.obj
 0001:0000201c       ENGINE_init                0001301c f   libeay32:eng_init.obj
 0001:00002098       ENGINE_finish              00013098 f   libeay32:eng_init.obj
 0001:0000213c       EVP_CIPHER_CTX_block_size  0001313c f   libeay32:evp_lib.obj
 0001:00002148       EVP_Cipher                 00013148 f   libeay32:evp_lib.obj
 0001:00002164       EVP_CIPHER_CTX_cipher      00013164 f   libeay32:evp_lib.obj
 0001:0000216c       EVP_CIPHER_CTX_flags       0001316c f   libeay32:evp_lib.obj
 0001:00002178       EVP_CIPHER_iv_length       00013178 f   libeay32:evp_lib.obj
 0001:00002180       EVP_CIPHER_CTX_iv_length   00013180 f   libeay32:evp_lib.obj
 0001:0000218c       EVP_CIPHER_key_length      0001318c f   libeay32:evp_lib.obj
 0001:00002194       EVP_CIPHER_CTX_key_length  00013194 f   libeay32:evp_lib.obj
 0001:0000219c       EVP_MD_block_size          0001319c f   libeay32:evp_lib.obj
 0001:000021a4       EVP_MD_type                000131a4 f   libeay32:evp_lib.obj
 0001:000021ac       EVP_MD_pkey_type           000131ac f   libeay32:evp_lib.obj
 0001:000021b4       EVP_MD_size                000131b4 f   libeay32:evp_lib.obj
 0001:00002200       EVP_MD_CTX_md              00013200 f   libeay32:evp_lib.obj
 0001:00002210       EVP_MD_CTX_set_flags       00013210 f   libeay32:evp_lib.obj
 0001:00002220       EVP_MD_CTX_clear_flags     00013220 f   libeay32:evp_lib.obj
 0001:00002230       EVP_MD_CTX_test_flags      00013230 f   libeay32:evp_lib.obj
 0001:0000223c       EVP_CIPHER_get_asn1_iv     0001323c f   libeay32:evp_lib.obj
 0001:000022b4       EVP_CIPHER_set_asn1_iv     000132b4 f   libeay32:evp_lib.obj
 0001:00002304       EVP_CIPHER_type            00013304 f   libeay32:evp_lib.obj
 0001:00002434       EVP_CIPHER_param_to_asn1   00013434 f   libeay32:evp_lib.obj
 0001:0000247c       EVP_CIPHER_asn1_to_param   0001347c f   libeay32:evp_lib.obj
 0001:000024c4       CRYPTO_destroy_dynlockid   000134c4 f   libeay32:cryptlib.obj
 0001:000025c8       CRYPTO_get_dynlock_value   000135c8 f   libeay32:cryptlib.obj
 0001:00002664       CRYPTO_THREADID_current    00013664 f   libeay32:cryptlib.obj
 0001:000026e0       CRYPTO_THREADID_cmp        000136e0 f   libeay32:cryptlib.obj
 0001:000026f4       CRYPTO_THREADID_cpy        000136f4 f   libeay32:cryptlib.obj
 0001:00002708       CRYPTO_THREADID_hash       00013708 f   libeay32:cryptlib.obj
 0001:00002710       OPENSSL_showfatal          00013710 f   libeay32:cryptlib.obj
 0001:00002898       OpenSSLDie                 00013898 f   libeay32:cryptlib.obj
 0001:000028cc       CRYPTO_memcmp              000138cc f   libeay32:cryptlib.obj
 0001:00002908       CRYPTO_lock                00013908 f   libeay32:cryptlib.obj
 0001:000029d4       CRYPTO_add_lock            000139d4 f   libeay32:cryptlib.obj
 0001:00002a60       OPENSSL_cleanse            00013a60 f   libeay32:mem_clr.obj
 0001:00002abc       RSA_sign                   00013abc f   libeay32:rsa_sign.obj
 0001:00002d00       int_rsa_verify             00013d00 f   libeay32:rsa_sign.obj
 0001:000030ec       RSA_verify                 000140ec f   libeay32:rsa_sign.obj
 0001:00003164       SHA_Init                   00014164 f   libeay32:sha_dgst.obj
 0001:00003518       SHA_Update                 00014518 f   libeay32:sha_dgst.obj
 0001:00003620       SHA_Final                  00014620 f   libeay32:sha_dgst.obj
 0001:00005c48       OBJ_nid2obj                00016c48 f   libeay32:obj_dat.obj
 0001:00005d28       OBJ_nid2sn                 00016d28 f   libeay32:obj_dat.obj
 0001:00005e0c       OBJ_nid2ln                 00016e0c f   libeay32:obj_dat.obj
 0001:00005f34       OBJ_bsearch_ex_            00016f34 f   libeay32:obj_dat.obj
 0001:00006018       OBJ_bsearch_               00017018 f   libeay32:obj_dat.obj
 0001:00006040       OBJ_obj2nid                00017040 f   libeay32:obj_dat.obj
 0001:00006108       OBJ_obj2txt                00017108 f   libeay32:obj_dat.obj
 0001:00006408       OBJ_ln2nid                 00017408 f   libeay32:obj_dat.obj
 0001:000064b8       OBJ_sn2nid                 000174b8 f   libeay32:obj_dat.obj
 0001:00006568       OBJ_txt2obj                00017568 f   libeay32:obj_dat.obj
 0001:0000665c       sk_set_cmp_func            0001765c f   libeay32:stack.obj
 0001:00006678       sk_new                     00017678 f   libeay32:stack.obj
 0001:00006700       sk_insert                  00017700 f   libeay32:stack.obj
 0001:000067d8       sk_delete                  000177d8 f   libeay32:stack.obj
 0001:00006844       sk_push                    00017844 f   libeay32:stack.obj
 0001:00006858       sk_pop                     00017858 f   libeay32:stack.obj
 0001:0000688c       sk_free                    0001788c f   libeay32:stack.obj
 0001:000068b8       sk_num                     000178b8 f   libeay32:stack.obj
 0001:000068c8       sk_value                   000178c8 f   libeay32:stack.obj
 0001:000068f4       sk_set                     000178f4 f   libeay32:stack.obj
 0001:00006928       sk_sort                    00017928 f   libeay32:stack.obj
 0001:00006964       sk_is_sorted               00017964 f   libeay32:stack.obj
 0001:00006974       sk_new_null                00017974 f   libeay32:stack.obj
 0001:00006988       sk_delete_ptr              00017988 f   libeay32:stack.obj
 0001:00006a9c       sk_find                    00017a9c f   libeay32:stack.obj
 0001:00006ab0       sk_pop_free                00017ab0 f   libeay32:stack.obj
 0001:00006b18       EVP_PKEY_bits              00017b18 f   libeay32:p_lib.obj
 0001:00006b58       EVP_PKEY_size              00017b58 f   libeay32:p_lib.obj
 0001:00006b98       EVP_PKEY_missing_parameters 00017b98 f   libeay32:p_lib.obj
 0001:00006bd0       EVP_PKEY_new               00017bd0 f   libeay32:p_lib.obj
 0001:00006c4c       EVP_PKEY_type              00017c4c f   libeay32:p_lib.obj
 0001:00006c88       EVP_PKEY_id                00017c88 f   libeay32:p_lib.obj
 0001:00006c90       EVP_PKEY_get_default_digest_nid 00017c90 f   libeay32:p_lib.obj
 0001:00006cd4       EVP_PKEY_copy_parameters   00017cd4 f   libeay32:p_lib.obj
 0001:00006ec0       EVP_PKEY_set_type          00017ec0 f   libeay32:p_lib.obj
 0001:00006ed8       EVP_PKEY_assign            00017ed8 f   libeay32:p_lib.obj
 0001:00006f10       EVP_PKEY_free              00017f10 f   libeay32:p_lib.obj
 0001:00006fbc       EVP_get_cipherbyname       00017fbc f   libeay32:names.obj
 0001:00006fd0       EVP_get_digestbyname       00017fd0 f   libeay32:names.obj
 0001:00006fe4       ENGINE_get_pkey_meth_engine 00017fe4 f   libeay32:tb_pkmeth.obj
 0001:00007000       engine_pkey_meths_free     00018000 f   libeay32:tb_pkmeth.obj
 0001:00007080       ENGINE_get_pkey_meth       00018080 f   libeay32:tb_pkmeth.obj
 0001:000070e4       engine_table_select        000180e4 f   libeay32:eng_table.obj
 0001:00007270       engine_table_doall         00018270 f   libeay32:eng_table.obj
 0001:000072a4       CRYPTO_mem_ctrl            000182a4 f   libeay32:mem_dbg.obj
 0001:00007418       CRYPTO_is_mem_check_on     00018418 f   libeay32:mem_dbg.obj
 0001:00007594       CRYPTO_push_info_          00018594 f   libeay32:mem_dbg.obj
 0001:00007664       CRYPTO_pop_info            00018664 f   libeay32:mem_dbg.obj
 0001:000076a4       lh_free                    000186a4 f   libeay32:lhash.obj
 0001:0000770c       lh_doall                   0001870c f   libeay32:lhash.obj
 0001:00007760       lh_doall_arg               00018760 f   libeay32:lhash.obj
 0001:00007ac4       lh_strhash                 00018ac4 f   libeay32:lhash.obj
 0001:00007b30       lh_num_items               00018b30 f   libeay32:lhash.obj
 0001:00007b40       lh_new                     00018b40 f   libeay32:lhash.obj
 0001:00007c3c       lh_insert                  00018c3c f   libeay32:lhash.obj
 0001:00007d20       lh_delete                  00018d20 f   libeay32:lhash.obj
 0001:00007dcc       lh_retrieve                00018dcc f   libeay32:lhash.obj
 0001:00007e1c       BUF_strlcpy                00018e1c f   libeay32:buf_str.obj
 0001:00007e6c       BUF_strlcat                00018e6c f   libeay32:buf_str.obj
 0001:00007ea8       BUF_strndup                00018ea8 f   libeay32:buf_str.obj
 0001:00007f1c       BUF_strdup                 00018f1c f   libeay32:buf_str.obj
 0001:00008fe4       BIO_vprintf                00019fe4 f   libeay32:b_print.obj
 0001:000090ac       BIO_vsnprintf              0001a0ac f   libeay32:b_print.obj
 0001:00009110       BIO_printf                 0001a110 f   libeay32:b_print.obj
 0001:00009130       BIO_snprintf               0001a130 f   libeay32:b_print.obj
 0001:00009150       engine_free_util           0001a150 f   libeay32:eng_lib.obj
 0001:00009210       ENGINE_free                0001a210 f   libeay32:eng_lib.obj
 0001:00009224       ASN1_TYPE_set_octetstring  0001a224 f   libeay32:evp_asn1.obj
 0001:00009284       ASN1_TYPE_get_octetstring  0001a284 f   libeay32:evp_asn1.obj
 0001:000092f8       a2d_ASN1_OBJECT            0001a2f8 f   libeay32:a_object.obj
 0001:000096d0       i2t_ASN1_OBJECT            0001a6d0 f   libeay32:a_object.obj
 0001:000096e4       i2a_ASN1_OBJECT            0001a6e4 f   libeay32:a_object.obj
 0001:000097c0       ASN1_OBJECT_new            0001a7c0 f   libeay32:a_object.obj
 0001:0000983c       ASN1_OBJECT_free           0001a83c f   libeay32:a_object.obj
 0001:000098bc       c2i_ASN1_OBJECT            0001a8bc f   libeay32:a_object.obj
 0001:00009a50       d2i_ASN1_OBJECT            0001aa50 f   libeay32:a_object.obj
 0001:00009af0       RSA_size                   0001aaf0 f   libeay32:rsa_crpt.obj
 0001:00009b14       RSA_public_encrypt         0001ab14 f   libeay32:rsa_crpt.obj
 0001:00009b40       RSA_private_encrypt        0001ab40 f   libeay32:rsa_crpt.obj
 0001:00009b6c       RSA_private_decrypt        0001ab6c f   libeay32:rsa_crpt.obj
 0001:00009b98       RSA_public_decrypt         0001ab98 f   libeay32:rsa_crpt.obj
 0001:00009ca8       RSA_setup_blinding         0001aca8 f   libeay32:rsa_crpt.obj
 0001:00009e7c       X509_SIG_it                0001ae7c f   libeay32:x_sig.obj
 0001:00009e88       d2i_X509_SIG               0001ae88 f   libeay32:x_sig.obj
 0001:00009ea0       i2d_X509_SIG               0001aea0 f   libeay32:x_sig.obj
 0001:00009eb8       X509_SIG_free              0001aeb8 f   libeay32:x_sig.obj
 0001:00009ed0       ASN1_TYPE_get              0001aed0 f   libeay32:a_type.obj
 0001:00009ef4       ASN1_TYPE_set              0001aef4 f   libeay32:a_type.obj
 0001:00009f60       ASN1_TYPE_set1             0001af60 f   libeay32:a_type.obj
 0001:00009fd4       CMAC_CTX_new               0001afd4 f   libeay32:cmac.obj
 0001:0000a014       CMAC_CTX_cleanup           0001b014 f   libeay32:cmac.obj
 0001:0000a060       CMAC_CTX_free              0001b060 f   libeay32:cmac.obj
 0001:0000a07c       CMAC_CTX_copy              0001b07c f   libeay32:cmac.obj
 0001:0000a10c       CMAC_Init                  0001b10c f   libeay32:cmac.obj
 0001:0000a388       CMAC_Update                0001b388 f   libeay32:cmac.obj
 0001:0000a46c       CMAC_Final                 0001b46c f   libeay32:cmac.obj
 0001:0000a56c       X509V3_add_value           0001b56c f   libeay32:v3_utl.obj
 0001:0000a664       X509V3_add_value_uchar     0001b664 f   libeay32:v3_utl.obj
 0001:0000a674       X509V3_conf_free           0001b674 f   libeay32:v3_utl.obj
 0001:0000a6c0       X509V3_add_value_bool      0001b6c0 f   libeay32:v3_utl.obj
 0001:0000a6e4       i2s_ASN1_ENUMERATED        0001b6e4 f   libeay32:v3_utl.obj
 0001:0000a754       i2s_ASN1_INTEGER           0001b754 f   libeay32:v3_utl.obj
 0001:0000a7c4       s2i_ASN1_INTEGER           0001b7c4 f   libeay32:v3_utl.obj
 0001:0000a914       X509V3_add_value_int       0001b914 f   libeay32:v3_utl.obj
 0001:0000a968       X509V3_get_value_bool      0001b968 f   libeay32:v3_utl.obj
 0001:0000ab24       X509V3_get_value_int       0001bb24 f   libeay32:v3_utl.obj
 0001:0000ac38       hex_to_string              0001bc38 f   libeay32:v3_utl.obj
 0001:0000acf8       string_to_hex              0001bcf8 f   libeay32:v3_utl.obj
 0001:0000aec0       name_cmp                   0001bec0 f   libeay32:v3_utl.obj
 0001:0000afa4       X509V3_NAME_from_section   0001bfa4 f   libeay32:v3_utl.obj
 0001:0000b08c       X509V3_parse_list          0001c08c f   libeay32:v3_utl.obj
 0001:0000b4fc       a2i_ipadd                  0001c4fc f   libeay32:v3_utl.obj
 0001:0000b560       a2i_IPADDRESS              0001c560 f   libeay32:v3_utl.obj
 0001:0000b5bc       a2i_IPADDRESS_NC           0001c5bc f   libeay32:v3_utl.obj
 0001:0000b688       HMAC_Init_ex               0001c688 f   libeay32:hmac.obj
 0001:0000b880       HMAC_Update                0001c880 f   libeay32:hmac.obj
 0001:0000b894       HMAC_Final                 0001c894 f   libeay32:hmac.obj
 0001:0000b91c       HMAC_CTX_init              0001c91c f   libeay32:hmac.obj
 0001:0000b944       HMAC_CTX_copy              0001c944 f   libeay32:hmac.obj
 0001:0000b9c4       HMAC_CTX_cleanup           0001c9c4 f   libeay32:hmac.obj
 0001:0000b9fc       HMAC_CTX_set_flags         0001c9fc f   libeay32:hmac.obj
 0001:0000ba30       HMAC_Init                  0001ca30 f   libeay32:hmac.obj
 0001:0000ba94       HMAC                       0001ca94 f   libeay32:hmac.obj
 0001:0000bb40       ASN1_OCTET_STRING_dup      0001cb40 f   libeay32:a_octet.obj
 0001:0000bb50       ASN1_OCTET_STRING_set      0001cb50 f   libeay32:a_octet.obj
 0001:0000bb60       EC_GROUP_new               0001cb60 f   libeay32:ec_lib.obj
 0001:0000bc60       EC_GROUP_method_of         0001cc60 f   libeay32:ec_lib.obj
 0001:0000bc68       EC_METHOD_get_field_type   0001cc68 f   libeay32:ec_lib.obj
 0001:0000bc70       EC_GROUP_get0_generator    0001cc70 f   libeay32:ec_lib.obj
 0001:0000bc78       EC_GROUP_get_order         0001cc78 f   libeay32:ec_lib.obj
 0001:0000bcac       EC_GROUP_get_cofactor      0001ccac f   libeay32:ec_lib.obj
 0001:0000bce4       EC_GROUP_set_curve_name    0001cce4 f   libeay32:ec_lib.obj
 0001:0000bcec       EC_GROUP_get_curve_name    0001ccec f   libeay32:ec_lib.obj
 0001:0000bcf4       EC_GROUP_set_asn1_flag     0001ccf4 f   libeay32:ec_lib.obj
 0001:0000bcfc       EC_GROUP_get_asn1_flag     0001ccfc f   libeay32:ec_lib.obj
 0001:0000bd04       EC_GROUP_set_point_conversion_form 0001cd04 f   libeay32:ec_lib.obj
 0001:0000bd0c       EC_GROUP_get_point_conversion_form 0001cd0c f   libeay32:ec_lib.obj
 0001:0000bd14       EC_GROUP_set_seed          0001cd14 f   libeay32:ec_lib.obj
 0001:0000bda0       EC_GROUP_get0_seed         0001cda0 f   libeay32:ec_lib.obj
 0001:0000bda8       EC_GROUP_get_seed_len      0001cda8 f   libeay32:ec_lib.obj
 0001:0000bdb0       EC_GROUP_set_curve_GFp     0001cdb0 f   libeay32:ec_lib.obj
 0001:0000be18       EC_GROUP_get_curve_GFp     0001ce18 f   libeay32:ec_lib.obj
 0001:0000be80       EC_GROUP_set_curve_GF2m    0001ce80 f   libeay32:ec_lib.obj
 0001:0000bee8       EC_GROUP_get_curve_GF2m    0001cee8 f   libeay32:ec_lib.obj
 0001:0000bf4c       EC_GROUP_get_degree        0001cf4c f   libeay32:ec_lib.obj
 0001:0000bfa4       EC_EX_DATA_set_data        0001cfa4 f   libeay32:ec_lib.obj
 0001:0000c080       EC_EX_DATA_get_data        0001d080 f   libeay32:ec_lib.obj
 0001:0000c0d4       EC_EX_DATA_free_data       0001d0d4 f   libeay32:ec_lib.obj
 0001:0000c15c       EC_EX_DATA_free_all_data   0001d15c f   libeay32:ec_lib.obj
 0001:0000c1ac       EC_EX_DATA_clear_free_all_data 0001d1ac f   libeay32:ec_lib.obj
 0001:0000c1fc       EC_POINT_new               0001d1fc f   libeay32:ec_lib.obj
 0001:0000c2dc       EC_POINT_free              0001d2dc f   libeay32:ec_lib.obj
 0001:0000c310       EC_POINT_clear_free        0001d310 f   libeay32:ec_lib.obj
 0001:0000c36c       EC_POINT_copy              0001d36c f   libeay32:ec_lib.obj
 0001:0000c400       EC_POINT_dup               0001d400 f   libeay32:ec_lib.obj
 0001:0000c448       EC_POINT_set_to_infinity   0001d448 f   libeay32:ec_lib.obj
 0001:0000c4d4       EC_POINT_set_Jprojective_coordinates_GFp 0001d4d4 f   libeay32:ec_lib.obj
 0001:0000c588       EC_POINT_set_affine_coordinates_GFp 0001d588 f   libeay32:ec_lib.obj
 0001:0000c628       EC_POINT_set_affine_coordinates_GF2m 0001d628 f   libeay32:ec_lib.obj
 0001:0000c6cc       EC_POINT_get_affine_coordinates_GFp 0001d6cc f   libeay32:ec_lib.obj
 0001:0000c770       EC_POINT_get_affine_coordinates_GF2m 0001d770 f   libeay32:ec_lib.obj
 0001:0000c810       EC_POINT_add               0001d810 f   libeay32:ec_lib.obj
 0001:0000c8cc       EC_POINT_dbl               0001d8cc f   libeay32:ec_lib.obj
 0001:0000c96c       EC_POINT_invert            0001d96c f   libeay32:ec_lib.obj
 0001:0000c9f8       EC_POINT_is_at_infinity    0001d9f8 f   libeay32:ec_lib.obj
 0001:0000ca80       EC_POINT_is_on_curve       0001da80 f   libeay32:ec_lib.obj
 0001:0000cb08       EC_POINT_cmp               0001db08 f   libeay32:ec_lib.obj
 0001:0000cba8       EC_POINT_make_affine       0001dba8 f   libeay32:ec_lib.obj
 0001:0000cc30       EC_POINTs_make_affine      0001dc30 f   libeay32:ec_lib.obj
 0001:0000ccf8       EC_POINTs_mul              0001dcf8 f   libeay32:ec_lib.obj
 0001:0000cd74       EC_POINT_mul               0001dd74 f   libeay32:ec_lib.obj
 0001:0000cdc8       EC_GROUP_have_precompute_mult 0001ddc8 f   libeay32:ec_lib.obj
 0001:0000ce10       EC_GROUP_free              0001de10 f   libeay32:ec_lib.obj
 0001:0000ce7c       EC_GROUP_clear_free        0001de7c f   libeay32:ec_lib.obj
 0001:0000cf20       EC_GROUP_copy              0001df20 f   libeay32:ec_lib.obj
 0001:0000d134       EC_GROUP_dup               0001e134 f   libeay32:ec_lib.obj
 0001:0000d17c       EC_GROUP_set_generator     0001e17c f   libeay32:ec_lib.obj
 0001:0000d25c       EC_GROUP_cmp               0001e25c f   libeay32:ec_lib.obj
 0001:0000d4c8       ECDSA_do_sign_ex           0001e4c8 f   libeay32:ecs_sign.obj
 0001:0000d528       ECDSA_sign_ex              0001e528 f   libeay32:ecs_sign.obj
 0001:0000d5b0       ECDSA_sign_setup           0001e5b0 f   libeay32:ecs_sign.obj
 0001:0000d600       ECDSA_sign                 0001e600 f   libeay32:ecs_sign.obj
 0001:0000d78c       ecdsa_check                0001e78c f   libeay32:ecs_lib.obj
 0001:0000d808       ECDSA_size                 0001e808 f   libeay32:ecs_lib.obj
 0001:0000d8c0       ECDSA_do_verify            0001e8c0 f   libeay32:ecs_vrf.obj
 0001:0000d914       ECDSA_verify               0001e914 f   libeay32:ecs_vrf.obj
 0001:0000d98c       ECDH_compute_key           0001e98c f   libeay32:ech_key.obj
 0001:0000d9ec       EC_KEY_new                 0001e9ec f   libeay32:ec_key.obj
 0001:0000da70       EC_KEY_free                0001ea70 f   libeay32:ec_key.obj
 0001:0000db00       EC_KEY_generate_key        0001eb00 f   libeay32:ec_key.obj
 0001:0000dc5c       EC_KEY_get0_group          0001ec5c f   libeay32:ec_key.obj
 0001:0000dc64       EC_KEY_set_group           0001ec64 f   libeay32:ec_key.obj
 0001:0000dca4       EC_KEY_get0_private_key    0001eca4 f   libeay32:ec_key.obj
 0001:0000dcac       EC_KEY_get0_public_key     0001ecac f   libeay32:ec_key.obj
 0001:0000dcb4       EC_KEY_set_public_key      0001ecb4 f   libeay32:ec_key.obj
 0001:0000dcf8       EC_KEY_get_enc_flags       0001ecf8 f   libeay32:ec_key.obj
 0001:0000dd00       EC_KEY_set_enc_flags       0001ed00 f   libeay32:ec_key.obj
 0001:0000dd08       EC_KEY_get_conv_form       0001ed08 f   libeay32:ec_key.obj
 0001:0000dd10       EC_KEY_get_key_method_data 0001ed10 f   libeay32:ec_key.obj
 0001:0000dd7c       EC_KEY_insert_key_method_data 0001ed7c f   libeay32:ec_key.obj
 0001:0000e23c       EC_GROUP_new_by_curve_name 0001f23c f   libeay32:ec_curve.obj
 0001:0000e364       d2i_DSA_SIG                0001f364 f   libeay32:dsa_asn1.obj
 0001:0000e3d8       d2i_DSAPrivateKey          0001f3d8 f   libeay32:dsa_asn1.obj
 0001:0000e3f0       i2d_DSAPrivateKey          0001f3f0 f   libeay32:dsa_asn1.obj
 0001:0000e408       d2i_DSAparams              0001f408 f   libeay32:dsa_asn1.obj
 0001:0000e420       i2d_DSAparams              0001f420 f   libeay32:dsa_asn1.obj
 0001:0000e438       dsa_pub_internal_it        0001f438 f   libeay32:dsa_asn1.obj
 0001:0000e444       i2d_DSAPublicKey           0001f444 f   libeay32:dsa_asn1.obj
 0001:0000e45c       DSA_sign                   0001f45c f   libeay32:dsa_asn1.obj
 0001:0000e4dc       DSA_verify                 0001f4dc f   libeay32:dsa_asn1.obj
 0001:0000e55c       DSA_new_method             0001f55c f   libeay32:dsa_lib.obj
 0001:0000e70c       DSA_free                   0001f70c f   libeay32:dsa_lib.obj
 0001:0000e800       DSA_size                   0001f800 f   libeay32:dsa_lib.obj
 0001:0000e864       DSA_new                    0001f864 f   libeay32:dsa_lib.obj
 0001:0000e878       dsa_builtin_paramgen       0001f878 f   libeay32:dsa_gen.obj
 0001:0000f00c       evp_pkey_set_cb_translate  0002000c f   libeay32:pmeth_gn.obj
 0001:0000f160       DSA_generate_key           00020160 f   libeay32:dsa_key.obj
 0001:0000f190       DH_new_method              00020190 f   libeay32:dh_lib.obj
 0001:0000f348       DH_free                    00020348 f   libeay32:dh_lib.obj
 0001:0000f44c       DH_size                    0002044c f   libeay32:dh_lib.obj
 0001:0000f470       DH_new                     00020470 f   libeay32:dh_lib.obj
 0001:0000f668       DH_generate_parameters_ex  00020668 f   libeay32:dh_gen.obj
 0001:0000f698       DH_generate_key            00020698 f   libeay32:dh_key.obj
 0001:0000f6b4       DH_compute_key             000206b4 f   libeay32:dh_key.obj
 0001:0000f6d0       DH_OpenSSL                 000206d0 f   libeay32:dh_key.obj
 0001:0000fb6c       BN_value_one               00020b6c f   libeay32:bn_lib.obj
 0001:0000fb78       BN_num_bits_word           00020b78 f   libeay32:bn_lib.obj
 0001:0000fbbc       BN_num_bits                00020bbc f   libeay32:bn_lib.obj
 0001:0000fbf0       BN_clear_free              00020bf0 f   libeay32:bn_lib.obj
 0001:0000fc48       BN_free                    00020c48 f   libeay32:bn_lib.obj
 0001:0000fca0       BN_init                    00020ca0 f   libeay32:bn_lib.obj
 0001:0000fcb8       BN_new                     00020cb8 f   libeay32:bn_lib.obj
 0001:0000fe7c       bn_expand2                 00020e7c f   libeay32:bn_lib.obj
 0001:0000fec8       BN_copy                    00020ec8 f   libeay32:bn_lib.obj
 0001:0000ff90       BN_set_word                00020f90 f   libeay32:bn_lib.obj
 0001:0000ffe8       BN_bin2bn                  00020fe8 f   libeay32:bn_lib.obj
 0001:000100e4       BN_bn2bin                  000210e4 f   libeay32:bn_lib.obj
 0001:00010140       BN_ucmp                    00021140 f   libeay32:bn_lib.obj
 0001:000101ac       BN_cmp                     000211ac f   libeay32:bn_lib.obj
 0001:00010274       BN_set_bit                 00021274 f   libeay32:bn_lib.obj
 0001:00010310       BN_is_bit_set              00021310 f   libeay32:bn_lib.obj
 0001:00010350       BN_mask_bits               00021350 f   libeay32:bn_lib.obj
 0001:000103e8       BN_set_negative            000213e8 f   libeay32:bn_lib.obj
 0001:00010408       BN_dup                     00021408 f   libeay32:bn_lib.obj
 0001:0001044c       RSA_verify_PKCS1_PSS_mgf1  0002144c f   libeay32:rsa_pss.obj
 0001:0001097c       RSA_padding_add_PKCS1_PSS_mgf1 0002197c f   libeay32:rsa_pss.obj
 0001:00010dd0       RSA_padding_add_X931       00021dd0 f   libeay32:rsa_x931.obj
 0001:00010e7c       RSA_padding_check_X931     00021e7c f   libeay32:rsa_x931.obj
 0001:00010fa4       RSA_X931_hash_id           00021fa4 f   libeay32:rsa_x931.obj
 0001:00010ff4       RSA_sign_ASN1_OCTET_STRING 00021ff4 f   libeay32:rsa_saos.obj
 0001:00011148       EVP_sha1                   00022148 f   libeay32:m_sha1.obj
 0001:00011204       X509_ALGOR_it              00022204 f   libeay32:x_algor.obj
 0001:00011210       d2i_X509_ALGOR             00022210 f   libeay32:x_algor.obj
 0001:00011228       X509_ALGOR_new             00022228 f   libeay32:x_algor.obj
 0001:00011240       X509_ALGOR_free            00022240 f   libeay32:x_algor.obj
 0001:00011258       X509_ALGOR_set0            00022258 f   libeay32:x_algor.obj
 0001:00011300       X509_ALGOR_get0            00022300 f   libeay32:x_algor.obj
 0001:00011354       X509_ALGOR_set_md          00022354 f   libeay32:x_algor.obj
 0001:00011394       CMS_RecipientInfo_ktri_get0_algs 00022394 f   libeay32:cms_env.obj
 0001:000116f0       cms_EnvelopedData_init_bio 000226f0 f   libeay32:cms_env.obj
 0001:00011854       BN_bn2dec                  00022854 f   libeay32:bn_print.obj
 0001:00011a40       BN_hex2bn                  00022a40 f   libeay32:bn_print.obj
 0001:00011bd0       BN_dec2bn                  00022bd0 f   libeay32:bn_print.obj
 0001:00011d64       BN_asc2bn                  00022d64 f   libeay32:bn_print.obj
 0001:00011de4       RSA_new_method             00022de4 f   libeay32:rsa_lib.obj
 0001:00011fc8       RSA_free                   00022fc8 f   libeay32:rsa_lib.obj
 0001:000120fc       RSA_new                    000230fc f   libeay32:rsa_lib.obj
 0001:000126c8       RSA_generate_key_ex        000236c8 f   libeay32:rsa_gen.obj
 0001:000126f8       OBJ_dup                    000236f8 f   libeay32:obj_lib.obj
 0001:00012898       OBJ_cmp                    00023898 f   libeay32:obj_lib.obj
 0001:000128c4       BIO_set                    000238c4 f   libeay32:bio_lib.obj
 0001:00012964       BIO_free                   00023964 f   libeay32:bio_lib.obj
 0001:00012a28       BIO_clear_flags            00023a28 f   libeay32:bio_lib.obj
 0001:00012a38       BIO_test_flags             00023a38 f   libeay32:bio_lib.obj
 0001:00012a44       BIO_set_flags              00023a44 f   libeay32:bio_lib.obj
 0001:00012a54       BIO_read                   00023a54 f   libeay32:bio_lib.obj
 0001:00012b84       BIO_write                  00023b84 f   libeay32:bio_lib.obj
 0001:00012cb8       BIO_puts                   00023cb8 f   libeay32:bio_lib.obj
 0001:00012de0       BIO_gets                   00023de0 f   libeay32:bio_lib.obj
 0001:00012f08       BIO_indent                 00023f08 f   libeay32:bio_lib.obj
 0001:00012f64       BIO_ctrl                   00023f64 f   libeay32:bio_lib.obj
 0001:00013060       BIO_callback_ctrl          00024060 f   libeay32:bio_lib.obj
 0001:00013164       BIO_push                   00024164 f   libeay32:bio_lib.obj
 0001:000131b8       BIO_find_type              000241b8 f   libeay32:bio_lib.obj
 0001:00013200       BIO_next                   00024200 f   libeay32:bio_lib.obj
 0001:00013210       BIO_free_all               00024210 f   libeay32:bio_lib.obj
 0001:00013244       BIO_copy_next_retry        00024244 f   libeay32:bio_lib.obj
 0001:00013268       BIO_new                    00024268 f   libeay32:bio_lib.obj
 0001:000132e0       BIO_int_ctrl               000242e0 f   libeay32:bio_lib.obj
 0001:00013304       BN_mod_word                00024304 f   libeay32:bn_word.obj
 0001:00013368       BN_div_word                00024368 f   libeay32:bn_word.obj
 0001:00013430       BN_add_word                00024430 f   libeay32:bn_word.obj
 0001:0001353c       BN_sub_word                0002453c f   libeay32:bn_word.obj
 0001:00013640       BN_mul_word                00024640 f   libeay32:bn_word.obj
 0001:000136cc       BN_lshift1                 000246cc f   libeay32:bn_shift.obj
 0001:000137a0       BN_rshift1                 000247a0 f   libeay32:bn_shift.obj
 0001:0001387c       BN_lshift                  0002487c f   libeay32:bn_shift.obj
 0001:000139a8       BN_rshift                  000249a8 f   libeay32:bn_shift.obj
 0001:00013b7c       ASN1_put_eoc               00024b7c f   libeay32:asn1_lib.obj
 0001:00013b9c       ASN1_object_size           00024b9c f   libeay32:asn1_lib.obj
 0001:00013bec       ASN1_STRING_set            00024bec f   libeay32:asn1_lib.obj
 0001:00013cdc       ASN1_STRING_set0           00024cdc f   libeay32:asn1_lib.obj
 0001:00013d0c       ASN1_STRING_type_new       00024d0c f   libeay32:asn1_lib.obj
 0001:00013d78       ASN1_STRING_free           00024d78 f   libeay32:asn1_lib.obj
 0001:00013dac       ASN1_STRING_cmp            00024dac f   libeay32:asn1_lib.obj
 0001:00013dec       ASN1_get_object            00024dec f   libeay32:asn1_lib.obj
 0001:00013f44       ASN1_put_object            00024f44 f   libeay32:asn1_lib.obj
 0001:00014058       ASN1_STRING_copy           00025058 f   libeay32:asn1_lib.obj
 0001:000140a4       ASN1_STRING_new            000250a4 f   libeay32:asn1_lib.obj
 0001:000140b8       ASN1_STRING_dup            000250b8 f   libeay32:asn1_lib.obj
 0001:00014118       EVP_PKEY_asn1_get_count    00025118 f   libeay32:ameth_lib.obj
 0001:00014148       EVP_PKEY_asn1_get0         00025148 f   libeay32:ameth_lib.obj
 0001:00014190       EVP_PKEY_asn1_find         00025190 f   libeay32:ameth_lib.obj
 0001:00014278       EVP_PKEY_asn1_find_str     00025278 f   libeay32:ameth_lib.obj
 0001:00014360       EVP_PKEY_asn1_free         00025360 f   libeay32:ameth_lib.obj
 0001:000143a8       X509_ATTRIBUTE_SET_it      000253a8 f   libeay32:x_attrib.obj
 0001:000143b4       X509_ATTRIBUTE_it          000253b4 f   libeay32:x_attrib.obj
 0001:000143c0       X509_ATTRIBUTE_new         000253c0 f   libeay32:x_attrib.obj
 0001:000143d8       X509_ATTRIBUTE_free        000253d8 f   libeay32:x_attrib.obj
 0001:000143f0       X509_ATTRIBUTE_dup         000253f0 f   libeay32:x_attrib.obj
 0001:0001440c       X509_ATTRIBUTE_create      0002540c f   libeay32:x_attrib.obj
 0001:00014588       OBJ_NAME_init              00025588 f   libeay32:o_names.obj
 0001:000145f0       OBJ_NAME_get               000255f0 f   libeay32:o_names.obj
 0001:000146d4       OBJ_find_sigid_algs        000256d4 f   libeay32:obj_xref.obj
 0001:00014774       OBJ_find_sigid_by_algs     00025774 f   libeay32:obj_xref.obj
 0001:00014840       EVP_PBE_find               00025840 f   libeay32:evp_pbe.obj
 0001:00014904       EVP_PBE_CipherInit         00025904 f   libeay32:evp_pbe.obj
 0001:00014f34       BIO_new_file               00025f34 f   libeay32:bss_file.obj
 0001:000155cc       CRYPTO_new_ex_data         000265cc f   libeay32:ex_data.obj
 0001:00015618       CRYPTO_free_ex_data        00026618 f   libeay32:ex_data.obj
 0001:00015664       CRYPTO_set_ex_data         00026664 f   libeay32:ex_data.obj
 0001:00015738       CRYPTO_get_ex_data         00026738 f   libeay32:ex_data.obj
 0001:00015c28       ENGINE_get_pkey_asn1_meth_engine 00026c28 f   libeay32:tb_asnmth.obj
 0001:00015c44       engine_pkey_asn1_meths_free 00026c44 f   libeay32:tb_asnmth.obj
 0001:00015d80       ENGINE_pkey_asn1_find_str  00026d80 f   libeay32:tb_asnmth.obj
 0001:00015e20       ENGINE_get_pkey_asn1_meth  00026e20 f   libeay32:tb_asnmth.obj
 0001:00015e84       RAND_get_rand_method       00026e84 f   libeay32:rand_lib.obj
 0001:00015eec       RAND_seed                  00026eec f   libeay32:rand_lib.obj
 0001:00015f20       RAND_add                   00026f20 f   libeay32:rand_lib.obj
 0001:00015f64       RAND_bytes                 00026f64 f   libeay32:rand_lib.obj
 0001:00015fac       RAND_pseudo_bytes          00026fac f   libeay32:rand_lib.obj
 0001:00015ff4       RAND_status                00026ff4 f   libeay32:rand_lib.obj
 0001:0001602c       ASN1_INTEGER_it            0002702c f   libeay32:tasn_typ.obj
 0001:00016038       d2i_ASN1_INTEGER           00027038 f   libeay32:tasn_typ.obj
 0001:00016050       i2d_ASN1_INTEGER           00027050 f   libeay32:tasn_typ.obj
 0001:00016068       ASN1_INTEGER_new           00027068 f   libeay32:tasn_typ.obj
 0001:00016080       ASN1_INTEGER_free          00027080 f   libeay32:tasn_typ.obj
 0001:00016098       ASN1_ENUMERATED_it         00027098 f   libeay32:tasn_typ.obj
 0001:000160a4       ASN1_ENUMERATED_free       000270a4 f   libeay32:tasn_typ.obj
 0001:000160bc       ASN1_BIT_STRING_it         000270bc f   libeay32:tasn_typ.obj
 0001:000160c8       ASN1_BIT_STRING_new        000270c8 f   libeay32:tasn_typ.obj
 0001:000160e0       ASN1_BIT_STRING_free       000270e0 f   libeay32:tasn_typ.obj
 0001:000160f8       ASN1_OCTET_STRING_it       000270f8 f   libeay32:tasn_typ.obj
 0001:00016104       i2d_ASN1_OCTET_STRING      00027104 f   libeay32:tasn_typ.obj
 0001:0001611c       ASN1_OCTET_STRING_new      0002711c f   libeay32:tasn_typ.obj
 0001:00016134       ASN1_OCTET_STRING_free     00027134 f   libeay32:tasn_typ.obj
 0001:0001614c       ASN1_NULL_it               0002714c f   libeay32:tasn_typ.obj
 0001:00016158       ASN1_NULL_new              00027158 f   libeay32:tasn_typ.obj
 0001:00016170       ASN1_OBJECT_it             00027170 f   libeay32:tasn_typ.obj
 0001:0001617c       ASN1_UTF8STRING_it         0002717c f   libeay32:tasn_typ.obj
 0001:00016188       ASN1_IA5STRING_it          00027188 f   libeay32:tasn_typ.obj
 0001:00016194       ASN1_GENERALIZEDTIME_it    00027194 f   libeay32:tasn_typ.obj
 0001:000161a0       ASN1_ANY_it                000271a0 f   libeay32:tasn_typ.obj
 0001:000161ac       ASN1_SEQUENCE_it           000271ac f   libeay32:tasn_typ.obj
 0001:000161b8       d2i_ASN1_TYPE              000271b8 f   libeay32:tasn_typ.obj
 0001:000161d0       i2d_ASN1_TYPE              000271d0 f   libeay32:tasn_typ.obj
 0001:000161e8       ASN1_TYPE_new              000271e8 f   libeay32:tasn_typ.obj
 0001:00016200       ASN1_TYPE_free             00027200 f   libeay32:tasn_typ.obj
 0001:00016218       ASN1_PRINTABLE_it          00027218 f   libeay32:tasn_typ.obj
 0001:00016224       DISPLAYTEXT_it             00027224 f   libeay32:tasn_typ.obj
 0001:00016230       DIRECTORYSTRING_it         00027230 f   libeay32:tasn_typ.obj
 0001:0001623c       ASN1_BOOLEAN_it            0002723c f   libeay32:tasn_typ.obj
 0001:00016248       ASN1_FBOOLEAN_it           00027248 f   libeay32:tasn_typ.obj
 0001:00016254       ASN1_OCTET_STRING_NDEF_it  00027254 f   libeay32:tasn_typ.obj
 0001:00016260       d2i_ASN1_SEQUENCE_ANY      00027260 f   libeay32:tasn_typ.obj
 0001:00016278       i2d_ASN1_SEQUENCE_ANY      00027278 f   libeay32:tasn_typ.obj
 0001:00016290       i2d_ASN1_SET_ANY           00027290 f   libeay32:tasn_typ.obj
 0001:000162a8       ASN1_INTEGER_cmp           000272a8 f   libeay32:a_int.obj
 0001:000162f0       i2c_ASN1_INTEGER           000272f0 f   libeay32:a_int.obj
 0001:00016444       c2i_ASN1_INTEGER           00027444 f   libeay32:a_int.obj
 0001:00016608       d2i_ASN1_UINTEGER          00027608 f   libeay32:a_int.obj
 0001:00016778       ASN1_INTEGER_set           00027778 f   libeay32:a_int.obj
 0001:00016880       ASN1_INTEGER_get           00027880 f   libeay32:a_int.obj
 0001:00016914       BN_to_ASN1_INTEGER         00027914 f   libeay32:a_int.obj
 0001:00016a3c       ASN1_INTEGER_to_BN         00027a3c f   libeay32:a_int.obj
 0001:00016ab4       BN_BLINDING_free           00027ab4 f   libeay32:bn_blind.obj
 0001:00016b10       BN_BLINDING_invert_ex      00027b10 f   libeay32:bn_blind.obj
 0001:00016b94       BN_BLINDING_thread_id      00027b94 f   libeay32:bn_blind.obj
 0001:00016b9c       BN_BLINDING_new            00027b9c f   libeay32:bn_blind.obj
 0001:00016c90       BN_BLINDING_create_param   00027c90 f   libeay32:bn_blind.obj
 0001:00016e6c       BN_BLINDING_update         00027e6c f   libeay32:bn_blind.obj
 0001:00016f80       BN_BLINDING_convert_ex     00027f80 f   libeay32:bn_blind.obj
 0001:0001712c       BN_CTX_new                 0002812c f   libeay32:bn_ctx.obj
 0001:000171b4       BN_CTX_free                000281b4 f   libeay32:bn_ctx.obj
 0001:00017230       BN_CTX_start               00028230 f   libeay32:bn_ctx.obj
 0001:00017320       BN_CTX_end                 00028320 f   libeay32:bn_ctx.obj
 0001:000173b0       BN_CTX_get                 000283b0 f   libeay32:bn_ctx.obj
 0001:0001789c       BN_gcd                     0002889c f   libeay32:bn_gcd.obj
 0001:00017970       BN_mod_inverse             00028970 f   libeay32:bn_gcd.obj
 0001:00017fe4       bn_mul_normal              00028fe4 f   libeay32:bn_mul.obj
 0001:000180f4       BN_mul                     000290f4 f   libeay32:bn_mul.obj
 0001:00018214       BN_uadd                    00029214 f   libeay32:bn_add.obj
 0001:00018310       BN_usub                    00029310 f   libeay32:bn_add.obj
 0001:000184b8       BN_sub                     000294b8 f   libeay32:bn_add.obj
 0001:000185b0       BN_add                     000295b0 f   libeay32:bn_add.obj
 0001:00018664       ASN1_tag2bit               00029664 f   libeay32:tasn_dec.obj
 0001:0001867c       asn1_ex_c2i                0002967c f   libeay32:tasn_dec.obj
 0001:00019554       ASN1_item_ex_d2i           0002a554 f   libeay32:tasn_dec.obj
 0001:0001a328       ASN1_item_d2i              0002b328 f   libeay32:tasn_dec.obj
 0001:0001a6d8       asn1_ex_i2c                0002b6d8 f   libeay32:tasn_enc.obj
 0001:0001a9c4       ASN1_item_ex_i2d           0002b9c4 f   libeay32:tasn_enc.obj
 0001:0001b09c       ASN1_item_i2d              0002c09c f   libeay32:tasn_enc.obj
 0001:0001b0b0       ASN1_primitive_new         0002c0b0 f   libeay32:tasn_new.obj
 0001:0001b5ec       ASN1_item_ex_new           0002c5ec f   libeay32:tasn_new.obj
 0001:0001b600       ASN1_template_new          0002c600 f   libeay32:tasn_new.obj
 0001:0001b6d8       ASN1_item_new              0002c6d8 f   libeay32:tasn_new.obj
 0001:0001b710       ASN1_primitive_free        0002c710 f   libeay32:tasn_fre.obj
 0001:0001ba84       ASN1_template_free         0002ca84 f   libeay32:tasn_fre.obj
 0001:0001bb38       ASN1_item_free             0002cb38 f   libeay32:tasn_fre.obj
 0001:0001bb58       ASN1_item_ex_free          0002cb58 f   libeay32:tasn_fre.obj
 0001:0001bb6c       EVP_CIPHER_CTX_init        0002cb6c f   libeay32:evp_enc.obj
 0001:0001bb84       EVP_EncryptUpdate          0002cb84 f   libeay32:evp_enc.obj
 0001:0001bd74       EVP_EncryptFinal_ex        0002cd74 f   libeay32:evp_enc.obj
 0001:0001bea0       EVP_DecryptUpdate          0002cea0 f   libeay32:evp_enc.obj
 0001:0001c01c       EVP_DecryptFinal_ex        0002d01c f   libeay32:evp_enc.obj
 0001:0001c1f4       EVP_CIPHER_CTX_cleanup     0002d1f4 f   libeay32:evp_enc.obj
 0001:0001c280       EVP_CIPHER_CTX_set_padding 0002d280 f   libeay32:evp_enc.obj
 0001:0001c29c       EVP_CIPHER_CTX_ctrl        0002d29c f   libeay32:evp_enc.obj
 0001:0001c34c       EVP_CIPHER_CTX_rand_key    0002d34c f   libeay32:evp_enc.obj
 0001:0001c3a0       EVP_CIPHER_CTX_copy        0002d3a0 f   libeay32:evp_enc.obj
 0001:0001c4f0       EVP_CipherInit_ex          0002d4f0 f   libeay32:evp_enc.obj
 0001:0001c850       EVP_CipherUpdate           0002d850 f   libeay32:evp_enc.obj
 0001:0001c894       EVP_CipherFinal_ex         0002d894 f   libeay32:evp_enc.obj
 0001:0001c8bc       EVP_EncryptInit_ex         0002d8bc f   libeay32:evp_enc.obj
 0001:0001c8e4       EVP_DecryptInit_ex         0002d8e4 f   libeay32:evp_enc.obj
 0001:0001c90c       EVP_CIPHER_CTX_set_key_length 0002d90c f   libeay32:evp_enc.obj
 0001:0001c994       ASN1_ENUMERATED_get        0002d994 f   libeay32:a_enum.obj
 0001:0001ca28       ASN1_ENUMERATED_to_BN      0002da28 f   libeay32:a_enum.obj
 0001:0001ca9c       X509_NAME_entry_count      0002da9c f   libeay32:x509name.obj
 0001:0001cac0       X509_NAME_get_index_by_OBJ 0002dac0 f   libeay32:x509name.obj
 0001:0001cb2c       X509_NAME_get_entry        0002db2c f   libeay32:x509name.obj
 0001:0001cb74       X509_NAME_delete_entry     0002db74 f   libeay32:x509name.obj
 0001:0001cc48       X509_NAME_add_entry        0002dc48 f   libeay32:x509name.obj
 0001:0001cdb4       X509_NAME_ENTRY_set_object 0002ddb4 f   libeay32:x509name.obj
 0001:0001ce28       X509_NAME_ENTRY_set_data   0002de28 f   libeay32:x509name.obj
 0001:0001cf08       X509_NAME_ENTRY_get_object 0002df08 f   libeay32:x509name.obj
 0001:0001cf18       X509_NAME_ENTRY_get_data   0002df18 f   libeay32:x509name.obj
 0001:0001cf28       X509_NAME_get_index_by_NID 0002df28 f   libeay32:x509name.obj
 0001:0001cf64       X509_NAME_ENTRY_create_by_OBJ 0002df64 f   libeay32:x509name.obj
 0001:0001d010       X509_NAME_ENTRY_create_by_txt 0002e010 f   libeay32:x509name.obj
 0001:0001d0b4       X509_NAME_add_entry_by_txt 0002e0b4 f   libeay32:x509name.obj
 0001:0001d10c       ACCESS_DESCRIPTION_it      0002e10c f   libeay32:v3_info.obj
 0001:0001d118       ACCESS_DESCRIPTION_free    0002e118 f   libeay32:v3_info.obj
 0001:0001d130       AUTHORITY_INFO_ACCESS_it   0002e130 f   libeay32:v3_info.obj
 0001:0001d484       X509_CRL_get_ext_d2i       0002e484 f   libeay32:x509_ext.obj
 0001:0001d49c       X509_get_ext_count         0002e49c f   libeay32:x509_ext.obj
 0001:0001d4b4       X509_get_ext_by_NID        0002e4b4 f   libeay32:x509_ext.obj
 0001:0001d4cc       X509_get_ext               0002e4cc f   libeay32:x509_ext.obj
 0001:0001d4e4       X509_get_ext_d2i           0002e4e4 f   libeay32:x509_ext.obj
 0001:0001d4fc       X509_REVOKED_get_ext_d2i   0002e4fc f   libeay32:x509_ext.obj
 0001:0001d510       CONF_parse_list            0002e510 f   libeay32:conf_mod.obj
 0001:0001d63c       OTHERNAME_it               0002e63c f   libeay32:v3_genn.obj
 0001:0001d648       OTHERNAME_new              0002e648 f   libeay32:v3_genn.obj
 0001:0001d660       EDIPARTYNAME_it            0002e660 f   libeay32:v3_genn.obj
 0001:0001d66c       GENERAL_NAME_it            0002e66c f   libeay32:v3_genn.obj
 0001:0001d678       GENERAL_NAME_new           0002e678 f   libeay32:v3_genn.obj
 0001:0001d690       GENERAL_NAME_free          0002e690 f   libeay32:v3_genn.obj
 0001:0001d6a8       GENERAL_NAMES_it           0002e6a8 f   libeay32:v3_genn.obj
 0001:0001d6b4       GENERAL_NAMES_new          0002e6b4 f   libeay32:v3_genn.obj
 0001:0001d6cc       GENERAL_NAMES_free         0002e6cc f   libeay32:v3_genn.obj
 0001:0001d6e4       X509_get_issuer_name       0002e6e4 f   libeay32:x509_cmp.obj
 0001:0001d6f0       X509_get_subject_name      0002e6f0 f   libeay32:x509_cmp.obj
 0001:0001d6fc       X509_get_serialNumber      0002e6fc f   libeay32:x509_cmp.obj
 0001:0001d708       X509_NAME_cmp              0002e708 f   libeay32:x509_cmp.obj
 0001:0001d798       X509_get_pubkey            0002e798 f   libeay32:x509_cmp.obj
 0001:0001d7cc       X509_EXTENSION_it          0002e7cc f   libeay32:x_exten.obj
 0001:0001d7f0       X509V3_EXT_get_nid         0002e7f0 f   libeay32:v3_lib.obj
 0001:0001d880       X509V3_EXT_d2i             0002e880 f   libeay32:v3_lib.obj
 0001:0001d910       X509V3_get_d2i             0002e910 f   libeay32:v3_lib.obj
 0001:0001de1c       ec_wNAF_mul                0002ee1c f   libeay32:ec_mult.obj
 0001:0001e9c4       ec_wNAF_precompute_mult    0002f9c4 f   libeay32:ec_mult.obj
 0001:0001eed0       ec_wNAF_have_precompute_mult 0002fed0 f   libeay32:ec_mult.obj
 0001:0001ef0c       d2i_ECDSA_SIG              0002ff0c f   libeay32:ecs_asn1.obj
 0001:0001ef24       i2d_ECDSA_SIG              0002ff24 f   libeay32:ecs_asn1.obj
 0001:0001ef3c       ECDSA_SIG_new              0002ff3c f   libeay32:ecs_asn1.obj
 0001:0001ef54       ECDSA_SIG_free             0002ff54 f   libeay32:ecs_asn1.obj
 0001:0001ef6c       ECDSA_OpenSSL              0002ff6c f   libeay32:ecs_ossl.obj
 0001:0001fc30       ENGINE_get_default_ECDSA   00030c30 f   libeay32:tb_ecdsa.obj
 0001:0001fc4c       ENGINE_get_ECDSA           00030c4c f   libeay32:tb_ecdsa.obj
 0001:0001fdac       ecdh_check                 00030dac f   libeay32:ech_lib.obj
 0001:00020030       BN_rand                    00031030 f   libeay32:bn_rand.obj
 0001:00020060       BN_pseudo_rand             00031060 f   libeay32:bn_rand.obj
 0001:00020278       BN_rand_range              00031278 f   libeay32:bn_rand.obj
 0001:00020294       BN_pseudo_rand_range       00031294 f   libeay32:bn_rand.obj
 0001:000202b0       EC_GROUP_new_curve_GFp     000312b0 f   libeay32:ec_cvt.obj
 0001:0002037c       EC_GROUP_new_curve_GF2m    0003137c f   libeay32:ec_cvt.obj
 0001:000203e0       BIGNUM_it                  000313e0 f   libeay32:x_bignum.obj
 0001:000203ec       CBIGNUM_it                 000313ec f   libeay32:x_bignum.obj
 0001:0002052c       LONG_it                    0003152c f   libeay32:x_long.obj
 0001:00020538       ZLONG_it                   00031538 f   libeay32:x_long.obj
 0001:0002072c       ASN1_item_dup              0003172c f   libeay32:a_dup.obj
 0001:000207c0       DSA_do_sign                000317c0 f   libeay32:dsa_sign.obj
 0001:000207dc       DSA_sign_setup             000317dc f   libeay32:dsa_sign.obj
 0001:000207f8       DSA_SIG_new                000317f8 f   libeay32:dsa_sign.obj
 0001:00020830       DSA_SIG_free               00031830 f   libeay32:dsa_sign.obj
 0001:0002086c       DSA_do_verify              0003186c f   libeay32:dsa_vrf.obj
 0001:00020888       DSA_OpenSSL                00031888 f   libeay32:dsa_ossl.obj
 0001:000210d0       ENGINE_get_default_DSA     000320d0 f   libeay32:tb_dsa.obj
 0001:000210ec       ENGINE_get_DSA             000320ec f   libeay32:tb_dsa.obj
 0001:000210f4       BN_mod_exp_recp            000320f4 f   libeay32:bn_exp.obj
 0001:00021500       BN_mod_exp_mont_consttime  00032500 f   libeay32:bn_exp.obj
 0001:00021aa4       BN_mod_exp_mont_word       00032aa4 f   libeay32:bn_exp.obj
 0001:00021ec4       BN_mod_exp_mont            00032ec4 f   libeay32:bn_exp.obj
 0001:00022324       BN_mod_exp                 00033324 f   libeay32:bn_exp.obj
 0001:0002268c       BN_from_montgomery         0003368c f   libeay32:bn_mont.obj
 0001:000226f8       BN_MONT_CTX_init           000336f8 f   libeay32:bn_mont.obj
 0001:00022730       BN_MONT_CTX_free           00033730 f   libeay32:bn_mont.obj
 0001:0002276c       BN_MONT_CTX_set            0003376c f   libeay32:bn_mont.obj
 0001:00022934       BN_MONT_CTX_copy           00033934 f   libeay32:bn_mont.obj
 0001:000229b0       BN_mod_mul_montgomery      000339b0 f   libeay32:bn_mont.obj
 0001:00022a3c       BN_MONT_CTX_new            00033a3c f   libeay32:bn_mont.obj
 0001:00022a80       BN_MONT_CTX_set_locked     00033a80 f   libeay32:bn_mont.obj
 0001:00022b58       BN_div                     00033b58 f   libeay32:bn_div.obj
 0001:0002310c       BN_GENCB_call              0003410c f   libeay32:bn_prime.obj
 0001:00023570       BN_is_prime_fasttest_ex    00034570 f   libeay32:bn_prime.obj
 0001:00023964       BN_generate_prime_ex       00034964 f   libeay32:bn_prime.obj
 0001:00023ccc       ENGINE_get_default_DH      00034ccc f   libeay32:tb_dh.obj
 0001:00023ce8       ENGINE_get_DH              00034ce8 f   libeay32:tb_dh.obj
 0001:00023cf0       DH_check_pub_key           00034cf0 f   libeay32:dh_check.obj
 0001:00023d8c       PKCS1_MGF1                 00034d8c f   libeay32:rsa_oaep.obj
 0001:00023eb4       RSA_padding_add_PKCS1_OAEP 00034eb4 f   libeay32:rsa_oaep.obj
 0001:000240ac       RSA_padding_check_PKCS1_OAEP 000350ac f   libeay32:rsa_oaep.obj
 0001:0002431c       SHA1_Init                  0003531c f   libeay32:sha1dgst.obj
 0001:000246d4       SHA1_Update                000356d4 f   libeay32:sha1dgst.obj
 0001:000247dc       SHA1_Final                 000357dc f   libeay32:sha1dgst.obj
 0001:0002494c       SHA224_Init                0003594c f   libeay32:sha256.obj
 0001:000249cc       SHA256_Init                000359cc f   libeay32:sha256.obj
 0001:00024d6c       SHA256_Update              00035d6c f   libeay32:sha256.obj
 0001:00024e74       SHA256_Final               00035e74 f   libeay32:sha256.obj
 0001:00024ffc       SHA384_Init                00035ffc f   libeay32:sha512.obj
 0001:000250ec       SHA512_Init                000360ec f   libeay32:sha512.obj
 0001:000259b4       SHA512_Final               000369b4 f   libeay32:sha512.obj
 0001:00025be0       SHA512_Update              00036be0 f   libeay32:sha512.obj
 0001:00025d30       CMS_IssuerAndSerialNumber_it 00036d30 f   libeay32:cms_asn1.obj
 0001:00025d3c       CMS_OtherCertificateFormat_it 00036d3c f   libeay32:cms_asn1.obj
 0001:00025d48       CMS_CertificateChoices_it  00036d48 f   libeay32:cms_asn1.obj
 0001:00025d54       CMS_SignerIdentifier_it    00036d54 f   libeay32:cms_asn1.obj
 0001:00025d60       CMS_EncapsulatedContentInfo_it 00036d60 f   libeay32:cms_asn1.obj
 0001:00025da8       CMS_SignerInfo_it          00036da8 f   libeay32:cms_asn1.obj
 0001:00025db4       CMS_OtherRevocationInfoFormat_it 00036db4 f   libeay32:cms_asn1.obj
 0001:00025dc0       CMS_RevocationInfoChoice_it 00036dc0 f   libeay32:cms_asn1.obj
 0001:00025dcc       CMS_SignedData_it          00036dcc f   libeay32:cms_asn1.obj
 0001:00025dd8       CMS_OriginatorInfo_it      00036dd8 f   libeay32:cms_asn1.obj
 0001:00025de4       CMS_EncryptedContentInfo_it 00036de4 f   libeay32:cms_asn1.obj
 0001:00025df0       CMS_KeyTransRecipientInfo_it 00036df0 f   libeay32:cms_asn1.obj
 0001:00025dfc       CMS_OtherKeyAttribute_it   00036dfc f   libeay32:cms_asn1.obj
 0001:00025e08       CMS_RecipientKeyIdentifier_it 00036e08 f   libeay32:cms_asn1.obj
 0001:00025e14       CMS_KeyAgreeRecipientIdentifier_it 00036e14 f   libeay32:cms_asn1.obj
 0001:00025e20       CMS_RecipientEncryptedKey_it 00036e20 f   libeay32:cms_asn1.obj
 0001:00025e2c       CMS_OriginatorPublicKey_it 00036e2c f   libeay32:cms_asn1.obj
 0001:00025e38       CMS_OriginatorIdentifierOrKey_it 00036e38 f   libeay32:cms_asn1.obj
 0001:00025e44       CMS_KeyAgreeRecipientInfo_it 00036e44 f   libeay32:cms_asn1.obj
 0001:00025e50       CMS_KEKIdentifier_it       00036e50 f   libeay32:cms_asn1.obj
 0001:00025e5c       CMS_KEKRecipientInfo_it    00036e5c f   libeay32:cms_asn1.obj
 0001:00025e68       CMS_PasswordRecipientInfo_it 00036e68 f   libeay32:cms_asn1.obj
 0001:00025e74       CMS_OtherRecipientInfo_it  00036e74 f   libeay32:cms_asn1.obj
 0001:00025f08       CMS_RecipientInfo_it       00036f08 f   libeay32:cms_asn1.obj
 0001:00025f14       CMS_EnvelopedData_it       00036f14 f   libeay32:cms_asn1.obj
 0001:00025f20       CMS_DigestedData_it        00036f20 f   libeay32:cms_asn1.obj
 0001:00025f2c       CMS_EncryptedData_it       00036f2c f   libeay32:cms_asn1.obj
 0001:00025f38       CMS_AuthenticatedData_it   00036f38 f   libeay32:cms_asn1.obj
 0001:00025f44       CMS_CompressedData_it      00036f44 f   libeay32:cms_asn1.obj
 0001:00025fe8       CMS_Attributes_Sign_it     00036fe8 f   libeay32:cms_asn1.obj
 0001:00025ff4       CMS_ReceiptsFrom_it        00036ff4 f   libeay32:cms_asn1.obj
 0001:00026000       CMS_get0_content           00037000 f   libeay32:cms_lib.obj
 0001:000260f0       cms_DigestAlgorithm_init_bio 000370f0 f   libeay32:cms_lib.obj
 0001:000261b8       cms_DigestAlgorithm_find_ctx 000371b8 f   libeay32:cms_lib.obj
 0001:00026288       cms_content_bio            00037288 f   libeay32:cms_lib.obj
 0001:000262e4       CMS_dataInit               000372e4 f   libeay32:cms_lib.obj
 0001:000263e8       CMS_dataFinal              000373e8 f   libeay32:cms_lib.obj
 0001:00026550       cms_EncryptedContent_init_bio 00037550 f   libeay32:cms_enc.obj
 0001:00026910       cms_EncryptedData_init_bio 00037910 f   libeay32:cms_enc.obj
 0001:00026b18       CMS_SignerInfo_get0_algs   00037b18 f   libeay32:cms_sd.obj
 0001:00026b58       CMS_SignerInfo_sign        00037b58 f   libeay32:cms_sd.obj
 0001:00026da4       cms_SignedData_init_bio    00037da4 f   libeay32:cms_sd.obj
 0001:00027008       cms_SignedData_final       00038008 f   libeay32:cms_sd.obj
 0001:00027098       X509_PURPOSE_get0          00038098 f   libeay32:v3_purp.obj
 0001:000270e4       X509_PURPOSE_get_by_id     000380e4 f   libeay32:v3_purp.obj
 0001:0002714c       X509_supported_extension   0003814c f   libeay32:v3_purp.obj
 0001:00027bc4       X509_check_purpose         00038bc4 f   libeay32:v3_purp.obj
 0001:00027c5c       EVP_PKEY_sign_init         00038c5c f   libeay32:pmeth_fn.obj
 0001:00027cec       EVP_PKEY_sign              00038cec f   libeay32:pmeth_fn.obj
 0001:00027e00       EVP_PKEY_verify_init       00038e00 f   libeay32:pmeth_fn.obj
 0001:00027e90       EVP_PKEY_verify            00038e90 f   libeay32:pmeth_fn.obj
 0001:00027f34       EVP_PKEY_encrypt_init      00038f34 f   libeay32:pmeth_fn.obj
 0001:00027fc4       EVP_PKEY_encrypt           00038fc4 f   libeay32:pmeth_fn.obj
 0001:000280d8       AES_wrap_key               000390d8 f   libeay32:aes_wrap.obj
 0001:000281f4       AES_set_encrypt_key        000391f4 f   libeay32:aes_misc.obj
 0001:00028484       cms_RecipientInfo_pwri_crypt 00039484 f   libeay32:cms_pwri.obj
 0001:000287f4       RSA_PKCS1_SSLeay           000397f4 f   libeay32:rsa_eay.obj
 0001:0002a014       ENGINE_get_default_RSA     0003b014 f   libeay32:tb_rsa.obj
 0001:0002a030       ENGINE_get_RSA             0003b030 f   libeay32:tb_rsa.obj
 0001:0002a038       bn_mul_add_words           0003b038 f   libeay32:bn_asm.obj
 0001:0002a090       bn_mul_words               0003b090 f   libeay32:bn_asm.obj
 0001:0002a0dc       bn_sqr_words               0003b0dc f   libeay32:bn_asm.obj
 0001:0002a108       bn_div_words               0003b108 f   libeay32:bn_asm.obj
 0001:0002a138       bn_add_words               0003b138 f   libeay32:bn_asm.obj
 0001:0002a18c       bn_sub_words               0003b18c f   libeay32:bn_asm.obj
 0001:0002dca4       PKCS5_PBKDF2_HMAC          0003eca4 f   libeay32:p5_crpt2.obj
 0001:0002de6c       PKCS5_v2_PBKDF2_keyivgen   0003ee6c f   libeay32:p5_crpt2.obj
 0001:0002e10c       PKCS5_v2_PBE_keyivgen      0003f10c f   libeay32:p5_crpt2.obj
 0001:0002e2c8       PKCS12_PBE_keyivgen        0003f2c8 f   libeay32:p12_crpt.obj
 0001:0002e4bc       PKCS5_PBE_keyivgen         0003f4bc f   libeay32:p5_crpt.obj
 0001:0002e774       RAND_SSLeay                0003f774 f   libeay32:md_rand.obj
 0001:0002f17c       ENGINE_get_default_RAND    0004017c f   libeay32:tb_rand.obj
 0001:0002f198       ENGINE_get_RAND            00040198 f   libeay32:tb_rand.obj
 0001:0002f1a0       BUF_MEM_new                000401a0 f   libeay32:buffer.obj
 0001:0002f204       BUF_MEM_free               00040204 f   libeay32:buffer.obj
 0001:0002f244       BUF_MEM_grow               00040244 f   libeay32:buffer.obj
 0001:0002f34c       BUF_MEM_grow_clean         0004034c f   libeay32:buffer.obj
 0001:0002f468       BN_nnmod                   00040468 f   libeay32:bn_mod.obj
 0001:0002f4e8       BN_mod_add                 000404e8 f   libeay32:bn_mod.obj
 0001:0002f524       BN_mod_add_quick           00040524 f   libeay32:bn_mod.obj
 0001:0002f57c       BN_mod_sub_quick           0004057c f   libeay32:bn_mod.obj
 0001:0002f5cc       BN_mod_mul                 000405cc f   libeay32:bn_mod.obj
 0001:0002f65c       BN_mod_sqr                 0004065c f   libeay32:bn_mod.obj
 0001:0002f6a0       BN_mod_lshift1_quick       000406a0 f   libeay32:bn_mod.obj
 0001:0002f6f8       BN_mod_lshift_quick        000406f8 f   libeay32:bn_mod.obj
 0001:0002f7e8       ASN1_BIT_STRING_set        000407e8 f   libeay32:a_bitstr.obj
 0001:0002f7f8       i2c_ASN1_BIT_STRING        000407f8 f   libeay32:a_bitstr.obj
 0001:0002f8fc       c2i_ASN1_BIT_STRING        000408fc f   libeay32:a_bitstr.obj
 0001:0002fa40       ASN1_BIT_STRING_set_bit    00040a40 f   libeay32:a_bitstr.obj
 0001:0002fb90       ASN1_BIT_STRING_get_bit    00040b90 f   libeay32:a_bitstr.obj
 0001:0002fbec       asn1_get_choice_selector   00040bec f   libeay32:tasn_utl.obj
 0001:0002fbfc       asn1_set_choice_selector   00040bfc f   libeay32:tasn_utl.obj
 0001:0002fc18       asn1_do_lock               00040c18 f   libeay32:tasn_utl.obj
 0001:0002fc9c       asn1_enc_init              00040c9c f   libeay32:tasn_utl.obj
 0001:0002fcf4       asn1_enc_free              00040cf4 f   libeay32:tasn_utl.obj
 0001:0002fd68       asn1_enc_save              00040d68 f   libeay32:tasn_utl.obj
 0001:0002fe14       asn1_enc_restore           00040e14 f   libeay32:tasn_utl.obj
 0001:0002febc       asn1_get_field_ptr         00040ebc f   libeay32:tasn_utl.obj
 0001:0002fed4       asn1_do_adb                00040ed4 f   libeay32:tasn_utl.obj
 0001:0002ffcc       ENGINE_get_cipher_engine   00040fcc f   libeay32:tb_cipher.obj
 0001:0002ffe8       ENGINE_get_cipher          00040fe8 f   libeay32:tb_cipher.obj
 0001:0003004c       X509_NAME_ENTRY_it         0004104c f   libeay32:x_name.obj
 0001:00030058       X509_NAME_ENTRY_new        00041058 f   libeay32:x_name.obj
 0001:00030070       X509_NAME_ENTRY_free       00041070 f   libeay32:x_name.obj
 0001:00030088       X509_NAME_ENTRY_dup        00041088 f   libeay32:x_name.obj
 0001:000300a4       X509_NAME_ENTRIES_it       000410a4 f   libeay32:x_name.obj
 0001:000300b0       X509_NAME_it               000410b0 f   libeay32:x_name.obj
 0001:000300bc       i2d_X509_NAME              000410bc f   libeay32:x_name.obj
 0001:000300d4       X509_NAME_new              000410d4 f   libeay32:x_name.obj
 0001:000300ec       X509_NAME_free             000410ec f   libeay32:x_name.obj
 0001:00030104       X509_NAME_dup              00041104 f   libeay32:x_name.obj
 0001:00030990       ASN1_PRINTABLE_type        00041990 f   libeay32:a_print.obj
 0001:00030aa4       ASN1_STRING_TABLE_get      00041aa4 f   libeay32:a_strnid.obj
 0001:00030b20       ASN1_STRING_set_by_NID     00041b20 f   libeay32:a_strnid.obj
 0001:00030be0       i2v_GENERAL_NAME           00041be0 f   libeay32:v3_alt.obj
 0001:00030db0       GENERAL_NAME_print         00041db0 f   libeay32:v3_alt.obj
 0001:000313b4       i2v_GENERAL_NAMES          000423b4 f   libeay32:v3_alt.obj
 0001:00031428       a2i_GENERAL_NAME           00042428 f   libeay32:v3_alt.obj
 0001:000316b0       v2i_GENERAL_NAME_ex        000426b0 f   libeay32:v3_alt.obj
 0001:00031824       v2i_GENERAL_NAME           00042824 f   libeay32:v3_alt.obj
 0001:00031ae0       v2i_GENERAL_NAMES          00042ae0 f   libeay32:v3_alt.obj
 0001:00031bb0       X509v3_get_ext_count       00042bb0 f   libeay32:x509_v3.obj
 0001:00031bd0       X509v3_get_ext_by_OBJ      00042bd0 f   libeay32:x509_v3.obj
 0001:00031c34       X509v3_get_ext             00042c34 f   libeay32:x509_v3.obj
 0001:00031c7c       X509_EXTENSION_get_object  00042c7c f   libeay32:x509_v3.obj
 0001:00031c8c       X509_EXTENSION_get_critical 00042c8c f   libeay32:x509_v3.obj
 0001:00031cac       X509v3_get_ext_by_NID      00042cac f   libeay32:x509_v3.obj
 0001:00031ce8       DSO_convert_filename       00042ce8 f   libeay32:dso_lib.obj
 0001:00031e28       CONF_set_nconf             00042e28 f   libeay32:conf_lib.obj
 0001:00031e6c       NCONF_get_section          00042e6c f   libeay32:conf_lib.obj
 0001:00031ee8       NCONF_get_string           00042ee8 f   libeay32:conf_lib.obj
 0001:00031f80       CONF_get_section           00042f80 f   libeay32:conf_lib.obj
 0001:00031fbc       CONF_get_string            00042fbc f   libeay32:conf_lib.obj
 0001:00032000       CONF_free                  00043000 f   libeay32:conf_lib.obj
 0001:00032078       X509_NAME_oneline          00043078 f   libeay32:x509_obj.obj
 0001:00032448       X509_PUBKEY_it             00043448 f   libeay32:x_pubkey.obj
 0001:00032454       X509_PUBKEY_get            00043454 f   libeay32:x_pubkey.obj
 0001:00032604       X509_PUBKEY_set0_param     00043604 f   libeay32:x_pubkey.obj
 0001:00032684       X509_PUBKEY_get0_param     00043684 f   libeay32:x_pubkey.obj
 0001:000329ac       DIST_POINT_NAME_it         000439ac f   libeay32:v3_crld.obj
 0001:000329b8       DIST_POINT_it              000439b8 f   libeay32:v3_crld.obj
 0001:000329c4       DIST_POINT_free            000439c4 f   libeay32:v3_crld.obj
 0001:000329dc       CRL_DIST_POINTS_it         000439dc f   libeay32:v3_crld.obj
 0001:000329e8       CRL_DIST_POINTS_free       000439e8 f   libeay32:v3_crld.obj
 0001:00032a00       ISSUING_DIST_POINT_it      00043a00 f   libeay32:v3_crld.obj
 0001:00032a0c       ISSUING_DIST_POINT_free    00043a0c f   libeay32:v3_crld.obj
 0001:00032d54       DIST_POINT_set_dpname      00043d54 f   libeay32:v3_crld.obj
 0001:00033490       POLICY_MAPPING_it          00044490 f   libeay32:v3_pmaps.obj
 0001:0003349c       POLICY_MAPPINGS_it         0004449c f   libeay32:v3_pmaps.obj
 0001:000334a8       POLICY_MAPPING_free        000444a8 f   libeay32:v3_pmaps.obj
 0001:0003372c       GENERAL_SUBTREE_it         0004472c f   libeay32:v3_ncons.obj
 0001:00033738       NAME_CONSTRAINTS_it        00044738 f   libeay32:v3_ncons.obj
 0001:00033744       NAME_CONSTRAINTS_free      00044744 f   libeay32:v3_ncons.obj
 0001:00034afc       POLICY_CONSTRAINTS_it      00045afc f   libeay32:v3_pcons.obj
 0001:00034cbc       EXTENDED_KEY_USAGE_it      00045cbc f   libeay32:v3_extku.obj
 0001:00034e5c       SXNETID_it                 00045e5c f   libeay32:v3_sxnet.obj
 0001:00034e68       SXNET_it                   00045e68 f   libeay32:v3_sxnet.obj
 0001:00034f44       SXNET_get_id_INTEGER       00045f44 f   libeay32:v3_sxnet.obj
 0001:00034fb4       SXNET_add_id_INTEGER       00045fb4 f   libeay32:v3_sxnet.obj
 0001:0003515c       SXNET_add_id_asc           0004615c f   libeay32:v3_sxnet.obj
 0001:00035248       i2s_ASN1_ENUMERATED_TABLE  00046248 f   libeay32:v3_enum.obj
 0001:0003563c       CERTIFICATEPOLICIES_it     0004663c f   libeay32:v3_cpols.obj
 0001:00035648       POLICYINFO_it              00046648 f   libeay32:v3_cpols.obj
 0001:00035654       POLICYINFO_free            00046654 f   libeay32:v3_cpols.obj
 0001:00035678       POLICYQUALINFO_it          00046678 f   libeay32:v3_cpols.obj
 0001:00035684       POLICYQUALINFO_free        00046684 f   libeay32:v3_cpols.obj
 0001:0003569c       USERNOTICE_it              0004669c f   libeay32:v3_cpols.obj
 0001:000356a8       NOTICEREF_it               000466a8 f   libeay32:v3_cpols.obj
 0001:0003633c       BASIC_CONSTRAINTS_it       0004733c f   libeay32:v3_bcons.obj
 0001:00036348       BASIC_CONSTRAINTS_free     00047348 f   libeay32:v3_bcons.obj
 0001:000364ec       PKEY_USAGE_PERIOD_it       000474ec f   libeay32:v3_pku.obj
 0001:000365a8       i2v_ASN1_BIT_STRING        000475a8 f   libeay32:v3_bitst.obj
 0001:0003660c       v2i_ASN1_BIT_STRING        0004760c f   libeay32:v3_bitst.obj
 0001:0003678c       i2s_ASN1_OCTET_STRING      0004778c f   libeay32:v3_skey.obj
 0001:000367a8       s2i_ASN1_OCTET_STRING      000477a8 f   libeay32:v3_skey.obj
 0001:00036ad4       X509V3_get_section         00047ad4 f   libeay32:v3_conf.obj
 0001:00036b44       X509V3_section_free        00047b44 f   libeay32:v3_conf.obj
 0001:00036be0       X509_REQ_INFO_it           00047be0 f   libeay32:x_req.obj
 0001:00036bec       X509_digest                00047bec f   libeay32:x_all.obj
 0001:00036c28       X509_CRL_digest            00047c28 f   libeay32:x_all.obj
 0001:00036c64       X509at_get_attr_count      00047c64 f   libeay32:x509_att.obj
 0001:00036c74       X509at_get_attr_by_OBJ     00047c74 f   libeay32:x509_att.obj
 0001:00036cd8       X509at_add1_attr           00047cd8 f   libeay32:x509_att.obj
 0001:00036dac       X509_ATTRIBUTE_set1_object 00047dac f   libeay32:x509_att.obj
 0001:00036df0       X509_ATTRIBUTE_set1_data   00047df0 f   libeay32:x509_att.obj
 0001:00036f64       X509at_get_attr_by_NID     00047f64 f   libeay32:x509_att.obj
 0001:00036fa0       X509_ATTRIBUTE_create_by_OBJ 00047fa0 f   libeay32:x509_att.obj
 0001:00037074       X509_ATTRIBUTE_create_by_NID 00048074 f   libeay32:x509_att.obj
 0001:000370f8       X509at_add1_attr_by_NID    000480f8 f   libeay32:x509_att.obj
 0001:00037148       ECDH_OpenSSL               00048148 f   libeay32:ech_ossl.obj
 0001:000374a0       ENGINE_get_default_ECDH    000484a0 f   libeay32:tb_ecdh.obj
 0001:000374bc       ENGINE_get_ECDH            000484bc f   libeay32:tb_ecdh.obj
 0001:000374c4       ec_GFp_mont_group_init     000484c4 f   libeay32:ecp_mont.obj
 0001:000374e4       ec_GFp_mont_group_finish   000484e4 f   libeay32:ecp_mont.obj
 0001:00037530       ec_GFp_mont_group_clear_finish 00048530 f   libeay32:ecp_mont.obj
 0001:0003757c       ec_GFp_mont_group_copy     0004857c f   libeay32:ecp_mont.obj
 0001:0003764c       ec_GFp_mont_group_set_curve 0004864c f   libeay32:ecp_mont.obj
 0001:000377ac       ec_GFp_mont_field_mul      000487ac f   libeay32:ecp_mont.obj
 0001:0003781c       ec_GFp_mont_field_sqr      0004881c f   libeay32:ecp_mont.obj
 0001:00037888       ec_GFp_mont_field_encode   00048888 f   libeay32:ecp_mont.obj
 0001:000378f8       ec_GFp_mont_field_decode   000488f8 f   libeay32:ecp_mont.obj
 0001:00037958       ec_GFp_mont_field_set_to_one 00048958 f   libeay32:ecp_mont.obj
 0001:000379bc       EC_GFp_mont_method         000489bc f   libeay32:ecp_mont.obj
 0001:000379c8       ec_GFp_nist_group_copy     000489c8 f   libeay32:ecp_nist.obj
 0001:000379e4       ec_GFp_nist_group_set_curve 000489e4 f   libeay32:ecp_nist.obj
 0001:00037b30       ec_GFp_nist_field_mul      00048b30 f   libeay32:ecp_nist.obj
 0001:00037c0c       ec_GFp_nist_field_sqr      00048c0c f   libeay32:ecp_nist.obj
 0001:00037cd8       EC_GFp_nist_method         00048cd8 f   libeay32:ecp_nist.obj
 0001:00037ce4       ec_GF2m_simple_group_init  00048ce4 f   libeay32:ec2_smpl.obj
 0001:00037d10       ec_GF2m_simple_group_finish 00048d10 f   libeay32:ec2_smpl.obj
 0001:00037d38       ec_GF2m_simple_group_clear_finish 00048d38 f   libeay32:ec2_smpl.obj
 0001:00037d80       ec_GF2m_simple_group_copy  00048d80 f   libeay32:ec2_smpl.obj
 0001:00037ecc       ec_GF2m_simple_group_set_curve 00048ecc f   libeay32:ec2_smpl.obj
 0001:0003803c       ec_GF2m_simple_group_get_curve 0004903c f   libeay32:ec2_smpl.obj
 0001:000380b8       ec_GF2m_simple_group_get_degree 000490b8 f   libeay32:ec2_smpl.obj
 0001:000380d0       ec_GF2m_simple_group_check_discriminant 000490d0 f   libeay32:ec2_smpl.obj
 0001:00038184       ec_GF2m_simple_point_init  00049184 f   libeay32:ec2_smpl.obj
 0001:000381b0       ec_GF2m_simple_point_finish 000491b0 f   libeay32:ec2_smpl.obj
 0001:000381d8       ec_GF2m_simple_point_clear_finish 000491d8 f   libeay32:ec2_smpl.obj
 0001:00038208       ec_GF2m_simple_point_copy  00049208 f   libeay32:ec2_smpl.obj
 0001:00038270       ec_GF2m_simple_point_set_to_infinity 00049270 f   libeay32:ec2_smpl.obj
 0001:00038298       ec_GF2m_simple_point_set_affine_coordinates 00049298 f   libeay32:ec2_smpl.obj
 0001:00038364       ec_GF2m_simple_point_get_affine_coordinates 00049364 f   libeay32:ec2_smpl.obj
 0001:00038454       ec_GF2m_simple_add         00049454 f   libeay32:ec2_smpl.obj
 0001:00038858       ec_GF2m_simple_dbl         00049858 f   libeay32:ec2_smpl.obj
 0001:0003887c       ec_GF2m_simple_invert      0004987c f   libeay32:ec2_smpl.obj
 0001:000388e8       ec_GF2m_simple_is_at_infinity 000498e8 f   libeay32:ec2_smpl.obj
 0001:000388fc       ec_GF2m_simple_is_on_curve 000498fc f   libeay32:ec2_smpl.obj
 0001:00038a8c       ec_GF2m_simple_cmp         00049a8c f   libeay32:ec2_smpl.obj
 0001:00038c18       ec_GF2m_simple_make_affine 00049c18 f   libeay32:ec2_smpl.obj
 0001:00038d1c       ec_GF2m_simple_points_make_affine 00049d1c f   libeay32:ec2_smpl.obj
 0001:00038d84       ec_GF2m_simple_field_mul   00049d84 f   libeay32:ec2_smpl.obj
 0001:00038dc0       ec_GF2m_simple_field_sqr   00049dc0 f   libeay32:ec2_smpl.obj
 0001:00038de4       ec_GF2m_simple_field_div   00049de4 f   libeay32:ec2_smpl.obj
 0001:00038e20       EC_GF2m_simple_method      00049e20 f   libeay32:ec2_smpl.obj
 0001:00038e2c       BN_mod_exp2_mont           00049e2c f   libeay32:bn_exp2.obj
 0001:000394e0       bn_sqr_normal              0004a4e0 f   libeay32:bn_sqr.obj
 0001:000395cc       BN_sqr                     0004a5cc f   libeay32:bn_sqr.obj
 0001:00039704       BN_RECP_CTX_init           0004a704 f   libeay32:bn_recp.obj
 0001:0003972c       BN_RECP_CTX_free           0004a72c f   libeay32:bn_recp.obj
 0001:00039760       BN_RECP_CTX_set            0004a760 f   libeay32:bn_recp.obj
 0001:000397ac       BN_reciprocal              0004a7ac f   libeay32:bn_recp.obj
 0001:0003982c       BN_div_recp                0004a82c f   libeay32:bn_recp.obj
 0001:00039a88       BN_mod_mul_reciprocal      0004aa88 f   libeay32:bn_recp.obj
 0001:00039b34       X509_REVOKED_it            0004ab34 f   libeay32:x_crl.obj
 0001:00039b40       X509_CRL_INFO_it           0004ab40 f   libeay32:x_crl.obj
 0001:00039dd0       X509_CRL_it                0004add0 f   libeay32:x_crl.obj
 0001:0003a250       X509_CINF_it               0004b250 f   libeay32:x_x509.obj
 0001:0003a34c       X509_it                    0004b34c f   libeay32:x_x509.obj
 0001:0003a358       X509_free                  0004b358 f   libeay32:x_x509.obj
 0001:0003a370       CMS_stream                 0004b370 f   libeay32:cms_io.obj
 0001:0003a40c       BIO_f_md                   0004b40c f   libeay32:bio_md.obj
 0001:0003a778       BIO_s_mem                  0004b778 f   libeay32:bss_mem.obj
 0001:0003a784       BIO_new_mem_buf            0004b784 f   libeay32:bss_mem.obj
 0001:0003ac10       BIO_s_null                 0004bc10 f   libeay32:bss_null.obj
 0001:0003acc4       cms_DigestedData_init_bio  0004bcc4 f   libeay32:cms_dd.obj
 0001:0003acdc       cms_DigestedData_do_final  0004bcdc f   libeay32:cms_dd.obj
 0001:0003addc       BIO_f_cipher               0004bddc f   libeay32:bio_enc.obj
 0001:0003b3b4       ASN1_TIME_it               0004c3b4 f   libeay32:a_time.obj
 0001:0003b3c0       ASN1_TIME_free             0004c3c0 f   libeay32:a_time.obj
 0001:0003b3d8       ASN1_TIME_adj              0004c3d8 f   libeay32:a_time.obj
 0001:0003b4a8       ASN1_TIME_check            0004c4a8 f   libeay32:a_time.obj
 0001:0003b4e4       CMS_signed_get_attr_count  0004c4e4 f   libeay32:cms_att.obj
 0001:0003b4f8       CMS_signed_get_attr_by_NID 0004c4f8 f   libeay32:cms_att.obj
 0001:0003b50c       CMS_signed_add1_attr_by_NID 0004c50c f   libeay32:cms_att.obj
 0001:0003b53c       X509_time_adj_ex           0004c53c f   libeay32:x509_vfy.obj
 0001:0003b5d8       X509_gmtime_adj            0004c5d8 f   libeay32:x509_vfy.obj
 0001:0003b770       EVP_DigestSignInit         0004c770 f   libeay32:m_sigver.obj
 0001:0003b798       EVP_DigestVerifyInit       0004c798 f   libeay32:m_sigver.obj
 0001:0003b7c0       EVP_DigestSignFinal        0004c7c0 f   libeay32:m_sigver.obj
 0001:0003b900       EVP_DigestVerifyFinal      0004c900 f   libeay32:m_sigver.obj
 0001:0003b9d4       EVP_SignFinal              0004c9d4 f   libeay32:p_sign.obj
 0001:0003bba0       PROXY_POLICY_it            0004cba0 f   libeay32:v3_pcia.obj
 0001:0003bbac       PROXY_CERT_INFO_EXTENSION_it 0004cbac f   libeay32:v3_pcia.obj
 0001:0003bbb8       PROXY_CERT_INFO_EXTENSION_new 0004cbb8 f   libeay32:v3_pcia.obj
 0001:0003bbd0       PROXY_CERT_INFO_EXTENSION_free 0004cbd0 f   libeay32:v3_pcia.obj
 0001:0003bbe8       private_AES_set_encrypt_key 0004cbe8 f   libeay32:aes_core.obj
 0001:0003c1cc       AES_encrypt                0004d1cc f   libeay32:aes_core.obj
 0001:0003c950       d2i_PBE2PARAM              0004d950 f   libeay32:p5_pbev2.obj
 0001:0003c968       PBE2PARAM_free             0004d968 f   libeay32:p5_pbev2.obj
 0001:0003c980       d2i_PBKDF2PARAM            0004d980 f   libeay32:p5_pbev2.obj
 0001:0003c998       PBKDF2PARAM_free           0004d998 f   libeay32:p5_pbev2.obj
 0001:0003c9b0       ASN1_item_pack             0004d9b0 f   libeay32:asn_pack.obj
 0001:0003caa0       RSA_padding_add_PKCS1_type_1 0004daa0 f   libeay32:rsa_pk1.obj
 0001:0003cb34       RSA_padding_check_PKCS1_type_1 0004db34 f   libeay32:rsa_pk1.obj
 0001:0003cc7c       RSA_padding_add_PKCS1_type_2 0004dc7c f   libeay32:rsa_pk1.obj
 0001:0003cd54       RSA_padding_check_PKCS1_type_2 0004dd54 f   libeay32:rsa_pk1.obj
 0001:0003ce68       RSA_padding_add_SSLv23     0004de68 f   libeay32:rsa_ssl.obj
 0001:0003cf50       RSA_padding_check_SSLv23   0004df50 f   libeay32:rsa_ssl.obj
 0001:0003d0c0       RSA_padding_add_none       0004e0c0 f   libeay32:rsa_none.obj
 0001:0003d140       RSA_padding_check_none     0004e140 f   libeay32:rsa_none.obj
 0001:0003d1bc       EC_GROUP_get_basis_type    0004e1bc f   libeay32:ec_asn1.obj
 0001:0003d234       EC_GROUP_get_trinomial_basis 0004e234 f   libeay32:ec_asn1.obj
 0001:0003d2c8       EC_GROUP_get_pentanomial_basis 0004e2c8 f   libeay32:ec_asn1.obj
 0001:0003d394       X9_62_PENTANOMIAL_it       0004e394 f   libeay32:ec_asn1.obj
 0001:0003d3ac       X9_62_CHARACTERISTIC_TWO_it 0004e3ac f   libeay32:ec_asn1.obj
 0001:0003d3c4       X9_62_FIELDID_it           0004e3c4 f   libeay32:ec_asn1.obj
 0001:0003d3d0       X9_62_CURVE_it             0004e3d0 f   libeay32:ec_asn1.obj
 0001:0003d3dc       ECPARAMETERS_it            0004e3dc f   libeay32:ec_asn1.obj
 0001:0003d3e8       ECPKPARAMETERS_it          0004e3e8 f   libeay32:ec_asn1.obj
 0001:0003e8e8       d2i_ECPKParameters         0004f8e8 f   libeay32:ec_asn1.obj
 0001:0003e9b4       i2d_ECPKParameters         0004f9b4 f   libeay32:ec_asn1.obj
 0001:0003ea58       d2i_ECPrivateKey           0004fa58 f   libeay32:ec_asn1.obj
 0001:0003ed14       i2d_ECPrivateKey           0004fd14 f   libeay32:ec_asn1.obj
 0001:0003f098       i2d_ECParameters           00050098 f   libeay32:ec_asn1.obj
 0001:0003f0e8       d2i_ECParameters           000500e8 f   libeay32:ec_asn1.obj
 0001:0003f1cc       o2i_ECPublicKey            000501cc f   libeay32:ec_asn1.obj
 0001:0003f2e0       i2o_ECPublicKey            000502e0 f   libeay32:ec_asn1.obj
 0001:0003f460       PKCS8_PRIV_KEY_INFO_it     00050460 f   libeay32:p8_pkey.obj
 0001:0003f46c       PKCS8_pkey_set0            0005046c f   libeay32:p8_pkey.obj
 0001:0003f51c       PKCS8_pkey_get0            0005051c f   libeay32:p8_pkey.obj
 0001:0003f704       ECPKParameters_print       00050704 f   libeay32:eck_prn.obj
 0001:0003fcec       ASN1_bn_print              00050cec f   libeay32:t_pkey.obj
 0001:0003fee0       EC_POINT_point2bn          00050ee0 f   libeay32:ec_print.obj
 0001:0003ff8c       PKCS7_ctrl                 00050f8c f   libeay32:pk7_lib.obj
 0001:000400b0       PKCS7_SIGNER_INFO_get0_algs 000510b0 f   libeay32:pk7_lib.obj
 0001:000400e0       PKCS7_RECIP_INFO_get0_alg  000510e0 f   libeay32:pk7_lib.obj
 0001:000400f0       PKCS7_stream               000510f0 f   libeay32:pk7_lib.obj
 0001:000401c4       X509_signature_dump        000511c4 f   libeay32:t_x509.obj
 0001:000402b0       ASN1_STRING_print          000512b0 f   libeay32:t_x509.obj
 0001:00040384       ASN1_GENERALIZEDTIME_print 00051384 f   libeay32:t_x509.obj
 0001:000405a0       X509_NAME_print            000515a0 f   libeay32:t_x509.obj
 0001:0004072c       d2i_DHparams               0005172c f   libeay32:dh_asn1.obj
 0001:00040744       i2d_DHparams               00051744 f   libeay32:dh_asn1.obj
 0001:000407b8       RSA_PSS_PARAMS_it          000517b8 f   libeay32:rsa_asn1.obj
 0001:000407c4       d2i_RSA_PSS_PARAMS         000517c4 f   libeay32:rsa_asn1.obj
 0001:000407dc       RSA_PSS_PARAMS_new         000517dc f   libeay32:rsa_asn1.obj
 0001:000407f4       RSA_PSS_PARAMS_free        000517f4 f   libeay32:rsa_asn1.obj
 0001:0004080c       d2i_RSAPrivateKey          0005180c f   libeay32:rsa_asn1.obj
 0001:00040824       i2d_RSAPrivateKey          00051824 f   libeay32:rsa_asn1.obj
 0001:0004083c       d2i_RSAPublicKey           0005183c f   libeay32:rsa_asn1.obj
 0001:00040854       i2d_RSAPublicKey           00051854 f   libeay32:rsa_asn1.obj
 0001:0004086c       i2a_ASN1_INTEGER           0005186c f   libeay32:f_int.obj
 0001:000409b4       d2i_PBEPARAM               000519b4 f   libeay32:p5_pbe.obj
 0001:000409cc       PBEPARAM_free              000519cc f   libeay32:p5_pbe.obj
 0001:000409e4       PKCS12_key_gen_uni         000519e4 f   libeay32:p12_key.obj
 0001:00040ee4       PKCS12_key_gen_asc         00051ee4 f   libeay32:p12_key.obj
 0001:00041038       RAND_poll                  00052038 f   libeay32:rand_win.obj
 0001:00041c18       X509_NAME_print_ex         00052c18 f   libeay32:a_strex.obj
 0001:00041c5c       ASN1_STRING_to_UTF8        00052c5c f   libeay32:a_strex.obj
 0001:00041fc0       ASN1_mbstring_ncopy        00052fc0 f   libeay32:a_mbstr.obj
 0001:000424b0       ASN1_mbstring_copy         000534b0 f   libeay32:a_mbstr.obj
 0001:0004314c       ASN1_generate_v3           0005414c f   libeay32:asn1_gen.obj
 0001:0004357c       NCONF_default              0005457c f   libeay32:conf_def.obj
 0001:000444fc       _CONF_get_section          000554fc f   libeay32:conf_api.obj
 0001:00044544       _CONF_get_section_values   00055544 f   libeay32:conf_api.obj
 0001:00044564       _CONF_add_string           00055564 f   libeay32:conf_api.obj
 0001:000445dc       _CONF_get_string           000555dc f   libeay32:conf_api.obj
 0001:00044740       _CONF_new_data             00055740 f   libeay32:conf_api.obj
 0001:00044790       _CONF_new_section          00055790 f   libeay32:conf_api.obj
 0001:00044900       _CONF_free_data            00055900 f   libeay32:conf_api.obj
 0001:00044954       MD5_Init                   00055954 f   libeay32:md5_dgst.obj
 0001:000449a4       md5_block_data_order       000559a4 f   libeay32:md5_dgst.obj
 0001:000455a0       MD5_Update                 000565a0 f   libeay32:md5_dgst.obj
 0001:000456a8       MD5_Final                  000566a8 f   libeay32:md5_dgst.obj
 0001:000457f8       OCSP_SIGNATURE_it          000567f8 f   libeay32:ocsp_asn.obj
 0001:00045804       OCSP_CERTID_it             00056804 f   libeay32:ocsp_asn.obj
 0001:00045810       OCSP_ONEREQ_it             00056810 f   libeay32:ocsp_asn.obj
 0001:0004581c       OCSP_REQINFO_it            0005681c f   libeay32:ocsp_asn.obj
 0001:00045828       OCSP_RESPBYTES_it          00056828 f   libeay32:ocsp_asn.obj
 0001:00045834       OCSP_RESPID_it             00056834 f   libeay32:ocsp_asn.obj
 0001:00045840       OCSP_REVOKEDINFO_it        00056840 f   libeay32:ocsp_asn.obj
 0001:0004584c       OCSP_CERTSTATUS_it         0005684c f   libeay32:ocsp_asn.obj
 0001:00045858       OCSP_SINGLERESP_it         00056858 f   libeay32:ocsp_asn.obj
 0001:00045864       OCSP_RESPDATA_it           00056864 f   libeay32:ocsp_asn.obj
 0001:00045870       OCSP_CRLID_it              00056870 f   libeay32:ocsp_asn.obj
 0001:0004587c       OCSP_SERVICELOC_it         0005687c f   libeay32:ocsp_asn.obj
 0001:00045888       i2a_ASN1_STRING            00056888 f   libeay32:f_string.obj
 0001:000459a4       AUTHORITY_KEYID_it         000569a4 f   libeay32:v3_akeya.obj
 0001:000459b0       AUTHORITY_KEYID_new        000569b0 f   libeay32:v3_akeya.obj
 0001:000459c8       AUTHORITY_KEYID_free       000569c8 f   libeay32:v3_akeya.obj
 0001:000459e0       ASN1_item_verify           000569e0 f   libeay32:a_verify.obj
 0001:00045c80       NETSCAPE_SPKAC_it          00056c80 f   libeay32:x_spki.obj
 0001:00045d1c       PKCS7_it                   00056d1c f   libeay32:pk7_asn1.obj
 0001:00045d28       PKCS7_SIGNED_it            00056d28 f   libeay32:pk7_asn1.obj
 0001:00045d54       PKCS7_SIGNER_INFO_it       00056d54 f   libeay32:pk7_asn1.obj
 0001:00045d60       PKCS7_ISSUER_AND_SERIAL_it 00056d60 f   libeay32:pk7_asn1.obj
 0001:00045d6c       PKCS7_ENVELOPE_it          00056d6c f   libeay32:pk7_asn1.obj
 0001:00045d98       PKCS7_RECIP_INFO_it        00056d98 f   libeay32:pk7_asn1.obj
 0001:00045da4       PKCS7_ENC_CONTENT_it       00056da4 f   libeay32:pk7_asn1.obj
 0001:00045db0       PKCS7_SIGN_ENVELOPE_it     00056db0 f   libeay32:pk7_asn1.obj
 0001:00045dbc       PKCS7_ENCRYPT_it           00056dbc f   libeay32:pk7_asn1.obj
 0001:00045dc8       PKCS7_DIGEST_it            00056dc8 f   libeay32:pk7_asn1.obj
 0001:00045dd4       PKCS7_ATTR_SIGN_it         00056dd4 f   libeay32:pk7_asn1.obj
 0001:00045de0       ASN1_item_digest           00056de0 f   libeay32:a_digest.obj
 0001:00045e60       ec_GFp_simple_group_init   00056e60 f   libeay32:ecp_smpl.obj
 0001:00045e94       ec_GFp_simple_group_finish 00056e94 f   libeay32:ecp_smpl.obj
 0001:00045ebc       ec_GFp_simple_group_clear_finish 00056ebc f   libeay32:ecp_smpl.obj
 0001:00045ee4       ec_GFp_simple_group_copy   00056ee4 f   libeay32:ecp_smpl.obj
 0001:00045f4c       ec_GFp_simple_group_set_curve 00056f4c f   libeay32:ecp_smpl.obj
 0001:00046118       ec_GFp_simple_group_get_curve 00057118 f   libeay32:ecp_smpl.obj
 0001:00046248       ec_GFp_simple_group_get_degree 00057248 f   libeay32:ecp_smpl.obj
 0001:0004625c       ec_GFp_simple_group_check_discriminant 0005725c f   libeay32:ecp_smpl.obj
 0001:00046480       ec_GFp_simple_point_init   00057480 f   libeay32:ecp_smpl.obj
 0001:000464b4       ec_GFp_simple_point_finish 000574b4 f   libeay32:ecp_smpl.obj
 0001:000464dc       ec_GFp_simple_point_clear_finish 000574dc f   libeay32:ecp_smpl.obj
 0001:0004650c       ec_GFp_simple_point_copy   0005750c f   libeay32:ecp_smpl.obj
 0001:00046574       ec_GFp_simple_point_set_to_infinity 00057574 f   libeay32:ecp_smpl.obj
 0001:0004659c       ec_GFp_simple_set_Jprojective_coordinates_GFp 0005759c f   libeay32:ecp_smpl.obj
 0001:0004674c       ec_GFp_simple_get_Jprojective_coordinates_GFp 0005774c f   libeay32:ecp_smpl.obj
 0001:0004689c       ec_GFp_simple_point_set_affine_coordinates 0005789c f   libeay32:ecp_smpl.obj
 0001:0004691c       ec_GFp_simple_point_get_affine_coordinates 0005791c f   libeay32:ecp_smpl.obj
 0001:00046c58       ec_GFp_simple_add          00057c58 f   libeay32:ecp_smpl.obj
 0001:00047268       ec_GFp_simple_dbl          00058268 f   libeay32:ecp_smpl.obj
 0001:00047740       ec_GFp_simple_invert       00058740 f   libeay32:ecp_smpl.obj
 0001:00047788       ec_GFp_simple_is_at_infinity 00058788 f   libeay32:ecp_smpl.obj
 0001:0004779c       ec_GFp_simple_is_on_curve  0005879c f   libeay32:ecp_smpl.obj
 0001:00047adc       ec_GFp_simple_cmp          00058adc f   libeay32:ecp_smpl.obj
 0001:00047dc0       ec_GFp_simple_make_affine  00058dc0 f   libeay32:ecp_smpl.obj
 0001:00047edc       ec_GFp_simple_points_make_affine 00058edc f   libeay32:ecp_smpl.obj
 0001:000483dc       ec_GFp_simple_field_mul    000593dc f   libeay32:ecp_smpl.obj
 0001:00048418       ec_GFp_simple_field_sqr    00059418 f   libeay32:ecp_smpl.obj
 0001:0004843c       BN_get0_nist_prime_192     0005943c f   libeay32:bn_nist.obj
 0001:00048448       BN_get0_nist_prime_224     00059448 f   libeay32:bn_nist.obj
 0001:00048454       BN_get0_nist_prime_256     00059454 f   libeay32:bn_nist.obj
 0001:00048460       BN_get0_nist_prime_384     00059460 f   libeay32:bn_nist.obj
 0001:0004846c       BN_get0_nist_prime_521     0005946c f   libeay32:bn_nist.obj
 0001:000484c8       BN_nist_mod_192            000594c8 f   libeay32:bn_nist.obj
 0001:00048790       BN_nist_mod_224            00059790 f   libeay32:bn_nist.obj
 0001:00048af4       BN_nist_mod_256            00059af4 f   libeay32:bn_nist.obj
 0001:00048fb0       BN_nist_mod_384            00059fb0 f   libeay32:bn_nist.obj
 0001:00049574       BN_nist_mod_521            0005a574 f   libeay32:bn_nist.obj
 0001:0004a0d8       ec_GF2m_simple_mul         0005b0d8 f   libeay32:ec2_mult.obj
 0001:0004a354       ec_GF2m_precompute_mult    0005b354 f   libeay32:ec2_mult.obj
 0001:0004a364       ec_GF2m_have_precompute_mult 0005b364 f   libeay32:ec2_mult.obj
 0001:0004a50c       BN_GF2m_add                0005b50c f   libeay32:bn_gf2m.obj
 0001:0004a600       BN_GF2m_mod_arr            0005b600 f   libeay32:bn_gf2m.obj
 0001:0004a878       BN_GF2m_mod_sqr_arr        0005b878 f   libeay32:bn_gf2m.obj
 0001:0004aa00       BN_GF2m_poly2arr           0005ba00 f   libeay32:bn_gf2m.obj
 0001:0004aaa4       BN_GF2m_mod                0005baa4 f   libeay32:bn_gf2m.obj
 0001:0004ab20       BN_GF2m_mod_mul_arr        0005bb20 f   libeay32:bn_gf2m.obj
 0001:0004ad70       BN_GF2m_mod_mul            0005bd70 f   libeay32:bn_gf2m.obj
 0001:0004ae34       BN_GF2m_mod_inv            0005be34 f   libeay32:bn_gf2m.obj
 0001:0004b274       BN_GF2m_mod_div            0005c274 f   libeay32:bn_gf2m.obj
 0001:0004b300       BN_GF2m_mod_exp_arr        0005c300 f   libeay32:bn_gf2m.obj
 0001:0004b438       BN_GF2m_mod_sqrt_arr       0005c438 f   libeay32:bn_gf2m.obj
 0001:0004b4d4       BN_GF2m_mod_solve_quad_arr 0005c4d4 f   libeay32:bn_gf2m.obj
 0001:0004b834       X509_VAL_it                0005c834 f   libeay32:x_val.obj
 0001:0004b840       policy_cache_free          0005c840 f   libeay32:pcy_cache.obj
 0001:0004b884       X509_CERT_AUX_free         0005c884 f   libeay32:x_x509a.obj
 0001:0004b89c       ASN1_tag2str               0005c89c f   libeay32:asn1_par.obj
 0001:0004b8dc       ASN1_GENERALIZEDTIME_check 0005c8dc f   libeay32:a_gentm.obj
 0001:0004bab8       ASN1_GENERALIZEDTIME_adj   0005cab8 f   libeay32:a_gentm.obj
 0001:0004bbfc       ASN1_UTCTIME_check         0005cbfc f   libeay32:a_utctm.obj
 0001:0004bd88       ASN1_UTCTIME_adj           0005cd88 f   libeay32:a_utctm.obj
 0001:0004bef8       OPENSSL_gmtime             0005cef8 f   libeay32:o_time.obj
 0001:0004c070       OPENSSL_gmtime_adj         0005d070 f   libeay32:o_time.obj
 0001:0004c424       EC_POINT_set_compressed_coordinates_GFp 0005d424 f   libeay32:ec_oct.obj
 0001:0004c51c       EC_POINT_set_compressed_coordinates_GF2m 0005d51c f   libeay32:ec_oct.obj
 0001:0004c614       EC_POINT_point2oct         0005d614 f   libeay32:ec_oct.obj
 0001:0004c724       EC_POINT_oct2point         0005d724 f   libeay32:ec_oct.obj
 0001:0004c81c       OPENSSL_asc2uni            0005d81c f   libeay32:p12_utl.obj
 0001:0004c8bc       UTF8_getc                  0005d8bc f   libeay32:a_utf8.obj
 0001:0004cbc0       UTF8_putc                  0005dbc0 f   libeay32:a_utf8.obj
 0001:0004e1b4       PKCS7_dataInit             0005f1b4 f   libeay32:pk7_doit.obj
 0001:0004e6d8       PKCS7_SIGNER_INFO_sign     0005f6d8 f   libeay32:pk7_doit.obj
 0001:0004ea48       PKCS7_add_signed_attribute 0005fa48 f   libeay32:pk7_doit.obj
 0001:0004eb60       PKCS7_dataFinal            0005fb60 f   libeay32:pk7_doit.obj
 0001:0004ef8c       policy_data_free           0005ff8c f   libeay32:pcy_data.obj
 0001:0004efd4       EVP_EncodeInit             0005ffd4 f   libeay32:encode.obj
 0001:0004efec       EVP_EncodeBlock            0005ffec f   libeay32:encode.obj
 0001:0004f0cc       EVP_DecodeInit             000600cc f   libeay32:encode.obj
 0001:0004f0e8       EVP_DecodeBlock            000600e8 f   libeay32:encode.obj
 0001:0004f20c       EVP_EncodeUpdate           0006020c f   libeay32:encode.obj
 0001:0004f338       EVP_EncodeFinal            00060338 f   libeay32:encode.obj
 0001:0004f38c       EVP_DecodeUpdate           0006038c f   libeay32:encode.obj
 0001:0005113c       ec_GF2m_simple_set_compressed_coordinates 0006213c f   libeay32:ec2_oct.obj
 0001:000513d0       ec_GF2m_simple_point2oct   000623d0 f   libeay32:ec2_oct.obj
 0001:00051774       ec_GF2m_simple_oct2point   00062774 f   libeay32:ec2_oct.obj
 0001:00051b20       ec_GFp_simple_set_compressed_coordinates 00062b20 f   libeay32:ecp_oct.obj
 0001:00051f6c       ec_GFp_simple_point2oct    00062f6c f   libeay32:ecp_oct.obj
 0001:000522dc       ec_GFp_simple_oct2point    000632dc f   libeay32:ecp_oct.obj
 0001:0005264c       PKCS12_MAC_DATA_it         0006364c f   libeay32:p12_asn.obj
 0001:00052664       PKCS12_BAGS_it             00063664 f   libeay32:p12_asn.obj
 0001:0005267c       PKCS12_SAFEBAG_it          0006367c f   libeay32:p12_asn.obj
 0001:00052688       PKCS7_add0_attrib_signing_time 00063688 f   libeay32:pk7_attr.obj
 0001:000526f8       PKCS7_add1_attrib_digest   000636f8 f   libeay32:pk7_attr.obj
 0001:00052764       UI_get_string_type         00063764 f   libeay32:ui_lib.obj
 0001:00052774       UI_get_input_flags         00063774 f   libeay32:ui_lib.obj
 0001:00052784       UI_get0_output_string      00063784 f   libeay32:ui_lib.obj
 0001:00052794       UI_get0_action_string      00063794 f   libeay32:ui_lib.obj
 0001:000527c0       UI_get0_result_string      000637c0 f   libeay32:ui_lib.obj
 0001:000527e4       UI_get0_test_string        000637e4 f   libeay32:ui_lib.obj
 0001:00052808       BN_kronecker               00063808 f   libeay32:bn_kron.obj
 0001:00052abc       BN_mod_sqrt                00063abc f   libeay32:bn_sqrt.obj
 0001:00053514       raise                      00064514 f   wcecompatex:signal.obj
 0001:0005351c       getenv                     0006451c f   wcecompatex:env.obj
 0001:000538e8       w32_filetime_to_time_t     000648e8 f   wcecompatex:time.obj
 0001:00053988       time                       00064988 f   wcecompatex:time.obj
 0001:000539ec       dayOfYear                  000649ec f   wcecompatex:time.obj
 0001:00053ac0       gmtime                     00064ac0 f   wcecompatex:time.obj
 0001:00053b80       ?unicode2ascii@@YAXPB_WPAD@Z 00064b80 f   wcecompatex:ts_string.obj
 0001:00053bd4       ?ascii2unicode@@YAXPBDPA_WH@Z 00064bd4 f   wcecompatex:ts_string.obj
 0001:00053c74       ?unicode2ascii@@YAXPB_WPADH@Z 00064c74 f   wcecompatex:ts_string.obj
 0001:00053d04       sprintf                    00064d04 f   coredll:COREDLL.dll
 0001:00053d14       printf                     00064d14 f   coredll:COREDLL.dll
 0001:00053d24       memset                     00064d24 f   coredll:COREDLL.dll
 0001:00053d34       strcmp                     00064d34 f   coredll:COREDLL.dll
 0001:00053d44       strlen                     00064d44 f   coredll:COREDLL.dll
 0001:00053d54       memcpy                     00064d54 f   coredll:COREDLL.dll
 0001:00053d64       free                       00064d64 f   coredll:COREDLL.dll
 0001:00053d74       realloc                    00064d74 f   coredll:COREDLL.dll
 0001:00053d84       malloc                     00064d84 f   coredll:COREDLL.dll
 0001:00053d94       strcpy                     00064d94 f   coredll:COREDLL.dll
 0001:00053da4       strncpy                    00064da4 f   coredll:COREDLL.dll
 0001:00053db4       strchr                     00064db4 f   coredll:COREDLL.dll
 0001:00053dc4       memcmp                     00064dc4 f   coredll:COREDLL.dll
 0001:00053dd4       MessageBoxW                00064dd4 f   coredll:COREDLL.dll
 0001:00053de4       _vsnwprintf                00064de4 f   coredll:COREDLL.dll
 0001:00053df4       MultiByteToWideChar        00064df4 f   coredll:COREDLL.dll
 0001:00053e04       _getstdfilex               00064e04 f   coredll:COREDLL.dll
 0001:00053e14       memchr                     00064e14 f   coredll:COREDLL.dll
 0001:00053e24       fprintf                    00064e24 f   coredll:COREDLL.dll
 0001:00053e34       atoi                       00064e34 f   coredll:COREDLL.dll
 0001:00053e44       _isctype                   00064e44 f   coredll:COREDLL.dll
 0001:00053e54       qsort                      00064e54 f   coredll:COREDLL.dll
 0001:00053e64       tolower                    00064e64 f   coredll:COREDLL.dll
 0001:00053e74       strncmp                    00064e74 f   coredll:COREDLL.dll
 0001:00053e84       sscanf                     00064e84 f   coredll:COREDLL.dll
 0001:00053e94       _strnicmp                  00064e94 f   coredll:COREDLL.dll
 0001:00053ea4       fclose                     00064ea4 f   coredll:COREDLL.dll
 0001:00053eb4       GetLastError               00064eb4 f   coredll:COREDLL.dll
 0001:00053ec4       ferror                     00064ec4 f   coredll:COREDLL.dll
 0001:00053ed4       fread                      00064ed4 f   coredll:COREDLL.dll
 0001:00053ee4       fwrite                     00064ee4 f   coredll:COREDLL.dll
 0001:00053ef4       _setmode                   00064ef4 f   coredll:COREDLL.dll
 0001:00053f04       _fileno                    00064f04 f   coredll:COREDLL.dll
 0001:00053f14       fopen                      00064f14 f   coredll:COREDLL.dll
 0001:00053f24       fseek                      00064f24 f   coredll:COREDLL.dll
 0001:00053f34       ftell                      00064f34 f   coredll:COREDLL.dll
 0001:00053f44       feof                       00064f44 f   coredll:COREDLL.dll
 0001:00053f54       fflush                     00064f54 f   coredll:COREDLL.dll
 0001:00053f64       strcat                     00064f64 f   coredll:COREDLL.dll
 0001:00053f74       fgets                      00064f74 f   coredll:COREDLL.dll
 0001:00053f84       _wfopen                    00064f84 f   coredll:COREDLL.dll
 0001:00053f94       strrchr                    00064f94 f   coredll:COREDLL.dll
 0001:00053fa4       strtoul                    00064fa4 f   coredll:COREDLL.dll
 0001:00053fb4       _stricmp                   00064fb4 f   coredll:COREDLL.dll
 0001:00053fc4       memmove                    00064fc4 f   coredll:COREDLL.dll
 0001:00053fd4       GetTickCount               00064fd4 f   coredll:COREDLL.dll
 0001:00053fe4       QueryPerformanceCounter    00064fe4 f   coredll:COREDLL.dll
 0001:00053ff4       GlobalMemoryStatus         00064ff4 f   coredll:COREDLL.dll
 0001:00054004       CryptReleaseContext        00065004 f   coredll:COREDLL.dll
 0001:00054014       CryptGenRandom             00065014 f   coredll:COREDLL.dll
 0001:00054024       CryptAcquireContextW       00065024 f   coredll:COREDLL.dll
 0001:00054034       GetVersionExW              00065034 f   coredll:COREDLL.dll
 0001:00054044       LoadLibraryW               00065044 f   coredll:COREDLL.dll
 0001:00054054       SetLastError               00065054 f   coredll:COREDLL.dll
 0001:00054064       FreeLibrary                00065064 f   coredll:COREDLL.dll
 0001:00054074       GetProcAddressA            00065074 f   coredll:COREDLL.dll
 0001:00054084       strstr                     00065084 f   coredll:COREDLL.dll
 0001:00054094       WideCharToMultiByte        00065094 f   coredll:COREDLL.dll
 0001:000540a4       fputs                      000650a4 f   coredll:COREDLL.dll
 0001:000540b4       SystemTimeToFileTime       000650b4 f   coredll:COREDLL.dll
 0001:000540c4       GetSystemTime              000650c4 f   coredll:COREDLL.dll
 0001:000540d4       FileTimeToSystemTime       000650d4 f   coredll:COREDLL.dll
 0001:000540e4       _cinit                     000650e4 f   corelibc:crt0dat.obj
 0001:00054254       exit                       00065254 f   corelibc:crt0dat.obj
 0001:0005426c       _exit                      0006526c f   corelibc:crt0dat.obj
 0001:0005428c       WinMainCRTStartup          0006528c f   corelibc:pegwmain.obj
 0001:00054300       WinMain                    00065300 f   wcecompatex:winmain.obj
 0001:0005465c       ?processCmdLine@@YAHPA_WPAPAPAD@Z 0006565c f   wcecompatex:args.obj
 0001:00054a98       LocalFree                  00065a98 f   coredll:COREDLL.dll
 0001:00054aa8       _XcptFilter                00065aa8 f   coredll:COREDLL.dll
 0001:00054ab8       __C_specific_handler       00065ab8 f   coredll:COREDLL.dll
 0001:00054ac8       FindFirstFileW             00065ac8 f   coredll:COREDLL.dll
 0001:00054ad8       FindClose                  00065ad8 f   coredll:COREDLL.dll
 0001:00054ae8       FindNextFileW              00065ae8 f   coredll:COREDLL.dll
 0001:00054af8       GetModuleFileNameW         00065af8 f   coredll:COREDLL.dll
 0002:00000000       ??_C@_0CJ@OINEDNM@3232affa48628a26653b5aaa44541fd9@ 00066000     shatest.obj
 0002:0000002c       ??_C@_0CJ@KCOJABDM@d2516ee1acfa5baf33dfc1c471e43844@ 0006602c     shatest.obj
 0002:00000058       ??_C@_0CJ@HDNKOBPJ@0164b8a914cd2a5e74c4f7ff082c4d97@ 00066058     shatest.obj
 0002:00000084       ??_C@_0DJ@NGDOEGCI@abcdbcdecdefdefgefghfghighijhijk@ 00066084     shatest.obj
 0002:000000c0       ??_C@_03FIKCJHKP@abc?$AA@  000660c0     shatest.obj
 0002:000000c4       ??_C@_04NOJCDH@?$CF02x?$AA@ 000660c4     shatest.obj
 0002:000000cc       ??_C@_0L@FNMDIIKJ@test?53?5ok?6?$AA@ 000660cc     shatest.obj
 0002:000000d8       ??_C@_0M@NJKLCIBI@test?5?$CFd?5ok?6?$AA@ 000660d8     shatest.obj
 0002:000000e4       ??_C@_0BP@CHGLNIBJ@error?5calculating?5SHA?5on?5?8?$CFs?8?6?$AA@ 000660e4     shatest.obj
 0002:00000104       ??_C@_0BG@IMOFIMJK@got?5?$CFs?5instead?5of?5?$CFs?6?$AA@ 00066104     shatest.obj
 0002:00000120       ??_C@_0EM@DLBKEKNP@d?3?2wm653wehh?2platform?2mvv210?2src@ 00066120     libeay32:digest.obj
 0002:0000016c       ??_C@_0CI@KPJFNDOF@ctx?9?$DOdigest?9?$DOmd_size?5?$DM?$DN?5EVP_MAX_@ 0006616c     libeay32:digest.obj
 0002:000001e8       ??_C@_0EP@HIMPJABG@d?3?2wm653wehh?2platform?2mvv210?2src@ 000661e8     libeay32:pmeth_lib.obj
 0002:00000238       ??_C@_06IJPNAHC@digest?$AA@ 00066238     libeay32:pmeth_lib.obj
 0002:00000240       ??_C@_0FC@GLILKHMO@d?3?2wm653wehh?2platform?2mvv210?2src@ 00066240     libeay32:tb_digest.obj
 0002:000002c0       ??_C@_0DE@JBNNAKOP@called?5a?5function?5that?5was?5disab@ 000662c0     libeay32:err.obj
 0002:000002f4       ??_C@_0P@LPIEGNHB@internal?5error?$AA@ 000662f4     libeay32:err.obj
 0002:00000304       ??_C@_0BI@MMHLKOF@passed?5a?5null?5parameter?$AA@ 00066304     libeay32:err.obj
 0002:0000031c       ??_C@_0CG@JFIACAPA@called?5a?5function?5you?5should?5not@ 0006631c     libeay32:err.obj
 0002:00000344       ??_C@_0P@BOLAOBGL@malloc?5failure?$AA@ 00066344     libeay32:err.obj
 0002:00000354       ??_C@_05FAMCFOJB@fatal?$AA@ 00066354     libeay32:err.obj
 0002:0000035c       ??_C@_0BB@LLCBNOLO@missing?5asn1?5eos?$AA@ 0006635c     libeay32:err.obj
 0002:00000370       ??_C@_0BF@JKEELALH@asn1?5length?5mismatch?$AA@ 00066370     libeay32:err.obj
 0002:00000388       ??_C@_0BL@PKJJDDDF@expecting?5an?5asn1?5sequence?$AA@ 00066388     libeay32:err.obj
 0002:000003a4       ??_C@_0BJ@KHBMOGBI@bad?5get?5asn1?5object?5call?$AA@ 000663a4     libeay32:err.obj
 0002:000003c0       ??_C@_0BH@LJENPHMF@bad?5asn1?5object?5header?$AA@ 000663c0     libeay32:err.obj
 0002:000003d8       ??_C@_0BC@JPACPGKL@nested?5asn1?5error?$AA@ 000663d8     libeay32:err.obj
 0002:000003ec       ??_C@_06JPOPAJEJ@TS?5lib?$AA@ 000663ec     libeay32:err.obj
 0002:000003f4       ??_C@_08BIAIHGB@OCSP?5lib?$AA@ 000663f4     libeay32:err.obj
 0002:00000400       ??_C@_0L@NEGIHAGL@ENGINE?5lib?$AA@ 00066400     libeay32:err.obj
 0002:0000040c       ??_C@_07HLMFDJCH@DSO?5lib?$AA@ 0006640c     libeay32:err.obj
 0002:00000414       ??_C@_08IAGEJILJ@RAND?5lib?$AA@ 00066414     libeay32:err.obj
 0002:00000420       ??_C@_0L@FBHADCPC@PKCS12?5lib?$AA@ 00066420     libeay32:err.obj
 0002:0000042c       ??_C@_0L@OHLIEDB@X509V3?5lib?$AA@ 0006642c     libeay32:err.obj
 0002:00000438       ??_C@_09PFAKBDBP@PKCS7?5lib?$AA@ 00066438     libeay32:err.obj
 0002:00000444       ??_C@_07HOAEPDCA@BIO?5lib?$AA@ 00066444     libeay32:err.obj
 0002:0000044c       ??_C@_07ILCPHDLL@SSL?5lib?$AA@ 0006644c     libeay32:err.obj
 0002:00000454       ??_C@_06FNJAJMKI@EC?5lib?$AA@ 00066454     libeay32:err.obj
 0002:0000045c       ??_C@_0L@GEIMIIEL@CRYPTO?5lib?$AA@ 0006645c     libeay32:err.obj
 0002:00000468       ??_C@_08GDJNHNLC@CONF?5lib?$AA@ 00066468     libeay32:err.obj
 0002:00000474       ??_C@_08HAFIEMCJ@ASN1?5lib?$AA@ 00066474     libeay32:err.obj
 0002:00000480       ??_C@_08DGLLDICE@X509?5lib?$AA@ 00066480     libeay32:err.obj
 0002:0000048c       ??_C@_07EBMPFIFH@DSA?5lib?$AA@ 0006648c     libeay32:err.obj
 0002:00000494       ??_C@_07MKPCAOAJ@PEM?5lib?$AA@ 00066494     libeay32:err.obj
 0002:0000049c       ??_C@_07LHMLCDLI@OBJ?5lib?$AA@ 0006649c     libeay32:err.obj
 0002:000004a4       ??_C@_07PJHFFEFC@BUF?5lib?$AA@ 000664a4     libeay32:err.obj
 0002:000004ac       ??_C@_07BHNHKGFA@EVP?5lib?$AA@ 000664ac     libeay32:err.obj
 0002:000004b4       ??_C@_06JBCAGHNP@DH?5lib?$AA@ 000664b4     libeay32:err.obj
 0002:000004bc       ??_C@_07PLBLGAPL@RSA?5lib?$AA@ 000664bc     libeay32:err.obj
 0002:000004c4       ??_C@_06CEKJLBPI@BN?5lib?$AA@ 000664c4     libeay32:err.obj
 0002:000004cc       ??_C@_0L@NFMIFFDK@system?5lib?$AA@ 000664cc     libeay32:err.obj
 0002:000004d8       ??_C@_05FHPOAJDB@fread?$AA@ 000664d8     libeay32:err.obj
 0002:000004e0       ??_C@_07OPAOJOOA@opendir?$AA@ 000664e0     libeay32:err.obj
 0002:000004e8       ??_C@_0L@LNCNEFCG@WSAstartup?$AA@ 000664e8     libeay32:err.obj
 0002:000004f4       ??_C@_06MPKMECK@accept?$AA@ 000664f4     libeay32:err.obj
 0002:000004fc       ??_C@_06OODDLKLE@listen?$AA@ 000664fc     libeay32:err.obj
 0002:00000504       ??_C@_04NPNJNMMP@bind?$AA@ 00066504     libeay32:err.obj
 0002:0000050c       ??_C@_0M@PBPOCKDG@ioctlsocket?$AA@ 0006650c     libeay32:err.obj
 0002:00000518       ??_C@_06HBELJPBO@socket?$AA@ 00066518     libeay32:err.obj
 0002:00000520       ??_C@_0O@NKLJGHIL@getservbyname?$AA@ 00066520     libeay32:err.obj
 0002:00000530       ??_C@_07KAIBNCHO@connect?$AA@ 00066530     libeay32:err.obj
 0002:00000538       ??_C@_05FFKPLNPJ@fopen?$AA@ 00066538     libeay32:err.obj
 0002:00000540       ??_C@_0O@PBJMEGGG@HMAC?5routines?$AA@ 00066540     libeay32:err.obj
 0002:00000550       ??_C@_0N@MKJBFBO@CMS?5routines?$AA@ 00066550     libeay32:err.obj
 0002:00000560       ??_C@_0O@MDPFBMCI@FIPS?5routines?$AA@ 00066560     libeay32:err.obj
 0002:00000570       ??_C@_0O@LJIADBLP@OCSP?5routines?$AA@ 00066570     libeay32:err.obj
 0002:00000580       ??_C@_0BA@MMHCJFKD@engine?5routines?$AA@ 00066580     libeay32:err.obj
 0002:00000590       ??_C@_0BE@IMHDPIMO@time?5stamp?5routines?$AA@ 00066590     libeay32:err.obj
 0002:000005a4       ??_C@_0BF@BDHLAIEM@DSO?5support?5routines?$AA@ 000665a4     libeay32:err.obj
 0002:000005bc       ??_C@_0BI@GMPKPCPG@random?5number?5generator?$AA@ 000665bc     libeay32:err.obj
 0002:000005d4       ??_C@_0BA@KPFPMFD@PKCS12?5routines?$AA@ 000665d4     libeay32:err.obj
 0002:000005e4       ??_C@_0BB@LKDEPKLM@X509?5V3?5routines?$AA@ 000665e4     libeay32:err.obj
 0002:000005f8       ??_C@_0P@FBDCKDAN@PKCS7?5routines?$AA@ 000665f8     libeay32:err.obj
 0002:00000608       ??_C@_0N@HGNFKBOI@BIO?5routines?$AA@ 00066608     libeay32:err.obj
 0002:00000618       ??_C@_0N@GAIJLNCL@SSL?5routines?$AA@ 00066618     libeay32:err.obj
 0002:00000628       ??_C@_0BI@NNCFPCDI@elliptic?5curve?5routines?$AA@ 00066628     libeay32:err.obj
 0002:00000640       ??_C@_0BK@GOIAPJCF@common?5libcrypto?5routines?$AA@ 00066640     libeay32:err.obj
 0002:0000065c       ??_C@_0BM@FNIFPKKP@configuration?5file?5routines?$AA@ 0006665c     libeay32:err.obj
 0002:00000678       ??_C@_0BH@OKMDKJBH@asn1?5encoding?5routines?$AA@ 00066678     libeay32:err.obj
 0002:00000690       ??_C@_0BK@MLDIFNOG@x509?5certificate?5routines?$AA@ 00066690     libeay32:err.obj
 0002:000006ac       ??_C@_0N@EPLKEPHE@dsa?5routines?$AA@ 000666ac     libeay32:err.obj
 0002:000006bc       ??_C@_0N@PPOIEGDJ@PEM?5routines?$AA@ 000666bc     libeay32:err.obj
 0002:000006cc       ??_C@_0BL@GAJLDLEG@object?5identifier?5routines?$AA@ 000666cc     libeay32:err.obj
 0002:000006e8       ??_C@_0BH@GHBGFOKA@memory?5buffer?5routines?$AA@ 000666e8     libeay32:err.obj
 0002:00000700       ??_C@_0BK@KCBHLAIJ@digital?5envelope?5routines?$AA@ 00066700     libeay32:err.obj
 0002:0000071c       ??_C@_0BI@BELEOFAM@Diffie?9Hellman?5routines?$AA@ 0006671c     libeay32:err.obj
 0002:00000734       ??_C@_0N@FLFIDGHD@rsa?5routines?$AA@ 00066734     libeay32:err.obj
 0002:00000744       ??_C@_0BA@BALAMMCD@bignum?5routines?$AA@ 00066744     libeay32:err.obj
 0002:00000754       ??_C@_0P@KJHLNCML@system?5library?$AA@ 00066754     libeay32:err.obj
 0002:00000764       ??_C@_0BA@JLJAKIKL@unknown?5library?$AA@ 00066764     libeay32:err.obj
 0002:00000778       ??_C@_0EJ@LLHEHHLL@d?3?2wm653wehh?2platform?2mvv210?2src@ 00066778     libeay32:err.obj
 0002:000007c4       ??_C@_0BE@CGMKPIME@int_err_get?5?$CIerr?4c?$CJ?$AA@ 000667c4     libeay32:err.obj
 0002:000007d8       ??_C@_0BH@KBGLDIDO@int_thread_get?5?$CIerr?4c?$CJ?$AA@ 000667d8     libeay32:err.obj
 0002:000007ef       ??_C@_00CNPNBAHC@?$AA@     000667ef     libeay32:err.obj
 0002:000007f0       ??_C@_0FB@FHJDMCII@d?3?2wm653wehh?2platform?2mvv210?2src@ 000667f0     libeay32:eng_init.obj
 0002:00000848       ??_C@_0EN@HNCBNDLA@d?3?2wm653wehh?2platform?2mvv210?2src@ 00066848     libeay32:evp_lib.obj
 0002:00000898       ??_C@_0BD@LHHAEAAJ@l?5?$DM?$DN?5sizeof?$CIc?9?$DOiv?$CJ?$AA@ 00066898     libeay32:evp_lib.obj
 0002:000008ac       ??_C@_0BD@CKKMELBK@j?5?$DM?$DN?5sizeof?$CIc?9?$DOiv?$CJ?$AA@ 000668ac     libeay32:evp_lib.obj
 0002:0000096c       ??_C@_05NEEKIFMD@fips2?$AA@ 0006696c     libeay32:cryptlib.obj
 0002:00000974       ??_C@_04DJGCHAOD@fips?$AA@ 00066974     libeay32:cryptlib.obj
 0002:0000097c       ??_C@_04OLDKMDKP@comp?$AA@ 0006697c     libeay32:cryptlib.obj
 0002:00000984       ??_C@_05ODGDKDLF@store?$AA@ 00066984     libeay32:cryptlib.obj
 0002:0000098c       ??_C@_0M@FNJFEIGB@ec_pre_comp?$AA@ 0006698c     libeay32:cryptlib.obj
 0002:00000998       ??_C@_02LAJDHPIK@bn?$AA@   00066998     libeay32:cryptlib.obj
 0002:0000099c       ??_C@_04KDGGCKGB@ecdh?$AA@ 0006699c     libeay32:cryptlib.obj
 0002:000009a4       ??_C@_02HCBHEC@ec?$AA@     000669a4     libeay32:cryptlib.obj
 0002:000009a8       ??_C@_05FGIDCBJD@ecdsa?$AA@ 000669a8     libeay32:cryptlib.obj
 0002:000009b0       ??_C@_02OGLLFMLI@ui?$AA@   000669b0     libeay32:cryptlib.obj
 0002:000009b4       ??_C@_06LOBMEHPF@engine?$AA@ 000669b4     libeay32:cryptlib.obj
 0002:000009bc       ??_C@_07HGGNMPAJ@dynlock?$AA@ 000669bc     libeay32:cryptlib.obj
 0002:000009c4       ??_C@_03NOCNOBNG@dso?$AA@  000669c4     libeay32:cryptlib.obj
 0002:000009c8       ??_C@_0O@PMFKBDME@debug_malloc2?$AA@ 000669c8     libeay32:cryptlib.obj
 0002:000009d8       ??_C@_02OCEEKELO@dh?$AA@   000669d8     libeay32:cryptlib.obj
 0002:000009dc       ??_C@_0N@BGAJKBNF@RSA_blinding?$AA@ 000669dc     libeay32:cryptlib.obj
 0002:000009ec       ??_C@_07OMHHFDME@readdir?$AA@ 000669ec     libeay32:cryptlib.obj
 0002:000009f4       ??_C@_0O@BFBCKHPD@gethostbyname?$AA@ 000669f4     libeay32:cryptlib.obj
 0002:00000a04       ??_C@_03OHAMFFNA@BIO?$AA@  00066a04     libeay32:cryptlib.obj
 0002:00000a08       ??_C@_0N@CLEMOJNL@debug_malloc?$AA@ 00066a08     libeay32:cryptlib.obj
 0002:00000a18       ??_C@_05NFNCBLNG@rand2?$AA@ 00066a18     libeay32:cryptlib.obj
 0002:00000a20       ??_C@_04HKINGDKC@rand?$AA@ 00066a20     libeay32:cryptlib.obj
 0002:00000a28       ??_C@_0L@NKBFNPDB@ssl_method?$AA@ 00066a28     libeay32:cryptlib.obj
 0002:00000a34       ??_C@_03DIMONNDD@ssl?$AA@  00066a34     libeay32:cryptlib.obj
 0002:00000a38       ??_C@_0O@LOCLBOHA@ssl_sess_cert?$AA@ 00066a38     libeay32:cryptlib.obj
 0002:00000a48       ??_C@_0M@OAEAFGMD@ssl_session?$AA@ 00066a48     libeay32:cryptlib.obj
 0002:00000a54       ??_C@_08INIFBEOB@ssl_cert?$AA@ 00066a54     libeay32:cryptlib.obj
 0002:00000a60       ??_C@_07DNHKIAPH@ssl_ctx?$AA@ 00066a60     libeay32:cryptlib.obj
 0002:00000a68       ??_C@_0L@JCDDFIOK@x509_store?$AA@ 00066a68     libeay32:cryptlib.obj
 0002:00000a74       ??_C@_08NBJJIGBN@evp_pkey?$AA@ 00066a74     libeay32:cryptlib.obj
 0002:00000a80       ??_C@_03DFNMMEBL@rsa?$AA@  00066a80     libeay32:cryptlib.obj
 0002:00000a84       ??_C@_03EAKOMMFI@dsa?$AA@  00066a84     libeay32:cryptlib.obj
 0002:00000a88       ??_C@_08BHPLFFMD@x509_req?$AA@ 00066a88     libeay32:cryptlib.obj
 0002:00000a94       ??_C@_08BJFLLMNA@x509_crl?$AA@ 00066a94     libeay32:cryptlib.obj
 0002:00000aa0       ??_C@_09HNLHIFBP@x509_pkey?$AA@ 00066aa0     libeay32:cryptlib.obj
 0002:00000aac       ??_C@_09DJEHILFA@x509_info?$AA@ 00066aac     libeay32:cryptlib.obj
 0002:00000ab8       ??_C@_04BNGFMDFF@x509?$AA@ 00066ab8     libeay32:cryptlib.obj
 0002:00000ac0       ??_C@_07OALPHBKG@ex_data?$AA@ 00066ac0     libeay32:cryptlib.obj
 0002:00000ac8       ??_C@_03JIDPIAJI@err?$AA@  00066ac8     libeay32:cryptlib.obj
 0002:00000acc       ??_C@_09OGFJIAEE@?$DM?$DMERROR?$DO?$DO?$AA@ 00066acc     libeay32:cryptlib.obj
 0002:00000ad8       ??_C@_0EK@JACEKOIE@d?3?2wm653wehh?2platform?2mvv210?2src@ 00066ad8     libeay32:cryptlib.obj
 0002:00000b24       ??_C@_1BO@DCCMIJEM@?$AAO?$AAp?$AAe?$AAn?$AAS?$AAS?$AAL?$AA?3?$AA?5?$AAF?$AAA?$AAT?$AAA?$AAL?$AA?$AA@ 00066b24     libeay32:cryptlib.obj
 0002:00000b44       ??_C@_1BE@NLCFDLCA@?$AAn?$AAo?$AA?5?$AAs?$AAt?$AAa?$AAc?$AAk?$AA?$DP?$AA?$AA@ 00066b44     libeay32:cryptlib.obj
 0002:00000b58       ??_C@_0DG@JJAMFCAP@?$CFs?$CI?$CFd?$CJ?3?5OpenSSL?5internal?5error?0?5@ 00066b58     libeay32:cryptlib.obj
 0002:00000b90       ??_C@_0BA@LPBALOME@pointer?5?$CB?$DN?5NULL?$AA@ 00066b90     libeay32:cryptlib.obj
 0002:00000ba0       ??_C@_0EO@NHOCECJL@d?3?2wm653wehh?2platform?2mvv210?2src@ 00066ba0     libeay32:rsa_sign.obj
 0002:00000bf0       ??_C@_0DF@DGNAAHIE@signature?5has?5problems?0?5re?9make?5@ 00066bf0     libeay32:rsa_sign.obj
 0002:00000c28       SHA_version                00066c28     libeay32:sha_dgst.obj
 0002:00000c50       cmac_pkey_meth             00066c50     libeay32:cm_pmeth.obj
 0002:00000cbc       ??_C@_06BHJHKMJC@hexkey?$AA@ 00066cbc     libeay32:cm_pmeth.obj
 0002:00000cc4       ??_C@_06KDGDAFPH@cipher?$AA@ 00066cc4     libeay32:cm_pmeth.obj
 0002:00000ccc       ??_C@_03ICHNJLJF@key?$AA@  00066ccc     libeay32:cm_pmeth.obj
 0002:00000cd0       hmac_pkey_meth             00066cd0     libeay32:hm_pmeth.obj
 0002:00000d40       ??_C@_0EP@PNIBEDF@d?3?2wm653wehh?2platform?2mvv210?2src@ 00066d40     libeay32:hm_pmeth.obj
 0002:00000d90       ec_pkey_meth               00066d90     libeay32:ec_pmeth.obj
 0002:00000e00       ??_C@_0EN@FGGHDHMC@d?3?2wm653wehh?2platform?2mvv210?2src@ 00066e00     libeay32:ec_pmeth.obj
 0002:00000e50       ??_C@_0BC@BLCJLNNM@ec_paramgen_curve?$AA@ 00066e50     libeay32:ec_pmeth.obj
 0002:00000e68       dsa_pkey_meth              00066e68     libeay32:dsa_pmeth.obj
 0002:00000ed8       ??_C@_0EP@KECMJLCG@d?3?2wm653wehh?2platform?2mvv210?2src@ 00066ed8     libeay32:dsa_pmeth.obj
 0002:00000f28       ??_C@_0BA@HDLNDIMK@dsa_paramgen_md?$AA@ 00066f28     libeay32:dsa_pmeth.obj
 0002:00000f38       ??_C@_0BE@JHBKDNPA@dsa_paramgen_q_bits?$AA@ 00066f38     libeay32:dsa_pmeth.obj
 0002:00000f4c       ??_C@_0BC@DOMHFBFC@dsa_paramgen_bits?$AA@ 00066f4c     libeay32:dsa_pmeth.obj
 0002:00000f60       dh_pkey_meth               00066f60     libeay32:dh_pmeth.obj
 0002:00000fd0       ??_C@_0EN@BFMPENCA@d?3?2wm653wehh?2platform?2mvv210?2src@ 00066fd0     libeay32:dh_pmeth.obj
 0002:00001020       ??_C@_0BG@POLEFOHA@dh_paramgen_generator?$AA@ 00067020     libeay32:dh_pmeth.obj
 0002:00001038       ??_C@_0BG@LEMCDPBI@dh_paramgen_prime_len?$AA@ 00067038     libeay32:dh_pmeth.obj
 0002:00001050       rsa_pkey_meth              00067050     libeay32:rsa_pmeth.obj
 0002:000010c0       ??_C@_0EP@PCLPIEEA@d?3?2wm653wehh?2platform?2mvv210?2src@ 000670c0     libeay32:rsa_pmeth.obj
 0002:00001110       ??_C@_0BC@DMECNPFD@rsa_keygen_pubexp?$AA@ 00067110     libeay32:rsa_pmeth.obj
 0002:00001124       ??_C@_0BA@GFPKPLAF@rsa_keygen_bits?$AA@ 00067124     libeay32:rsa_pmeth.obj
 0002:00001134       ??_C@_0BA@CIHMEEHB@rsa_pss_saltlen?$AA@ 00067134     libeay32:rsa_pmeth.obj
 0002:00001144       ??_C@_03OHCBHMED@pss?$AA@  00067144     libeay32:rsa_pmeth.obj
 0002:00001148       ??_C@_04JNCMEILM@x931?$AA@ 00067148     libeay32:rsa_pmeth.obj
 0002:00001150       ??_C@_04EIGNDHKO@oeap?$AA@ 00067150     libeay32:rsa_pmeth.obj
 0002:00001158       ??_C@_04CGFJFPFD@none?$AA@ 00067158     libeay32:rsa_pmeth.obj
 0002:00001160       ??_C@_06PDLHKEJK@sslv23?$AA@ 00067160     libeay32:rsa_pmeth.obj
 0002:00001168       ??_C@_05BCIEJMJH@pkcs1?$AA@ 00067168     libeay32:rsa_pmeth.obj
 0002:00001170       ??_C@_0BB@BILFEOKG@rsa_padding_mode?$AA@ 00067170     libeay32:rsa_pmeth.obj
 0002:0000a920       ??_C@_09FHIEKOPH@rsaesOaep?$AA@ 00070920     libeay32:obj_dat.obj
 0002:0000a92c       ??_C@_0L@NCPDMLAN@RSAES?9OAEP?$AA@ 0007092c     libeay32:obj_dat.obj
 0002:0000a938       ??_C@_0BG@MBIALEGA@aes?9256?9cbc?9hmac?9sha1?$AA@ 00070938     libeay32:obj_dat.obj
 0002:0000a950       ??_C@_0BG@NJKHMG@AES?9256?9CBC?9HMAC?9SHA1?$AA@ 00070950     libeay32:obj_dat.obj
 0002:0000a968       ??_C@_0BG@GKCPENNE@aes?9192?9cbc?9hmac?9sha1?$AA@ 00070968     libeay32:obj_dat.obj
 0002:0000a980       ??_C@_0BG@KLHGFOHC@AES?9192?9CBC?9HMAC?9SHA1?$AA@ 00070980     libeay32:obj_dat.obj
 0002:0000a998       ??_C@_0BG@CLBGODOC@aes?9128?9cbc?9hmac?9sha1?$AA@ 00070998     libeay32:obj_dat.obj
 0002:0000a9b0       ??_C@_0BG@OKEPPAEE@AES?9128?9CBC?9HMAC?9SHA1?$AA@ 000709b0     libeay32:obj_dat.obj
 0002:0000a9c8       ??_C@_0N@EFPJLHOG@rc4?9hmac?9md5?$AA@ 000709c8     libeay32:obj_dat.obj
 0002:0000a9d8       ??_C@_0N@MFFPBCGK@RC4?9HMAC?9MD5?$AA@ 000709d8     libeay32:obj_dat.obj
 0002:0000a9e8       ??_C@_0M@FHDOMLNI@aes?9256?9xts?$AA@ 000709e8     libeay32:obj_dat.obj
 0002:0000a9f4       ??_C@_0M@ILDFFBFL@AES?9256?9XTS?$AA@ 000709f4     libeay32:obj_dat.obj
 0002:0000aa00       ??_C@_0M@CGBMJDMF@aes?9128?9xts?$AA@ 00070a00     libeay32:obj_dat.obj
 0002:0000aa0c       ??_C@_0M@PKBHAJEG@AES?9128?9XTS?$AA@ 00070a0c     libeay32:obj_dat.obj
 0002:0000aa18       ??_C@_09FGGKIFKD@rsassaPss?$AA@ 00070a18     libeay32:obj_dat.obj
 0002:0000aa24       ??_C@_0L@CPMAKEFG@RSASSA?9PSS?$AA@ 00070a24     libeay32:obj_dat.obj
 0002:0000aa30       ??_C@_04HEIJMEIE@mgf1?$AA@ 00070a30     libeay32:obj_dat.obj
 0002:0000aa38       ??_C@_04CNDHACFO@MGF1?$AA@ 00070a38     libeay32:obj_dat.obj
 0002:0000aa40       ??_C@_0BH@FHBOBBKO@Any?5Extended?5Key?5Usage?$AA@ 00070a40     libeay32:obj_dat.obj
 0002:0000aa58       ??_C@_0BE@FKFLDMON@anyExtendedKeyUsage?$AA@ 00070a58     libeay32:obj_dat.obj
 0002:0000aa6c       ??_C@_0BE@PHKLGFJC@id?9camellia256?9wrap?$AA@ 00070a6c     libeay32:obj_dat.obj
 0002:0000aa80       ??_C@_0BE@GNMGGIAL@id?9camellia192?9wrap?$AA@ 00070a80     libeay32:obj_dat.obj
 0002:0000aa94       ??_C@_0BE@JENMCLBD@id?9camellia128?9wrap?$AA@ 00070a94     libeay32:obj_dat.obj
 0002:0000aaa8       ??_C@_0M@MJDNCKAH@aes?9256?9ctr?$AA@ 00070aa8     libeay32:obj_dat.obj
 0002:0000aab4       ??_C@_0M@BFDGLAIE@AES?9256?9CTR?$AA@ 00070ab4     libeay32:obj_dat.obj
 0002:0000aac0       ??_C@_0M@BLIDAFIG@aes?9192?9ctr?$AA@ 00070ac0     libeay32:obj_dat.obj
 0002:0000aacc       ??_C@_0M@MHIIJPAF@AES?9192?9CTR?$AA@ 00070acc     libeay32:obj_dat.obj
 0002:0000aad8       ??_C@_0M@LIBPHCBK@aes?9128?9ctr?$AA@ 00070ad8     libeay32:obj_dat.obj
 0002:0000aae4       ??_C@_0M@GEBEOIJJ@AES?9128?9CTR?$AA@ 00070ae4     libeay32:obj_dat.obj
 0002:0000aaf0       ??_C@_0BD@OHLFOIJM@id?9aes256?9wrap?9pad?$AA@ 00070af0     libeay32:obj_dat.obj
 0002:0000ab04       ??_C@_0M@BNAOJBGM@aes?9256?9ccm?$AA@ 00070b04     libeay32:obj_dat.obj
 0002:0000ab10       ??_C@_0O@EDMKMBKB@id?9aes256?9CCM?$AA@ 00070b10     libeay32:obj_dat.obj
 0002:0000ab20       ??_C@_0M@JCGMAGDL@aes?9256?9gcm?$AA@ 00070b20     libeay32:obj_dat.obj
 0002:0000ab2c       ??_C@_0O@MMKIFGPG@id?9aes256?9GCM?$AA@ 00070b2c     libeay32:obj_dat.obj
 0002:0000ab3c       ??_C@_0BD@OPKMLKFB@id?9aes192?9wrap?9pad?$AA@ 00070b3c     libeay32:obj_dat.obj
 0002:0000ab50       ??_C@_0M@MPLALOON@aes?9192?9ccm?$AA@ 00070b50     libeay32:obj_dat.obj
 0002:0000ab5c       ??_C@_0O@JBHEOOCA@id?9aes192?9CCM?$AA@ 00070b5c     libeay32:obj_dat.obj
 0002:0000ab6c       ??_C@_0M@EANCCJLK@aes?9192?9gcm?$AA@ 00070b6c     libeay32:obj_dat.obj
 0002:0000ab78       ??_C@_0O@BOBGHJHH@id?9aes192?9GCM?$AA@ 00070b78     libeay32:obj_dat.obj
 0002:0000ab88       ??_C@_0BD@HMJBEGNL@id?9aes128?9wrap?9pad?$AA@ 00070b88     libeay32:obj_dat.obj
 0002:0000ab9c       ??_C@_0M@GMCMMJHB@aes?9128?9ccm?$AA@ 00070b9c     libeay32:obj_dat.obj
 0002:0000aba8       ??_C@_0O@DCOIJJLM@id?9aes128?9CCM?$AA@ 00070ba8     libeay32:obj_dat.obj
 0002:0000abb8       ??_C@_0M@ODEOFOCG@aes?9128?9gcm?$AA@ 00070bb8     libeay32:obj_dat.obj
 0002:0000abc4       ??_C@_0O@LNIKAOOL@id?9aes128?9GCM?$AA@ 00070bc4     libeay32:obj_dat.obj
 0002:0000abd4       ??_C@_04CJMGLDNC@cmac?$AA@ 00070bd4     libeay32:obj_dat.obj
 0002:0000abdc       ??_C@_04OFPMFBKK@CMAC?$AA@ 00070bdc     libeay32:obj_dat.obj
 0002:0000abe4       ??_C@_0BA@NJOHMDIG@id?9alg?9PWRI?9KEK?$AA@ 00070be4     libeay32:obj_dat.obj
 0002:0000abf4       ??_C@_07ILKEFPGB@dmdName?$AA@ 00070bf4     libeay32:obj_dat.obj
 0002:0000abfc       ??_C@_0BE@MNOFELKF@deltaRevocationList?$AA@ 00070bfc     libeay32:obj_dat.obj
 0002:0000ac10       ??_C@_0BE@KGOGIPEN@supportedAlgorithms?$AA@ 00070c10     libeay32:obj_dat.obj
 0002:0000ac24       ??_C@_0BA@EKKIBBF@houseIdentifier?$AA@ 00070c24     libeay32:obj_dat.obj
 0002:0000ac34       ??_C@_0N@FIGDLDDJ@uniqueMember?$AA@ 00070c34     libeay32:obj_dat.obj
 0002:0000ac44       ??_C@_0BC@IIJOGNNH@distinguishedName?$AA@ 00070c44     libeay32:obj_dat.obj
 0002:0000ac58       ??_C@_0BE@FKAMNJMM@protocolInformation?$AA@ 00070c58     libeay32:obj_dat.obj
 0002:0000ac6c       ??_C@_0BE@NNAGLFEM@enhancedSearchGuide?$AA@ 00070c6c     libeay32:obj_dat.obj
 0002:0000ac80       ??_C@_0BF@GAAPBDAE@crossCertificatePair?$AA@ 00070c80     libeay32:obj_dat.obj
 0002:0000ac98       ??_C@_0BK@IMFDMOND@certificateRevocationList?$AA@ 00070c98     libeay32:obj_dat.obj
 0002:0000acb4       ??_C@_0BI@EODAEBFG@authorityRevocationList?$AA@ 00070cb4     libeay32:obj_dat.obj
 0002:0000accc       ??_C@_0O@JJCNKCKK@cACertificate?$AA@ 00070ccc     libeay32:obj_dat.obj
 0002:0000acdc       ??_C@_0BA@FEECIELF@userCertificate?$AA@ 00070cdc     libeay32:obj_dat.obj
 0002:0000acec       ??_C@_0N@JHMNNHKM@userPassword?$AA@ 00070cec     libeay32:obj_dat.obj
 0002:0000acfc       ??_C@_07JJAENDGN@seeAlso?$AA@ 00070cfc     libeay32:obj_dat.obj
 0002:0000ad04       ??_C@_0N@NAEJMDPF@roleOccupant?$AA@ 00070d04     libeay32:obj_dat.obj
 0002:0000ad14       ??_C@_05HEIBENID@owner?$AA@ 00070d14     libeay32:obj_dat.obj
 0002:0000ad1c       ??_C@_06HDFDANIG@member?$AA@ 00070d1c     libeay32:obj_dat.obj
 0002:0000ad24       ??_C@_0BM@NHJFOGBI@supportedApplicationContext?$AA@ 00070d24     libeay32:obj_dat.obj
 0002:0000ad40       ??_C@_0BE@KHACCONJ@presentationAddress?$AA@ 00070d40     libeay32:obj_dat.obj
 0002:0000ad54       ??_C@_0BI@MKMMOKIA@preferredDeliveryMethod?$AA@ 00070d54     libeay32:obj_dat.obj
 0002:0000ad6c       ??_C@_0BF@CMAFNEOO@destinationIndicator?$AA@ 00070d6c     libeay32:obj_dat.obj
 0002:0000ad84       ??_C@_0BC@DLLOJDNE@registeredAddress?$AA@ 00070d84     libeay32:obj_dat.obj
 0002:0000ad98       ??_C@_0BI@OAHCBLEE@internationaliSDNNumber?$AA@ 00070d98     libeay32:obj_dat.obj
 0002:0000adb0       ??_C@_0M@MOCAHDLJ@x121Address?$AA@ 00070db0     libeay32:obj_dat.obj
 0002:0000adbc       ??_C@_0BJ@NDMMBDAB@facsimileTelephoneNumber?$AA@ 00070dbc     libeay32:obj_dat.obj
 0002:0000add8       ??_C@_0BK@BBNEJJDC@teletexTerminalIdentifier?$AA@ 00070dd8     libeay32:obj_dat.obj
 0002:0000adf4       ??_C@_0M@MMDMBPMM@telexNumber?$AA@ 00070df4     libeay32:obj_dat.obj
 0002:0000ae00       ??_C@_0BA@NCAGJGBF@telephoneNumber?$AA@ 00070e00     libeay32:obj_dat.obj
 0002:0000ae10       ??_C@_0BL@DENBGONK@physicalDeliveryOfficeName?$AA@ 00070e10     libeay32:obj_dat.obj
 0002:0000ae2c       ??_C@_0O@PCCHCGPG@postOfficeBox?$AA@ 00070e2c     libeay32:obj_dat.obj
 0002:0000ae3c       ??_C@_0O@KABBPKPG@postalAddress?$AA@ 00070e3c     libeay32:obj_dat.obj
 0002:0000ae4c       ??_C@_0BB@GFJJGHBI@businessCategory?$AA@ 00070e4c     libeay32:obj_dat.obj
 0002:0000ae60       ??_C@_0M@MCCFGANF@searchGuide?$AA@ 00070e60     libeay32:obj_dat.obj
 0002:0000ae6c       ??_C@_0BF@DGGAJJCO@Permanent?5Identifier?$AA@ 00070e6c     libeay32:obj_dat.obj
 0002:0000ae84       ??_C@_0BK@BMFCOPIC@id?9on?9permanentIdentifier?$AA@ 00070e84     libeay32:obj_dat.obj
 0002:0000aea0       ??_C@_0BE@KEJIKEFG@X509v3?5Freshest?5CRL?$AA@ 00070ea0     libeay32:obj_dat.obj
 0002:0000aeb4       ??_C@_0M@PKNKMHEG@freshestCRL?$AA@ 00070eb4     libeay32:obj_dat.obj
 0002:0000aec0       ??_C@_0BI@FMFOLFMC@Microsoft?5Local?5Key?5set?$AA@ 00070ec0     libeay32:obj_dat.obj
 0002:0000aed8       ??_C@_0M@LCODBGNO@LocalKeySet?$AA@ 00070ed8     libeay32:obj_dat.obj
 0002:0000aee4       ??_C@_04FOBGICMD@hmac?$AA@ 00070ee4     libeay32:obj_dat.obj
 0002:0000aeec       ??_C@_04JCCMGALL@HMAC?$AA@ 00070eec     libeay32:obj_dat.obj
 0002:0000aef4       ??_C@_0CJ@NCCJHEBD@GOST?5R?53410?92001?5Parameter?5Set?5C@ 00070ef4     libeay32:obj_dat.obj
 0002:0000af20       ??_C@_0BO@LBPHKLOM@id?9GostR3410?92001?9ParamSet?9cc?$AA@ 00070f20     libeay32:obj_dat.obj
 0002:0000af40       ??_C@_0DB@BGOOPLFE@GOST?5R?534?411?994?5with?5GOST?5R?534?41@ 00070f40     libeay32:obj_dat.obj
 0002:0000af74       ??_C@_0CH@JJNMILDM@id?9GostR3411?994?9with?9GostR3410?92@ 00070f74     libeay32:obj_dat.obj
 0002:0000af9c       ??_C@_0CP@ILDIBBAJ@GOST?5R?534?411?994?5with?5GOST?5R?534?41@ 00070f9c     libeay32:obj_dat.obj
 0002:0000afcc       ??_C@_0CF@FCIKJGLH@id?9GostR3411?994?9with?9GostR3410?99@ 00070fcc     libeay32:obj_dat.obj
 0002:0000aff4       ??_C@_0BK@IGCJADLM@GOST?534?410?92001?5Cryptocom?$AA@ 00070ff4     libeay32:obj_dat.obj
 0002:0000b010       ??_C@_0L@PKDOCLKG@gost2001cc?$AA@ 00071010     libeay32:obj_dat.obj
 0002:0000b01c       ??_C@_0BI@GJIILMEB@GOST?534?410?994?5Cryptocom?$AA@ 0007101c     libeay32:obj_dat.obj
 0002:0000b034       ??_C@_08LCDFMIFG@gost94cc?$AA@ 00071034     libeay32:obj_dat.obj
 0002:0000b040       ??_C@_0CB@KNOPDNHN@GOST?528147?989?5Cryptocom?5ParamSet@ 00071040     libeay32:obj_dat.obj
 0002:0000b064       ??_C@_0BD@MEAAKKFJ@id?9Gost28147?989?9cc?$AA@ 00071064     libeay32:obj_dat.obj
 0002:0000b078       ??_C@_0BF@PGMBMCGF@id?9GostR3410?994?9bBis?$AA@ 00071078     libeay32:obj_dat.obj
 0002:0000b090       ??_C@_0BC@MKOAJFN@id?9GostR3410?994?9b?$AA@ 00071090     libeay32:obj_dat.obj
 0002:0000b0a4       ??_C@_0BF@LBGBLILF@id?9GostR3410?994?9aBis?$AA@ 000710a4     libeay32:obj_dat.obj
 0002:0000b0bc       ??_C@_0BC@CHIDFKJO@id?9GostR3410?994?9a?$AA@ 000710bc     libeay32:obj_dat.obj
 0002:0000b0d0       ??_C@_0CK@GDLEHLKF@id?9GostR3410?92001?9CryptoPro?9XchB@ 000710d0     libeay32:obj_dat.obj
 0002:0000b0fc       ??_C@_0CK@PKFGBNKE@id?9GostR3410?92001?9CryptoPro?9XchA@ 000710fc     libeay32:obj_dat.obj
 0002:0000b128       ??_C@_0CH@DLGDIIGO@id?9GostR3410?92001?9CryptoPro?9C?9Pa@ 00071128     libeay32:obj_dat.obj
 0002:0000b150       ??_C@_0CH@PKONFHKO@id?9GostR3410?92001?9CryptoPro?9B?9Pa@ 00071150     libeay32:obj_dat.obj
 0002:0000b178       ??_C@_0CH@GDAPDBKP@id?9GostR3410?92001?9CryptoPro?9A?9Pa@ 00071178     libeay32:obj_dat.obj
 0002:0000b1a0       ??_C@_0BP@GEEJLPDI@id?9GostR3410?92001?9TestParamSet?$AA@ 000711a0     libeay32:obj_dat.obj
 0002:0000b1c0       ??_C@_0CI@DAANNIN@id?9GostR3410?994?9CryptoPro?9XchC?9P@ 000711c0     libeay32:obj_dat.obj
 0002:0000b1e8       ??_C@_0CI@MCIOACEN@id?9GostR3410?994?9CryptoPro?9XchB?9P@ 000711e8     libeay32:obj_dat.obj
 0002:0000b210       ??_C@_0CI@FLGMGEEM@id?9GostR3410?994?9CryptoPro?9XchA?9P@ 00071210     libeay32:obj_dat.obj
 0002:0000b238       ??_C@_0CF@LMAJFDGB@id?9GostR3410?994?9CryptoPro?9D?9Para@ 00071238     libeay32:obj_dat.obj
 0002:0000b260       ??_C@_0CF@JFDCEGOC@id?9GostR3410?994?9CryptoPro?9C?9Para@ 00071260     libeay32:obj_dat.obj
 0002:0000b288       ??_C@_0CF@FELMJJCC@id?9GostR3410?994?9CryptoPro?9B?9Para@ 00071288     libeay32:obj_dat.obj
 0002:0000b2b0       ??_C@_0CF@MNFOPPCD@id?9GostR3410?994?9CryptoPro?9A?9Para@ 000712b0     libeay32:obj_dat.obj
 0002:0000b2d8       ??_C@_0BN@NAOAJFAF@id?9GostR3410?994?9TestParamSet?$AA@ 000712d8     libeay32:obj_dat.obj
 0002:0000b2f8       ??_C@_0CJ@IIADIAJH@id?9Gost28147?989?9CryptoPro?9RIC?91?9@ 000712f8     libeay32:obj_dat.obj
 0002:0000b324       ??_C@_0CN@IIJDEMNM@id?9Gost28147?989?9CryptoPro?9Oscar?9@ 00071324     libeay32:obj_dat.obj
 0002:0000b354       ??_C@_0CN@EJBNJDBM@id?9Gost28147?989?9CryptoPro?9Oscar?9@ 00071354     libeay32:obj_dat.obj
 0002:0000b384       ??_C@_0CF@IEBLBMOP@id?9Gost28147?989?9CryptoPro?9D?9Para@ 00071384     libeay32:obj_dat.obj
 0002:0000b3ac       ??_C@_0CF@KNCAAJGM@id?9Gost28147?989?9CryptoPro?9C?9Para@ 000713ac     libeay32:obj_dat.obj
 0002:0000b3d4       ??_C@_0CF@GMKONGKM@id?9Gost28147?989?9CryptoPro?9B?9Para@ 000713d4     libeay32:obj_dat.obj
 0002:0000b3fc       ??_C@_0CF@PFEMLAKN@id?9Gost28147?989?9CryptoPro?9A?9Para@ 000713fc     libeay32:obj_dat.obj
 0002:0000b424       ??_C@_0BN@GKJFBLMI@id?9Gost28147?989?9TestParamSet?$AA@ 00071424     libeay32:obj_dat.obj
 0002:0000b444       ??_C@_0CC@DOHJLMBI@id?9GostR3411?994?9CryptoProParamSe@ 00071444     libeay32:obj_dat.obj
 0002:0000b468       ??_C@_0BN@DPLCCDOE@id?9GostR3411?994?9TestParamSet?$AA@ 00071468     libeay32:obj_dat.obj
 0002:0000b488       ??_C@_0CA@BLJAEGEG@id?9Gost28147?989?9None?9KeyMeshing?$AA@ 00071488     libeay32:obj_dat.obj
 0002:0000b4a8       ??_C@_0CF@MMKONEIK@id?9Gost28147?989?9CryptoPro?9KeyMes@ 000714a8     libeay32:obj_dat.obj
 0002:0000b4d0       ??_C@_0BD@LGKAOLPL@GOST?5R?534?410?994?5DH?$AA@ 000714d0     libeay32:obj_dat.obj
 0002:0000b4e4       ??_C@_0BC@CEMDDFNK@id?9GostR3410?994DH?$AA@ 000714e4     libeay32:obj_dat.obj
 0002:0000b4f8       ??_C@_0BF@OKPANPLK@GOST?5R?534?410?92001?5DH?$AA@ 000714f8     libeay32:obj_dat.obj
 0002:0000b510       ??_C@_0BE@OBKEJCJB@id?9GostR3410?92001DH?$AA@ 00071510     libeay32:obj_dat.obj
 0002:0000b524       ??_C@_0BE@FFELJBNB@GOST?5R?534?411?994?5PRF?$AA@ 00071524     libeay32:obj_dat.obj
 0002:0000b538       ??_C@_0BB@LJIINAAP@prf?9gostr3411?994?$AA@ 00071538     libeay32:obj_dat.obj
 0002:0000b54c       ??_C@_0BC@BPAGAEJB@GOST?528147?989?5MAC?$AA@ 0007154c     libeay32:obj_dat.obj
 0002:0000b560       ??_C@_08JCNEGNFC@gost?9mac?$AA@ 00071560     libeay32:obj_dat.obj
 0002:0000b56c       ??_C@_0L@INGOKGPP@gost89?9cnt?$AA@ 0007156c     libeay32:obj_dat.obj
 0002:0000b578       ??_C@_0O@POKHNLDL@GOST?528147?989?$AA@ 00071578     libeay32:obj_dat.obj
 0002:0000b588       ??_C@_06KLPDHLCD@gost89?$AA@ 00071588     libeay32:obj_dat.obj
 0002:0000b590       ??_C@_0BA@JOCBNIHN@GOST?5R?534?410?994?$AA@ 00071590     libeay32:obj_dat.obj
 0002:0000b5a0       ??_C@_06BPJPGPFJ@gost94?$AA@ 000715a0     libeay32:obj_dat.obj
 0002:0000b5a8       ??_C@_0BC@IBNIHBI@GOST?5R?534?410?92001?$AA@ 000715a8     libeay32:obj_dat.obj
 0002:0000b5bc       ??_C@_08KMPAMBCP@gost2001?$AA@ 000715bc     libeay32:obj_dat.obj
 0002:0000b5c8       ??_C@_0BD@BHKLGKNG@HMAC?5GOST?534?411?994?$AA@ 000715c8     libeay32:obj_dat.obj
 0002:0000b5dc       ??_C@_0BE@EBBOKDGI@id?9HMACGostR3411?994?$AA@ 000715dc     libeay32:obj_dat.obj
 0002:0000b5f0       ??_C@_0BA@KDEBPBMN@GOST?5R?534?411?994?$AA@ 000715f0     libeay32:obj_dat.obj
 0002:0000b600       ??_C@_09MIOJGGFD@md_gost94?$AA@ 00071600     libeay32:obj_dat.obj
 0002:0000b60c       ??_C@_0CF@PAGBHGOC@GOST?5R?534?411?994?5with?5GOST?5R?534?41@ 0007160c     libeay32:obj_dat.obj
 0002:0000b634       ??_C@_0CC@LCAPGDKC@id?9GostR3411?994?9with?9GostR3410?99@ 00071634     libeay32:obj_dat.obj
 0002:0000b658       ??_C@_0CH@MPKKPBGC@GOST?5R?534?411?994?5with?5GOST?5R?534?41@ 00071658     libeay32:obj_dat.obj
 0002:0000b680       ??_C@_0CE@FCAOBIOC@id?9GostR3411?994?9with?9GostR3410?92@ 00071680     libeay32:obj_dat.obj
 0002:0000b6a4       ??_C@_09JGBNPHGI@cryptocom?$AA@ 000716a4     libeay32:obj_dat.obj
 0002:0000b6b0       ??_C@_09PCHJFNLI@cryptopro?$AA@ 000716b0     libeay32:obj_dat.obj
 0002:0000b6bc       ??_C@_09DEGKDAEL@whirlpool?$AA@ 000716bc     libeay32:obj_dat.obj
 0002:0000b6c8       ??_C@_0BA@FMFCOCGA@dsa_with_SHA256?$AA@ 000716c8     libeay32:obj_dat.obj
 0002:0000b6d8       ??_C@_0BA@GLCLJGGH@dsa_with_SHA224?$AA@ 000716d8     libeay32:obj_dat.obj
 0002:0000b6e8       ??_C@_0P@FLKKCAHA@hmacWithSHA512?$AA@ 000716e8     libeay32:obj_dat.obj
 0002:0000b6f8       ??_C@_0P@CHEKODKF@hmacWithSHA384?$AA@ 000716f8     libeay32:obj_dat.obj
 0002:0000b708       ??_C@_0P@KFBIHFBB@hmacWithSHA256?$AA@ 00071708     libeay32:obj_dat.obj
 0002:0000b718       ??_C@_0P@JCGBABBG@hmacWithSHA224?$AA@ 00071718     libeay32:obj_dat.obj
 0002:0000b728       ??_C@_0M@KOBPMNIO@hmacWithMD5?$AA@ 00071728     libeay32:obj_dat.obj
 0002:0000b734       ??_C@_0BC@DONDMJAG@ecdsa?9with?9SHA512?$AA@ 00071734     libeay32:obj_dat.obj
 0002:0000b748       ??_C@_0BC@ECDDAKND@ecdsa?9with?9SHA384?$AA@ 00071748     libeay32:obj_dat.obj
 0002:0000b75c       ??_C@_0BC@MAGBJMGH@ecdsa?9with?9SHA256?$AA@ 0007175c     libeay32:obj_dat.obj
 0002:0000b770       ??_C@_0BC@PHBIOIGA@ecdsa?9with?9SHA224?$AA@ 00071770     libeay32:obj_dat.obj
 0002:0000b784       ??_C@_0BF@INFCLNHO@ecdsa?9with?9Specified?$AA@ 00071784     libeay32:obj_dat.obj
 0002:0000b79c       ??_C@_0BH@GCJALNKM@ecdsa?9with?9Recommended?$AA@ 0007179c     libeay32:obj_dat.obj
 0002:0000b7b4       ??_C@_0P@KDMMBOEP@id?9aes256?9wrap?$AA@ 000717b4     libeay32:obj_dat.obj
 0002:0000b7c4       ??_C@_0P@DJKBBDNG@id?9aes192?9wrap?$AA@ 000717c4     libeay32:obj_dat.obj
 0002:0000b7d4       ??_C@_0P@MALLFAMO@id?9aes128?9wrap?$AA@ 000717d4     libeay32:obj_dat.obj
 0002:0000b7e4       ??_C@_0BI@FNBGJEPL@id?9ct?9asciiTextWithCRLF?$AA@ 000717e4     libeay32:obj_dat.obj
 0002:0000b7fc       ??_C@_0BL@HEJKLKLL@id?9smime?9ct?9compressedData?$AA@ 000717fc     libeay32:obj_dat.obj
 0002:0000b818       ??_C@_0O@LBCGFGCI@CA?5Repository?$AA@ 00071818     libeay32:obj_dat.obj
 0002:0000b828       ??_C@_0N@CKNFLOGG@caRepository?$AA@ 00071828     libeay32:obj_dat.obj
 0002:0000b838       ??_C@_0BD@MGCOMIO@id?9it?9suppLangTags?$AA@ 00071838     libeay32:obj_dat.obj
 0002:0000b84c       ??_C@_0BJ@CDGIGDFG@Diffie?9Hellman?5based?5MAC?$AA@ 0007184c     libeay32:obj_dat.obj
 0002:0000b868       ??_C@_0O@MEHCKGFD@id?9DHBasedMac?$AA@ 00071868     libeay32:obj_dat.obj
 0002:0000b878       ??_C@_0BD@FANJCJAP@password?5based?5MAC?$AA@ 00071878     libeay32:obj_dat.obj
 0002:0000b88c       ??_C@_0BE@HCNFOMHA@id?9PasswordBasedMAC?$AA@ 0007188c     libeay32:obj_dat.obj
 0002:0000b8a0       ??_C@_09KBOMLGBN@hmac?9sha1?$AA@ 000718a0     libeay32:obj_dat.obj
 0002:0000b8ac       ??_C@_09DDFKKHO@HMAC?9SHA1?$AA@ 000718ac     libeay32:obj_dat.obj
 0002:0000b8b8       ??_C@_08LPACCAD@hmac?9md5?$AA@ 000718b8     libeay32:obj_dat.obj
 0002:0000b8c4       ??_C@_08CABJBHIC@HMAC?9MD5?$AA@ 000718c4     libeay32:obj_dat.obj
 0002:0000b8d0       ??_C@_08JGLJJHP@seed?9cfb?$AA@ 000718d0     libeay32:obj_dat.obj
 0002:0000b8dc       ??_C@_08LHAGIIFM@SEED?9CFB?$AA@ 000718dc     libeay32:obj_dat.obj
 0002:0000b8e8       ??_C@_08EDLNCGMH@seed?9ofb?$AA@ 000718e8     libeay32:obj_dat.obj
 0002:0000b8f4       ??_C@_08PNNADHOE@SEED?9OFB?$AA@ 000718f4     libeay32:obj_dat.obj
 0002:0000b900       ??_C@_08BHHJAAOC@seed?9cbc?$AA@ 00071900     libeay32:obj_dat.obj
 0002:0000b90c       ??_C@_08KJBEBBMB@SEED?9CBC?$AA@ 0007190c     libeay32:obj_dat.obj
 0002:0000b918       ??_C@_08CKMLAEEI@seed?9ecb?$AA@ 00071918     libeay32:obj_dat.obj
 0002:0000b924       ??_C@_08JEKGBFGL@SEED?9ECB?$AA@ 00071924     libeay32:obj_dat.obj
 0002:0000b930       ??_C@_04LLEAHKNI@kisa?$AA@ 00071930     libeay32:obj_dat.obj
 0002:0000b938       ??_C@_04HHHKJIKA@KISA?$AA@ 00071938     libeay32:obj_dat.obj
 0002:0000b940       ??_C@_0BK@EMNEMCDI@X509v3?5Certificate?5Issuer?$AA@ 00071940     libeay32:obj_dat.obj
 0002:0000b95c       ??_C@_0BC@NAJGKAHO@certificateIssuer?$AA@ 0007195c     libeay32:obj_dat.obj
 0002:0000b970       ??_C@_0CC@MMIACGNM@X509v3?5Issuing?5Distrubution?5Poin@ 00071970     libeay32:obj_dat.obj
 0002:0000b994       ??_C@_0BJ@OAOPOBMH@issuingDistributionPoint?$AA@ 00071994     libeay32:obj_dat.obj
 0002:0000b9b0       ??_C@_0CE@OGGDDHCK@X509v3?5Subject?5Directory?5Attribu@ 000719b0     libeay32:obj_dat.obj
 0002:0000b9d4       ??_C@_0BL@GAJEKNCJ@subjectDirectoryAttributes?$AA@ 000719d4     libeay32:obj_dat.obj
 0002:0000b9f0       ??_C@_0BB@EGAOKAEM@camellia?9256?9ofb?$AA@ 000719f0     libeay32:obj_dat.obj
 0002:0000ba04       ??_C@_0BB@FFEGHOPL@CAMELLIA?9256?9OFB?$AA@ 00071a04     libeay32:obj_dat.obj
 0002:0000ba18       ??_C@_0BB@JELAIPMN@camellia?9192?9ofb?$AA@ 00071a18     libeay32:obj_dat.obj
 0002:0000ba2c       ??_C@_0BB@IHPIFBHK@CAMELLIA?9192?9OFB?$AA@ 00071a2c     libeay32:obj_dat.obj
 0002:0000ba40       ??_C@_0BB@DHCMPIFB@camellia?9128?9ofb?$AA@ 00071a40     libeay32:obj_dat.obj
 0002:0000ba54       ??_C@_0BB@CEGECGOG@CAMELLIA?9128?9OFB?$AA@ 00071a54     libeay32:obj_dat.obj
 0002:0000ba68       ??_C@_0BC@KNEDFCOB@camellia?9256?9cfb8?$AA@ 00071a68     libeay32:obj_dat.obj
 0002:0000ba7c       ??_C@_0BC@PIFFDMBA@CAMELLIA?9256?9CFB8?$AA@ 00071a7c     libeay32:obj_dat.obj
 0002:0000ba90       ??_C@_0BC@DHCOFPHI@camellia?9192?9cfb8?$AA@ 00071a90     libeay32:obj_dat.obj
 0002:0000baa4       ??_C@_0BC@GCDIDBIJ@CAMELLIA?9192?9CFB8?$AA@ 00071aa4     libeay32:obj_dat.obj
 0002:0000bab8       ??_C@_0BC@MODEBMGA@camellia?9128?9cfb8?$AA@ 00071ab8     libeay32:obj_dat.obj
 0002:0000bacc       ??_C@_0BC@JLCCHCJB@CAMELLIA?9128?9CFB8?$AA@ 00071acc     libeay32:obj_dat.obj
 0002:0000bae0       ??_C@_0BC@HMIBOJKI@camellia?9256?9cfb1?$AA@ 00071ae0     libeay32:obj_dat.obj
 0002:0000baf4       ??_C@_0BC@CJJHIHFJ@CAMELLIA?9256?9CFB1?$AA@ 00071af4     libeay32:obj_dat.obj
 0002:0000bb08       ??_C@_0BC@OGOMOEDB@camellia?9192?9cfb1?$AA@ 00071b08     libeay32:obj_dat.obj
 0002:0000bb1c       ??_C@_0BC@LDPKIKMA@CAMELLIA?9192?9CFB1?$AA@ 00071b1c     libeay32:obj_dat.obj
 0002:0000bb30       ??_C@_0BC@BPPGKHCJ@camellia?9128?9cfb1?$AA@ 00071b30     libeay32:obj_dat.obj
 0002:0000bb44       ??_C@_0BC@EKOAMJNI@CAMELLIA?9128?9CFB1?$AA@ 00071b44     libeay32:obj_dat.obj
 0002:0000bb58       ??_C@_0BB@MNIBPPE@camellia?9256?9cfb?$AA@ 00071b58     libeay32:obj_dat.obj
 0002:0000bb6c       ??_C@_0BB@BPJAMBED@CAMELLIA?9256?9CFB?$AA@ 00071b6c     libeay32:obj_dat.obj
 0002:0000bb80       ??_C@_0BB@NOGGDAHF@camellia?9192?9cfb?$AA@ 00071b80     libeay32:obj_dat.obj
 0002:0000bb94       ??_C@_0BB@MNCOOOMC@CAMELLIA?9192?9CFB?$AA@ 00071b94     libeay32:obj_dat.obj
 0002:0000bba8       ??_C@_0BB@HNPKEHOJ@camellia?9128?9cfb?$AA@ 00071ba8     libeay32:obj_dat.obj
 0002:0000bbbc       ??_C@_0BB@GOLCJJFO@CAMELLIA?9128?9CFB?$AA@ 00071bbc     libeay32:obj_dat.obj
 0002:0000bbd0       ??_C@_0BB@CPHIICMD@camellia?9256?9ecb?$AA@ 00071bd0     libeay32:obj_dat.obj
 0002:0000bbe4       ??_C@_0BB@DMDAFMHE@CAMELLIA?9256?9ECB?$AA@ 00071be4     libeay32:obj_dat.obj
 0002:0000bbf8       ??_C@_0BB@PNMGKNEC@camellia?9192?9ecb?$AA@ 00071bf8     libeay32:obj_dat.obj
 0002:0000bc0c       ??_C@_0BB@OOIOHDPF@CAMELLIA?9192?9ECB?$AA@ 00071c0c     libeay32:obj_dat.obj
 0002:0000bc20       ??_C@_0BB@FOFKNKNO@camellia?9128?9ecb?$AA@ 00071c20     libeay32:obj_dat.obj
 0002:0000bc34       ??_C@_0BB@ENBCAEGJ@CAMELLIA?9128?9ECB?$AA@ 00071c34     libeay32:obj_dat.obj
 0002:0000bc48       ??_C@_0BB@BCMKIGGJ@camellia?9256?9cbc?$AA@ 00071c48     libeay32:obj_dat.obj
 0002:0000bc5c       ??_C@_0BB@BICFINO@CAMELLIA?9256?9CBC?$AA@ 00071c5c     libeay32:obj_dat.obj
 0002:0000bc70       ??_C@_0BB@MAHEKJOI@camellia?9192?9cbc?$AA@ 00071c70     libeay32:obj_dat.obj
 0002:0000bc84       ??_C@_0BB@NDDMHHFP@CAMELLIA?9192?9CBC?$AA@ 00071c84     libeay32:obj_dat.obj
 0002:0000bc98       ??_C@_0BB@GDOINOHE@camellia?9128?9cbc?$AA@ 00071c98     libeay32:obj_dat.obj
 0002:0000bcac       ??_C@_0BB@HAKAAAMD@CAMELLIA?9128?9CBC?$AA@ 00071cac     libeay32:obj_dat.obj
 0002:0000bcc0       ??_C@_06DEKODPNG@ipsec4?$AA@ 00071cc0     libeay32:obj_dat.obj
 0002:0000bcc8       ??_C@_0O@FENFAHJA@Oakley?9EC2N?94?$AA@ 00071cc8     libeay32:obj_dat.obj
 0002:0000bcd8       ??_C@_06HLOPKJBB@ipsec3?$AA@ 00071cd8     libeay32:obj_dat.obj
 0002:0000bce0       ??_C@_0O@BLJEJBFH@Oakley?9EC2N?93?$AA@ 00071ce0     libeay32:obj_dat.obj
 0002:0000bcf0       ??_C@_0BK@FPAAFIAO@X509v3?5Inhibit?5Any?5Policy?$AA@ 00071cf0     libeay32:obj_dat.obj
 0002:0000bd0c       ??_C@_0BB@CFCCDKGF@inhibitAnyPolicy?$AA@ 00071d0c     libeay32:obj_dat.obj
 0002:0000bd20       ??_C@_0BH@NJBPACCN@X509v3?5Policy?5Mappings?$AA@ 00071d20     libeay32:obj_dat.obj
 0002:0000bd38       ??_C@_0P@MEGGINDP@policyMappings?$AA@ 00071d38     libeay32:obj_dat.obj
 0002:0000bd48       ??_C@_0BC@CEEMIAHF@X509v3?5Any?5Policy?$AA@ 00071d48     libeay32:obj_dat.obj
 0002:0000bd5c       ??_C@_09HBBJOJHB@anyPolicy?$AA@ 00071d5c     libeay32:obj_dat.obj
 0002:0000bd68       ??_C@_0BI@MNOLKEAO@wap?9wsg?9idm?9ecid?9wtls12?$AA@ 00071d68     libeay32:obj_dat.obj
 0002:0000bd80       ??_C@_0BI@OGMGPHMN@wap?9wsg?9idm?9ecid?9wtls11?$AA@ 00071d80     libeay32:obj_dat.obj
 0002:0000bd98       ??_C@_0BI@PPNNMGIM@wap?9wsg?9idm?9ecid?9wtls10?$AA@ 00071d98     libeay32:obj_dat.obj
 0002:0000bdb0       ??_C@_0BH@DMKMEGHN@wap?9wsg?9idm?9ecid?9wtls9?$AA@ 00071db0     libeay32:obj_dat.obj
 0002:0000bdc8       ??_C@_0BH@CFLHHHDM@wap?9wsg?9idm?9ecid?9wtls8?$AA@ 00071dc8     libeay32:obj_dat.obj
 0002:0000bde0       ??_C@_0BH@KCCPGLPD@wap?9wsg?9idm?9ecid?9wtls7?$AA@ 00071de0     libeay32:obj_dat.obj
 0002:0000bdf8       ??_C@_0BH@LLDEFKLC@wap?9wsg?9idm?9ecid?9wtls6?$AA@ 00071df8     libeay32:obj_dat.obj
 0002:0000be10       ??_C@_0BH@JABJAJHB@wap?9wsg?9idm?9ecid?9wtls5?$AA@ 00071e10     libeay32:obj_dat.obj
 0002:0000be28       ??_C@_0BH@IJACDIDA@wap?9wsg?9idm?9ecid?9wtls4?$AA@ 00071e28     libeay32:obj_dat.obj
 0002:0000be40       ??_C@_0BH@MGEDKOPH@wap?9wsg?9idm?9ecid?9wtls3?$AA@ 00071e40     libeay32:obj_dat.obj
 0002:0000be58       ??_C@_0BH@PEHFMMHF@wap?9wsg?9idm?9ecid?9wtls1?$AA@ 00071e58     libeay32:obj_dat.obj
 0002:0000be70       ??_C@_09MPLFOIFJ@sect571r1?$AA@ 00071e70     libeay32:obj_dat.obj
 0002:0000be7c       ??_C@_09NMECHAKG@sect571k1?$AA@ 00071e7c     libeay32:obj_dat.obj
 0002:0000be88       ??_C@_09HDHNMPAD@sect409r1?$AA@ 00071e88     libeay32:obj_dat.obj
 0002:0000be94       ??_C@_09GAIKFHPM@sect409k1?$AA@ 00071e94     libeay32:obj_dat.obj
 0002:0000bea0       ??_C@_09PKOJIHLL@sect283r1?$AA@ 00071ea0     libeay32:obj_dat.obj
 0002:0000beac       ??_C@_09OJBOBPEE@sect283k1?$AA@ 00071eac     libeay32:obj_dat.obj
 0002:0000beb8       ??_C@_09PBHDMODB@sect239k1?$AA@ 00071eb8     libeay32:obj_dat.obj
 0002:0000bec4       ??_C@_09INDJLGKK@sect233r1?$AA@ 00071ec4     libeay32:obj_dat.obj
 0002:0000bed0       ??_C@_09JOMOCOFF@sect233k1?$AA@ 00071ed0     libeay32:obj_dat.obj
 0002:0000bedc       ??_C@_09GKDAIPGG@sect193r2?$AA@ 00071edc     libeay32:obj_dat.obj
 0002:0000bee8       ??_C@_09EBBNNMKF@sect193r1?$AA@ 00071ee8     libeay32:obj_dat.obj
 0002:0000bef4       ??_C@_09OIGABILH@sect163r2?$AA@ 00071ef4     libeay32:obj_dat.obj
 0002:0000bf00       ??_C@_09MDENELHE@sect163r1?$AA@ 00071f00     libeay32:obj_dat.obj
 0002:0000bf0c       ??_C@_09NALKNDIL@sect163k1?$AA@ 00071f0c     libeay32:obj_dat.obj
 0002:0000bf18       ??_C@_09IKIJFPEM@sect131r2?$AA@ 00071f18     libeay32:obj_dat.obj
 0002:0000bf24       ??_C@_09KBKEAMIP@sect131r1?$AA@ 00071f24     libeay32:obj_dat.obj
 0002:0000bf30       ??_C@_09FKEAMEKH@sect113r2?$AA@ 00071f30     libeay32:obj_dat.obj
 0002:0000bf3c       ??_C@_09HBGNJHGE@sect113r1?$AA@ 00071f3c     libeay32:obj_dat.obj
 0002:0000bf48       ??_C@_09PDBKEDDK@secp521r1?$AA@ 00071f48     libeay32:obj_dat.obj
 0002:0000bf54       ??_C@_09FICNEILE@secp384r1?$AA@ 00071f54     libeay32:obj_dat.obj
 0002:0000bf60       ??_C@_09NCBPAPNE@secp256k1?$AA@ 00071f60     libeay32:obj_dat.obj
 0002:0000bf6c       ??_C@_09NJMBIDLA@secp224r1?$AA@ 00071f6c     libeay32:obj_dat.obj
 0002:0000bf78       ??_C@_09MKDGBLEP@secp224k1?$AA@ 00071f78     libeay32:obj_dat.obj
 0002:0000bf84       ??_C@_09BOBJAHCM@secp192k1?$AA@ 00071f84     libeay32:obj_dat.obj
 0002:0000bf90       ??_C@_09OJKJDEK@secp160r2?$AA@ 00071f90     libeay32:obj_dat.obj
 0002:0000bf9c       ??_C@_09CFLHMAIJ@secp160r1?$AA@ 00071f9c     libeay32:obj_dat.obj
 0002:0000bfa8       ??_C@_09DGEAFIHG@secp160k1?$AA@ 00071fa8     libeay32:obj_dat.obj
 0002:0000bfb4       ??_C@_09DOKOBNGF@secp128r2?$AA@ 00071fb4     libeay32:obj_dat.obj
 0002:0000bfc0       ??_C@_09BFIDEOKG@secp128r1?$AA@ 00071fc0     libeay32:obj_dat.obj
 0002:0000bfcc       ??_C@_09BGLDIHNB@secp112r2?$AA@ 00071fcc     libeay32:obj_dat.obj
 0002:0000bfd8       ??_C@_09DNJONEBC@secp112r1?$AA@ 00071fd8     libeay32:obj_dat.obj
 0002:0000bfe4       ??_C@_0L@OFJKDCBG@c2tnb431r1?$AA@ 00071fe4     libeay32:obj_dat.obj
 0002:0000bff0       ??_C@_0L@BGFAFBLD@c2pnb368w1?$AA@ 00071ff0     libeay32:obj_dat.obj
 0002:0000bffc       ??_C@_0L@LFGCHHDN@c2tnb359v1?$AA@ 00071ffc     libeay32:obj_dat.obj
 0002:0000c008       ??_C@_0L@NDMGBLKL@c2pnb304w1?$AA@ 00072008     libeay32:obj_dat.obj
 0002:0000c014       ??_C@_0L@IPNBELMC@c2pnb272w1?$AA@ 00072014     libeay32:obj_dat.obj
 0002:0000c020       ??_C@_0L@LLIHEIJA@c2onb239v5?$AA@ 00072020     libeay32:obj_dat.obj
 0002:0000c02c       ??_C@_0L@KCJMHJNB@c2onb239v4?$AA@ 0007202c     libeay32:obj_dat.obj
 0002:0000c038       ??_C@_0L@MDEIDDLK@c2tnb239v3?$AA@ 00072038     libeay32:obj_dat.obj
 0002:0000c044       ??_C@_0L@NKFDACPL@c2tnb239v2?$AA@ 00072044     libeay32:obj_dat.obj
 0002:0000c050       ??_C@_0L@PBHOFBDI@c2tnb239v1?$AA@ 00072050     libeay32:obj_dat.obj
 0002:0000c05c       ??_C@_0L@FCEMHHLG@c2pnb208w1?$AA@ 0007205c     libeay32:obj_dat.obj
 0002:0000c068       ??_C@_0L@LCBHAKHA@c2onb191v5?$AA@ 00072068     libeay32:obj_dat.obj
 0002:0000c074       ??_C@_0L@KLAMDLDB@c2onb191v4?$AA@ 00072074     libeay32:obj_dat.obj
 0002:0000c080       ??_C@_0L@MKNIHBFK@c2tnb191v3?$AA@ 00072080     libeay32:obj_dat.obj
 0002:0000c08c       ??_C@_0L@NDMDEABL@c2tnb191v2?$AA@ 0007208c     libeay32:obj_dat.obj
 0002:0000c098       ??_C@_0L@PIOOBDNI@c2tnb191v1?$AA@ 00072098     libeay32:obj_dat.obj
 0002:0000c0a4       ??_C@_0L@IHOFMEAM@c2pnb176v1?$AA@ 000720a4     libeay32:obj_dat.obj
 0002:0000c0b0       ??_C@_0L@LPGNHPAM@c2pnb163v3?$AA@ 000720b0     libeay32:obj_dat.obj
 0002:0000c0bc       ??_C@_0L@KGHGEOEN@c2pnb163v2?$AA@ 000720bc     libeay32:obj_dat.obj
 0002:0000c0c8       ??_C@_0L@INFLBNIO@c2pnb163v1?$AA@ 000720c8     libeay32:obj_dat.obj
 0002:0000c0d4       ??_C@_07GLJEBFP@ppBasis?$AA@ 000720d4     libeay32:obj_dat.obj
 0002:0000c0dc       ??_C@_07ICPDEPKF@tpBasis?$AA@ 000720dc     libeay32:obj_dat.obj
 0002:0000c0e4       ??_C@_07JEMDIFEL@onBasis?$AA@ 000720e4     libeay32:obj_dat.obj
 0002:0000c0ec       ??_C@_0BM@PPOCDOAJ@id?9characteristic?9two?9basis?$AA@ 000720ec     libeay32:obj_dat.obj
 0002:0000c108       ??_C@_07KJBJKKHG@wap?9wsg?$AA@ 00072108     libeay32:obj_dat.obj
 0002:0000c110       ??_C@_03EOHJGACH@wap?$AA@  00072110     libeay32:obj_dat.obj
 0002:0000c114       ??_C@_0N@GOPBJFID@certicom?9arc?$AA@ 00072114     libeay32:obj_dat.obj
 0002:0000c124       ??_C@_0BI@NDBFOMIA@identified?9organization?$AA@ 00072124     libeay32:obj_dat.obj
 0002:0000c13c       ??_C@_06DJABMLNO@sha224?$AA@ 0007213c     libeay32:obj_dat.obj
 0002:0000c144       ??_C@_06DANBNIHA@SHA224?$AA@ 00072144     libeay32:obj_dat.obj
 0002:0000c14c       ??_C@_06PAMKOKLI@sha512?$AA@ 0007214c     libeay32:obj_dat.obj
 0002:0000c154       ??_C@_06PJBKPJBG@SHA512?$AA@ 00072154     libeay32:obj_dat.obj
 0002:0000c15c       ??_C@_06IMCKCJGN@sha384?$AA@ 0007215c     libeay32:obj_dat.obj
 0002:0000c164       ??_C@_06IFPKDKMD@SHA384?$AA@ 00072164     libeay32:obj_dat.obj
 0002:0000c16c       ??_C@_06OHILPNJ@sha256?$AA@ 0007216c     libeay32:obj_dat.obj
 0002:0000c174       ??_C@_06HKIKMHH@SHA256?$AA@ 00072174     libeay32:obj_dat.obj
 0002:0000c17c       ??_C@_0BI@HODNLFBE@sha224WithRSAEncryption?$AA@ 0007217c     libeay32:obj_dat.obj
 0002:0000c194       ??_C@_0L@BPFBIPIP@RSA?9SHA224?$AA@ 00072194     libeay32:obj_dat.obj
 0002:0000c1a0       ??_C@_0BI@CFKPHFJF@sha512WithRSAEncryption?$AA@ 000721a0     libeay32:obj_dat.obj
 0002:0000c1b8       ??_C@_0L@NGJKKOOJ@RSA?9SHA512?$AA@ 000721b8     libeay32:obj_dat.obj
 0002:0000c1c4       ??_C@_0BI@LGPCJGLE@sha384WithRSAEncryption?$AA@ 000721c4     libeay32:obj_dat.obj
 0002:0000c1dc       ??_C@_0L@KKHKGNDM@RSA?9SHA384?$AA@ 000721dc     libeay32:obj_dat.obj
 0002:0000c1e8       ??_C@_0BI@OLMNBFHG@sha256WithRSAEncryption?$AA@ 000721e8     libeay32:obj_dat.obj
 0002:0000c200       ??_C@_0L@CICIPLII@RSA?9SHA256?$AA@ 00072200     libeay32:obj_dat.obj
 0002:0000c20c       ??_C@_0M@MLMKHJLC@Independent?$AA@ 0007220c     libeay32:obj_dat.obj
 0002:0000c218       ??_C@_0BD@JMNHHICP@id?9ppl?9independent?$AA@ 00072218     libeay32:obj_dat.obj
 0002:0000c22c       ??_C@_0BI@MLJLAGL@X509v3?5Name?5Constraints?$AA@ 0007222c     libeay32:obj_dat.obj
 0002:0000c244       ??_C@_0BA@NDBMPGLN@nameConstraints?$AA@ 00072244     libeay32:obj_dat.obj
 0002:0000c254       ??_C@_0M@FFLAPACB@Inherit?5all?$AA@ 00072254     libeay32:obj_dat.obj
 0002:0000c260       ??_C@_0BC@PCEJIIF@id?9ppl?9inheritAll?$AA@ 00072260     libeay32:obj_dat.obj
 0002:0000c274       ??_C@_0N@BEBFEGLC@Any?5language?$AA@ 00072274     libeay32:obj_dat.obj
 0002:0000c284       ??_C@_0BD@HNCKDFAM@id?9ppl?9anyLanguage?$AA@ 00072284     libeay32:obj_dat.obj
 0002:0000c298       ??_C@_0BO@CCHFGBDO@Proxy?5Certificate?5Information?$AA@ 00072298     libeay32:obj_dat.obj
 0002:0000c2b8       ??_C@_0O@LOINHHBF@proxyCertInfo?$AA@ 000722b8     libeay32:obj_dat.obj
 0002:0000c2c8       ??_C@_06CAAPGDCJ@id?9ppl?$AA@ 000722c8     libeay32:obj_dat.obj
 0002:0000c2d0       ??_C@_0L@NCDHJCMF@postalCode?$AA@ 000722d0     libeay32:obj_dat.obj
 0002:0000c2dc       ??_C@_0O@GFJANBCD@streetAddress?$AA@ 000722dc     libeay32:obj_dat.obj
 0002:0000c2ec       ??_C@_06KFAFKEEH@street?$AA@ 000722ec     libeay32:obj_dat.obj
 0002:0000c2f4       ??_C@_0O@KGNFGAAA@des?9ede3?9cfb8?$AA@ 000722f4     libeay32:obj_dat.obj
 0002:0000c304       ??_C@_0O@KNJKKNCK@DES?9EDE3?9CFB8?$AA@ 00072304     libeay32:obj_dat.obj
 0002:0000c314       ??_C@_0O@HHBHNLEJ@des?9ede3?9cfb1?$AA@ 00072314     libeay32:obj_dat.obj
 0002:0000c324       ??_C@_0O@HMFIBGGD@DES?9EDE3?9CFB1?$AA@ 00072324     libeay32:obj_dat.obj
 0002:0000c334       ??_C@_08HKNDEPIP@des?9cfb8?$AA@ 00072334     libeay32:obj_dat.obj
 0002:0000c340       ??_C@_08JHFHFADM@DES?9CFB8?$AA@ 00072340     libeay32:obj_dat.obj
 0002:0000c34c       ??_C@_08KLBBPEMG@des?9cfb1?$AA@ 0007234c     libeay32:obj_dat.obj
 0002:0000c358       ??_C@_08EGJFOLHF@DES?9CFB1?$AA@ 00072358     libeay32:obj_dat.obj
 0002:0000c364       ??_C@_0N@GPAECIBG@aes?9256?9cfb8?$AA@ 00072364     libeay32:obj_dat.obj
 0002:0000c374       ??_C@_0N@BLGJPBBG@AES?9256?9CFB8?$AA@ 00072374     libeay32:obj_dat.obj
 0002:0000c384       ??_C@_0N@PFGJCFIP@aes?9192?9cfb8?$AA@ 00072384     libeay32:obj_dat.obj
 0002:0000c394       ??_C@_0N@IBAEPMIP@AES?9192?9CFB8?$AA@ 00072394     libeay32:obj_dat.obj
 0002:0000c3a4       ??_C@_0N@MHDGGJH@aes?9128?9cfb8?$AA@ 000723a4     libeay32:obj_dat.obj
 0002:0000c3b4       ??_C@_0N@HIBOLPJH@AES?9128?9CFB8?$AA@ 000723b4     libeay32:obj_dat.obj
 0002:0000c3c4       ??_C@_0N@LOMGJDFP@aes?9256?9cfb1?$AA@ 000723c4     libeay32:obj_dat.obj
 0002:0000c3d4       ??_C@_0N@MKKLEKFP@AES?9256?9CFB1?$AA@ 000723d4     libeay32:obj_dat.obj
 0002:0000c3e4       ??_C@_0N@CEKLJOMG@aes?9192?9cfb1?$AA@ 000723e4     libeay32:obj_dat.obj
 0002:0000c3f4       ??_C@_0N@FAMGEHMG@AES?9192?9CFB1?$AA@ 000723f4     libeay32:obj_dat.obj
 0002:0000c404       ??_C@_0N@NNLBNNNO@aes?9128?9cfb1?$AA@ 00072404     libeay32:obj_dat.obj
 0002:0000c414       ??_C@_0N@KJNMAENO@AES?9128?9CFB1?$AA@ 00072414     libeay32:obj_dat.obj
 0002:0000c424       ??_C@_0CD@POJHJMFG@Microsoft?5Universal?5Principal?5Na@ 00072424     libeay32:obj_dat.obj
 0002:0000c448       ??_C@_05LKLAGLGM@msUPN?$AA@ 00072448     libeay32:obj_dat.obj
 0002:0000c450       ??_C@_0BJ@BHLLFCI@Microsoft?5Smartcardlogin?$AA@ 00072450     libeay32:obj_dat.obj
 0002:0000c46c       ??_C@_0BB@MJPMDGHF@msSmartcardLogin?$AA@ 0007246c     libeay32:obj_dat.obj
 0002:0000c480       ??_C@_0BM@PGMBEIHL@International?5Organizations?$AA@ 00072480     libeay32:obj_dat.obj
 0002:0000c49c       ??_C@_0BM@PBBEOBAP@international?9organizations?$AA@ 0007249c     libeay32:obj_dat.obj
 0002:0000c4b8       ??_C@_0BA@DDCJMADA@joint?9iso?9itu?9t?$AA@ 000724b8     libeay32:obj_dat.obj
 0002:0000c4c8       ??_C@_0BA@NPJCPIN@JOINT?9ISO?9ITU?9T?$AA@ 000724c8     libeay32:obj_dat.obj
 0002:0000c4d8       ??_C@_05EKLDHPCO@itu?9t?$AA@ 000724d8     libeay32:obj_dat.obj
 0002:0000c4e0       ??_C@_05LJGINOIA@ITU?9T?$AA@ 000724e0     libeay32:obj_dat.obj
 0002:0000c4e8       ??_C@_0BF@EIIDBKMM@rsaOAEPEncryptionSET?$AA@ 000724e8     libeay32:obj_dat.obj
 0002:0000c500       ??_C@_08PPLOLAOD@des?9cdmf?$AA@ 00072500     libeay32:obj_dat.obj
 0002:0000c50c       ??_C@_08IHLOILPC@DES?9CDMF?$AA@ 0007250c     libeay32:obj_dat.obj
 0002:0000c518       ??_C@_0BA@JHOGHBHC@set?9brand?9Novus?$AA@ 00072518     libeay32:obj_dat.obj
 0002:0000c528       ??_C@_0BF@EKCBHCKG@set?9brand?9MasterCard?$AA@ 00072528     libeay32:obj_dat.obj
 0002:0000c540       ??_C@_0P@KADKEMKM@set?9brand?9Visa?$AA@ 00072540     libeay32:obj_dat.obj
 0002:0000c550       ??_C@_0O@ODFDKJIN@set?9brand?9JCB?$AA@ 00072550     libeay32:obj_dat.obj
 0002:0000c560       ??_C@_0BK@NGHCPIFJ@set?9brand?9AmericanExpress?$AA@ 00072560     libeay32:obj_dat.obj
 0002:0000c57c       ??_C@_0BB@MJOMIBOM@set?9brand?9Diners?$AA@ 0007257c     libeay32:obj_dat.obj
 0002:0000c590       ??_C@_0BD@EBDAHFCK@set?9brand?9IATA?9ATA?$AA@ 00072590     libeay32:obj_dat.obj
 0002:0000c5a4       ??_C@_0BI@BMDLNIII@secure?5device?5signature?$AA@ 000725a4     libeay32:obj_dat.obj
 0002:0000c5bc       ??_C@_0BC@HILPEDHB@setAttr?9SecDevSig?$AA@ 000725bc     libeay32:obj_dat.obj
 0002:0000c5d0       ??_C@_0BH@FLMFBHA@ICC?5or?5token?5signature?$AA@ 000725d0     libeay32:obj_dat.obj
 0002:0000c5e8       ??_C@_0BC@KFHJNGAA@setAttr?9TokICCsig?$AA@ 000725e8     libeay32:obj_dat.obj
 0002:0000c5fc       ??_C@_0BC@EEELFHMJ@cleartext?5track?52?$AA@ 000725fc     libeay32:obj_dat.obj
 0002:0000c610       ??_C@_0BD@GDDCOMNC@setAttr?9T2cleartxt?$AA@ 00072610     libeay32:obj_dat.obj
 0002:0000c624       ??_C@_0BC@MCHFBPJF@encrypted?5track?52?$AA@ 00072624     libeay32:obj_dat.obj
 0002:0000c638       ??_C@_0O@GFEDKLID@setAttr?9T2Enc?$AA@ 00072638     libeay32:obj_dat.obj
 0002:0000c648       ??_C@_0BE@BANBLNDJ@generate?5cryptogram?$AA@ 00072648     libeay32:obj_dat.obj
 0002:0000c65c       ??_C@_0BE@FJCINFHM@setAttr?9GenCryptgrm?$AA@ 0007265c     libeay32:obj_dat.obj
 0002:0000c670       ??_C@_0BD@DMNGIJGO@setAttr?9IssCap?9Sig?$AA@ 00072670     libeay32:obj_dat.obj
 0002:0000c684       ??_C@_0BC@FKLLNJMF@setAttr?9IssCap?9T2?$AA@ 00072684     libeay32:obj_dat.obj
 0002:0000c698       ??_C@_0BD@CMJDLAHE@setAttr?9IssCap?9CVM?$AA@ 00072698     libeay32:obj_dat.obj
 0002:0000c6ac       ??_C@_0BG@ICNBHDJ@setAttr?9Token?9B0Prime?$AA@ 000726ac     libeay32:obj_dat.obj
 0002:0000c6c4       ??_C@_0BC@BMANBENP@setAttr?9Token?9EMV?$AA@ 000726c4     libeay32:obj_dat.obj
 0002:0000c6d8       ??_C@_0O@NOCONBCM@set?9addPolicy?$AA@ 000726d8     libeay32:obj_dat.obj
 0002:0000c6e8       ??_C@_0BB@MADMNAKK@set?9rootKeyThumb?$AA@ 000726e8     libeay32:obj_dat.obj
 0002:0000c6fc       ??_C@_0BE@HBDPGKCG@issuer?5capabilities?$AA@ 000726fc     libeay32:obj_dat.obj
 0002:0000c710       ??_C@_0P@OGFLCCKL@setAttr?9IssCap?$AA@ 00072710     libeay32:obj_dat.obj
 0002:0000c720       ??_C@_0BC@IKOKMCIL@setAttr?9TokenType?$AA@ 00072720     libeay32:obj_dat.obj
 0002:0000c734       ??_C@_0BN@HEFBDPEB@payment?5gateway?5capabilities?$AA@ 00072734     libeay32:obj_dat.obj
 0002:0000c754       ??_C@_0BA@FAIFDKDK@setAttr?9PGWYcap?$AA@ 00072754     libeay32:obj_dat.obj
 0002:0000c764       ??_C@_0N@DCNKAAPN@setAttr?9Cert?$AA@ 00072764     libeay32:obj_dat.obj
 0002:0000c774       ??_C@_0BL@OLCLGJDA@setCext?9IssuerCapabilities?$AA@ 00072774     libeay32:obj_dat.obj
 0002:0000c790       ??_C@_0BC@KMFGLCBL@setCext?9TokenType?$AA@ 00072790     libeay32:obj_dat.obj
 0002:0000c7a4       ??_C@_0BD@FHFLAKJD@setCext?9Track2Data?$AA@ 000727a4     libeay32:obj_dat.obj
 0002:0000c7b8       ??_C@_0BI@FIIEHNL@setCext?9TokenIdentifier?$AA@ 000727b8     libeay32:obj_dat.obj
 0002:0000c7d0       ??_C@_0BJ@CNLNHONG@setCext?9PGWYcapabilities?$AA@ 000727d0     libeay32:obj_dat.obj
 0002:0000c7ec       ??_C@_0BB@HIAOOOIO@setCext?9setQualf?$AA@ 000727ec     libeay32:obj_dat.obj
 0002:0000c800       ??_C@_0P@DFHCPLJG@setCext?9setExt?$AA@ 00072800     libeay32:obj_dat.obj
 0002:0000c810       ??_C@_0BC@BPADJLFJ@setCext?9tunneling?$AA@ 00072810     libeay32:obj_dat.obj
 0002:0000c824       ??_C@_0BG@CMNKGOHO@setCext?9cCertRequired?$AA@ 00072824     libeay32:obj_dat.obj
 0002:0000c83c       ??_C@_0BC@ONMLOIHK@setCext?9merchData?$AA@ 0007283c     libeay32:obj_dat.obj
 0002:0000c850       ??_C@_0BB@LHGCHNFD@setCext?9certType?$AA@ 00072850     libeay32:obj_dat.obj
 0002:0000c864       ??_C@_0BD@MELPLACB@setCext?9hashedRoot?$AA@ 00072864     libeay32:obj_dat.obj
 0002:0000c878       ??_C@_0BA@DLJGCPKK@set?9policy?9root?$AA@ 00072878     libeay32:obj_dat.obj
 0002:0000c888       ??_C@_0BI@MFPOFNGC@additional?5verification?$AA@ 00072888     libeay32:obj_dat.obj
 0002:0000c8a0       ??_C@_09GMOEIEJI@setext?9cv?$AA@ 000728a0     libeay32:obj_dat.obj
 0002:0000c8ac       ??_C@_0O@PNAFPHHK@setext?9track2?$AA@ 000728ac     libeay32:obj_dat.obj
 0002:0000c8bc       ??_C@_0O@PNHGIFHA@setext?9pinAny?$AA@ 000728bc     libeay32:obj_dat.obj
 0002:0000c8cc       ??_C@_0BB@IKLFBNP@setext?9pinSecure?$AA@ 000728cc     libeay32:obj_dat.obj
 0002:0000c8e0       ??_C@_0BI@IMGNFPLI@merchant?5initiated?5auth?$AA@ 000728e0     libeay32:obj_dat.obj
 0002:0000c8f8       ??_C@_0O@IFMPKKOL@setext?9miAuth?$AA@ 000728f8     libeay32:obj_dat.obj
 0002:0000c908       ??_C@_0BD@IMJHIOH@generic?5cryptogram?$AA@ 00072908     libeay32:obj_dat.obj
 0002:0000c91c       ??_C@_0BA@NKJJMGPC@setext?9genCrypt?$AA@ 0007291c     libeay32:obj_dat.obj
 0002:0000c92c       ??_C@_0BJ@BPGLEKIJ@setct?9BCIDistributionTBS?$AA@ 0007292c     libeay32:obj_dat.obj
 0002:0000c948       ??_C@_0BM@GINBKIMJ@setct?9CRLNotificationResTBS?$AA@ 00072948     libeay32:obj_dat.obj
 0002:0000c964       ??_C@_0BJ@KMIJGANO@setct?9CRLNotificationTBS?$AA@ 00072964     libeay32:obj_dat.obj
 0002:0000c980       ??_C@_0BB@KEDMFAIN@setct?9CertResTBE?$AA@ 00072980     libeay32:obj_dat.obj
 0002:0000c994       ??_C@_0BC@KMAHLFJK@setct?9CertReqTBEX?$AA@ 00072994     libeay32:obj_dat.obj
 0002:0000c9a8       ??_C@_0BB@NOPMADON@setct?9CertReqTBE?$AA@ 000729a8     libeay32:obj_dat.obj
 0002:0000c9bc       ??_C@_0BE@MIADHNEP@setct?9RegFormReqTBE?$AA@ 000729bc     libeay32:obj_dat.obj
 0002:0000c9d0       ??_C@_0BH@PFFPEIML@setct?9BatchAdminResTBE?$AA@ 000729d0     libeay32:obj_dat.obj
 0002:0000c9e8       ??_C@_0BH@IPJPBLKL@setct?9BatchAdminReqTBE?$AA@ 000729e8     libeay32:obj_dat.obj
 0002:0000ca00       ??_C@_0BE@MGLMPAHD@setct?9CredRevResTBE?$AA@ 00072a00     libeay32:obj_dat.obj
 0002:0000ca14       ??_C@_0BF@PGGAOKCB@setct?9CredRevReqTBEX?$AA@ 00072a14     libeay32:obj_dat.obj
 0002:0000ca2c       ??_C@_0BE@LMHMKDBD@setct?9CredRevReqTBE?$AA@ 00072a2c     libeay32:obj_dat.obj
 0002:0000ca40       ??_C@_0BB@NFFENEIP@setct?9CredResTBE?$AA@ 00072a40     libeay32:obj_dat.obj
 0002:0000ca54       ??_C@_0BC@ECHILMDC@setct?9CredReqTBEX?$AA@ 00072a54     libeay32:obj_dat.obj
 0002:0000ca68       ??_C@_0BB@KPJEIHOP@setct?9CredReqTBE?$AA@ 00072a68     libeay32:obj_dat.obj
 0002:0000ca7c       ??_C@_0BD@GIBDNMDG@setct?9CapRevResTBE?$AA@ 00072a7c     libeay32:obj_dat.obj
 0002:0000ca90       ??_C@_0BE@PAHIPABC@setct?9CapRevReqTBEX?$AA@ 00072a90     libeay32:obj_dat.obj
 0002:0000caa4       ??_C@_0BD@BCNDIPFG@setct?9CapRevReqTBE?$AA@ 00072aa4     libeay32:obj_dat.obj
 0002:0000cab8       ??_C@_0BA@MEFGIEBL@setct?9CapResTBE?$AA@ 00072ab8     libeay32:obj_dat.obj
 0002:0000cac8       ??_C@_0BB@LFALOJDP@setct?9CapReqTBEX?$AA@ 00072ac8     libeay32:obj_dat.obj
 0002:0000cadc       ??_C@_0BA@LOJGNHHL@setct?9CapReqTBE?$AA@ 00072adc     libeay32:obj_dat.obj
 0002:0000caec       ??_C@_0BF@KKFFJIHO@setct?9AuthRevResTBEB?$AA@ 00072aec     libeay32:obj_dat.obj
 0002:0000cb04       ??_C@_0BE@MHAGABNC@setct?9AuthRevResTBE?$AA@ 00072b04     libeay32:obj_dat.obj
 0002:0000cb18       ??_C@_0BE@LNMGFCLC@setct?9AuthRevReqTBE?$AA@ 00072b18     libeay32:obj_dat.obj
 0002:0000cb2c       ??_C@_0BI@PALCIALL@setct?9AcqCardCodeMsgTBE?$AA@ 00072b2c     libeay32:obj_dat.obj
 0002:0000cb44       ??_C@_0BD@OMCOOIME@setct?9CapTokenTBEX?$AA@ 00072b44     libeay32:obj_dat.obj
 0002:0000cb58       ??_C@_0BC@CIKKDLAH@setct?9CapTokenTBE?$AA@ 00072b58     libeay32:obj_dat.obj
 0002:0000cb6c       ??_C@_0BD@DHGMJDKO@setct?9AuthTokenTBE?$AA@ 00072b6c     libeay32:obj_dat.obj
 0002:0000cb80       ??_C@_0BC@OEOIIPOH@setct?9AuthResTBEX?$AA@ 00072b80     libeay32:obj_dat.obj
 0002:0000cb94       ??_C@_0BB@IDPADFEK@setct?9AuthResTBE?$AA@ 00072b94     libeay32:obj_dat.obj
 0002:0000cba8       ??_C@_0BB@PJDAGGCK@setct?9AuthReqTBE?$AA@ 00072ba8     libeay32:obj_dat.obj
 0002:0000cbbc       ??_C@_0BE@IBOAPLDD@setct?9PIUnsignedTBE?$AA@ 00072bbc     libeay32:obj_dat.obj
 0002:0000cbd0       ??_C@_0BG@JDDNBPAG@setct?9PIDualSignedTBE?$AA@ 00072bd0     libeay32:obj_dat.obj
 0002:0000cbe8       ??_C@_0P@DLHKHMDJ@setct?9ErrorTBS?$AA@ 00072be8     libeay32:obj_dat.obj
 0002:0000cbf8       ??_C@_0BE@OIDIJLCF@setct?9CertInqReqTBS?$AA@ 00072bf8     libeay32:obj_dat.obj
 0002:0000cc0c       ??_C@_0BC@BIIFIBNO@setct?9CertResData?$AA@ 00072c0c     libeay32:obj_dat.obj
 0002:0000cc20       ??_C@_0BB@MCGELGDK@setct?9CertReqTBS?$AA@ 00072c20     libeay32:obj_dat.obj
 0002:0000cc34       ??_C@_0BC@FFENCANF@setct?9CertReqData?$AA@ 00072c34     libeay32:obj_dat.obj
 0002:0000cc48       ??_C@_0BE@KOFLJLPI@setct?9RegFormResTBS?$AA@ 00072c48     libeay32:obj_dat.obj
 0002:0000cc5c       ??_C@_0BG@DIBJJIJB@setct?9MeAqCInitResTBS?$AA@ 00072c5c     libeay32:obj_dat.obj
 0002:0000cc74       ??_C@_0BG@OMHIHPPP@setct?9CardCInitResTBS?$AA@ 00072c74     libeay32:obj_dat.obj
 0002:0000cc8c       ??_C@_0BI@IHGLAGGD@setct?9BatchAdminResData?$AA@ 00072c8c     libeay32:obj_dat.obj
 0002:0000cca4       ??_C@_0BI@MKKDKHGI@setct?9BatchAdminReqData?$AA@ 00072ca4     libeay32:obj_dat.obj
 0002:0000ccbc       ??_C@_0BC@CFHCKIIA@setct?9PCertResTBS?$AA@ 00072cbc     libeay32:obj_dat.obj
 0002:0000ccd0       ??_C@_0BD@DDNGMNFC@setct?9PCertReqData?$AA@ 00072cd0     libeay32:obj_dat.obj
 0002:0000cce4       ??_C@_0BF@ECOCNOGF@setct?9CredRevResData?$AA@ 00072ce4     libeay32:obj_dat.obj
 0002:0000ccfc       ??_C@_0BF@OOMLDFOD@setct?9CredRevReqTBSX?$AA@ 00072cfc     libeay32:obj_dat.obj
 0002:0000cd14       ??_C@_0BE@KAOEBGME@setct?9CredRevReqTBS?$AA@ 00072d14     libeay32:obj_dat.obj
 0002:0000cd28       ??_C@_0BC@PGPKIIHG@setct?9CredResData?$AA@ 00072d28     libeay32:obj_dat.obj
 0002:0000cd3c       ??_C@_0BC@FKNDGDPA@setct?9CredReqTBSX?$AA@ 00072d3c     libeay32:obj_dat.obj
 0002:0000cd50       ??_C@_0BB@LDAMDCDI@setct?9CredReqTBS?$AA@ 00072d50     libeay32:obj_dat.obj
 0002:0000cd64       ??_C@_0BE@EEPKMEFG@setct?9CapRevResData?$AA@ 00072d64     libeay32:obj_dat.obj
 0002:0000cd78       ??_C@_0BE@OINDCPNA@setct?9CapRevReqTBSX?$AA@ 00072d78     libeay32:obj_dat.obj
 0002:0000cd8c       ??_C@_0BD@OELDKIB@setct?9CapRevReqTBS?$AA@ 00072d8c     libeay32:obj_dat.obj
 0002:0000cda0       ??_C@_0BB@BIJNNHL@setct?9CapResData?$AA@ 00072da0     libeay32:obj_dat.obj
 0002:0000cdb4       ??_C@_0BB@KNKADGPN@setct?9CapReqTBSX?$AA@ 00072db4     libeay32:obj_dat.obj
 0002:0000cdc8       ??_C@_0BA@KCAOGCKM@setct?9CapReqTBS?$AA@ 00072dc8     libeay32:obj_dat.obj
 0002:0000cdd8       ??_C@_0BE@NLJOLEAF@setct?9AuthRevResTBS?$AA@ 00072dd8     libeay32:obj_dat.obj
 0002:0000cdec       ??_C@_0BF@ODDCPHOK@setct?9AuthRevResData?$AA@ 00072dec     libeay32:obj_dat.obj
 0002:0000ce04       ??_C@_0BE@KBFOOHGF@setct?9AuthRevReqTBS?$AA@ 00072e04     libeay32:obj_dat.obj
 0002:0000ce18       ??_C@_0BF@LAOAGKEH@setct?9AcqCardCodeMsg?$AA@ 00072e18     libeay32:obj_dat.obj
 0002:0000ce30       ??_C@_0BC@DEDCIONA@setct?9CapTokenTBS?$AA@ 00072e30     libeay32:obj_dat.obj
 0002:0000ce44       ??_C@_0BD@BFGEHNIL@setct?9CapTokenData?$AA@ 00072e44     libeay32:obj_dat.obj
 0002:0000ce58       ??_C@_0BD@CLPECGHJ@setct?9AuthTokenTBS?$AA@ 00072e58     libeay32:obj_dat.obj
 0002:0000ce6c       ??_C@_0BC@PMEDFACF@setct?9AuthResTBSX?$AA@ 00072e6c     libeay32:obj_dat.obj
 0002:0000ce80       ??_C@_0BB@JPGIIAJN@setct?9AuthResTBS?$AA@ 00072e80     libeay32:obj_dat.obj
 0002:0000ce94       ??_C@_0BB@OFKINDPN@setct?9AuthReqTBS?$AA@ 00072e94     libeay32:obj_dat.obj
 0002:0000cea8       ??_C@_0P@NGDEPBBH@setct?9PResData?$AA@ 00072ea8     libeay32:obj_dat.obj
 0002:0000ceb8       ??_C@_0N@GIGHFPBJ@setct?9PI?9TBS?$AA@ 00072eb8     libeay32:obj_dat.obj
 0002:0000cec8       ??_C@_0BD@GIEGHJGD@setct?9PInitResData?$AA@ 00072ec8     libeay32:obj_dat.obj
 0002:0000cedc       ??_C@_0BC@DDFFKACM@setct?9CapTokenSeq?$AA@ 00072edc     libeay32:obj_dat.obj
 0002:0000cef0       ??_C@_0BI@CNLKCNFM@setct?9AuthRevResBaggage?$AA@ 00072ef0     libeay32:obj_dat.obj
 0002:0000cf08       ??_C@_0BI@DEMAFNK@setct?9AuthRevReqBaggage?$AA@ 00072f08     libeay32:obj_dat.obj
 0002:0000cf20       ??_C@_0BF@EFHLGKOJ@setct?9AuthResBaggage?$AA@ 00072f20     libeay32:obj_dat.obj
 0002:0000cf38       ??_C@_0P@LPBKKIBL@setct?9HODInput?$AA@ 00072f38     libeay32:obj_dat.obj
 0002:0000cf48       ??_C@_0BF@BDFGFMFJ@setct?9PIDataUnsigned?$AA@ 00072f48     libeay32:obj_dat.obj
 0002:0000cf60       ??_C@_0N@PGCGIPOF@setct?9PIData?$AA@ 00072f60     libeay32:obj_dat.obj
 0002:0000cf70       ??_C@_08MNJJNIEC@setct?9PI?$AA@ 00072f70     libeay32:obj_dat.obj
 0002:0000cf7c       ??_C@_0N@GHLAGDMC@setct?9OIData?$AA@ 00072f7c     libeay32:obj_dat.obj
 0002:0000cf8c       ??_C@_0O@PFJCCKAL@setct?9PANOnly?$AA@ 00072f8c     libeay32:obj_dat.obj
 0002:0000cf9c       ??_C@_0P@LAMDLEMO@setct?9PANToken?$AA@ 00072f9c     libeay32:obj_dat.obj
 0002:0000cfac       ??_C@_0O@EKAPGBNN@setct?9PANData?$AA@ 00072fac     libeay32:obj_dat.obj
 0002:0000cfbc       ??_C@_09JHODGPNO@set?9brand?$AA@ 00072fbc     libeay32:obj_dat.obj
 0002:0000cfc8       ??_C@_0BH@PDPIEGPA@certificate?5extensions?$AA@ 00072fc8     libeay32:obj_dat.obj
 0002:0000cfe0       ??_C@_0M@KEIBDDC@set?9certExt?$AA@ 00072fe0     libeay32:obj_dat.obj
 0002:0000cfec       ??_C@_0L@LAAAKICM@set?9policy?$AA@ 00072fec     libeay32:obj_dat.obj
 0002:0000cff8       ??_C@_08OFDIOKIA@set?9attr?$AA@ 00072ff8     libeay32:obj_dat.obj
 0002:0000d004       ??_C@_0BD@LEIDLLNO@message?5extensions?$AA@ 00073004     libeay32:obj_dat.obj
 0002:0000d018       ??_C@_0L@PKPEIEIJ@set?9msgExt?$AA@ 00073018     libeay32:obj_dat.obj
 0002:0000d024       ??_C@_0O@HJGLMADJ@content?5types?$AA@ 00073024     libeay32:obj_dat.obj
 0002:0000d034       ??_C@_09EJPBIJJA@set?9ctype?$AA@ 00073034     libeay32:obj_dat.obj
 0002:0000d040       ??_C@_0BP@KEIHJPNF@Secure?5Electronic?5Transactions?$AA@ 00073040     libeay32:obj_dat.obj
 0002:0000d060       ??_C@_06KKEMDFAF@id?9set?$AA@ 00073060     libeay32:obj_dat.obj
 0002:0000d068       ??_C@_09NNMENHIH@pseudonym?$AA@ 00073068     libeay32:obj_dat.obj
 0002:0000d074       ??_C@_0BE@DAEHFOO@generationQualifier?$AA@ 00073074     libeay32:obj_dat.obj
 0002:0000d088       ??_C@_0BJ@KCNAIDP@id?9hex?9multipart?9message?$AA@ 00073088     libeay32:obj_dat.obj
 0002:0000d0a4       ??_C@_0BH@ILCJEHBB@id?9hex?9partial?9message?$AA@ 000730a4     libeay32:obj_dat.obj
 0002:0000d0bc       ??_C@_0BA@MOFCNIEE@mime?9mhs?9bodies?$AA@ 000730bc     libeay32:obj_dat.obj
 0002:0000d0cc       ??_C@_0BC@NIFMCBEJ@mime?9mhs?9headings?$AA@ 000730cc     libeay32:obj_dat.obj
 0002:0000d0e0       ??_C@_08DNBACEKK@MIME?5MHS?$AA@ 000730e0     libeay32:obj_dat.obj
 0002:0000d0ec       ??_C@_08HLONPBDI@mime?9mhs?$AA@ 000730ec     libeay32:obj_dat.obj
 0002:0000d0f8       ??_C@_0BF@EFCCADKK@x500UniqueIdentifier?$AA@ 000730f8     libeay32:obj_dat.obj
 0002:0000d110       ??_C@_0BC@KCCHJGGO@documentPublisher?$AA@ 00073110     libeay32:obj_dat.obj
 0002:0000d124       ??_C@_05KNIAAKIP@audio?$AA@ 00073124     libeay32:obj_dat.obj
 0002:0000d12c       ??_C@_0M@KIABODOB@dITRedirect?$AA@ 0007312c     libeay32:obj_dat.obj
 0002:0000d138       ??_C@_0BC@CBOFINFC@personalSignature?$AA@ 00073138     libeay32:obj_dat.obj
 0002:0000d14c       ??_C@_0BG@FLFPEGPE@subtreeMaximumQuality?$AA@ 0007314c     libeay32:obj_dat.obj
 0002:0000d164       ??_C@_0BG@HMOECBMF@subtreeMinimumQuality?$AA@ 00073164     libeay32:obj_dat.obj
 0002:0000d17c       ??_C@_0BD@EHDOPADK@singleLevelQuality?$AA@ 0007317c     libeay32:obj_dat.obj
 0002:0000d190       ??_C@_0L@LMCCHBHL@dSAQuality?$AA@ 00073190     libeay32:obj_dat.obj
 0002:0000d19c       ??_C@_0N@POAALOHC@buildingName?$AA@ 0007319c     libeay32:obj_dat.obj
 0002:0000d1ac       ??_C@_0BF@OFOHKDCI@mailPreferenceOption?$AA@ 000731ac     libeay32:obj_dat.obj
 0002:0000d1c4       ??_C@_0N@DGNBNBGJ@janetMailbox?$AA@ 000731c4     libeay32:obj_dat.obj
 0002:0000d1d4       ??_C@_0BF@IANLBJMF@organizationalStatus?$AA@ 000731d4     libeay32:obj_dat.obj
 0002:0000d1ec       ??_C@_0BE@MGDAFGCM@friendlyCountryName?$AA@ 000731ec     libeay32:obj_dat.obj
 0002:0000d200       ??_C@_0BF@JICDDEFM@pagerTelephoneNumber?$AA@ 00073200     libeay32:obj_dat.obj
 0002:0000d218       ??_C@_0BG@DCPABLLG@mobileTelephoneNumber?$AA@ 00073218     libeay32:obj_dat.obj
 0002:0000d230       ??_C@_0O@CCHLDBGG@personalTitle?$AA@ 00073230     libeay32:obj_dat.obj
 0002:0000d240       ??_C@_0BC@NPJKACJF@homePostalAddress?$AA@ 00073240     libeay32:obj_dat.obj
 0002:0000d254       ??_C@_0P@OJOOFNGB@associatedName?$AA@ 00073254     libeay32:obj_dat.obj
 0002:0000d264       ??_C@_0BB@MEFMIBKO@associatedDomain?$AA@ 00073264     libeay32:obj_dat.obj
 0002:0000d278       ??_C@_0M@GHEAGPOE@cNAMERecord?$AA@ 00073278     libeay32:obj_dat.obj
 0002:0000d284       ??_C@_09OCFHDJJF@sOARecord?$AA@ 00073284     libeay32:obj_dat.obj
 0002:0000d290       ??_C@_08FBLONLGA@nSRecord?$AA@ 00073290     libeay32:obj_dat.obj
 0002:0000d29c       ??_C@_08DFFJPLPD@mXRecord?$AA@ 0007329c     libeay32:obj_dat.obj
 0002:0000d2a8       ??_C@_0BF@MIIMJDJB@pilotAttributeType27?$AA@ 000732a8     libeay32:obj_dat.obj
 0002:0000d2c0       ??_C@_07IBNMBOJB@aRecord?$AA@ 000732c0     libeay32:obj_dat.obj
 0002:0000d2c8       ??_C@_0P@ECLEJAJJ@lastModifiedBy?$AA@ 000732c8     libeay32:obj_dat.obj
 0002:0000d2d8       ??_C@_0BB@LHLABCIP@lastModifiedTime?$AA@ 000732d8     libeay32:obj_dat.obj
 0002:0000d2ec       ??_C@_0N@CEOKELFP@otherMailbox?$AA@ 000732ec     libeay32:obj_dat.obj
 0002:0000d2fc       ??_C@_09EMBFDNKC@secretary?$AA@ 000732fc     libeay32:obj_dat.obj
 0002:0000d308       ??_C@_0BE@CPLAKLNE@homeTelephoneNumber?$AA@ 00073308     libeay32:obj_dat.obj
 0002:0000d31c       ??_C@_0BB@COFKDFJ@documentLocation?$AA@ 0007331c     libeay32:obj_dat.obj
 0002:0000d330       ??_C@_0P@DABDJKFB@documentAuthor?$AA@ 00073330     libeay32:obj_dat.obj
 0002:0000d340       ??_C@_0BA@GHOLKFM@documentVersion?$AA@ 00073340     libeay32:obj_dat.obj
 0002:0000d350       ??_C@_0O@BDIDABAC@documentTitle?$AA@ 00073350     libeay32:obj_dat.obj
 0002:0000d360       ??_C@_0BD@MEPJGCEO@documentIdentifier?$AA@ 00073360     libeay32:obj_dat.obj
 0002:0000d374       ??_C@_07JPLKDPHP@manager?$AA@ 00073374     libeay32:obj_dat.obj
 0002:0000d37c       ??_C@_04OODOLJMA@host?$AA@ 0007337c     libeay32:obj_dat.obj
 0002:0000d384       ??_C@_09CCPGMHEM@userClass?$AA@ 00073384     libeay32:obj_dat.obj
 0002:0000d390       ??_C@_05DOIFDPKA@photo?$AA@ 00073390     libeay32:obj_dat.obj
 0002:0000d398       ??_C@_0L@DGKNANFO@roomNumber?$AA@ 00073398     libeay32:obj_dat.obj
 0002:0000d3a4       ??_C@_0P@PAMFCEKP@favouriteDrink?$AA@ 000733a4     libeay32:obj_dat.obj
 0002:0000d3b4       ??_C@_04NIDJFNBE@info?$AA@ 000733b4     libeay32:obj_dat.obj
 0002:0000d3bc       ??_C@_0O@PDNFEOHL@rfc822Mailbox?$AA@ 000733bc     libeay32:obj_dat.obj
 0002:0000d3cc       ??_C@_04FFKLPPHM@mail?$AA@ 000733cc     libeay32:obj_dat.obj
 0002:0000d3d4       ??_C@_0BF@HDIIKJDI@textEncodedORAddress?$AA@ 000733d4     libeay32:obj_dat.obj
 0002:0000d3ec       ??_C@_06LPELCIKE@userId?$AA@ 000733ec     libeay32:obj_dat.obj
 0002:0000d3f4       ??_C@_03MJDGODDN@UID?$AA@  000733f4     libeay32:obj_dat.obj
 0002:0000d3f8       ??_C@_0BE@DDFOMMI@qualityLabelledData?$AA@ 000733f8     libeay32:obj_dat.obj
 0002:0000d40c       ??_C@_08MPJGPMC@pilotDSA?$AA@ 0007340c     libeay32:obj_dat.obj
 0002:0000d418       ??_C@_0BC@PLDKCMI@pilotOrganization?$AA@ 00073418     libeay32:obj_dat.obj
 0002:0000d42c       ??_C@_0BF@CONLNHDI@simpleSecurityObject?$AA@ 0007342c     libeay32:obj_dat.obj
 0002:0000d444       ??_C@_0BA@LKHIAMBK@friendlyCountry?$AA@ 00073444     libeay32:obj_dat.obj
 0002:0000d454       ??_C@_0BE@OPAPHNCO@domainRelatedObject?$AA@ 00073454     libeay32:obj_dat.obj
 0002:0000d468       ??_C@_09BOCGGGMK@dNSDomain?$AA@ 00073468     libeay32:obj_dat.obj
 0002:0000d474       ??_C@_0BA@KIAIOBLD@rFC822localPart?$AA@ 00073474     libeay32:obj_dat.obj
 0002:0000d484       ??_C@_0P@OAPEDDHP@documentSeries?$AA@ 00073484     libeay32:obj_dat.obj
 0002:0000d494       ??_C@_04EKFCMFOP@room?$AA@ 00073494     libeay32:obj_dat.obj
 0002:0000d49c       ??_C@_08JEEDKNPB@document?$AA@ 0007349c     libeay32:obj_dat.obj
 0002:0000d4a8       ??_C@_07PMDLEBNF@account?$AA@ 000734a8     libeay32:obj_dat.obj
 0002:0000d4b0       ??_C@_0M@NCGDCEIP@pilotPerson?$AA@ 000734b0     libeay32:obj_dat.obj
 0002:0000d4bc       ??_C@_0M@MCCFCPKP@pilotObject?$AA@ 000734bc     libeay32:obj_dat.obj
 0002:0000d4c8       ??_C@_0BK@LELMGJGD@caseIgnoreIA5StringSyntax?$AA@ 000734c8     libeay32:obj_dat.obj
 0002:0000d4e4       ??_C@_0BA@KPIIGILK@iA5StringSyntax?$AA@ 000734e4     libeay32:obj_dat.obj
 0002:0000d4f4       ??_C@_0M@DLMEDAFC@pilotGroups?$AA@ 000734f4     libeay32:obj_dat.obj
 0002:0000d500       ??_C@_0BB@MJFNAIDM@pilotObjectClass?$AA@ 00073500     libeay32:obj_dat.obj
 0002:0000d514       ??_C@_0BF@CDEFHHCF@pilotAttributeSyntax?$AA@ 00073514     libeay32:obj_dat.obj
 0002:0000d52c       ??_C@_0BD@NEGIHOAI@pilotAttributeType?$AA@ 0007352c     libeay32:obj_dat.obj
 0002:0000d540       ??_C@_05KIBFDOPF@pilot?$AA@ 00073540     libeay32:obj_dat.obj
 0002:0000d548       ??_C@_03BIDCBJP@ucl?$AA@   00073548     libeay32:obj_dat.obj
 0002:0000d54c       ??_C@_04PJOLNDGD@data?$AA@ 0007354c     libeay32:obj_dat.obj
 0002:0000d554       ??_C@_0BI@EEABHGCD@Hold?5Instruction?5Reject?$AA@ 00073554     libeay32:obj_dat.obj
 0002:0000d56c       ??_C@_0BG@BDAACIJE@holdInstructionReject?$AA@ 0007356c     libeay32:obj_dat.obj
 0002:0000d584       ??_C@_0BN@IJKNPIFC@Hold?5Instruction?5Call?5Issuer?$AA@ 00073584     libeay32:obj_dat.obj
 0002:0000d5a4       ??_C@_0BK@ENEKHHMB@holdInstructionCallIssuer?$AA@ 000735a4     libeay32:obj_dat.obj
 0002:0000d5c0       ??_C@_0BG@ECBIHNGK@Hold?5Instruction?5None?$AA@ 000735c0     libeay32:obj_dat.obj
 0002:0000d5d8       ??_C@_0BE@KPEIPHPJ@holdInstructionNone?$AA@ 000735d8     libeay32:obj_dat.obj
 0002:0000d5ec       ??_C@_0BG@LHBPDMAN@Hold?5Instruction?5Code?$AA@ 000735ec     libeay32:obj_dat.obj
 0002:0000d604       ??_C@_0BE@FKEPLGJO@holdInstructionCode?$AA@ 00073604     libeay32:obj_dat.obj
 0002:0000d618       ??_C@_0M@JMFNEPEI@aes?9256?9cfb?$AA@ 00073618     libeay32:obj_dat.obj
 0002:0000d624       ??_C@_0M@EAFGNFML@AES?9256?9CFB?$AA@ 00073624     libeay32:obj_dat.obj
 0002:0000d630       ??_C@_0M@NGILPAPA@aes?9256?9ofb?$AA@ 00073630     libeay32:obj_dat.obj
 0002:0000d63c       ??_C@_0M@KIAGKHD@AES?9256?9OFB?$AA@ 0007363c     libeay32:obj_dat.obj
 0002:0000d648       ??_C@_0M@ICEPNGNF@aes?9256?9cbc?$AA@ 00073648     libeay32:obj_dat.obj
 0002:0000d654       ??_C@_0M@FOEEEMFG@AES?9256?9CBC?$AA@ 00073654     libeay32:obj_dat.obj
 0002:0000d660       ??_C@_0M@LPPNNCHP@aes?9256?9ecb?$AA@ 00073660     libeay32:obj_dat.obj
 0002:0000d66c       ??_C@_0M@GDPGEIPM@AES?9256?9ECB?$AA@ 0007366c     libeay32:obj_dat.obj
 0002:0000d678       ??_C@_0M@EOODGAMJ@aes?9192?9cfb?$AA@ 00073678     libeay32:obj_dat.obj
 0002:0000d684       ??_C@_0M@JCOIPKEK@AES?9192?9CFB?$AA@ 00073684     libeay32:obj_dat.obj
 0002:0000d690       ??_C@_0M@EDFNPHB@aes?9192?9ofb?$AA@ 00073690     libeay32:obj_dat.obj
 0002:0000d69c       ??_C@_0M@NIDOEFPC@AES?9192?9OFB?$AA@ 0007369c     libeay32:obj_dat.obj
 0002:0000d6a8       ??_C@_0M@FAPBPJFE@aes?9192?9cbc?$AA@ 000736a8     libeay32:obj_dat.obj
 0002:0000d6b4       ??_C@_0M@IMPKGDNH@AES?9192?9CBC?$AA@ 000736b4     libeay32:obj_dat.obj
 0002:0000d6c0       ??_C@_0M@GNEDPNPO@aes?9192?9ecb?$AA@ 000736c0     libeay32:obj_dat.obj
 0002:0000d6cc       ??_C@_0M@LBEIGHHN@AES?9192?9ECB?$AA@ 000736cc     libeay32:obj_dat.obj
 0002:0000d6d8       ??_C@_0M@ONHPBHFF@aes?9128?9cfb?$AA@ 000736d8     libeay32:obj_dat.obj
 0002:0000d6e4       ??_C@_0M@DBHEINNG@AES?9128?9CFB?$AA@ 000736e4     libeay32:obj_dat.obj
 0002:0000d6f0       ??_C@_0M@KHKJKION@aes?9128?9ofb?$AA@ 000736f0     libeay32:obj_dat.obj
 0002:0000d6fc       ??_C@_0M@HLKCDCGO@AES?9128?9OFB?$AA@ 000736fc     libeay32:obj_dat.obj
 0002:0000d708       ??_C@_0M@PDGNIOMI@aes?9128?9cbc?$AA@ 00073708     libeay32:obj_dat.obj
 0002:0000d714       ??_C@_0M@CPGGBEEL@AES?9128?9CBC?$AA@ 00073714     libeay32:obj_dat.obj
 0002:0000d720       ??_C@_0M@MONPIKGC@aes?9128?9ecb?$AA@ 00073720     libeay32:obj_dat.obj
 0002:0000d72c       ??_C@_0M@BCNEBAOB@AES?9128?9ECB?$AA@ 0007372c     libeay32:obj_dat.obj
 0002:0000d738       ??_C@_0BD@HDEEGCLB@Microsoft?5CSP?5Name?$AA@ 00073738     libeay32:obj_dat.obj
 0002:0000d74c       ??_C@_07BPKAKPJK@CSPName?$AA@ 0007374c     libeay32:obj_dat.obj
 0002:0000d754       ??_C@_0BA@DGJNDOPM@ecdsa?9with?9SHA1?$AA@ 00073754     libeay32:obj_dat.obj
 0002:0000d764       ??_C@_0L@JJFEINOP@prime256v1?$AA@ 00073764     libeay32:obj_dat.obj
 0002:0000d770       ??_C@_0L@HMEBAKJL@prime239v3?$AA@ 00073770     libeay32:obj_dat.obj
 0002:0000d77c       ??_C@_0L@GFFKDLNK@prime239v2?$AA@ 0007377c     libeay32:obj_dat.obj
 0002:0000d788       ??_C@_0L@EOHHGIBJ@prime239v1?$AA@ 00073788     libeay32:obj_dat.obj
 0002:0000d794       ??_C@_0L@GHGEOHJF@prime192v3?$AA@ 00073794     libeay32:obj_dat.obj
 0002:0000d7a0       ??_C@_0L@HOHPNGNE@prime192v2?$AA@ 000737a0     libeay32:obj_dat.obj
 0002:0000d7ac       ??_C@_0L@FFFCIFBH@prime192v1?$AA@ 000737ac     libeay32:obj_dat.obj
 0002:0000d7b8       ??_C@_0P@NEOBKIMO@id?9ecPublicKey?$AA@ 000737b8     libeay32:obj_dat.obj
 0002:0000d7c8       ??_C@_0BJ@HECCMKCN@characteristic?9two?9field?$AA@ 000737c8     libeay32:obj_dat.obj
 0002:0000d7e4       ??_C@_0M@LGLKIODB@prime?9field?$AA@ 000737e4     libeay32:obj_dat.obj
 0002:0000d7f0       ??_C@_0L@HAOKGHPF@ANSI?5X9?462?$AA@ 000737f0     libeay32:obj_dat.obj
 0002:0000d7fc       ??_C@_0L@LBMOMFCJ@ansi?9X9?962?$AA@ 000737fc     libeay32:obj_dat.obj
 0002:0000d808       ??_C@_0BP@DEKFNCEH@X509v3?5No?5Revocation?5Available?$AA@ 00073808     libeay32:obj_dat.obj
 0002:0000d828       ??_C@_0L@ECGDAGCK@noRevAvail?$AA@ 00073828     libeay32:obj_dat.obj
 0002:0000d834       ??_C@_0BE@IECCFFCH@X509v3?5AC?5Targeting?$AA@ 00073834     libeay32:obj_dat.obj
 0002:0000d848       ??_C@_0BC@JINDJNPM@targetInformation?$AA@ 00073848     libeay32:obj_dat.obj
 0002:0000d85c       ??_C@_0BK@DNMBLGM@X509v3?5Policy?5Constraints?$AA@ 0007385c     libeay32:obj_dat.obj
 0002:0000d878       ??_C@_0BC@IJLMCBHD@policyConstraints?$AA@ 00073878     libeay32:obj_dat.obj
 0002:0000d88c       ??_C@_04IAMNPBLO@role?$AA@ 0007388c     libeay32:obj_dat.obj
 0002:0000d894       ??_C@_0BA@PEFFHNFH@id?9aca?9encAttrs?$AA@ 00073894     libeay32:obj_dat.obj
 0002:0000d8a4       ??_C@_0BL@OMFIOBLF@Subject?5Information?5Access?$AA@ 000738a4     libeay32:obj_dat.obj
 0002:0000d8c0       ??_C@_0BC@IEIBIKBA@subjectInfoAccess?$AA@ 000738c0     libeay32:obj_dat.obj
 0002:0000d8d4       ??_C@_0M@BKAIKGEL@ac?9proxying?$AA@ 000738d4     libeay32:obj_dat.obj
 0002:0000d8e0       ??_C@_0BF@JDOFKNPK@md4WithRSAEncryption?$AA@ 000738e0     libeay32:obj_dat.obj
 0002:0000d8f8       ??_C@_07MHHBEDHA@RSA?9MD4?$AA@ 000738f8     libeay32:obj_dat.obj
 0002:0000d900       ??_C@_09ECGCCLFI@clearance?$AA@ 00073900     libeay32:obj_dat.obj
 0002:0000d90c       ??_C@_0BJ@MAOJIBHF@Selected?5Attribute?5Types?$AA@ 0007390c     libeay32:obj_dat.obj
 0002:0000d928       ??_C@_0BJ@BDDNHDDA@selected?9attribute?9types?$AA@ 00073928     libeay32:obj_dat.obj
 0002:0000d944       ??_C@_04HIBGFPH@NULL?$AA@  00073944     libeay32:obj_dat.obj
 0002:0000d94c       ??_C@_06HFDFFJHI@Domain?$AA@ 0007394c     libeay32:obj_dat.obj
 0002:0000d954       ??_C@_06LKIIGAOE@domain?$AA@ 00073954     libeay32:obj_dat.obj
 0002:0000d95c       ??_C@_0BA@DMAKFKAH@domainComponent?$AA@ 0007395c     libeay32:obj_dat.obj
 0002:0000d96c       ??_C@_02KMHJBPDH@DC?$AA@   0007396c     libeay32:obj_dat.obj
 0002:0000d970       ??_C@_08GPNKJGDG@dcObject?$AA@ 00073970     libeay32:obj_dat.obj
 0002:0000d97c       ??_C@_08KAGHKPKK@dcobject?$AA@ 0007397c     libeay32:obj_dat.obj
 0002:0000d988       ??_C@_0M@CEEPHGPL@Enterprises?$AA@ 00073988     libeay32:obj_dat.obj
 0002:0000d994       ??_C@_0M@DMHOKNAD@enterprises?$AA@ 00073994     libeay32:obj_dat.obj
 0002:0000d9a0       ??_C@_04JEGKNAHI@Mail?$AA@ 000739a0     libeay32:obj_dat.obj
 0002:0000d9a8       ??_C@_06JDJOGLHO@SNMPv2?$AA@ 000739a8     libeay32:obj_dat.obj
 0002:0000d9b0       ??_C@_06DKHMNHOO@snmpv2?$AA@ 000739b0     libeay32:obj_dat.obj
 0002:0000d9b8       ??_C@_08EDKKPLCC@Security?$AA@ 000739b8     libeay32:obj_dat.obj
 0002:0000d9c4       ??_C@_08MBFLHJIB@security?$AA@ 000739c4     libeay32:obj_dat.obj
 0002:0000d9d0       ??_C@_07CFINJGKH@Private?$AA@ 000739d0     libeay32:obj_dat.obj
 0002:0000d9d8       ??_C@_07NMPLPEPB@private?$AA@ 000739d8     libeay32:obj_dat.obj
 0002:0000d9e0       ??_C@_0N@FKCIGJFM@Experimental?$AA@ 000739e0     libeay32:obj_dat.obj
 0002:0000d9f0       ??_C@_0N@OJFGCCKJ@experimental?$AA@ 000739f0     libeay32:obj_dat.obj
 0002:0000da00       ??_C@_0L@ENAJINDB@Management?$AA@ 00073a00     libeay32:obj_dat.obj
 0002:0000da0c       ??_C@_04PFNCJACF@mgmt?$AA@ 00073a0c     libeay32:obj_dat.obj
 0002:0000da14       ??_C@_09EOAFACM@Directory?$AA@ 00073a14     libeay32:obj_dat.obj
 0002:0000da20       ??_C@_09ELLNFDPM@directory?$AA@ 00073a20     libeay32:obj_dat.obj
 0002:0000da2c       ??_C@_04BAMKDBHE@iana?$AA@ 00073a2c     libeay32:obj_dat.obj
 0002:0000da34       ??_C@_04NMPANDAM@IANA?$AA@ 00073a34     libeay32:obj_dat.obj
 0002:0000da3c       ??_C@_03CIOFGCAJ@dod?$AA@  00073a3c     libeay32:obj_dat.obj
 0002:0000da40       ??_C@_03CFBOKPHF@DOD?$AA@  00073a40     libeay32:obj_dat.obj
 0002:0000da44       ??_C@_03MADHIGOI@org?$AA@  00073a44     libeay32:obj_dat.obj
 0002:0000da48       ??_C@_03MNMMELJE@ORG?$AA@  00073a48     libeay32:obj_dat.obj
 0002:0000da4c       ??_C@_0CA@FIOIBJEO@directory?5services?5?9?5algorithms?$AA@ 00073a4c     libeay32:obj_dat.obj
 0002:0000da6c       ??_C@_0P@NMIAKCBG@X500algorithms?$AA@ 00073a6c     libeay32:obj_dat.obj
 0002:0000da7c       ??_C@_0N@JHANBHGC@rsaSignature?$AA@ 00073a7c     libeay32:obj_dat.obj
 0002:0000da8c       ??_C@_09JPNFBOJG@algorithm?$AA@ 00073a8c     libeay32:obj_dat.obj
 0002:0000da98       ??_C@_0L@INBPOG@Trust?5Root?$AA@ 00073a98     libeay32:obj_dat.obj
 0002:0000daa4       ??_C@_09LNEPAILM@trustRoot?$AA@ 00073aa4     libeay32:obj_dat.obj
 0002:0000dab0       ??_C@_04LNEJFJGI@path?$AA@ 00073ab0     libeay32:obj_dat.obj
 0002:0000dab8       ??_C@_05HDPIMK@valid?$AA@  00073ab8     libeay32:obj_dat.obj
 0002:0000dac0       ??_C@_0BF@MPEDLKDP@Extended?5OCSP?5Status?$AA@ 00073ac0     libeay32:obj_dat.obj
 0002:0000dad8       ??_C@_0P@EGENIBNC@extendedStatus?$AA@ 00073ad8     libeay32:obj_dat.obj
 0002:0000dae8       ??_C@_0BF@CEIKAD@OCSP?5Service?5Locator?$AA@ 00073ae8     libeay32:obj_dat.obj
 0002:0000db00       ??_C@_0P@LCDAPLHC@serviceLocator?$AA@ 00073b00     libeay32:obj_dat.obj
 0002:0000db10       ??_C@_0BE@JAFPABJB@OCSP?5Archive?5Cutoff?$AA@ 00073b10     libeay32:obj_dat.obj
 0002:0000db24       ??_C@_0O@FIEDPKGI@archiveCutoff?$AA@ 00073b24     libeay32:obj_dat.obj
 0002:0000db34       ??_C@_0O@HFOALJCG@OCSP?5No?5Check?$AA@ 00073b34     libeay32:obj_dat.obj
 0002:0000db44       ??_C@_07MCKMCKHJ@noCheck?$AA@ 00073b44     libeay32:obj_dat.obj
 0002:0000db4c       ??_C@_0BK@JKKLNLEI@Acceptable?5OCSP?5Responses?$AA@ 00073b4c     libeay32:obj_dat.obj
 0002:0000db68       ??_C@_0BE@FBPDIHIK@acceptableResponses?$AA@ 00073b68     libeay32:obj_dat.obj
 0002:0000db7c       ??_C@_0M@LCLKJALE@OCSP?5CRL?5ID?$AA@ 00073b7c     libeay32:obj_dat.obj
 0002:0000db88       ??_C@_05NOENOBME@CrlID?$AA@ 00073b88     libeay32:obj_dat.obj
 0002:0000db90       ??_C@_0L@NCNDEJFL@OCSP?5Nonce?$AA@ 00073b90     libeay32:obj_dat.obj
 0002:0000db9c       ??_C@_05OJOPLPHH@Nonce?$AA@ 00073b9c     libeay32:obj_dat.obj
 0002:0000dba4       ??_C@_0BE@ONEEPEOL@Basic?5OCSP?5Response?$AA@ 00073ba4     libeay32:obj_dat.obj
 0002:0000dbb8       ??_C@_0BC@KFAFMFFF@basicOCSPResponse?$AA@ 00073bb8     libeay32:obj_dat.obj
 0002:0000dbcc       ??_C@_07JCKMJMPC@ad?5dvcs?$AA@ 00073bcc     libeay32:obj_dat.obj
 0002:0000dbd4       ??_C@_07JCCJJKFE@AD_DVCS?$AA@ 00073bd4     libeay32:obj_dat.obj
 0002:0000dbdc       ??_C@_0BB@NMPPBOGK@AD?5Time?5Stamping?$AA@ 00073bdc     libeay32:obj_dat.obj
 0002:0000dbf0       ??_C@_0BA@PBBONLHE@ad_timestamping?$AA@ 00073bf0     libeay32:obj_dat.obj
 0002:0000dc00       ??_C@_0BD@DDALHPCH@id?9cct?9PKIResponse?$AA@ 00073c00     libeay32:obj_dat.obj
 0002:0000dc14       ??_C@_0P@FNCPPGJO@id?9cct?9PKIData?$AA@ 00073c14     libeay32:obj_dat.obj
 0002:0000dc24       ??_C@_0L@CDHPLMPE@id?9cct?9crs?$AA@ 00073c24     libeay32:obj_dat.obj
 0002:0000dc30       ??_C@_0BH@DJONLBHI@id?9qcs?9pkixQCSyntax?9v1?$AA@ 00073c30     libeay32:obj_dat.obj
 0002:0000dc48       ??_C@_0M@FBOAJIIJ@id?9aca?9role?$AA@ 00073c48     libeay32:obj_dat.obj
 0002:0000dc54       ??_C@_0N@HOPCGOGP@id?9aca?9group?$AA@ 00073c54     libeay32:obj_dat.obj
 0002:0000dc64       ??_C@_0BI@IDHFJBKH@id?9aca?9chargingIdentity?$AA@ 00073c64     libeay32:obj_dat.obj
 0002:0000dc7c       ??_C@_0BG@GFJCFEAI@id?9aca?9accessIdentity?$AA@ 00073c7c     libeay32:obj_dat.obj
 0002:0000dc94       ??_C@_0BK@OFEDAOCA@id?9aca?9authenticationInfo?$AA@ 00073c94     libeay32:obj_dat.obj
 0002:0000dcb0       ??_C@_0BK@BJMNIGCJ@id?9pda?9countryOfResidence?$AA@ 00073cb0     libeay32:obj_dat.obj
 0002:0000dccc       ??_C@_0BM@KMGEGNAB@id?9pda?9countryOfCitizenship?$AA@ 00073ccc     libeay32:obj_dat.obj
 0002:0000dce8       ??_C@_0O@JMCFNPFD@id?9pda?9gender?$AA@ 00073ce8     libeay32:obj_dat.obj
 0002:0000dcf8       ??_C@_0BE@NIFFDBPJ@id?9pda?9placeOfBirth?$AA@ 00073cf8     libeay32:obj_dat.obj
 0002:0000dd0c       ??_C@_0BD@BADJMIPF@id?9pda?9dateOfBirth?$AA@ 00073d0c     libeay32:obj_dat.obj
 0002:0000dd20       ??_C@_0BD@IGLADCFL@id?9on?9personalData?$AA@ 00073d20     libeay32:obj_dat.obj
 0002:0000dd34       ??_C@_0BN@MIGHDJON@id?9cmc?9confirmCertAcceptance?$AA@ 00073d34     libeay32:obj_dat.obj
 0002:0000dd54       ??_C@_0BG@EEIJMDPB@id?9cmc?9popLinkWitness?$AA@ 00073d54     libeay32:obj_dat.obj
 0002:0000dd6c       ??_C@_0BF@GGLCNKGO@id?9cmc?9popLinkRandom?$AA@ 00073d6c     libeay32:obj_dat.obj
 0002:0000dd84       ??_C@_0BE@JKLJLIIH@id?9cmc?9queryPending?$AA@ 00073d84     libeay32:obj_dat.obj
 0002:0000dd98       ??_C@_0BE@CKMFMMDP@id?9cmc?9responseInfo?$AA@ 00073d98     libeay32:obj_dat.obj
 0002:0000ddac       ??_C@_0P@PCIOIKNC@id?9cmc?9regInfo?$AA@ 00073dac     libeay32:obj_dat.obj
 0002:0000ddbc       ??_C@_0BF@BOEAJJNI@id?9cmc?9revokeRequest?$AA@ 00073dbc     libeay32:obj_dat.obj
 0002:0000ddd4       ??_C@_0O@OIGIOBJ@id?9cmc?9getCRL?$AA@ 00073dd4     libeay32:obj_dat.obj
 0002:0000dde4       ??_C@_0P@GMDPJKDO@id?9cmc?9getCert?$AA@ 00073de4     libeay32:obj_dat.obj
 0002:0000ddf4       ??_C@_0BF@BMODAINP@id?9cmc?9lraPOPWitness?$AA@ 00073df4     libeay32:obj_dat.obj
 0002:0000de0c       ??_C@_0BE@KBIPLENG@id?9cmc?9decryptedPOP?$AA@ 00073e0c     libeay32:obj_dat.obj
 0002:0000de20       ??_C@_0BE@NILMJFN@id?9cmc?9encryptedPOP?$AA@ 00073e20     libeay32:obj_dat.obj
 0002:0000de34       ??_C@_0BF@HLOCACJF@id?9cmc?9addExtensions?$AA@ 00073e34     libeay32:obj_dat.obj
 0002:0000de4c       ??_C@_0BG@JLHHNNCH@id?9cmc?9recipientNonce?$AA@ 00073e4c     libeay32:obj_dat.obj
 0002:0000de64       ??_C@_0BD@BCMJDDMP@id?9cmc?9senderNonce?$AA@ 00073e64     libeay32:obj_dat.obj
 0002:0000de78       ??_C@_0BF@GEJAHBF@id?9cmc?9transactionId?$AA@ 00073e78     libeay32:obj_dat.obj
 0002:0000de90       ??_C@_0BC@LLJKCHEN@id?9cmc?9dataReturn?$AA@ 00073e90     libeay32:obj_dat.obj
 0002:0000dea4       ??_C@_0BF@IDAHNDCK@id?9cmc?9identityProof?$AA@ 00073ea4     libeay32:obj_dat.obj
 0002:0000debc       ??_C@_0BG@PPIINOMK@id?9cmc?9identification?$AA@ 00073ebc     libeay32:obj_dat.obj
 0002:0000ded4       ??_C@_0BC@CMNEPEAI@id?9cmc?9statusInfo?$AA@ 00073ed4     libeay32:obj_dat.obj
 0002:0000dee8       ??_C@_0O@OBGPPBGA@id?9alg?9dh?9pop?$AA@ 00073ee8     libeay32:obj_dat.obj
 0002:0000def8       ??_C@_0BI@KIODNBCM@id?9alg?9dh?9sig?9hmac?9sha1?$AA@ 00073ef8     libeay32:obj_dat.obj
 0002:0000df10       ??_C@_0BD@LAAJOBHI@id?9alg?9noSignature?$AA@ 00073f10     libeay32:obj_dat.obj
 0002:0000df24       ??_C@_0N@KIJONBNA@id?9alg?9des40?$AA@ 00073f24     libeay32:obj_dat.obj
 0002:0000df34       ??_C@_0BD@EEAPBNJJ@id?9regInfo?9certReq?$AA@ 00073f34     libeay32:obj_dat.obj
 0002:0000df48       ??_C@_0BF@FHFGHAHE@id?9regInfo?9utf8Pairs?$AA@ 00073f48     libeay32:obj_dat.obj
 0002:0000df60       ??_C@_0BL@GHBPLPHM@id?9regCtrl?9protocolEncrKey?$AA@ 00073f60     libeay32:obj_dat.obj
 0002:0000df7c       ??_C@_0BF@GFJPNJIG@id?9regCtrl?9oldCertID?$AA@ 00073f7c     libeay32:obj_dat.obj
 0002:0000df94       ??_C@_0BN@ONKHMAOP@id?9regCtrl?9pkiArchiveOptions?$AA@ 00073f94     libeay32:obj_dat.obj
 0002:0000dfb4       ??_C@_0BO@GJKPPLPL@id?9regCtrl?9pkiPublicationInfo?$AA@ 00073fb4     libeay32:obj_dat.obj
 0002:0000dfd4       ??_C@_0BJ@FBKKLLKP@id?9regCtrl?9authenticator?$AA@ 00073fd4     libeay32:obj_dat.obj
 0002:0000dff0       ??_C@_0BE@JDMKCIPE@id?9regCtrl?9regToken?$AA@ 00073ff0     libeay32:obj_dat.obj
 0002:0000e004       ??_C@_0L@BGHMJHOP@id?9regInfo?$AA@ 00074004     libeay32:obj_dat.obj
 0002:0000e010       ??_C@_0L@FDGKGANK@id?9regCtrl?$AA@ 00074010     libeay32:obj_dat.obj
 0002:0000e01c       ??_C@_0BF@CLCJJGFI@id?9it?9origPKIMessage?$AA@ 0007401c     libeay32:obj_dat.obj
 0002:0000e034       ??_C@_0BG@KCBHNMIK@id?9it?9confirmWaitTime?$AA@ 00074034     libeay32:obj_dat.obj
 0002:0000e04c       ??_C@_0BG@MKDHCJKF@id?9it?9implicitConfirm?$AA@ 0007404c     libeay32:obj_dat.obj
 0002:0000e064       ??_C@_0BE@FOOOCPMH@id?9it?9revPassphrase?$AA@ 00074064     libeay32:obj_dat.obj
 0002:0000e078       ??_C@_0BG@KPIIFBLH@id?9it?9keyPairParamRep?$AA@ 00074078     libeay32:obj_dat.obj
 0002:0000e090       ??_C@_0BG@LGJDGAPG@id?9it?9keyPairParamReq?$AA@ 00074090     libeay32:obj_dat.obj
 0002:0000e0a8       ??_C@_0BL@HBPHBFLO@id?9it?9subscriptionResponse?$AA@ 000740a8     libeay32:obj_dat.obj
 0002:0000e0c4       ??_C@_0BK@MKGCMKGI@id?9it?9subscriptionRequest?$AA@ 000740c4     libeay32:obj_dat.obj
 0002:0000e0e0       ??_C@_0BG@BPLKDJPD@id?9it?9unsupportedOIDs?$AA@ 000740e0     libeay32:obj_dat.obj
 0002:0000e0f8       ??_C@_0BB@NHKBGJFG@id?9it?9currentCRL?$AA@ 000740f8     libeay32:obj_dat.obj
 0002:0000e10c       ??_C@_0BG@OAKEHPLC@id?9it?9caKeyUpdateInfo?$AA@ 0007410c     libeay32:obj_dat.obj
 0002:0000e124       ??_C@_0BH@JFBOPDCH@id?9it?9preferredSymmAlg?$AA@ 00074124     libeay32:obj_dat.obj
 0002:0000e13c       ??_C@_0BG@FKIDIODL@id?9it?9encKeyPairTypes?$AA@ 0007413c     libeay32:obj_dat.obj
 0002:0000e154       ??_C@_0BH@POCENFBA@id?9it?9signKeyPairTypes?$AA@ 00074154     libeay32:obj_dat.obj
 0002:0000e16c       ??_C@_0BE@GJACIPND@id?9it?9caProtEncCert?$AA@ 0007416c     libeay32:obj_dat.obj
 0002:0000e180       ??_C@_04FFLIHJGD@dvcs?$AA@ 00074180     libeay32:obj_dat.obj
 0002:0000e188       ??_C@_04JJICJLBL@DVCS?$AA@ 00074188     libeay32:obj_dat.obj
 0002:0000e190       ??_C@_0L@DECDDCGF@IPSec?5User?$AA@ 00074190     libeay32:obj_dat.obj
 0002:0000e19c       ??_C@_09GOHJKOFF@ipsecUser?$AA@ 0007419c     libeay32:obj_dat.obj
 0002:0000e1a8       ??_C@_0N@EKDIOGLO@IPSec?5Tunnel?$AA@ 000741a8     libeay32:obj_dat.obj
 0002:0000e1b8       ??_C@_0M@GMMHFFHI@ipsecTunnel?$AA@ 000741b8     libeay32:obj_dat.obj
 0002:0000e1c4       ??_C@_0BB@JEJDAICO@IPSec?5End?5System?$AA@ 000741c4     libeay32:obj_dat.obj
 0002:0000e1d8       ??_C@_0P@MKBFMAPP@ipsecEndSystem?$AA@ 000741d8     libeay32:obj_dat.obj
 0002:0000e1e8       ??_C@_0L@HLNNPJEH@textNotice?$AA@ 000741e8     libeay32:obj_dat.obj
 0002:0000e1f4       ??_C@_0BG@JCJJBMAI@sbgp?9routerIdentifier?$AA@ 000741f4     libeay32:obj_dat.obj
 0002:0000e20c       ??_C@_0BG@OJEHJDKA@sbgp?9autonomousSysNum?$AA@ 0007420c     libeay32:obj_dat.obj
 0002:0000e224       ??_C@_0BB@NNCKCHBC@sbgp?9ipAddrBlock?$AA@ 00074224     libeay32:obj_dat.obj
 0002:0000e238       ??_C@_0L@DLGBNBJE@aaControls?$AA@ 00074238     libeay32:obj_dat.obj
 0002:0000e244       ??_C@_0N@FPEEOJCI@ac?9targeting?$AA@ 00074244     libeay32:obj_dat.obj
 0002:0000e254       ??_C@_0P@CIOHPJGC@ac?9auditEntity?$AA@ 00074254     libeay32:obj_dat.obj
 0002:0000e264       ??_C@_0N@FPMNLLM@qcStatements?$AA@ 00074264     libeay32:obj_dat.obj
 0002:0000e274       ??_C@_0P@KFKDECPH@Biometric?5Info?$AA@ 00074274     libeay32:obj_dat.obj
 0002:0000e284       ??_C@_0O@MPIIPAHM@biometricInfo?$AA@ 00074284     libeay32:obj_dat.obj
 0002:0000e294       ??_C@_0P@MMOAAMFD@id?9mod?9cmp2000?$AA@ 00074294     libeay32:obj_dat.obj
 0002:0000e2a4       ??_C@_0M@GHDGNJKI@id?9mod?9dvcs?$AA@ 000742a4     libeay32:obj_dat.obj
 0002:0000e2b0       ??_C@_0M@EACKLPKH@id?9mod?9ocsp?$AA@ 000742b0     libeay32:obj_dat.obj
 0002:0000e2bc       ??_C@_0BK@GAJOODEK@id?9mod?9timestamp?9protocol?$AA@ 000742bc     libeay32:obj_dat.obj
 0002:0000e2d8       ??_C@_0BG@EPPFBJNH@id?9mod?9attribute?9cert?$AA@ 000742d8     libeay32:obj_dat.obj
 0002:0000e2f0       ??_C@_0BJ@IGODAJIK@id?9mod?9qualified?9cert?993?$AA@ 000742f0     libeay32:obj_dat.obj
 0002:0000e30c       ??_C@_0BJ@GENFLKHG@id?9mod?9qualified?9cert?988?$AA@ 0007430c     libeay32:obj_dat.obj
 0002:0000e328       ??_C@_0L@MONEHBKH@id?9mod?9cmp?$AA@ 00074328     libeay32:obj_dat.obj
 0002:0000e334       ??_C@_0BG@NAFGGBFM@id?9mod?9kea?9profile?993?$AA@ 00074334     libeay32:obj_dat.obj
 0002:0000e34c       ??_C@_0BG@DCGANCKA@id?9mod?9kea?9profile?988?$AA@ 0007434c     libeay32:obj_dat.obj
 0002:0000e364       ??_C@_0L@KPDLDADF@id?9mod?9cmc?$AA@ 00074364     libeay32:obj_dat.obj
 0002:0000e370       ??_C@_0M@GHFPFJPB@id?9mod?9crmf?$AA@ 00074370     libeay32:obj_dat.obj
 0002:0000e37c       ??_C@_0BF@EOKAKKIK@id?9pkix1?9implicit?993?$AA@ 0007437c     libeay32:obj_dat.obj
 0002:0000e394       ??_C@_0BF@JEALIPIC@id?9pkix1?9explicit?993?$AA@ 00074394     libeay32:obj_dat.obj
 0002:0000e3ac       ??_C@_0BF@KMJGBJHG@id?9pkix1?9implicit?988?$AA@ 000743ac     libeay32:obj_dat.obj
 0002:0000e3c4       ??_C@_0BF@HGDNDMHO@id?9pkix1?9explicit?988?$AA@ 000743c4     libeay32:obj_dat.obj
 0002:0000e3dc       ??_C@_06PONIBOCI@id?9cct?$AA@ 000743dc     libeay32:obj_dat.obj
 0002:0000e3e4       ??_C@_06ELIJBHPL@id?9qcs?$AA@ 000743e4     libeay32:obj_dat.obj
 0002:0000e3ec       ??_C@_06GDGEDALH@id?9aca?$AA@ 000743ec     libeay32:obj_dat.obj
 0002:0000e3f4       ??_C@_06IOIOBGMI@id?9pda?$AA@ 000743f4     libeay32:obj_dat.obj
 0002:0000e3fc       ??_C@_05OHNJGMJE@id?9on?$AA@ 000743fc     libeay32:obj_dat.obj
 0002:0000e404       ??_C@_06PBMFLHLE@id?9cmc?$AA@ 00074404     libeay32:obj_dat.obj
 0002:0000e40c       ??_C@_06DOGCNAAM@id?9alg?$AA@ 0007440c     libeay32:obj_dat.obj
 0002:0000e414       ??_C@_07OMHOPMIM@id?9pkip?$AA@ 00074414     libeay32:obj_dat.obj
 0002:0000e41c       ??_C@_05FDHJOKPN@id?9it?$AA@ 0007441c     libeay32:obj_dat.obj
 0002:0000e424       ??_C@_05EBEMBIDF@id?9qt?$AA@ 00074424     libeay32:obj_dat.obj
 0002:0000e42c       ??_C@_0M@FNAFBNKE@id?9pkix?9mod?$AA@ 0007442c     libeay32:obj_dat.obj
 0002:0000e438       ??_C@_03ODADJPDG@md4?$AA@  00074438     libeay32:obj_dat.obj
 0002:0000e43c       ??_C@_03HLHMHGOI@MD4?$AA@  0007443c     libeay32:obj_dat.obj
 0002:0000e440       ??_C@_0CB@MICJDGGH@id?9smime?9cti?9ets?9proofOfCreation@ 00074440     libeay32:obj_dat.obj
 0002:0000e464       ??_C@_0CB@DDLMHEBC@id?9smime?9cti?9ets?9proofOfApproval@ 00074464     libeay32:obj_dat.obj
 0002:0000e488       ??_C@_0BP@ODCAFFCM@id?9smime?9cti?9ets?9proofOfSender?$AA@ 00074488     libeay32:obj_dat.obj
 0002:0000e4a8       ??_C@_0CB@ICJGPMEP@id?9smime?9cti?9ets?9proofOfDelivery@ 000744a8     libeay32:obj_dat.obj
 0002:0000e4cc       ??_C@_0CA@HNGOKBGC@id?9smime?9cti?9ets?9proofOfReceipt?$AA@ 000744cc     libeay32:obj_dat.obj
 0002:0000e4ec       ??_C@_0BP@BCHFEGHC@id?9smime?9cti?9ets?9proofOfOrigin?$AA@ 000744ec     libeay32:obj_dat.obj
 0002:0000e50c       ??_C@_0BN@GPAAHNOH@id?9smime?9spq?9ets?9sqt?9unotice?$AA@ 0007450c     libeay32:obj_dat.obj
 0002:0000e52c       ??_C@_0BJ@IMNKDGEG@id?9smime?9spq?9ets?9sqt?9uri?$AA@ 0007452c     libeay32:obj_dat.obj
 0002:0000e548       ??_C@_0BB@BMOBKAGE@id?9smime?9cd?9ldap?$AA@ 00074548     libeay32:obj_dat.obj
 0002:0000e55c       ??_C@_0BI@FIFDKKFJ@id?9smime?9alg?9CMSRC2wrap?$AA@ 0007455c     libeay32:obj_dat.obj
 0002:0000e574       ??_C@_0BJ@FOFHEIDB@id?9smime?9alg?9CMS3DESwrap?$AA@ 00074574     libeay32:obj_dat.obj
 0002:0000e590       ??_C@_0BC@COOODKPD@id?9smime?9alg?9ESDH?$AA@ 00074590     libeay32:obj_dat.obj
 0002:0000e5a4       ??_C@_0BF@JNCPAJCA@id?9smime?9alg?9RC2wrap?$AA@ 000745a4     libeay32:obj_dat.obj
 0002:0000e5bc       ??_C@_0BG@HHELPNAK@id?9smime?9alg?93DESwrap?$AA@ 000745bc     libeay32:obj_dat.obj
 0002:0000e5d4       ??_C@_0BJ@FIJMOHBJ@id?9smime?9alg?9ESDHwithRC2?$AA@ 000745d4     libeay32:obj_dat.obj
 0002:0000e5f0       ??_C@_0BK@JNJOCCCB@id?9smime?9alg?9ESDHwith3DES?$AA@ 000745f0     libeay32:obj_dat.obj
 0002:0000e60c       ??_C@_0BF@KEMAMBKF@id?9smime?9aa?9dvcs?9dvc?$AA@ 0007460c     libeay32:obj_dat.obj
 0002:0000e624       ??_C@_0BK@HDBIPLFI@id?9smime?9aa?9signatureType?$AA@ 00074624     libeay32:obj_dat.obj
 0002:0000e640       ??_C@_0CB@BEMKNJGO@id?9smime?9aa?9ets?9archiveTimeStamp@ 00074640     libeay32:obj_dat.obj
 0002:0000e664       ??_C@_0CB@CJNBPJE@id?9smime?9aa?9ets?9certCRLTimestamp@ 00074664     libeay32:obj_dat.obj
 0002:0000e688       ??_C@_0BN@HGLOGOFI@id?9smime?9aa?9ets?9escTimeStamp?$AA@ 00074688     libeay32:obj_dat.obj
 0002:0000e6a8       ??_C@_0CB@GOCEFPFO@id?9smime?9aa?9ets?9revocationValues@ 000746a8     libeay32:obj_dat.obj
 0002:0000e6cc       ??_C@_0BL@IFKOLDIG@id?9smime?9aa?9ets?9certValues?$AA@ 000746cc     libeay32:obj_dat.obj
 0002:0000e6e8       ??_C@_0BP@BCHJHNFO@id?9smime?9aa?9ets?9RevocationRefs?$AA@ 000746e8     libeay32:obj_dat.obj
 0002:0000e708       ??_C@_0CA@NKIOCHLG@id?9smime?9aa?9ets?9CertificateRefs?$AA@ 00074708     libeay32:obj_dat.obj
 0002:0000e728       ??_C@_0CB@GHKINGOH@id?9smime?9aa?9ets?9contentTimestamp@ 00074728     libeay32:obj_dat.obj
 0002:0000e74c       ??_C@_0BN@JFIFOPBH@id?9smime?9aa?9ets?9otherSigCert?$AA@ 0007474c     libeay32:obj_dat.obj
 0002:0000e76c       ??_C@_0BL@KDJDAGDC@id?9smime?9aa?9ets?9signerAttr?$AA@ 0007476c     libeay32:obj_dat.obj
 0002:0000e788       ??_C@_0BP@EODAELPO@id?9smime?9aa?9ets?9signerLocation?$AA@ 00074788     libeay32:obj_dat.obj
 0002:0000e7a8       ??_C@_0BP@OLIFPEIM@id?9smime?9aa?9ets?9commitmentType?$AA@ 000747a8     libeay32:obj_dat.obj
 0002:0000e7c8       ??_C@_0BM@GKFMJCFL@id?9smime?9aa?9ets?9sigPolicyId?$AA@ 000747c8     libeay32:obj_dat.obj
 0002:0000e7e4       ??_C@_0BL@DHJOIJNE@id?9smime?9aa?9timeStampToken?$AA@ 000747e4     libeay32:obj_dat.obj
 0002:0000e800       ??_C@_0BO@CEEOANBD@id?9smime?9aa?9smimeEncryptCerts?$AA@ 00074800     libeay32:obj_dat.obj
 0002:0000e820       ??_C@_0BP@LHGJLGIB@id?9smime?9aa?9signingCertificate?$AA@ 00074820     libeay32:obj_dat.obj
 0002:0000e840       ??_C@_0BK@LAPEFMP@id?9smime?9aa?9encrypKeyPref?$AA@ 00074840     libeay32:obj_dat.obj
 0002:0000e85c       ??_C@_0BN@LEFAEFL@id?9smime?9aa?9contentReference?$AA@ 0007485c     libeay32:obj_dat.obj
 0002:0000e87c       ??_C@_0BN@NFAAOKEA@id?9smime?9aa?9equivalentLabels?$AA@ 0007487c     libeay32:obj_dat.obj
 0002:0000e89c       ??_C@_0BF@CFNHFPDB@id?9smime?9aa?9macValue?$AA@ 0007489c     libeay32:obj_dat.obj
 0002:0000e8b4       ??_C@_0BO@KMJGIAMK@id?9smime?9aa?9contentIdentifier?$AA@ 000748b4     libeay32:obj_dat.obj
 0002:0000e8d4       ??_C@_0BN@GCCNOJCG@id?9smime?9aa?9encapContentType?$AA@ 000748d4     libeay32:obj_dat.obj
 0002:0000e8f4       ??_C@_0BJ@LJLDKMDH@id?9smime?9aa?9msgSigDigest?$AA@ 000748f4     libeay32:obj_dat.obj
 0002:0000e910       ??_C@_0BI@EMGPJFHB@id?9smime?9aa?9contentHint?$AA@ 00074910     libeay32:obj_dat.obj
 0002:0000e928       ??_C@_0BM@OEKGBMLE@id?9smime?9aa?9mlExpandHistory?$AA@ 00074928     libeay32:obj_dat.obj
 0002:0000e944       ??_C@_0BK@DNJNJILO@id?9smime?9aa?9securityLabel?$AA@ 00074944     libeay32:obj_dat.obj
 0002:0000e960       ??_C@_0BL@LMGNMPFD@id?9smime?9aa?9receiptRequest?$AA@ 00074960     libeay32:obj_dat.obj
 0002:0000e97c       ??_C@_0BN@POKJLKJJ@id?9smime?9ct?9DVCSResponseData?$AA@ 0007497c     libeay32:obj_dat.obj
 0002:0000e99c       ??_C@_0BM@MFKPCEGN@id?9smime?9ct?9DVCSRequestData?$AA@ 0007499c     libeay32:obj_dat.obj
 0002:0000e9b8       ??_C@_0BI@BGKPNMK@id?9smime?9ct?9contentInfo?$AA@ 000749b8     libeay32:obj_dat.obj
 0002:0000e9d0       ??_C@_0BE@FKPPBHI@id?9smime?9ct?9TDTInfo?$AA@ 000749d0     libeay32:obj_dat.obj
 0002:0000e9e4       ??_C@_0BE@KHNGFDDI@id?9smime?9ct?9TSTInfo?$AA@ 000749e4     libeay32:obj_dat.obj
 0002:0000e9f8       ??_C@_0BI@DBILCLFJ@id?9smime?9ct?9publishCert?$AA@ 000749f8     libeay32:obj_dat.obj
 0002:0000ea10       ??_C@_0BF@KGEHGOF@id?9smime?9ct?9authData?$AA@ 00074a10     libeay32:obj_dat.obj
 0002:0000ea28       ??_C@_0BE@GCHIHBHA@id?9smime?9ct?9receipt?$AA@ 00074a28     libeay32:obj_dat.obj
 0002:0000ea3c       ??_C@_0BP@CCCOHHAI@id?9smime?9mod?9ets?9eSigPolicy?997?$AA@ 00074a3c     libeay32:obj_dat.obj
 0002:0000ea5c       ??_C@_0BP@KEHEABPA@id?9smime?9mod?9ets?9eSigPolicy?988?$AA@ 00074a5c     libeay32:obj_dat.obj
 0002:0000ea7c       ??_C@_0BP@POGMGJII@id?9smime?9mod?9ets?9eSignature?997?$AA@ 00074a7c     libeay32:obj_dat.obj
 0002:0000ea9c       ??_C@_0BP@HIDGBPHA@id?9smime?9mod?9ets?9eSignature?988?$AA@ 00074a9c     libeay32:obj_dat.obj
 0002:0000eabc       ??_C@_0BE@PEENABNJ@id?9smime?9mod?9msg?9v3?$AA@ 00074abc     libeay32:obj_dat.obj
 0002:0000ead0       ??_C@_0BB@LBBEMNBN@id?9smime?9mod?9oid?$AA@ 00074ad0     libeay32:obj_dat.obj
 0002:0000eae4       ??_C@_0BB@MKJLIPEJ@id?9smime?9mod?9ess?$AA@ 00074ae4     libeay32:obj_dat.obj
 0002:0000eaf8       ??_C@_0BB@PJEIFOOP@id?9smime?9mod?9cms?$AA@ 00074af8     libeay32:obj_dat.obj
 0002:0000eb0c       ??_C@_0N@CFBKAPGC@id?9smime?9cti?$AA@ 00074b0c     libeay32:obj_dat.obj
 0002:0000eb1c       ??_C@_0N@PABBGIHI@id?9smime?9spq?$AA@ 00074b1c     libeay32:obj_dat.obj
 0002:0000eb2c       ??_C@_0M@LHBAJBP@id?9smime?9cd?$AA@ 00074b2c     libeay32:obj_dat.obj
 0002:0000eb38       ??_C@_0N@DKFBIKP@id?9smime?9alg?$AA@ 00074b38     libeay32:obj_dat.obj
 0002:0000eb48       ??_C@_0M@HFICCJDE@id?9smime?9aa?$AA@ 00074b48     libeay32:obj_dat.obj
 0002:0000eb54       ??_C@_0M@EBLDBLEO@id?9smime?9ct?$AA@ 00074b54     libeay32:obj_dat.obj
 0002:0000eb60       ??_C@_0N@GABIEKIN@id?9smime?9mod?$AA@ 00074b60     libeay32:obj_dat.obj
 0002:0000eb70       ??_C@_06DFGHEKNE@S?1MIME?$AA@ 00074b70     libeay32:obj_dat.obj
 0002:0000eb78       ??_C@_05HHBEAKJJ@SMIME?$AA@ 00074b78     libeay32:obj_dat.obj
 0002:0000eb80       ??_C@_05HGOIFJJD@pkcs5?$AA@ 00074b80     libeay32:obj_dat.obj
 0002:0000eb88       ??_C@_0L@DJCLIPOH@X9?457?5CM?5?$DP?$AA@ 00074b88     libeay32:obj_dat.obj
 0002:0000eb94       ??_C@_04CGFPFLFA@X9cm?$AA@ 00074b94     libeay32:obj_dat.obj
 0002:0000eb9c       ??_C@_05PAJLFBHD@X9?457?$AA@ 00074b9c     libeay32:obj_dat.obj
 0002:0000eba4       ??_C@_05OCCOPOJN@X9?957?$AA@ 00074ba4     libeay32:obj_dat.obj
 0002:0000ebac       ??_C@_0BD@NMCDOJHL@ISO?5US?5Member?5Body?$AA@ 00074bac     libeay32:obj_dat.obj
 0002:0000ebc0       ??_C@_06EKAADAMF@ISO?9US?$AA@ 00074bc0     libeay32:obj_dat.obj
 0002:0000ebc8       ??_C@_0BA@BGDAEHGF@ISO?5Member?5Body?$AA@ 00074bc8     libeay32:obj_dat.obj
 0002:0000ebd8       ??_C@_0M@CMICFDOA@member?9body?$AA@ 00074bd8     libeay32:obj_dat.obj
 0002:0000ebe4       ??_C@_03CMEHDJAL@iso?$AA@  00074be4     libeay32:obj_dat.obj
 0002:0000ebe8       ??_C@_03CBLMPEHH@ISO?$AA@  00074be8     libeay32:obj_dat.obj
 0002:0000ebec       ??_C@_0N@CPJNIPDD@OCSP?5Signing?$AA@ 00074bec     libeay32:obj_dat.obj
 0002:0000ebfc       ??_C@_0M@HBKJLKNM@OCSPSigning?$AA@ 00074bfc     libeay32:obj_dat.obj
 0002:0000ec08       ??_C@_0L@CABCENFK@CA?5Issuers?$AA@ 00074c08     libeay32:obj_dat.obj
 0002:0000ec14       ??_C@_09GFPECPIH@caIssuers?$AA@ 00074c14     libeay32:obj_dat.obj
 0002:0000ec20       ??_C@_04LOJOPNBE@OCSP?$AA@ 00074c20     libeay32:obj_dat.obj
 0002:0000ec28       ??_C@_0BN@EILCOJAN@Authority?5Information?5Access?$AA@ 00074c28     libeay32:obj_dat.obj
 0002:0000ec48       ??_C@_0BE@PLCGCINM@authorityInfoAccess?$AA@ 00074c48     libeay32:obj_dat.obj
 0002:0000ec5c       ??_C@_05BHKIKJBE@id?9ad?$AA@ 00074c5c     libeay32:obj_dat.obj
 0002:0000ec64       ??_C@_05BDFHFBBC@id?9pe?$AA@ 00074c64     libeay32:obj_dat.obj
 0002:0000ec6c       ??_C@_0M@DNNLEIMI@dnQualifier?$AA@ 00074c6c     libeay32:obj_dat.obj
 0002:0000ec78       ??_C@_04MEMAJGDJ@name?$AA@ 00074c78     libeay32:obj_dat.obj
 0002:0000ec80       ??_C@_0BC@GLHEKHCC@Extension?5Request?$AA@ 00074c80     libeay32:obj_dat.obj
 0002:0000ec94       ??_C@_06EJACAMDF@extReq?$AA@ 00074c94     libeay32:obj_dat.obj
 0002:0000ec9c       ??_C@_0BM@MEJAMAEO@Microsoft?5Extension?5Request?$AA@ 00074c9c     libeay32:obj_dat.obj
 0002:0000ecb8       ??_C@_08HCCJAOPJ@msExtReq?$AA@ 00074cb8     libeay32:obj_dat.obj
 0002:0000ecc4       ??_C@_0BG@JLHBEJLP@pbeWithSHA1AndDES?9CBC?$AA@ 00074cc4     libeay32:obj_dat.obj
 0002:0000ecdc       ??_C@_0N@GOPIPBOD@PBE?9SHA1?9DES?$AA@ 00074cdc     libeay32:obj_dat.obj
 0002:0000ecec       ??_C@_0BF@CKDLCJKD@pbeWithMD5AndRC2?9CBC?$AA@ 00074cec     libeay32:obj_dat.obj
 0002:0000ed04       ??_C@_0P@IDPFKEHM@PBE?9MD5?9RC2?964?$AA@ 00074d04     libeay32:obj_dat.obj
 0002:0000ed14       ??_C@_0BF@FOKDMACM@pbeWithMD2AndRC2?9CBC?$AA@ 00074d14     libeay32:obj_dat.obj
 0002:0000ed2c       ??_C@_0P@OHJEMJLF@PBE?9MD2?9RC2?964?$AA@ 00074d2c     libeay32:obj_dat.obj
 0002:0000ed3c       ??_C@_0BE@CEEFMCAI@S?1MIME?5Capabilities?$AA@ 00074d3c     libeay32:obj_dat.obj
 0002:0000ed50       ??_C@_0L@LCBJGKJG@SMIME?9CAPS?$AA@ 00074d50     libeay32:obj_dat.obj
 0002:0000ed5c       ??_C@_0L@CLELMECA@rc2?964?9cbc?$AA@ 00074d5c     libeay32:obj_dat.obj
 0002:0000ed68       ??_C@_0L@OPHBIFFL@RC2?964?9CBC?$AA@ 00074d68     libeay32:obj_dat.obj
 0002:0000ed74       ??_C@_0BN@KPMBKEE@Policy?5Qualifier?5User?5Notice?$AA@ 00074d74     libeay32:obj_dat.obj
 0002:0000ed94       ??_C@_0O@CJFHFAHE@id?9qt?9unotice?$AA@ 00074d94     libeay32:obj_dat.obj
 0002:0000eda4       ??_C@_0BF@HPKIKKPI@Policy?5Qualifier?5CPS?$AA@ 00074da4     libeay32:obj_dat.obj
 0002:0000edbc       ??_C@_09MIPGHKGJ@id?9qt?9cps?$AA@ 00074dbc     libeay32:obj_dat.obj
 0002:0000edc8       ??_C@_0N@KANOAIP@hmacWithSHA1?$AA@ 00074dc8     libeay32:obj_dat.obj
 0002:0000edd8       ??_C@_06DEJMPFNK@PBMAC1?$AA@ 00074dd8     libeay32:obj_dat.obj
 0002:0000ede0       ??_C@_05EPMADBBF@PBES2?$AA@ 00074de0     libeay32:obj_dat.obj
 0002:0000ede8       ??_C@_07KAOEJCFK@x509Crl?$AA@ 00074de8     libeay32:obj_dat.obj
 0002:0000edf0       ??_C@_0BA@BFAOBDKH@sdsiCertificate?$AA@ 00074df0     libeay32:obj_dat.obj
 0002:0000ee00       ??_C@_0BA@EMOFOCJL@x509Certificate?$AA@ 00074e00     libeay32:obj_dat.obj
 0002:0000ee10       ??_C@_0L@BCMHPPAO@localKeyID?$AA@ 00074e10     libeay32:obj_dat.obj
 0002:0000ee1c       ??_C@_0N@BGFMPLCM@friendlyName?$AA@ 00074e1c     libeay32:obj_dat.obj
 0002:0000ee2c       ??_C@_0BA@KAKLKBBC@safeContentsBag?$AA@ 00074e2c     libeay32:obj_dat.obj
 0002:0000ee3c       ??_C@_09DELDBPIE@secretBag?$AA@ 00074e3c     libeay32:obj_dat.obj
 0002:0000ee48       ??_C@_06JAFBIMLO@crlBag?$AA@ 00074e48     libeay32:obj_dat.obj
 0002:0000ee50       ??_C@_07FDLMCII@certBag?$AA@ 00074e50     libeay32:obj_dat.obj
 0002:0000ee58       ??_C@_0BE@ELJKIANF@pkcs8ShroudedKeyBag?$AA@ 00074e58     libeay32:obj_dat.obj
 0002:0000ee6c       ??_C@_06BFGNOIAI@keyBag?$AA@ 00074e6c     libeay32:obj_dat.obj
 0002:0000ee74       ??_C@_0BL@CKNKIMON@pbeWithSHA1And40BitRC2?9CBC?$AA@ 00074e74     libeay32:obj_dat.obj
 0002:0000ee90       ??_C@_0BA@MNBMNMAN@PBE?9SHA1?9RC2?940?$AA@ 00074e90     libeay32:obj_dat.obj
 0002:0000eea0       ??_C@_0BM@DOLDINME@pbeWithSHA1And128BitRC2?9CBC?$AA@ 00074ea0     libeay32:obj_dat.obj
 0002:0000eebc       ??_C@_0BB@FNLJPIMG@PBE?9SHA1?9RC2?9128?$AA@ 00074ebc     libeay32:obj_dat.obj
 0002:0000eed0       ??_C@_0CB@NCMPKEGH@pbeWithSHA1And2?9KeyTripleDES?9CBC@ 00074ed0     libeay32:obj_dat.obj
 0002:0000eef4       ??_C@_0O@HOHOOIGM@PBE?9SHA1?92DES?$AA@ 00074ef4     libeay32:obj_dat.obj
 0002:0000ef04       ??_C@_0CB@FCNCEDP@pbeWithSHA1And3?9KeyTripleDES?9CBC@ 00074f04     libeay32:obj_dat.obj
 0002:0000ef28       ??_C@_0O@EDBOMBNM@PBE?9SHA1?93DES?$AA@ 00074f28     libeay32:obj_dat.obj
 0002:0000ef38       ??_C@_0BH@OCAEJMIL@pbeWithSHA1And40BitRC4?$AA@ 00074f38     libeay32:obj_dat.obj
 0002:0000ef50       ??_C@_0BA@ECFMCJKN@PBE?9SHA1?9RC4?940?$AA@ 00074f50     libeay32:obj_dat.obj
 0002:0000ef60       ??_C@_0BI@LBIFCLPB@pbeWithSHA1And128BitRC4?$AA@ 00074f60     libeay32:obj_dat.obj
 0002:0000ef78       ??_C@_0BB@ILOABLNL@PBE?9SHA1?9RC4?9128?$AA@ 00074f78     libeay32:obj_dat.obj
 0002:0000ef8c       ??_C@_0BD@PNDCMCDK@Strong?5Extranet?5ID?$AA@ 00074f8c     libeay32:obj_dat.obj
 0002:0000efa0       ??_C@_07DKMNOLMH@SXNetID?$AA@ 00074fa0     libeay32:obj_dat.obj
 0002:0000efa8       ??_C@_0BA@JDBEMONE@Invalidity?5Date?$AA@ 00074fa8     libeay32:obj_dat.obj
 0002:0000efb8       ??_C@_0P@BKEGCOMO@invalidityDate?$AA@ 00074fb8     libeay32:obj_dat.obj
 0002:0000efc8       ??_C@_0BH@GODIEFKG@X509v3?5CRL?5Reason?5Code?$AA@ 00074fc8     libeay32:obj_dat.obj
 0002:0000efe0       ??_C@_09MCDAGILE@CRLReason?$AA@ 00074fe0     libeay32:obj_dat.obj
 0002:0000efec       ??_C@_0BL@HLNLPBHP@X509v3?5Delta?5CRL?5Indicator?$AA@ 00074fec     libeay32:obj_dat.obj
 0002:0000f008       ??_C@_08ECNAKPJJ@deltaCRL?$AA@ 00075008     libeay32:obj_dat.obj
 0002:0000f014       ??_C@_0BN@MDNLHLBL@Netscape?5Server?5Gated?5Crypto?$AA@ 00075014     libeay32:obj_dat.obj
 0002:0000f034       ??_C@_05LFIIINKG@nsSGC?$AA@ 00075034     libeay32:obj_dat.obj
 0002:0000f03c       ??_C@_0CA@IJODBCMB@Microsoft?5Encrypted?5File?5System?$AA@ 0007503c     libeay32:obj_dat.obj
 0002:0000f05c       ??_C@_05NGOIPCN@msEFS?$AA@ 0007505c     libeay32:obj_dat.obj
 0002:0000f064       ??_C@_0BO@FBDDCLK@Microsoft?5Server?5Gated?5Crypto?$AA@ 00075064     libeay32:obj_dat.obj
 0002:0000f084       ??_C@_05DDBMPPAI@msSGC?$AA@ 00075084     libeay32:obj_dat.obj
 0002:0000f08c       ??_C@_0BN@GNMCHNOI@Microsoft?5Trust?5List?5Signing?$AA@ 0007508c     libeay32:obj_dat.obj
 0002:0000f0ac       ??_C@_09HGCLLDPK@msCTLSign?$AA@ 000750ac     libeay32:obj_dat.obj
 0002:0000f0b8       ??_C@_0CC@GKFNEBFA@Microsoft?5Commercial?5Code?5Signin@ 000750b8     libeay32:obj_dat.obj
 0002:0000f0dc       ??_C@_09PDGAMFAO@msCodeCom?$AA@ 000750dc     libeay32:obj_dat.obj
 0002:0000f0e8       ??_C@_0CC@NDDHKAMP@Microsoft?5Individual?5Code?5Signin@ 000750e8     libeay32:obj_dat.obj
 0002:0000f10c       ??_C@_09EMNNPEBE@msCodeInd?$AA@ 0007510c     libeay32:obj_dat.obj
 0002:0000f118       ??_C@_0O@GMMBLMEE@Time?5Stamping?$AA@ 00075118     libeay32:obj_dat.obj
 0002:0000f128       ??_C@_0N@LONEBHPN@timeStamping?$AA@ 00075128     libeay32:obj_dat.obj
 0002:0000f138       ??_C@_0BC@BLBGFKKG@E?9mail?5Protection?$AA@ 00075138     libeay32:obj_dat.obj
 0002:0000f14c       ??_C@_0BA@NPCFDPCO@emailProtection?$AA@ 0007514c     libeay32:obj_dat.obj
 0002:0000f15c       ??_C@_0N@CHJHLHFC@Code?5Signing?$AA@ 0007515c     libeay32:obj_dat.obj
 0002:0000f16c       ??_C@_0M@OJNCNGJ@codeSigning?$AA@ 0007516c     libeay32:obj_dat.obj
 0002:0000f178       ??_C@_0BO@FEMCBEOF@TLS?5Web?5Client?5Authentication?$AA@ 00075178     libeay32:obj_dat.obj
 0002:0000f198       ??_C@_0L@HCMKLLOP@clientAuth?$AA@ 00075198     libeay32:obj_dat.obj
 0002:0000f1a4       ??_C@_0BO@HPFOJNNE@TLS?5Web?5Server?5Authentication?$AA@ 000751a4     libeay32:obj_dat.obj
 0002:0000f1c4       ??_C@_0L@CINGAJGN@serverAuth?$AA@ 000751c4     libeay32:obj_dat.obj
 0002:0000f1d0       ??_C@_05DEJBPLJH@id?9kp?$AA@ 000751d0     libeay32:obj_dat.obj
 0002:0000f1d8       ??_C@_04EAPCHJAG@PKIX?$AA@ 000751d8     libeay32:obj_dat.obj
 0002:0000f1e0       ??_C@_0BK@KFMGFBEG@X509v3?5Extended?5Key?5Usage?$AA@ 000751e0     libeay32:obj_dat.obj
 0002:0000f1fc       ??_C@_0BB@DGDLKPHD@extendedKeyUsage?$AA@ 000751fc     libeay32:obj_dat.obj
 0002:0000f210       ??_C@_0BB@KGNEOBKL@zlib?5compression?$AA@ 00075210     libeay32:obj_dat.obj
 0002:0000f224       ??_C@_04CHLIKDMF@ZLIB?$AA@ 00075224     libeay32:obj_dat.obj
 0002:0000f22c       ??_C@_0BH@CAEIMNHD@run?5length?5compression?$AA@ 0007522c     libeay32:obj_dat.obj
 0002:0000f244       ??_C@_03ELDBCICO@RLE?$AA@  00075244     libeay32:obj_dat.obj
 0002:0000f248       ??_C@_07NLMEMEEK@rc5?9ofb?$AA@ 00075248     libeay32:obj_dat.obj
 0002:0000f250       ??_C@_07OAPEFCPM@RC5?9OFB?$AA@ 00075250     libeay32:obj_dat.obj
 0002:0000f258       ??_C@_07JBBCHLPC@rc5?9cfb?$AA@ 00075258     libeay32:obj_dat.obj
 0002:0000f260       ??_C@_07KKCCONEE@RC5?9CFB?$AA@ 00075260     libeay32:obj_dat.obj
 0002:0000f268       ??_C@_07LCLCOGMF@rc5?9ecb?$AA@ 00075268     libeay32:obj_dat.obj
 0002:0000f270       ??_C@_07IJICHAHD@RC5?9ECB?$AA@ 00075270     libeay32:obj_dat.obj
 0002:0000f278       ??_C@_07IPAAOCGP@rc5?9cbc?$AA@ 00075278     libeay32:obj_dat.obj
 0002:0000f280       ??_C@_07LEDAHENJ@RC5?9CBC?$AA@ 00075280     libeay32:obj_dat.obj
 0002:0000f288       ??_C@_0BB@DCJDAKFH@ripemd160WithRSA?$AA@ 00075288     libeay32:obj_dat.obj
 0002:0000f29c       ??_C@_0O@JPOIHGOH@RSA?9RIPEMD160?$AA@ 0007529c     libeay32:obj_dat.obj
 0002:0000f2ac       ??_C@_09EDIPKBN@ripemd160?$AA@ 000752ac     libeay32:obj_dat.obj
 0002:0000f2b8       ??_C@_09DJDCAKJG@RIPEMD160?$AA@ 000752b8     libeay32:obj_dat.obj
 0002:0000f2c4       ??_C@_0O@GMANLAEO@dsaEncryption?$AA@ 000752c4     libeay32:obj_dat.obj
 0002:0000f2d4       ??_C@_03ENFFABCE@DSA?$AA@  000752d4     libeay32:obj_dat.obj
 0002:0000f2d8       ??_C@_0M@KECGAPAA@sha1WithRSA?$AA@ 000752d8     libeay32:obj_dat.obj
 0002:0000f2e4       ??_C@_0L@EMMEGDKK@RSA?9SHA1?92?$AA@ 000752e4     libeay32:obj_dat.obj
 0002:0000f2f0       ??_C@_08GOLKFMKI@md5?9sha1?$AA@ 000752f0     libeay32:obj_dat.obj
 0002:0000f2fc       ??_C@_08EMIDHKIH@MD5?9SHA1?$AA@ 000752fc     libeay32:obj_dat.obj
 0002:0000f308       ??_C@_0M@EFJKPOPH@dsaWithSHA1?$AA@ 00075308     libeay32:obj_dat.obj
 0002:0000f314       ??_C@_08IOHJAANG@DSA?9SHA1?$AA@ 00075314     libeay32:obj_dat.obj
 0002:0000f320       ??_C@_0BG@JCFINJGL@pbeWithMD5AndCast5CBC?$AA@ 00075320     libeay32:obj_dat.obj
 0002:0000f338       ??_C@_09ECHHPLBP@cast5?9ofb?$AA@ 00075338     libeay32:obj_dat.obj
 0002:0000f344       ??_C@_09LEOLOMNK@CAST5?9OFB?$AA@ 00075344     libeay32:obj_dat.obj
 0002:0000f350       ??_C@_09IKBEEKH@cast5?9cfb?$AA@ 00075350     libeay32:obj_dat.obj
 0002:0000f35c       ??_C@_09PODNFDGC@CAST5?9CFB?$AA@ 0007535c     libeay32:obj_dat.obj
 0002:0000f368       ??_C@_09CLABNJJA@cast5?9ecb?$AA@ 00075368     libeay32:obj_dat.obj
 0002:0000f374       ??_C@_09NNJNMOFF@CAST5?9ECB?$AA@ 00075374     libeay32:obj_dat.obj
 0002:0000f380       ??_C@_09BGLDNNDK@cast5?9cbc?$AA@ 00075380     libeay32:obj_dat.obj
 0002:0000f38c       ??_C@_09OACPMKPP@CAST5?9CBC?$AA@ 0007538c     libeay32:obj_dat.obj
 0002:0000f398       ??_C@_0M@PPJNHBMP@description?$AA@ 00075398     libeay32:obj_dat.obj
 0002:0000f3a4       ??_C@_05PHLGJONK@title?$AA@ 000753a4     libeay32:obj_dat.obj
 0002:0000f3ac       ??_C@_0N@OMOHFKCJ@serialNumber?$AA@ 000753ac     libeay32:obj_dat.obj
 0002:0000f3bc       ??_C@_0L@CNDCBNIN@md5WithRSA?$AA@ 000753bc     libeay32:obj_dat.obj
 0002:0000f3c8       ??_C@_0L@NACEPNFC@RSA?9NP?9MD5?$AA@ 000753c8     libeay32:obj_dat.obj
 0002:0000f3d4       ??_C@_0BP@EGHJGANM@X509v3?5CRL?5Distribution?5Points?$AA@ 000753d4     libeay32:obj_dat.obj
 0002:0000f3f4       ??_C@_0BG@CCHGOEBE@crlDistributionPoints?$AA@ 000753f4     libeay32:obj_dat.obj
 0002:0000f40c       ??_C@_08PAKNLFON@initials?$AA@ 0007540c     libeay32:obj_dat.obj
 0002:0000f418       ??_C@_07LNKFHLHI@surname?$AA@ 00075418     libeay32:obj_dat.obj
 0002:0000f420       ??_C@_02LONEIP@SN?$AA@     00075420     libeay32:obj_dat.obj
 0002:0000f424       ??_C@_09GCBNJLNP@givenName?$AA@ 00075424     libeay32:obj_dat.obj
 0002:0000f430       ??_C@_02BLJBNPCD@GN?$AA@   00075430     libeay32:obj_dat.obj
 0002:0000f434       ??_C@_0L@CHEFJHBP@rc2?940?9cbc?$AA@ 00075434     libeay32:obj_dat.obj
 0002:0000f440       ??_C@_0L@ODHPNGGE@RC2?940?9CBC?$AA@ 00075440     libeay32:obj_dat.obj
 0002:0000f44c       ??_C@_06GNNJIOGN@rc4?940?$AA@ 0007544c     libeay32:obj_dat.obj
 0002:0000f454       ??_C@_06KFMILCMH@RC4?940?$AA@ 00075454     libeay32:obj_dat.obj
 0002:0000f45c       ??_C@_0M@HGGNEPNN@mdc2WithRSA?$AA@ 0007545c     libeay32:obj_dat.obj
 0002:0000f468       ??_C@_08OMAMCKNL@RSA?9MDC2?$AA@ 00075468     libeay32:obj_dat.obj
 0002:0000f474       ??_C@_04ELNKPKEC@mdc2?$AA@ 00075474     libeay32:obj_dat.obj
 0002:0000f47c       ??_C@_04BCGEDMJI@MDC2?$AA@ 0007547c     libeay32:obj_dat.obj
 0002:0000f484       ??_C@_06OBJCCDFN@bf?9ofb?$AA@ 00075484     libeay32:obj_dat.obj
 0002:0000f48c       ??_C@_06CEHINCIL@BF?9OFB?$AA@ 0007548c     libeay32:obj_dat.obj
 0002:0000f494       ??_C@_06KLEEJMOF@bf?9cfb?$AA@ 00075494     libeay32:obj_dat.obj
 0002:0000f49c       ??_C@_06GOKOGNDD@BF?9CFB?$AA@ 0007549c     libeay32:obj_dat.obj
 0002:0000f4a4       ??_C@_06IIOEABNC@bf?9ecb?$AA@ 000754a4     libeay32:obj_dat.obj
 0002:0000f4ac       ??_C@_06ENAOPAAE@BF?9ECB?$AA@ 000754ac     libeay32:obj_dat.obj
 0002:0000f4b4       ??_C@_06LFFGAFHI@bf?9cbc?$AA@ 000754b4     libeay32:obj_dat.obj
 0002:0000f4bc       ??_C@_06HALMPEKO@BF?9CBC?$AA@ 000754bc     libeay32:obj_dat.obj
 0002:0000f4c4       ??_C@_0CA@GODCHEHD@X509v3?5Authority?5Key?5Identifier?$AA@ 000754c4     libeay32:obj_dat.obj
 0002:0000f4e4       ??_C@_0BH@ICHFALGD@authorityKeyIdentifier?$AA@ 000754e4     libeay32:obj_dat.obj
 0002:0000f4fc       ??_C@_0BM@OOFGKLPK@X509v3?5Certificate?5Policies?$AA@ 000754fc     libeay32:obj_dat.obj
 0002:0000f518       ??_C@_0BE@OLMJNPEP@certificatePolicies?$AA@ 00075518     libeay32:obj_dat.obj
 0002:0000f52c       ??_C@_0BC@PCPNBDDJ@X509v3?5CRL?5Number?$AA@ 0007552c     libeay32:obj_dat.obj
 0002:0000f540       ??_C@_09JDPHHKMA@crlNumber?$AA@ 00075540     libeay32:obj_dat.obj
 0002:0000f54c       ??_C@_0BJ@FBHDAJML@X509v3?5Basic?5Constraints?$AA@ 0007554c     libeay32:obj_dat.obj
 0002:0000f568       ??_C@_0BB@IKNGJCLO@basicConstraints?$AA@ 00075568     libeay32:obj_dat.obj
 0002:0000f57c       ??_C@_0BP@FMJCGPCG@X509v3?5Issuer?5Alternative?5Name?$AA@ 0007557c     libeay32:obj_dat.obj
 0002:0000f59c       ??_C@_0O@DLIFHFCD@issuerAltName?$AA@ 0007559c     libeay32:obj_dat.obj
 0002:0000f5ac       ??_C@_0CA@OPCJJLNF@X509v3?5Subject?5Alternative?5Name?$AA@ 000755ac     libeay32:obj_dat.obj
 0002:0000f5cc       ??_C@_0P@EOFJHHKD@subjectAltName?$AA@ 000755cc     libeay32:obj_dat.obj
 0002:0000f5dc       ??_C@_0CA@CLGHAMIP@X509v3?5Private?5Key?5Usage?5Period?$AA@ 000755dc     libeay32:obj_dat.obj
 0002:0000f5fc       ??_C@_0BG@JOIAJOMN@privateKeyUsagePeriod?$AA@ 000755fc     libeay32:obj_dat.obj
 0002:0000f614       ??_C@_0BB@BPPOKNBO@X509v3?5Key?5Usage?$AA@ 00075614     libeay32:obj_dat.obj
 0002:0000f628       ??_C@_08BCICBOHF@keyUsage?$AA@ 00075628     libeay32:obj_dat.obj
 0002:0000f634       ??_C@_0BO@ILPNOINJ@X509v3?5Subject?5Key?5Identifier?$AA@ 00075634     libeay32:obj_dat.obj
 0002:0000f654       ??_C@_0BF@MOEDIMBI@subjectKeyIdentifier?$AA@ 00075654     libeay32:obj_dat.obj
 0002:0000f66c       ??_C@_05NDHEMDL@id?9ce?$AA@ 0007566c     libeay32:obj_dat.obj
 0002:0000f674       ??_C@_08KPMCEEEO@desx?9cbc?$AA@ 00075674     libeay32:obj_dat.obj
 0002:0000f680       ??_C@_08BBKPFFGN@DESX?9CBC?$AA@ 00075680     libeay32:obj_dat.obj
 0002:0000f68c       ??_C@_0BO@KKKBMKBD@Netscape?5Certificate?5Sequence?$AA@ 0007568c     libeay32:obj_dat.obj
 0002:0000f6ac       ??_C@_0P@OCCBBJKK@nsCertSequence?$AA@ 000756ac     libeay32:obj_dat.obj
 0002:0000f6bc       ??_C@_0BB@DCFBGIOA@Netscape?5Comment?$AA@ 000756bc     libeay32:obj_dat.obj
 0002:0000f6d0       ??_C@_09BALDFHMJ@nsComment?$AA@ 000756d0     libeay32:obj_dat.obj
 0002:0000f6dc       ??_C@_0BJ@GMBLEMAL@Netscape?5SSL?5Server?5Name?$AA@ 000756dc     libeay32:obj_dat.obj
 0002:0000f6f8       ??_C@_0BA@KNOKNJNE@nsSslServerName?$AA@ 000756f8     libeay32:obj_dat.obj
 0002:0000f708       ??_C@_0BH@EMEFHLC@Netscape?5CA?5Policy?5Url?$AA@ 00075708     libeay32:obj_dat.obj
 0002:0000f720       ??_C@_0O@DHDIMJD@nsCaPolicyUrl?$AA@ 00075720     libeay32:obj_dat.obj
 0002:0000f730       ??_C@_0BF@FKENIIHB@Netscape?5Renewal?5Url?$AA@ 00075730     libeay32:obj_dat.obj
 0002:0000f748       ??_C@_0N@JILHKMLM@nsRenewalUrl?$AA@ 00075748     libeay32:obj_dat.obj
 0002:0000f758       ??_C@_0BL@EMOMOFDB@Netscape?5CA?5Revocation?5Url?$AA@ 00075758     libeay32:obj_dat.obj
 0002:0000f774       ??_C@_0BC@IKAPCMGG@nsCaRevocationUrl?$AA@ 00075774     libeay32:obj_dat.obj
 0002:0000f788       ??_C@_0BI@BCDINENC@Netscape?5Revocation?5Url?$AA@ 00075788     libeay32:obj_dat.obj
 0002:0000f7a0       ??_C@_0BA@DKPGPAKK@nsRevocationUrl?$AA@ 000757a0     libeay32:obj_dat.obj
 0002:0000f7b0       ??_C@_0BC@DIHCABP@Netscape?5Base?5Url?$AA@ 000757b0     libeay32:obj_dat.obj
 0002:0000f7c4       ??_C@_09OCIGDOMM@nsBaseUrl?$AA@ 000757c4     libeay32:obj_dat.obj
 0002:0000f7d0       ??_C@_0BD@NFPBEMEE@Netscape?5Cert?5Type?$AA@ 000757d0     libeay32:obj_dat.obj
 0002:0000f7e4       ??_C@_0L@IICLKDNB@nsCertType?$AA@ 000757e4     libeay32:obj_dat.obj
 0002:0000f7f0       ??_C@_0BA@DDLLDHEM@dsaWithSHA1?9old?$AA@ 000757f0     libeay32:obj_dat.obj
 0002:0000f800       ??_C@_0N@ONIKBKNK@DSA?9SHA1?9old?$AA@ 00075800     libeay32:obj_dat.obj
 0002:0000f810       ??_C@_06KBOEGBGA@PBKDF2?$AA@ 00075810     libeay32:obj_dat.obj
 0002:0000f818       ??_C@_0BG@IBNNJING@pbeWithSHA1AndRC2?9CBC?$AA@ 00075818     libeay32:obj_dat.obj
 0002:0000f830       ??_C@_0BA@KKPEMNGH@PBE?9SHA1?9RC2?964?$AA@ 00075830     libeay32:obj_dat.obj
 0002:0000f840       ??_C@_0BC@FFHHBCCH@dsaEncryption?9old?$AA@ 00075840     libeay32:obj_dat.obj
 0002:0000f854       ??_C@_07PLHLFGGF@DSA?9old?$AA@ 00075854     libeay32:obj_dat.obj
 0002:0000f85c       ??_C@_0L@BEHMICBH@dsaWithSHA?$AA@ 0007585c     libeay32:obj_dat.obj
 0002:0000f868       ??_C@_07JGDBCPKH@DSA?9SHA?$AA@ 00075868     libeay32:obj_dat.obj
 0002:0000f870       ??_C@_0BG@DALFFFBE@sha1WithRSAEncryption?$AA@ 00075870     libeay32:obj_dat.obj
 0002:0000f888       ??_C@_08FBKDDLCN@RSA?9SHA1?$AA@ 00075888     libeay32:obj_dat.obj
 0002:0000f894       ??_C@_04PGHFOLLE@sha1?$AA@ 00075894     libeay32:obj_dat.obj
 0002:0000f89c       ??_C@_04KPMLCNGO@SHA1?$AA@ 0007589c     libeay32:obj_dat.obj
 0002:0000f8a4       ??_C@_0N@LODGAID@des?9ede3?9ofb?$AA@ 000758a4     libeay32:obj_dat.obj
 0002:0000f8b4       ??_C@_0N@JPPBGLEM@DES?9EDE3?9OFB?$AA@ 000758b4     libeay32:obj_dat.obj
 0002:0000f8c4       ??_C@_0M@BOHDOFGF@des?9ede?9ofb?$AA@ 000758c4     libeay32:obj_dat.obj
 0002:0000f8d0       ??_C@_0M@PDBPCBBK@DES?9EDE?9OFB?$AA@ 000758d0     libeay32:obj_dat.obj
 0002:0000f8dc       ??_C@_0N@EBDFNPDL@des?9ede3?9cfb?$AA@ 000758dc     libeay32:obj_dat.obj
 0002:0000f8ec       ??_C@_0N@NFCHNEPE@DES?9EDE3?9CFB?$AA@ 000758ec     libeay32:obj_dat.obj
 0002:0000f8fc       ??_C@_0M@FEKFFKNN@des?9ede?9cfb?$AA@ 000758fc     libeay32:obj_dat.obj
 0002:0000f908       ??_C@_0M@LJMJJOKC@DES?9EDE?9CFB?$AA@ 00075908     libeay32:obj_dat.obj
 0002:0000f914       ??_C@_0BD@JJEILMNP@Netscape?5Data?5Type?$AA@ 00075914     libeay32:obj_dat.obj
 0002:0000f928       ??_C@_0L@FIMLGGPA@nsDataType?$AA@ 00075928     libeay32:obj_dat.obj
 0002:0000f934       ??_C@_0BP@LHPGKGFM@Netscape?5Certificate?5Extension?$AA@ 00075934     libeay32:obj_dat.obj
 0002:0000f954       ??_C@_09JDCKDNMG@nsCertExt?$AA@ 00075954     libeay32:obj_dat.obj
 0002:0000f960       ??_C@_0BO@IAIBEBGO@Netscape?5Communications?5Corp?4?$AA@ 00075960     libeay32:obj_dat.obj
 0002:0000f980       ??_C@_08BDEPHMAF@Netscape?$AA@ 00075980     libeay32:obj_dat.obj
 0002:0000f98c       ??_C@_0BO@LDCCNBPE@extendedCertificateAttributes?$AA@ 0007598c     libeay32:obj_dat.obj
 0002:0000f9ac       ??_C@_0BE@MACPCAPF@unstructuredAddress?$AA@ 000759ac     libeay32:obj_dat.obj
 0002:0000f9c0       ??_C@_0BC@OKHONEEM@challengePassword?$AA@ 000759c0     libeay32:obj_dat.obj
 0002:0000f9d4       ??_C@_0BB@IPFGMODP@countersignature?$AA@ 000759d4     libeay32:obj_dat.obj
 0002:0000f9e8       ??_C@_0M@IJBJCCMP@signingTime?$AA@ 000759e8     libeay32:obj_dat.obj
 0002:0000f9f4       ??_C@_0O@JDGJDGC@messageDigest?$AA@ 000759f4     libeay32:obj_dat.obj
 0002:0000fa04       ??_C@_0M@DOEFOEJD@contentType?$AA@ 00075a04     libeay32:obj_dat.obj
 0002:0000fa10       ??_C@_0BB@CJIILOEM@unstructuredName?$AA@ 00075a10     libeay32:obj_dat.obj
 0002:0000fa24       ??_C@_0N@IHLBAGEP@emailAddress?$AA@ 00075a24     libeay32:obj_dat.obj
 0002:0000fa34       ??_C@_05NKFNBGJP@pkcs9?$AA@ 00075a34     libeay32:obj_dat.obj
 0002:0000fa3c       ??_C@_08OGDEHPAF@idea?9ofb?$AA@ 00075a3c     libeay32:obj_dat.obj
 0002:0000fa48       ??_C@_08FIFJGOCG@IDEA?9OFB?$AA@ 00075a48     libeay32:obj_dat.obj
 0002:0000fa54       ??_C@_07NLMBCAKN@des?9ofb?$AA@ 00075a54     libeay32:obj_dat.obj
 0002:0000fa5c       ??_C@_07OHFNLDCN@DES?9OFB?$AA@ 00075a5c     libeay32:obj_dat.obj
 0002:0000fa64       ??_C@_0N@FPCHEGKG@des?9ede3?9cbc?$AA@ 00075a64     libeay32:obj_dat.obj
 0002:0000fa74       ??_C@_0N@MLDFENGJ@DES?9EDE3?9CBC?$AA@ 00075a74     libeay32:obj_dat.obj
 0002:0000fa84       ??_C@_0M@EKLHMDEA@des?9ede?9cbc?$AA@ 00075a84     libeay32:obj_dat.obj
 0002:0000fa90       ??_C@_0M@KHNLAHDP@DES?9EDE?9CBC?$AA@ 00075a90     libeay32:obj_dat.obj
 0002:0000fa9c       ??_C@_0BF@LIDINENF@shaWithRSAEncryption?$AA@ 00075a9c     libeay32:obj_dat.obj
 0002:0000fab4       ??_C@_07CMOFBHAL@RSA?9SHA?$AA@ 00075ab4     libeay32:obj_dat.obj
 0002:0000fabc       ??_C@_03JNBDOPOP@sha?$AA@  00075abc     libeay32:obj_dat.obj
 0002:0000fac0       ??_C@_03JAOICCJD@SHA?$AA@  00075ac0     libeay32:obj_dat.obj
 0002:0000fac4       ??_C@_07MGMBPEPC@rc2?9ofb?$AA@ 00075ac4     libeay32:obj_dat.obj
 0002:0000facc       ??_C@_07PNPBGCEE@RC2?9OFB?$AA@ 00075acc     libeay32:obj_dat.obj
 0002:0000fad4       ??_C@_07IMBHELEK@rc2?9cfb?$AA@ 00075ad4     libeay32:obj_dat.obj
 0002:0000fadc       ??_C@_07LHCHNNPM@RC2?9CFB?$AA@ 00075adc     libeay32:obj_dat.obj
 0002:0000fae4       ??_C@_07KPLHNGHN@rc2?9ecb?$AA@ 00075ae4     libeay32:obj_dat.obj
 0002:0000faec       ??_C@_07JEIHEAML@RC2?9ECB?$AA@ 00075aec     libeay32:obj_dat.obj
 0002:0000faf4       ??_C@_07JCAFNCNH@rc2?9cbc?$AA@ 00075af4     libeay32:obj_dat.obj
 0002:0000fafc       ??_C@_07KJDFEEGB@RC2?9CBC?$AA@ 00075afc     libeay32:obj_dat.obj
 0002:0000fb04       ??_C@_08IPECFNIK@idea?9ecb?$AA@ 00075b04     libeay32:obj_dat.obj
 0002:0000fb10       ??_C@_08DBCPEMKJ@IDEA?9ECB?$AA@ 00075b10     libeay32:obj_dat.obj
 0002:0000fb1c       ??_C@_08KMOCMALN@idea?9cfb?$AA@ 00075b1c     libeay32:obj_dat.obj
 0002:0000fb28       ??_C@_08BCIPNBJO@IDEA?9CFB?$AA@ 00075b28     libeay32:obj_dat.obj
 0002:0000fb34       ??_C@_08LCPAFJCA@idea?9cbc?$AA@ 00075b34     libeay32:obj_dat.obj
 0002:0000fb40       ??_C@_08MJNEIAD@IDEA?9CBC?$AA@ 00075b40     libeay32:obj_dat.obj
 0002:0000fb4c       ??_C@_08LJCBLNOK@des?9ede3?$AA@ 00075b4c     libeay32:obj_dat.obj
 0002:0000fb58       ??_C@_08FEKFKCFJ@DES?9EDE3?$AA@ 00075b58     libeay32:obj_dat.obj
 0002:0000fb64       ??_C@_07PILJICGA@des?9ede?$AA@ 00075b64     libeay32:obj_dat.obj
 0002:0000fb6c       ??_C@_07MECFBBOA@DES?9EDE?$AA@ 00075b6c     libeay32:obj_dat.obj
 0002:0000fb74       ??_C@_07IPAFAGII@des?9cbc?$AA@ 00075b74     libeay32:obj_dat.obj
 0002:0000fb7c       ??_C@_07LDJJJFAI@DES?9CBC?$AA@ 00075b7c     libeay32:obj_dat.obj
 0002:0000fb84       ??_C@_07JBBHJPBF@des?9cfb?$AA@ 00075b84     libeay32:obj_dat.obj
 0002:0000fb8c       ??_C@_07KNILAMJF@DES?9CFB?$AA@ 00075b8c     libeay32:obj_dat.obj
 0002:0000fb94       ??_C@_07LCLHACCC@des?9ecb?$AA@ 00075b94     libeay32:obj_dat.obj
 0002:0000fb9c       ??_C@_07IOCLJBKC@DES?9ECB?$AA@ 00075b9c     libeay32:obj_dat.obj
 0002:0000fba4       ??_C@_0P@HCMIBBEB@dhKeyAgreement?$AA@ 00075ba4     libeay32:obj_dat.obj
 0002:0000fbb4       ??_C@_05CALCPOBF@pkcs3?$AA@ 00075bb4     libeay32:obj_dat.obj
 0002:0000fbbc       ??_C@_0BE@CAMKAFJN@pkcs7?9encryptedData?$AA@ 00075bbc     libeay32:obj_dat.obj
 0002:0000fbd0       ??_C@_0BB@CJNFBHDI@pkcs7?9digestData?$AA@ 00075bd0     libeay32:obj_dat.obj
 0002:0000fbe4       ??_C@_0BN@LMEEMCPG@pkcs7?9signedAndEnvelopedData?$AA@ 00075be4     libeay32:obj_dat.obj
 0002:0000fc04       ??_C@_0BE@FAIIHMP@pkcs7?9envelopedData?$AA@ 00075c04     libeay32:obj_dat.obj
 0002:0000fc18       ??_C@_0BB@PEKKHBEJ@pkcs7?9signedData?$AA@ 00075c18     libeay32:obj_dat.obj
 0002:0000fc2c       ??_C@_0L@BCKMJOMA@pkcs7?9data?$AA@ 00075c2c     libeay32:obj_dat.obj
 0002:0000fc38       ??_C@_05EENODLBB@pkcs7?$AA@ 00075c38     libeay32:obj_dat.obj
 0002:0000fc40       ??_C@_03DICHAJGH@RSA?$AA@  00075c40     libeay32:obj_dat.obj
 0002:0000fc44       ??_C@_0BH@LAMMAAM@organizationalUnitName?$AA@ 00075c44     libeay32:obj_dat.obj
 0002:0000fc5c       ??_C@_02LMLEEFAB@OU?$AA@   00075c5c     libeay32:obj_dat.obj
 0002:0000fc60       ??_C@_0BB@GBCNPHLL@organizationName?$AA@ 00075c60     libeay32:obj_dat.obj
 0002:0000fc74       ??_C@_01MJMHLOMK@O?$AA@    00075c74     libeay32:obj_dat.obj
 0002:0000fc78       ??_C@_0BE@NKDCJFMD@stateOrProvinceName?$AA@ 00075c78     libeay32:obj_dat.obj
 0002:0000fc8c       ??_C@_02LAJDCOFE@ST?$AA@   00075c8c     libeay32:obj_dat.obj
 0002:0000fc90       ??_C@_0N@LEDCGGBI@localityName?$AA@ 00075c90     libeay32:obj_dat.obj
 0002:0000fca0       ??_C@_01OCOKONAJ@L?$AA@    00075ca0     libeay32:obj_dat.obj
 0002:0000fca4       ??_C@_0M@NPBHECMC@countryName?$AA@ 00075ca4     libeay32:obj_dat.obj
 0002:0000fcb0       ??_C@_01GFHCPBMG@C?$AA@    00075cb0     libeay32:obj_dat.obj
 0002:0000fcb4       ??_C@_0L@OILMNBLH@commonName?$AA@ 00075cb4     libeay32:obj_dat.obj
 0002:0000fcc0       ??_C@_02BMJIHHPP@CN?$AA@   00075cc0     libeay32:obj_dat.obj
 0002:0000fcc4       ??_C@_04NMKEOMFB@X509?$AA@ 00075cc4     libeay32:obj_dat.obj
 0002:0000fccc       ??_C@_0BL@NJHHPHOL@directory?5services?5?$CIX?4500?$CJ?$AA@ 00075ccc     libeay32:obj_dat.obj
 0002:0000fce8       ??_C@_04NGGFHBI@X500?$AA@  00075ce8     libeay32:obj_dat.obj
 0002:0000fcf0       ??_C@_0BF@DAJHPIMK@pbeWithMD5AndDES?9CBC?$AA@ 00075cf0     libeay32:obj_dat.obj
 0002:0000fd08       ??_C@_0M@KBNDBPIJ@PBE?9MD5?9DES?$AA@ 00075d08     libeay32:obj_dat.obj
 0002:0000fd14       ??_C@_0BF@EEAPBBEF@pbeWithMD2AndDES?9CBC?$AA@ 00075d14     libeay32:obj_dat.obj
 0002:0000fd2c       ??_C@_0M@LMNGCPDB@PBE?9MD2?9DES?$AA@ 00075d2c     libeay32:obj_dat.obj
 0002:0000fd38       ??_C@_0BF@EEAHCNKC@md5WithRSAEncryption?$AA@ 00075d38     libeay32:obj_dat.obj
 0002:0000fd50       ??_C@_07NOGKHCDB@RSA?9MD5?$AA@ 00075d50     libeay32:obj_dat.obj
 0002:0000fd58       ??_C@_0BF@ODJKGOJ@md2WithRSAEncryption?$AA@ 00075d58     libeay32:obj_dat.obj
 0002:0000fd70       ??_C@_07JBCLOEPG@RSA?9MD2?$AA@ 00075d70     libeay32:obj_dat.obj
 0002:0000fd78       ??_C@_0O@PCHNMHJE@rsaEncryption?$AA@ 00075d78     libeay32:obj_dat.obj
 0002:0000fd88       ??_C@_03OODGMOHK@rc4?$AA@  00075d88     libeay32:obj_dat.obj
 0002:0000fd8c       ??_C@_03HGEJCHKE@RC4?$AA@  00075d8c     libeay32:obj_dat.obj
 0002:0000fd90       ??_C@_03PKBIKOHH@md5?$AA@  00075d90     libeay32:obj_dat.obj
 0002:0000fd94       ??_C@_03GCGHEHKJ@MD5?$AA@  00075d94     libeay32:obj_dat.obj
 0002:0000fd98       ??_C@_03LFFJDILA@md2?$AA@  00075d98     libeay32:obj_dat.obj
 0002:0000fd9c       ??_C@_03CNCGNBGO@MD2?$AA@  00075d9c     libeay32:obj_dat.obj
 0002:0000fda0       ??_C@_0BN@EBHJCEC@RSA?5Data?5Security?0?5Inc?4?5PKCS?$AA@ 00075da0     libeay32:obj_dat.obj
 0002:0000fdc0       ??_C@_04GCKLMHGD@pkcs?$AA@ 00075dc0     libeay32:obj_dat.obj
 0002:0000fdc8       ??_C@_0BI@MPBNCOIB@RSA?5Data?5Security?0?5Inc?4?$AA@ 00075dc8     libeay32:obj_dat.obj
 0002:0000fde0       ??_C@_06GGEMKGKC@rsadsi?$AA@ 00075de0     libeay32:obj_dat.obj
 0002:0000fde8       ??_C@_09MLGAJAED@undefined?$AA@ 00075de8     libeay32:obj_dat.obj
 0002:0000fdf4       ??_C@_05DBLJEJPC@UNDEF?$AA@ 00075df4     libeay32:obj_dat.obj
 0002:0000fe00       ??_C@_0FB@EJHIDBFI@d?3?2wm653wehh?2platform?2mvv210?2src@ 00075e00     libeay32:obj_dat.obj
 0002:0000fe54       ??_C@_04MDEFHJHM@?4?$CFlu?$AA@ 00075e54     libeay32:obj_dat.obj
 0002:0000fe5c       STACK_version              00075e5c     libeay32:stack.obj
 0002:0000fe88       ??_C@_0EN@GOCHBJJG@d?3?2wm653wehh?2platform?2mvv210?2src@ 00075e88     libeay32:stack.obj
 0002:0000fed8       ??_C@_0EL@PAPNDPGN@d?3?2wm653wehh?2platform?2mvv210?2src@ 00075ed8     libeay32:p_lib.obj
 0002:0000ff28       ??_C@_0FC@NEBNNILH@d?3?2wm653wehh?2platform?2mvv210?2src@ 00075f28     libeay32:tb_pkmeth.obj
 0002:0000ff80       ??_C@_0FC@LCBCBJII@d?3?2wm653wehh?2platform?2mvv210?2src@ 00075f80     libeay32:eng_table.obj
 0002:0000ffd8       ??_C@_0EJ@DIAKMCGH@d?3?2wm653wehh?2platform?2mvv210?2src@ 00075fd8     libeay32:mem_dbg.obj
 0002:00010024       lh_version                 00076024     libeay32:lhash.obj
 0002:00010050       ??_C@_0EN@ECMNBMLE@d?3?2wm653wehh?2platform?2mvv210?2src@ 00076050     libeay32:lhash.obj
 0002:000100a0       ??_C@_0FA@OIJOADBF@d?3?2wm653wehh?2platform?2mvv210?2src@ 000760a0     libeay32:buf_str.obj
 0002:000100f0       ??_C@_0EN@GMEKCP@d?3?2wm653wehh?2platform?2mvv210?2src@ 000760f0     libeay32:b_print.obj
 0002:00010140       ??_C@_06CBHGEMFM@?$DMNULL?$DO?$AA@ 00076140     libeay32:b_print.obj
 0002:00010148       ??_C@_0BB@JCEFLFJE@0123456789abcdef?$AA@ 00076148     libeay32:b_print.obj
 0002:0001015c       ??_C@_0BB@JGGOGLEG@0123456789ABCDEF?$AA@ 0007615c     libeay32:b_print.obj
 0002:00010170       ??_C@_02MDDDDAID@0x?$AA@   00076170     libeay32:b_print.obj
 0002:00010174       ??_C@_01GBGANLPD@0?$AA@    00076174     libeay32:b_print.obj
 0002:00010178       ??_C@_07DKNGGOEP@doapr?$CI?$CJ?$AA@ 00076178     libeay32:b_print.obj
 0002:00010180       ??_C@_0FA@DONMMNBK@d?3?2wm653wehh?2platform?2mvv210?2src@ 00076180     libeay32:eng_lib.obj
 0002:000101d0       ??_C@_0EP@KDEOOFHE@d?3?2wm653wehh?2platform?2mvv210?2src@ 000761d0     libeay32:evp_asn1.obj
 0002:00010220       ??_C@_0EP@EOLMKMCC@d?3?2wm653wehh?2platform?2mvv210?2src@ 00076220     libeay32:a_object.obj
 0002:00010270       ??_C@_09OJNEAJGG@?$DMINVALID?$DO?$AA@ 00076270     libeay32:a_object.obj
 0002:00010280       ??_C@_0EO@DEEJNAGE@d?3?2wm653wehh?2platform?2mvv210?2src@ 00076280     libeay32:rsa_crpt.obj
 0002:00010314       ??_C@_08DFMPDBMK@X509_SIG?$AA@ 00076314     libeay32:x_sig.obj
 0002:00010320       ??_C@_05CJCEEADM@algor?$AA@ 00076320     libeay32:x_sig.obj
 0002:00010328       ??_C@_0EL@CJHJHLOJ@d?3?2wm653wehh?2platform?2mvv210?2src@ 00076328     libeay32:cmac.obj
 0002:00010388       ??_C@_0EP@DFJOCJBM@d?3?2wm653wehh?2platform?2mvv210?2src@ 00076388     libeay32:v3_utl.obj
 0002:000103d8       ??_C@_05MAJJAKPI@FALSE?$AA@ 000763d8     libeay32:v3_utl.obj
 0002:000103e0       ??_C@_04HCDDPBNL@TRUE?$AA@ 000763e0     libeay32:v3_utl.obj
 0002:000103e8       ??_C@_07BDICHDDB@?0value?3?$AA@ 000763e8     libeay32:v3_utl.obj
 0002:000103f0       ??_C@_06FONLLLNC@?0name?3?$AA@ 000763f0     libeay32:v3_utl.obj
 0002:000103f8       ??_C@_08PCLJGJAL@section?3?$AA@ 000763f8     libeay32:v3_utl.obj
 0002:00010404       ??_C@_02KAJCLHKP@no?$AA@   00076404     libeay32:v3_utl.obj
 0002:00010408       ??_C@_02NFLNFON@NO?$AA@    00076408     libeay32:v3_utl.obj
 0002:0001040c       ??_C@_01EFFIKLCJ@n?$AA@    0007640c     libeay32:v3_utl.obj
 0002:00010410       ??_C@_01NANMIPIL@N?$AA@    00076410     libeay32:v3_utl.obj
 0002:00010414       ??_C@_05LAPONLG@false?$AA@ 00076414     libeay32:v3_utl.obj
 0002:0001041c       ??_C@_03ICICOMAL@yes?$AA@  0007641c     libeay32:v3_utl.obj
 0002:00010420       ??_C@_03IPHJCBHH@YES?$AA@  00076420     libeay32:v3_utl.obj
 0002:00010424       ??_C@_01EANLCPLP@y?$AA@    00076424     libeay32:v3_utl.obj
 0002:00010428       ??_C@_01NFFPALBN@Y?$AA@    00076428     libeay32:v3_utl.obj
 0002:0001042c       ??_C@_04LOAJBDKD@true?$AA@ 0007642c     libeay32:v3_utl.obj
 0002:00010434       ??_C@_0M@PCENNPGA@?$CFd?4?$CFd?4?$CFd?4?$CFd?$AA@ 00076434     libeay32:v3_utl.obj
 0002:00010440       ??_C@_0CF@JFAAPJDH@len?$DO?$DN0?5?$CG?$CG?5len?$DM?$DN?$CIint?$CJsizeof?$CIctx?9?$DO@ 00076440     libeay32:hmac.obj
 0002:00010468       ??_C@_0BL@OKHNPHMK@j?5?$DM?$DN?5?$CIint?$CJsizeof?$CIctx?9?$DOkey?$CJ?$AA@ 00076468     libeay32:hmac.obj
 0002:00010488       ??_C@_0EL@FKOMILBN@d?3?2wm653wehh?2platform?2mvv210?2src@ 00076488     libeay32:hmac.obj
 0002:00010500       ??_C@_0EL@KJLPEPL@d?3?2wm653wehh?2platform?2mvv210?2src@ 00076500     libeay32:ec_lib.obj
 0002:0001054c       ECDSA_version              0007654c     libeay32:ecs_lib.obj
 0002:00010578       ??_C@_0EP@HDBDKLOP@d?3?2wm653wehh?2platform?2mvv210?2src@ 00076578     libeay32:ecs_lib.obj
 0002:000105c8       ??_C@_0EL@FFHGPJNM@d?3?2wm653wehh?2platform?2mvv210?2src@ 000765c8     libeay32:ec_key.obj
 0002:00013a90       ??_C@_0HB@IIAMGFOE@?6?7IPSec?1IKE?1Oakley?5curve?5?$CD4?5over@ 00079a90     libeay32:ec_curve.obj
 0002:00013b08       ??_C@_0HB@LGGCBEEP@?6?7IPSec?1IKE?1Oakley?5curve?5?$CD3?5over@ 00079b08     libeay32:ec_curve.obj
 0002:00013b7c       ??_C@_0CG@MLNHEHNL@WTLS?5curvs?5over?5a?5224?5bit?5prime?5@ 00079b7c     libeay32:ec_curve.obj
 0002:00013ba4       ??_C@_0CG@JBBHINGJ@WTLS?5curve?5over?5a?5160?5bit?5prime?5@ 00079ba4     libeay32:ec_curve.obj
 0002:00013bcc       ??_C@_0CG@NOPNGNKB@WTLS?5curve?5over?5a?5112?5bit?5prime?5@ 00079bcc     libeay32:ec_curve.obj
 0002:00013bf4       ??_C@_0CH@PAECJHG@WTLS?5curve?5over?5a?5113?5bit?5binary@ 00079bf4     libeay32:ec_curve.obj
 0002:00013c1c       ??_C@_0CI@PHOKEIPD@X9?462?5curve?5over?5a?5431?5bit?5binar@ 00079c1c     libeay32:ec_curve.obj
 0002:00013c44       ??_C@_0CI@GLMEIDGJ@X9?462?5curve?5over?5a?5368?5bit?5binar@ 00079c44     libeay32:ec_curve.obj
 0002:00013c6c       ??_C@_0CI@BDIPEOPL@X9?462?5curve?5over?5a?5359?5bit?5binar@ 00079c6c     libeay32:ec_curve.obj
 0002:00013c94       ??_C@_0CI@PCOAONL@X9?462?5curve?5over?5a?5304?5bit?5binar@ 00079c94     libeay32:ec_curve.obj
 0002:00013cbc       ??_C@_0CI@OMGMCAMF@X9?462?5curve?5over?5a?5272?5bit?5binar@ 00079cbc     libeay32:ec_curve.obj
 0002:00013ce4       ??_C@_0CI@IHGFALA@X9?462?5curve?5over?5a?5239?5bit?5binar@ 00079ce4     libeay32:ec_curve.obj
 0002:00013d0c       ??_C@_0CI@HADNJNCC@X9?462?5curve?5over?5a?5208?5bit?5binar@ 00079d0c     libeay32:ec_curve.obj
 0002:00013d34       ??_C@_0CI@CNNMGPOI@X9?462?5curve?5over?5a?5191?5bit?5binar@ 00079d34     libeay32:ec_curve.obj
 0002:00013d5c       ??_C@_0CI@HOBKKPME@X9?462?5curve?5over?5a?5176?5bit?5binar@ 00079d5c     libeay32:ec_curve.obj
 0002:00013d84       ??_C@_0CI@CFPHBJDI@X9?462?5curve?5over?5a?5163?5bit?5binar@ 00079d84     libeay32:ec_curve.obj
 0002:00013dac       ??_C@_0CM@EACJKLC@NIST?1SECG?5curve?5over?5a?5571?5bit?5b@ 00079dac     libeay32:ec_curve.obj
 0002:00013dd8       ??_C@_0CM@HDDNKCDK@NIST?1SECG?5curve?5over?5a?5409?5bit?5b@ 00079dd8     libeay32:ec_curve.obj
 0002:00013e04       ??_C@_0CM@GFMOGKDK@NIST?1SECG?5curve?5over?5a?5283?5bit?5b@ 00079e04     libeay32:ec_curve.obj
 0002:00013e30       ??_C@_0CH@CLCLBOGN@SECG?5curve?5over?5a?5239?5bit?5binary@ 00079e30     libeay32:ec_curve.obj
 0002:00013e58       ??_C@_0DB@PNCPLOPN@NIST?1SECG?1WTLS?5curve?5over?5a?5233?5@ 00079e58     libeay32:ec_curve.obj
 0002:00013e8c       ??_C@_0CH@HKDFCHME@SECG?5curve?5over?5a?5193?5bit?5binary@ 00079e8c     libeay32:ec_curve.obj
 0002:00013eb4       ??_C@_0CM@HCIKDLO@NIST?1SECG?5curve?5over?5a?5163?5bit?5b@ 00079eb4     libeay32:ec_curve.obj
 0002:00013ee0       ??_C@_0CH@GKKFHOF@SECG?5curve?5over?5a?5163?5bit?5binary@ 00079ee0     libeay32:ec_curve.obj
 0002:00013f08       ??_C@_0DB@KNLLOMAB@NIST?1SECG?1WTLS?5curve?5over?5a?5163?5@ 00079f08     libeay32:ec_curve.obj
 0002:00013f3c       ??_C@_0CH@FJJEIBAL@SECG?5curve?5over?5a?5131?5bit?5binary@ 00079f3c     libeay32:ec_curve.obj
 0002:00013f64       ??_C@_0CM@EPOILLGK@SECG?1WTLS?5curve?5over?5a?5131?5bit?5b@ 00079f64     libeay32:ec_curve.obj
 0002:00013f90       ??_C@_0CH@OHOOPBHG@SECG?5curve?5over?5a?5113?5bit?5binary@ 00079f90     libeay32:ec_curve.obj
 0002:00013fb8       ??_C@_0CM@IACJENLF@X9?462?1SECG?5curve?5over?5a?5256?5bit?5@ 00079fb8     libeay32:ec_curve.obj
 0002:00013fe4       ??_C@_0CH@COBCAEEE@X9?462?5curve?5over?5a?5239?5bit?5prime@ 00079fe4     libeay32:ec_curve.obj
 0002:0001400c       ??_C@_0CH@BHJCBJE@X9?462?5curve?5over?5a?5192?5bit?5prime@ 0007a00c     libeay32:ec_curve.obj
 0002:00014034       ??_C@_0DB@HJIMEGJL@NIST?1X9?462?1SECG?5curve?5over?5a?5192@ 0007a034     libeay32:ec_curve.obj
 0002:00014068       ??_C@_0CL@NCEJLDDF@NIST?1SECG?5curve?5over?5a?5521?5bit?5p@ 0007a068     libeay32:ec_curve.obj
 0002:00014094       ??_C@_0CL@MPIFFEHD@NIST?1SECG?5curve?5over?5a?5384?5bit?5p@ 0007a094     libeay32:ec_curve.obj
 0002:000140c0       ??_C@_0CG@MBJIMJMI@SECG?5curve?5over?5a?5256?5bit?5prime?5@ 0007a0c0     libeay32:ec_curve.obj
 0002:000140e8       ??_C@_0CL@NHPHHEEB@NIST?1SECG?5curve?5over?5a?5224?5bit?5p@ 0007a0e8     libeay32:ec_curve.obj
 0002:00014114       ??_C@_0CG@IOHCCJAA@SECG?5curve?5over?5a?5224?5bit?5prime?5@ 0007a114     libeay32:ec_curve.obj
 0002:0001413c       ??_C@_0CG@IFFAEDGD@SECG?5curve?5over?5a?5192?5bit?5prime?5@ 0007a13c     libeay32:ec_curve.obj
 0002:00014164       ??_C@_0CL@NDOOJKPB@SECG?1WTLS?5curve?5over?5a?5160?5bit?5p@ 0007a164     libeay32:ec_curve.obj
 0002:00014190       ??_C@_0CG@MDBLLOCO@SECG?5curve?5over?5a?5160?5bit?5prime?5@ 0007a190     libeay32:ec_curve.obj
 0002:000141b8       ??_C@_0CG@DNCCBNMA@SECG?5curve?5over?5a?5128?5bit?5prime?5@ 0007a1b8     libeay32:ec_curve.obj
 0002:000141e0       ??_C@_0CG@IMPBFOOG@SECG?5curve?5over?5a?5112?5bit?5prime?5@ 0007a1e0     libeay32:ec_curve.obj
 0002:00014208       ??_C@_0CL@JMAEHKDJ@SECG?1WTLS?5curve?5over?5a?5112?5bit?5p@ 0007a208     libeay32:ec_curve.obj
 0002:00014238       ??_C@_0EN@GGBLGKDN@d?3?2wm653wehh?2platform?2mvv210?2src@ 0007a238     libeay32:ec_curve.obj
 0002:000144c8       ??_C@_08CCPALKOP@priv_key?$AA@ 0007a4c8     libeay32:dsa_asn1.obj
 0002:000144d4       ??_C@_07CLGEADLH@pub_key?$AA@ 0007a4d4     libeay32:dsa_asn1.obj
 0002:000144dc       ??_C@_01JEJKBAGA@g?$AA@    0007a4dc     libeay32:dsa_asn1.obj
 0002:000144e0       ??_C@_01IIACKFLH@q?$AA@    0007a4e0     libeay32:dsa_asn1.obj
 0002:000144e4       ??_C@_01JBBJJEPG@p?$AA@    0007a4e4     libeay32:dsa_asn1.obj
 0002:000144e8       ??_C@_07CPCPJPKL@version?$AA@ 0007a4e8     libeay32:dsa_asn1.obj
 0002:000144f0       ??_C@_07ECLLFBLJ@DSA_SIG?$AA@ 0007a4f0     libeay32:dsa_asn1.obj
 0002:000144f8       ??_C@_01LKDEMHDF@s?$AA@    0007a4f8     libeay32:dsa_asn1.obj
 0002:000144fc       ??_C@_01KDCPPGHE@r?$AA@    0007a4fc     libeay32:dsa_asn1.obj
 0002:00014500       ??_C@_0EO@DLELNGDB@d?3?2wm653wehh?2platform?2mvv210?2src@ 0007a500     libeay32:dsa_asn1.obj
 0002:00014550       DSA_version                0007a550     libeay32:dsa_lib.obj
 0002:00014578       ??_C@_0EN@HPPIDPIC@d?3?2wm653wehh?2platform?2mvv210?2src@ 0007a578     libeay32:dsa_lib.obj
 0002:000145c8       DH_version                 0007a5c8     libeay32:dh_lib.obj
 0002:00014600       ??_C@_0EL@PIAODHMF@d?3?2wm653wehh?2platform?2mvv210?2src@ 0007a600     libeay32:dh_lib.obj
 0002:00014650       ??_C@_0EL@BNOPJFLP@d?3?2wm653wehh?2platform?2mvv210?2src@ 0007a650     libeay32:dh_gen.obj
 0002:0001469c       ??_C@_0BC@MGHKLCAP@OpenSSL?5DH?5Method?$AA@ 0007a69c     libeay32:dh_key.obj
 0002:000146b0       ??_C@_0EL@KHODDKOC@d?3?2wm653wehh?2platform?2mvv210?2src@ 0007a6b0     libeay32:dh_key.obj
 0002:00014718       BN_version                 0007a718     libeay32:bn_lib.obj
 0002:00014848       ??_C@_0EL@EKPDCIGL@d?3?2wm653wehh?2platform?2mvv210?2src@ 0007a848     libeay32:bn_lib.obj
 0002:000148a0       ??_C@_0EN@HNNJMEMO@d?3?2wm653wehh?2platform?2mvv210?2src@ 0007a8a0     libeay32:rsa_pss.obj
 0002:000148f0       ??_C@_0EO@IHJGGIGJ@d?3?2wm653wehh?2platform?2mvv210?2src@ 0007a8f0     libeay32:rsa_x931.obj
 0002:00014940       ??_C@_0EO@KJLCAEHF@d?3?2wm653wehh?2platform?2mvv210?2src@ 0007a940     libeay32:rsa_saos.obj
 0002:00014b90       ??_C@_0M@MMOLGLEG@X509_ALGORS?$AA@ 0007ab90     libeay32:x_algor.obj
 0002:00014b9c       ??_C@_0L@BNOBMJFK@algorithms?$AA@ 0007ab9c     libeay32:x_algor.obj
 0002:00014ba8       ??_C@_0L@BFHONDPK@X509_ALGOR?$AA@ 0007aba8     libeay32:x_algor.obj
 0002:00014bb4       ??_C@_09DAGAJHIH@parameter?$AA@ 0007abb4     libeay32:x_algor.obj
 0002:00014bc0       ??_C@_0EN@EGODLFJH@d?3?2wm653wehh?2platform?2mvv210?2src@ 0007abc0     libeay32:cms_env.obj
 0002:00014c28       ??_C@_0EN@HOIICIBH@d?3?2wm653wehh?2platform?2mvv210?2src@ 0007ac28     libeay32:bn_print.obj
 0002:00014c78       ??_C@_04LJCFADJL@?$CF09u?$AA@ 0007ac78     libeay32:bn_print.obj
 0002:00014c80       ??_C@_02GMHACPFF@?$CFu?$AA@ 0007ac80     libeay32:bn_print.obj
 0002:00014c84       ??_C@_01JOAMLHOP@?9?$AA@   0007ac84     libeay32:bn_print.obj
 0002:00014c88       RSA_version                0007ac88     libeay32:rsa_lib.obj
 0002:00014cb0       ??_C@_0EN@MLDILJPH@d?3?2wm653wehh?2platform?2mvv210?2src@ 0007acb0     libeay32:rsa_lib.obj
 0002:00014d00       ??_C@_0EN@CONJBLIN@d?3?2wm653wehh?2platform?2mvv210?2src@ 0007ad00     libeay32:rsa_gen.obj
 0002:00014d50       ??_C@_0FB@OACJPALH@d?3?2wm653wehh?2platform?2mvv210?2src@ 0007ad50     libeay32:obj_lib.obj
 0002:00014da8       ??_C@_0EN@MBCJMNEM@d?3?2wm653wehh?2platform?2mvv210?2src@ 0007ada8     libeay32:bio_lib.obj
 0002:00014df8       ??_C@_01CLKCMJKC@?5?$AA@   0007adf8     libeay32:bio_lib.obj
 0002:00014dfc       ASN1_version               0007adfc     libeay32:asn1_lib.obj
 0002:00014e28       ??_C@_0EP@DFJJGEMF@d?3?2wm653wehh?2platform?2mvv210?2src@ 0007ae28     libeay32:asn1_lib.obj
 0002:00014f00       ??_C@_06IEOJBDIK@object?$AA@ 0007af00     libeay32:x_attrib.obj
 0002:00014f08       ??_C@_0P@IBKNNFL@X509_ATTRIBUTE?$AA@ 0007af08     libeay32:x_attrib.obj
 0002:00014f18       ??_C@_0N@MCAEPLPL@value?4single?$AA@ 0007af18     libeay32:x_attrib.obj
 0002:00014f28       ??_C@_09MPCDAIAO@value?4set?$AA@ 0007af28     libeay32:x_attrib.obj
 0002:000152c0       ??_C@_0EN@ODDCBIPI@d?3?2wm653wehh?2platform?2mvv210?2src@ 0007b2c0     libeay32:evp_pbe.obj
 0002:00015310       ??_C@_05DLJFLBDA@TYPE?$DN?$AA@ 0007b310     libeay32:evp_pbe.obj
 0002:00015318       ??_C@_02DKCKIIND@?$CFs?$AA@ 0007b318     libeay32:eng_ctrl.obj
 0002:0001531c       ??_C@_0N@JAGKAFD@FILE?5pointer?$AA@ 0007b31c     libeay32:bss_file.obj
 0002:00015330       ??_C@_0EO@GEBEJMNG@d?3?2wm653wehh?2platform?2mvv210?2src@ 0007b330     libeay32:bss_file.obj
 0002:00015380       ??_C@_02HJPKOJGD@?8?$CJ?$AA@ 0007b380     libeay32:bss_file.obj
 0002:00015384       ??_C@_03IMMLKIF@?8?0?8?$AA@ 0007b384     libeay32:bss_file.obj
 0002:00015388       ??_C@_07JMDFGFFH@fopen?$CI?8?$AA@ 0007b388     libeay32:bss_file.obj
 0002:00015390       ??_C@_01PFHFFBPC@t?$AA@    0007b390     libeay32:bss_file.obj
 0002:00015394       ??_C@_01OJONOECF@b?$AA@    0007b394     libeay32:bss_file.obj
 0002:00015398       ??_C@_01NOFIACDB@w?$AA@    0007b398     libeay32:bss_file.obj
 0002:0001539c       ??_C@_02CBLLGHLK@r?$CL?$AA@ 0007b39c     libeay32:bss_file.obj
 0002:000153a0       ??_C@_01MCMALHOG@a?$AA@    0007b3a0     libeay32:bss_file.obj
 0002:000153a4       ??_C@_02DPNLHKJD@a?$CL?$AA@ 0007b3a4     libeay32:bss_file.obj
 0002:000153a8       ??_C@_0EJ@IBNICOFA@d?3?2wm653wehh?2platform?2mvv210?2src@ 0007b3a8     libeay32:ex_data.obj
 0002:000153f8       ??_C@_0FC@BNEDDMOL@d?3?2wm653wehh?2platform?2mvv210?2src@ 0007b3f8     libeay32:tb_asnmth.obj
 0002:00015768       ??_C@_0N@KHICOJGI@ASN1_SET_ANY?$AA@ 0007b768     libeay32:tasn_typ.obj
 0002:00015778       ??_C@_0BC@COPGMDLD@ASN1_SEQUENCE_ANY?$AA@ 0007b778     libeay32:tasn_typ.obj
 0002:0001578c       ??_C@_0BH@HEBAELGA@ASN1_OCTET_STRING_NDEF?$AA@ 0007b78c     libeay32:tasn_typ.obj
 0002:000157a4       ??_C@_0O@JKANHMPI@ASN1_FBOOLEAN?$AA@ 0007b7a4     libeay32:tasn_typ.obj
 0002:000157b4       ??_C@_0O@BIDLBGAP@ASN1_TBOOLEAN?$AA@ 0007b7b4     libeay32:tasn_typ.obj
 0002:000157c4       ??_C@_0N@HMAPMMGF@ASN1_BOOLEAN?$AA@ 0007b7c4     libeay32:tasn_typ.obj
 0002:000157d4       ??_C@_0BA@CBHCBCAE@DIRECTORYSTRING?$AA@ 0007b7d4     libeay32:tasn_typ.obj
 0002:000157e4       ??_C@_0M@FANFDIEE@DISPLAYTEXT?$AA@ 0007b7e4     libeay32:tasn_typ.obj
 0002:000157f0       ??_C@_0P@NDKOCAEJ@ASN1_PRINTABLE?$AA@ 0007b7f0     libeay32:tasn_typ.obj
 0002:00015800       ??_C@_0O@NJFCFMGE@ASN1_SEQUENCE?$AA@ 0007b800     libeay32:tasn_typ.obj
 0002:00015810       ??_C@_08FIDCPDIJ@ASN1_ANY?$AA@ 0007b810     libeay32:tasn_typ.obj
 0002:0001581c       ??_C@_0P@CHICPHIN@ASN1_BMPSTRING?$AA@ 0007b81c     libeay32:tasn_typ.obj
 0002:0001582c       ??_C@_0BF@DMDDFBNJ@ASN1_UNIVERSALSTRING?$AA@ 0007b82c     libeay32:tasn_typ.obj
 0002:00015844       ??_C@_0BD@HMMCNBGD@ASN1_VISIBLESTRING?$AA@ 0007b844     libeay32:tasn_typ.obj
 0002:00015858       ??_C@_0BF@MPJFOIHC@ASN1_GENERALIZEDTIME?$AA@ 0007b858     libeay32:tasn_typ.obj
 0002:00015870       ??_C@_0N@OIMCLPEM@ASN1_UTCTIME?$AA@ 0007b870     libeay32:tasn_typ.obj
 0002:00015880       ??_C@_0BD@EMMGLGMD@ASN1_GENERALSTRING?$AA@ 0007b880     libeay32:tasn_typ.obj
 0002:00015894       ??_C@_0P@KBFNFBLB@ASN1_IA5STRING?$AA@ 0007b894     libeay32:tasn_typ.obj
 0002:000158a4       ??_C@_0P@GDIFPLAP@ASN1_T61STRING?$AA@ 0007b8a4     libeay32:tasn_typ.obj
 0002:000158b4       ??_C@_0BF@CPDMNKCA@ASN1_PRINTABLESTRING?$AA@ 0007b8b4     libeay32:tasn_typ.obj
 0002:000158cc       ??_C@_0BA@LEPDCAOC@ASN1_UTF8STRING?$AA@ 0007b8cc     libeay32:tasn_typ.obj
 0002:000158dc       ??_C@_0M@BJNOJGBL@ASN1_OBJECT?$AA@ 0007b8dc     libeay32:tasn_typ.obj
 0002:000158e8       ??_C@_09NHFFCPKK@ASN1_NULL?$AA@ 0007b8e8     libeay32:tasn_typ.obj
 0002:000158f4       ??_C@_0BC@PEBEKNCO@ASN1_OCTET_STRING?$AA@ 0007b8f4     libeay32:tasn_typ.obj
 0002:00015908       ??_C@_0BA@LJHGDIKH@ASN1_BIT_STRING?$AA@ 0007b908     libeay32:tasn_typ.obj
 0002:00015918       ??_C@_0BA@CLGIIAJD@ASN1_ENUMERATED?$AA@ 0007b918     libeay32:tasn_typ.obj
 0002:00015928       ??_C@_0N@KIGEHGKE@ASN1_INTEGER?$AA@ 0007b928     libeay32:tasn_typ.obj
 0002:00015938       ??_C@_0EM@IJKLDGFG@d?3?2wm653wehh?2platform?2mvv210?2src@ 0007b938     libeay32:a_int.obj
 0002:00015988       ??_C@_0EN@CHOOKOEN@d?3?2wm653wehh?2platform?2mvv210?2src@ 0007b988     libeay32:bn_blind.obj
 0002:000159d8       ??_C@_0EL@BMHBHOHG@d?3?2wm653wehh?2platform?2mvv210?2src@ 0007b9d8     libeay32:bn_ctx.obj
 0002:00015a28       ??_C@_0EL@EPOPJPNF@d?3?2wm653wehh?2platform?2mvv210?2src@ 0007ba28     libeay32:bn_gcd.obj
 0002:00015a78       ??_C@_0EL@CLJGKANI@d?3?2wm653wehh?2platform?2mvv210?2src@ 0007ba78     libeay32:bn_add.obj
 0002:00015b48       ??_C@_0EP@IJPFBBNM@d?3?2wm653wehh?2platform?2mvv210?2src@ 0007bb48     libeay32:tasn_dec.obj
 0002:00015b98       ??_C@_05GCCLHHOK@Type?$DN?$AA@ 0007bb98     libeay32:tasn_dec.obj
 0002:00015ba0       ??_C@_07NHKPEHKF@?0?5Type?$DN?$AA@ 0007bba0     libeay32:tasn_dec.obj
 0002:00015ba8       ??_C@_06GPKHKFJE@Field?$DN?$AA@ 0007bba8     libeay32:tasn_dec.obj
 0002:00015bb0       ??_C@_0EP@DFHJPDGI@d?3?2wm653wehh?2platform?2mvv210?2src@ 0007bbb0     libeay32:tasn_enc.obj
 0002:00015c00       ??_C@_0EP@PHBFPCHC@d?3?2wm653wehh?2platform?2mvv210?2src@ 0007bc00     libeay32:tasn_new.obj
 0002:00015c50       EVP_version                0007bc50     libeay32:evp_enc.obj
 0002:00015c78       ??_C@_0EN@FALCDJAN@d?3?2wm653wehh?2platform?2mvv210?2src@ 0007bc78     libeay32:evp_enc.obj
 0002:00015cc8       ??_C@_0BM@NOPGEACO@bl?5?$DM?$DN?5?$CIint?$CJsizeof?$CIctx?9?$DObuf?$CJ?$AA@ 0007bcc8     libeay32:evp_enc.obj
 0002:00015ce4       ??_C@_0BF@NLHGELBH@b?5?$DM?$DN?5sizeof?5ctx?9?$DObuf?$AA@ 0007bce4     libeay32:evp_enc.obj
 0002:00015cfc       ??_C@_0BH@JPOFFCDO@b?5?$DM?$DN?5sizeof?5ctx?9?$DOfinal?$AA@ 0007bcfc     libeay32:evp_enc.obj
 0002:00015d14       ??_C@_0DG@IKOHIL@EVP_CIPHER_CTX_iv_length?$CIctx?$CJ?5?$DM?$DN@ 0007bd14     libeay32:evp_enc.obj
 0002:00015d50       ??_C@_0FO@KIBMBINE@ctx?9?$DOcipher?9?$DOblock_size?5?$DN?$DN?51?5?$HM?$HM?5@ 0007bd50     libeay32:evp_enc.obj
 0002:00015db0       ??_C@_0EN@MHHCMNBH@d?3?2wm653wehh?2platform?2mvv210?2src@ 0007bdb0     libeay32:a_enum.obj
 0002:00015e00       ??_C@_0EP@KFOAJJMD@d?3?2wm653wehh?2platform?2mvv210?2src@ 0007be00     libeay32:x509name.obj
 0002:00015e50       ??_C@_05DFCJAACA@name?$DN?$AA@ 0007be50     libeay32:x509name.obj
 0002:00015ecc       v3_sinfo                   0007becc     libeay32:v3_info.obj
 0002:00015f04       v3_info                    0007bf04     libeay32:v3_info.obj
 0002:00015f3c       ??_C@_0BG@PFEKCAHJ@AUTHORITY_INFO_ACCESS?$AA@ 0007bf3c     libeay32:v3_info.obj
 0002:00015f54       ??_C@_0N@CJKIBDLK@GeneralNames?$AA@ 0007bf54     libeay32:v3_info.obj
 0002:00015f64       ??_C@_0BD@IKHCEBLA@ACCESS_DESCRIPTION?$AA@ 0007bf64     libeay32:v3_info.obj
 0002:00015f78       ??_C@_08CBBFJFMD@location?$AA@ 0007bf78     libeay32:v3_info.obj
 0002:00015f84       ??_C@_06GABBCIBA@method?$AA@ 0007bf84     libeay32:v3_info.obj
 0002:00015f8c       ??_C@_03NLJIHOMM@?5?9?5?$AA@ 0007bf8c     libeay32:v3_info.obj
 0002:00015f90       ??_C@_0FA@EJINBECP@d?3?2wm653wehh?2platform?2mvv210?2src@ 0007bf90     libeay32:v3_info.obj
 0002:00015fe0       ??_C@_06KFEJCPI@value?$DN?$AA@ 0007bfe0     libeay32:v3_info.obj
 0002:00015fe8       ??_C@_0EP@JMDNBNIF@d?3?2wm653wehh?2platform?2mvv210?2src@ 0007bfe8     libeay32:conf_mod.obj
 0002:00016038       ??_C@_01KMDKNFGN@?1?$AA@   0007c038     libeay32:conf_mod.obj
 0002:000161cc       ??_C@_0O@NFAAPMIG@GENERAL_NAMES?$AA@ 0007c1cc     libeay32:v3_genn.obj
 0002:000161dc       ??_C@_0N@JCNPGCGM@GENERAL_NAME?$AA@ 0007c1dc     libeay32:v3_genn.obj
 0002:000161ec       ??_C@_0P@KIENIEMD@d?4registeredID?$AA@ 0007c1ec     libeay32:v3_genn.obj
 0002:000161fc       ??_C@_0M@PANAALJB@d?4iPAddress?$AA@ 0007c1fc     libeay32:v3_genn.obj
 0002:00016208       ??_C@_0BM@CMCMADCA@d?4uniformResourceIdentifier?$AA@ 0007c208     libeay32:v3_genn.obj
 0002:00016224       ??_C@_0P@OBCPPLOL@d?4ediPartyName?$AA@ 0007c224     libeay32:v3_genn.obj
 0002:00016234       ??_C@_0BA@JLDFBFLN@d?4directoryName?$AA@ 0007c234     libeay32:v3_genn.obj
 0002:00016244       ??_C@_0O@NKHOODFK@d?4x400Address?$AA@ 0007c244     libeay32:v3_genn.obj
 0002:00016254       ??_C@_09HIBJABFB@d?4dNSName?$AA@ 0007c254     libeay32:v3_genn.obj
 0002:00016260       ??_C@_0N@MMCCMIPN@d?4rfc822Name?$AA@ 0007c260     libeay32:v3_genn.obj
 0002:00016270       ??_C@_0M@FGIBMCEL@d?4otherName?$AA@ 0007c270     libeay32:v3_genn.obj
 0002:0001627c       ??_C@_0N@GEILLNKP@EDIPARTYNAME?$AA@ 0007c27c     libeay32:v3_genn.obj
 0002:0001628c       ??_C@_09EHIHAIPF@partyName?$AA@ 0007c28c     libeay32:v3_genn.obj
 0002:00016298       ??_C@_0N@KBFEHHDO@nameAssigner?$AA@ 0007c298     libeay32:v3_genn.obj
 0002:000162a8       ??_C@_09MAFAINAH@OTHERNAME?$AA@ 0007c2a8     libeay32:v3_genn.obj
 0002:000162b4       ??_C@_05MFEJDJP@value?$AA@ 0007c2b4     libeay32:v3_genn.obj
 0002:000162bc       ??_C@_07EEDOJOAA@type_id?$AA@ 0007c2bc     libeay32:v3_genn.obj
 0002:0001634c       ??_C@_0BA@JCMMJNEE@X509_EXTENSIONS?$AA@ 0007c34c     libeay32:x_exten.obj
 0002:0001635c       ??_C@_09KMFOEAAA@Extension?$AA@ 0007c35c     libeay32:x_exten.obj
 0002:00016368       ??_C@_0P@OMHBNPIC@X509_EXTENSION?$AA@ 0007c368     libeay32:x_exten.obj
 0002:00016378       ??_C@_08CBBMEOFB@critical?$AA@ 0007c378     libeay32:x_exten.obj
 0002:00016388       ??_C@_0EM@NFBEAOGE@d?3?2wm653wehh?2platform?2mvv210?2src@ 0007c388     libeay32:ec_mult.obj
 0002:00016418       ??_C@_09FLJPBFIA@ECDSA_SIG?$AA@ 0007c418     libeay32:ecs_asn1.obj
 0002:00016424       ??_C@_0BF@DJKLHCAL@OpenSSL?5ECDSA?5method?$AA@ 0007c424     libeay32:ecs_ossl.obj
 0002:00016440       ??_C@_0FA@PJGMNPFB@d?3?2wm653wehh?2platform?2mvv210?2src@ 0007c440     libeay32:ecs_ossl.obj
 0002:00016494       ECDH_version               0007c494     libeay32:ech_lib.obj
 0002:000164c0       ??_C@_0EO@JGKBLENE@d?3?2wm653wehh?2platform?2mvv210?2src@ 0007c4c0     libeay32:ech_lib.obj
 0002:00016510       ??_C@_0EM@GFDFNKJ@d?3?2wm653wehh?2platform?2mvv210?2src@ 0007c510     libeay32:bn_rand.obj
 0002:00016594       ??_C@_06CHOIGJDB@BIGNUM?$AA@ 0007c594     libeay32:x_bignum.obj
 0002:000165d4       ??_C@_05HIGAPBOG@ZLONG?$AA@ 0007c5d4     libeay32:x_long.obj
 0002:000165dc       ??_C@_04KCJFIMMJ@LONG?$AA@ 0007c5dc     libeay32:x_long.obj
 0002:000165e8       ??_C@_0EN@OBFIOJLM@d?3?2wm653wehh?2platform?2mvv210?2src@ 0007c5e8     libeay32:x_long.obj
 0002:00016638       ??_C@_04PEDNGLFL@?$CFld?6?$AA@ 0007c638     libeay32:x_long.obj
 0002:00016640       ??_C@_0EM@KNGHBEEM@d?3?2wm653wehh?2platform?2mvv210?2src@ 0007c640     libeay32:a_dup.obj
 0002:00016690       ??_C@_0EO@PHDJAHKO@d?3?2wm653wehh?2platform?2mvv210?2src@ 0007c690     libeay32:dsa_sign.obj
 0002:000166e0       ??_C@_0BD@IBKHKBJA@OpenSSL?5DSA?5method?$AA@ 0007c6e0     libeay32:dsa_ossl.obj
 0002:000166f8       ??_C@_0EO@MKGDCJCA@d?3?2wm653wehh?2platform?2mvv210?2src@ 0007c6f8     libeay32:dsa_ossl.obj
 0002:00016750       ??_C@_0EL@MKGMFIIF@d?3?2wm653wehh?2platform?2mvv210?2src@ 0007c750     libeay32:bn_exp.obj
 0002:000167a0       ??_C@_0EM@PNNGIHGB@d?3?2wm653wehh?2platform?2mvv210?2src@ 0007c7a0     libeay32:bn_mont.obj
 0002:000167f0       ??_C@_0EL@HJNLGKMO@d?3?2wm653wehh?2platform?2mvv210?2src@ 0007c7f0     libeay32:bn_div.obj
 0002:00017848       ??_C@_0EO@FBMJEFIA@d?3?2wm653wehh?2platform?2mvv210?2src@ 0007d848     libeay32:rsa_oaep.obj
 0002:00017898       SHA1_version               0007d898     libeay32:sha1dgst.obj
 0002:000178c0       SHA256_version             0007d8c0     libeay32:sha256.obj
 0002:000179f0       SHA512_version             0007d9f0     libeay32:sha512.obj
 0002:00018a7c       ??_C@_0M@GJHAMFIP@CMS_Receipt?$AA@ 0007ea7c     libeay32:cms_asn1.obj
 0002:00018a88       ??_C@_0BJ@OPFDHHHB@originatorSignatureValue?$AA@ 0007ea88     libeay32:cms_asn1.obj
 0002:00018aa4       ??_C@_0BD@KOFKAGLC@CMS_ReceiptRequest?$AA@ 0007eaa4     libeay32:cms_asn1.obj
 0002:00018ab8       ??_C@_0L@BBBJMFCF@receiptsTo?$AA@ 0007eab8     libeay32:cms_asn1.obj
 0002:00018ac4       ??_C@_0N@CIHGCFJG@receiptsFrom?$AA@ 0007eac4     libeay32:cms_asn1.obj
 0002:00018ad4       ??_C@_0BI@BHIBPADG@signedContentIdentifier?$AA@ 0007ead4     libeay32:cms_asn1.obj
 0002:00018aec       ??_C@_0BB@JKAAKCKP@CMS_ReceiptsFrom?$AA@ 0007eaec     libeay32:cms_asn1.obj
 0002:00018b00       ??_C@_0O@ECMNNMJA@d?4receiptList?$AA@ 0007eb00     libeay32:cms_asn1.obj
 0002:00018b10       ??_C@_0BB@DENHEDOF@d?4allOrFirstTier?$AA@ 0007eb10     libeay32:cms_asn1.obj
 0002:00018b24       ??_C@_0BG@NLALJKHJ@CMS_Attributes_Verify?$AA@ 0007eb24     libeay32:cms_asn1.obj
 0002:00018b3c       ??_C@_0BE@PAHMALPK@CMS_Attributes_Sign?$AA@ 0007eb3c     libeay32:cms_asn1.obj
 0002:00018b50       ??_C@_0P@KAJKPCJH@CMS_ATTRIBUTES?$AA@ 0007eb50     libeay32:cms_asn1.obj
 0002:00018b60       ??_C@_0BA@ECDDPOHH@CMS_ContentInfo?$AA@ 0007eb60     libeay32:cms_asn1.obj
 0002:00018b70       ??_C@_0BB@NELCELCK@d?4compressedData?$AA@ 0007eb70     libeay32:cms_asn1.obj
 0002:00018b84       ??_C@_0BE@NPCJHPOJ@d?4authenticatedData?$AA@ 0007eb84     libeay32:cms_asn1.obj
 0002:00018b98       ??_C@_0BA@HJCBJEH@d?4encryptedData?$AA@ 0007eb98     libeay32:cms_asn1.obj
 0002:00018ba8       ??_C@_0P@HJCJOBOP@d?4digestedData?$AA@ 0007eba8     libeay32:cms_asn1.obj
 0002:00018bb8       ??_C@_0BA@CCFAJLBF@d?4envelopedData?$AA@ 0007ebb8     libeay32:cms_asn1.obj
 0002:00018bc8       ??_C@_0N@DDIMJOHE@d?4signedData?$AA@ 0007ebc8     libeay32:cms_asn1.obj
 0002:00018bd8       ??_C@_06OAPKPHLA@d?4data?$AA@ 0007ebd8     libeay32:cms_asn1.obj
 0002:00018be0       ??_C@_0BD@IAIGGNCI@CMS_CompressedData?$AA@ 0007ebe0     libeay32:cms_asn1.obj
 0002:00018bf4       ??_C@_0BF@PNIPCJJ@compressionAlgorithm?$AA@ 0007ebf4     libeay32:cms_asn1.obj
 0002:00018c0c       ??_C@_0BG@DOMHNMEC@CMS_AuthenticatedData?$AA@ 0007ec0c     libeay32:cms_asn1.obj
 0002:00018c24       ??_C@_0M@FBFPDIHA@unauthAttrs?$AA@ 0007ec24     libeay32:cms_asn1.obj
 0002:00018c30       ??_C@_03BADCJGEO@mac?$AA@  0007ec30     libeay32:cms_asn1.obj
 0002:00018c34       ??_C@_09HHELNNLD@authAttrs?$AA@ 0007ec34     libeay32:cms_asn1.obj
 0002:00018c40       ??_C@_0N@PGIFJMM@macAlgorithm?$AA@ 0007ec40     libeay32:cms_asn1.obj
 0002:00018c50       ??_C@_0BC@ONODDCLB@CMS_EncryptedData?$AA@ 0007ec50     libeay32:cms_asn1.obj
 0002:00018c64       ??_C@_0BB@NNEFCOGL@CMS_DigestedData?$AA@ 0007ec64     libeay32:cms_asn1.obj
 0002:00018c78       ??_C@_0BC@MICBLAOD@CMS_EnvelopedData?$AA@ 0007ec78     libeay32:cms_asn1.obj
 0002:00018c8c       ??_C@_0BB@JCNJKAMK@unprotectedAttrs?$AA@ 0007ec8c     libeay32:cms_asn1.obj
 0002:00018ca0       ??_C@_0BF@OHLPJHAO@encryptedContentInfo?$AA@ 0007eca0     libeay32:cms_asn1.obj
 0002:00018cb8       ??_C@_0P@MHKJPFAE@recipientInfos?$AA@ 0007ecb8     libeay32:cms_asn1.obj
 0002:00018cc8       ??_C@_0P@HMLDCEHI@originatorInfo?$AA@ 0007ecc8     libeay32:cms_asn1.obj
 0002:00018cd8       ??_C@_0BC@OIOGGOHC@CMS_RecipientInfo?$AA@ 0007ecd8     libeay32:cms_asn1.obj
 0002:00018cec       ??_C@_05CDKGAJPA@d?4ori?$AA@ 0007ecec     libeay32:cms_asn1.obj
 0002:00018cf4       ??_C@_06MMLMDIAL@d?4pwri?$AA@ 0007ecf4     libeay32:cms_asn1.obj
 0002:00018cfc       ??_C@_07GNHCNHGA@d?4kekri?$AA@ 0007ecfc     libeay32:cms_asn1.obj
 0002:00018d04       ??_C@_06KOPOJGNL@d?4kari?$AA@ 0007ed04     libeay32:cms_asn1.obj
 0002:00018d0c       ??_C@_06MJDJDBHG@d?4ktri?$AA@ 0007ed0c     libeay32:cms_asn1.obj
 0002:00018d14       ??_C@_0BH@ELFPNLNE@CMS_OtherRecipientInfo?$AA@ 0007ed14     libeay32:cms_asn1.obj
 0002:00018d2c       ??_C@_08CPLCPCAK@oriValue?$AA@ 0007ed2c     libeay32:cms_asn1.obj
 0002:00018d38       ??_C@_07FAMFHMLO@oriType?$AA@ 0007ed38     libeay32:cms_asn1.obj
 0002:00018d40       ??_C@_0BK@KBPCOALF@CMS_PasswordRecipientInfo?$AA@ 0007ed40     libeay32:cms_asn1.obj
 0002:00018d5c       ??_C@_0BH@OGDBOKG@keyDerivationAlgorithm?$AA@ 0007ed5c     libeay32:cms_asn1.obj
 0002:00018d74       ??_C@_0BF@NBHFGDNK@CMS_KEKRecipientInfo?$AA@ 0007ed74     libeay32:cms_asn1.obj
 0002:00018d8c       ??_C@_05NHGMHHPG@kekid?$AA@ 0007ed8c     libeay32:cms_asn1.obj
 0002:00018d94       ??_C@_0BC@MBEMIKEG@CMS_KEKIdentifier?$AA@ 0007ed94     libeay32:cms_asn1.obj
 0002:00018da8       ??_C@_0O@NFJHJHKH@keyIdentifier?$AA@ 0007eda8     libeay32:cms_asn1.obj
 0002:00018db8       ??_C@_0BK@FMJLFKK@CMS_KeyAgreeRecipientInfo?$AA@ 0007edb8     libeay32:cms_asn1.obj
 0002:00018dd4       ??_C@_0BH@PJIHPFGD@recipientEncryptedKeys?$AA@ 0007edd4     libeay32:cms_asn1.obj
 0002:00018dec       ??_C@_03BGILEBGG@ukm?$AA@  0007edec     libeay32:cms_asn1.obj
 0002:00018df0       ??_C@_0L@LNFLHOFG@originator?$AA@ 0007edf0     libeay32:cms_asn1.obj
 0002:00018dfc       ??_C@_0BO@EGGGKLC@CMS_OriginatorIdentifierOrKey?$AA@ 0007edfc     libeay32:cms_asn1.obj
 0002:00018e1c       ??_C@_0BA@GMAGEPIK@d?4originatorKey?$AA@ 0007ee1c     libeay32:cms_asn1.obj
 0002:00018e2c       ??_C@_0BI@BANGJHOF@CMS_OriginatorPublicKey?$AA@ 0007ee2c     libeay32:cms_asn1.obj
 0002:00018e44       ??_C@_09IDENFCJL@publicKey?$AA@ 0007ee44     libeay32:cms_asn1.obj
 0002:00018e50       ??_C@_0BK@PEPAIBDP@CMS_RecipientEncryptedKey?$AA@ 0007ee50     libeay32:cms_asn1.obj
 0002:00018e6c       ??_C@_0CA@LLLOPIGI@CMS_KeyAgreeRecipientIdentifier?$AA@ 0007ee6c     libeay32:cms_asn1.obj
 0002:00018e8c       ??_C@_08NDNCHPPH@d?4rKeyId?$AA@ 0007ee8c     libeay32:cms_asn1.obj
 0002:00018e98       ??_C@_0BL@KIFNEPBG@CMS_RecipientKeyIdentifier?$AA@ 0007ee98     libeay32:cms_asn1.obj
 0002:00018eb4       ??_C@_05BGEKGIIP@other?$AA@ 0007eeb4     libeay32:cms_asn1.obj
 0002:00018ebc       ??_C@_04JNIHBGGH@date?$AA@ 0007eebc     libeay32:cms_asn1.obj
 0002:00018ec4       ??_C@_0BG@MPKMCLOF@CMS_OtherKeyAttribute?$AA@ 0007eec4     libeay32:cms_asn1.obj
 0002:00018edc       ??_C@_07CNMADOPK@keyAttr?$AA@ 0007eedc     libeay32:cms_asn1.obj
 0002:00018ee4       ??_C@_09FBOICBLA@keyAttrId?$AA@ 0007eee4     libeay32:cms_asn1.obj
 0002:00018ef0       ??_C@_0BK@JKNAJMBM@CMS_KeyTransRecipientInfo?$AA@ 0007eef0     libeay32:cms_asn1.obj
 0002:00018f0c       ??_C@_0N@DJLGIBLA@encryptedKey?$AA@ 0007ef0c     libeay32:cms_asn1.obj
 0002:00018f1c       ??_C@_0BH@NBKKPKMP@keyEncryptionAlgorithm?$AA@ 0007ef1c     libeay32:cms_asn1.obj
 0002:00018f34       ??_C@_03FJBKBGPI@rid?$AA@  0007ef34     libeay32:cms_asn1.obj
 0002:00018f38       ??_C@_0BJ@IHPALOIM@CMS_EncryptedContentInfo?$AA@ 0007ef38     libeay32:cms_asn1.obj
 0002:00018f54       ??_C@_0BB@HAOJNDCF@encryptedContent?$AA@ 0007ef54     libeay32:cms_asn1.obj
 0002:00018f68       ??_C@_0BL@JFGGCGJK@contentEncryptionAlgorithm?$AA@ 0007ef68     libeay32:cms_asn1.obj
 0002:00018f84       ??_C@_0BD@BOLANDH@CMS_OriginatorInfo?$AA@ 0007ef84     libeay32:cms_asn1.obj
 0002:00018f98       ??_C@_0P@IFJHOEIE@CMS_SignedData?$AA@ 0007ef98     libeay32:cms_asn1.obj
 0002:00018fa8       ??_C@_0M@OPIAHELE@signerInfos?$AA@ 0007efa8     libeay32:cms_asn1.obj
 0002:00018fb4       ??_C@_04GDKGHFBJ@crls?$AA@ 0007efb4     libeay32:cms_asn1.obj
 0002:00018fbc       ??_C@_0N@NGKEHKOM@certificates?$AA@ 0007efbc     libeay32:cms_asn1.obj
 0002:00018fcc       ??_C@_0BB@EFFJPOAL@encapContentInfo?$AA@ 0007efcc     libeay32:cms_asn1.obj
 0002:00018fe0       ??_C@_0BB@CMPBPEDI@digestAlgorithms?$AA@ 0007efe0     libeay32:cms_asn1.obj
 0002:00018ff4       ??_C@_0BJ@MJACOINL@CMS_RevocationInfoChoice?$AA@ 0007eff4     libeay32:cms_asn1.obj
 0002:00019010       ??_C@_05BEAHECAN@d?4crl?$AA@ 0007f010     libeay32:cms_asn1.obj
 0002:00019018       ??_C@_0BO@ONAFHMMC@CMS_OtherRevocationInfoFormat?$AA@ 0007f018     libeay32:cms_asn1.obj
 0002:00019038       ??_C@_0N@MOBLFMFA@otherRevInfo?$AA@ 0007f038     libeay32:cms_asn1.obj
 0002:00019048       ??_C@_0BD@HLCFDNLB@otherRevInfoFormat?$AA@ 0007f048     libeay32:cms_asn1.obj
 0002:0001905c       ??_C@_0P@HBMKILHF@CMS_SignerInfo?$AA@ 0007f05c     libeay32:cms_asn1.obj
 0002:0001906c       ??_C@_0O@PDNEMLFH@unsignedAttrs?$AA@ 0007f06c     libeay32:cms_asn1.obj
 0002:0001907c       ??_C@_09CMIIOJHF@signature?$AA@ 0007f07c     libeay32:cms_asn1.obj
 0002:00019088       ??_C@_0BD@CBMBFDMH@signatureAlgorithm?$AA@ 0007f088     libeay32:cms_asn1.obj
 0002:0001909c       ??_C@_0M@MDGDHPDJ@signedAttrs?$AA@ 0007f09c     libeay32:cms_asn1.obj
 0002:000190a8       ??_C@_0BA@OBGGJDDI@digestAlgorithm?$AA@ 0007f0a8     libeay32:cms_asn1.obj
 0002:000190b8       ??_C@_03OBKGHBJN@sid?$AA@  0007f0b8     libeay32:cms_asn1.obj
 0002:000190bc       ??_C@_0BM@FGCJFMKP@CMS_EncapsulatedContentInfo?$AA@ 0007f0bc     libeay32:cms_asn1.obj
 0002:000190d8       ??_C@_08OOKAKDHE@eContent?$AA@ 0007f0d8     libeay32:cms_asn1.obj
 0002:000190e4       ??_C@_0N@EBAJNGML@eContentType?$AA@ 0007f0e4     libeay32:cms_asn1.obj
 0002:000190f4       ??_C@_0BF@HIKDPBH@CMS_SignerIdentifier?$AA@ 0007f0f4     libeay32:cms_asn1.obj
 0002:0001910c       ??_C@_0BH@LJLJDHKP@d?4subjectKeyIdentifier?$AA@ 0007f10c     libeay32:cms_asn1.obj
 0002:00019124       ??_C@_0BI@DNGDMGHK@d?4issuerAndSerialNumber?$AA@ 0007f124     libeay32:cms_asn1.obj
 0002:0001913c       ??_C@_0BH@CFNIJMB@CMS_CertificateChoices?$AA@ 0007f13c     libeay32:cms_asn1.obj
 0002:00019154       ??_C@_07JIJPKMF@d?4other?$AA@ 0007f154     libeay32:cms_asn1.obj
 0002:0001915c       ??_C@_0N@FODDOFO@d?4v2AttrCert?$AA@ 0007f15c     libeay32:cms_asn1.obj
 0002:0001916c       ??_C@_0N@OONEIFFN@d?4v1AttrCert?$AA@ 0007f16c     libeay32:cms_asn1.obj
 0002:0001917c       ??_C@_0BG@NLAONGA@d?4extendedCertificate?$AA@ 0007f17c     libeay32:cms_asn1.obj
 0002:00019194       ??_C@_0O@MNFCNMPJ@d?4certificate?$AA@ 0007f194     libeay32:cms_asn1.obj
 0002:000191a4       ??_C@_0BL@CACJFKMB@CMS_OtherCertificateFormat?$AA@ 0007f1a4     libeay32:cms_asn1.obj
 0002:000191c0       ??_C@_09CDBALEP@otherCert?$AA@ 0007f1c0     libeay32:cms_asn1.obj
 0002:000191cc       ??_C@_0BA@FEKMLOFK@otherCertFormat?$AA@ 0007f1cc     libeay32:cms_asn1.obj
 0002:000191dc       ??_C@_0BK@GLMHLHML@CMS_IssuerAndSerialNumber?$AA@ 0007f1dc     libeay32:cms_asn1.obj
 0002:000191f8       ??_C@_06EAINIONG@issuer?$AA@ 0007f1f8     libeay32:cms_asn1.obj
 0002:00019200       ??_C@_0EN@MLHPIIH@d?3?2wm653wehh?2platform?2mvv210?2src@ 0007f200     libeay32:cms_lib.obj
 0002:00019250       ??_C@_0EN@CBCEBCDK@d?3?2wm653wehh?2platform?2mvv210?2src@ 0007f250     libeay32:cms_enc.obj
 0002:000192a0       ??_C@_0EM@PJNFBCEL@d?3?2wm653wehh?2platform?2mvv210?2src@ 0007f2a0     libeay32:cms_sd.obj
 0002:00019318       ??_C@_0O@MABGKINF@timestampsign?$AA@ 0007f318     libeay32:v3_purp.obj
 0002:00019328       ??_C@_0BD@HLGKGIIB@Time?5Stamp?5signing?$AA@ 0007f328     libeay32:v3_purp.obj
 0002:0001933c       ??_C@_0L@IMHCEJBK@ocsphelper?$AA@ 0007f33c     libeay32:v3_purp.obj
 0002:00019348       ??_C@_0M@NEPIMEJA@OCSP?5helper?$AA@ 0007f348     libeay32:v3_purp.obj
 0002:00019354       ??_C@_03OBJFJEBA@any?$AA@  0007f354     libeay32:v3_purp.obj
 0002:00019358       ??_C@_0M@NMNFLNDB@Any?5Purpose?$AA@ 0007f358     libeay32:v3_purp.obj
 0002:00019364       ??_C@_07IOMCDAPH@crlsign?$AA@ 0007f364     libeay32:v3_purp.obj
 0002:0001936c       ??_C@_0M@MEKLJHLA@CRL?5signing?$AA@ 0007f36c     libeay32:v3_purp.obj
 0002:00019378       ??_C@_0N@BPFJELMP@smimeencrypt?$AA@ 0007f378     libeay32:v3_purp.obj
 0002:00019388       ??_C@_0BC@DOGNOPGC@S?1MIME?5encryption?$AA@ 0007f388     libeay32:v3_purp.obj
 0002:0001939c       ??_C@_09JPGBHOKH@smimesign?$AA@ 0007f39c     libeay32:v3_purp.obj
 0002:000193a8       ??_C@_0P@LNDEBCCO@S?1MIME?5signing?$AA@ 0007f3a8     libeay32:v3_purp.obj
 0002:000193b8       ??_C@_0M@GKHHMMAE@nssslserver?$AA@ 0007f3b8     libeay32:v3_purp.obj
 0002:000193c4       ??_C@_0BE@BPEJPGJG@Netscape?5SSL?5server?$AA@ 0007f3c4     libeay32:v3_purp.obj
 0002:000193d8       ??_C@_09FEILOJPJ@sslserver?$AA@ 0007f3d8     libeay32:v3_purp.obj
 0002:000193e4       ??_C@_0L@PNDNFADH@SSL?5server?$AA@ 0007f3e4     libeay32:v3_purp.obj
 0002:000193f0       ??_C@_09BLMJDCHK@sslclient?$AA@ 0007f3f0     libeay32:v3_purp.obj
 0002:000193fc       ??_C@_0L@LCHPILLE@SSL?5client?$AA@ 0007f3fc     libeay32:v3_purp.obj
 0002:00019408       ??_C@_0FA@EPMAEJOB@d?3?2wm653wehh?2platform?2mvv210?2src@ 0007f408     libeay32:v3_purp.obj
 0002:00019458       ??_C@_0EO@PHNCOBFO@d?3?2wm653wehh?2platform?2mvv210?2src@ 0007f458     libeay32:pmeth_fn.obj
 0002:000194b0       AES_version                0007f4b0     libeay32:aes_misc.obj
 0002:000194d8       ??_C@_0EO@LKMDOFNL@d?3?2wm653wehh?2platform?2mvv210?2src@ 0007f4d8     libeay32:cms_pwri.obj
 0002:00019528       ??_C@_0BI@NFPKAKEA@Eric?5Young?8s?5PKCS?$CD1?5RSA?$AA@ 0007f528     libeay32:rsa_eay.obj
 0002:00019540       ??_C@_0EN@FLFPHDGA@d?3?2wm653wehh?2platform?2mvv210?2src@ 0007f540     libeay32:rsa_eay.obj
 0002:00019598       cmac_asn1_meth             0007f598     libeay32:cm_ameth.obj
 0002:00019604       ??_C@_0BE@GBIGMENL@OpenSSL?5CMAC?5method?$AA@ 0007f604     libeay32:cm_ameth.obj
 0002:00019618       hmac_asn1_meth             0007f618     libeay32:hm_ameth.obj
 0002:00019684       ??_C@_0BE@BABEGANF@OpenSSL?5HMAC?5method?$AA@ 0007f684     libeay32:hm_ameth.obj
 0002:00019698       ??_C@_0EP@LPMJCFIA@d?3?2wm653wehh?2platform?2mvv210?2src@ 0007f698     libeay32:hm_ameth.obj
 0002:000196e8       eckey_asn1_meth            0007f6e8     libeay32:ec_ameth.obj
 0002:00019754       ??_C@_0BF@DKDIFOGG@OpenSSL?5EC?5algorithm?$AA@ 0007f754     libeay32:ec_ameth.obj
 0002:0001976c       ??_C@_02KNLLHFAA@EC?$AA@   0007f76c     libeay32:ec_ameth.obj
 0002:00019770       ??_C@_0EN@OGHGAGHH@d?3?2wm653wehh?2platform?2mvv210?2src@ 0007f770     libeay32:ec_ameth.obj
 0002:000197c0       ??_C@_05FJHKEHEO@pub?3?5?$AA@ 0007f7c0     libeay32:ec_ameth.obj
 0002:000197c8       ??_C@_05PFPGJCCA@priv?3?$AA@ 0007f7c8     libeay32:ec_ameth.obj
 0002:000197d0       ??_C@_0O@OPPPNLCD@?$CFs?3?5?$CI?$CFd?5bit?$CJ?6?$AA@ 0007f7d0     libeay32:ec_ameth.obj
 0002:000197e0       ??_C@_0BB@DMDKLH@ECDSA?9Parameters?$AA@ 0007f7e0     libeay32:ec_ameth.obj
 0002:000197f4       ??_C@_0L@FMJMEKAC@Public?9Key?$AA@ 0007f7f4     libeay32:ec_ameth.obj
 0002:00019800       ??_C@_0M@CJKOCIEC@Private?9Key?$AA@ 0007f800     libeay32:ec_ameth.obj
 0002:00019810       dsa_asn1_meths             0007f810     libeay32:dsa_ameth.obj
 0002:00019a30       ??_C@_0EP@BEDNKKJD@d?3?2wm653wehh?2platform?2mvv210?2src@ 0007fa30     libeay32:dsa_ameth.obj
 0002:00019a80       ??_C@_05LKAKAJND@G?3?5?5?5?$AA@ 0007fa80     libeay32:dsa_ameth.obj
 0002:00019a88       ??_C@_05GPIFOIFF@Q?3?5?5?5?$AA@ 0007fa88     libeay32:dsa_ameth.obj
 0002:00019a90       ??_C@_05KENJDLPA@P?3?5?5?5?$AA@ 0007fa90     libeay32:dsa_ameth.obj
 0002:00019a98       ??_C@_0P@LAFOADJN@DSA?9Parameters?$AA@ 0007fa98     libeay32:dsa_ameth.obj
 0002:00019aa8       ??_C@_05CFOBEMGI@s?3?5?5?5?$AA@ 0007faa8     libeay32:dsa_ameth.obj
 0002:00019ab0       ??_C@_05OOLNJPMN@r?3?5?5?5?$AA@ 0007fab0     libeay32:dsa_ameth.obj
 0002:00019ab8       ??_C@_01EEMJAFIK@?6?$AA@   0007fab8     libeay32:dsa_ameth.obj
 0002:00019ac0       dh_asn1_meth               0007fac0     libeay32:dh_ameth.obj
 0002:00019b2c       ??_C@_0BJ@OPGBMMOB@OpenSSL?5PKCS?$CD3?5DH?5method?$AA@ 0007fb2c     libeay32:dh_ameth.obj
 0002:00019b48       ??_C@_02EPINMGPM@DH?$AA@   0007fb48     libeay32:dh_ameth.obj
 0002:00019b50       ??_C@_0EN@KFNOHMJF@d?3?2wm653wehh?2platform?2mvv210?2src@ 0007fb50     libeay32:dh_ameth.obj
 0002:00019ba0       ??_C@_0CF@KKPEILHE@recommended?9private?9length?3?5?$CFd?5b@ 0007fba0     libeay32:dh_ameth.obj
 0002:00019bc8       ??_C@_0L@HDGHCIJF@generator?3?$AA@ 0007fbc8     libeay32:dh_ameth.obj
 0002:00019bd4       ??_C@_06POMKLBDA@prime?3?$AA@ 0007fbd4     libeay32:dh_ameth.obj
 0002:00019bdc       ??_C@_0M@BCALNHOD@public?9key?3?$AA@ 0007fbdc     libeay32:dh_ameth.obj
 0002:00019be8       ??_C@_0N@MPONDEBM@private?9key?3?$AA@ 0007fbe8     libeay32:dh_ameth.obj
 0002:00019bf8       ??_C@_0BF@HJBOBPFM@PKCS?$CD3?5DH?5Parameters?$AA@ 0007fbf8     libeay32:dh_ameth.obj
 0002:00019c10       ??_C@_0BF@NEOAIGKI@PKCS?$CD3?5DH?5Public?9Key?$AA@ 0007fc10     libeay32:dh_ameth.obj
 0002:00019c28       ??_C@_0BG@BPCFBOHI@PKCS?$CD3?5DH?5Private?9Key?$AA@ 0007fc28     libeay32:dh_ameth.obj
 0002:00019c40       rsa_asn1_meths             0007fc40     libeay32:rsa_ameth.obj
 0002:00019d18       ??_C@_0BD@MHOEKPBI@OpenSSL?5RSA?5method?$AA@ 0007fd18     libeay32:rsa_ameth.obj
 0002:00019d30       ??_C@_0EP@ECKOLFPF@d?3?2wm653wehh?2platform?2mvv210?2src@ 0007fd30     libeay32:rsa_ameth.obj
 0002:00019d80       ??_C@_0N@GNAMJPHF@coefficient?3?$AA@ 0007fd80     libeay32:rsa_ameth.obj
 0002:00019d90       ??_C@_0L@OKKEHIPG@exponent2?3?$AA@ 0007fd90     libeay32:rsa_ameth.obj
 0002:00019d9c       ??_C@_0L@OIOCMGKP@exponent1?3?$AA@ 0007fd9c     libeay32:rsa_ameth.obj
 0002:00019da8       ??_C@_07NJNHFNM@prime2?3?$AA@ 0007fda8     libeay32:rsa_ameth.obj
 0002:00019db0       ??_C@_07PNLMLIF@prime1?3?$AA@ 0007fdb0     libeay32:rsa_ameth.obj
 0002:00019db8       ??_C@_0BB@NFOLHHHJ@privateExponent?3?$AA@ 0007fdb8     libeay32:rsa_ameth.obj
 0002:00019dcc       ??_C@_08GIMLILAA@Modulus?3?$AA@ 0007fdcc     libeay32:rsa_ameth.obj
 0002:00019dd8       ??_C@_09DALHJPOO@Exponent?3?$AA@ 0007fdd8     libeay32:rsa_ameth.obj
 0002:00019de4       ??_C@_0BG@HAJOCCOP@Public?9Key?3?5?$CI?$CFd?5bit?$CJ?6?$AA@ 0007fde4     libeay32:rsa_ameth.obj
 0002:00019dfc       ??_C@_08OKDKAJKD@modulus?3?$AA@ 0007fdfc     libeay32:rsa_ameth.obj
 0002:00019e08       ??_C@_0BA@FAAMOFHC@publicExponent?3?$AA@ 0007fe08     libeay32:rsa_ameth.obj
 0002:00019e18       ??_C@_0BH@JHLDJION@Private?9Key?3?5?$CI?$CFd?5bit?$CJ?6?$AA@ 0007fe18     libeay32:rsa_ameth.obj
 0002:00019e30       ??_C@_0P@DDPOEOJA@0xbc?5?$CIdefault?$CJ?$AA@ 0007fe30     libeay32:rsa_ameth.obj
 0002:00019e40       ??_C@_0BA@LIMPMLCB@Trailer?5Field?3?5?$AA@ 0007fe40     libeay32:rsa_ameth.obj
 0002:00019e50       ??_C@_0N@LMKHLINK@20?5?$CIdefault?$CJ?$AA@ 0007fe50     libeay32:rsa_ameth.obj
 0002:00019e60       ??_C@_0O@KKNIODBM@Salt?5Length?3?5?$AA@ 0007fe60     libeay32:rsa_ameth.obj
 0002:00019e70       ??_C@_0BJ@NNFOENLD@mgf1?5with?5sha1?5?$CIdefault?$CJ?$AA@ 0007fe70     libeay32:rsa_ameth.obj
 0002:00019e8c       ??_C@_07DNODLGKM@INVALID?$AA@ 0007fe8c     libeay32:rsa_ameth.obj
 0002:00019e94       ??_C@_06BIDGLIKJ@?5with?5?$AA@ 0007fe94     libeay32:rsa_ameth.obj
 0002:00019e9c       ??_C@_0BB@HEAMLCPA@Mask?5Algorithm?3?5?$AA@ 0007fe9c     libeay32:rsa_ameth.obj
 0002:00019eb0       ??_C@_0P@ODEAMLKF@sha1?5?$CIdefault?$CJ?$AA@ 0007feb0     libeay32:rsa_ameth.obj
 0002:00019ec0       ??_C@_0BB@PMMDHLKH@Hash?5Algorithm?3?5?$AA@ 0007fec0     libeay32:rsa_ameth.obj
 0002:00019ed4       ??_C@_0BL@KMBKPBGM@?5?$CIINVALID?5PSS?5PARAMETERS?$CJ?6?$AA@ 0007fed4     libeay32:rsa_ameth.obj
 0002:00019ef0       ??_C@_0BF@JMOFLBJO@keylen?5?$DM?$DN?5sizeof?5key?$AA@ 0007fef0     libeay32:p5_crpt2.obj
 0002:00019f08       ??_C@_0EO@DONPFFAH@d?3?2wm653wehh?2platform?2mvv210?2src@ 0007ff08     libeay32:p5_crpt2.obj
 0002:00019f58       ??_C@_0FB@IJLBCKEP@d?3?2wm653wehh?2platform?2mvv210?2src@ 0007ff58     libeay32:p12_crpt.obj
 0002:00019fac       ??_C@_0CD@HMFJNEFL@EVP_CIPHER_iv_length?$CIcipher?$CJ?5?$DM?$DN?5@ 0007ffac     libeay32:p5_crpt.obj
 0002:00019fd0       ??_C@_0DF@FHOHFFEB@EVP_CIPHER_key_length?$CIcipher?$CJ?5?$DM?$DN@ 0007ffd0     libeay32:p5_crpt.obj
 0002:0001a008       ??_C@_0EN@DFHCIHFJ@d?3?2wm653wehh?2platform?2mvv210?2src@ 00080008     libeay32:p5_crpt.obj
 0002:0001a058       RAND_version               00080058     libeay32:md_rand.obj
 0002:0001a080       ??_C@_0EO@OKPIHEJM@d?3?2wm653wehh?2platform?2mvv210?2src@ 00080080     libeay32:md_rand.obj
 0002:0001a0d0       ??_C@_0EK@MHBHPLPP@You?5need?5to?5read?5the?5OpenSSL?5FAQ@ 000800d0     libeay32:md_rand.obj
 0002:0001a11c       ??_C@_0BF@KNMHCCP@?4?4?4?4?4?4?4?4?4?4?4?4?4?4?4?4?4?4?4?4?$AA@ 0008011c     libeay32:md_rand.obj
 0002:0001a138       ??_C@_0EP@DLKDJLKC@d?3?2wm653wehh?2platform?2mvv210?2src@ 00080138     libeay32:buffer.obj
 0002:0001a188       ??_C@_0EL@CLIEFBLC@d?3?2wm653wehh?2platform?2mvv210?2src@ 00080188     libeay32:bn_mod.obj
 0002:0001a1d8       ??_C@_0EP@PHFMEFHI@d?3?2wm653wehh?2platform?2mvv210?2src@ 000801d8     libeay32:a_bitstr.obj
 0002:0001a228       ??_C@_0EP@EEJMGOIG@d?3?2wm653wehh?2platform?2mvv210?2src@ 00080228     libeay32:tasn_utl.obj
 0002:0001a278       ??_C@_0FC@NLMGEGGH@d?3?2wm653wehh?2platform?2mvv210?2src@ 00080278     libeay32:tb_cipher.obj
 0002:0001a310       x509_name_ff               00080310     libeay32:x_name.obj
 0002:0001a3a8       ??_C@_09KGNJKBNF@X509_NAME?$AA@ 000803a8     libeay32:x_name.obj
 0002:0001a3b4       ??_C@_0BD@FDNDONGH@X509_NAME_INTERNAL?$AA@ 000803b4     libeay32:x_name.obj
 0002:0001a3c8       ??_C@_04FABLJDN@Name?$AA@  000803c8     libeay32:x_name.obj
 0002:0001a3d0       ??_C@_0BC@GJMCELDI@X509_NAME_ENTRIES?$AA@ 000803d0     libeay32:x_name.obj
 0002:0001a3e4       ??_C@_04IEOKPFHO@RDNS?$AA@ 000803e4     libeay32:x_name.obj
 0002:0001a3ec       ??_C@_0BA@KEPIIMOE@X509_NAME_ENTRY?$AA@ 000803ec     libeay32:x_name.obj
 0002:0001a400       ??_C@_0EN@KBGECLLO@d?3?2wm653wehh?2platform?2mvv210?2src@ 00080400     libeay32:x_name.obj
 0002:0001a5cc       ??_C@_07DLHCIBDH@default?$AA@ 000805cc     libeay32:a_strnid.obj
 0002:0001a5d8       v3_alt                     000805d8     libeay32:v3_alt.obj
 0002:0001a680       ??_C@_0O@KAIENCPE@Registered?5ID?$AA@ 00080680     libeay32:v3_alt.obj
 0002:0001a690       ??_C@_09DPMBDOD@?$DMinvalid?$DO?$AA@ 00080690     libeay32:v3_alt.obj
 0002:0001a69c       ??_C@_0L@NGHMMCPJ@IP?5Address?$AA@ 0008069c     libeay32:v3_alt.obj
 0002:0001a6a8       ??_C@_01JLIPDDHJ@?3?$AA@   000806a8     libeay32:v3_alt.obj
 0002:0001a6ac       ??_C@_02EMFKHFLK@?$CFX?$AA@ 000806ac     libeay32:v3_alt.obj
 0002:0001a6b0       ??_C@_07FDBCPIKC@DirName?$AA@ 000806b0     libeay32:v3_alt.obj
 0002:0001a6b8       ??_C@_03GMOLNBOB@URI?$AA@  000806b8     libeay32:v3_alt.obj
 0002:0001a6bc       ??_C@_03CBFPEBNE@DNS?$AA@  000806bc     libeay32:v3_alt.obj
 0002:0001a6c0       ??_C@_05HKHCDHCL@email?$AA@ 000806c0     libeay32:v3_alt.obj
 0002:0001a6c8       ??_C@_0N@EEELPIKD@EdiPartyName?$AA@ 000806c8     libeay32:v3_alt.obj
 0002:0001a6d8       ??_C@_08EBDOEGJI@X400Name?$AA@ 000806d8     libeay32:v3_alt.obj
 0002:0001a6e4       ??_C@_0O@NHCJKCDC@?$DMunsupported?$DO?$AA@ 000806e4     libeay32:v3_alt.obj
 0002:0001a6f4       ??_C@_09PAKBLAPA@othername?$AA@ 000806f4     libeay32:v3_alt.obj
 0002:0001a700       ??_C@_0BF@JMMIKJMP@IP?5Address?3?$DMinvalid?$DO?$AA@ 00080700     libeay32:v3_alt.obj
 0002:0001a718       ??_C@_03NMJGLHB@?3?$CFX?$AA@ 00080718     libeay32:v3_alt.obj
 0002:0001a71c       ??_C@_0BH@OAMIHBGI@IP?5Address?3?$CFd?4?$CFd?4?$CFd?4?$CFd?$AA@ 0008071c     libeay32:v3_alt.obj
 0002:0001a734       ??_C@_09JDCPLDLD@DirName?3?5?$AA@ 00080734     libeay32:v3_alt.obj
 0002:0001a740       ??_C@_06KCNJMDKO@URI?3?$CFs?$AA@ 00080740     libeay32:v3_alt.obj
 0002:0001a748       ??_C@_06DNDEBJBH@DNS?3?$CFs?$AA@ 00080748     libeay32:v3_alt.obj
 0002:0001a750       ??_C@_08LPBGKPKE@email?3?$CFs?$AA@ 00080750     libeay32:v3_alt.obj
 0002:0001a75c       ??_C@_0BL@HEOLJEB@EdiPartyName?3?$DMunsupported?$DO?$AA@ 0008075c     libeay32:v3_alt.obj
 0002:0001a778       ??_C@_0BH@HDOLFIDG@X400Name?3?$DMunsupported?$DO?$AA@ 00080778     libeay32:v3_alt.obj
 0002:0001a790       ??_C@_0BI@PGFKPDEJ@othername?3?$DMunsupported?$DO?$AA@ 00080790     libeay32:v3_alt.obj
 0002:0001a7a8       ??_C@_0EP@GIOEMKKC@d?3?2wm653wehh?2platform?2mvv210?2src@ 000807a8     libeay32:v3_alt.obj
 0002:0001a7f8       ??_C@_08LNPIPPMM@section?$DN?$AA@ 000807f8     libeay32:v3_alt.obj
 0002:0001a804       ??_C@_09DBGAJPPE@otherName?$AA@ 00080804     libeay32:v3_alt.obj
 0002:0001a810       ??_C@_07KKGEJKPE@dirName?$AA@ 00080810     libeay32:v3_alt.obj
 0002:0001a818       ??_C@_02MFEOMNPG@IP?$AA@   00080818     libeay32:v3_alt.obj
 0002:0001a81c       ??_C@_03FEOBNLIE@RID?$AA@  0008081c     libeay32:v3_alt.obj
 0002:0001a820       ??_C@_04COAGEIMF@copy?$AA@ 00080820     libeay32:v3_alt.obj
 0002:0001a828       ??_C@_04HDMMNHEL@move?$AA@ 00080828     libeay32:v3_alt.obj
 0002:0001a830       ??_C@_0EN@IDEDPOKO@d?3?2wm653wehh?2platform?2mvv210?2src@ 00080830     libeay32:dso_lib.obj
 0002:0001a880       CONF_version               00080880     libeay32:conf_lib.obj
 0002:0001a8a8       ??_C@_0EP@PNEKGEFM@d?3?2wm653wehh?2platform?2mvv210?2src@ 000808a8     libeay32:conf_lib.obj
 0002:0001a8f8       ??_C@_06NGDKEHGB@?5name?$DN?$AA@ 000808f8     libeay32:conf_lib.obj
 0002:0001a900       ??_C@_06BDPCGOPM@group?$DN?$AA@ 00080900     libeay32:conf_lib.obj
 0002:0001a908       ??_C@_02JDPG@rb?$AA@       00080908     libeay32:conf_lib.obj
 0002:0001a970       ??_C@_0EP@ELMNNBNC@d?3?2wm653wehh?2platform?2mvv210?2src@ 00080970     libeay32:x509_obj.obj
 0002:0001a9c0       ??_C@_0N@MJCHLFGM@NO?5X509_NAME?$AA@ 000809c0     libeay32:x509_obj.obj
 0002:0001aa2c       ??_C@_0M@INJPOKDH@X509_PUBKEY?$AA@ 00080a2c     libeay32:x_pubkey.obj
 0002:0001aa38       ??_C@_0L@PJCANJEE@public_key?$AA@ 00080a38     libeay32:x_pubkey.obj
 0002:0001aa48       ??_C@_0EP@OKMPOBJE@d?3?2wm653wehh?2platform?2mvv210?2src@ 00080a48     libeay32:x_pubkey.obj
 0002:0001ab5c       v3_idp                     00080b5c     libeay32:v3_crld.obj
 0002:0001ab94       v3_freshest_crl            00080b94     libeay32:v3_crld.obj
 0002:0001abcc       v3_crld                    00080bcc     libeay32:v3_crld.obj
 0002:0001ad30       ??_C@_0BD@ENBCPHJ@ISSUING_DIST_POINT?$AA@ 00080d30     libeay32:v3_crld.obj
 0002:0001ad44       ??_C@_08DBIINPPL@onlyattr?$AA@ 00080d44     libeay32:v3_crld.obj
 0002:0001ad50       ??_C@_0M@BECDICJC@indirectCRL?$AA@ 00080d50     libeay32:v3_crld.obj
 0002:0001ad5c       ??_C@_0BA@FNMBIJDN@onlysomereasons?$AA@ 00080d5c     libeay32:v3_crld.obj
 0002:0001ad6c       ??_C@_06PMNIEKCA@onlyCA?$AA@ 00080d6c     libeay32:v3_crld.obj
 0002:0001ad74       ??_C@_08CENLBPEH@onlyuser?$AA@ 00080d74     libeay32:v3_crld.obj
 0002:0001ad80       ??_C@_0BA@BBHAIMOE@CRL_DIST_POINTS?$AA@ 00080d80     libeay32:v3_crld.obj
 0002:0001ad90       ??_C@_0BG@CHNNADAE@CRLDistributionPoints?$AA@ 00080d90     libeay32:v3_crld.obj
 0002:0001ada8       ??_C@_0L@ELIKPJIH@DIST_POINT?$AA@ 00080da8     libeay32:v3_crld.obj
 0002:0001adb4       ??_C@_09GJHADLCP@CRLissuer?$AA@ 00080db4     libeay32:v3_crld.obj
 0002:0001adc0       ??_C@_07PFOCLIJD@reasons?$AA@ 00080dc0     libeay32:v3_crld.obj
 0002:0001adc8       ??_C@_09FBDFGJDL@distpoint?$AA@ 00080dc8     libeay32:v3_crld.obj
 0002:0001add4       ??_C@_0BA@MLHIPLLG@DIST_POINT_NAME?$AA@ 00080dd4     libeay32:v3_crld.obj
 0002:0001ade4       ??_C@_0BC@JDMJBKME@name?4relativename?$AA@ 00080de4     libeay32:v3_crld.obj
 0002:0001adf8       ??_C@_0O@HJHJCLAE@name?4fullname?$AA@ 00080df8     libeay32:v3_crld.obj
 0002:0001ae08       ??_C@_0N@LOIIODKP@AACompromise?$AA@ 00080e08     libeay32:v3_crld.obj
 0002:0001ae18       ??_C@_0O@PAGOKAK@AA?5Compromise?$AA@ 00080e18     libeay32:v3_crld.obj
 0002:0001ae28       ??_C@_0BD@PBLGJKCE@privilegeWithdrawn?$AA@ 00080e28     libeay32:v3_crld.obj
 0002:0001ae3c       ??_C@_0BE@FJCCMGMM@Privilege?5Withdrawn?$AA@ 00080e3c     libeay32:v3_crld.obj
 0002:0001ae50       ??_C@_0BA@FBHLCNLK@certificateHold?$AA@ 00080e50     libeay32:v3_crld.obj
 0002:0001ae60       ??_C@_0BB@IPDHDNJD@Certificate?5Hold?$AA@ 00080e60     libeay32:v3_crld.obj
 0002:0001ae74       ??_C@_0BF@IGJCOPF@cessationOfOperation?$AA@ 00080e74     libeay32:v3_crld.obj
 0002:0001ae8c       ??_C@_0BH@OLCOAMGF@Cessation?5Of?5Operation?$AA@ 00080e8c     libeay32:v3_crld.obj
 0002:0001aea4       ??_C@_0L@NHCKNIFL@superseded?$AA@ 00080ea4     libeay32:v3_crld.obj
 0002:0001aeb0       ??_C@_0L@FBLGFHIM@Superseded?$AA@ 00080eb0     libeay32:v3_crld.obj
 0002:0001aebc       ??_C@_0BD@BNOFAJLL@affiliationChanged?$AA@ 00080ebc     libeay32:v3_crld.obj
 0002:0001aed0       ??_C@_0BE@EECEIFAP@Affiliation?5Changed?$AA@ 00080ed0     libeay32:v3_crld.obj
 0002:0001aee4       ??_C@_0N@NONEFGOE@CACompromise?$AA@ 00080ee4     libeay32:v3_crld.obj
 0002:0001aef4       ??_C@_0O@OOGICOKH@CA?5Compromise?$AA@ 00080ef4     libeay32:v3_crld.obj
 0002:0001af04       ??_C@_0O@MCEAAJLH@keyCompromise?$AA@ 00080f04     libeay32:v3_crld.obj
 0002:0001af14       ??_C@_0P@JENDIECI@Key?5Compromise?$AA@ 00080f14     libeay32:v3_crld.obj
 0002:0001af24       ??_C@_06OJAIHGIC@unused?$AA@ 00080f24     libeay32:v3_crld.obj
 0002:0001af2c       ??_C@_06CGLFEPBO@Unused?$AA@ 00080f2c     libeay32:v3_crld.obj
 0002:0001af38       ??_C@_0FA@EFIBGCB@d?3?2wm653wehh?2platform?2mvv210?2src@ 00080f38     libeay32:v3_crld.obj
 0002:0001af88       ??_C@_08DGFAABGD@?$DMEMPTY?$DO?6?$AA@ 00080f88     libeay32:v3_crld.obj
 0002:0001af94       ??_C@_02KEGNLNML@?0?5?$AA@ 00080f94     libeay32:v3_crld.obj
 0002:0001af98       ??_C@_0L@NHIBCNGO@?$CF?$CKs?$CFs?3?6?$CF?$CKs?$AA@ 00080f98     libeay32:v3_crld.obj
 0002:0001afa4       ??_C@_03HIJPJGOM@?$CF?$CKs?$AA@ 00080fa4     libeay32:v3_crld.obj
 0002:0001afa8       ??_C@_0BG@GIOHENJJ@?$CF?$CKsRelative?5Name?3?6?$CF?$CKs?$AA@ 00080fa8     libeay32:v3_crld.obj
 0002:0001afc0       ??_C@_0P@DKAHDIGH@?$CF?$CKsFull?5Name?3?6?$AA@ 00080fc0     libeay32:v3_crld.obj
 0002:0001afd0       ??_C@_0M@FCFDJGIC@?$CF?$CKs?$DMEMPTY?$DO?6?$AA@ 00080fd0     libeay32:v3_crld.obj
 0002:0001afdc       ??_C@_0CA@IIIJNMJM@?$CF?$CKsOnly?5Attribute?5Certificates?6?$AA@ 00080fdc     libeay32:v3_crld.obj
 0002:0001affc       ??_C@_0BC@JDEOGEEL@Only?5Some?5Reasons?$AA@ 00080ffc     libeay32:v3_crld.obj
 0002:0001b010       ??_C@_0BB@FLBIDOKD@?$CF?$CKsIndirect?5CRL?6?$AA@ 00081010     libeay32:v3_crld.obj
 0002:0001b024       ??_C@_0BJ@GKBBKMLO@?$CF?$CKsOnly?5CA?5Certificates?6?$AA@ 00081024     libeay32:v3_crld.obj
 0002:0001b040       ??_C@_0BL@FLJCHEKF@?$CF?$CKsOnly?5User?5Certificates?6?$AA@ 00081040     libeay32:v3_crld.obj
 0002:0001b05c       ??_C@_0BA@NBJIBLNE@?$CF?$CKsCRL?5Issuer?3?6?$AA@ 0008105c     libeay32:v3_crld.obj
 0002:0001b06c       ??_C@_07MJENKMF@Reasons?$AA@ 0008106c     libeay32:v3_crld.obj
 0002:0001b074       ??_C@_0N@LGEOMMHB@relativename?$AA@ 00081074     libeay32:v3_crld.obj
 0002:0001b084       ??_C@_08BMACPLOA@fullname?$AA@ 00081084     libeay32:v3_crld.obj
 0002:0001b090       ??_C@_06PPFMJOEO@onlyAA?$AA@ 00081090     libeay32:v3_crld.obj
 0002:0001b098       v3_inhibit_anyp            00081098     libeay32:v3_int.obj
 0002:0001b0d0       v3_delta_crl               000810d0     libeay32:v3_int.obj
 0002:0001b108       v3_crl_num                 00081108     libeay32:v3_int.obj
 0002:0001b1b4       v3_policy_mappings         000811b4     libeay32:v3_pmaps.obj
 0002:0001b1ec       ??_C@_0BA@DHPBCFFC@POLICY_MAPPINGS?$AA@ 000811ec     libeay32:v3_pmaps.obj
 0002:0001b1fc       ??_C@_0P@NLHMKCKF@POLICY_MAPPING?$AA@ 000811fc     libeay32:v3_pmaps.obj
 0002:0001b20c       ??_C@_0BE@FFIKMOKF@subjectDomainPolicy?$AA@ 0008120c     libeay32:v3_pmaps.obj
 0002:0001b220       ??_C@_0BD@JILOPHFL@issuerDomainPolicy?$AA@ 00081220     libeay32:v3_pmaps.obj
 0002:0001b238       ??_C@_0FB@JMEEBLD@d?3?2wm653wehh?2platform?2mvv210?2src@ 00081238     libeay32:v3_pmaps.obj
 0002:0001b2ec       v3_name_constraints        000812ec     libeay32:v3_ncons.obj
 0002:0001b360       ??_C@_0BB@MLLJAFMN@NAME_CONSTRAINTS?$AA@ 00081360     libeay32:v3_ncons.obj
 0002:0001b374       ??_C@_0BB@HLFEMJKE@excludedSubtrees?$AA@ 00081374     libeay32:v3_ncons.obj
 0002:0001b388       ??_C@_0BC@FACFJLFB@permittedSubtrees?$AA@ 00081388     libeay32:v3_ncons.obj
 0002:0001b39c       ??_C@_0BA@ECMIFHDE@GENERAL_SUBTREE?$AA@ 0008139c     libeay32:v3_ncons.obj
 0002:0001b3ac       ??_C@_07MEIENILC@maximum?$AA@ 000813ac     libeay32:v3_ncons.obj
 0002:0001b3b4       ??_C@_07CCOEHHFD@minimum?$AA@ 000813b4     libeay32:v3_ncons.obj
 0002:0001b3bc       ??_C@_04BHIIPFEC@base?$AA@ 000813bc     libeay32:v3_ncons.obj
 0002:0001b3c8       ??_C@_0FB@NFBAFBGE@d?3?2wm653wehh?2platform?2mvv210?2src@ 000813c8     libeay32:v3_ncons.obj
 0002:0001b41c       ??_C@_08HPCEJEEF@excluded?$AA@ 0008141c     libeay32:v3_ncons.obj
 0002:0001b428       ??_C@_09HAKFOFAM@permitted?$AA@ 00081428     libeay32:v3_ncons.obj
 0002:0001b434       ??_C@_0BI@IFNIGPEJ@?$CFd?4?$CFd?4?$CFd?4?$CFd?1?$CFd?4?$CFd?4?$CFd?4?$CFd?$AA@ 00081434     libeay32:v3_ncons.obj
 0002:0001b44c       ??_C@_03HBLCMHJN@IP?3?$AA@ 0008144c     libeay32:v3_ncons.obj
 0002:0001b450       ??_C@_07GOIIHCND@?$CF?$CKs?$CFs?3?6?$AA@ 00081450     libeay32:v3_ncons.obj
 0002:0001b458       ??_C@_09DPPIOGNM@Permitted?$AA@ 00081458     libeay32:v3_ncons.obj
 0002:0001b464       ??_C@_08PNNFBGOG@Excluded?$AA@ 00081464     libeay32:v3_ncons.obj
 0002:0001b470       v3_pci                     00081470     libeay32:v3_pci.obj
 0002:0001b4a8       ??_C@_0BE@HDJEDONA@?$CF?$CKsPolicy?5Text?3?5?$CFs?6?$AA@ 000814a8     libeay32:v3_pci.obj
 0002:0001b4bc       ??_C@_0BF@CGHJNACM@?$CF?$CKsPolicy?5Language?3?5?$AA@ 000814bc     libeay32:v3_pci.obj
 0002:0001b4d4       ??_C@_08MAJEGHKB@infinite?$AA@ 000814d4     libeay32:v3_pci.obj
 0002:0001b4e0       ??_C@_0BM@BMCPHDD@?$CF?$CKsPath?5Length?5Constraint?3?5?$AA@ 000814e0     libeay32:v3_pci.obj
 0002:0001b4fc       ??_C@_05FHIGHPDA@text?3?$AA@ 000814fc     libeay32:v3_pci.obj
 0002:0001b504       ??_C@_05BOPHDICO@file?3?$AA@ 00081504     libeay32:v3_pci.obj
 0002:0001b50c       ??_C@_04ODCMNEMO@hex?3?$AA@ 0008150c     libeay32:v3_pci.obj
 0002:0001b514       ??_C@_06NJNJNICG@policy?$AA@ 00081514     libeay32:v3_pci.obj
 0002:0001b51c       ??_C@_07OGCPICFF@pathlen?$AA@ 0008151c     libeay32:v3_pci.obj
 0002:0001b528       ??_C@_0EP@IAENADAP@d?3?2wm653wehh?2platform?2mvv210?2src@ 00081528     libeay32:v3_pci.obj
 0002:0001b578       ??_C@_08JGCCIMAA@language?$AA@ 00081578     libeay32:v3_pci.obj
 0002:0001b584       v3_ocsp_serviceloc         00081584     libeay32:v3_ocsp.obj
 0002:0001b5bc       v3_ocsp_nocheck            000815bc     libeay32:v3_ocsp.obj
 0002:0001b5f4       v3_ocsp_nonce              000815f4     libeay32:v3_ocsp.obj
 0002:0001b62c       v3_crl_hold                0008162c     libeay32:v3_ocsp.obj
 0002:0001b664       v3_crl_invdate             00081664     libeay32:v3_ocsp.obj
 0002:0001b69c       v3_ocsp_acutoff            0008169c     libeay32:v3_ocsp.obj
 0002:0001b6d4       v3_ocsp_crlid              000816d4     libeay32:v3_ocsp.obj
 0002:0001b70c       ??_C@_0N@IBJOMEDL@?$CF?$CKscrlTime?3?5?$AA@ 0008170c     libeay32:v3_ocsp.obj
 0002:0001b71c       ??_C@_0M@MLCMBODE@?$CF?$CKscrlNum?3?5?$AA@ 0008171c     libeay32:v3_ocsp.obj
 0002:0001b728       ??_C@_0M@KIKBFHBJ@?$CF?$CKscrlUrl?3?5?$AA@ 00081728     libeay32:v3_ocsp.obj
 0002:0001b738       ??_C@_0FA@DGLJGNPA@d?3?2wm653wehh?2platform?2mvv210?2src@ 00081738     libeay32:v3_ocsp.obj
 0002:0001b788       ??_C@_04NFEJKGEM@?6?$CF?$CKs?$AA@ 00081788     libeay32:v3_ocsp.obj
 0002:0001b790       ??_C@_0M@IHOINNJF@?$CF?$CKsIssuer?3?5?$AA@ 00081790     libeay32:v3_ocsp.obj
 0002:0001b7e0       v3_policy_constraints      000817e0     libeay32:v3_pcons.obj
 0002:0001b818       ??_C@_0BD@MMPNIEIJ@POLICY_CONSTRAINTS?$AA@ 00081818     libeay32:v3_pcons.obj
 0002:0001b82c       ??_C@_0BF@MOMLJGAL@inhibitPolicyMapping?$AA@ 0008182c     libeay32:v3_pcons.obj
 0002:0001b844       ??_C@_0BG@HGJBEKFE@requireExplicitPolicy?$AA@ 00081844     libeay32:v3_pcons.obj
 0002:0001b85c       ??_C@_0BI@HNCHDEDI@Require?5Explicit?5Policy?$AA@ 0008185c     libeay32:v3_pcons.obj
 0002:0001b874       ??_C@_0BH@HMKHOMED@Inhibit?5Policy?5Mapping?$AA@ 00081874     libeay32:v3_pcons.obj
 0002:0001b890       ??_C@_0FB@LMCBHCHN@d?3?2wm653wehh?2platform?2mvv210?2src@ 00081890     libeay32:v3_pcons.obj
 0002:0001b914       v3_ocsp_accresp            00081914     libeay32:v3_extku.obj
 0002:0001b94c       v3_ext_ku                  0008194c     libeay32:v3_extku.obj
 0002:0001b984       ??_C@_0BD@CKAGEBEF@EXTENDED_KEY_USAGE?$AA@ 00081984     libeay32:v3_extku.obj
 0002:0001b998       ??_C@_0FB@GJDJKHPC@d?3?2wm653wehh?2platform?2mvv210?2src@ 00081998     libeay32:v3_extku.obj
 0002:0001ba74       v3_sxnet                   00081a74     libeay32:v3_sxnet.obj
 0002:0001baac       ??_C@_05BPAJFIHK@SXNET?$AA@ 00081aac     libeay32:v3_sxnet.obj
 0002:0001bab4       ??_C@_03NDFJNBKD@ids?$AA@  00081ab4     libeay32:v3_sxnet.obj
 0002:0001bab8       ??_C@_07FLDOGLPN@SXNETID?$AA@ 00081ab8     libeay32:v3_sxnet.obj
 0002:0001bac0       ??_C@_04CCHAHKJA@user?$AA@ 00081ac0     libeay32:v3_sxnet.obj
 0002:0001bac8       ??_C@_04LDDJGOBB@zone?$AA@ 00081ac8     libeay32:v3_sxnet.obj
 0002:0001bad0       ??_C@_0BF@NMLBNADB@?6?$CF?$CKsZone?3?5?$CFs?0?5User?3?5?$AA@ 00081ad0     libeay32:v3_sxnet.obj
 0002:0001bae8       ??_C@_0BI@GOEPAKBG@?$CF?$CKsVersion?3?5?$CFld?5?$CI0x?$CFlX?$CJ?$AA@ 00081ae8     libeay32:v3_sxnet.obj
 0002:0001bb00       ??_C@_0FB@HGCMGHKH@d?3?2wm653wehh?2platform?2mvv210?2src@ 00081b00     libeay32:v3_sxnet.obj
 0002:0001bb54       v3_crl_reason              00081b54     libeay32:v3_enum.obj
 0002:0001bb8c       ??_C@_0O@BILLKPKO@removeFromCRL?$AA@ 00081b8c     libeay32:v3_enum.obj
 0002:0001bb9c       ??_C@_0BA@GLPEKBIK@Remove?5From?5CRL?$AA@ 00081b9c     libeay32:v3_enum.obj
 0002:0001bbac       ??_C@_0M@MFMDLEDN@unspecified?$AA@ 00081bac     libeay32:v3_enum.obj
 0002:0001bbb8       ??_C@_0M@NNPCGPMF@Unspecified?$AA@ 00081bb8     libeay32:v3_enum.obj
 0002:0001bbc4       v3_akey_id                 00081bc4     libeay32:v3_akey.obj
 0002:0001bbfc       ??_C@_06KCELPKEE@serial?$AA@ 00081bfc     libeay32:v3_akey.obj
 0002:0001bc04       ??_C@_05CNHMOIOC@keyid?$AA@ 00081c04     libeay32:v3_akey.obj
 0002:0001bc10       ??_C@_0FA@BIHNLJGI@d?3?2wm653wehh?2platform?2mvv210?2src@ 00081c10     libeay32:v3_akey.obj
 0002:0001bc60       ??_C@_06KHDOHNKC@always?$AA@ 00081c60     libeay32:v3_akey.obj
 0002:0001be08       v3_cpols                   00081e08     libeay32:v3_cpols.obj
 0002:0001be40       ??_C@_09DFHLGOKA@NOTICEREF?$AA@ 00081e40     libeay32:v3_cpols.obj
 0002:0001be4c       ??_C@_09CFGHNILC@noticenos?$AA@ 00081e4c     libeay32:v3_cpols.obj
 0002:0001be58       ??_C@_0N@HEIPMDAG@organization?$AA@ 00081e58     libeay32:v3_cpols.obj
 0002:0001be68       ??_C@_0L@HCNDPADF@USERNOTICE?$AA@ 00081e68     libeay32:v3_cpols.obj
 0002:0001be74       ??_C@_07MHGINJOA@exptext?$AA@ 00081e74     libeay32:v3_cpols.obj
 0002:0001be7c       ??_C@_09FIKFDFH@noticeref?$AA@ 00081e7c     libeay32:v3_cpols.obj
 0002:0001be88       ??_C@_0P@POBJIHLD@POLICYQUALINFO?$AA@ 00081e88     libeay32:v3_cpols.obj
 0002:0001be98       ??_C@_07LEEILOKB@pqualid?$AA@ 00081e98     libeay32:v3_cpols.obj
 0002:0001bea0       ??_C@_0N@JPAHANFF@d?4usernotice?$AA@ 00081ea0     libeay32:v3_cpols.obj
 0002:0001beb0       ??_C@_08EECALGEF@d?4cpsuri?$AA@ 00081eb0     libeay32:v3_cpols.obj
 0002:0001bebc       ??_C@_0L@POLPGHJK@POLICYINFO?$AA@ 00081ebc     libeay32:v3_cpols.obj
 0002:0001bec8       ??_C@_0L@HMNGMMJI@qualifiers?$AA@ 00081ec8     libeay32:v3_cpols.obj
 0002:0001bed4       ??_C@_08NEBFOBH@policyid?$AA@ 00081ed4     libeay32:v3_cpols.obj
 0002:0001bee0       ??_C@_0BE@GJBJOOCP@CERTIFICATEPOLICIES?$AA@ 00081ee0     libeay32:v3_cpols.obj
 0002:0001bef8       ??_C@_0FB@GCODJBIG@d?3?2wm653wehh?2platform?2mvv210?2src@ 00081ef8     libeay32:v3_cpols.obj
 0002:0001bf4c       ??_C@_0BG@IHHCDAMH@?$CF?$CKsExplicit?5Text?3?5?$CFs?6?$AA@ 00081f4c     libeay32:v3_cpols.obj
 0002:0001bf64       ??_C@_0O@EFHNHHDA@?$CF?$CKsNumber?$CFs?3?5?$AA@ 00081f64     libeay32:v3_cpols.obj
 0002:0001bf74       ??_C@_0BF@OCNFPJOG@?$CF?$CKsOrganization?3?5?$CFs?6?$AA@ 00081f74     libeay32:v3_cpols.obj
 0002:0001bf8c       ??_C@_0O@OKDALMJE@noticeNumbers?$AA@ 00081f8c     libeay32:v3_cpols.obj
 0002:0001bf9c       ??_C@_0N@EALKMFB@explicitText?$AA@ 00081f9c     libeay32:v3_cpols.obj
 0002:0001bfac       ??_C@_0M@ICGFCJNO@?$CF?$CKsCPS?3?5?$CFs?6?$AA@ 00081fac     libeay32:v3_cpols.obj
 0002:0001bfb8       ??_C@_0BB@MMPKKFLI@?$CF?$CKsUser?5Notice?3?6?$AA@ 00081fb8     libeay32:v3_cpols.obj
 0002:0001bfcc       ??_C@_0BH@CHOAEJEJ@?$CF?$CKsUnknown?5Qualifier?3?5?$AA@ 00081fcc     libeay32:v3_cpols.obj
 0002:0001bfe4       ??_C@_0M@BBFMFBLN@?$CF?$CKsPolicy?3?5?$AA@ 00081fe4     libeay32:v3_cpols.obj
 0002:0001bff0       ??_C@_0L@LADHLIJ@userNotice?$AA@ 00081ff0     libeay32:v3_cpols.obj
 0002:0001bffc       ??_C@_03KKDAPHBH@CPS?$AA@  00081ffc     libeay32:v3_cpols.obj
 0002:0001c000       ??_C@_0BB@FIJMMMGE@policyIdentifier?$AA@ 00082000     libeay32:v3_cpols.obj
 0002:0001c014       ??_C@_06MIFIGELF@ia5org?$AA@ 00082014     libeay32:v3_cpols.obj
 0002:0001c060       v3_bcons                   00082060     libeay32:v3_bcons.obj
 0002:0001c098       ??_C@_0BC@PKPCGCD@BASIC_CONSTRAINTS?$AA@ 00082098     libeay32:v3_bcons.obj
 0002:0001c0ac       ??_C@_02DGMJAJHC@ca?$AA@   000820ac     libeay32:v3_bcons.obj
 0002:0001c0b0       ??_C@_02JLAAGLDA@CA?$AA@   000820b0     libeay32:v3_bcons.obj
 0002:0001c0b8       ??_C@_0FB@ICLPEECL@d?3?2wm653wehh?2platform?2mvv210?2src@ 000820b8     libeay32:v3_bcons.obj
 0002:0001c150       v3_pkey_usage_period       00082150     libeay32:v3_pku.obj
 0002:0001c188       ??_C@_0BC@CCOKACDM@PKEY_USAGE_PERIOD?$AA@ 00082188     libeay32:v3_pku.obj
 0002:0001c19c       ??_C@_08PJIFIJBI@notAfter?$AA@ 0008219c     libeay32:v3_pku.obj
 0002:0001c1a8       ??_C@_09MJPOMOII@notBefore?$AA@ 000821a8     libeay32:v3_pku.obj
 0002:0001c1b4       ??_C@_0M@FCHJLIHE@Not?5After?3?5?$AA@ 000821b4     libeay32:v3_pku.obj
 0002:0001c1c0       ??_C@_0N@KGLJEEMK@Not?5Before?3?5?$AA@ 000821c0     libeay32:v3_pku.obj
 0002:0001c1d0       v3_key_usage               000821d0     libeay32:v3_bitst.obj
 0002:0001c208       v3_nscert                  00082208     libeay32:v3_bitst.obj
 0002:0001c240       ??_C@_0N@LIFHMFCO@decipherOnly?$AA@ 00082240     libeay32:v3_bitst.obj
 0002:0001c250       ??_C@_0O@FKBAPCEG@Decipher?5Only?$AA@ 00082250     libeay32:v3_bitst.obj
 0002:0001c260       ??_C@_0N@BEFDLIKF@encipherOnly?$AA@ 00082260     libeay32:v3_bitst.obj
 0002:0001c270       ??_C@_0O@CANGKMJD@Encipher?5Only?$AA@ 00082270     libeay32:v3_bitst.obj
 0002:0001c280       ??_C@_07IHBCCDFJ@cRLSign?$AA@ 00082280     libeay32:v3_bitst.obj
 0002:0001c288       ??_C@_08OCJGKMAN@CRL?5Sign?$AA@ 00082288     libeay32:v3_bitst.obj
 0002:0001c294       ??_C@_0M@ONBOOMGI@keyCertSign?$AA@ 00082294     libeay32:v3_bitst.obj
 0002:0001c2a0       ??_C@_0BB@ELNGMDLH@Certificate?5Sign?$AA@ 000822a0     libeay32:v3_bitst.obj
 0002:0001c2b4       ??_C@_0N@GONHKOEO@keyAgreement?$AA@ 000822b4     libeay32:v3_bitst.obj
 0002:0001c2c4       ??_C@_0O@EOJOBCHL@Key?5Agreement?$AA@ 000822c4     libeay32:v3_bitst.obj
 0002:0001c2d4       ??_C@_0BB@LBKKKIGO@dataEncipherment?$AA@ 000822d4     libeay32:v3_bitst.obj
 0002:0001c2e8       ??_C@_0BC@GNPIAJLP@Data?5Encipherment?$AA@ 000822e8     libeay32:v3_bitst.obj
 0002:0001c2fc       ??_C@_0BA@MINCLOJG@keyEncipherment?$AA@ 000822fc     libeay32:v3_bitst.obj
 0002:0001c30c       ??_C@_0BB@KNACIBEN@Key?5Encipherment?$AA@ 0008230c     libeay32:v3_bitst.obj
 0002:0001c320       ??_C@_0P@GPCNPOGO@nonRepudiation?$AA@ 00082320     libeay32:v3_bitst.obj
 0002:0001c330       ??_C@_0BA@DJCGBBAI@Non?5Repudiation?$AA@ 00082330     libeay32:v3_bitst.obj
 0002:0001c340       ??_C@_0BB@MFKHIIOM@digitalSignature?$AA@ 00082340     libeay32:v3_bitst.obj
 0002:0001c354       ??_C@_0BC@DPKEIPIO@Digital?5Signature?$AA@ 00082354     libeay32:v3_bitst.obj
 0002:0001c368       ??_C@_05JLEIJNEE@objCA?$AA@ 00082368     libeay32:v3_bitst.obj
 0002:0001c370       ??_C@_0BC@FAMHGMHB@Object?5Signing?5CA?$AA@ 00082370     libeay32:v3_bitst.obj
 0002:0001c384       ??_C@_07FFHDGPMJ@emailCA?$AA@ 00082384     libeay32:v3_bitst.obj
 0002:0001c38c       ??_C@_09GIEMCMEO@S?1MIME?5CA?$AA@ 0008238c     libeay32:v3_bitst.obj
 0002:0001c398       ??_C@_05JHLHLOEK@sslCA?$AA@ 00082398     libeay32:v3_bitst.obj
 0002:0001c3a0       ??_C@_06FMDLPOFJ@SSL?5CA?$AA@ 000823a0     libeay32:v3_bitst.obj
 0002:0001c3a8       ??_C@_08FINKBBAF@reserved?$AA@ 000823a8     libeay32:v3_bitst.obj
 0002:0001c3b4       ??_C@_07GIOKFKGL@objsign?$AA@ 000823b4     libeay32:v3_bitst.obj
 0002:0001c3bc       ??_C@_0P@DDHLFHHK@Object?5Signing?$AA@ 000823bc     libeay32:v3_bitst.obj
 0002:0001c3cc       ??_C@_06HJHJCKIO@server?$AA@ 000823cc     libeay32:v3_bitst.obj
 0002:0001c3d4       ??_C@_0L@DCIAGJKL@SSL?5Server?$AA@ 000823d4     libeay32:v3_bitst.obj
 0002:0001c3e0       ??_C@_06DGDLPBAN@client?$AA@ 000823e0     libeay32:v3_bitst.obj
 0002:0001c3e8       ??_C@_0L@HNMCLCCI@SSL?5Client?$AA@ 000823e8     libeay32:v3_bitst.obj
 0002:0001c3f8       ??_C@_0FB@EKHJICLH@d?3?2wm653wehh?2platform?2mvv210?2src@ 000823f8     libeay32:v3_bitst.obj
 0002:0001c44c       v3_skey_id                 0008244c     libeay32:v3_skey.obj
 0002:0001c488       ??_C@_0FA@OIDMDEIP@d?3?2wm653wehh?2platform?2mvv210?2src@ 00082488     libeay32:v3_skey.obj
 0002:0001c4d8       ??_C@_04OIJGJDKO@hash?$AA@ 000824d8     libeay32:v3_skey.obj
 0002:0001c4e0       v3_ns_ia5_list             000824e0     libeay32:v3_ia5.obj
 0002:0001c6a0       ??_C@_0EP@FPIPLDCG@d?3?2wm653wehh?2platform?2mvv210?2src@ 000826a0     libeay32:v3_ia5.obj
 0002:0001c6f0       ??_C@_0FA@GLNJJMIP@d?3?2wm653wehh?2platform?2mvv210?2src@ 000826f0     libeay32:v3_conf.obj
 0002:0001c838       ??_C@_08JIPBBKBM@X509_REQ?$AA@ 00082838     libeay32:x_req.obj
 0002:0001c844       ??_C@_07OBHFIHGJ@sig_alg?$AA@ 00082844     libeay32:x_req.obj
 0002:0001c84c       ??_C@_08JILJKJG@req_info?$AA@ 0008284c     libeay32:x_req.obj
 0002:0001c858       ??_C@_0O@EHCMNJCB@X509_REQ_INFO?$AA@ 00082858     libeay32:x_req.obj
 0002:0001c868       ??_C@_0L@HNMJPKNA@attributes?$AA@ 00082868     libeay32:x_req.obj
 0002:0001c874       ??_C@_06GKCAPDID@pubkey?$AA@ 00082874     libeay32:x_req.obj
 0002:0001c87c       ??_C@_07JNNGEGGO@subject?$AA@ 0008287c     libeay32:x_req.obj
 0002:0001c888       ??_C@_0EP@COKBPCCM@d?3?2wm653wehh?2platform?2mvv210?2src@ 00082888     libeay32:x509_att.obj
 0002:0001c8d8       ??_C@_0BE@LILBBPKE@OpenSSL?5ECDH?5method?$AA@ 000828d8     libeay32:ech_ossl.obj
 0002:0001c8f0       ??_C@_0EP@EIICIEGK@d?3?2wm653wehh?2platform?2mvv210?2src@ 000828f0     libeay32:ech_ossl.obj
 0002:0001c9e8       ??_C@_0EN@LKHNEOCI@d?3?2wm653wehh?2platform?2mvv210?2src@ 000829e8     libeay32:ecp_mont.obj
 0002:0001cad8       ??_C@_0EN@MFLMOEJL@d?3?2wm653wehh?2platform?2mvv210?2src@ 00082ad8     libeay32:ecp_nist.obj
 0002:0001cbc8       ??_C@_0EN@HKENHFKC@d?3?2wm653wehh?2platform?2mvv210?2src@ 00082bc8     libeay32:ec2_smpl.obj
 0002:0001cc18       ??_C@_0EM@LBEFNFCH@d?3?2wm653wehh?2platform?2mvv210?2src@ 00082c18     libeay32:bn_exp2.obj
 0002:0001cc68       ??_C@_0EM@LKCJBLMG@d?3?2wm653wehh?2platform?2mvv210?2src@ 00082c68     libeay32:bn_recp.obj
 0002:0001ce44       ??_C@_08JGFBPDAP@X509_CRL?$AA@ 00082e44     libeay32:x_crl.obj
 0002:0001ce50       ??_C@_03GJBFOAJL@crl?$AA@  00082e50     libeay32:x_crl.obj
 0002:0001ce54       ??_C@_0O@IMOAEKCP@X509_CRL_INFO?$AA@ 00082e54     libeay32:x_crl.obj
 0002:0001ce64       ??_C@_07MIJFAMBD@revoked?$AA@ 00082e64     libeay32:x_crl.obj
 0002:0001ce6c       ??_C@_0L@BMOABHOK@nextUpdate?$AA@ 00082e6c     libeay32:x_crl.obj
 0002:0001ce78       ??_C@_0L@MPDCJAIM@lastUpdate?$AA@ 00082e78     libeay32:x_crl.obj
 0002:0001ce84       ??_C@_0N@JBPKOADN@X509_REVOKED?$AA@ 00082e84     libeay32:x_crl.obj
 0002:0001ce94       ??_C@_0L@ICCCPLKC@extensions?$AA@ 00082e94     libeay32:x_crl.obj
 0002:0001cea0       ??_C@_0P@HBDMPDNI@revocationDate?$AA@ 00082ea0     libeay32:x_crl.obj
 0002:0001ceb0       ??_C@_0EM@HLHJDKMD@d?3?2wm653wehh?2platform?2mvv210?2src@ 00082eb0     libeay32:x_crl.obj
 0002:0001d070       ??_C@_09NKDPGBBA@cert_info?$AA@ 00083070     libeay32:x_x509.obj
 0002:0001d07c       ??_C@_09LCJGKABB@X509_CINF?$AA@ 0008307c     libeay32:x_x509.obj
 0002:0001d088       ??_C@_0L@JMFHLKAL@subjectUID?$AA@ 00083088     libeay32:x_x509.obj
 0002:0001d094       ??_C@_09KIIAMAEE@issuerUID?$AA@ 00083094     libeay32:x_x509.obj
 0002:0001d0a0       ??_C@_08GCHKOCBP@validity?$AA@ 000830a0     libeay32:x_x509.obj
 0002:0001d0b0       ??_C@_0EM@EIEBKGJ@d?3?2wm653wehh?2platform?2mvv210?2src@ 000830b0     libeay32:cms_io.obj
 0002:0001d0fc       ??_C@_08POLPFBMC@SEQUENCE?$AA@ 000830fc     libeay32:tasn_prn.obj
 0002:0001d108       ??_C@_03KPIFFHNE@SET?$AA@  00083108     libeay32:tasn_prn.obj
 0002:0001d10c       ??_C@_0P@ONGHGJEC@message?5digest?$AA@ 0008310c     libeay32:bio_md.obj
 0002:0001d11c       ??_C@_0O@DIEIKEFB@memory?5buffer?$AA@ 0008311c     libeay32:bss_mem.obj
 0002:0001d130       ??_C@_0EN@IFBMAPDF@d?3?2wm653wehh?2platform?2mvv210?2src@ 00083130     libeay32:bss_mem.obj
 0002:0001d180       ??_C@_0EM@CLBFFJNJ@d?3?2wm653wehh?2platform?2mvv210?2src@ 00083180     libeay32:cms_dd.obj
 0002:0001d1d0       ??_C@_0EN@GEIMIMFD@d?3?2wm653wehh?2platform?2mvv210?2src@ 000831d0     libeay32:bio_enc.obj
 0002:0001d23c       ??_C@_09DHMKJJNA@ASN1_TIME?$AA@ 0008323c     libeay32:a_time.obj
 0002:0001d248       ??_C@_0EN@IOPKJOHJ@d?3?2wm653wehh?2platform?2mvv210?2src@ 00083248     libeay32:a_time.obj
 0002:0001d298       X509_version               00083298     libeay32:x509_vfy.obj
 0002:0001d2c8       ??_C@_0EO@ENFGJDHG@d?3?2wm653wehh?2platform?2mvv210?2src@ 000832c8     libeay32:m_sigver.obj
 0002:0001d318       ??_C@_0EM@MHADPNEH@d?3?2wm653wehh?2platform?2mvv210?2src@ 00083318     libeay32:p_sign.obj
 0002:0001d3ec       ??_C@_0BK@PILNOGHK@PROXY_CERT_INFO_EXTENSION?$AA@ 000833ec     libeay32:v3_pcia.obj
 0002:0001d408       ??_C@_0M@KKFBCGOG@proxyPolicy?$AA@ 00083408     libeay32:v3_pcia.obj
 0002:0001d414       ??_C@_0BH@JBGKCLHC@pcPathLengthConstraint?$AA@ 00083414     libeay32:v3_pcia.obj
 0002:0001d42c       ??_C@_0N@CLKEFBDI@PROXY_POLICY?$AA@ 0008342c     libeay32:v3_pcia.obj
 0002:0001d43c       ??_C@_0P@BLMEJDMO@policyLanguage?$AA@ 0008343c     libeay32:v3_pcia.obj
 0002:0001f628       ??_C@_0M@DPMJHKGH@PBKDF2PARAM?$AA@ 00085628     libeay32:p5_pbev2.obj
 0002:0001f634       ??_C@_03NBFGPAGA@prf?$AA@  00085634     libeay32:p5_pbev2.obj
 0002:0001f638       ??_C@_09PKJJLJJD@keylength?$AA@ 00085638     libeay32:p5_pbev2.obj
 0002:0001f644       ??_C@_04BKLHDIKK@iter?$AA@ 00085644     libeay32:p5_pbev2.obj
 0002:0001f64c       ??_C@_04OKLIMCN@salt?$AA@  0008564c     libeay32:p5_pbev2.obj
 0002:0001f654       ??_C@_09DHBCCKCK@PBE2PARAM?$AA@ 00085654     libeay32:p5_pbev2.obj
 0002:0001f660       ??_C@_0L@HBBFMHKN@encryption?$AA@ 00085660     libeay32:p5_pbev2.obj
 0002:0001f66c       ??_C@_07KEPFKPDN@keyfunc?$AA@ 0008566c     libeay32:p5_pbev2.obj
 0002:0001f678       ??_C@_0EP@ECCLNLMM@d?3?2wm653wehh?2platform?2mvv210?2src@ 00085678     libeay32:asn_pack.obj
 0002:0001f6c8       ??_C@_0EN@BMFEIIDL@d?3?2wm653wehh?2platform?2mvv210?2src@ 000856c8     libeay32:rsa_pk1.obj
 0002:0001f718       ??_C@_0EN@PDDHPBKJ@d?3?2wm653wehh?2platform?2mvv210?2src@ 00085718     libeay32:rsa_ssl.obj
 0002:0001f768       ??_C@_0EO@NNKDLJPI@d?3?2wm653wehh?2platform?2mvv210?2src@ 00085768     libeay32:rsa_none.obj
 0002:0001fb38       ??_C@_0O@DFJMHGOP@EC_PRIVATEKEY?$AA@ 00085b38     libeay32:ec_asn1.obj
 0002:0001fb48       ??_C@_0L@HHPOFMCB@parameters?$AA@ 00085b48     libeay32:ec_asn1.obj
 0002:0001fb54       ??_C@_0L@BCENACFO@privateKey?$AA@ 00085b54     libeay32:ec_asn1.obj
 0002:0001fb60       ??_C@_0P@PBBIGPFJ@ECPKPARAMETERS?$AA@ 00085b60     libeay32:ec_asn1.obj
 0002:0001fb70       ??_C@_0BD@HOIIAPI@value?4implicitlyCA?$AA@ 00085b70     libeay32:ec_asn1.obj
 0002:0001fb84       ??_C@_0BB@KOECJJJ@value?4parameters?$AA@ 00085b84     libeay32:ec_asn1.obj
 0002:0001fb98       ??_C@_0BC@JEJHGDNN@value?4named_curve?$AA@ 00085b98     libeay32:ec_asn1.obj
 0002:0001fbac       ??_C@_0N@ECDPFONH@ECPARAMETERS?$AA@ 00085bac     libeay32:ec_asn1.obj
 0002:0001fbbc       ??_C@_08DKFAOMDI@cofactor?$AA@ 00085bbc     libeay32:ec_asn1.obj
 0002:0001fbc8       ??_C@_05NDNMCCJH@order?$AA@ 00085bc8     libeay32:ec_asn1.obj
 0002:0001fbd0       ??_C@_05HIKPKPAA@curve?$AA@ 00085bd0     libeay32:ec_asn1.obj
 0002:0001fbd8       ??_C@_07MJJGNICD@fieldID?$AA@ 00085bd8     libeay32:ec_asn1.obj
 0002:0001fbe0       ??_C@_0M@BHDPNPCK@X9_62_CURVE?$AA@ 00085be0     libeay32:ec_asn1.obj
 0002:0001fbec       ??_C@_04MENKDCKE@seed?$AA@ 00085bec     libeay32:ec_asn1.obj
 0002:0001fbf4       ??_C@_0O@PGPIAKKH@X9_62_FIELDID?$AA@ 00085bf4     libeay32:ec_asn1.obj
 0002:0001fc04       ??_C@_09OAOLGAOM@fieldType?$AA@ 00085c04     libeay32:ec_asn1.obj
 0002:0001fc10       ??_C@_0L@NLMAKEBL@p?4char_two?$AA@ 00085c10     libeay32:ec_asn1.obj
 0002:0001fc1c       ??_C@_07DPJEDCLB@p?4prime?$AA@ 00085c1c     libeay32:ec_asn1.obj
 0002:0001fc24       ??_C@_0BJ@CCODLOLO@X9_62_CHARACTERISTIC_TWO?$AA@ 00085c24     libeay32:ec_asn1.obj
 0002:0001fc40       ??_C@_04GPMDFGEJ@type?$AA@ 00085c40     libeay32:ec_asn1.obj
 0002:0001fc48       ??_C@_01GOHFPIOK@m?$AA@    00085c48     libeay32:ec_asn1.obj
 0002:0001fc4c       ??_C@_09DMGLCKOJ@p?4ppBasis?$AA@ 00085c4c     libeay32:ec_asn1.obj
 0002:0001fc58       ??_C@_09LICBCEBD@p?4tpBasis?$AA@ 00085c58     libeay32:ec_asn1.obj
 0002:0001fc64       ??_C@_09KOBBOOPN@p?4onBasis?$AA@ 00085c64     libeay32:ec_asn1.obj
 0002:0001fc70       ??_C@_07PBHIMFBE@p?4other?$AA@ 00085c70     libeay32:ec_asn1.obj
 0002:0001fc78       ??_C@_0BC@NPDMPFCL@X9_62_PENTANOMIAL?$AA@ 00085c78     libeay32:ec_asn1.obj
 0002:0001fc8c       ??_C@_02LAFHGHBM@k3?$AA@   00085c8c     libeay32:ec_asn1.obj
 0002:0001fc90       ??_C@_02KJEMFGFN@k2?$AA@   00085c90     libeay32:ec_asn1.obj
 0002:0001fc94       ??_C@_02ICGBAFJO@k1?$AA@   00085c94     libeay32:ec_asn1.obj
 0002:0001fc98       ??_C@_0EM@BCOHHMGC@d?3?2wm653wehh?2platform?2mvv210?2src@ 00085c98     libeay32:ec_asn1.obj
 0002:0001fd70       ??_C@_0BE@LDIFBBLG@PKCS8_PRIV_KEY_INFO?$AA@ 00085d70     libeay32:p8_pkey.obj
 0002:0001fd84       ??_C@_04JMMJFDFL@pkey?$AA@ 00085d84     libeay32:p8_pkey.obj
 0002:0001fd8c       ??_C@_07PLCMOKAM@pkeyalg?$AA@ 00085d8c     libeay32:p8_pkey.obj
 0002:0001fd94       ??_C@_0BE@FPCNHCIJ@Generator?5?$CIhybrid?$CJ?3?$AA@ 00085d94     libeay32:eck_prn.obj
 0002:0001fda8       ??_C@_0BK@DOCPEENO@Generator?5?$CIuncompressed?$CJ?3?$AA@ 00085da8     libeay32:eck_prn.obj
 0002:0001fdc4       ??_C@_0BI@DFFFIKFB@Generator?5?$CIcompressed?$CJ?3?$AA@ 00085dc4     libeay32:eck_prn.obj
 0002:0001fddc       ??_C@_06LEJCPMLM@?$CF02x?$CFs?$AA@ 00085ddc     libeay32:eck_prn.obj
 0002:0001fde8       ??_C@_0EM@FLNGOIDD@d?3?2wm653wehh?2platform?2mvv210?2src@ 00085de8     libeay32:eck_prn.obj
 0002:0001fe34       ??_C@_05PDHKGGIM@Seed?3?$AA@ 00085e34     libeay32:eck_prn.obj
 0002:0001fe3c       ??_C@_0L@IEMHODML@Cofactor?3?5?$AA@ 00085e3c     libeay32:eck_prn.obj
 0002:0001fe48       ??_C@_07KOGOKIFH@Order?3?5?$AA@ 00085e48     libeay32:eck_prn.obj
 0002:0001fe50       ??_C@_05OKMHJIGA@B?3?5?5?5?$AA@ 00085e50     libeay32:eck_prn.obj
 0002:0001fe58       ??_C@_05GMFDOKMO@A?3?5?5?5?$AA@ 00085e58     libeay32:eck_prn.obj
 0002:0001fe60       ??_C@_06DBHHIIKM@Prime?3?$AA@ 00085e60     libeay32:eck_prn.obj
 0002:0001fe68       ??_C@_0M@JDIPGLHE@Polynomial?3?$AA@ 00085e68     libeay32:eck_prn.obj
 0002:0001fe74       ??_C@_0BA@ENMKKION@Basis?5Type?3?5?$CFs?6?$AA@ 00085e74     libeay32:eck_prn.obj
 0002:0001fe84       ??_C@_0BA@KNKNOIFH@Field?5Type?3?5?$CFs?6?$AA@ 00085e84     libeay32:eck_prn.obj
 0002:0001fe94       ??_C@_0N@JOFLCJFF@ASN1?5OID?3?5?$CFs?$AA@ 00085e94     libeay32:eck_prn.obj
 0002:0001fea4       ??_C@_04HDOCAJNK@?$CFs?$CFs?$AA@ 00085ea4     libeay32:t_pkey.obj
 0002:0001feac       ??_C@_0M@IBLDKCHK@?5?$CINegative?$CJ?$AA@ 00085eac     libeay32:t_pkey.obj
 0002:0001feb8       ??_C@_0BE@KHLFKPFC@?$CFs?5?$CFs?$CFlu?5?$CI?$CFs0x?$CFlx?$CJ?6?$AA@ 00085eb8     libeay32:t_pkey.obj
 0002:0001fecc       ??_C@_05NJJIPCOC@?$CFs?50?6?$AA@ 00085ecc     libeay32:t_pkey.obj
 0002:0001fed8       ??_C@_0EN@IAKMHMJK@d?3?2wm653wehh?2platform?2mvv210?2src@ 00085ed8     libeay32:ec_print.obj
 0002:0001ff28       ??_C@_0EP@EBOHPFGP@d?3?2wm653wehh?2platform?2mvv210?2src@ 00085f28     libeay32:pk7_lib.obj
 0002:0001ff78       ??_C@_03MKABNOCG@Dec?$AA@  00085f78     libeay32:t_x509.obj
 0002:0001ff7c       ??_C@_03JPJOFNIA@Nov?$AA@  00085f7c     libeay32:t_x509.obj
 0002:0001ff80       ??_C@_03BMAOKBAD@Oct?$AA@  00085f80     libeay32:t_x509.obj
 0002:0001ff84       ??_C@_03GGCAPAJC@Sep?$AA@  00085f84     libeay32:t_x509.obj
 0002:0001ff88       ??_C@_03IFJFEIGA@Aug?$AA@  00085f88     libeay32:t_x509.obj
 0002:0001ff8c       ??_C@_03LBGABGKK@Jul?$AA@  00085f8c     libeay32:t_x509.obj
 0002:0001ff90       ??_C@_03IDFGHECI@Jun?$AA@  00085f90     libeay32:t_x509.obj
 0002:0001ff94       ??_C@_03CNMDKL@May?$AA@    00085f94     libeay32:t_x509.obj
 0002:0001ff98       ??_C@_03LEOLGMJP@Apr?$AA@  00085f98     libeay32:t_x509.obj
 0002:0001ff9c       ??_C@_03ODNJBKGA@Mar?$AA@  00085f9c     libeay32:t_x509.obj
 0002:0001ffa0       ??_C@_03HJBDCHOM@Feb?$AA@  00085fa0     libeay32:t_x509.obj
 0002:0001ffa4       ??_C@_03JIHJHPIE@Jan?$AA@  00085fa4     libeay32:t_x509.obj
 0002:0001ffa8       ??_C@_0EN@JFBJIANP@d?3?2wm653wehh?2platform?2mvv210?2src@ 00085fa8     libeay32:t_x509.obj
 0002:0001fff8       ??_C@_0P@FGACABCD@Bad?5time?5value?$AA@ 00085ff8     libeay32:t_x509.obj
 0002:00020008       ??_C@_0BP@OGIOIJMK@?$CFs?5?$CF2d?5?$CF02d?3?$CF02d?3?$CF02d?$CF?4?$CKs?5?$CFd?$CFs?$AA@ 00086008     libeay32:t_x509.obj
 0002:00020028       ??_C@_04FIEKMBKB@?5GMT?$AA@ 00086028     libeay32:t_x509.obj
 0002:000200a0       ??_C@_06IJDLPEM@length?$AA@ 000860a0     libeay32:dh_asn1.obj
 0002:0002025c       ??_C@_0P@PJJHDFJB@RSA_PSS_PARAMS?$AA@ 0008625c     libeay32:rsa_asn1.obj
 0002:0002026c       ??_C@_0N@KGDDKMLA@trailerField?$AA@ 0008626c     libeay32:rsa_asn1.obj
 0002:0002027c       ??_C@_0L@PKGNFOCE@saltLength?$AA@ 0008627c     libeay32:rsa_asn1.obj
 0002:00020288       ??_C@_0BB@KKPGFJED@maskGenAlgorithm?$AA@ 00086288     libeay32:rsa_asn1.obj
 0002:0002029c       ??_C@_0O@DHJLLKEK@hashAlgorithm?$AA@ 0008629c     libeay32:rsa_asn1.obj
 0002:000202ac       ??_C@_04BBEMPLKC@iqmp?$AA@ 000862ac     libeay32:rsa_asn1.obj
 0002:000202b4       ??_C@_04PENPDGE@dmq1?$AA@  000862b4     libeay32:rsa_asn1.obj
 0002:000202bc       ??_C@_04OIPJJFD@dmp1?$AA@  000862bc     libeay32:rsa_asn1.obj
 0002:000202c4       ??_C@_01LPLHEDKD@d?$AA@    000862c4     libeay32:rsa_asn1.obj
 0002:000202c8       ??_C@_01KGKMHCOC@e?$AA@    000862c8     libeay32:rsa_asn1.obj
 0002:000202cc       ??_C@_02JPPHBJLD@?2?6?$AA@ 000862cc     libeay32:f_int.obj
 0002:000202d0       ??_C@_02PLJDPFIO@00?$AA@   000862d0     libeay32:f_int.obj
 0002:00020318       ??_C@_08CKLJFNPB@PBEPARAM?$AA@ 00086318     libeay32:p5_pbe.obj
 0002:00020328       ??_C@_0FA@NBNNIDCA@d?3?2wm653wehh?2platform?2mvv210?2src@ 00086328     libeay32:p12_key.obj
 0002:00020430       ??_C@_02HDBGODGB@?2?2?$AA@ 00086430     libeay32:a_strex.obj
 0002:00020434       ??_C@_05JJPGCIKH@?2?$CF02X?$AA@ 00086434     libeay32:a_strex.obj
 0002:0002043c       ??_C@_01KICIPPFI@?2?$AA@   0008643c     libeay32:a_strex.obj
 0002:00020440       ??_C@_07FDBPKGOC@?2U?$CF04lX?$AA@ 00086440     libeay32:a_strex.obj
 0002:00020448       ??_C@_07IOFGAIHD@?2W?$CF08lX?$AA@ 00086448     libeay32:a_strex.obj
 0002:00020450       ??_C@_0EO@POPABNG@d?3?2wm653wehh?2platform?2mvv210?2src@ 00086450     libeay32:a_strex.obj
 0002:000204a0       ??_C@_01IPJKGB@?$CD?$AA@   000864a0     libeay32:a_strex.obj
 0002:000204a4       ??_C@_01BJJEKLCA@?$CC?$AA@ 000864a4     libeay32:a_strex.obj
 0002:000204a8       ??_C@_01NEMOKFLO@?$DN?$AA@ 000864a8     libeay32:a_strex.obj
 0002:000204ac       ??_C@_03MHLONNLM@?5?$DN?5?$AA@ 000864ac     libeay32:a_strex.obj
 0002:000204b0       ??_C@_01IHBHIGKO@?0?$AA@   000864b0     libeay32:a_strex.obj
 0002:000204b4       ??_C@_01MIFGBAGJ@?$CL?$AA@ 000864b4     libeay32:a_strex.obj
 0002:000204b8       ??_C@_02LNAEAIDO@?$DL?5?$AA@ 000864b8     libeay32:a_strex.obj
 0002:000204bc       ??_C@_03NPBFACHO@?5?$CL?5?$AA@ 000864bc     libeay32:a_strex.obj
 0002:000204c0       ??_C@_0M@PCEPOGPN@?8?$CI?$CJ?$CL?0?9?4?1?3?$DN?$DP?$AA@ 000864c0     libeay32:a_mbstr.obj
 0002:000204cc       ??_C@_08EOPONIBF@maxsize?$DN?$AA@ 000864cc     libeay32:a_mbstr.obj
 0002:000204d8       ??_C@_03JALODAI@?$CFld?$AA@ 000864d8     libeay32:a_mbstr.obj
 0002:000204dc       ??_C@_08JJBFGKFE@minsize?$DN?$AA@ 000864dc     libeay32:a_mbstr.obj
 0002:000204e8       ??_C@_0EO@JLLBAGMI@d?3?2wm653wehh?2platform?2mvv210?2src@ 000864e8     libeay32:a_mbstr.obj
 0002:00020784       ??_C@_06DPGELLJH@FORMAT?$AA@ 00086784     libeay32:asn1_gen.obj
 0002:0002078c       ??_C@_04HPGCGPG@FORM?$AA@  0008678c     libeay32:asn1_gen.obj
 0002:00020794       ??_C@_07JHDNPBBM@BITWRAP?$AA@ 00086794     libeay32:asn1_gen.obj
 0002:0002079c       ??_C@_07OAIMKKNN@SETWRAP?$AA@ 0008679c     libeay32:asn1_gen.obj
 0002:000207a4       ??_C@_07LAEBDLGO@SEQWRAP?$AA@ 000867a4     libeay32:asn1_gen.obj
 0002:000207ac       ??_C@_07KIEILLID@OCTWRAP?$AA@ 000867ac     libeay32:asn1_gen.obj
 0002:000207b4       ??_C@_08PPMOEJGF@IMPLICIT?$AA@ 000867b4     libeay32:asn1_gen.obj
 0002:000207c0       ??_C@_03PKFOHEJD@IMP?$AA@  000867c0     libeay32:asn1_gen.obj
 0002:000207c4       ??_C@_08CNKBIFDO@EXPLICIT?$AA@ 000867c4     libeay32:asn1_gen.obj
 0002:000207d0       ??_C@_03KKGFKKLA@EXP?$AA@  000867d0     libeay32:asn1_gen.obj
 0002:000207d4       ??_C@_03NCPCKDJB@SEQ?$AA@  000867d4     libeay32:asn1_gen.obj
 0002:000207d8       ??_C@_0O@DFADMOGA@NUMERICSTRING?$AA@ 000867d8     libeay32:asn1_gen.obj
 0002:000207e8       ??_C@_07DBOJJFHC@NUMERIC?$AA@ 000867e8     libeay32:asn1_gen.obj
 0002:000207f0       ??_C@_06GBOJAPHH@GENSTR?$AA@ 000867f0     libeay32:asn1_gen.obj
 0002:000207f8       ??_C@_0O@OIKLOOAP@GeneralString?$AA@ 000867f8     libeay32:asn1_gen.obj
 0002:00020808       ??_C@_0O@GENPGMAM@TELETEXSTRING?$AA@ 00086808     libeay32:asn1_gen.obj
 0002:00020818       ??_C@_09FMBHBANP@T61STRING?$AA@ 00086818     libeay32:asn1_gen.obj
 0002:00020824       ??_C@_03HMGPCGIG@T61?$AA@  00086824     libeay32:asn1_gen.obj
 0002:00020828       ??_C@_09OMDMMLJJ@PRINTABLE?$AA@ 00086828     libeay32:asn1_gen.obj
 0002:00020834       ??_C@_0BA@FKHILLED@PRINTABLESTRING?$AA@ 00086834     libeay32:asn1_gen.obj
 0002:00020844       ??_C@_07MCGNPFEO@VISIBLE?$AA@ 00086844     libeay32:asn1_gen.obj
 0002:0002084c       ??_C@_0O@KDAJCBO@VISIBLESTRING?$AA@ 0008684c     libeay32:asn1_gen.obj
 0002:0002085c       ??_C@_09BIBABMFN@BMPSTRING?$AA@ 0008685c     libeay32:asn1_gen.obj
 0002:00020868       ??_C@_03CNFPPDJC@BMP?$AA@  00086868     libeay32:asn1_gen.obj
 0002:0002086c       ??_C@_0L@PJIJIHJD@UTF8String?$AA@ 0008686c     libeay32:asn1_gen.obj
 0002:00020878       ??_C@_04OOMJJNCF@UTF8?$AA@ 00086878     libeay32:asn1_gen.obj
 0002:00020880       ??_C@_09JOMPLKGB@IA5STRING?$AA@ 00086880     libeay32:asn1_gen.obj
 0002:0002088c       ??_C@_03OLMOBCBF@IA5?$AA@  0008688c     libeay32:asn1_gen.obj
 0002:00020890       ??_C@_04CBEPCLMK@UNIV?$AA@ 00086890     libeay32:asn1_gen.obj
 0002:00020898       ??_C@_0BA@EJHHDALK@UNIVERSALSTRING?$AA@ 00086898     libeay32:asn1_gen.obj
 0002:000208a8       ??_C@_09MBLGEDKL@BITSTRING?$AA@ 000868a8     libeay32:asn1_gen.obj
 0002:000208b4       ??_C@_06GOEDGPII@BITSTR?$AA@ 000868b4     libeay32:asn1_gen.obj
 0002:000208bc       ??_C@_0M@JIDALIGG@OCTETSTRING?$AA@ 000868bc     libeay32:asn1_gen.obj
 0002:000208c8       ??_C@_03LBMHMDEB@OCT?$AA@  000868c8     libeay32:asn1_gen.obj
 0002:000208cc       ??_C@_07EECHABMP@GENTIME?$AA@ 000868cc     libeay32:asn1_gen.obj
 0002:000208d4       ??_C@_0BA@LKNBIJBB@GENERALIZEDTIME?$AA@ 000868d4     libeay32:asn1_gen.obj
 0002:000208e4       ??_C@_03JCIJEFNJ@UTC?$AA@  000868e4     libeay32:asn1_gen.obj
 0002:000208e8       ??_C@_07HIOLDDN@UTCTIME?$AA@ 000868e8     libeay32:asn1_gen.obj
 0002:000208f0       ??_C@_06IAMCMNFI@OBJECT?$AA@ 000868f0     libeay32:asn1_gen.obj
 0002:000208f8       ??_C@_03PGJCFEMG@OID?$AA@  000868f8     libeay32:asn1_gen.obj
 0002:000208fc       ??_C@_0L@KNIEMAKM@ENUMERATED?$AA@ 000868fc     libeay32:asn1_gen.obj
 0002:00020908       ??_C@_04PNKFCNMG@ENUM?$AA@ 00086908     libeay32:asn1_gen.obj
 0002:00020910       ??_C@_07EHCIHKNF@INTEGER?$AA@ 00086910     libeay32:asn1_gen.obj
 0002:00020918       ??_C@_03JMHEAPMO@INT?$AA@  00086918     libeay32:asn1_gen.obj
 0002:0002091c       ??_C@_07JDEDMABE@BOOLEAN?$AA@ 0008691c     libeay32:asn1_gen.obj
 0002:00020924       ??_C@_04PPJDIBFE@BOOL?$AA@ 00086924     libeay32:asn1_gen.obj
 0002:0002092c       ??_C@_05NALEHOPE@Char?$DN?$AA@ 0008692c     libeay32:asn1_gen.obj
 0002:00020938       ??_C@_0EP@NAHIMGLP@d?3?2wm653wehh?2platform?2mvv210?2src@ 00086938     libeay32:asn1_gen.obj
 0002:00020988       ??_C@_07HMNLDFAL@BITLIST?$AA@ 00086988     libeay32:asn1_gen.obj
 0002:00020990       ??_C@_03IECIMIEG@HEX?$AA@  00086990     libeay32:asn1_gen.obj
 0002:00020994       ??_C@_05CCNLIHFO@ASCII?$AA@ 00086994     libeay32:asn1_gen.obj
 0002:0002099c       ??_C@_04JBGFELJA@tag?$DN?$AA@ 0008699c     libeay32:asn1_gen.obj
 0002:000209a4       ??_C@_07IOGEOOAA@string?$DN?$AA@ 000869a4     libeay32:asn1_gen.obj
 0002:000209ac       ??_C@_05LKMDHMJN@WIN32?$AA@ 000869ac     libeay32:conf_def.obj
 0002:000209b4       ??_C@_0BA@EEIGDPJJ@OpenSSL?5default?$AA@ 000869b4     libeay32:conf_def.obj
 0002:000209c4       CONF_def_version           000869c4     libeay32:conf_def.obj
 0002:000209f0       ??_C@_0EP@FLILJMGH@d?3?2wm653wehh?2platform?2mvv210?2src@ 000869f0     libeay32:conf_def.obj
 0002:00020a40       ??_C@_07PNLMPOMH@?$FL?$FL?$CFs?$FN?$FN?6?$AA@ 00086a40     libeay32:conf_def.obj
 0002:00020a48       ??_C@_0M@CLCLGKAH@?$FL?$CFs?$FN?5?$CFs?$DN?$CFs?6?$AA@ 00086a48     libeay32:conf_def.obj
 0002:00020a54       ??_C@_05KFEICJBI@line?5?$AA@ 00086a54     libeay32:conf_def.obj
 0002:00020a5c       ??_C@_03OEJENCPE@ENV?$AA@  00086a5c     libeay32:conf_api.obj
 0002:00020a60       ??_C@_0L@BFMFELMC@vv?5?$DN?$DN?5NULL?$AA@ 00086a60     libeay32:conf_api.obj
 0002:00020a70       ??_C@_0EP@PLCFAFHA@d?3?2wm653wehh?2platform?2mvv210?2src@ 00086a70     libeay32:conf_api.obj
 0002:00020ac0       MD5_version                00086ac0     libeay32:md5_dgst.obj
 0002:00021014       ??_C@_0BA@JLGHGCLL@OCSP_SERVICELOC?$AA@ 00087014     libeay32:ocsp_asn.obj
 0002:00021024       ??_C@_07PAIKCKMF@locator?$AA@ 00087024     libeay32:ocsp_asn.obj
 0002:0002102c       ??_C@_0L@JOKCDHBA@OCSP_CRLID?$AA@ 0008702c     libeay32:ocsp_asn.obj
 0002:00021038       ??_C@_07BDEAJPPO@crlTime?$AA@ 00087038     libeay32:ocsp_asn.obj
 0002:00021040       ??_C@_06DLEHNACA@crlNum?$AA@ 00087040     libeay32:ocsp_asn.obj
 0002:00021048       ??_C@_06KAALCHHK@crlUrl?$AA@ 00087048     libeay32:ocsp_asn.obj
 0002:00021050       ??_C@_0P@CPCDLAO@OCSP_BASICRESP?$AA@ 00087050     libeay32:ocsp_asn.obj
 0002:00021060       ??_C@_0BA@OOPOFNLG@tbsResponseData?$AA@ 00087060     libeay32:ocsp_asn.obj
 0002:00021070       ??_C@_0O@GNAMNHBK@OCSP_RESPDATA?$AA@ 00087070     libeay32:ocsp_asn.obj
 0002:00021080       ??_C@_0BD@LEANHDON@responseExtensions?$AA@ 00087080     libeay32:ocsp_asn.obj
 0002:00021094       ??_C@_09NKKOBILA@responses?$AA@ 00087094     libeay32:ocsp_asn.obj
 0002:000210a0       ??_C@_0L@KADAOIGF@producedAt?$AA@ 000870a0     libeay32:ocsp_asn.obj
 0002:000210ac       ??_C@_0M@CPBMKBOK@responderId?$AA@ 000870ac     libeay32:ocsp_asn.obj
 0002:000210b8       ??_C@_0BA@CEMENBMB@OCSP_SINGLERESP?$AA@ 000870b8     libeay32:ocsp_asn.obj
 0002:000210c8       ??_C@_0BB@BHCHCCEI@singleExtensions?$AA@ 000870c8     libeay32:ocsp_asn.obj
 0002:000210dc       ??_C@_0L@BEDJFPDO@thisUpdate?$AA@ 000870dc     libeay32:ocsp_asn.obj
 0002:000210e8       ??_C@_0L@IGGFAGC@certStatus?$AA@ 000870e8     libeay32:ocsp_asn.obj
 0002:000210f4       ??_C@_06JJGBHEJI@certId?$AA@ 000870f4     libeay32:ocsp_asn.obj
 0002:000210fc       ??_C@_0BA@JBJHLNOJ@OCSP_CERTSTATUS?$AA@ 000870fc     libeay32:ocsp_asn.obj
 0002:0002110c       ??_C@_0O@ICNBHFHN@value?4unknown?$AA@ 0008710c     libeay32:ocsp_asn.obj
 0002:0002111c       ??_C@_0O@GCBEBIKI@value?4revoked?$AA@ 0008711c     libeay32:ocsp_asn.obj
 0002:0002112c       ??_C@_0L@MEIDNBL@value?4good?$AA@ 0008712c     libeay32:ocsp_asn.obj
 0002:00021138       ??_C@_0BB@CFNKINIP@OCSP_REVOKEDINFO?$AA@ 00087138     libeay32:ocsp_asn.obj
 0002:0002114c       ??_C@_0BB@JHENKMOK@revocationReason?$AA@ 0008714c     libeay32:ocsp_asn.obj
 0002:00021160       ??_C@_0P@MHJPNEEK@revocationTime?$AA@ 00087160     libeay32:ocsp_asn.obj
 0002:00021170       ??_C@_0M@JBDPBGBO@OCSP_RESPID?$AA@ 00087170     libeay32:ocsp_asn.obj
 0002:0002117c       ??_C@_0M@OFGLOCKB@value?4byKey?$AA@ 0008717c     libeay32:ocsp_asn.obj
 0002:00021188       ??_C@_0N@OFBDHEPF@value?4byName?$AA@ 00087188     libeay32:ocsp_asn.obj
 0002:00021198       ??_C@_0O@CDJMCFNM@OCSP_RESPONSE?$AA@ 00087198     libeay32:ocsp_asn.obj
 0002:000211a8       ??_C@_0O@MMHCFEHM@responseBytes?$AA@ 000871a8     libeay32:ocsp_asn.obj
 0002:000211b8       ??_C@_0P@GEHCLFGI@responseStatus?$AA@ 000871b8     libeay32:ocsp_asn.obj
 0002:000211c8       ??_C@_0P@ONFJGMLI@OCSP_RESPBYTES?$AA@ 000871c8     libeay32:ocsp_asn.obj
 0002:000211d8       ??_C@_08HKMEAON@response?$AA@ 000871d8     libeay32:ocsp_asn.obj
 0002:000211e4       ??_C@_0N@FPIGADMM@responseType?$AA@ 000871e4     libeay32:ocsp_asn.obj
 0002:000211f4       ??_C@_0N@PCNOLOBD@OCSP_REQUEST?$AA@ 000871f4     libeay32:ocsp_asn.obj
 0002:00021204       ??_C@_0BC@GKDKILGO@optionalSignature?$AA@ 00087204     libeay32:ocsp_asn.obj
 0002:00021218       ??_C@_0L@OIGCAPNH@tbsRequest?$AA@ 00087218     libeay32:ocsp_asn.obj
 0002:00021224       ??_C@_0N@DDBEOJJA@OCSP_REQINFO?$AA@ 00087224     libeay32:ocsp_asn.obj
 0002:00021234       ??_C@_0BC@CPAMEDLH@requestExtensions?$AA@ 00087234     libeay32:ocsp_asn.obj
 0002:00021248       ??_C@_0M@NNJGDIDJ@requestList?$AA@ 00087248     libeay32:ocsp_asn.obj
 0002:00021254       ??_C@_0O@NHDBCFOA@requestorName?$AA@ 00087254     libeay32:ocsp_asn.obj
 0002:00021264       ??_C@_0M@IGPHKOAK@OCSP_ONEREQ?$AA@ 00087264     libeay32:ocsp_asn.obj
 0002:00021270       ??_C@_0BI@PPJDGJOP@singleRequestExtensions?$AA@ 00087270     libeay32:ocsp_asn.obj
 0002:00021288       ??_C@_07GCNFCODJ@reqCert?$AA@ 00087288     libeay32:ocsp_asn.obj
 0002:00021290       ??_C@_0M@OCJEDPID@OCSP_CERTID?$AA@ 00087290     libeay32:ocsp_asn.obj
 0002:0002129c       ??_C@_0O@KPBFDKHB@issuerKeyHash?$AA@ 0008729c     libeay32:ocsp_asn.obj
 0002:000212ac       ??_C@_0P@EKEFMOEP@issuerNameHash?$AA@ 000872ac     libeay32:ocsp_asn.obj
 0002:000212bc       ??_C@_0P@OIPGPNII@OCSP_SIGNATURE?$AA@ 000872bc     libeay32:ocsp_asn.obj
 0002:000212cc       ??_C@_05HFDFJDL@certs?$AA@ 000872cc     libeay32:ocsp_asn.obj
 0002:0002132c       ??_C@_0BA@OPHCNPAP@AUTHORITY_KEYID?$AA@ 0008732c     libeay32:v3_akeya.obj
 0002:00021340       ??_C@_0EP@FNGDBEGO@d?3?2wm653wehh?2platform?2mvv210?2src@ 00087340     libeay32:a_verify.obj
 0002:0002142c       ??_C@_0O@DBIGEIKO@NETSCAPE_SPKI?$AA@ 0008742c     libeay32:x_spki.obj
 0002:0002143c       ??_C@_09JJGBLAHB@sig_algor?$AA@ 0008743c     libeay32:x_spki.obj
 0002:00021448       ??_C@_05NBLLCIIN@spkac?$AA@ 00087448     libeay32:x_spki.obj
 0002:00021450       ??_C@_0P@OEBIEFNJ@NETSCAPE_SPKAC?$AA@ 00087450     libeay32:x_spki.obj
 0002:00021460       ??_C@_09DBEGHIJJ@challenge?$AA@ 00087460     libeay32:x_spki.obj
 0002:00021a18       ??_C@_0BC@DLHIINOH@PKCS7_ATTR_VERIFY?$AA@ 00087a18     libeay32:pk7_asn1.obj
 0002:00021a2c       ??_C@_0BA@IJMFEGLH@PKCS7_ATTR_SIGN?$AA@ 00087a2c     libeay32:pk7_asn1.obj
 0002:00021a3c       ??_C@_0BB@ODHHPICH@PKCS7_ATTRIBUTES?$AA@ 00087a3c     libeay32:pk7_asn1.obj
 0002:00021a50       ??_C@_0N@NAILNAH@PKCS7_DIGEST?$AA@ 00087a50     libeay32:pk7_asn1.obj
 0002:00021a60       ??_C@_02EBCANADN@md?$AA@   00087a60     libeay32:pk7_asn1.obj
 0002:00021a64       ??_C@_0O@GIFGHKGC@PKCS7_ENCRYPT?$AA@ 00087a64     libeay32:pk7_asn1.obj
 0002:00021a74       ??_C@_0BE@LMHBPFDD@PKCS7_SIGN_ENVELOPE?$AA@ 00087a74     libeay32:pk7_asn1.obj
 0002:00021a88       ??_C@_0BC@INKEDPEG@PKCS7_ENC_CONTENT?$AA@ 00087a88     libeay32:pk7_asn1.obj
 0002:00021a9c       ??_C@_0N@IEAAACJL@content_type?$AA@ 00087a9c     libeay32:pk7_asn1.obj
 0002:00021aac       ??_C@_0BB@MGPEFENK@PKCS7_RECIP_INFO?$AA@ 00087aac     libeay32:pk7_asn1.obj
 0002:00021ac0       ??_C@_07LBLKCHGJ@enc_key?$AA@ 00087ac0     libeay32:pk7_asn1.obj
 0002:00021ac8       ??_C@_0O@ODFHHMFC@key_enc_algor?$AA@ 00087ac8     libeay32:pk7_asn1.obj
 0002:00021ad8       ??_C@_0P@KCJMJLOD@PKCS7_ENVELOPE?$AA@ 00087ad8     libeay32:pk7_asn1.obj
 0002:00021ae8       ??_C@_08ENNDKKOI@enc_data?$AA@ 00087ae8     libeay32:pk7_asn1.obj
 0002:00021af4       ??_C@_0O@HGJALPPJ@recipientinfo?$AA@ 00087af4     libeay32:pk7_asn1.obj
 0002:00021b04       ??_C@_0BI@POAIONGK@PKCS7_ISSUER_AND_SERIAL?$AA@ 00087b04     libeay32:pk7_asn1.obj
 0002:00021b1c       ??_C@_0BC@BFFCPPDG@PKCS7_SIGNER_INFO?$AA@ 00087b1c     libeay32:pk7_asn1.obj
 0002:00021b30       ??_C@_0M@NNBFAOJK@unauth_attr?$AA@ 00087b30     libeay32:pk7_asn1.obj
 0002:00021b3c       ??_C@_0L@PJDBOMFC@enc_digest?$AA@ 00087b3c     libeay32:pk7_asn1.obj
 0002:00021b48       ??_C@_0P@KLFHBHJD@digest_enc_alg?$AA@ 00087b48     libeay32:pk7_asn1.obj
 0002:00021b58       ??_C@_09PLABOLFJ@auth_attr?$AA@ 00087b58     libeay32:pk7_asn1.obj
 0002:00021b64       ??_C@_0L@OGBFEEJI@digest_alg?$AA@ 00087b64     libeay32:pk7_asn1.obj
 0002:00021b70       ??_C@_0BC@PMGLGNPO@issuer_and_serial?$AA@ 00087b70     libeay32:pk7_asn1.obj
 0002:00021b84       ??_C@_0N@CKBJFFNF@PKCS7_SIGNED?$AA@ 00087b84     libeay32:pk7_asn1.obj
 0002:00021b94       ??_C@_0M@KEDNAHBP@signer_info?$AA@ 00087b94     libeay32:pk7_asn1.obj
 0002:00021ba0       ??_C@_04PHJBACIC@cert?$AA@ 00087ba0     libeay32:pk7_asn1.obj
 0002:00021ba8       ??_C@_08ODCIAOPM@contents?$AA@ 00087ba8     libeay32:pk7_asn1.obj
 0002:00021bb4       ??_C@_07MPDKKGPO@md_algs?$AA@ 00087bb4     libeay32:pk7_asn1.obj
 0002:00021bbc       ??_C@_05BKMMPIPN@PKCS7?$AA@ 00087bbc     libeay32:pk7_asn1.obj
 0002:00021bc4       ??_C@_0M@IDEHBFAL@d?4encrypted?$AA@ 00087bc4     libeay32:pk7_asn1.obj
 0002:00021bd0       ??_C@_08JOIJLLGO@d?4digest?$AA@ 00087bd0     libeay32:pk7_asn1.obj
 0002:00021bdc       ??_C@_0BH@FHPJHCLF@d?4signed_and_enveloped?$AA@ 00087bdc     libeay32:pk7_asn1.obj
 0002:00021bf4       ??_C@_0M@CLKMIMCI@d?4enveloped?$AA@ 00087bf4     libeay32:pk7_asn1.obj
 0002:00021c00       ??_C@_06GOHGJFCL@d?4sign?$AA@ 00087c00     libeay32:pk7_asn1.obj
 0002:00021ca8       ??_C@_0EN@IKCJFOCD@d?3?2wm653wehh?2platform?2mvv210?2src@ 00087ca8     libeay32:ecp_smpl.obj
 0002:000221a8       ??_C@_0EN@JCJEBHDE@d?3?2wm653wehh?2platform?2mvv210?2src@ 000881a8     libeay32:ec2_mult.obj
 0002:00022238       ??_C@_0EM@KOFLLDDI@d?3?2wm653wehh?2platform?2mvv210?2src@ 00088238     libeay32:bn_gf2m.obj
 0002:000222c8       ??_C@_08OPPGEJIL@X509_VAL?$AA@ 000882c8     libeay32:x_val.obj
 0002:0002239c       ??_C@_0P@BDECDGPA@X509_CERT_PAIR?$AA@ 0008839c     libeay32:x_x509a.obj
 0002:000223ac       ??_C@_07KOIEOCCE@reverse?$AA@ 000883ac     libeay32:x_x509a.obj
 0002:000223b4       ??_C@_07CJMBKHEI@forward?$AA@ 000883b4     libeay32:x_x509a.obj
 0002:000223bc       ??_C@_0O@LJIIOIG@X509_CERT_AUX?$AA@ 000883bc     libeay32:x_x509a.obj
 0002:000223cc       ??_C@_05NKHOCLEE@alias?$AA@ 000883cc     libeay32:x_x509a.obj
 0002:000223d4       ??_C@_06JPOFNODM@reject?$AA@ 000883d4     libeay32:x_x509a.obj
 0002:000223dc       ??_C@_05BMJJJIHB@trust?$AA@ 000883dc     libeay32:x_x509a.obj
 0002:000223f8       PEM_version                000883f8     libeay32:pem_lib.obj
 0002:000224a4       ??_C@_09FGHEBGDO@?$DMASN1?529?$DO?$AA@ 000884a4     libeay32:asn1_par.obj
 0002:000224b0       ??_C@_0O@DKDEPFLO@GENERALSTRING?$AA@ 000884b0     libeay32:asn1_par.obj
 0002:000224c0       ??_C@_0O@MABADFB@GRAPHICSTRING?$AA@ 000884c0     libeay32:asn1_par.obj
 0002:000224d0       ??_C@_0P@LNAMNBEL@VIDEOTEXSTRING?$AA@ 000884d0     libeay32:asn1_par.obj
 0002:000224e0       ??_C@_09ENNLEALE@?$DMASN1?515?$DO?$AA@ 000884e0     libeay32:asn1_par.obj
 0002:000224ec       ??_C@_09EMBJCKID@?$DMASN1?514?$DO?$AA@ 000884ec     libeay32:asn1_par.obj
 0002:000224f8       ??_C@_09EJFGDMAG@?$DMASN1?513?$DO?$AA@ 000884f8     libeay32:asn1_par.obj
 0002:00022504       ??_C@_0L@DCBPGANN@UTF8STRING?$AA@ 00088504     libeay32:asn1_par.obj
 0002:00022510       ??_C@_09EKNCOIGI@?$DMASN1?511?$DO?$AA@ 00088510     libeay32:asn1_par.obj
 0002:0002251c       ??_C@_04PKFANLLI@REAL?$AA@ 0008851c     libeay32:asn1_par.obj
 0002:00022524       ??_C@_08JHLDEHEK@EXTERNAL?$AA@ 00088524     libeay32:asn1_par.obj
 0002:00022530       ??_C@_0BC@HDOCNDIH@OBJECT?5DESCRIPTOR?$AA@ 00088530     libeay32:asn1_par.obj
 0002:00022544       ??_C@_0N@KPGGMDFC@OCTET?5STRING?$AA@ 00088544     libeay32:asn1_par.obj
 0002:00022554       ??_C@_0L@EKOKPLKE@BIT?5STRING?$AA@ 00088554     libeay32:asn1_par.obj
 0002:00022560       ??_C@_03NCODFONH@EOC?$AA@  00088560     libeay32:asn1_par.obj
 0002:00022564       ??_C@_09GPGAJHPD@?$CIunknown?$CJ?$AA@ 00088564     libeay32:asn1_par.obj
 0002:000225b8       ??_C@_0BK@EMDNDBLP@?$CF04d?$CF02d?$CF02d?$CF02d?$CF02d?$CF02dZ?$AA@ 000885b8     libeay32:a_gentm.obj
 0002:000225d8       ??_C@_0EO@HIOEHCAC@d?3?2wm653wehh?2platform?2mvv210?2src@ 000885d8     libeay32:a_gentm.obj
 0002:00022668       ??_C@_0BK@PMAAGDOP@?$CF02d?$CF02d?$CF02d?$CF02d?$CF02d?$CF02dZ?$AA@ 00088668     libeay32:a_utctm.obj
 0002:00022688       ??_C@_0EO@DLENMAPA@d?3?2wm653wehh?2platform?2mvv210?2src@ 00088688     libeay32:a_utctm.obj
 0002:000226d8       ??_C@_0L@CFEJKCOD@TSA?5server?$AA@ 000886d8     libeay32:x509_trs.obj
 0002:000226e4       ??_C@_0N@CAJJAOJD@OCSP?5request?$AA@ 000886e4     libeay32:x509_trs.obj
 0002:000226f4       ??_C@_0P@JHCOMJOI@OCSP?5responder?$AA@ 000886f4     libeay32:x509_trs.obj
 0002:00022704       ??_C@_0O@EEPBMPKP@Object?5Signer?$AA@ 00088704     libeay32:x509_trs.obj
 0002:00022714       ??_C@_0N@OEEPKGPL@S?1MIME?5email?$AA@ 00088714     libeay32:x509_trs.obj
 0002:00022724       ??_C@_0L@JNOGJJCA@compatible?$AA@ 00088724     libeay32:x509_trs.obj
 0002:000227d0       ??_C@_0L@MDHNNNKP@ssl_server?$AA@ 000887d0     libeay32:x509_vpm.obj
 0002:000227dc       ??_C@_0L@IMDPAGCM@ssl_client?$AA@ 000887dc     libeay32:x509_vpm.obj
 0002:000227e8       ??_C@_0L@GGDBHMO@smime_sign?$AA@ 000887e8     libeay32:x509_vpm.obj
 0002:000227f8       ??_C@_0EL@LDMNJGLH@d?3?2wm653wehh?2platform?2mvv210?2src@ 000887f8     libeay32:ec_oct.obj
 0002:00022848       ??_C@_0FA@NCEGPJFE@d?3?2wm653wehh?2platform?2mvv210?2src@ 00088848     libeay32:p12_utl.obj
 0002:00022898       ??_C@_0CG@ELPNGFCJ@OpenSSL?5?8win32?8?5shared?5library?5m@ 00088898     libeay32:dso_win32.obj
 0002:000228c0       ??_C@_01PKGAHCOL@?$CJ?$AA@ 000888c0     libeay32:dso_win32.obj
 0002:000228c4       ??_C@_09CCCHLKJP@filename?$CI?$AA@ 000888c4     libeay32:dso_win32.obj
 0002:000228d0       ??_C@_0EP@KLFAEIED@d?3?2wm653wehh?2platform?2mvv210?2src@ 000888d0     libeay32:dso_win32.obj
 0002:00022920       ??_C@_08MFAHALLH@symname?$CI?$AA@ 00088920     libeay32:dso_win32.obj
 0002:0002292c       ??_C@_06DAJAKOAL@?$CFs?4dll?$AA@ 0008892c     libeay32:dso_win32.obj
 0002:00022934       ??_C@_0BI@GJJDGJIM@CloseToolhelp32Snapshot?$AA@ 00088934     libeay32:dso_win32.obj
 0002:0002294c       ??_C@_0O@CNMFJJGO@Module32First?$AA@ 0008894c     libeay32:dso_win32.obj
 0002:0002295c       ??_C@_0N@KIGOLBLC@Module32Next?$AA@ 0008895c     libeay32:dso_win32.obj
 0002:0002296c       ??_C@_0BJ@JEFKDHMD@CreateToolhelp32Snapshot?$AA@ 0008896c     libeay32:dso_win32.obj
 0002:00022988       ??_C@_1BK@NKALKHPI@?$AAT?$AAO?$AAO?$AAL?$AAH?$AAE?$AAL?$AAP?$AA?4?$AAD?$AAL?$AAL?$AA?$AA@ 00088988     libeay32:dso_win32.obj
 0002:000229a8       ??_C@_0FA@NNAIMOGG@d?3?2wm653wehh?2platform?2mvv210?2src@ 000889a8     libeay32:pk7_doit.obj
 0002:00022ac0       ??_C@_0CK@NJACHFBA@ctx?9?$DOlength?5?$DM?$DN?5?$CIint?$CJsizeof?$CIctx?9?$DO@ 00088ac0     libeay32:encode.obj
 0002:00022af0       ??_C@_0EM@EJBFCLJI@d?3?2wm653wehh?2platform?2mvv210?2src@ 00088af0     libeay32:encode.obj
 0002:00022b3c       ??_C@_0BP@KGJPJK@n?5?$DM?5?$CIint?$CJsizeof?$CIctx?9?$DOenc_data?$CJ?$AA@ 00088b3c     libeay32:encode.obj
 0002:00022b5c       ??_C@_04GABBLIPF@asn1?$AA@ 00088b5c     libeay32:bio_asn1.obj
 0002:00022b68       ??_C@_0EP@CPKJKHDC@d?3?2wm653wehh?2platform?2mvv210?2src@ 00088b68     libeay32:bio_asn1.obj
 0002:00022bb8       ??_C@_0BM@FIMHHPDL@ctx?9?$DObuflen?5?$DM?$DN?5ctx?9?$DObufsize?$AA@ 00088bb8     libeay32:bio_asn1.obj
 0002:00022bd4       ??_C@_0BA@CNEIDKOH@base64?5encoding?$AA@ 00088bd4     libeay32:bio_b64.obj
 0002:00022be8       ??_C@_0EN@CHDAAPPK@d?3?2wm653wehh?2platform?2mvv210?2src@ 00088be8     libeay32:bio_b64.obj
 0002:00022c38       ??_C@_0CH@JADBFJCL@ctx?9?$DObuf_off?$CLi?5?$DM?5?$CIint?$CJsizeof?$CIctx@ 00088c38     libeay32:bio_b64.obj
 0002:00022c60       ??_C@_0BN@FPMDFEFM@ctx?9?$DObuf_len?5?$DO?$DN?5ctx?9?$DObuf_off?$AA@ 00088c60     libeay32:bio_b64.obj
 0002:00022c80       ??_C@_0BC@BEKEPBME@ctx?9?$DOtmp_len?5?$DM?$DN?53?$AA@ 00088c80     libeay32:bio_b64.obj
 0002:00022c94       ??_C@_0CG@NALBBCEM@ctx?9?$DObuf_off?5?$DM?$DN?5?$CIint?$CJsizeof?$CIctx?9@ 00088c94     libeay32:bio_b64.obj
 0002:00022cbc       ??_C@_06NOLCFJLD@i?5?$DM?$DN?5n?$AA@ 00088cbc     libeay32:bio_b64.obj
 0002:00022cc4       ??_C@_0CG@LFOFKIIN@ctx?9?$DObuf_len?5?$DM?$DN?5?$CIint?$CJsizeof?$CIctx?9@ 00088cc4     libeay32:bio_b64.obj
 0002:00022cec       ??_C@_0CF@ELLFOHKP@ctx?9?$DObuf_off?5?$DM?5?$CIint?$CJsizeof?$CIctx?9?$DO@ 00088cec     libeay32:bio_b64.obj
 0002:00022d14       ??_C@_06HOHPNJLC@buffer?$AA@ 00088d14     libeay32:bf_buff.obj
 0002:00022d20       ??_C@_0EN@HLACMGKH@d?3?2wm653wehh?2platform?2mvv210?2src@ 00088d20     libeay32:bf_buff.obj
 0002:00022d70       ??_C@_0EM@IBBLLJFJ@d?3?2wm653wehh?2platform?2mvv210?2src@ 00088d70     libeay32:ec2_oct.obj
 0002:00022dc0       ??_C@_0EM@OKKDHMMJ@d?3?2wm653wehh?2platform?2mvv210?2src@ 00088dc0     libeay32:ecp_oct.obj
 0002:000230f8       ??_C@_0BB@BIPBIGGF@PKCS12_AUTHSAFES?$AA@ 000890f8     libeay32:p12_asn.obj
 0002:0002310c       ??_C@_0BA@MCGBLIFE@PKCS12_SAFEBAGS?$AA@ 0008910c     libeay32:p12_asn.obj
 0002:0002311c       ??_C@_06CEIPPJF@attrib?$AA@ 0008911c     libeay32:p12_asn.obj
 0002:00023124       ??_C@_0P@EECFPDPC@PKCS12_SAFEBAG?$AA@ 00089124     libeay32:p12_asn.obj
 0002:00023134       ??_C@_09EBGANBLK@value?4bag?$AA@ 00089134     libeay32:p12_asn.obj
 0002:00023140       ??_C@_0M@NFMGHALF@value?4safes?$AA@ 00089140     libeay32:p12_asn.obj
 0002:0002314c       ??_C@_0P@FIADCDOI@value?4shkeybag?$AA@ 0008914c     libeay32:p12_asn.obj
 0002:0002315c       ??_C@_0N@DOAHKDFI@value?4keybag?$AA@ 0008915c     libeay32:p12_asn.obj
 0002:0002316c       ??_C@_0M@BNPBMADO@PKCS12_BAGS?$AA@ 0008916c     libeay32:p12_asn.obj
 0002:00023178       ??_C@_0P@OEFHMPFE@value?4sdsicert?$AA@ 00089178     libeay32:p12_asn.obj
 0002:00023188       ??_C@_0O@KKFHCJNP@value?4x509crl?$AA@ 00089188     libeay32:p12_asn.obj
 0002:00023198       ??_C@_0P@IGODMFMC@value?4x509cert?$AA@ 00089198     libeay32:p12_asn.obj
 0002:000231a8       ??_C@_0M@PABGOMNF@value?4other?$AA@ 000891a8     libeay32:p12_asn.obj
 0002:000231b4       ??_C@_0BA@LPMCLHLH@PKCS12_MAC_DATA?$AA@ 000891b4     libeay32:p12_asn.obj
 0002:000231c4       ??_C@_05DMLMEGOG@dinfo?$AA@ 000891c4     libeay32:p12_asn.obj
 0002:000231cc       ??_C@_06CKOLGKJK@PKCS12?$AA@ 000891cc     libeay32:p12_asn.obj
 0002:000231d4       ??_C@_09HFIAEJAG@authsafes?$AA@ 000891d4     libeay32:p12_asn.obj
 0002:000231e0       ??_C@_0FA@FLDKBPHG@d?3?2wm653wehh?2platform?2mvv210?2src@ 000891e0     libeay32:pk7_attr.obj
 0002:00023250       ??_C@_0EM@FGPLHJJK@d?3?2wm653wehh?2platform?2mvv210?2src@ 00089250     libeay32:bn_sqrt.obj
 0002:0002329c       ??_C@_0BP@JCDKFDNH@OpenSSL?5default?5user?5interface?$AA@ 0008929c     libeay32:ui_openssl.obj
 0002:000232c0       ??_C@_0EP@FLBPENKO@d?3?2wm653wehh?2platform?2mvv210?2src@ 000892c0     libeay32:ui_openssl.obj
 0002:00023310       ??_C@_03EPNNLCDK@con?$AA@  00089310     libeay32:ui_openssl.obj
 0002:00023314       ??_C@_0BA@GANIJHKH@Verify?5failure?6?$AA@ 00089314     libeay32:ui_openssl.obj
 0002:00023324       ??_C@_0P@IOLEFIHN@Verifying?5?9?5?$CFs?$AA@ 00089324     libeay32:ui_openssl.obj
 0002:00023334       ??_C@_0BG@KLEAJEFJ@Illegal?5byte?5sequence?$AA@ 00089334     wcecompatex:string_extras.obj
 0002:0002334c       ??_C@_0BE@ICMCHPHH@Directory?5not?5empty?$AA@ 0008934c     wcecompatex:string_extras.obj
 0002:00023360       ??_C@_0BJ@IHEHINLI@Function?5not?5implemented?$AA@ 00089360     wcecompatex:string_extras.obj
 0002:0002337c       ??_C@_0BD@CLHBCGPB@No?5locks?5available?$AA@ 0008937c     wcecompatex:string_extras.obj
 0002:00023390       ??_C@_0BC@BEDIHIDK@Filename?5too?5long?$AA@ 00089390     wcecompatex:string_extras.obj
 0002:000233a4       ??_C@_0BK@JAEBMJJM@Resource?5deadlock?5avoided?$AA@ 000893a4     wcecompatex:string_extras.obj
 0002:000233c0       ??_C@_0BB@FCBJFCAJ@Result?5too?5large?$AA@ 000893c0     wcecompatex:string_extras.obj
 0002:000233d4       ??_C@_0N@MMJPGLJK@Domain?5error?$AA@ 000893d4     wcecompatex:string_extras.obj
 0002:000233e4       ??_C@_0M@LHEPIIOM@Broken?5pipe?$AA@ 000893e4     wcecompatex:string_extras.obj
 0002:000233f0       ??_C@_0P@PKCJJLLM@Too?5many?5links?$AA@ 000893f0     wcecompatex:string_extras.obj
 0002:00023400       ??_C@_0BG@DDBFNKBH@Read?9only?5file?5system?$AA@ 00089400     wcecompatex:string_extras.obj
 0002:00023418       ??_C@_0N@FEHLOILP@Invalid?5seek?$AA@ 00089418     wcecompatex:string_extras.obj
 0002:00023428       ??_C@_0BI@FEALHKLD@No?5space?5left?5on?5device?$AA@ 00089428     wcecompatex:string_extras.obj
 0002:00023440       ??_C@_0P@LFMMIPAE@File?5too?5large?$AA@ 00089440     wcecompatex:string_extras.obj
 0002:00023450       ??_C@_0CE@ONOKNLPF@Inappropriate?5I?1O?5control?5operat@ 00089450     wcecompatex:string_extras.obj
 0002:00023474       ??_C@_0BE@INBJMKGG@Too?5many?5open?5files?$AA@ 00089474     wcecompatex:string_extras.obj
 0002:00023488       ??_C@_0BO@IIFBODJE@Too?5many?5open?5files?5in?5system?$AA@ 00089488     wcecompatex:string_extras.obj
 0002:000234a8       ??_C@_0BB@HMGGCEBG@Invalid?5argument?$AA@ 000894a8     wcecompatex:string_extras.obj
 0002:000234bc       ??_C@_0P@NDHGCGKE@Is?5a?5directory?$AA@ 000894bc     wcecompatex:string_extras.obj
 0002:000234cc       ??_C@_0BA@CJBACOOL@Not?5a?5directory?$AA@ 000894cc     wcecompatex:string_extras.obj
 0002:000234dc       ??_C@_0P@NLEIANHE@No?5such?5device?$AA@ 000894dc     wcecompatex:string_extras.obj
 0002:000234ec       ??_C@_0O@OAMDNOCP@Improper?5link?$AA@ 000894ec     wcecompatex:string_extras.obj
 0002:000234fc       ??_C@_0M@NAAJNNGH@File?5exists?$AA@ 000894fc     wcecompatex:string_extras.obj
 0002:00023508       ??_C@_0BI@PDLELJEJ@Device?5or?5resource?5busy?$AA@ 00089508     wcecompatex:string_extras.obj
 0002:00023520       ??_C@_0O@NIPGCINC@Unknown?5error?$AA@ 00089520     wcecompatex:string_extras.obj
 0002:00023530       ??_C@_0M@LOEHLCJD@Bad?5address?$AA@ 00089530     wcecompatex:string_extras.obj
 0002:0002353c       ??_C@_0BC@HFNFNKAI@Permission?5denied?$AA@ 0008953c     wcecompatex:string_extras.obj
 0002:00023550       ??_C@_0BC@BAKIAKOF@Not?5enough?5memory?$AA@ 00089550     wcecompatex:string_extras.obj
 0002:00023564       ??_C@_0CB@EPFKGNAK@Resource?5temporarily?5unavailable@ 00089564     wcecompatex:string_extras.obj
 0002:00023588       ??_C@_0BD@LOHELEP@No?5child?5processes?$AA@ 00089588     wcecompatex:string_extras.obj
 0002:0002359c       ??_C@_0BE@NFGDDCEF@Bad?5file?5descriptor?$AA@ 0008959c     wcecompatex:string_extras.obj
 0002:000235b0       ??_C@_0BC@HKPNECK@Exec?5format?5error?$AA@ 000895b0     wcecompatex:string_extras.obj
 0002:000235c4       ??_C@_0BC@MFFGCDFL@Arg?5list?5too?5long?$AA@ 000895c4     wcecompatex:string_extras.obj
 0002:000235d8       ??_C@_0BK@DPKMCKJ@No?5such?5device?5or?5address?$AA@ 000895d8     wcecompatex:string_extras.obj
 0002:000235f4       ??_C@_09FIANMNHE@I?1O?5error?$AA@ 000895f4     wcecompatex:string_extras.obj
 0002:00023600       ??_C@_0BI@EAGLFFDI@Interrupted?5system?5call?$AA@ 00089600     wcecompatex:string_extras.obj
 0002:00023618       ??_C@_0BA@FKIAIBGA@No?5such?5process?$AA@ 00089618     wcecompatex:string_extras.obj
 0002:00023628       ??_C@_0BK@FMDHKPNF@No?5such?5file?5or?5directory?$AA@ 00089628     wcecompatex:string_extras.obj
 0002:00023644       ??_C@_0BI@BJFCGOHL@Operation?5not?5permitted?$AA@ 00089644     wcecompatex:string_extras.obj
 0002:0002365c       ??_C@_08INEPGKHH@No?5error?$AA@ 0008965c     wcecompatex:string_extras.obj
 0002:00023668       ??_C@_08EDHMEBNP@December?$AA@ 00089668     wcecompatex:time.obj
 0002:00023674       ??_C@_08HCHEGEOA@November?$AA@ 00089674     wcecompatex:time.obj
 0002:00023680       ??_C@_07JJNFCEND@October?$AA@ 00089680     wcecompatex:time.obj
 0002:00023688       ??_C@_09BHHEALKD@September?$AA@ 00089688     wcecompatex:time.obj
 0002:00023694       ??_C@_06LBBHFDDG@August?$AA@ 00089694     wcecompatex:time.obj
 0002:0002369c       ??_C@_04MIEPOIFP@July?$AA@ 0008969c     wcecompatex:time.obj
 0002:000236a4       ??_C@_04CNLMGBGM@June?$AA@ 000896a4     wcecompatex:time.obj
 0002:000236ac       ??_C@_05DMJDNLEJ@April?$AA@ 000896ac     wcecompatex:time.obj
 0002:000236b4       ??_C@_05HPCKOFNC@March?$AA@ 000896b4     wcecompatex:time.obj
 0002:000236bc       ??_C@_08GNJGEPFN@February?$AA@ 000896bc     wcecompatex:time.obj
 0002:000236c8       ??_C@_07CGJPFGJA@January?$AA@ 000896c8     wcecompatex:time.obj
 0002:000236d0       ??_C@_08INBOOONO@Saturday?$AA@ 000896d0     wcecompatex:time.obj
 0002:000236dc       ??_C@_06JECMNKMI@Friday?$AA@ 000896dc     wcecompatex:time.obj
 0002:000236e4       ??_C@_08HACCIKIA@Thursday?$AA@ 000896e4     wcecompatex:time.obj
 0002:000236f0       ??_C@_09DLIGFAKA@Wednesday?$AA@ 000896f0     wcecompatex:time.obj
 0002:000236fc       ??_C@_07BAAGCFCM@Tuesday?$AA@ 000896fc     wcecompatex:time.obj
 0002:00023704       ??_C@_06JLEDEDGH@Monday?$AA@ 00089704     wcecompatex:time.obj
 0002:0002370c       ??_C@_06OOPIFAJ@Sunday?$AA@ 0008970c     wcecompatex:time.obj
 0002:00023714       ??_C@_03FEFJNEK@Sat?$AA@   00089714     wcecompatex:time.obj
 0002:00023718       ??_C@_03IDIOELNC@Fri?$AA@  00089718     wcecompatex:time.obj
 0002:0002371c       ??_C@_03IOFIKPDN@Thu?$AA@  0008971c     wcecompatex:time.obj
 0002:00023720       ??_C@_03MHOMLAJA@Wed?$AA@  00089720     wcecompatex:time.obj
 0002:00023724       ??_C@_03NAGEINEP@Tue?$AA@  00089724     wcecompatex:time.obj
 0002:00023728       ??_C@_03PDAGKDH@Mon?$AA@   00089728     wcecompatex:time.obj
 0002:0002372c       ??_C@_03KOEHGMDN@Sun?$AA@  0008972c     wcecompatex:time.obj
 0002:0002374c       __IMPORT_DESCRIPTOR_COREDLL 0008974c     coredll:COREDLL.dll
 0002:00023760       __NULL_IMPORT_DESCRIPTOR   00089760     coredll:COREDLL.dll
 0003:00000000       __imp_sprintf              0008a000     coredll:COREDLL.dll
 0003:00000004       __imp_printf               0008a004     coredll:COREDLL.dll
 0003:00000008       __imp_memset               0008a008     coredll:COREDLL.dll
 0003:0000000c       __imp_strcmp               0008a00c     coredll:COREDLL.dll
 0003:00000010       __imp_strlen               0008a010     coredll:COREDLL.dll
 0003:00000014       __imp_memcpy               0008a014     coredll:COREDLL.dll
 0003:00000018       __imp_free                 0008a018     coredll:COREDLL.dll
 0003:0000001c       __imp_realloc              0008a01c     coredll:COREDLL.dll
 0003:00000020       __imp_malloc               0008a020     coredll:COREDLL.dll
 0003:00000024       __imp_strcpy               0008a024     coredll:COREDLL.dll
 0003:00000028       __imp_strncpy              0008a028     coredll:COREDLL.dll
 0003:0000002c       __imp_strchr               0008a02c     coredll:COREDLL.dll
 0003:00000030       __imp___itod               0008a030     coredll:COREDLL.dll
 0003:00000034       __imp___muld               0008a034     coredll:COREDLL.dll
 0003:00000038       __imp_memcmp               0008a038     coredll:COREDLL.dll
 0003:0000003c       __imp_MessageBoxW          0008a03c     coredll:COREDLL.dll
 0003:00000040       __imp__vsnwprintf          0008a040     coredll:COREDLL.dll
 0003:00000044       __imp_MultiByteToWideChar  0008a044     coredll:COREDLL.dll
 0003:00000048       __imp__getstdfilex         0008a048     coredll:COREDLL.dll
 0003:0000004c       __imp_memchr               0008a04c     coredll:COREDLL.dll
 0003:00000050       __imp_fprintf              0008a050     coredll:COREDLL.dll
 0003:00000054       __imp_atoi                 0008a054     coredll:COREDLL.dll
 0003:00000058       __imp__isctype             0008a058     coredll:COREDLL.dll
 0003:0000005c       __imp_qsort                0008a05c     coredll:COREDLL.dll
 0003:00000060       __imp___rt_udiv            0008a060     coredll:COREDLL.dll
 0003:00000064       __imp___ltd                0008a064     coredll:COREDLL.dll
 0003:00000068       __imp___negd               0008a068     coredll:COREDLL.dll
 0003:0000006c       __imp___dtoi               0008a06c     coredll:COREDLL.dll
 0003:00000070       __imp___subd               0008a070     coredll:COREDLL.dll
 0003:00000074       __imp___ged                0008a074     coredll:COREDLL.dll
 0003:00000078       __imp___rt_udiv64by64      0008a078     coredll:COREDLL.dll
 0003:0000007c       __imp___rt_urem64by64      0008a07c     coredll:COREDLL.dll
 0003:00000080       __imp_tolower              0008a080     coredll:COREDLL.dll
 0003:00000084       __imp_strncmp              0008a084     coredll:COREDLL.dll
 0003:00000088       __imp_sscanf               0008a088     coredll:COREDLL.dll
 0003:0000008c       __imp__strnicmp            0008a08c     coredll:COREDLL.dll
 0003:00000090       __imp_fclose               0008a090     coredll:COREDLL.dll
 0003:00000094       __imp_GetLastError         0008a094     coredll:COREDLL.dll
 0003:00000098       __imp_ferror               0008a098     coredll:COREDLL.dll
 0003:0000009c       __imp_fread                0008a09c     coredll:COREDLL.dll
 0003:000000a0       __imp_fwrite               0008a0a0     coredll:COREDLL.dll
 0003:000000a4       __imp__setmode             0008a0a4     coredll:COREDLL.dll
 0003:000000a8       __imp__fileno              0008a0a8     coredll:COREDLL.dll
 0003:000000ac       __imp_fopen                0008a0ac     coredll:COREDLL.dll
 0003:000000b0       __imp_fseek                0008a0b0     coredll:COREDLL.dll
 0003:000000b4       __imp_ftell                0008a0b4     coredll:COREDLL.dll
 0003:000000b8       __imp_feof                 0008a0b8     coredll:COREDLL.dll
 0003:000000bc       __imp_fflush               0008a0bc     coredll:COREDLL.dll
 0003:000000c0       __imp_strcat               0008a0c0     coredll:COREDLL.dll
 0003:000000c4       __imp_fgets                0008a0c4     coredll:COREDLL.dll
 0003:000000c8       __imp__wfopen              0008a0c8     coredll:COREDLL.dll
 0003:000000cc       __imp_strrchr              0008a0cc     coredll:COREDLL.dll
 0003:000000d0       __imp___rt_sdiv            0008a0d0     coredll:COREDLL.dll
 0003:000000d4       __imp___addd               0008a0d4     coredll:COREDLL.dll
 0003:000000d8       __imp_strtoul              0008a0d8     coredll:COREDLL.dll
 0003:000000dc       __imp__stricmp             0008a0dc     coredll:COREDLL.dll
 0003:000000e0       __imp_memmove              0008a0e0     coredll:COREDLL.dll
 0003:000000e4       __imp_GetTickCount         0008a0e4     coredll:COREDLL.dll
 0003:000000e8       __imp_QueryPerformanceCounter 0008a0e8     coredll:COREDLL.dll
 0003:000000ec       __imp_GlobalMemoryStatus   0008a0ec     coredll:COREDLL.dll
 0003:000000f0       __imp_CryptReleaseContext  0008a0f0     coredll:COREDLL.dll
 0003:000000f4       __imp_CryptGenRandom       0008a0f4     coredll:COREDLL.dll
 0003:000000f8       __imp_CryptAcquireContextW 0008a0f8     coredll:COREDLL.dll
 0003:000000fc       __imp_GetVersionExW        0008a0fc     coredll:COREDLL.dll
 0003:00000100       __imp_LoadLibraryW         0008a100     coredll:COREDLL.dll
 0003:00000104       __imp_SetLastError         0008a104     coredll:COREDLL.dll
 0003:00000108       __imp_FreeLibrary          0008a108     coredll:COREDLL.dll
 0003:0000010c       __imp_GetProcAddressA      0008a10c     coredll:COREDLL.dll
 0003:00000110       __imp_strstr               0008a110     coredll:COREDLL.dll
 0003:00000114       __imp_WideCharToMultiByte  0008a114     coredll:COREDLL.dll
 0003:00000118       __imp_fputs                0008a118     coredll:COREDLL.dll
 0003:0000011c       __imp_SystemTimeToFileTime 0008a11c     coredll:COREDLL.dll
 0003:00000120       __imp_GetSystemTime        0008a120     coredll:COREDLL.dll
 0003:00000124       __imp_FileTimeToSystemTime 0008a124     coredll:COREDLL.dll
 0003:00000128       __imp_LocalFree            0008a128     coredll:COREDLL.dll
 0003:0000012c       __imp__XcptFilter          0008a12c     coredll:COREDLL.dll
 0003:00000130       __imp___C_specific_handler 0008a130     coredll:COREDLL.dll
 0003:00000134       __imp_FindFirstFileW       0008a134     coredll:COREDLL.dll
 0003:00000138       __imp_FindClose            0008a138     coredll:COREDLL.dll
 0003:0000013c       __imp_FindNextFileW        0008a13c     coredll:COREDLL.dll
 0003:00000140       __imp_GetModuleFileNameW   0008a140     coredll:COREDLL.dll
 0003:00000144       \177COREDLL_NULL_THUNK_DATA 0008a144     coredll:COREDLL.dll
 0003:00000148       __xc_a                     0008a148     corelibc:crt0init.obj
 0003:0000014c       __xc_z                     0008a14c     corelibc:crt0init.obj
 0003:00000150       __xi_a                     0008a150     corelibc:crt0init.obj
 0003:00000154       __xi_z                     0008a154     corelibc:crt0init.obj
 0003:00000158       __xp_a                     0008a158     corelibc:crt0init.obj
 0003:0000015c       __xp_z                     0008a15c     corelibc:crt0init.obj
 0003:00000160       __xt_a                     0008a160     corelibc:crt0init.obj
 0003:00000164       __xt_z                     0008a164     corelibc:crt0init.obj
 0003:00000754       rand_ssleay_meth           0008a754     libeay32:md_rand.obj
 0003:00000928       default_pctx               0008a928     libeay32:tasn_prn.obj
 0003:00001028       ?messages@@3PAPADA         0008b028     wcecompatex:string_extras.obj
 0003:0000160c       app_pkey_methods           0008b60c     libeay32:pmeth_lib.obj
 0003:00002c98       OPENSSL_NONPIC_relocated   0008cc98     libeay32:cryptlib.obj
 0003:00002cc8       cleanse_ctr                0008ccc8     libeay32:mem_clr.obj
 0003:00002ed0       obj_cleanup_defer          0008ced0     libeay32:obj_dat.obj
 0003:0000359c       _environ                   0008d59c     wcecompatex:env.obj
 0003:000035a0       _wenviron                  0008d5a0     wcecompatex:env.obj
 0003:000035a4       ?num_env_vars@@3HA         0008d5a4     wcecompatex:env.obj
 0003:000035e8       errno                      0008d5e8     wcecompatex:errno.obj
 0003:000035ec       ?_timezone@@3HA            0008d5ec     wcecompatex:timeb.obj
 0003:000035f0       ?altzone@@3HA              0008d5f0     wcecompatex:timeb.obj
 0003:000035f4       ?timezone@@3HA             0008d5f4     wcecompatex:timeb.obj
 0003:000035f8       sigx_app                   0008d5f8     <common>
 0003:000035fc       sig_app                    0008d5fc     <common>
 0003:00003600       __onexitend                0008d600     <common>
 0003:00003604       __onexitbegin              0008d604     <common>
 0003:00003608       _exitflag                  0008d608     <common>

 entry point at        0001:0005428c

 Static symbols

 0001:000008a8       init                       000118a8 f   libeay32:m_sha.obj
 0001:000008bc       update                     000118bc f   libeay32:m_sha.obj
 0001:000008d0       final                      000118d0 f   libeay32:m_sha.obj
 0001:000008f8       default_malloc_ex          000118f8 f   libeay32:mem.obj
 0001:00000918       default_realloc_ex         00011918 f   libeay32:mem.obj
 0001:00000938       default_malloc_locked_ex   00011938 f   libeay32:mem.obj
 0001:00000cfc       pmeth_cmp_BSEARCH_CMP_FN   00011cfc f   libeay32:pmeth_lib.obj
 0001:00001294       err_fns_check              00012294 f   libeay32:err.obj
 0001:000012fc       err_string_data_LHASH_HASH 000122fc f   libeay32:err.obj
 0001:00001348       err_string_data_LHASH_COMP 00012348 f   libeay32:err.obj
 0001:00001358       int_err_get                00012358 f   libeay32:err.obj
 0001:00001404       int_err_del                00012404 f   libeay32:err.obj
 0001:00001460       int_err_get_item           00012460 f   libeay32:err.obj
 0001:000014e4       int_err_set_item           000124e4 f   libeay32:err.obj
 0001:00001564       int_err_del_item           00012564 f   libeay32:err.obj
 0001:000015e8       err_state_LHASH_HASH       000125e8 f   libeay32:err.obj
 0001:00001600       err_state_LHASH_COMP       00012600 f   libeay32:err.obj
 0001:00001610       int_thread_get             00012610 f   libeay32:err.obj
 0001:000016c8       int_thread_release         000126c8 f   libeay32:err.obj
 0001:00001724       int_thread_get_item        00012724 f   libeay32:err.obj
 0001:000017c8       int_thread_set_item        000127c8 f   libeay32:err.obj
 0001:0000186c       int_err_get_next_lib       0001286c f   libeay32:err.obj
 0001:000018c4       ERR_STATE_free             000128c4 f   libeay32:err.obj
 0001:00001c7c       int_thread_del_item        00012c7c f   libeay32:err.obj
 0001:000031c0       sha_block_data_order       000141c0 f   libeay32:sha_dgst.obj
 0001:00003790       pkey_cmac_init             00014790 f   libeay32:cm_pmeth.obj
 0001:000037c0       pkey_cmac_copy             000147c0 f   libeay32:cm_pmeth.obj
 0001:00003804       pkey_cmac_cleanup          00014804 f   libeay32:cm_pmeth.obj
 0001:00003818       pkey_cmac_keygen           00014818 f   libeay32:cm_pmeth.obj
 0001:00003878       int_update                 00014878 f   libeay32:cm_pmeth.obj
 0001:000038a0       cmac_signctx_init          000148a0 f   libeay32:cm_pmeth.obj
 0001:000038cc       cmac_signctx               000148cc f   libeay32:cm_pmeth.obj
 0001:000038e0       pkey_cmac_ctrl             000148e0 f   libeay32:cm_pmeth.obj
 0001:000039b4       pkey_cmac_ctrl_str         000149b4 f   libeay32:cm_pmeth.obj
 0001:00003ac4       pkey_hmac_init             00014ac4 f   libeay32:hm_pmeth.obj
 0001:00003b28       pkey_hmac_copy             00014b28 f   libeay32:hm_pmeth.obj
 0001:00003bb0       pkey_hmac_cleanup          00014bb0 f   libeay32:hm_pmeth.obj
 0001:00003bfc       pkey_hmac_keygen           00014bfc f   libeay32:hm_pmeth.obj
 0001:00003c50       int_update                 00014c50 f   libeay32:hm_pmeth.obj
 0001:00003c7c       hmac_signctx_init          00014c7c f   libeay32:hm_pmeth.obj
 0001:00003cbc       hmac_signctx               00014cbc f   libeay32:hm_pmeth.obj
 0001:00003d2c       pkey_hmac_ctrl             00014d2c f   libeay32:hm_pmeth.obj
 0001:00003dc4       pkey_hmac_ctrl_str         00014dc4 f   libeay32:hm_pmeth.obj
 0001:00003e84       pkey_ec_init               00014e84 f   libeay32:ec_pmeth.obj
 0001:00003ec8       pkey_ec_copy               00014ec8 f   libeay32:ec_pmeth.obj
 0001:00003f28       pkey_ec_cleanup            00014f28 f   libeay32:ec_pmeth.obj
 0001:00003f58       pkey_ec_sign               00014f58 f   libeay32:ec_pmeth.obj
 0001:0000401c       pkey_ec_verify             0001501c f   libeay32:ec_pmeth.obj
 0001:0000407c       pkey_ec_derive             0001507c f   libeay32:ec_pmeth.obj
 0001:00004144       pkey_ec_ctrl               00015144 f   libeay32:ec_pmeth.obj
 0001:00004290       pkey_ec_ctrl_str           00015290 f   libeay32:ec_pmeth.obj
 0001:0000433c       pkey_ec_paramgen           0001533c f   libeay32:ec_pmeth.obj
 0001:000043d0       pkey_ec_keygen             000153d0 f   libeay32:ec_pmeth.obj
 0001:00004464       pkey_dsa_init              00015464 f   libeay32:dsa_pmeth.obj
 0001:000044cc       pkey_dsa_copy              000154cc f   libeay32:dsa_pmeth.obj
 0001:00004520       pkey_dsa_cleanup           00015520 f   libeay32:dsa_pmeth.obj
 0001:0000453c       pkey_dsa_sign              0001553c f   libeay32:dsa_pmeth.obj
 0001:000045b0       pkey_dsa_verify            000155b0 f   libeay32:dsa_pmeth.obj
 0001:00004610       pkey_dsa_ctrl              00015610 f   libeay32:dsa_pmeth.obj
 0001:00004808       pkey_dsa_ctrl_str          00015808 f   libeay32:dsa_pmeth.obj
 0001:00004910       pkey_dsa_paramgen          00015910 f   libeay32:dsa_pmeth.obj
 0001:000049b8       pkey_dsa_keygen            000159b8 f   libeay32:dsa_pmeth.obj
 0001:00004a4c       pkey_dh_init               00015a4c f   libeay32:dh_pmeth.obj
 0001:00004aac       pkey_dh_copy               00015aac f   libeay32:dh_pmeth.obj
 0001:00004af8       pkey_dh_cleanup            00015af8 f   libeay32:dh_pmeth.obj
 0001:00004b14       pkey_dh_ctrl               00015b14 f   libeay32:dh_pmeth.obj
 0001:00004b68       pkey_dh_ctrl_str           00015b68 f   libeay32:dh_pmeth.obj
 0001:00004c24       pkey_dh_paramgen           00015c24 f   libeay32:dh_pmeth.obj
 0001:00004cb0       pkey_dh_keygen             00015cb0 f   libeay32:dh_pmeth.obj
 0001:00004d40       pkey_dh_derive             00015d40 f   libeay32:dh_pmeth.obj
 0001:00004dbc       pkey_rsa_init              00015dbc f   libeay32:rsa_pmeth.obj
 0001:00004e34       pkey_rsa_copy              00015e34 f   libeay32:rsa_pmeth.obj
 0001:00004ea4       setup_tbuf                 00015ea4 f   libeay32:rsa_pmeth.obj
 0001:00004ef0       pkey_rsa_cleanup           00015ef0 f   libeay32:rsa_pmeth.obj
 0001:00004f30       pkey_rsa_sign              00015f30 f   libeay32:rsa_pmeth.obj
 0001:00005118       pkey_rsa_verifyrecover     00016118 f   libeay32:rsa_pmeth.obj
 0001:000052cc       pkey_rsa_verify            000162cc f   libeay32:rsa_pmeth.obj
 0001:00005444       pkey_rsa_encrypt           00016444 f   libeay32:rsa_pmeth.obj
 0001:00005490       pkey_rsa_decrypt           00016490 f   libeay32:rsa_pmeth.obj
 0001:000054dc       check_padding_md           000164dc f   libeay32:rsa_pmeth.obj
 0001:0000556c       pkey_rsa_ctrl              0001656c f   libeay32:rsa_pmeth.obj
 0001:000058ac       pkey_rsa_ctrl_str          000168ac f   libeay32:rsa_pmeth.obj
 0001:00005b24       pkey_rsa_keygen            00016b24 f   libeay32:rsa_pmeth.obj
 0001:00005bec       sn_cmp_BSEARCH_CMP_FN      00016bec f   libeay32:obj_dat.obj
 0001:00005c18       ln_cmp_BSEARCH_CMP_FN      00016c18 f   libeay32:obj_dat.obj
 0001:00005ef4       obj_cmp_BSEARCH_CMP_FN     00016ef4 f   libeay32:obj_dat.obj
 0001:000069d8       internal_find              000179d8 f   libeay32:stack.obj
 0001:00006d80       pkey_set_type              00017d80 f   libeay32:p_lib.obj
 0001:00007244       int_cb_LHASH_DOALL_ARG     00018244 f   libeay32:eng_table.obj
 0001:000074ac       app_info_LHASH_COMP        000184ac f   libeay32:mem_dbg.obj
 0001:000074bc       app_info_LHASH_HASH        000184bc f   libeay32:mem_dbg.obj
 0001:000074f4       pop_info                   000184f4 f   libeay32:mem_dbg.obj
 0001:000077bc       expand                     000187bc f   libeay32:lhash.obj
 0001:000078f4       contract                   000188f4 f   libeay32:lhash.obj
 0001:000079ec       getrn                      000189ec f   libeay32:lhash.obj
 0001:00007f4c       roundv                     00018f4c f   libeay32:b_print.obj
 0001:00007fdc       doapr_outch                00018fdc f   libeay32:b_print.obj
 0001:000080d0       fmtstr                     000190d0 f   libeay32:b_print.obj
 0001:00008200       fmtint                     00019200 f   libeay32:b_print.obj
 0001:00008540       fmtfp                      00019540 f   libeay32:b_print.obj
 0001:00008a30       _dopr                      00019a30 f   libeay32:b_print.obj
 0001:00009bc4       rsa_get_public_exp         0001abc4 f   libeay32:rsa_crpt.obj
 0001:0000ab9c       strip_spaces               0001bb9c f   libeay32:v3_utl.obj
 0001:0000af14       ipv4_from_asc              0001bf14 f   libeay32:v3_utl.obj
 0001:0000b2b4       ipv6_cb                    0001c2b4 f   libeay32:v3_utl.obj
 0001:0000b3c4       ipv6_from_asc              0001c3c4 f   libeay32:v3_utl.obj
 0001:0000d634       ecdsa_data_new             0001e634 f   libeay32:ecs_lib.obj
 0001:0000d728       ecdsa_data_dup             0001e728 f   libeay32:ecs_lib.obj
 0001:0000d748       ecdsa_data_free            0001e748 f   libeay32:ecs_lib.obj
 0001:0000de0c       ec_group_new_from_data     0001ee0c f   libeay32:ec_curve.obj
 0001:0000e2e8       sig_cb                     0001f2e8 f   libeay32:dsa_asn1.obj
 0001:0000e37c       dsa_cb                     0001f37c f   libeay32:dsa_asn1.obj
 0001:0000efd8       trans_cb                   0001ffd8 f   libeay32:pmeth_gn.obj
 0001:0000f028       dsa_builtin_keygen         00020028 f   libeay32:dsa_key.obj
 0001:0000f484       dh_builtin_genparams       00020484 f   libeay32:dh_gen.obj
 0001:0000f6dc       generate_key               000206dc f   libeay32:dh_key.obj
 0001:0000f8f4       compute_key                000208f4 f   libeay32:dh_key.obj
 0001:0000faac       dh_bn_mod_exp              00020aac f   libeay32:dh_key.obj
 0001:0000fb34       dh_init                    00020b34 f   libeay32:dh_key.obj
 0001:0000fb4c       dh_finish                  00020b4c f   libeay32:dh_key.obj
 0001:0000fd30       bn_expand_internal         00020d30 f   libeay32:bn_lib.obj
 0001:00011104       init                       00022104 f   libeay32:m_sha1.obj
 0001:00011118       update                     00022118 f   libeay32:m_sha1.obj
 0001:0001112c       final                      0002212c f   libeay32:m_sha1.obj
 0001:00011154       init224                    00022154 f   libeay32:m_sha1.obj
 0001:00011168       init256                    00022168 f   libeay32:m_sha1.obj
 0001:0001117c       update256                  0002217c f   libeay32:m_sha1.obj
 0001:00011190       final256                   00022190 f   libeay32:m_sha1.obj
 0001:000111ac       init384                    000221ac f   libeay32:m_sha1.obj
 0001:000111c0       init512                    000221c0 f   libeay32:m_sha1.obj
 0001:000111d4       update512                  000221d4 f   libeay32:m_sha1.obj
 0001:000111e8       final512                   000221e8 f   libeay32:m_sha1.obj
 0001:00011410       cms_RecipientInfo_ktri_encrypt 00022410 f   libeay32:cms_env.obj
 0001:0001159c       cms_RecipientInfo_kekri_encrypt 0002259c f   libeay32:cms_env.obj
 0001:00012110       rsa_builtin_keygen         00023110 f   libeay32:rsa_gen.obj
 0001:00013ac0       asn1_get_length            00024ac0 f   libeay32:asn1_lib.obj
 0001:00014100       ameth_cmp_BSEARCH_CMP_FN   00025100 f   libeay32:ameth_lib.obj
 0001:000144b0       obj_name_LHASH_HASH        000254b0 f   libeay32:o_names.obj
 0001:00014510       obj_name_LHASH_COMP        00025510 f   libeay32:o_names.obj
 0001:00014698       sig_cmp_BSEARCH_CMP_FN     00025698 f   libeay32:obj_xref.obj
 0001:000146a8       sigx_cmp_BSEARCH_CMP_FN    000256a8 f   libeay32:obj_xref.obj
 0001:00014818       pbe2_cmp_BSEARCH_CMP_FN    00025818 f   libeay32:evp_pbe.obj
 0001:00014abc       file_new                   00025abc f   libeay32:bss_file.obj
 0001:00014ad8       file_free                  00025ad8 f   libeay32:bss_file.obj
 0001:00014b34       file_read                  00025b34 f   libeay32:bss_file.obj
 0001:00014bd4       file_write                 00025bd4 f   libeay32:bss_file.obj
 0001:00014c20       file_ctrl                  00025c20 f   libeay32:bss_file.obj
 0001:00014eb4       file_gets                  00025eb4 f   libeay32:bss_file.obj
 0001:00014f08       file_puts                  00025f08 f   libeay32:bss_file.obj
 0001:00015184       impl_check                 00026184 f   libeay32:ex_data.obj
 0001:000151d8       ex_class_item_LHASH_HASH   000261d8 f   libeay32:ex_data.obj
 0001:000151e0       ex_class_item_LHASH_COMP   000261e0 f   libeay32:ex_data.obj
 0001:000151f0       ex_data_check              000261f0 f   libeay32:ex_data.obj
 0001:0001526c       def_cleanup_util_cb        0002626c f   libeay32:ex_data.obj
 0001:0001527c       def_cleanup_cb             0002627c f   libeay32:ex_data.obj
 0001:000152a4       def_get_class              000262a4 f   libeay32:ex_data.obj
 0001:000153a0       def_add_index              000263a0 f   libeay32:ex_data.obj
 0001:000154d4       int_new_class              000264d4 f   libeay32:ex_data.obj
 0001:0001552c       int_cleanup                0002652c f   libeay32:ex_data.obj
 0001:00015580       int_get_new_index          00026580 f   libeay32:ex_data.obj
 0001:00015780       int_new_ex_data            00026780 f   libeay32:ex_data.obj
 0001:000158fc       int_dup_ex_data            000268fc f   libeay32:ex_data.obj
 0001:00015aa4       int_free_ex_data           00026aa4 f   libeay32:ex_data.obj
 0001:00015cc4       look_str_cb                00026cc4 f   libeay32:tb_asnmth.obj
 0001:00017050       BN_POOL_get                00028050 f   libeay32:bn_ctx.obj
 0001:0001743c       euclid                     0002843c f   libeay32:bn_gcd.obj
 0001:00017568       BN_mod_inverse_no_branch   00028568 f   libeay32:bn_gcd.obj
 0001:000189d4       asn1_check_tlen            000299d4 f   libeay32:tasn_dec.obj
 0001:00018bd4       asn1_template_ex_d2i       00029bd4 f   libeay32:tasn_dec.obj
 0001:00018df0       asn1_find_end              00029df0 f   libeay32:tasn_dec.obj
 0001:00018f44       asn1_collect               00029f44 f   libeay32:tasn_dec.obj
 0001:000191a0       asn1_d2i_ex_primitive      0002a1a0 f   libeay32:tasn_dec.obj
 0001:00019f68       asn1_template_noexp_d2i    0002af68 f   libeay32:tasn_dec.obj
 0001:0001a384       asn1_template_ex_i2d       0002b384 f   libeay32:tasn_enc.obj
 0001:0001a6a4       der_cmp                    0002b6a4 f   libeay32:tasn_enc.obj
 0001:0001a8c4       asn1_i2d_ex_primitive      0002b8c4 f   libeay32:tasn_enc.obj
 0001:0001ad9c       asn1_set_seq_out           0002bd9c f   libeay32:tasn_enc.obj
 0001:0001afe4       asn1_item_flags_i2d        0002bfe4 f   libeay32:tasn_enc.obj
 0001:0001b1d8       asn1_item_ex_combine_new   0002c1d8 f   libeay32:tasn_new.obj
 0001:0001b4b8       asn1_item_clear            0002c4b8 f   libeay32:tasn_new.obj
 0001:0001b808       asn1_item_combine_free     0002c808 f   libeay32:tasn_fre.obj
 0001:0001d13c       i2v_AUTHORITY_INFO_ACCESS  0002e13c f   libeay32:v3_info.obj
 0001:0001d278       v2i_AUTHORITY_INFO_ACCESS  0002e278 f   libeay32:v3_info.obj
 0001:0001d7d8       ext_cmp_BSEARCH_CMP_FN     0002e7d8 f   libeay32:v3_lib.obj
 0001:0001da0c       ec_pre_comp_dup            0002ea0c f   libeay32:ec_mult.obj
 0001:0001da48       ec_pre_comp_free           0002ea48 f   libeay32:ec_mult.obj
 0001:0001dac4       ec_pre_comp_clear_free     0002eac4 f   libeay32:ec_mult.obj
 0001:0001db58       compute_wNAF               0002eb58 f   libeay32:ec_mult.obj
 0001:0001ef78       ecdsa_sign_setup           0002ff78 f   libeay32:ecs_ossl.obj
 0001:0001f360       ecdsa_do_sign              00030360 f   libeay32:ecs_ossl.obj
 0001:0001f748       ecdsa_do_verify            00030748 f   libeay32:ecs_ossl.obj
 0001:0001fc54       ecdh_data_new              00030c54 f   libeay32:ech_lib.obj
 0001:0001fd48       ecdh_data_dup              00030d48 f   libeay32:ech_lib.obj
 0001:0001fd68       ecdh_data_free             00030d68 f   libeay32:ech_lib.obj
 0001:0001fe28       bnrand                     00030e28 f   libeay32:bn_rand.obj
 0001:00020090       bn_rand_range              00031090 f   libeay32:bn_rand.obj
 0001:000203f8       bn_new                     000313f8 f   libeay32:x_bignum.obj
 0001:00020420       bn_free                    00031420 f   libeay32:x_bignum.obj
 0001:0002045c       bn_i2c                     0003145c f   libeay32:x_bignum.obj
 0001:000204cc       bn_c2i                     000314cc f   libeay32:x_bignum.obj
 0001:00020544       long_new                   00031544 f   libeay32:x_long.obj
 0001:00020558       long_free                  00031558 f   libeay32:x_long.obj
 0001:00020564       long_i2c                   00031564 f   libeay32:x_long.obj
 0001:0002061c       long_c2i                   0003161c f   libeay32:x_long.obj
 0001:00020710       long_print                 00031710 f   libeay32:x_long.obj
 0001:00020894       dsa_do_sign                00031894 f   libeay32:dsa_ossl.obj
 0001:00020ae4       dsa_sign_setup             00031ae4 f   libeay32:dsa_ossl.obj
 0001:00020d80       dsa_do_verify              00031d80 f   libeay32:dsa_ossl.obj
 0001:00021098       dsa_init                   00032098 f   libeay32:dsa_ossl.obj
 0001:000210b0       dsa_finish                 000320b0 f   libeay32:dsa_ossl.obj
 0001:00021464       MOD_EXP_CTIME_COPY_FROM_PREBUF 00032464 f   libeay32:bn_exp.obj
 0001:000223e4       BN_from_montgomery_word    000333e4 f   libeay32:bn_mont.obj
 0001:00023184       witness                    00034184 f   libeay32:bn_prime.obj
 0001:00023290       probable_prime_dh          00034290 f   libeay32:bn_prime.obj
 0001:000233b4       probable_prime_dh_safe     000343b4 f   libeay32:bn_prime.obj
 0001:00024378       sha1_block_data_order      00035378 f   libeay32:sha1dgst.obj
 0001:00024a4c       sha256_block_data_order    00035a4c f   libeay32:sha256.obj
 0001:000251dc       sha512_block_data_order    000361dc f   libeay32:sha512.obj
 0001:00025d6c       cms_si_cb                  00036d6c f   libeay32:cms_asn1.obj
 0001:00025e80       cms_ri_cb                  00036e80 f   libeay32:cms_asn1.obj
 0001:00025f50       CMS_ContentInfo_adb        00036f50 f   libeay32:cms_asn1.obj
 0001:00025f5c       cms_cb                     00036f5c f   libeay32:cms_asn1.obj
 0001:00026940       cms_get0_signed            00037940 f   libeay32:cms_sd.obj
 0001:00026994       cms_sd_set_version         00037994 f   libeay32:cms_sd.obj
 0001:00026e50       cms_SignerInfo_content_sign 00037e50 f   libeay32:cms_sd.obj
 0001:0002713c       nid_cmp_BSEARCH_CMP_FN     0003813c f   libeay32:v3_purp.obj
 0001:000271a8       setup_crldp                000381a8 f   libeay32:v3_purp.obj
 0001:000272dc       x509v3_cache_extensions    000382dc f   libeay32:v3_purp.obj
 0001:000277c0       check_ca                   000387c0 f   libeay32:v3_purp.obj
 0001:00027828       check_purpose_ssl_client   00038828 f   libeay32:v3_purp.obj
 0001:000278b8       check_purpose_ssl_server   000388b8 f   libeay32:v3_purp.obj
 0001:00027948       check_purpose_ns_ssl_server 00038948 f   libeay32:v3_purp.obj
 0001:00027988       purpose_smime              00038988 f   libeay32:v3_purp.obj
 0001:00027a14       check_purpose_smime_sign   00038a14 f   libeay32:v3_purp.obj
 0001:00027a5c       check_purpose_smime_encrypt 00038a5c f   libeay32:v3_purp.obj
 0001:00027aa4       check_purpose_crl_sign     00038aa4 f   libeay32:v3_purp.obj
 0001:00027af8       ocsp_helper                00038af8 f   libeay32:v3_purp.obj
 0001:00027b20       check_purpose_timestamp_sign 00038b20 f   libeay32:v3_purp.obj
 0001:00027bbc       no_check                   00038bbc f   libeay32:v3_purp.obj
 0001:00028204       kek_unwrap_key             00039204 f   libeay32:cms_pwri.obj
 0001:00028388       kek_wrap_key               00039388 f   libeay32:cms_pwri.obj
 0001:00028800       RSA_eay_public_encrypt     00039800 f   libeay32:rsa_eay.obj
 0001:00028b50       rsa_get_blinding           00039b50 f   libeay32:rsa_eay.obj
 0001:00028cc0       rsa_blinding_convert       00039cc0 f   libeay32:rsa_eay.obj
 0001:00028d48       RSA_eay_private_encrypt    00039d48 f   libeay32:rsa_eay.obj
 0001:000291b4       RSA_eay_private_decrypt    0003a1b4 f   libeay32:rsa_eay.obj
 0001:00029624       RSA_eay_public_decrypt     0003a624 f   libeay32:rsa_eay.obj
 0001:0002999c       RSA_eay_mod_exp            0003a99c f   libeay32:rsa_eay.obj
 0001:00029fb8       RSA_eay_init               0003afb8 f   libeay32:rsa_eay.obj
 0001:00029fd0       RSA_eay_finish             0003afd0 f   libeay32:rsa_eay.obj
 0001:0002a1ec       cmac_size                  0003b1ec f   libeay32:cm_ameth.obj
 0001:0002a1f4       cmac_key_free              0003b1f4 f   libeay32:cm_ameth.obj
 0001:0002a210       hmac_size                  0003b210 f   libeay32:hm_ameth.obj
 0001:0002a218       hmac_key_free              0003b218 f   libeay32:hm_ameth.obj
 0001:0002a24c       hmac_pkey_ctrl             0003b24c f   libeay32:hm_ameth.obj
 0001:0002a264       old_hmac_decode            0003b264 f   libeay32:hm_ameth.obj
 0001:0002a2c4       old_hmac_encode            0003b2c4 f   libeay32:hm_ameth.obj
 0001:0002a334       eckey_param2type           0003b334 f   libeay32:ec_ameth.obj
 0001:0002a41c       eckey_pub_encode           0003b41c f   libeay32:ec_ameth.obj
 0001:0002a520       eckey_type2param           0003b520 f   libeay32:ec_ameth.obj
 0001:0002a62c       eckey_pub_decode           0003b62c f   libeay32:ec_ameth.obj
 0001:0002a728       eckey_pub_cmp              0003b728 f   libeay32:ec_ameth.obj
 0001:0002a790       eckey_priv_decode          0003b790 f   libeay32:ec_ameth.obj
 0001:0002a9b8       eckey_priv_encode          0003b9b8 f   libeay32:ec_ameth.obj
 0001:0002ab50       int_ec_size                0003bb50 f   libeay32:ec_ameth.obj
 0001:0002ab64       ec_bits                    0003bb64 f   libeay32:ec_ameth.obj
 0001:0002abc0       ec_missing_parameters      0003bbc0 f   libeay32:ec_ameth.obj
 0001:0002abe4       ec_copy_parameters         0003bbe4 f   libeay32:ec_ameth.obj
 0001:0002ac34       ec_cmp_parameters          0003bc34 f   libeay32:ec_ameth.obj
 0001:0002ac78       int_ec_free                0003bc78 f   libeay32:ec_ameth.obj
 0001:0002ac8c       do_EC_KEY_print            0003bc8c f   libeay32:ec_ameth.obj
 0001:0002af20       eckey_param_decode         0003bf20 f   libeay32:ec_ameth.obj
 0001:0002af84       eckey_param_encode         0003bf84 f   libeay32:ec_ameth.obj
 0001:0002af98       eckey_param_print          0003bf98 f   libeay32:ec_ameth.obj
 0001:0002afb0       eckey_pub_print            0003bfb0 f   libeay32:ec_ameth.obj
 0001:0002afc8       eckey_priv_print           0003bfc8 f   libeay32:ec_ameth.obj
 0001:0002afe0       old_ec_priv_decode         0003bfe0 f   libeay32:ec_ameth.obj
 0001:0002b048       old_ec_priv_encode         0003c048 f   libeay32:ec_ameth.obj
 0001:0002b05c       ec_pkey_ctrl               0003c05c f   libeay32:ec_ameth.obj
 0001:0002b1b0       dsa_pub_decode             0003c1b0 f   libeay32:dsa_ameth.obj
 0001:0002b35c       dsa_pub_encode             0003c35c f   libeay32:dsa_ameth.obj
 0001:0002b498       dsa_priv_decode            0003c498 f   libeay32:dsa_ameth.obj
 0001:0002b784       dsa_priv_encode            0003c784 f   libeay32:dsa_ameth.obj
 0001:0002b8dc       int_dsa_size               0003c8dc f   libeay32:dsa_ameth.obj
 0001:0002b8f0       dsa_bits                   0003c8f0 f   libeay32:dsa_ameth.obj
 0001:0002b908       dsa_missing_parameters     0003c908 f   libeay32:dsa_ameth.obj
 0001:0002b938       dsa_copy_parameters        0003c938 f   libeay32:dsa_ameth.obj
 0001:0002b9ec       dsa_cmp_parameters         0003c9ec f   libeay32:dsa_ameth.obj
 0001:0002ba60       dsa_pub_cmp                0003ca60 f   libeay32:dsa_ameth.obj
 0001:0002ba90       int_dsa_free               0003ca90 f   libeay32:dsa_ameth.obj
 0001:0002baa4       do_dsa_print               0003caa4 f   libeay32:dsa_ameth.obj
 0001:0002bd2c       dsa_param_decode           0003cd2c f   libeay32:dsa_ameth.obj
 0001:0002bd90       dsa_param_encode           0003cd90 f   libeay32:dsa_ameth.obj
 0001:0002bda4       dsa_param_print            0003cda4 f   libeay32:dsa_ameth.obj
 0001:0002bdbc       dsa_pub_print              0003cdbc f   libeay32:dsa_ameth.obj
 0001:0002bdd4       dsa_priv_print             0003cdd4 f   libeay32:dsa_ameth.obj
 0001:0002bdec       old_dsa_priv_decode        0003cdec f   libeay32:dsa_ameth.obj
 0001:0002be54       old_dsa_priv_encode        0003ce54 f   libeay32:dsa_ameth.obj
 0001:0002be68       dsa_sig_print              0003ce68 f   libeay32:dsa_ameth.obj
 0001:0002bff8       dsa_pkey_ctrl              0003cff8 f   libeay32:dsa_ameth.obj
 0001:0002c14c       int_dh_free                0003d14c f   libeay32:dh_ameth.obj
 0001:0002c160       dh_pub_decode              0003d160 f   libeay32:dh_ameth.obj
 0001:0002c2d0       dh_pub_encode              0003d2d0 f   libeay32:dh_ameth.obj
 0001:0002c3e4       dh_priv_decode             0003d3e4 f   libeay32:dh_ameth.obj
 0001:0002c518       dh_priv_encode             0003d518 f   libeay32:dh_ameth.obj
 0001:0002c664       dh_param_decode            0003d664 f   libeay32:dh_ameth.obj
 0001:0002c6c8       dh_param_encode            0003d6c8 f   libeay32:dh_ameth.obj
 0001:0002c6dc       do_dh_print                0003d6dc f   libeay32:dh_ameth.obj
 0001:0002c968       int_dh_size                0003d968 f   libeay32:dh_ameth.obj
 0001:0002c97c       dh_bits                    0003d97c f   libeay32:dh_ameth.obj
 0001:0002c994       dh_cmp_parameters          0003d994 f   libeay32:dh_ameth.obj
 0001:0002c9ec       dh_copy_parameters         0003d9ec f   libeay32:dh_ameth.obj
 0001:0002ca70       dh_missing_parameters      0003da70 f   libeay32:dh_ameth.obj
 0001:0002ca90       dh_pub_cmp                 0003da90 f   libeay32:dh_ameth.obj
 0001:0002cadc       dh_param_print             0003dadc f   libeay32:dh_ameth.obj
 0001:0002cb00       dh_public_print            0003db00 f   libeay32:dh_ameth.obj
 0001:0002cb24       dh_private_print           0003db24 f   libeay32:dh_ameth.obj
 0001:0002cb48       rsa_pub_encode             0003db48 f   libeay32:rsa_ameth.obj
 0001:0002cbc0       rsa_pub_decode             0003dbc0 f   libeay32:rsa_ameth.obj
 0001:0002cc50       rsa_pub_cmp                0003dc50 f   libeay32:rsa_ameth.obj
 0001:0002cca8       old_rsa_priv_decode        0003dca8 f   libeay32:rsa_ameth.obj
 0001:0002cd0c       old_rsa_priv_encode        0003dd0c f   libeay32:rsa_ameth.obj
 0001:0002cd20       rsa_priv_encode            0003dd20 f   libeay32:rsa_ameth.obj
 0001:0002cde0       rsa_priv_decode            0003dde0 f   libeay32:rsa_ameth.obj
 0001:0002ce2c       int_rsa_size               0003de2c f   libeay32:rsa_ameth.obj
 0001:0002ce40       rsa_bits                   0003de40 f   libeay32:rsa_ameth.obj
 0001:0002ce58       int_rsa_free               0003de58 f   libeay32:rsa_ameth.obj
 0001:0002ce6c       do_rsa_print               0003de6c f   libeay32:rsa_ameth.obj
 0001:0002d208       rsa_pub_print              0003e208 f   libeay32:rsa_ameth.obj
 0001:0002d220       rsa_priv_print             0003e220 f   libeay32:rsa_ameth.obj
 0001:0002d238       rsa_pss_decode             0003e238 f   libeay32:rsa_ameth.obj
 0001:0002d300       rsa_pss_param_print        0003e300 f   libeay32:rsa_ameth.obj
 0001:0002d554       rsa_sig_print              0003e554 f   libeay32:rsa_ameth.obj
 0001:0002d61c       rsa_pkey_ctrl              0003e61c f   libeay32:rsa_ameth.obj
 0001:0002d70c       rsa_item_verify            0003e70c f   libeay32:rsa_ameth.obj
 0001:0002d9dc       rsa_item_sign              0003e9dc f   libeay32:rsa_ameth.obj
 0001:0002e780       ssleay_rand_cleanup        0003f780 f   libeay32:md_rand.obj
 0001:0002e7e8       ssleay_rand_add            0003f7e8 f   libeay32:md_rand.obj
 0001:0002eb80       ssleay_rand_seed           0003fb80 f   libeay32:md_rand.obj
 0001:0002ebc0       ssleay_rand_bytes          0003fbc0 f   libeay32:md_rand.obj
 0001:0002effc       ssleay_rand_nopseudo_bytes 0003fffc f   libeay32:md_rand.obj
 0001:0002f010       ssleay_rand_pseudo_bytes   00040010 f   libeay32:md_rand.obj
 0001:0002f024       ssleay_rand_status         00040024 f   libeay32:md_rand.obj
 0001:00030120       x509_name_ex_new           00041120 f   libeay32:x_name.obj
 0001:000301d4       x509_name_ex_free          000411d4 f   libeay32:x_name.obj
 0001:0003022c       local_sk_X509_NAME_ENTRY_free 0004122c f   libeay32:x_name.obj
 0001:0003023c       local_sk_X509_NAME_ENTRY_pop_free 0004123c f   libeay32:x_name.obj
 0001:00030254       x509_name_encode           00041254 f   libeay32:x_name.obj
 0001:000303bc       x509_name_ex_print         000413bc f   libeay32:x_name.obj
 0001:000303e8       asn1_string_canon          000413e8 f   libeay32:x_name.obj
 0001:00030554       i2d_name_canon             00041554 f   libeay32:x_name.obj
 0001:000305e0       x509_name_canon            000415e0 f   libeay32:x_name.obj
 0001:00030764       x509_name_ex_d2i           00041764 f   libeay32:x_name.obj
 0001:00030920       x509_name_ex_i2d           00041920 f   libeay32:x_name.obj
 0001:00030a94       table_cmp_BSEARCH_CMP_FN   00041a94 f   libeay32:a_strnid.obj
 0001:00030f58       copy_issuer                00041f58 f   libeay32:v3_alt.obj
 0001:00031088       copy_email                 00042088 f   libeay32:v3_alt.obj
 0001:0003121c       do_othername               0004221c f   libeay32:v3_alt.obj
 0001:000312f8       do_dirname                 000422f8 f   libeay32:v3_alt.obj
 0001:00031854       v2i_issuer_alt             00042854 f   libeay32:v3_alt.obj
 0001:00031978       v2i_subject_alt            00042978 f   libeay32:v3_alt.obj
 0001:00032034       init                       00043034 f   libeay32:m_md5.obj
 0001:00032048       update                     00043048 f   libeay32:m_md5.obj
 0001:0003205c       final                      0004305c f   libeay32:m_md5.obj
 0001:00032428       pubkey_cb                  00043428 f   libeay32:x_pubkey.obj
 0001:000326d4       gnames_from_sectname       000436d4 f   libeay32:v3_crld.obj
 0001:00032788       set_reasons                00043788 f   libeay32:v3_crld.obj
 0001:00032890       print_reasons              00043890 f   libeay32:v3_crld.obj
 0001:00032968       dpn_cb                     00043968 f   libeay32:v3_crld.obj
 0001:00032a24       print_gens                 00043a24 f   libeay32:v3_crld.obj
 0001:00032aac       print_distpoint            00043aac f   libeay32:v3_crld.obj
 0001:00032b54       i2r_idp                    00043b54 f   libeay32:v3_crld.obj
 0001:00032c84       i2r_crldp                  00043c84 f   libeay32:v3_crld.obj
 0001:00032e18       set_dist_point_name        00043e18 f   libeay32:v3_crld.obj
 0001:00033004       crldp_from_section         00044004 f   libeay32:v3_crld.obj
 0001:000330f0       v2i_crld                   000440f0 f   libeay32:v3_crld.obj
 0001:000332b0       v2i_idp                    000442b0 f   libeay32:v3_crld.obj
 0001:0003347c       s2i_asn1_int               0004447c f   libeay32:v3_int.obj
 0001:000334c0       i2v_POLICY_MAPPINGS        000444c0 f   libeay32:v3_pmaps.obj
 0001:0003354c       v2i_POLICY_MAPPINGS        0004454c f   libeay32:v3_pmaps.obj
 0001:0003375c       v2i_NAME_CONSTRAINTS       0004475c f   libeay32:v3_ncons.obj
 0001:00033910       do_i2r_name_constraints    00044910 f   libeay32:v3_ncons.obj
 0001:00033ac0       i2r_NAME_CONSTRAINTS       00044ac0 f   libeay32:v3_ncons.obj
 0001:00033b1c       i2r_pci                    00044b1c f   libeay32:v3_pci.obj
 0001:00033bfc       process_pci_value          00044bfc f   libeay32:v3_pci.obj
 0001:0003432c       r2i_pci                    0004532c f   libeay32:v3_pci.obj
 0001:00034674       i2r_ocsp_crlid             00045674 f   libeay32:v3_ocsp.obj
 0001:000347ac       i2r_ocsp_acutoff           000457ac f   libeay32:v3_ocsp.obj
 0001:0003480c       i2r_object                 0004580c f   libeay32:v3_ocsp.obj
 0001:0003486c       ocsp_nonce_new             0004586c f   libeay32:v3_ocsp.obj
 0001:0003487c       i2d_ocsp_nonce             0004587c f   libeay32:v3_ocsp.obj
 0001:000348b8       d2i_ocsp_nonce             000458b8 f   libeay32:v3_ocsp.obj
 0001:0003496c       ocsp_nonce_free            0004596c f   libeay32:v3_ocsp.obj
 0001:0003497c       i2r_ocsp_nonce             0004597c f   libeay32:v3_ocsp.obj
 0001:000349e0       i2r_ocsp_nocheck           000459e0 f   libeay32:v3_ocsp.obj
 0001:000349e8       s2i_ocsp_nocheck           000459e8 f   libeay32:v3_ocsp.obj
 0001:000349f8       i2r_ocsp_serviceloc        000459f8 f   libeay32:v3_ocsp.obj
 0001:00034b08       i2v_POLICY_CONSTRAINTS     00045b08 f   libeay32:v3_pcons.obj
 0001:00034b4c       v2i_POLICY_CONSTRAINTS     00045b4c f   libeay32:v3_pcons.obj
 0001:00034cc8       i2v_EXTENDED_KEY_USAGE     00045cc8 f   libeay32:v3_extku.obj
 0001:00034d40       v2i_EXTENDED_KEY_USAGE     00045d40 f   libeay32:v3_extku.obj
 0001:00034e74       sxnet_i2r                  00045e74 f   libeay32:v3_sxnet.obj
 0001:000351c8       sxnet_v2i                  000461c8 f   libeay32:v3_sxnet.obj
 0001:000352a4       i2v_AUTHORITY_KEYID        000462a4 f   libeay32:v3_akey.obj
 0001:0003535c       v2i_AUTHORITY_KEYID        0004635c f   libeay32:v3_akey.obj
 0001:0003566c       POLICYQUALINFO_adb         0004666c f   libeay32:v3_cpols.obj
 0001:000356b4       nref_nos                   000466b4 f   libeay32:v3_cpols.obj
 0001:00035790       notice_section             00046790 f   libeay32:v3_cpols.obj
 0001:00035a74       print_qualifiers           00046a74 f   libeay32:v3_cpols.obj
 0001:00035c64       policy_section             00046c64 f   libeay32:v3_cpols.obj
 0001:00035fd0       i2r_certpol                00046fd0 f   libeay32:v3_cpols.obj
 0001:00036074       r2i_certpol                00047074 f   libeay32:v3_cpols.obj
 0001:00036360       i2v_BASIC_CONSTRAINTS      00047360 f   libeay32:v3_bcons.obj
 0001:000363a4       v2i_BASIC_CONSTRAINTS      000473a4 f   libeay32:v3_bcons.obj
 0001:000364f8       i2r_PKEY_USAGE_PERIOD      000474f8 f   libeay32:v3_pku.obj
 0001:0003682c       s2i_skey_id                0004782c f   libeay32:v3_skey.obj
 0001:000369b0       i2s_ASN1_IA5STRING         000479b0 f   libeay32:v3_ia5.obj
 0001:00036a38       s2i_ASN1_IA5STRING         00047a38 f   libeay32:v3_ia5.obj
 0001:00036b6c       nconf_get_string           00047b6c f   libeay32:v3_conf.obj
 0001:00036b7c       nconf_get_section          00047b7c f   libeay32:v3_conf.obj
 0001:00036b8c       conf_lhash_get_string      00047b8c f   libeay32:v3_conf.obj
 0001:00036b9c       conf_lhash_get_section     00047b9c f   libeay32:v3_conf.obj
 0001:00036bac       rinf_cb                    00047bac f   libeay32:x_req.obj
 0001:00037154       ecdh_compute_key           00048154 f   libeay32:ech_ossl.obj
 0001:00039b4c       crl_set_issuers            0004ab4c f   libeay32:x_crl.obj
 0001:00039cd8       setup_idp                  0004acd8 f   libeay32:x_crl.obj
 0001:00039ddc       X509_REVOKED_cmp           0004addc f   libeay32:x_crl.obj
 0001:00039dfc       def_crl_verify             0004adfc f   libeay32:x_crl.obj
 0001:00039e30       def_crl_lookup             0004ae30 f   libeay32:x_crl.obj
 0001:00039fbc       crl_inf_cb                 0004afbc f   libeay32:x_crl.obj
 0001:00039ff8       crl_cb                     0004aff8 f   libeay32:x_crl.obj
 0001:0003a25c       x509_cb                    0004b25c f   libeay32:x_x509.obj
 0001:0003a418       md_new                     0004b418 f   libeay32:bio_md.obj
 0001:0003a44c       md_free                    0004b44c f   libeay32:bio_md.obj
 0001:0003a484       md_read                    0004b484 f   libeay32:bio_md.obj
 0001:0003a514       md_write                   0004b514 f   libeay32:bio_md.obj
 0001:0003a5c4       md_ctrl                    0004b5c4 f   libeay32:bio_md.obj
 0001:0003a710       md_callback_ctrl           0004b710 f   libeay32:bio_md.obj
 0001:0003a738       md_gets                    0004b738 f   libeay32:bio_md.obj
 0001:0003a814       mem_new                    0004b814 f   libeay32:bss_mem.obj
 0001:0003a850       mem_free                   0004b850 f   libeay32:bss_mem.obj
 0001:0003a8ac       mem_read                   0004b8ac f   libeay32:bss_mem.obj
 0001:0003a960       mem_write                  0004b960 f   libeay32:bss_mem.obj
 0001:0003aa18       mem_ctrl                   0004ba18 f   libeay32:bss_mem.obj
 0001:0003ab58       mem_gets                   0004bb58 f   libeay32:bss_mem.obj
 0001:0003abe4       mem_puts                   0004bbe4 f   libeay32:bss_mem.obj
 0001:0003ac1c       null_new                   0004bc1c f   libeay32:bss_null.obj
 0001:0003ac38       null_free                  0004bc38 f   libeay32:bss_null.obj
 0001:0003ac48       null_read                  0004bc48 f   libeay32:bss_null.obj
 0001:0003ac50       null_write                 0004bc50 f   libeay32:bss_null.obj
 0001:0003ac58       null_ctrl                  0004bc58 f   libeay32:bss_null.obj
 0001:0003ac98       null_gets                  0004bc98 f   libeay32:bss_null.obj
 0001:0003aca0       null_puts                  0004bca0 f   libeay32:bss_null.obj
 0001:0003ade8       enc_new                    0004bde8 f   libeay32:bio_enc.obj
 0001:0003ae54       enc_free                   0004be54 f   libeay32:bio_enc.obj
 0001:0003aea8       enc_read                   0004bea8 f   libeay32:bio_enc.obj
 0001:0003b048       enc_write                  0004c048 f   libeay32:bio_enc.obj
 0001:0003b190       enc_ctrl                   0004c190 f   libeay32:bio_enc.obj
 0001:0003b38c       enc_callback_ctrl          0004c38c f   libeay32:bio_enc.obj
 0001:0003b5f4       do_sigver_init             0004c5f4 f   libeay32:m_sigver.obj
 0001:0003d3a0       X9_62_CHARACTERISTIC_TWO_adb 0004e3a0 f   libeay32:ec_asn1.obj
 0001:0003d3b8       X9_62_FIELDID_adb          0004e3b8 f   libeay32:ec_asn1.obj
 0001:0003d3f4       ec_asn1_group2fieldid      0004e3f4 f   libeay32:ec_asn1.obj
 0001:0003d768       ec_asn1_group2curve        0004e768 f   libeay32:ec_asn1.obj
 0001:0003db50       ec_asn1_group2parameters   0004eb50 f   libeay32:ec_asn1.obj
 0001:0003dee4       ec_asn1_group2pkparameters 0004eee4 f   libeay32:ec_asn1.obj
 0001:0003dfe4       ec_asn1_parameters2group   0004efe4 f   libeay32:ec_asn1.obj
 0001:0003e7e0       ec_asn1_pkparameters2group 0004f7e0 f   libeay32:ec_asn1.obj
 0001:0003f424       pkey_cb                    00050424 f   libeay32:p8_pkey.obj
 0001:0003f5bc       print_bin                  000505bc f   libeay32:eck_prn.obj
 0001:000406d0       dh_cb                      000516d0 f   libeay32:dh_asn1.obj
 0001:0004075c       rsa_cb                     0005175c f   libeay32:rsa_asn1.obj
 0001:00040fbc       readtimer                  00051fbc f   libeay32:rand_win.obj
 0001:00041110       send_bio_chars             00052110 f   libeay32:a_strex.obj
 0001:00041140       do_esc_char                00052140 f   libeay32:a_strex.obj
 0001:0004132c       do_buf                     0005232c f   libeay32:a_strex.obj
 0001:000414d8       do_hex_dump                000524d8 f   libeay32:a_strex.obj
 0001:00041564       do_dump                    00052564 f   libeay32:a_strex.obj
 0001:00041650       do_print_ex                00052650 f   libeay32:a_strex.obj
 0001:00041820       do_indent                  00052820 f   libeay32:a_strex.obj
 0001:00041880       do_name_ex                 00052880 f   libeay32:a_strex.obj
 0001:00041cec       traverse_string            00052cec f   libeay32:a_mbstr.obj
 0001:00041dec       in_utf8                    00052dec f   libeay32:a_mbstr.obj
 0001:00041e00       out_utf8                   00052e00 f   libeay32:a_mbstr.obj
 0001:00041e34       cpy_asc                    00052e34 f   libeay32:a_mbstr.obj
 0001:00041e54       cpy_bmp                    00052e54 f   libeay32:a_mbstr.obj
 0001:00041e84       cpy_univ                   00052e84 f   libeay32:a_mbstr.obj
 0001:00041ec4       cpy_utf8                   00052ec4 f   libeay32:a_mbstr.obj
 0001:00041ef8       type_str                   00052ef8 f   libeay32:a_mbstr.obj
 0001:000424dc       parse_tagging              000534dc f   libeay32:asn1_gen.obj
 0001:0004261c       append_exp                 0005361c f   libeay32:asn1_gen.obj
 0001:000426f8       bitstr_cb                  000536f8 f   libeay32:asn1_gen.obj
 0001:000427c4       asn1_cb                    000537c4 f   libeay32:asn1_gen.obj
 0001:00042c0c       asn1_str2type              00053c0c f   libeay32:asn1_gen.obj
 0001:00043428       asn1_multi                 00054428 f   libeay32:asn1_gen.obj
 0001:00043588       def_create                 00054588 f   libeay32:conf_def.obj
 0001:000435dc       def_init_default           000545dc f   libeay32:conf_def.obj
 0001:00043604       def_init_WIN32             00054604 f   libeay32:conf_def.obj
 0001:0004362c       def_destroy_data           0005462c f   libeay32:conf_def.obj
 0001:00043650       str_copy                   00054650 f   libeay32:conf_def.obj
 0001:000439fc       dump_value_LHASH_DOALL_ARG 000549fc f   libeay32:conf_def.obj
 0001:00043a50       def_dump                   00054a50 f   libeay32:conf_def.obj
 0001:00043a74       def_is_number              00054a74 f   libeay32:conf_def.obj
 0001:00043a8c       def_to_int                 00054a8c f   libeay32:conf_def.obj
 0001:00043a94       def_destroy                00054a94 f   libeay32:conf_def.obj
 0001:00043ac8       clear_comments             00054ac8 f   libeay32:conf_def.obj
 0001:00043c14       def_load_bio               00054c14 f   libeay32:conf_def.obj
 0001:0004444c       def_load                   0005544c f   libeay32:conf_def.obj
 0001:00044694       conf_value_LHASH_HASH      00055694 f   libeay32:conf_api.obj
 0001:000446bc       conf_value_LHASH_COMP      000556bc f   libeay32:conf_api.obj
 0001:00044860       value_free_hash_LHASH_DOALL_ARG 00055860 f   libeay32:conf_api.obj
 0001:00044884       value_free_stack_LHASH_DOALL 00055884 f   libeay32:conf_api.obj
 0001:00045c8c       PKCS7_adb                  00056c8c f   libeay32:pk7_asn1.obj
 0001:00045c98       pk7_cb                     00056c98 f   libeay32:pk7_asn1.obj
 0001:00045d34       si_cb                      00056d34 f   libeay32:pk7_asn1.obj
 0001:00045d78       ri_cb                      00056d78 f   libeay32:pk7_asn1.obj
 0001:00048478       nist_cp_bn_0               00059478 f   libeay32:bn_nist.obj
 0001:00049758       gf2m_Mdouble               0005a758 f   libeay32:ec2_mult.obj
 0001:000498b4       gf2m_Madd                  0005a8b4 f   libeay32:ec2_mult.obj
 0001:00049a2c       gf2m_Mxy                   0005aa2c f   libeay32:ec2_mult.obj
 0001:00049dd8       ec_GF2m_montgomery_point_multiply 0005add8 f   libeay32:ec2_mult.obj
 0001:0004a374       bn_GF2m_mul_1x1            0005b374 f   libeay32:bn_gf2m.obj
 0001:0004bf28       julian_to_date             0005cf28 f   libeay32:o_time.obj
 0001:0004c288       trust_compat               0005d288 f   libeay32:x509_trs.obj
 0001:0004c2bc       obj_trust                  0005d2bc f   libeay32:x509_trs.obj
 0001:0004c38c       trust_1oidany              0005d38c f   libeay32:x509_trs.obj
 0001:0004c3f8       trust_1oid                 0005d3f8 f   libeay32:x509_trs.obj
 0001:0004cdd8       LoadLibraryA               0005ddd8 f   libeay32:dso_win32.obj
 0001:0004ce78       win32_load                 0005de78 f   libeay32:dso_win32.obj
 0001:0004cfb4       win32_unload               0005dfb4 f   libeay32:dso_win32.obj
 0001:0004d088       win32_bind_var             0005e088 f   libeay32:dso_win32.obj
 0001:0004d19c       win32_bind_func            0005e19c f   libeay32:dso_win32.obj
 0001:0004d2b0       win32_splitter             0005e2b0 f   libeay32:dso_win32.obj
 0001:0004d4e4       win32_name_converter       0005e4e4 f   libeay32:dso_win32.obj
 0001:0004d5cc       win32_pathbyaddr           0005e5cc f   libeay32:dso_win32.obj
 0001:0004d7f4       win32_globallookup         0005e7f4 f   libeay32:dso_win32.obj
 0001:0004d98c       win32_joiner               0005e98c f   libeay32:dso_win32.obj
 0001:0004dcc4       win32_merger               0005ecc4 f   libeay32:dso_win32.obj
 0001:0004df00       PKCS7_get_octet_string     0005ef00 f   libeay32:pk7_doit.obj
 0001:0004df60       PKCS7_bio_add_digest       0005ef60 f   libeay32:pk7_doit.obj
 0001:0004e054       pkcs7_encode_rinfo         0005f054 f   libeay32:pk7_doit.obj
 0001:0004e614       PKCS7_find_digest          0005f614 f   libeay32:pk7_doit.obj
 0001:0004e898       get_attribute              0005f898 f   libeay32:pk7_doit.obj
 0001:0004e940       add_attribute              0005f940 f   libeay32:pk7_doit.obj
 0001:0004ea5c       do_pkcs7_signed_attrib     0005fa5c f   libeay32:pk7_doit.obj
 0001:0004f5f0       asn1_bio_free              000605f0 f   libeay32:bio_asn1.obj
 0001:0004f640       asn1_bio_flush_ex          00060640 f   libeay32:bio_asn1.obj
 0001:0004f6e4       asn1_bio_read              000606e4 f   libeay32:bio_asn1.obj
 0001:0004f70c       asn1_bio_gets              0006070c f   libeay32:bio_asn1.obj
 0001:0004f734       asn1_bio_callback_ctrl     00060734 f   libeay32:bio_asn1.obj
 0001:0004f75c       asn1_bio_ctrl              0006075c f   libeay32:bio_asn1.obj
 0001:0004f904       asn1_bio_new               00060904 f   libeay32:bio_asn1.obj
 0001:0004f9a0       asn1_bio_write             000609a0 f   libeay32:bio_asn1.obj
 0001:0004fbd4       asn1_bio_puts              00060bd4 f   libeay32:bio_asn1.obj
 0001:0004fc00       b64_new                    00060c00 f   libeay32:bio_b64.obj
 0001:0004fc70       b64_free                   00060c70 f   libeay32:bio_b64.obj
 0001:0004fca8       b64_read                   00060ca8 f   libeay32:bio_b64.obj
 0001:0005014c       b64_write                  0006114c f   libeay32:bio_b64.obj
 0001:0005058c       b64_ctrl                   0006158c f   libeay32:bio_b64.obj
 0001:000507a4       b64_callback_ctrl          000617a4 f   libeay32:bio_b64.obj
 0001:000507cc       b64_puts                   000617cc f   libeay32:bio_b64.obj
 0001:000507f8       buffer_new                 000617f8 f   libeay32:bf_buff.obj
 0001:000508ac       buffer_free                000618ac f   libeay32:bf_buff.obj
 0001:00050908       buffer_read                00061908 f   libeay32:bf_buff.obj
 0001:00050a48       buffer_write               00061a48 f   libeay32:bf_buff.obj
 0001:00050c08       buffer_ctrl                00061c08 f   libeay32:bf_buff.obj
 0001:00050fe0       buffer_callback_ctrl       00061fe0 f   libeay32:bf_buff.obj
 0001:00051008       buffer_gets                00062008 f   libeay32:bf_buff.obj
 0001:00051110       buffer_puts                00062110 f   libeay32:bf_buff.obj
 0001:00052658       PKCS12_BAGS_adb            00063658 f   libeay32:p12_asn.obj
 0001:00052670       PKCS12_SAFEBAG_adb         00063670 f   libeay32:p12_asn.obj
 0001:000532cc       write_string               000642cc f   libeay32:ui_openssl.obj
 0001:00053314       open_console               00064314 f   libeay32:ui_openssl.obj
 0001:000533a0       close_console              000643a0 f   libeay32:ui_openssl.obj
 0001:00053404       read_string                00064404 f   libeay32:ui_openssl.obj
 0001:000535a0       cmp64                      000645a0 f   wcecompatex:time.obj
 0001:000535ec       topBit                     000645ec f   wcecompatex:time.obj
 0001:00053778       div64                      00064778 f   wcecompatex:time.obj
 0001:00054150       doexit                     00065150 f   corelibc:crt0dat.obj
 0001:00054324       ?getCmdLineArg@@YA?AW4ArgType@@PAPA_WPA_WHPAURedirArg@@PA_N@Z 00065324 f   wcecompatex:args.obj
 0001:00054650       ?qsort_stricmp@@YAHPBX0@Z  00065650 f   wcecompatex:args.obj
