 exptest

 Timestamp is 511c9981 (Thu Feb 14 17:00:01 2013)

 Preferred load address is 00010000

 Start         Length     Name                   Class
 0001:00000000 000012e8H .text                   CODE
 0002:00000000 00000198H .rdata                  DATA
 0002:00000198 00000014H .xdata                  DATA
 0002:000001ac 00000028H .idata$2                DATA
 0002:000001d4 00000014H .idata$3                DATA
 0002:000001e8 000000bcH .idata$4                DATA
 0002:000002a4 0000001aH .idata$6                DATA
 0002:000002be 00000000H .edata                  DATA
 0003:00000000 000000bcH .idata$5                DATA
 0003:000000bc 00000004H .CRT$XCA                DATA
 0003:000000c0 00000004H .CRT$XCZ                DATA
 0003:000000c4 00000004H .CRT$XIA                DATA
 0003:000000c8 00000004H .CRT$XIZ                DATA
 0003:000000cc 00000004H .CRT$XPA                DATA
 0003:000000d0 00000004H .CRT$XPZ                DATA
 0003:000000d4 00000004H .CRT$XTA                DATA
 0003:000000d8 00000004H .CRT$XTZ                DATA
 0003:000000dc 00000009H .bss                    DATA
 0004:00000000 00000068H .pdata                  DATA

  Address         Publics by Value              Rva+Base     Lib:Object

 0000:00000000       ___safe_se_handler_count   00000000     <absolute>
 0000:00000000       ___safe_se_handler_table   00000000     <absolute>
 0001:00000000       main                       00011000 f   exptest.obj
 0001:000004f8       ERR_load_crypto_strings    000114f8 f   libeay32:LIBEAY32.dll
 0001:00000508       BIO_free                   00011508 f   libeay32:LIBEAY32.dll
 0001:00000518       CRYPTO_mem_leaks           00011518 f   libeay32:LIBEAY32.dll
 0001:00000528       ERR_remove_thread_state    00011528 f   libeay32:LIBEAY32.dll
 0001:00000538       BN_CTX_free                00011538 f   libeay32:LIBEAY32.dll
 0001:00000548       BN_free                    00011548 f   libeay32:LIBEAY32.dll
 0001:00000558       BN_print                   00011558 f   libeay32:LIBEAY32.dll
 0001:00000568       BN_num_bits                00011568 f   libeay32:LIBEAY32.dll
 0001:00000578       BN_cmp                     00011578 f   libeay32:LIBEAY32.dll
 0001:00000588       BN_mod_exp_mont_consttime  00011588 f   libeay32:LIBEAY32.dll
 0001:00000598       BN_mod_exp_simple          00011598 f   libeay32:LIBEAY32.dll
 0001:000005a8       BN_mod_exp_recp            000115a8 f   libeay32:LIBEAY32.dll
 0001:000005b8       ERR_print_errors           000115b8 f   libeay32:LIBEAY32.dll
 0001:000005c8       BN_mod_exp_mont            000115c8 f   libeay32:LIBEAY32.dll
 0001:000005d8       BN_div                     000115d8 f   libeay32:LIBEAY32.dll
 0001:000005e8       BN_rand                    000115e8 f   libeay32:LIBEAY32.dll
 0001:000005f8       RAND_bytes                 000115f8 f   libeay32:LIBEAY32.dll
 0001:00000608       BIO_ctrl                   00011608 f   libeay32:LIBEAY32.dll
 0001:00000618       BIO_new                    00011618 f   libeay32:LIBEAY32.dll
 0001:00000628       BIO_s_file                 00011628 f   libeay32:LIBEAY32.dll
 0001:00000638       BN_new                     00011638 f   libeay32:LIBEAY32.dll
 0001:00000648       BN_CTX_new                 00011648 f   libeay32:LIBEAY32.dll
 0001:00000658       ERR_load_BN_strings        00011658 f   libeay32:LIBEAY32.dll
 0001:00000668       RAND_seed                  00011668 f   libeay32:LIBEAY32.dll
 0001:00000678       fflush                     00011678 f   coredll:COREDLL.dll
 0001:00000688       printf                     00011688 f   coredll:COREDLL.dll
 0001:00000698       _getstdfilex               00011698 f   coredll:COREDLL.dll
 0001:000006a8       _cinit                     000116a8 f   corelibc:crt0dat.obj
 0001:00000818       exit                       00011818 f   corelibc:crt0dat.obj
 0001:00000838       WinMainCRTStartup          00011838 f   corelibc:pegwmain.obj
 0001:000008ac       WinMain                    000118ac f   wcecompatex:winmain.obj
 0001:00000c08       ?processCmdLine@@YAHPA_WPAPAPAD@Z 00011c08 f   wcecompatex:args.obj
 0001:00001044       ?unicode2ascii@@YAXPB_WPAD@Z 00012044 f   wcecompatex:ts_string.obj
 0001:00001098       ?ascii2unicode@@YAXPBDPA_WH@Z 00012098 f   wcecompatex:ts_string.obj
 0001:00001138       ?unicode2ascii@@YAXPB_WPADH@Z 00012138 f   wcecompatex:ts_string.obj
 0001:000011c8       LocalFree                  000121c8 f   coredll:COREDLL.dll
 0001:000011d8       _XcptFilter                000121d8 f   coredll:COREDLL.dll
 0001:000011e8       __C_specific_handler       000121e8 f   coredll:COREDLL.dll
 0001:000011f8       _isctype                   000121f8 f   coredll:COREDLL.dll
 0001:00001208       malloc                     00012208 f   coredll:COREDLL.dll
 0001:00001218       FindFirstFileW             00012218 f   coredll:COREDLL.dll
 0001:00001228       FindClose                  00012228 f   coredll:COREDLL.dll
 0001:00001238       FindNextFileW              00012238 f   coredll:COREDLL.dll
 0001:00001248       _stricmp                   00012248 f   coredll:COREDLL.dll
 0001:00001258       free                       00012258 f   coredll:COREDLL.dll
 0001:00001268       qsort                      00012268 f   coredll:COREDLL.dll
 0001:00001278       strrchr                    00012278 f   coredll:COREDLL.dll
 0001:00001288       strchr                     00012288 f   coredll:COREDLL.dll
 0001:00001298       realloc                    00012298 f   coredll:COREDLL.dll
 0001:000012a8       GetModuleFileNameW         000122a8 f   coredll:COREDLL.dll
 0001:000012b8       strncpy                    000122b8 f   coredll:COREDLL.dll
 0001:000012c8       strcpy                     000122c8 f   coredll:COREDLL.dll
 0001:000012d8       strlen                     000122d8 f   coredll:COREDLL.dll
 0002:00000040       ??_C@_06EKCDNFLM@?5done?6?$AA@ 00013040     exptest.obj
 0002:00000048       ??_C@_0L@BNPKAKBL@a?5?$CI?$CF3d?$CJ?5?$DN?5?$AA@ 00013048     exptest.obj
 0002:00000054       ??_C@_0M@HOHNPDPI@?6b?5?$CI?$CF3d?$CJ?5?$DN?5?$AA@ 00013054     exptest.obj
 0002:00000060       ??_C@_0M@ONIFAHDO@?6m?5?$CI?$CF3d?$CJ?5?$DN?5?$AA@ 00013060     exptest.obj
 0002:0000006c       ??_C@_0M@CCKALMG@?6simple?5?5?5?$DN?$AA@ 0001306c     exptest.obj
 0002:00000078       ??_C@_0M@MNGEGLMI@?6recp?5?5?5?5?5?$DN?$AA@ 00013078     exptest.obj
 0002:00000084       ??_C@_0M@JCENCCKB@?6mont?5?5?5?5?5?$DN?$AA@ 00013084     exptest.obj
 0002:00000090       ??_C@_0M@MMDCJDKK@?6mont_ct?5?5?$DN?$AA@ 00013090     exptest.obj
 0002:0000009c       ??_C@_01EEMJAFIK@?6?$AA@   0001309c     exptest.obj
 0002:000000a0       ??_C@_0CB@DBNNIAPA@?6simple?5and?5recp?5results?5differ?6@ 000130a0     exptest.obj
 0002:000000c4       ??_C@_0CM@OIINGDJK@?6simple?5and?5mont?5const?5time?5resu@ 000130c4     exptest.obj
 0002:000000f0       ??_C@_0CB@FNLKPKDF@?6simple?5and?5mont?5results?5differ?6@ 000130f0     exptest.obj
 0002:00000114       ??_C@_01LFCBOECM@?4?$AA@   00013114     exptest.obj
 0002:00000118       ??_C@_0CG@DBFFFBBB@BN_mod_exp_mont_consttime?$CI?$CJ?5prob@ 00013118     exptest.obj
 0002:00000140       ??_C@_0BO@FACLPCBM@BN_mod_exp_simple?$CI?$CJ?5problems?6?$AA@ 00013140     exptest.obj
 0002:00000160       ??_C@_0BM@KELHKBEE@BN_mod_exp_recp?$CI?$CJ?5problems?6?$AA@ 00013160     exptest.obj
 0002:0000017c       ??_C@_0BM@GEHFEMNH@BN_mod_exp_mont?$CI?$CJ?5problems?6?$AA@ 0001317c     exptest.obj
 0002:000001ac       __IMPORT_DESCRIPTOR_LIBEAY32 000131ac     libeay32:LIBEAY32.dll
 0002:000001c0       __IMPORT_DESCRIPTOR_COREDLL 000131c0     coredll:COREDLL.dll
 0002:000001d4       __NULL_IMPORT_DESCRIPTOR   000131d4     libeay32:LIBEAY32.dll
 0003:00000000       __imp_strlen               00014000     coredll:COREDLL.dll
 0003:00000004       __imp_strcpy               00014004     coredll:COREDLL.dll
 0003:00000008       __imp_strncpy              00014008     coredll:COREDLL.dll
 0003:0000000c       __imp_GetModuleFileNameW   0001400c     coredll:COREDLL.dll
 0003:00000010       __imp_realloc              00014010     coredll:COREDLL.dll
 0003:00000014       __imp_strchr               00014014     coredll:COREDLL.dll
 0003:00000018       __imp_strrchr              00014018     coredll:COREDLL.dll
 0003:0000001c       __imp_qsort                0001401c     coredll:COREDLL.dll
 0003:00000020       __imp_free                 00014020     coredll:COREDLL.dll
 0003:00000024       __imp__stricmp             00014024     coredll:COREDLL.dll
 0003:00000028       __imp_FindNextFileW        00014028     coredll:COREDLL.dll
 0003:0000002c       __imp_FindClose            0001402c     coredll:COREDLL.dll
 0003:00000030       __imp_FindFirstFileW       00014030     coredll:COREDLL.dll
 0003:00000034       __imp_malloc               00014034     coredll:COREDLL.dll
 0003:00000038       __imp__isctype             00014038     coredll:COREDLL.dll
 0003:0000003c       __imp___C_specific_handler 0001403c     coredll:COREDLL.dll
 0003:00000040       __imp__XcptFilter          00014040     coredll:COREDLL.dll
 0003:00000044       __imp_LocalFree            00014044     coredll:COREDLL.dll
 0003:00000048       __imp__getstdfilex         00014048     coredll:COREDLL.dll
 0003:0000004c       __imp_printf               0001404c     coredll:COREDLL.dll
 0003:00000050       __imp_fflush               00014050     coredll:COREDLL.dll
 0003:00000054       \177COREDLL_NULL_THUNK_DATA 00014054     coredll:COREDLL.dll
 0003:00000058       __imp_RAND_seed            00014058     libeay32:LIBEAY32.dll
 0003:0000005c       __imp_ERR_load_BN_strings  0001405c     libeay32:LIBEAY32.dll
 0003:00000060       __imp_BN_CTX_new           00014060     libeay32:LIBEAY32.dll
 0003:00000064       __imp_BN_new               00014064     libeay32:LIBEAY32.dll
 0003:00000068       __imp_BIO_s_file           00014068     libeay32:LIBEAY32.dll
 0003:0000006c       __imp_BIO_new              0001406c     libeay32:LIBEAY32.dll
 0003:00000070       __imp_BIO_ctrl             00014070     libeay32:LIBEAY32.dll
 0003:00000074       __imp_RAND_bytes           00014074     libeay32:LIBEAY32.dll
 0003:00000078       __imp_BN_rand              00014078     libeay32:LIBEAY32.dll
 0003:0000007c       __imp_BN_div               0001407c     libeay32:LIBEAY32.dll
 0003:00000080       __imp_BN_mod_exp_mont      00014080     libeay32:LIBEAY32.dll
 0003:00000084       __imp_ERR_print_errors     00014084     libeay32:LIBEAY32.dll
 0003:00000088       __imp_BN_mod_exp_recp      00014088     libeay32:LIBEAY32.dll
 0003:0000008c       __imp_BN_mod_exp_simple    0001408c     libeay32:LIBEAY32.dll
 0003:00000090       __imp_BN_mod_exp_mont_consttime 00014090     libeay32:LIBEAY32.dll
 0003:00000094       __imp_BN_cmp               00014094     libeay32:LIBEAY32.dll
 0003:00000098       __imp_BN_num_bits          00014098     libeay32:LIBEAY32.dll
 0003:0000009c       __imp_BN_print             0001409c     libeay32:LIBEAY32.dll
 0003:000000a0       __imp_BN_free              000140a0     libeay32:LIBEAY32.dll
 0003:000000a4       __imp_BN_CTX_free          000140a4     libeay32:LIBEAY32.dll
 0003:000000a8       __imp_ERR_remove_thread_state 000140a8     libeay32:LIBEAY32.dll
 0003:000000ac       __imp_CRYPTO_mem_leaks     000140ac     libeay32:LIBEAY32.dll
 0003:000000b0       __imp_BIO_free             000140b0     libeay32:LIBEAY32.dll
 0003:000000b4       __imp_ERR_load_crypto_strings 000140b4     libeay32:LIBEAY32.dll
 0003:000000b8       \177LIBEAY32_NULL_THUNK_DATA 000140b8     libeay32:LIBEAY32.dll
 0003:000000bc       __xc_a                     000140bc     corelibc:crt0init.obj
 0003:000000c0       __xc_z                     000140c0     corelibc:crt0init.obj
 0003:000000c4       __xi_a                     000140c4     corelibc:crt0init.obj
 0003:000000c8       __xi_z                     000140c8     corelibc:crt0init.obj
 0003:000000cc       __xp_a                     000140cc     corelibc:crt0init.obj
 0003:000000d0       __xp_z                     000140d0     corelibc:crt0init.obj
 0003:000000d4       __xt_a                     000140d4     corelibc:crt0init.obj
 0003:000000d8       __xt_z                     000140d8     corelibc:crt0init.obj
 0003:000000dc       __onexitend                000140dc     <common>
 0003:000000e0       __onexitbegin              000140e0     <common>
 0003:000000e4       _exitflag                  000140e4     <common>

 entry point at        0001:00000838

 Static symbols

 0001:00000714       doexit                     00011714 f   corelibc:crt0dat.obj
 0001:000008d0       ?getCmdLineArg@@YA?AW4ArgType@@PAPA_WPA_WHPAURedirArg@@PA_N@Z 000118d0 f   wcecompatex:args.obj
 0001:00000bfc       ?qsort_stricmp@@YAHPBX0@Z  00011bfc f   wcecompatex:args.obj
