 openssl

 Timestamp is 511c99a6 (Thu Feb 14 17:00:38 2013)

 Preferred load address is 00010000

 Start         Length     Name                   Class
 0001:00000000 0004031cH .text                   CODE
 0002:00000000 00014d60H .rdata                  DATA
 0002:00014d60 00000014H .xdata                  DATA
 0002:00014d74 00000064H .idata$2                DATA
 0002:00014dd8 00000014H .idata$3                DATA
 0002:00014dec 0000113cH .idata$4                DATA
 0002:00015f28 00000114H .idata$6                DATA
 0002:0001603c 00000000H .edata                  DATA
 0003:00000000 0000113cH .idata$5                DATA
 0003:0000113c 00000004H .CRT$XCA                DATA
 0003:00001140 00000004H .CRT$XCZ                DATA
 0003:00001144 00000004H .CRT$XIA                DATA
 0003:00001148 00000004H .CRT$XIZ                DATA
 0003:0000114c 00000004H .CRT$XPA                DATA
 0003:00001150 00000004H .CRT$XPZ                DATA
 0003:00001154 00000004H .CRT$XTA                DATA
 0003:00001158 00000004H .CRT$XTZ                DATA
 0003:00001160 000035f8H .data                   DATA
 0003:00004760 00004329H .bss                    DATA
 0004:00000000 00000910H .pdata                  DATA

  Address         Publics by Value              Rva+Base     Lib:Object

 0000:00000000       ___safe_se_handler_table   00000000     <absolute>
 0000:00000000       ___safe_se_handler_count   00000000     <absolute>
 0001:0000027c       verify_main                0001127c f   verify.obj
 0001:000009e4       asn1parse_main             000119e4 f   asn1pars.obj
 0001:00001930       do_X509_sign               00012930 f   req.obj
 0001:000019a8       do_X509_REQ_sign           000129a8 f   req.obj
 0001:00001a20       do_X509_CRL_sign           00012a20 f   req.obj
 0001:0000263c       req_main                   0001363c f   req.obj
 0001:00004370       do_fp                      00015370 f   dgst.obj
 0001:000045f4       dgst_main                  000155f4 f   dgst.obj
 0001:0000547c       dh_main                    0001647c f   dh.obj
 0001:00005c7c       dhparam_main               00016c7c f   dhparam.obj
 0001:00006824       set_hex                    00017824 f   enc.obj
 0001:00006918       enc_main                   00017918 f   enc.obj
 0001:00008398       passwd_main                00019398 f   passwd.obj
 0001:00008bc8       gendh_main                 00019bc8 f   gendh.obj
 0001:00008f6c       errstr_main                00019f6c f   errstr.obj
 0001:0000946c       make_revocation_str        0001a46c f   ca.obj
 0001:00009658       old_entry_print            0001a658 f   ca.obj
 0001:000097cc       unpack_revinfo             0001a7cc f   ca.obj
 0001:0000aef8       make_revoked               0001bef8 f   ca.obj
 0001:0000b490       ca_main                    0001c490 f   ca.obj
 0001:0000dc88       pkcs7_main                 0001ec88 f   pkcs7.obj
 0001:0000e3ac       crl2pkcs7_main             0001f3ac f   crl2p7.obj
 0001:0000e9e8       crl_main                   0001f9e8 f   crl.obj
 0001:0000f328       rsa_main                   00020328 f   rsa.obj
 0001:0000ff2c       rsautl_main                00020f2c f   rsautl.obj
 0001:00010788       dsa_main                   00021788 f   dsa.obj
 0001:000110c8       dsaparam_main              000220c8 f   dsaparam.obj
 0001:00011ac4       ec_main                    00022ac4 f   ec.obj
 0001:000124c0       ecparam_main               000234c0 f   ecparam.obj
 0001:00013c58       x509_main                  00024c58 f   x509.obj
 0001:00015cf0       genrsa_main                00026cf0 f   genrsa.obj
 0001:000163f8       gendsa_main                000273f8 f   gendsa.obj
 0001:00016b54       init_gen_str               00027b54 f   genpkey.obj
 0001:00016d28       genpkey_main               00027d28 f   genpkey.obj
 0001:00019a0c       s_server_main              0002aa0c f   s_server.obj
 0001:0001ca94       s_client_main              0002da94 f   s_client.obj
 0001:0001f0e8       get_dsa512                 000300e8 f   speed.obj
 0001:0001f1bc       get_dsa1024                000301bc f   speed.obj
 0001:0001f290       get_dsa2048                00030290 f   speed.obj
 0001:0001f678       speed_main                 00030678 f   speed.obj
 0001:00024258       s_time_main                00035258 f   s_time.obj
 0001:00024a10       str2fmt                    00035a10 f   apps.obj
 0001:00024b78       program_name               00035b78 f   apps.obj
 0001:00024c80       chopup_args                00035c80 f   apps.obj
 0001:00024e64       dump_cert_text             00035e64 f   apps.obj
 0001:00025078       setup_ui_method            00036078 f   apps.obj
 0001:000250e0       destroy_ui_method          000360e0 f   apps.obj
 0001:0002510c       password_callback          0003610c f   apps.obj
 0001:000254dc       add_oid_section            000364dc f   apps.obj
 0001:00025700       load_cert                  00036700 f   apps.obj
 0001:00025c50       load_certs                 00036c50 f   apps.obj
 0001:00025c94       load_crls                  00036c94 f   apps.obj
 0001:00025cd8       set_ext_copy               00036cd8 f   apps.obj
 0001:00025d54       copy_extensions            00036d54 f   apps.obj
 0001:00025e74       print_name                 00036e74 f   apps.obj
 0001:00025f24       setup_verify               00036f24 f   apps.obj
 0001:00026028       setup_engine               00037028 f   apps.obj
 0001:000261d4       load_config                000371d4 f   apps.obj
 0001:00026264       make_config_name           00037264 f   apps.obj
 0001:000262ec       index_name_cmp             000372ec f   apps.obj
 0001:00026398       save_serial                00037398 f   apps.obj
 0001:000264fc       rand_serial                000374fc f   apps.obj
 0001:0002657c       index_index                0003757c f   apps.obj
 0001:00026664       save_index                 00037664 f   apps.obj
 0001:00026804       free_index                 00037804 f   apps.obj
 0001:00026830       parse_yesno                00037830 f   apps.obj
 0001:000268b0       parse_name                 000378b0 f   apps.obj
 0001:00026bf4       args_verify                00037bf4 f   apps.obj
 0001:0002700c       bio_to_mem                 0003800c f   apps.obj
 0001:000270c8       pkey_ctrl_string           000380c8 f   apps.obj
 0001:000271b8       policies_print             000381b8 f   apps.obj
 0001:00027268       next_protos_parse          00038268 f   apps.obj
 0001:000274a8       app_tminterval             000384a8 f   apps.obj
 0001:0002759c       app_isdir                  0003859c f   apps.obj
 0001:00027644       raw_read_stdin             00038644 f   apps.obj
 0001:00027670       raw_write_stdout           00038670 f   apps.obj
 0001:0002769c       app_passwd                 0003869c f   apps.obj
 0001:00027768       load_key                   00038768 f   apps.obj
 0001:000279f4       load_pubkey                000389f4 f   apps.obj
 0001:00027d4c       load_serial                00038d4c f   apps.obj
 0001:00027e94       rotate_serial              00038e94 f   apps.obj
 0001:00028008       load_index                 00039008 f   apps.obj
 0001:000281b8       rotate_index               000391b8 f   apps.obj
 0001:00028444       set_cert_ex                00039444 f   apps.obj
 0001:0002845c       set_name_ex                0003945c f   apps.obj
 0001:00028474       verify_callback            00039474 f   s_cb.obj
 0001:0002865c       set_cert_stuff             0003965c f   s_cb.obj
 0001:0002871c       set_cert_key_stuff         0003971c f   s_cb.obj
 0001:000287c0       bio_dump_callback          000397c0 f   s_cb.obj
 0001:00028864       apps_ssl_info_callback     00039864 f   s_cb.obj
 0001:0002896c       msg_cb                     0003996c f   s_cb.obj
 0001:00029074       tlsext_cb                  0003a074 f   s_cb.obj
 0001:00029220       generate_cookie_callback   0003a220 f   s_cb.obj
 0001:000293b0       verify_cookie_callback     0003a3b0 f   s_cb.obj
 0001:000296d0       extract_port               0003a6d0 f   s_socket.obj
 0001:00029ae4       init_client                0003aae4 f   s_socket.obj
 0001:00029b44       do_server                  0003ab44 f   s_socket.obj
 0001:00029d1c       extract_host_port          0003ad1c f   s_socket.obj
 0001:00029dbc       app_RAND_load_file         0003adbc f   app_rand.obj
 0001:00029ef8       app_RAND_write_file        0003aef8 f   app_rand.obj
 0001:00029f70       app_RAND_load_files        0003af70 f   app_rand.obj
 0001:0002a010       version_main               0003b010 f   version.obj
 0001:0002a414       sess_id_main               0003b414 f   sess_id.obj
 0001:0002a86c       ciphers_main               0003b86c f   ciphers.obj
 0001:0002ac0c       nseq_main                  0003bc0c f   nseq.obj
 0001:0002af2c       dump_certs_pkeys_bags      0003bf2c f   pkcs12.obj
 0001:0002afbc       get_cert_chain             0003bfbc f   pkcs12.obj
 0001:0002b028       alg_print                  0003c028 f   pkcs12.obj
 0001:0002b0b0       hex_prin                   0003c0b0 f   pkcs12.obj
 0001:0002b0f4       dump_certs_keys_p12        0003c0f4 f   pkcs12.obj
 0001:0002b250       print_attribs              0003c250 f   pkcs12.obj
 0001:0002b3f8       pkcs12_main                0003c3f8 f   pkcs12.obj
 0001:0002c8cc       dump_certs_pkeys_bag       0003d8cc f   pkcs12.obj
 0001:0002cbb0       pkcs8_main                 0003dbb0 f   pkcs8.obj
 0001:0002d520       pkey_main                  0003e520 f   pkey.obj
 0001:0002dae8       pkeyparam_main             0003eae8 f   pkeyparam.obj
 0001:0002e310       pkeyutl_main               0003f310 f   pkeyutl.obj
 0001:0002ebc8       spkac_main                 0003fbc8 f   spkac.obj
 0001:0002f344       smime_main                 00040344 f   smime.obj
 0001:00031028       cms_main                   00042028 f   cms.obj
 0001:00033600       rand_main                  00044600 f   rand.obj
 0001:0003406c       engine_main                0004506c f   engine.obj
 0001:00034f64       process_responder          00045f64 f   ocsp.obj
 0001:000353a4       ocsp_main                  000463a4 f   ocsp.obj
 0001:00036de8       prime_main                 00047de8 f   prime.obj
 0001:0003817c       ts_main                    0004917c f   ts.obj
 0001:00038f00       srp_main                   00049f00 f   srp.obj
 0001:0003a774       main                       0004b774 f   openssl.obj
 0001:0003ac44       SSL_load_error_strings     0004bc44 f   ssleay32:SSLEAY32.dll
 0001:0003ac54       SSL_set_srp_server_param   0004bc54 f   ssleay32:SSLEAY32.dll
 0001:0003ac64       SSL_get_srp_username       0004bc64 f   ssleay32:SSLEAY32.dll
 0001:0003ac74       SSL_set_SSL_CTX            0004bc74 f   ssleay32:SSLEAY32.dll
 0001:0003ac84       SSL_get_servername         0004bc84 f   ssleay32:SSLEAY32.dll
 0001:0003ac94       SSL_ctrl                   0004bc94 f   ssleay32:SSLEAY32.dll
 0001:0003aca4       SSL_CTX_get_cert_store     0004bca4 f   ssleay32:SSLEAY32.dll
 0001:0003acb4       SSL_get_SSL_CTX            0004bcb4 f   ssleay32:SSLEAY32.dll
 0001:0003acc4       SSL_get_certificate        0004bcc4 f   ssleay32:SSLEAY32.dll
 0001:0003acd4       SSL_CTX_ctrl               0004bcd4 f   ssleay32:SSLEAY32.dll
 0001:0003ace4       SSL_export_keying_material 0004bce4 f   ssleay32:SSLEAY32.dll
 0001:0003acf4       SSL_cache_hit              0004bcf4 f   ssleay32:SSLEAY32.dll
 0001:0003ad04       SSL_get_selected_srtp_profile 0004bd04 f   ssleay32:SSLEAY32.dll
 0001:0003ad14       SSL_get0_next_proto_negotiated 0004bd14 f   ssleay32:SSLEAY32.dll
 0001:0003ad24       SSL_CIPHER_get_name        0004bd24 f   ssleay32:SSLEAY32.dll
 0001:0003ad34       SSL_get_current_cipher     0004bd34 f   ssleay32:SSLEAY32.dll
 0001:0003ad44       SSL_get_shared_ciphers     0004bd44 f   ssleay32:SSLEAY32.dll
 0001:0003ad54       SSL_get_peer_certificate   0004bd54 f   ssleay32:SSLEAY32.dll
 0001:0003ad64       PEM_write_bio_SSL_SESSION  0004bd64 f   ssleay32:SSLEAY32.dll
 0001:0003ad74       SSL_get_session            0004bd74 f   ssleay32:SSLEAY32.dll
 0001:0003ad84       SSL_get_verify_result      0004bd84 f   ssleay32:SSLEAY32.dll
 0001:0003ad94       SSL_get_error              0004bd94 f   ssleay32:SSLEAY32.dll
 0001:0003ada4       SSL_accept                 0004bda4 f   ssleay32:SSLEAY32.dll
 0001:0003adb4       SSL_set_shutdown           0004bdb4 f   ssleay32:SSLEAY32.dll
 0001:0003adc4       SSL_SESSION_print          0004bdc4 f   ssleay32:SSLEAY32.dll
 0001:0003add4       SSL_CIPHER_get_version     0004bdd4 f   ssleay32:SSLEAY32.dll
 0001:0003ade4       SSL_get_ciphers            0004bde4 f   ssleay32:SSLEAY32.dll
 0001:0003adf4       SSL_write                  0004bdf4 f   ssleay32:SSLEAY32.dll
 0001:0003ae04       SSL_renegotiate            0004be04 f   ssleay32:SSLEAY32.dll
 0001:0003ae14       SSL_set_msg_callback       0004be14 f   ssleay32:SSLEAY32.dll
 0001:0003ae24       SSL_get_rbio               0004be24 f   ssleay32:SSLEAY32.dll
 0001:0003ae34       SSL_set_debug              0004be34 f   ssleay32:SSLEAY32.dll
 0001:0003ae44       SSL_set_accept_state       0004be44 f   ssleay32:SSLEAY32.dll
 0001:0003ae54       SSL_set_bio                0004be54 f   ssleay32:SSLEAY32.dll
 0001:0003ae64       SSL_set_session_id_context 0004be64 f   ssleay32:SSLEAY32.dll
 0001:0003ae74       SSL_callback_ctrl          0004be74 f   ssleay32:SSLEAY32.dll
 0001:0003ae84       SSL_new                    0004be84 f   ssleay32:SSLEAY32.dll
 0001:0003ae94       BIO_f_ssl                  0004be94 f   ssleay32:SSLEAY32.dll
 0001:0003aea4       SSL_has_matching_session_id 0004bea4 f   ssleay32:SSLEAY32.dll
 0001:0003aeb4       SSL_free                   0004beb4 f   ssleay32:SSLEAY32.dll
 0001:0003aec4       SSL_read                   0004bec4 f   ssleay32:SSLEAY32.dll
 0001:0003aed4       SSL_state                  0004bed4 f   ssleay32:SSLEAY32.dll
 0001:0003aee4       SSL_get_wbio               0004bee4 f   ssleay32:SSLEAY32.dll
 0001:0003aef4       SSL_do_handshake           0004bef4 f   ssleay32:SSLEAY32.dll
 0001:0003af04       SSL_set_verify             0004bf04 f   ssleay32:SSLEAY32.dll
 0001:0003af14       SSL_pending                0004bf14 f   ssleay32:SSLEAY32.dll
 0001:0003af24       SSL_version                0004bf24 f   ssleay32:SSLEAY32.dll
 0001:0003af34       SSL_clear                  0004bf34 f   ssleay32:SSLEAY32.dll
 0001:0003af44       SSL_CTX_callback_ctrl      0004bf44 f   ssleay32:SSLEAY32.dll
 0001:0003af54       SSL_CTX_free               0004bf54 f   ssleay32:SSLEAY32.dll
 0001:0003af64       SSL_CTX_set_client_CA_list 0004bf64 f   ssleay32:SSLEAY32.dll
 0001:0003af74       SSL_load_client_CA_file    0004bf74 f   ssleay32:SSLEAY32.dll
 0001:0003af84       SSL_CTX_set_srp_username_callback 0004bf84 f   ssleay32:SSLEAY32.dll
 0001:0003af94       SSL_CTX_set_srp_cb_arg     0004bf94 f   ssleay32:SSLEAY32.dll
 0001:0003afa4       SSL_CTX_set_cookie_verify_cb 0004bfa4 f   ssleay32:SSLEAY32.dll
 0001:0003afb4       SSL_CTX_set_cookie_generate_cb 0004bfb4 f   ssleay32:SSLEAY32.dll
 0001:0003afc4       SSL_CTX_set_session_id_context 0004bfc4 f   ssleay32:SSLEAY32.dll
 0001:0003afd4       SSL_CTX_set_verify         0004bfd4 f   ssleay32:SSLEAY32.dll
 0001:0003afe4       SSL_CTX_set_cipher_list    0004bfe4 f   ssleay32:SSLEAY32.dll
 0001:0003aff4       SSL_CTX_use_psk_identity_hint 0004bff4 f   ssleay32:SSLEAY32.dll
 0001:0003b004       SSL_CTX_set_psk_server_callback 0004c004 f   ssleay32:SSLEAY32.dll
 0001:0003b014       SSL_CTX_set_tmp_rsa_callback 0004c014 f   ssleay32:SSLEAY32.dll
 0001:0003b024       SSL_CTX_set_next_protos_advertised_cb 0004c024 f   ssleay32:SSLEAY32.dll
 0001:0003b034       SSL_CTX_set1_param         0004c034 f   ssleay32:SSLEAY32.dll
 0001:0003b044       SSL_CTX_set_default_verify_paths 0004c044 f   ssleay32:SSLEAY32.dll
 0001:0003b054       SSL_CTX_load_verify_locations 0004c054 f   ssleay32:SSLEAY32.dll
 0001:0003b064       SSL_CTX_set_tlsext_use_srtp 0004c064 f   ssleay32:SSLEAY32.dll
 0001:0003b074       SSL_CTX_set_info_callback  0004c074 f   ssleay32:SSLEAY32.dll
 0001:0003b084       SSL_CTX_set_quiet_shutdown 0004c084 f   ssleay32:SSLEAY32.dll
 0001:0003b094       SSL_CTX_set_generate_session_id 0004c094 f   ssleay32:SSLEAY32.dll
 0001:0003b0a4       SSL_CTX_new                0004c0a4 f   ssleay32:SSLEAY32.dll
 0001:0003b0b4       DTLSv1_server_method       0004c0b4 f   ssleay32:SSLEAY32.dll
 0001:0003b0c4       TLSv1_2_server_method      0004c0c4 f   ssleay32:SSLEAY32.dll
 0001:0003b0d4       TLSv1_1_server_method      0004c0d4 f   ssleay32:SSLEAY32.dll
 0001:0003b0e4       SSLv3_server_method        0004c0e4 f   ssleay32:SSLEAY32.dll
 0001:0003b0f4       SSLv2_server_method        0004c0f4 f   ssleay32:SSLEAY32.dll
 0001:0003b104       TLSv1_server_method        0004c104 f   ssleay32:SSLEAY32.dll
 0001:0003b114       SSL_library_init           0004c114 f   ssleay32:SSLEAY32.dll
 0001:0003b124       SSLv23_server_method       0004c124 f   ssleay32:SSLEAY32.dll
 0001:0003b134       SSL_get_servername_type    0004c134 f   ssleay32:SSLEAY32.dll
 0001:0003b144       SSL_get_srp_g              0004c144 f   ssleay32:SSLEAY32.dll
 0001:0003b154       SSL_get_srp_N              0004c154 f   ssleay32:SSLEAY32.dll
 0001:0003b164       SSL_select_next_proto      0004c164 f   ssleay32:SSLEAY32.dll
 0001:0003b174       SSL_COMP_get_name          0004c174 f   ssleay32:SSLEAY32.dll
 0001:0003b184       SSL_get_current_expansion  0004c184 f   ssleay32:SSLEAY32.dll
 0001:0003b194       SSL_get_current_compression 0004c194 f   ssleay32:SSLEAY32.dll
 0001:0003b1a4       SSL_get_client_CA_list     0004c1a4 f   ssleay32:SSLEAY32.dll
 0001:0003b1b4       SSL_get_peer_cert_chain    0004c1b4 f   ssleay32:SSLEAY32.dll
 0001:0003b1c4       SSL_shutdown               0004c1c4 f   ssleay32:SSLEAY32.dll
 0001:0003b1d4       SSL_get_fd                 0004c1d4 f   ssleay32:SSLEAY32.dll
 0001:0003b1e4       SSL_set_connect_state      0004c1e4 f   ssleay32:SSLEAY32.dll
 0001:0003b1f4       SSL_SESSION_free           0004c1f4 f   ssleay32:SSLEAY32.dll
 0001:0003b204       SSL_set_session            0004c204 f   ssleay32:SSLEAY32.dll
 0001:0003b214       PEM_read_bio_SSL_SESSION   0004c214 f   ssleay32:SSLEAY32.dll
 0001:0003b224       SSL_CTX_set_srp_verify_param_callback 0004c224 f   ssleay32:SSLEAY32.dll
 0001:0003b234       SSL_CTX_set_srp_strength   0004c234 f   ssleay32:SSLEAY32.dll
 0001:0003b244       SSL_CTX_set_srp_client_pwd_callback 0004c244 f   ssleay32:SSLEAY32.dll
 0001:0003b254       SSL_CTX_set_srp_username   0004c254 f   ssleay32:SSLEAY32.dll
 0001:0003b264       SSL_CTX_set_next_proto_select_cb 0004c264 f   ssleay32:SSLEAY32.dll
 0001:0003b274       SSL_CTX_set_psk_client_callback 0004c274 f   ssleay32:SSLEAY32.dll
 0001:0003b284       SSL_CTX_set_client_cert_engine 0004c284 f   ssleay32:SSLEAY32.dll
 0001:0003b294       DTLSv1_client_method       0004c294 f   ssleay32:SSLEAY32.dll
 0001:0003b2a4       TLSv1_1_client_method      0004c2a4 f   ssleay32:SSLEAY32.dll
 0001:0003b2b4       TLSv1_2_client_method      0004c2b4 f   ssleay32:SSLEAY32.dll
 0001:0003b2c4       SSLv3_client_method        0004c2c4 f   ssleay32:SSLEAY32.dll
 0001:0003b2d4       SSLv2_client_method        0004c2d4 f   ssleay32:SSLEAY32.dll
 0001:0003b2e4       TLSv1_client_method        0004c2e4 f   ssleay32:SSLEAY32.dll
 0001:0003b2f4       SSLv23_client_method       0004c2f4 f   ssleay32:SSLEAY32.dll
 0001:0003b304       SSL_connect                0004c304 f   ssleay32:SSLEAY32.dll
 0001:0003b314       SSL_CTX_check_private_key  0004c314 f   ssleay32:SSLEAY32.dll
 0001:0003b324       SSL_CTX_use_PrivateKey_file 0004c324 f   ssleay32:SSLEAY32.dll
 0001:0003b334       SSL_CTX_use_certificate_file 0004c334 f   ssleay32:SSLEAY32.dll
 0001:0003b344       SSL_CTX_use_PrivateKey     0004c344 f   ssleay32:SSLEAY32.dll
 0001:0003b354       SSL_CTX_use_certificate    0004c354 f   ssleay32:SSLEAY32.dll
 0001:0003b364       SSL_alert_type_string_long 0004c364 f   ssleay32:SSLEAY32.dll
 0001:0003b374       SSL_alert_desc_string_long 0004c374 f   ssleay32:SSLEAY32.dll
 0001:0003b384       SSL_state_string_long      0004c384 f   ssleay32:SSLEAY32.dll
 0001:0003b394       SSL_SESSION_new            0004c394 f   ssleay32:SSLEAY32.dll
 0001:0003b3a4       d2i_SSL_SESSION            0004c3a4 f   ssleay32:SSLEAY32.dll
 0001:0003b3b4       i2d_SSL_SESSION            0004c3b4 f   ssleay32:SSLEAY32.dll
 0001:0003b3c4       SSL_SESSION_set1_id_context 0004c3c4 f   ssleay32:SSLEAY32.dll
 0001:0003b3d4       SSL_SESSION_get0_peer      0004c3d4 f   ssleay32:SSLEAY32.dll
 0001:0003b3e4       SSL_CIPHER_description     0004c3e4 f   ssleay32:SSLEAY32.dll
 0001:0003b3f4       SSL_CIPHER_get_id          0004c3f4 f   ssleay32:SSLEAY32.dll
 0001:0003b404       SSL_get_cipher_list        0004c404 f   ssleay32:SSLEAY32.dll
 0001:0003b414       BIO_new_ssl                0004c414 f   ssleay32:SSLEAY32.dll
 0001:0003b424       X509_STORE_CTX_free        0004c424 f   libeay32:LIBEAY32.dll
 0001:0003b434       X509_verify_cert           0004c434 f   libeay32:LIBEAY32.dll
 0001:0003b444       X509_STORE_CTX_set0_crls   0004c444 f   libeay32:LIBEAY32.dll
 0001:0003b454       X509_STORE_CTX_trusted_stack 0004c454 f   libeay32:LIBEAY32.dll
 0001:0003b464       X509_free                  0004c464 f   libeay32:LIBEAY32.dll
 0001:0003b474       ERR_print_errors           0004c474 f   libeay32:LIBEAY32.dll
 0001:0003b484       X509_STORE_CTX_init        0004c484 f   libeay32:LIBEAY32.dll
 0001:0003b494       X509_STORE_set_flags       0004c494 f   libeay32:LIBEAY32.dll
 0001:0003b4a4       X509_STORE_CTX_new         0004c4a4 f   libeay32:LIBEAY32.dll
 0001:0003b4b4       ERR_clear_error            0004c4b4 f   libeay32:LIBEAY32.dll
 0001:0003b4c4       X509_STORE_CTX_get0_parent_ctx 0004c4c4 f   libeay32:LIBEAY32.dll
 0001:0003b4d4       X509_STORE_CTX_get_error_depth 0004c4d4 f   libeay32:LIBEAY32.dll
 0001:0003b4e4       X509_verify_cert_error_string 0004c4e4 f   libeay32:LIBEAY32.dll
 0001:0003b4f4       X509_NAME_print_ex_fp      0004c4f4 f   libeay32:LIBEAY32.dll
 0001:0003b504       X509_get_subject_name      0004c504 f   libeay32:LIBEAY32.dll
 0001:0003b514       X509_STORE_CTX_get_current_cert 0004c514 f   libeay32:LIBEAY32.dll
 0001:0003b524       X509_STORE_CTX_get_error   0004c524 f   libeay32:LIBEAY32.dll
 0001:0003b534       X509_CRL_free              0004c534 f   libeay32:LIBEAY32.dll
 0001:0003b544       sk_pop_free                0004c544 f   libeay32:LIBEAY32.dll
 0001:0003b554       X509_STORE_free            0004c554 f   libeay32:LIBEAY32.dll
 0001:0003b564       X509_VERIFY_PARAM_free     0004c564 f   libeay32:LIBEAY32.dll
 0001:0003b574       X509_PURPOSE_get0_sname    0004c574 f   libeay32:LIBEAY32.dll
 0001:0003b584       X509_PURPOSE_get0_name     0004c584 f   libeay32:LIBEAY32.dll
 0001:0003b594       X509_PURPOSE_get0          0004c594 f   libeay32:LIBEAY32.dll
 0001:0003b5a4       X509_PURPOSE_get_count     0004c5a4 f   libeay32:LIBEAY32.dll
 0001:0003b5b4       X509_LOOKUP_hash_dir       0004c5b4 f   libeay32:LIBEAY32.dll
 0001:0003b5c4       BIO_printf                 0004c5c4 f   libeay32:LIBEAY32.dll
 0001:0003b5d4       X509_LOOKUP_ctrl           0004c5d4 f   libeay32:LIBEAY32.dll
 0001:0003b5e4       X509_STORE_add_lookup      0004c5e4 f   libeay32:LIBEAY32.dll
 0001:0003b5f4       X509_LOOKUP_file           0004c5f4 f   libeay32:LIBEAY32.dll
 0001:0003b604       X509_STORE_set1_param      0004c604 f   libeay32:LIBEAY32.dll
 0001:0003b614       BIO_ctrl                   0004c614 f   libeay32:LIBEAY32.dll
 0001:0003b624       BIO_new                    0004c624 f   libeay32:LIBEAY32.dll
 0001:0003b634       BIO_s_file                 0004c634 f   libeay32:LIBEAY32.dll
 0001:0003b644       ERR_load_crypto_strings    0004c644 f   libeay32:LIBEAY32.dll
 0001:0003b654       X509_STORE_set_verify_cb   0004c654 f   libeay32:LIBEAY32.dll
 0001:0003b664       X509_STORE_new             0004c664 f   libeay32:LIBEAY32.dll
 0001:0003b674       ASN1_TYPE_free             0004c674 f   libeay32:LIBEAY32.dll
 0001:0003b684       BUF_MEM_grow               0004c684 f   libeay32:LIBEAY32.dll
 0001:0003b694       i2d_ASN1_TYPE              0004c694 f   libeay32:LIBEAY32.dll
 0001:0003b6a4       NCONF_free                 0004c6a4 f   libeay32:LIBEAY32.dll
 0001:0003b6b4       ASN1_generate_nconf        0004c6b4 f   libeay32:LIBEAY32.dll
 0001:0003b6c4       NCONF_get_string           0004c6c4 f   libeay32:LIBEAY32.dll
 0001:0003b6d4       NCONF_load                 0004c6d4 f   libeay32:LIBEAY32.dll
 0001:0003b6e4       NCONF_new                  0004c6e4 f   libeay32:LIBEAY32.dll
 0001:0003b6f4       ASN1_parse_dump            0004c6f4 f   libeay32:LIBEAY32.dll
 0001:0003b704       BIO_write                  0004c704 f   libeay32:LIBEAY32.dll
 0001:0003b714       ASN1_TYPE_get              0004c714 f   libeay32:LIBEAY32.dll
 0001:0003b724       d2i_ASN1_TYPE              0004c724 f   libeay32:LIBEAY32.dll
 0001:0003b734       sk_value                   0004c734 f   libeay32:LIBEAY32.dll
 0001:0003b744       sk_num                     0004c744 f   libeay32:LIBEAY32.dll
 0001:0003b754       BIO_read                   0004c754 f   libeay32:LIBEAY32.dll
 0001:0003b764       BIO_push                   0004c764 f   libeay32:LIBEAY32.dll
 0001:0003b774       BIO_f_base64               0004c774 f   libeay32:LIBEAY32.dll
 0001:0003b784       BUF_MEM_new                0004c784 f   libeay32:LIBEAY32.dll
 0001:0003b794       BIO_new_file               0004c794 f   libeay32:LIBEAY32.dll
 0001:0003b7a4       OBJ_create_objects         0004c7a4 f   libeay32:LIBEAY32.dll
 0001:0003b7b4       OBJ_cleanup                0004c7b4 f   libeay32:LIBEAY32.dll
 0001:0003b7c4       sk_free                    0004c7c4 f   libeay32:LIBEAY32.dll
 0001:0003b7d4       BUF_MEM_free               0004c7d4 f   libeay32:LIBEAY32.dll
 0001:0003b7e4       BIO_free_all               0004c7e4 f   libeay32:LIBEAY32.dll
 0001:0003b7f4       BIO_free                   0004c7f4 f   libeay32:LIBEAY32.dll
 0001:0003b804       sk_push                    0004c804 f   libeay32:LIBEAY32.dll
 0001:0003b814       sk_new_null                0004c814 f   libeay32:LIBEAY32.dll
 0001:0003b824       X509_NAME_free             0004c824 f   libeay32:LIBEAY32.dll
 0001:0003b834       X509_REQ_set_subject_name  0004c834 f   libeay32:LIBEAY32.dll
 0001:0003b844       X509_REQ_add1_attr_by_txt  0004c844 f   libeay32:LIBEAY32.dll
 0001:0003b854       X509_NAME_entry_count      0004c854 f   libeay32:LIBEAY32.dll
 0001:0003b864       X509_NAME_add_entry_by_txt 0004c864 f   libeay32:LIBEAY32.dll
 0001:0003b874       EVP_PKEY_CTX_free          0004c874 f   libeay32:LIBEAY32.dll
 0001:0003b884       EVP_PKEY_CTX_ctrl          0004c884 f   libeay32:LIBEAY32.dll
 0001:0003b894       EVP_PKEY_keygen_init       0004c894 f   libeay32:LIBEAY32.dll
 0001:0003b8a4       EVP_PKEY_CTX_new_id        0004c8a4 f   libeay32:LIBEAY32.dll
 0001:0003b8b4       EVP_PKEY_bits              0004c8b4 f   libeay32:LIBEAY32.dll
 0001:0003b8c4       EVP_PKEY_CTX_new           0004c8c4 f   libeay32:LIBEAY32.dll
 0001:0003b8d4       BUF_strdup                 0004c8d4 f   libeay32:LIBEAY32.dll
 0001:0003b8e4       EVP_PKEY_free              0004c8e4 f   libeay32:LIBEAY32.dll
 0001:0003b8f4       EVP_PKEY_base_id           0004c8f4 f   libeay32:LIBEAY32.dll
 0001:0003b904       EVP_PKEY_id                0004c904 f   libeay32:LIBEAY32.dll
 0001:0003b914       X509_get_pubkey            0004c914 f   libeay32:LIBEAY32.dll
 0001:0003b924       PEM_read_bio_X509          0004c924 f   libeay32:LIBEAY32.dll
 0001:0003b934       PEM_read_bio_Parameters    0004c934 f   libeay32:LIBEAY32.dll
 0001:0003b944       ENGINE_finish              0004c944 f   libeay32:LIBEAY32.dll
 0001:0003b954       EVP_PKEY_asn1_get0_info    0004c954 f   libeay32:LIBEAY32.dll
 0001:0003b964       EVP_PKEY_asn1_find_str     0004c964 f   libeay32:LIBEAY32.dll
 0001:0003b974       BIO_puts                   0004c974 f   libeay32:LIBEAY32.dll
 0001:0003b984       EVP_PKEY_asn1_find         0004c984 f   libeay32:LIBEAY32.dll
 0001:0003b994       EVP_PKEY_CTX_get_keygen_info 0004c994 f   libeay32:LIBEAY32.dll
 0001:0003b9a4       EVP_PKEY_CTX_get_app_data  0004c9a4 f   libeay32:LIBEAY32.dll
 0001:0003b9b4       EVP_DigestSignInit         0004c9b4 f   libeay32:LIBEAY32.dll
 0001:0003b9c4       EVP_MD_CTX_init            0004c9c4 f   libeay32:LIBEAY32.dll
 0001:0003b9d4       EVP_MD_CTX_cleanup         0004c9d4 f   libeay32:LIBEAY32.dll
 0001:0003b9e4       X509_sign_ctx              0004c9e4 f   libeay32:LIBEAY32.dll
 0001:0003b9f4       X509_REQ_sign_ctx          0004c9f4 f   libeay32:LIBEAY32.dll
 0001:0003ba04       X509_CRL_sign_ctx          0004ca04 f   libeay32:LIBEAY32.dll
 0001:0003ba14       X509_NAME_add_entry_by_NID 0004ca14 f   libeay32:LIBEAY32.dll
 0001:0003ba24       BUF_strlcat                0004ca24 f   libeay32:LIBEAY32.dll
 0001:0003ba34       BUF_strlcpy                0004ca34 f   libeay32:LIBEAY32.dll
 0001:0003ba44       X509_REQ_add1_attr_by_NID  0004ca44 f   libeay32:LIBEAY32.dll
 0001:0003ba54       NCONF_get_number_e         0004ca54 f   libeay32:LIBEAY32.dll
 0001:0003ba64       BIO_snprintf               0004ca64 f   libeay32:LIBEAY32.dll
 0001:0003ba74       OBJ_txt2nid                0004ca74 f   libeay32:LIBEAY32.dll
 0001:0003ba84       X509_REQ_set_pubkey        0004ca84 f   libeay32:LIBEAY32.dll
 0001:0003ba94       X509_REQ_set_version       0004ca94 f   libeay32:LIBEAY32.dll
 0001:0003baa4       NCONF_get_section          0004caa4 f   libeay32:LIBEAY32.dll
 0001:0003bab4       ASN1_INTEGER_free          0004cab4 f   libeay32:LIBEAY32.dll
 0001:0003bac4       X509_REQ_free              0004cac4 f   libeay32:LIBEAY32.dll
 0001:0003bad4       CRYPTO_free                0004cad4 f   libeay32:LIBEAY32.dll
 0001:0003bae4       ENGINE_free                0004cae4 f   libeay32:LIBEAY32.dll
 0001:0003baf4       PEM_write_bio_X509         0004caf4 f   libeay32:LIBEAY32.dll
 0001:0003bb04       i2d_X509_bio               0004cb04 f   libeay32:LIBEAY32.dll
 0001:0003bb14       PEM_write_bio_X509_REQ     0004cb14 f   libeay32:LIBEAY32.dll
 0001:0003bb24       PEM_write_bio_X509_REQ_NEW 0004cb24 f   libeay32:LIBEAY32.dll
 0001:0003bb34       i2d_X509_REQ_bio           0004cb34 f   libeay32:LIBEAY32.dll
 0001:0003bb44       BN_print                   0004cb44 f   libeay32:LIBEAY32.dll
 0001:0003bb54       X509_REQ_print_ex          0004cb54 f   libeay32:LIBEAY32.dll
 0001:0003bb64       X509_print_ex              0004cb64 f   libeay32:LIBEAY32.dll
 0001:0003bb74       PEM_write_bio_PUBKEY       0004cb74 f   libeay32:LIBEAY32.dll
 0001:0003bb84       X509_REQ_verify            0004cb84 f   libeay32:LIBEAY32.dll
 0001:0003bb94       X509V3_EXT_REQ_add_nconf   0004cb94 f   libeay32:LIBEAY32.dll
 0001:0003bba4       X509_set_pubkey            0004cba4 f   libeay32:LIBEAY32.dll
 0001:0003bbb4       X509_REQ_get_pubkey        0004cbb4 f   libeay32:LIBEAY32.dll
 0001:0003bbc4       X509_set_subject_name      0004cbc4 f   libeay32:LIBEAY32.dll
 0001:0003bbd4       X509_time_adj_ex           0004cbd4 f   libeay32:LIBEAY32.dll
 0001:0003bbe4       X509_gmtime_adj            0004cbe4 f   libeay32:LIBEAY32.dll
 0001:0003bbf4       X509_set_issuer_name       0004cbf4 f   libeay32:LIBEAY32.dll
 0001:0003bc04       X509_get_serialNumber      0004cc04 f   libeay32:LIBEAY32.dll
 0001:0003bc14       X509_REQ_new               0004cc14 f   libeay32:LIBEAY32.dll
 0001:0003bc24       X509_set_serialNumber      0004cc24 f   libeay32:LIBEAY32.dll
 0001:0003bc34       X509_set_version           0004cc34 f   libeay32:LIBEAY32.dll
 0001:0003bc44       X509_new                   0004cc44 f   libeay32:LIBEAY32.dll
 0001:0003bc54       PEM_read_bio_X509_REQ      0004cc54 f   libeay32:LIBEAY32.dll
 0001:0003bc64       d2i_X509_REQ_bio           0004cc64 f   libeay32:LIBEAY32.dll
 0001:0003bc74       ERR_peek_error             0004cc74 f   libeay32:LIBEAY32.dll
 0001:0003bc84       PEM_write_bio_PrivateKey   0004cc84 f   libeay32:LIBEAY32.dll
 0001:0003bc94       EVP_PKEY_keygen            0004cc94 f   libeay32:LIBEAY32.dll
 0001:0003bca4       EVP_PKEY_CTX_set_app_data  0004cca4 f   libeay32:LIBEAY32.dll
 0001:0003bcb4       EVP_PKEY_CTX_set_cb        0004ccb4 f   libeay32:LIBEAY32.dll
 0001:0003bcc4       ASN1_STRING_set_default_mask_asc 0004ccc4 f   libeay32:LIBEAY32.dll
 0001:0003bcd4       X509V3_EXT_add_nconf       0004ccd4 f   libeay32:LIBEAY32.dll
 0001:0003bce4       X509V3_set_nconf           0004cce4 f   libeay32:LIBEAY32.dll
 0001:0003bcf4       X509V3_set_ctx             0004ccf4 f   libeay32:LIBEAY32.dll
 0001:0003bd04       EVP_get_digestbyname       0004cd04 f   libeay32:LIBEAY32.dll
 0001:0003bd14       s2i_ASN1_INTEGER           0004cd14 f   libeay32:LIBEAY32.dll
 0001:0003bd24       ENGINE_by_id               0004cd24 f   libeay32:LIBEAY32.dll
 0001:0003bd34       EVP_des_ede3_cbc           0004cd34 f   libeay32:LIBEAY32.dll
 0001:0003bd44       OBJ_nid2sn                 0004cd44 f   libeay32:LIBEAY32.dll
 0001:0003bd54       EVP_MD_flags               0004cd54 f   libeay32:LIBEAY32.dll
 0001:0003bd64       OBJ_nid2ln                 0004cd64 f   libeay32:LIBEAY32.dll
 0001:0003bd74       EVP_MD_type                0004cd74 f   libeay32:LIBEAY32.dll
 0001:0003bd84       BIO_gets                   0004cd84 f   libeay32:LIBEAY32.dll
 0001:0003bd94       EVP_DigestSignFinal        0004cd94 f   libeay32:LIBEAY32.dll
 0001:0003bda4       EVP_DigestVerifyFinal      0004cda4 f   libeay32:LIBEAY32.dll
 0001:0003bdb4       EVP_PKEY_get0_asn1         0004cdb4 f   libeay32:LIBEAY32.dll
 0001:0003bdc4       EVP_MD_CTX_md              0004cdc4 f   libeay32:LIBEAY32.dll
 0001:0003bdd4       EVP_md5                    0004cdd4 f   libeay32:LIBEAY32.dll
 0001:0003bde4       EVP_PKEY_size              0004cde4 f   libeay32:LIBEAY32.dll
 0001:0003bdf4       EVP_DigestVerifyInit       0004cdf4 f   libeay32:LIBEAY32.dll
 0001:0003be04       EVP_PKEY_new_mac_key       0004ce04 f   libeay32:LIBEAY32.dll
 0001:0003be14       EVP_MD_CTX_set_flags       0004ce14 f   libeay32:LIBEAY32.dll
 0001:0003be24       OPENSSL_cleanse            0004ce24 f   libeay32:LIBEAY32.dll
 0001:0003be34       BIO_new_fp                 0004ce34 f   libeay32:LIBEAY32.dll
 0001:0003be44       BIO_set_callback_arg       0004ce44 f   libeay32:LIBEAY32.dll
 0001:0003be54       BIO_set_callback           0004ce54 f   libeay32:LIBEAY32.dll
 0001:0003be64       BIO_debug_callback         0004ce64 f   libeay32:LIBEAY32.dll
 0001:0003be74       BIO_f_md                   0004ce74 f   libeay32:LIBEAY32.dll
 0001:0003be84       EVP_MD_do_all_sorted       0004ce84 f   libeay32:LIBEAY32.dll
 0001:0003be94       CRYPTO_malloc              0004ce94 f   libeay32:LIBEAY32.dll
 0001:0003bea4       DH_free                    0004cea4 f   libeay32:LIBEAY32.dll
 0001:0003beb4       PEM_write_bio_DHparams     0004ceb4 f   libeay32:LIBEAY32.dll
 0001:0003bec4       ASN1_i2d_bio               0004cec4 f   libeay32:LIBEAY32.dll
 0001:0003bed4       i2d_DHparams               0004ced4 f   libeay32:LIBEAY32.dll
 0001:0003bee4       BN_bn2bin                  0004cee4 f   libeay32:LIBEAY32.dll
 0001:0003bef4       BN_num_bits                0004cef4 f   libeay32:LIBEAY32.dll
 0001:0003bf04       DH_check                   0004cf04 f   libeay32:LIBEAY32.dll
 0001:0003bf14       DHparams_print             0004cf14 f   libeay32:LIBEAY32.dll
 0001:0003bf24       PEM_read_bio_DHparams      0004cf24 f   libeay32:LIBEAY32.dll
 0001:0003bf34       ASN1_d2i_bio               0004cf34 f   libeay32:LIBEAY32.dll
 0001:0003bf44       DH_new                     0004cf44 f   libeay32:LIBEAY32.dll
 0001:0003bf54       d2i_DHparams               0004cf54 f   libeay32:LIBEAY32.dll
 0001:0003bf64       PEM_read_bio_DSAparams     0004cf64 f   libeay32:LIBEAY32.dll
 0001:0003bf74       d2i_DSAparams              0004cf74 f   libeay32:LIBEAY32.dll
 0001:0003bf84       DH_generate_parameters_ex  0004cf84 f   libeay32:LIBEAY32.dll
 0001:0003bf94       DSA_free                   0004cf94 f   libeay32:LIBEAY32.dll
 0001:0003bfa4       DSA_dup_DH                 0004cfa4 f   libeay32:LIBEAY32.dll
 0001:0003bfb4       DSA_generate_parameters_ex 0004cfb4 f   libeay32:LIBEAY32.dll
 0001:0003bfc4       DSA_new                    0004cfc4 f   libeay32:LIBEAY32.dll
 0001:0003bfd4       BIO_number_written         0004cfd4 f   libeay32:LIBEAY32.dll
 0001:0003bfe4       BIO_number_read            0004cfe4 f   libeay32:LIBEAY32.dll
 0001:0003bff4       EVP_CIPHER_CTX_set_padding 0004cff4 f   libeay32:LIBEAY32.dll
 0001:0003c004       EVP_CipherInit_ex          0004d004 f   libeay32:LIBEAY32.dll
 0001:0003c014       EVP_CIPHER_CTX_set_flags   0004d014 f   libeay32:LIBEAY32.dll
 0001:0003c024       BIO_f_cipher               0004d024 f   libeay32:LIBEAY32.dll
 0001:0003c034       EVP_CIPHER_iv_length       0004d034 f   libeay32:LIBEAY32.dll
 0001:0003c044       EVP_BytesToKey             0004d044 f   libeay32:LIBEAY32.dll
 0001:0003c054       RAND_pseudo_bytes          0004d054 f   libeay32:LIBEAY32.dll
 0001:0003c064       BIO_set_flags              0004d064 f   libeay32:LIBEAY32.dll
 0001:0003c074       EVP_read_pw_string         0004d074 f   libeay32:LIBEAY32.dll
 0001:0003c084       EVP_CIPHER_nid             0004d084 f   libeay32:LIBEAY32.dll
 0001:0003c094       OBJ_NAME_do_all_sorted     0004d094 f   libeay32:LIBEAY32.dll
 0001:0003c0a4       EVP_get_cipherbyname       0004d0a4 f   libeay32:LIBEAY32.dll
 0001:0003c0b4       EVP_DigestFinal_ex         0004d0b4 f   libeay32:LIBEAY32.dll
 0001:0003c0c4       EVP_DigestUpdate           0004d0c4 f   libeay32:LIBEAY32.dll
 0001:0003c0d4       EVP_DigestInit_ex          0004d0d4 f   libeay32:LIBEAY32.dll
 0001:0003c0e4       DES_crypt                  0004d0e4 f   libeay32:LIBEAY32.dll
 0001:0003c0f4       ERR_error_string_n         0004d0f4 f   libeay32:LIBEAY32.dll
 0001:0003c104       lh_node_usage_stats_bio    0004d104 f   libeay32:LIBEAY32.dll
 0001:0003c114       lh_stats_bio               0004d114 f   libeay32:LIBEAY32.dll
 0001:0003c124       lh_node_stats_bio          0004d124 f   libeay32:LIBEAY32.dll
 0001:0003c134       ERR_get_string_table       0004d134 f   libeay32:LIBEAY32.dll
 0001:0003c144       X509_print                 0004d144 f   libeay32:LIBEAY32.dll
 0001:0003c154       ASN1_TIME_set_string       0004d154 f   libeay32:LIBEAY32.dll
 0001:0003c164       TXT_DB_get_by_index        0004d164 f   libeay32:LIBEAY32.dll
 0001:0003c174       ASN1_UTCTIME_free          0004d174 f   libeay32:LIBEAY32.dll
 0001:0003c184       ASN1_UTCTIME_new           0004d184 f   libeay32:LIBEAY32.dll
 0001:0003c194       ASN1_OBJECT_free           0004d194 f   libeay32:LIBEAY32.dll
 0001:0003c1a4       OBJ_txt2obj                0004d1a4 f   libeay32:LIBEAY32.dll
 0001:0003c1b4       ASN1_GENERALIZEDTIME_set_string 0004d1b4 f   libeay32:LIBEAY32.dll
 0001:0003c1c4       i2a_ASN1_OBJECT            0004d1c4 f   libeay32:LIBEAY32.dll
 0001:0003c1d4       ASN1_GENERALIZEDTIME_free  0004d1d4 f   libeay32:LIBEAY32.dll
 0001:0003c1e4       ASN1_GENERALIZEDTIME_new   0004d1e4 f   libeay32:LIBEAY32.dll
 0001:0003c1f4       ASN1_UTCTIME_set_string    0004d1f4 f   libeay32:LIBEAY32.dll
 0001:0003c204       TXT_DB_insert              0004d204 f   libeay32:LIBEAY32.dll
 0001:0003c214       X509_NAME_oneline          0004d214 f   libeay32:LIBEAY32.dll
 0001:0003c224       EVP_PKEY_copy_parameters   0004d224 f   libeay32:LIBEAY32.dll
 0001:0003c234       EVP_PKEY_missing_parameters 0004d234 f   libeay32:LIBEAY32.dll
 0001:0003c244       ASN1_TIME_print            0004d244 f   libeay32:LIBEAY32.dll
 0001:0003c254       X509_EXTENSION_free        0004d254 f   libeay32:LIBEAY32.dll
 0001:0003c264       ASN1_INTEGER_set           0004d264 f   libeay32:LIBEAY32.dll
 0001:0003c274       ASN1_INTEGER_new           0004d274 f   libeay32:LIBEAY32.dll
 0001:0003c284       BN_to_ASN1_INTEGER         0004d284 f   libeay32:LIBEAY32.dll
 0001:0003c294       BN_bn2hex                  0004d294 f   libeay32:LIBEAY32.dll
 0001:0003c2a4       X509_NAME_get_index_by_NID 0004d2a4 f   libeay32:LIBEAY32.dll
 0001:0003c2b4       X509_NAME_delete_entry     0004d2b4 f   libeay32:LIBEAY32.dll
 0001:0003c2c4       X509_NAME_ENTRY_free       0004d2c4 f   libeay32:LIBEAY32.dll
 0001:0003c2d4       X509_NAME_add_entry        0004d2d4 f   libeay32:LIBEAY32.dll
 0001:0003c2e4       ASN1_STRING_cmp            0004d2e4 f   libeay32:LIBEAY32.dll
 0001:0003c2f4       X509_NAME_get_index_by_OBJ 0004d2f4 f   libeay32:LIBEAY32.dll
 0001:0003c304       OBJ_nid2obj                0004d304 f   libeay32:LIBEAY32.dll
 0001:0003c314       X509_NAME_dup              0004d314 f   libeay32:LIBEAY32.dll
 0001:0003c324       X509_NAME_new              0004d324 f   libeay32:LIBEAY32.dll
 0001:0003c334       ASN1_PRINTABLE_type        0004d334 f   libeay32:LIBEAY32.dll
 0001:0003c344       ASN1_UNIVERSALSTRING_to_string 0004d344 f   libeay32:LIBEAY32.dll
 0001:0003c354       OBJ_obj2nid                0004d354 f   libeay32:LIBEAY32.dll
 0001:0003c364       X509_NAME_ENTRY_get_object 0004d364 f   libeay32:LIBEAY32.dll
 0001:0003c374       X509_NAME_ENTRY_get_data   0004d374 f   libeay32:LIBEAY32.dll
 0001:0003c384       X509_NAME_get_entry        0004d384 f   libeay32:LIBEAY32.dll
 0001:0003c394       NETSCAPE_SPKI_verify       0004d394 f   libeay32:LIBEAY32.dll
 0001:0003c3a4       NETSCAPE_SPKI_get_pubkey   0004d3a4 f   libeay32:LIBEAY32.dll
 0001:0003c3b4       NETSCAPE_SPKI_free         0004d3b4 f   libeay32:LIBEAY32.dll
 0001:0003c3c4       NETSCAPE_SPKI_b64_decode   0004d3c4 f   libeay32:LIBEAY32.dll
 0001:0003c3d4       CONF_free                  0004d3d4 f   libeay32:LIBEAY32.dll
 0001:0003c3e4       CONF_get_section           0004d3e4 f   libeay32:LIBEAY32.dll
 0001:0003c3f4       CONF_load                  0004d3f4 f   libeay32:LIBEAY32.dll
 0001:0003c404       BN_free                    0004d404 f   libeay32:LIBEAY32.dll
 0001:0003c414       ASN1_INTEGER_to_BN         0004d414 f   libeay32:LIBEAY32.dll
 0001:0003c424       ASN1_TIME_free             0004d424 f   libeay32:LIBEAY32.dll
 0001:0003c434       ASN1_ENUMERATED_free       0004d434 f   libeay32:LIBEAY32.dll
 0001:0003c444       X509_REVOKED_add1_ext_i2d  0004d444 f   libeay32:LIBEAY32.dll
 0001:0003c454       ASN1_ENUMERATED_set        0004d454 f   libeay32:LIBEAY32.dll
 0001:0003c464       ASN1_ENUMERATED_new        0004d464 f   libeay32:LIBEAY32.dll
 0001:0003c474       X509_REVOKED_set_revocationDate 0004d474 f   libeay32:LIBEAY32.dll
 0001:0003c484       X509_REQ_check_private_key 0004d484 f   libeay32:LIBEAY32.dll
 0001:0003c494       X509_REQ_print             0004d494 f   libeay32:LIBEAY32.dll
 0001:0003c4a4       X509_to_X509_REQ           0004d4a4 f   libeay32:LIBEAY32.dll
 0001:0003c4b4       X509_verify                0004d4b4 f   libeay32:LIBEAY32.dll
 0001:0003c4c4       PEM_write_bio_X509_CRL     0004d4c4 f   libeay32:LIBEAY32.dll
 0001:0003c4d4       X509_CRL_set_version       0004d4d4 f   libeay32:LIBEAY32.dll
 0001:0003c4e4       X509_CRL_add1_ext_i2d      0004d4e4 f   libeay32:LIBEAY32.dll
 0001:0003c4f4       X509V3_EXT_CRL_add_nconf   0004d4f4 f   libeay32:LIBEAY32.dll
 0001:0003c504       X509_CRL_sort              0004d504 f   libeay32:LIBEAY32.dll
 0001:0003c514       X509_CRL_add0_revoked      0004d514 f   libeay32:LIBEAY32.dll
 0001:0003c524       X509_REVOKED_set_serialNumber 0004d524 f   libeay32:LIBEAY32.dll
 0001:0003c534       BN_hex2bn                  0004d534 f   libeay32:LIBEAY32.dll
 0001:0003c544       X509_REVOKED_new           0004d544 f   libeay32:LIBEAY32.dll
 0001:0003c554       X509_CRL_set_nextUpdate    0004d554 f   libeay32:LIBEAY32.dll
 0001:0003c564       X509_CRL_set_lastUpdate    0004d564 f   libeay32:LIBEAY32.dll
 0001:0003c574       ASN1_TIME_new              0004d574 f   libeay32:LIBEAY32.dll
 0001:0003c584       X509_CRL_set_issuer_name   0004d584 f   libeay32:LIBEAY32.dll
 0001:0003c594       X509_CRL_new               0004d594 f   libeay32:LIBEAY32.dll
 0001:0003c5a4       BN_add_word                0004d5a4 f   libeay32:LIBEAY32.dll
 0001:0003c5b4       EVP_PKEY_get_default_digest_nid 0004d5b4 f   libeay32:LIBEAY32.dll
 0001:0003c5c4       TXT_DB_write               0004d5c4 f   libeay32:LIBEAY32.dll
 0001:0003c5d4       X509_check_private_key     0004d5d4 f   libeay32:LIBEAY32.dll
 0001:0003c5e4       X509_get_default_cert_area 0004d5e4 f   libeay32:LIBEAY32.dll
 0001:0003c5f4       PKCS7_free                 0004d5f4 f   libeay32:LIBEAY32.dll
 0001:0003c604       PEM_write_bio_PKCS7        0004d604 f   libeay32:LIBEAY32.dll
 0001:0003c614       i2d_PKCS7_bio              0004d614 f   libeay32:LIBEAY32.dll
 0001:0003c624       X509_CRL_print             0004d624 f   libeay32:LIBEAY32.dll
 0001:0003c634       PKCS7_print_ctx            0004d634 f   libeay32:LIBEAY32.dll
 0001:0003c644       PEM_read_bio_PKCS7         0004d644 f   libeay32:LIBEAY32.dll
 0001:0003c654       d2i_PKCS7_bio              0004d654 f   libeay32:LIBEAY32.dll
 0001:0003c664       X509_INFO_free             0004d664 f   libeay32:LIBEAY32.dll
 0001:0003c674       sk_shift                   0004d674 f   libeay32:LIBEAY32.dll
 0001:0003c684       PEM_X509_INFO_read_bio     0004d684 f   libeay32:LIBEAY32.dll
 0001:0003c694       PKCS7_SIGNED_new           0004d694 f   libeay32:LIBEAY32.dll
 0001:0003c6a4       PKCS7_new                  0004d6a4 f   libeay32:LIBEAY32.dll
 0001:0003c6b4       PEM_read_bio_X509_CRL      0004d6b4 f   libeay32:LIBEAY32.dll
 0001:0003c6c4       d2i_X509_CRL_bio           0004d6c4 f   libeay32:LIBEAY32.dll
 0001:0003c6d4       X509_STORE_CTX_cleanup     0004d6d4 f   libeay32:LIBEAY32.dll
 0001:0003c6e4       i2d_X509_CRL_bio           0004d6e4 f   libeay32:LIBEAY32.dll
 0001:0003c6f4       X509_CRL_digest            0004d6f4 f   libeay32:LIBEAY32.dll
 0001:0003c704       X509_NAME_hash             0004d704 f   libeay32:LIBEAY32.dll
 0001:0003c714       i2a_ASN1_INTEGER           0004d714 f   libeay32:LIBEAY32.dll
 0001:0003c724       X509_CRL_get_ext_d2i       0004d724 f   libeay32:LIBEAY32.dll
 0001:0003c734       X509_CRL_verify            0004d734 f   libeay32:LIBEAY32.dll
 0001:0003c744       X509_OBJECT_free_contents  0004d744 f   libeay32:LIBEAY32.dll
 0001:0003c754       X509_STORE_get_by_subject  0004d754 f   libeay32:LIBEAY32.dll
 0001:0003c764       EVP_sha1                   0004d764 f   libeay32:LIBEAY32.dll
 0001:0003c774       i2b_PublicKey_bio          0004d774 f   libeay32:LIBEAY32.dll
 0001:0003c784       i2b_PrivateKey_bio         0004d784 f   libeay32:LIBEAY32.dll
 0001:0003c794       i2b_PVK_bio                0004d794 f   libeay32:LIBEAY32.dll
 0001:0003c7a4       EVP_PKEY_set1_RSA          0004d7a4 f   libeay32:LIBEAY32.dll
 0001:0003c7b4       EVP_PKEY_new               0004d7b4 f   libeay32:LIBEAY32.dll
 0001:0003c7c4       PEM_write_bio_RSA_PUBKEY   0004d7c4 f   libeay32:LIBEAY32.dll
 0001:0003c7d4       PEM_write_bio_RSAPublicKey 0004d7d4 f   libeay32:LIBEAY32.dll
 0001:0003c7e4       PEM_write_bio_RSAPrivateKey 0004d7e4 f   libeay32:LIBEAY32.dll
 0001:0003c7f4       RSA_free                   0004d7f4 f   libeay32:LIBEAY32.dll
 0001:0003c804       i2d_RSA_NET                0004d804 f   libeay32:LIBEAY32.dll
 0001:0003c814       i2d_RSA_PUBKEY_bio         0004d814 f   libeay32:LIBEAY32.dll
 0001:0003c824       i2d_RSAPublicKey_bio       0004d824 f   libeay32:LIBEAY32.dll
 0001:0003c834       i2d_RSAPrivateKey_bio      0004d834 f   libeay32:LIBEAY32.dll
 0001:0003c844       ERR_get_error              0004d844 f   libeay32:LIBEAY32.dll
 0001:0003c854       ERR_reason_error_string    0004d854 f   libeay32:LIBEAY32.dll
 0001:0003c864       RSA_check_key              0004d864 f   libeay32:LIBEAY32.dll
 0001:0003c874       RSA_print                  0004d874 f   libeay32:LIBEAY32.dll
 0001:0003c884       EVP_PKEY_get1_RSA          0004d884 f   libeay32:LIBEAY32.dll
 0001:0003c894       BIO_dump                   0004d894 f   libeay32:LIBEAY32.dll
 0001:0003c8a4       RSA_private_encrypt        0004d8a4 f   libeay32:LIBEAY32.dll
 0001:0003c8b4       RSA_public_decrypt         0004d8b4 f   libeay32:LIBEAY32.dll
 0001:0003c8c4       RSA_public_encrypt         0004d8c4 f   libeay32:LIBEAY32.dll
 0001:0003c8d4       RSA_private_decrypt        0004d8d4 f   libeay32:LIBEAY32.dll
 0001:0003c8e4       RSA_size                   0004d8e4 f   libeay32:LIBEAY32.dll
 0001:0003c8f4       OPENSSL_add_all_algorithms_noconf 0004d8f4 f   libeay32:LIBEAY32.dll
 0001:0003c904       EVP_PKEY_set1_DSA          0004d904 f   libeay32:LIBEAY32.dll
 0001:0003c914       PEM_write_bio_DSA_PUBKEY   0004d914 f   libeay32:LIBEAY32.dll
 0001:0003c924       PEM_write_bio_DSAPrivateKey 0004d924 f   libeay32:LIBEAY32.dll
 0001:0003c934       i2d_DSA_PUBKEY_bio         0004d934 f   libeay32:LIBEAY32.dll
 0001:0003c944       i2d_DSAPrivateKey_bio      0004d944 f   libeay32:LIBEAY32.dll
 0001:0003c954       DSA_print                  0004d954 f   libeay32:LIBEAY32.dll
 0001:0003c964       EVP_PKEY_get1_DSA          0004d964 f   libeay32:LIBEAY32.dll
 0001:0003c974       DSA_generate_key           0004d974 f   libeay32:LIBEAY32.dll
 0001:0003c984       DSAparams_dup              0004d984 f   libeay32:LIBEAY32.dll
 0001:0003c994       PEM_write_bio_DSAparams    0004d994 f   libeay32:LIBEAY32.dll
 0001:0003c9a4       i2d_DSAparams              0004d9a4 f   libeay32:LIBEAY32.dll
 0001:0003c9b4       DSAparams_print            0004d9b4 f   libeay32:LIBEAY32.dll
 0001:0003c9c4       PEM_write_bio_EC_PUBKEY    0004d9c4 f   libeay32:LIBEAY32.dll
 0001:0003c9d4       PEM_write_bio_ECPrivateKey 0004d9d4 f   libeay32:LIBEAY32.dll
 0001:0003c9e4       PEM_write_bio_ECPKParameters 0004d9e4 f   libeay32:LIBEAY32.dll
 0001:0003c9f4       i2d_EC_PUBKEY_bio          0004d9f4 f   libeay32:LIBEAY32.dll
 0001:0003ca04       i2d_ECPrivateKey_bio       0004da04 f   libeay32:LIBEAY32.dll
 0001:0003ca14       i2d_ECPKParameters         0004da14 f   libeay32:LIBEAY32.dll
 0001:0003ca24       EC_KEY_free                0004da24 f   libeay32:LIBEAY32.dll
 0001:0003ca34       EC_KEY_print               0004da34 f   libeay32:LIBEAY32.dll
 0001:0003ca44       EC_KEY_set_asn1_flag       0004da44 f   libeay32:LIBEAY32.dll
 0001:0003ca54       EC_KEY_set_conv_form       0004da54 f   libeay32:LIBEAY32.dll
 0001:0003ca64       EC_KEY_get0_group          0004da64 f   libeay32:LIBEAY32.dll
 0001:0003ca74       PEM_read_bio_ECPrivateKey  0004da74 f   libeay32:LIBEAY32.dll
 0001:0003ca84       PEM_read_bio_EC_PUBKEY     0004da84 f   libeay32:LIBEAY32.dll
 0001:0003ca94       d2i_ECPrivateKey_bio       0004da94 f   libeay32:LIBEAY32.dll
 0001:0003caa4       d2i_EC_PUBKEY_bio          0004daa4 f   libeay32:LIBEAY32.dll
 0001:0003cab4       EC_KEY_generate_key        0004dab4 f   libeay32:LIBEAY32.dll
 0001:0003cac4       EC_KEY_set_group           0004dac4 f   libeay32:LIBEAY32.dll
 0001:0003cad4       EC_KEY_new                 0004dad4 f   libeay32:LIBEAY32.dll
 0001:0003cae4       EC_GROUP_free              0004dae4 f   libeay32:LIBEAY32.dll
 0001:0003caf4       EC_GROUP_get_cofactor      0004daf4 f   libeay32:LIBEAY32.dll
 0001:0003cb04       EC_GROUP_get_order         0004db04 f   libeay32:LIBEAY32.dll
 0001:0003cb14       EC_POINT_point2bn          0004db14 f   libeay32:LIBEAY32.dll
 0001:0003cb24       EC_GROUP_get_point_conversion_form 0004db24 f   libeay32:LIBEAY32.dll
 0001:0003cb34       EC_GROUP_get0_generator    0004db34 f   libeay32:LIBEAY32.dll
 0001:0003cb44       EC_GROUP_get_curve_GFp     0004db44 f   libeay32:LIBEAY32.dll
 0001:0003cb54       EC_METHOD_get_field_type   0004db54 f   libeay32:LIBEAY32.dll
 0001:0003cb64       BN_new                     0004db64 f   libeay32:LIBEAY32.dll
 0001:0003cb74       EC_GROUP_method_of         0004db74 f   libeay32:LIBEAY32.dll
 0001:0003cb84       EC_GROUP_check             0004db84 f   libeay32:LIBEAY32.dll
 0001:0003cb94       ECPKParameters_print       0004db94 f   libeay32:LIBEAY32.dll
 0001:0003cba4       EC_GROUP_set_seed          0004dba4 f   libeay32:LIBEAY32.dll
 0001:0003cbb4       PEM_read_bio_ECPKParameters 0004dbb4 f   libeay32:LIBEAY32.dll
 0001:0003cbc4       d2i_ECPKParameters         0004dbc4 f   libeay32:LIBEAY32.dll
 0001:0003cbd4       EC_GROUP_set_point_conversion_form 0004dbd4 f   libeay32:LIBEAY32.dll
 0001:0003cbe4       EC_GROUP_set_asn1_flag     0004dbe4 f   libeay32:LIBEAY32.dll
 0001:0003cbf4       OBJ_sn2nid                 0004dbf4 f   libeay32:LIBEAY32.dll
 0001:0003cc04       EC_GROUP_new_by_curve_name 0004dc04 f   libeay32:LIBEAY32.dll
 0001:0003cc14       EC_get_builtin_curves      0004dc14 f   libeay32:LIBEAY32.dll
 0001:0003cc24       X509_get_ext_count         0004dc24 f   libeay32:LIBEAY32.dll
 0001:0003cc34       X509_delete_ext            0004dc34 f   libeay32:LIBEAY32.dll
 0001:0003cc44       X509_STORE_CTX_set_flags   0004dc44 f   libeay32:LIBEAY32.dll
 0001:0003cc54       X509_STORE_CTX_set_cert    0004dc54 f   libeay32:LIBEAY32.dll
 0001:0003cc64       X509_sign                  0004dc64 f   libeay32:LIBEAY32.dll
 0001:0003cc74       EVP_PKEY_save_parameters   0004dc74 f   libeay32:LIBEAY32.dll
 0001:0003cc84       X509_check_purpose         0004dc84 f   libeay32:LIBEAY32.dll
 0001:0003cc94       X509_PURPOSE_get_id        0004dc94 f   libeay32:LIBEAY32.dll
 0001:0003cca4       ASN1_item_i2d_bio          0004dca4 f   libeay32:LIBEAY32.dll
 0001:0003ccb4       NETSCAPE_X509_it           0004dcb4 f   libeay32:LIBEAY32.dll
 0001:0003ccc4       PEM_write_bio_X509_AUX     0004dcc4 f   libeay32:LIBEAY32.dll
 0001:0003ccd4       X509_cmp_time              0004dcd4 f   libeay32:LIBEAY32.dll
 0001:0003cce4       X509_email_free            0004dce4 f   libeay32:LIBEAY32.dll
 0001:0003ccf4       X509_get1_ocsp             0004dcf4 f   libeay32:LIBEAY32.dll
 0001:0003cd04       X509_get1_email            0004dd04 f   libeay32:LIBEAY32.dll
 0001:0003cd14       X509_ocspid_print          0004dd14 f   libeay32:LIBEAY32.dll
 0001:0003cd24       X509_digest                0004dd24 f   libeay32:LIBEAY32.dll
 0001:0003cd34       i2d_X509_PUBKEY            0004dd34 f   libeay32:LIBEAY32.dll
 0001:0003cd44       i2d_X509_NAME              0004dd44 f   libeay32:LIBEAY32.dll
 0001:0003cd54       i2d_X509                   0004dd54 f   libeay32:LIBEAY32.dll
 0001:0003cd64       X509_issuer_name_hash_old  0004dd64 f   libeay32:LIBEAY32.dll
 0001:0003cd74       X509_issuer_name_hash      0004dd74 f   libeay32:LIBEAY32.dll
 0001:0003cd84       X509_subject_name_hash_old 0004dd84 f   libeay32:LIBEAY32.dll
 0001:0003cd94       X509_subject_name_hash     0004dd94 f   libeay32:LIBEAY32.dll
 0001:0003cda4       X509_alias_get0            0004dda4 f   libeay32:LIBEAY32.dll
 0001:0003cdb4       X509_get_issuer_name       0004ddb4 f   libeay32:LIBEAY32.dll
 0001:0003cdc4       X509_add1_reject_object    0004ddc4 f   libeay32:LIBEAY32.dll
 0001:0003cdd4       X509_add1_trust_object     0004ddd4 f   libeay32:LIBEAY32.dll
 0001:0003cde4       X509_reject_clear          0004dde4 f   libeay32:LIBEAY32.dll
 0001:0003cdf4       X509_trust_clear           0004ddf4 f   libeay32:LIBEAY32.dll
 0001:0003ce04       X509_alias_set1            0004de04 f   libeay32:LIBEAY32.dll
 0001:0003ce14       OBJ_create                 0004de14 f   libeay32:LIBEAY32.dll
 0001:0003ce24       X509_STORE_set_default_paths 0004de24 f   libeay32:LIBEAY32.dll
 0001:0003ce34       RSA_generate_key_ex        0004de34 f   libeay32:LIBEAY32.dll
 0001:0003ce44       BN_set_word                0004de44 f   libeay32:LIBEAY32.dll
 0001:0003ce54       RSA_new_method             0004de54 f   libeay32:LIBEAY32.dll
 0001:0003ce64       RAND_status                0004de64 f   libeay32:LIBEAY32.dll
 0001:0003ce74       EVP_camellia_256_cbc       0004de74 f   libeay32:LIBEAY32.dll
 0001:0003ce84       EVP_camellia_192_cbc       0004de84 f   libeay32:LIBEAY32.dll
 0001:0003ce94       EVP_camellia_128_cbc       0004de94 f   libeay32:LIBEAY32.dll
 0001:0003cea4       EVP_aes_256_cbc            0004dea4 f   libeay32:LIBEAY32.dll
 0001:0003ceb4       EVP_aes_192_cbc            0004deb4 f   libeay32:LIBEAY32.dll
 0001:0003cec4       EVP_aes_128_cbc            0004dec4 f   libeay32:LIBEAY32.dll
 0001:0003ced4       EVP_seed_cbc               0004ded4 f   libeay32:LIBEAY32.dll
 0001:0003cee4       EVP_idea_cbc               0004dee4 f   libeay32:LIBEAY32.dll
 0001:0003cef4       EVP_des_cbc                0004def4 f   libeay32:LIBEAY32.dll
 0001:0003cf04       EVP_PKEY_paramgen_init     0004df04 f   libeay32:LIBEAY32.dll
 0001:0003cf14       ENGINE_get_pkey_asn1_meth_str 0004df14 f   libeay32:LIBEAY32.dll
 0001:0003cf24       EVP_PKEY_print_private     0004df24 f   libeay32:LIBEAY32.dll
 0001:0003cf34       EVP_PKEY_print_params      0004df34 f   libeay32:LIBEAY32.dll
 0001:0003cf44       i2d_PrivateKey_bio         0004df44 f   libeay32:LIBEAY32.dll
 0001:0003cf54       PEM_write_bio_Parameters   0004df54 f   libeay32:LIBEAY32.dll
 0001:0003cf64       EVP_PKEY_paramgen          0004df64 f   libeay32:LIBEAY32.dll
 0001:0003cf74       BN_bin2bn                  0004df74 f   libeay32:LIBEAY32.dll
 0001:0003cf84       OCSP_RESPONSE_print        0004df84 f   libeay32:LIBEAY32.dll
 0001:0003cf94       i2d_OCSP_RESPONSE          0004df94 f   libeay32:LIBEAY32.dll
 0001:0003cfa4       OCSP_REQUEST_add_ext       0004dfa4 f   libeay32:LIBEAY32.dll
 0001:0003cfb4       OCSP_request_add0_id       0004dfb4 f   libeay32:LIBEAY32.dll
 0001:0003cfc4       OCSP_cert_to_id            0004dfc4 f   libeay32:LIBEAY32.dll
 0001:0003cfd4       OCSP_REQUEST_new           0004dfd4 f   libeay32:LIBEAY32.dll
 0001:0003cfe4       OCSP_RESPONSE_free         0004dfe4 f   libeay32:LIBEAY32.dll
 0001:0003cff4       OCSP_REQUEST_free          0004dff4 f   libeay32:LIBEAY32.dll
 0001:0003d004       OCSP_CERTID_free           0004e004 f   libeay32:LIBEAY32.dll
 0001:0003d014       OCSP_parse_url             0004e014 f   libeay32:LIBEAY32.dll
 0001:0003d024       BIO_sock_should_retry      0004e024 f   libeay32:LIBEAY32.dll
 0001:0003d034       SRP_VBASE_get_by_user      0004e034 f   libeay32:LIBEAY32.dll
 0001:0003d044       BIO_test_flags             0004e044 f   libeay32:LIBEAY32.dll
 0001:0003d054       BIO_f_nbio_test            0004e054 f   libeay32:LIBEAY32.dll
 0001:0003d064       BIO_new_socket             0004e064 f   libeay32:LIBEAY32.dll
 0001:0003d074       BIO_int_ctrl               0004e074 f   libeay32:LIBEAY32.dll
 0001:0003d084       BIO_socket_ioctl           0004e084 f   libeay32:LIBEAY32.dll
 0001:0003d094       BIO_f_buffer               0004e094 f   libeay32:LIBEAY32.dll
 0001:0003d0a4       RSA_new                    0004e0a4 f   libeay32:LIBEAY32.dll
 0001:0003d0b4       BIO_new_dgram              0004e0b4 f   libeay32:LIBEAY32.dll
 0001:0003d0c4       SRP_VBASE_init             0004e0c4 f   libeay32:LIBEAY32.dll
 0001:0003d0d4       SRP_VBASE_new              0004e0d4 f   libeay32:LIBEAY32.dll
 0001:0003d0e4       EC_KEY_new_by_curve_name   0004e0e4 f   libeay32:LIBEAY32.dll
 0001:0003d0f4       BIO_s_null                 0004e0f4 f   libeay32:LIBEAY32.dll
 0001:0003d104       BN_CTX_free                0004e104 f   libeay32:LIBEAY32.dll
 0001:0003d114       BN_cmp                     0004e114 f   libeay32:LIBEAY32.dll
 0001:0003d124       BN_mod_exp                 0004e124 f   libeay32:LIBEAY32.dll
 0001:0003d134       BN_rshift1                 0004e134 f   libeay32:LIBEAY32.dll
 0001:0003d144       BN_is_prime_ex             0004e144 f   libeay32:LIBEAY32.dll
 0001:0003d154       BN_CTX_new                 0004e154 f   libeay32:LIBEAY32.dll
 0001:0003d164       SRP_check_known_gN_param   0004e164 f   libeay32:LIBEAY32.dll
 0001:0003d174       BIO_dump_indent            0004e174 f   libeay32:LIBEAY32.dll
 0001:0003d184       d2i_OCSP_RESPONSE          0004e184 f   libeay32:LIBEAY32.dll
 0001:0003d194       BIO_pop                    0004e194 f   libeay32:LIBEAY32.dll
 0001:0003d1a4       SHA1                       0004e1a4 f   libeay32:LIBEAY32.dll
 0001:0003d1b4       BF_options                 0004e1b4 f   libeay32:LIBEAY32.dll
 0001:0003d1c4       idea_options               0004e1c4 f   libeay32:LIBEAY32.dll
 0001:0003d1d4       AES_options                0004e1d4 f   libeay32:LIBEAY32.dll
 0001:0003d1e4       DES_options                0004e1e4 f   libeay32:LIBEAY32.dll
 0001:0003d1f4       RC4_options                0004e1f4 f   libeay32:LIBEAY32.dll
 0001:0003d204       BN_options                 0004e204 f   libeay32:LIBEAY32.dll
 0001:0003d214       SSLeay_version             0004e214 f   libeay32:LIBEAY32.dll
 0001:0003d224       ECDH_compute_key           0004e224 f   libeay32:LIBEAY32.dll
 0001:0003d234       EC_KEY_get0_public_key     0004e234 f   libeay32:LIBEAY32.dll
 0001:0003d244       EC_GROUP_get_degree        0004e244 f   libeay32:LIBEAY32.dll
 0001:0003d254       ECDSA_verify               0004e254 f   libeay32:LIBEAY32.dll
 0001:0003d264       ECDSA_sign                 0004e264 f   libeay32:LIBEAY32.dll
 0001:0003d274       EC_KEY_precompute_mult     0004e274 f   libeay32:LIBEAY32.dll
 0001:0003d284       RAND_cleanup               0004e284 f   libeay32:LIBEAY32.dll
 0001:0003d294       DSA_verify                 0004e294 f   libeay32:LIBEAY32.dll
 0001:0003d2a4       DSA_sign                   0004e2a4 f   libeay32:LIBEAY32.dll
 0001:0003d2b4       RAND_seed                  0004e2b4 f   libeay32:LIBEAY32.dll
 0001:0003d2c4       RSA_verify                 0004e2c4 f   libeay32:LIBEAY32.dll
 0001:0003d2d4       RSA_sign                   0004e2d4 f   libeay32:LIBEAY32.dll
 0001:0003d2e4       EVP_CIPHER_CTX_cleanup     0004e2e4 f   libeay32:LIBEAY32.dll
 0001:0003d2f4       EVP_EncryptFinal_ex        0004e2f4 f   libeay32:LIBEAY32.dll
 0001:0003d304       EVP_DecryptFinal_ex        0004e304 f   libeay32:LIBEAY32.dll
 0001:0003d314       EVP_EncryptUpdate          0004e314 f   libeay32:LIBEAY32.dll
 0001:0003d324       EVP_DecryptUpdate          0004e324 f   libeay32:LIBEAY32.dll
 0001:0003d334       EVP_EncryptInit_ex         0004e334 f   libeay32:LIBEAY32.dll
 0001:0003d344       EVP_DecryptInit_ex         0004e344 f   libeay32:LIBEAY32.dll
 0001:0003d354       EVP_CIPHER_CTX_init        0004e354 f   libeay32:LIBEAY32.dll
 0001:0003d364       CAST_cbc_encrypt           0004e364 f   libeay32:LIBEAY32.dll
 0001:0003d374       BF_cbc_encrypt             0004e374 f   libeay32:LIBEAY32.dll
 0001:0003d384       RC2_cbc_encrypt            0004e384 f   libeay32:LIBEAY32.dll
 0001:0003d394       SEED_cbc_encrypt           0004e394 f   libeay32:LIBEAY32.dll
 0001:0003d3a4       idea_cbc_encrypt           0004e3a4 f   libeay32:LIBEAY32.dll
 0001:0003d3b4       Camellia_cbc_encrypt       0004e3b4 f   libeay32:LIBEAY32.dll
 0001:0003d3c4       CRYPTO_gcm128_release      0004e3c4 f   libeay32:LIBEAY32.dll
 0001:0003d3d4       CRYPTO_gcm128_aad          0004e3d4 f   libeay32:LIBEAY32.dll
 0001:0003d3e4       CRYPTO_gcm128_setiv        0004e3e4 f   libeay32:LIBEAY32.dll
 0001:0003d3f4       CRYPTO_gcm128_new          0004e3f4 f   libeay32:LIBEAY32.dll
 0001:0003d404       AES_encrypt                0004e404 f   libeay32:LIBEAY32.dll
 0001:0003d414       AES_ige_encrypt            0004e414 f   libeay32:LIBEAY32.dll
 0001:0003d424       AES_cbc_encrypt            0004e424 f   libeay32:LIBEAY32.dll
 0001:0003d434       DES_ede3_cbc_encrypt       0004e434 f   libeay32:LIBEAY32.dll
 0001:0003d444       DES_ncbc_encrypt           0004e444 f   libeay32:LIBEAY32.dll
 0001:0003d454       RC4                        0004e454 f   libeay32:LIBEAY32.dll
 0001:0003d464       EVP_ripemd160              0004e464 f   libeay32:LIBEAY32.dll
 0001:0003d474       WHIRLPOOL                  0004e474 f   libeay32:LIBEAY32.dll
 0001:0003d484       SHA512                     0004e484 f   libeay32:LIBEAY32.dll
 0001:0003d494       SHA256                     0004e494 f   libeay32:LIBEAY32.dll
 0001:0003d4a4       HMAC_CTX_cleanup           0004e4a4 f   libeay32:LIBEAY32.dll
 0001:0003d4b4       HMAC_Final                 0004e4b4 f   libeay32:LIBEAY32.dll
 0001:0003d4c4       HMAC_Update                0004e4c4 f   libeay32:LIBEAY32.dll
 0001:0003d4d4       HMAC_Init_ex               0004e4d4 f   libeay32:LIBEAY32.dll
 0001:0003d4e4       HMAC_CTX_init              0004e4e4 f   libeay32:LIBEAY32.dll
 0001:0003d4f4       EVP_md4                    0004e4f4 f   libeay32:LIBEAY32.dll
 0001:0003d504       EVP_Digest                 0004e504 f   libeay32:LIBEAY32.dll
 0001:0003d514       EVP_mdc2                   0004e514 f   libeay32:LIBEAY32.dll
 0001:0003d524       CAST_set_key               0004e524 f   libeay32:LIBEAY32.dll
 0001:0003d534       BF_set_key                 0004e534 f   libeay32:LIBEAY32.dll
 0001:0003d544       RC2_set_key                0004e544 f   libeay32:LIBEAY32.dll
 0001:0003d554       RC4_set_key                0004e554 f   libeay32:LIBEAY32.dll
 0001:0003d564       SEED_set_key               0004e564 f   libeay32:LIBEAY32.dll
 0001:0003d574       idea_set_encrypt_key       0004e574 f   libeay32:LIBEAY32.dll
 0001:0003d584       Camellia_set_key           0004e584 f   libeay32:LIBEAY32.dll
 0001:0003d594       AES_set_encrypt_key        0004e594 f   libeay32:LIBEAY32.dll
 0001:0003d5a4       DES_set_key_unchecked      0004e5a4 f   libeay32:LIBEAY32.dll
 0001:0003d5b4       d2i_RSAPrivateKey          0004e5b4 f   libeay32:LIBEAY32.dll
 0001:0003d5c4       RSA_set_default_method     0004e5c4 f   libeay32:LIBEAY32.dll
 0001:0003d5d4       RSA_PKCS1_SSLeay           0004e5d4 f   libeay32:LIBEAY32.dll
 0001:0003d5e4       BIO_s_connect              0004e5e4 f   libeay32:LIBEAY32.dll
 0001:0003d5f4       CRYPTO_realloc             0004e5f4 f   libeay32:LIBEAY32.dll
 0001:0003d604       UI_method_get_opener       0004e604 f   libeay32:LIBEAY32.dll
 0001:0003d614       UI_OpenSSL                 0004e614 f   libeay32:LIBEAY32.dll
 0001:0003d624       UI_method_get_reader       0004e624 f   libeay32:LIBEAY32.dll
 0001:0003d634       UI_set_result              0004e634 f   libeay32:LIBEAY32.dll
 0001:0003d644       UI_get_string_type         0004e644 f   libeay32:LIBEAY32.dll
 0001:0003d654       UI_get0_user_data          0004e654 f   libeay32:LIBEAY32.dll
 0001:0003d664       UI_get_input_flags         0004e664 f   libeay32:LIBEAY32.dll
 0001:0003d674       UI_method_get_writer       0004e674 f   libeay32:LIBEAY32.dll
 0001:0003d684       UI_method_get_closer       0004e684 f   libeay32:LIBEAY32.dll
 0001:0003d694       UI_method_set_closer       0004e694 f   libeay32:LIBEAY32.dll
 0001:0003d6a4       UI_method_set_writer       0004e6a4 f   libeay32:LIBEAY32.dll
 0001:0003d6b4       UI_method_set_reader       0004e6b4 f   libeay32:LIBEAY32.dll
 0001:0003d6c4       UI_method_set_opener       0004e6c4 f   libeay32:LIBEAY32.dll
 0001:0003d6d4       UI_create_method           0004e6d4 f   libeay32:LIBEAY32.dll
 0001:0003d6e4       UI_destroy_method          0004e6e4 f   libeay32:LIBEAY32.dll
 0001:0003d6f4       UI_free                    0004e6f4 f   libeay32:LIBEAY32.dll
 0001:0003d704       UI_process                 0004e704 f   libeay32:LIBEAY32.dll
 0001:0003d714       UI_add_verify_string       0004e714 f   libeay32:LIBEAY32.dll
 0001:0003d724       UI_add_input_string        0004e724 f   libeay32:LIBEAY32.dll
 0001:0003d734       UI_ctrl                    0004e734 f   libeay32:LIBEAY32.dll
 0001:0003d744       UI_construct_prompt        0004e744 f   libeay32:LIBEAY32.dll
 0001:0003d754       UI_new_method              0004e754 f   libeay32:LIBEAY32.dll
 0001:0003d764       PKCS12_free                0004e764 f   libeay32:LIBEAY32.dll
 0001:0003d774       PKCS12_parse               0004e774 f   libeay32:LIBEAY32.dll
 0001:0003d784       PKCS12_verify_mac          0004e784 f   libeay32:LIBEAY32.dll
 0001:0003d794       d2i_PKCS12_bio             0004e794 f   libeay32:LIBEAY32.dll
 0001:0003d7a4       PEM_read_bio_X509_AUX      0004e7a4 f   libeay32:LIBEAY32.dll
 0001:0003d7b4       NETSCAPE_X509_free         0004e7b4 f   libeay32:LIBEAY32.dll
 0001:0003d7c4       ASN1_item_d2i_bio          0004e7c4 f   libeay32:LIBEAY32.dll
 0001:0003d7d4       d2i_X509_bio               0004e7d4 f   libeay32:LIBEAY32.dll
 0001:0003d7e4       d2i_RSA_NET                0004e7e4 f   libeay32:LIBEAY32.dll
 0001:0003d7f4       BUF_MEM_grow_clean         0004e7f4 f   libeay32:LIBEAY32.dll
 0001:0003d804       X509_add_ext               0004e804 f   libeay32:LIBEAY32.dll
 0001:0003d814       X509_get_ext               0004e814 f   libeay32:LIBEAY32.dll
 0001:0003d824       X509_get_ext_by_OBJ        0004e824 f   libeay32:LIBEAY32.dll
 0001:0003d834       X509_EXTENSION_get_object  0004e834 f   libeay32:LIBEAY32.dll
 0001:0003d844       X509_REQ_get_extensions    0004e844 f   libeay32:LIBEAY32.dll
 0001:0003d854       X509_NAME_print_ex         0004e854 f   libeay32:LIBEAY32.dll
 0001:0003d864       ENGINE_ctrl_cmd_string     0004e864 f   libeay32:LIBEAY32.dll
 0001:0003d874       ENGINE_get_id              0004e874 f   libeay32:LIBEAY32.dll
 0001:0003d884       ENGINE_set_default         0004e884 f   libeay32:LIBEAY32.dll
 0001:0003d894       ENGINE_ctrl_cmd            0004e894 f   libeay32:LIBEAY32.dll
 0001:0003d8a4       ENGINE_ctrl                0004e8a4 f   libeay32:LIBEAY32.dll
 0001:0003d8b4       ENGINE_register_all_complete 0004e8b4 f   libeay32:LIBEAY32.dll
 0001:0003d8c4       CONF_modules_load          0004e8c4 f   libeay32:LIBEAY32.dll
 0001:0003d8d4       OPENSSL_load_builtin_modules 0004e8d4 f   libeay32:LIBEAY32.dll
 0001:0003d8e4       lh_strhash                 0004e8e4 f   libeay32:LIBEAY32.dll
 0001:0003d8f4       BN_pseudo_rand             0004e8f4 f   libeay32:LIBEAY32.dll
 0001:0003d904       TXT_DB_create_index        0004e904 f   libeay32:LIBEAY32.dll
 0001:0003d914       TXT_DB_free                0004e914 f   libeay32:LIBEAY32.dll
 0001:0003d924       X509_VERIFY_PARAM_set_time 0004e924 f   libeay32:LIBEAY32.dll
 0001:0003d934       X509_VERIFY_PARAM_set_depth 0004e934 f   libeay32:LIBEAY32.dll
 0001:0003d944       X509_VERIFY_PARAM_set_purpose 0004e944 f   libeay32:LIBEAY32.dll
 0001:0003d954       X509_VERIFY_PARAM_set_flags 0004e954 f   libeay32:LIBEAY32.dll
 0001:0003d964       X509_VERIFY_PARAM_add0_policy 0004e964 f   libeay32:LIBEAY32.dll
 0001:0003d974       X509_VERIFY_PARAM_new      0004e974 f   libeay32:LIBEAY32.dll
 0001:0003d984       X509_PURPOSE_get_by_sname  0004e984 f   libeay32:LIBEAY32.dll
 0001:0003d994       BIO_s_mem                  0004e994 f   libeay32:LIBEAY32.dll
 0001:0003d9a4       EVP_PKEY_CTX_ctrl_str      0004e9a4 f   libeay32:LIBEAY32.dll
 0001:0003d9b4       X509_POLICY_NODE_print     0004e9b4 f   libeay32:LIBEAY32.dll
 0001:0003d9c4       X509_policy_tree_get0_user_policies 0004e9c4 f   libeay32:LIBEAY32.dll
 0001:0003d9d4       X509_policy_tree_get0_policies 0004e9d4 f   libeay32:LIBEAY32.dll
 0001:0003d9e4       X509_STORE_CTX_get_explicit_policy 0004e9e4 f   libeay32:LIBEAY32.dll
 0001:0003d9f4       X509_STORE_CTX_get0_policy_tree 0004e9f4 f   libeay32:LIBEAY32.dll
 0001:0003da04       b2i_PVK_bio                0004ea04 f   libeay32:LIBEAY32.dll
 0001:0003da14       b2i_PrivateKey_bio         0004ea14 f   libeay32:LIBEAY32.dll
 0001:0003da24       PEM_read_bio_PrivateKey    0004ea24 f   libeay32:LIBEAY32.dll
 0001:0003da34       d2i_PrivateKey_bio         0004ea34 f   libeay32:LIBEAY32.dll
 0001:0003da44       ENGINE_load_private_key    0004ea44 f   libeay32:LIBEAY32.dll
 0001:0003da54       b2i_PublicKey_bio          0004ea54 f   libeay32:LIBEAY32.dll
 0001:0003da64       PEM_read_bio_PUBKEY        0004ea64 f   libeay32:LIBEAY32.dll
 0001:0003da74       PEM_read_bio_RSAPublicKey  0004ea74 f   libeay32:LIBEAY32.dll
 0001:0003da84       d2i_RSAPublicKey_bio       0004ea84 f   libeay32:LIBEAY32.dll
 0001:0003da94       d2i_PUBKEY_bio             0004ea94 f   libeay32:LIBEAY32.dll
 0001:0003daa4       ENGINE_load_public_key     0004eaa4 f   libeay32:LIBEAY32.dll
 0001:0003dab4       X509V3_conf_free           0004eab4 f   libeay32:LIBEAY32.dll
 0001:0003dac4       X509V3_parse_list          0004eac4 f   libeay32:LIBEAY32.dll
 0001:0003dad4       a2i_ASN1_INTEGER           0004ead4 f   libeay32:LIBEAY32.dll
 0001:0003dae4       TXT_DB_read                0004eae4 f   libeay32:LIBEAY32.dll
 0001:0003daf4       BIO_get_callback_arg       0004eaf4 f   libeay32:LIBEAY32.dll
 0001:0003db04       HMAC                       0004eb04 f   libeay32:LIBEAY32.dll
 0001:0003db14       OpenSSLDie                 0004eb14 f   libeay32:LIBEAY32.dll
 0001:0003db24       RAND_bytes                 0004eb24 f   libeay32:LIBEAY32.dll
 0001:0003db34       RAND_egd                   0004eb34 f   libeay32:LIBEAY32.dll
 0001:0003db44       RAND_load_file             0004eb44 f   libeay32:LIBEAY32.dll
 0001:0003db54       RAND_file_name             0004eb54 f   libeay32:LIBEAY32.dll
 0001:0003db64       RAND_screen                0004eb64 f   libeay32:LIBEAY32.dll
 0001:0003db74       RAND_write_file            0004eb74 f   libeay32:LIBEAY32.dll
 0001:0003db84       SSLeay                     0004eb84 f   libeay32:LIBEAY32.dll
 0001:0003db94       NETSCAPE_CERT_SEQUENCE_free 0004eb94 f   libeay32:LIBEAY32.dll
 0001:0003dba4       PEM_read_bio_NETSCAPE_CERT_SEQUENCE 0004eba4 f   libeay32:LIBEAY32.dll
 0001:0003dbb4       PEM_write_bio_NETSCAPE_CERT_SEQUENCE 0004ebb4 f   libeay32:LIBEAY32.dll
 0001:0003dbc4       NETSCAPE_CERT_SEQUENCE_new 0004ebc4 f   libeay32:LIBEAY32.dll
 0001:0003dbd4       X509_STORE_CTX_get1_chain  0004ebd4 f   libeay32:LIBEAY32.dll
 0001:0003dbe4       PBEPARAM_free              0004ebe4 f   libeay32:LIBEAY32.dll
 0001:0003dbf4       ASN1_INTEGER_get           0004ebf4 f   libeay32:LIBEAY32.dll
 0001:0003dc04       d2i_PBEPARAM               0004ec04 f   libeay32:LIBEAY32.dll
 0001:0003dc14       PKCS12_SAFEBAG_free        0004ec14 f   libeay32:LIBEAY32.dll
 0001:0003dc24       PKCS12_unpack_p7encdata    0004ec24 f   libeay32:LIBEAY32.dll
 0001:0003dc34       PKCS12_unpack_p7data       0004ec34 f   libeay32:LIBEAY32.dll
 0001:0003dc44       PKCS12_unpack_authsafes    0004ec44 f   libeay32:LIBEAY32.dll
 0001:0003dc54       OPENSSL_uni2asc            0004ec54 f   libeay32:LIBEAY32.dll
 0001:0003dc64       i2d_PKCS12_bio             0004ec64 f   libeay32:LIBEAY32.dll
 0001:0003dc74       PKCS12_set_mac             0004ec74 f   libeay32:LIBEAY32.dll
 0001:0003dc84       PKCS12_create              0004ec84 f   libeay32:LIBEAY32.dll
 0001:0003dc94       EVP_PKEY_add1_attr_by_NID  0004ec94 f   libeay32:LIBEAY32.dll
 0001:0003dca4       X509_STORE_load_locations  0004eca4 f   libeay32:LIBEAY32.dll
 0001:0003dcb4       sk_delete                  0004ecb4 f   libeay32:LIBEAY32.dll
 0001:0003dcc4       X509_keyid_set1            0004ecc4 f   libeay32:LIBEAY32.dll
 0001:0003dcd4       PKCS8_PRIV_KEY_INFO_free   0004ecd4 f   libeay32:LIBEAY32.dll
 0001:0003dce4       EVP_PKCS82PKEY             0004ece4 f   libeay32:LIBEAY32.dll
 0001:0003dcf4       PKCS12_decrypt_skey        0004ecf4 f   libeay32:LIBEAY32.dll
 0001:0003dd04       PKCS12_certbag2x509        0004ed04 f   libeay32:LIBEAY32.dll
 0001:0003dd14       PKCS12_get_attr_gen        0004ed14 f   libeay32:LIBEAY32.dll
 0001:0003dd24       X509_SIG_free              0004ed24 f   libeay32:LIBEAY32.dll
 0001:0003dd34       PKCS8_decrypt              0004ed34 f   libeay32:LIBEAY32.dll
 0001:0003dd44       d2i_PKCS8_bio              0004ed44 f   libeay32:LIBEAY32.dll
 0001:0003dd54       PEM_read_bio_PKCS8         0004ed54 f   libeay32:LIBEAY32.dll
 0001:0003dd64       d2i_PKCS8_PRIV_KEY_INFO_bio 0004ed64 f   libeay32:LIBEAY32.dll
 0001:0003dd74       PEM_read_bio_PKCS8_PRIV_KEY_INFO 0004ed74 f   libeay32:LIBEAY32.dll
 0001:0003dd84       i2d_PKCS8_bio              0004ed84 f   libeay32:LIBEAY32.dll
 0001:0003dd94       PEM_write_bio_PKCS8        0004ed94 f   libeay32:LIBEAY32.dll
 0001:0003dda4       PKCS8_encrypt              0004eda4 f   libeay32:LIBEAY32.dll
 0001:0003ddb4       i2d_PKCS8_PRIV_KEY_INFO_bio 0004edb4 f   libeay32:LIBEAY32.dll
 0001:0003ddc4       PEM_write_bio_PKCS8_PRIV_KEY_INFO 0004edc4 f   libeay32:LIBEAY32.dll
 0001:0003ddd4       EVP_PKEY2PKCS8_broken      0004edd4 f   libeay32:LIBEAY32.dll
 0001:0003dde4       i2d_PUBKEY_bio             0004ede4 f   libeay32:LIBEAY32.dll
 0001:0003ddf4       EVP_PKEY_print_public      0004edf4 f   libeay32:LIBEAY32.dll
 0001:0003de04       EVP_PKEY_sign_init         0004ee04 f   libeay32:LIBEAY32.dll
 0001:0003de14       EVP_PKEY_verify_init       0004ee14 f   libeay32:LIBEAY32.dll
 0001:0003de24       EVP_PKEY_verify_recover_init 0004ee24 f   libeay32:LIBEAY32.dll
 0001:0003de34       EVP_PKEY_encrypt_init      0004ee34 f   libeay32:LIBEAY32.dll
 0001:0003de44       EVP_PKEY_decrypt_init      0004ee44 f   libeay32:LIBEAY32.dll
 0001:0003de54       EVP_PKEY_derive_init       0004ee54 f   libeay32:LIBEAY32.dll
 0001:0003de64       EVP_PKEY_derive_set_peer   0004ee64 f   libeay32:LIBEAY32.dll
 0001:0003de74       EVP_PKEY_sign              0004ee74 f   libeay32:LIBEAY32.dll
 0001:0003de84       EVP_PKEY_verify_recover    0004ee84 f   libeay32:LIBEAY32.dll
 0001:0003de94       EVP_PKEY_encrypt           0004ee94 f   libeay32:LIBEAY32.dll
 0001:0003dea4       EVP_PKEY_decrypt           0004eea4 f   libeay32:LIBEAY32.dll
 0001:0003deb4       EVP_PKEY_derive            0004eeb4 f   libeay32:LIBEAY32.dll
 0001:0003dec4       EVP_PKEY_verify            0004eec4 f   libeay32:LIBEAY32.dll
 0001:0003ded4       NETSCAPE_SPKI_print        0004eed4 f   libeay32:LIBEAY32.dll
 0001:0003dee4       NCONF_load_bio             0004eee4 f   libeay32:LIBEAY32.dll
 0001:0003def4       NETSCAPE_SPKI_b64_encode   0004eef4 f   libeay32:LIBEAY32.dll
 0001:0003df04       NETSCAPE_SPKI_sign         0004ef04 f   libeay32:LIBEAY32.dll
 0001:0003df14       NETSCAPE_SPKI_set_pubkey   0004ef14 f   libeay32:LIBEAY32.dll
 0001:0003df24       ASN1_STRING_set            0004ef24 f   libeay32:LIBEAY32.dll
 0001:0003df34       NETSCAPE_SPKI_new          0004ef34 f   libeay32:LIBEAY32.dll
 0001:0003df44       i2d_PKCS7_bio_stream       0004ef44 f   libeay32:LIBEAY32.dll
 0001:0003df54       PEM_write_bio_PKCS7_stream 0004ef54 f   libeay32:LIBEAY32.dll
 0001:0003df64       SMIME_write_PKCS7          0004ef64 f   libeay32:LIBEAY32.dll
 0001:0003df74       PKCS7_get0_signers         0004ef74 f   libeay32:LIBEAY32.dll
 0001:0003df84       PKCS7_verify               0004ef84 f   libeay32:LIBEAY32.dll
 0001:0003df94       PKCS7_decrypt              0004ef94 f   libeay32:LIBEAY32.dll
 0001:0003dfa4       PKCS7_final                0004efa4 f   libeay32:LIBEAY32.dll
 0001:0003dfb4       PKCS7_sign_add_signer      0004efb4 f   libeay32:LIBEAY32.dll
 0001:0003dfc4       PKCS7_sign                 0004efc4 f   libeay32:LIBEAY32.dll
 0001:0003dfd4       PKCS7_encrypt              0004efd4 f   libeay32:LIBEAY32.dll
 0001:0003dfe4       SMIME_read_PKCS7           0004efe4 f   libeay32:LIBEAY32.dll
 0001:0003dff4       EVP_rc2_64_cbc             0004eff4 f   libeay32:LIBEAY32.dll
 0001:0003e004       EVP_rc2_cbc                0004f004 f   libeay32:LIBEAY32.dll
 0001:0003e014       EVP_rc2_40_cbc             0004f014 f   libeay32:LIBEAY32.dll
 0001:0003e024       GENERAL_NAME_print         0004f024 f   libeay32:LIBEAY32.dll
 0001:0003e034       CMS_ReceiptRequest_free    0004f034 f   libeay32:LIBEAY32.dll
 0001:0003e044       ASN1_STRING_data           0004f044 f   libeay32:LIBEAY32.dll
 0001:0003e054       ASN1_STRING_length         0004f054 f   libeay32:LIBEAY32.dll
 0001:0003e064       CMS_ReceiptRequest_get0_values 0004f064 f   libeay32:LIBEAY32.dll
 0001:0003e074       CMS_get1_ReceiptRequest    0004f074 f   libeay32:LIBEAY32.dll
 0001:0003e084       CMS_get0_SignerInfos       0004f084 f   libeay32:LIBEAY32.dll
 0001:0003e094       GENERAL_NAME_free          0004f094 f   libeay32:LIBEAY32.dll
 0001:0003e0a4       GENERAL_NAMES_free         0004f0a4 f   libeay32:LIBEAY32.dll
 0001:0003e0b4       GENERAL_NAMES_new          0004f0b4 f   libeay32:LIBEAY32.dll
 0001:0003e0c4       a2i_GENERAL_NAME           0004f0c4 f   libeay32:LIBEAY32.dll
 0001:0003e0d4       CMS_ReceiptRequest_create0 0004f0d4 f   libeay32:LIBEAY32.dll
 0001:0003e0e4       i2d_CMS_bio_stream         0004f0e4 f   libeay32:LIBEAY32.dll
 0001:0003e0f4       PEM_write_bio_CMS_stream   0004f0f4 f   libeay32:LIBEAY32.dll
 0001:0003e104       SMIME_write_CMS            0004f104 f   libeay32:LIBEAY32.dll
 0001:0003e114       CMS_ContentInfo_print_ctx  0004f114 f   libeay32:LIBEAY32.dll
 0001:0003e124       CMS_verify_receipt         0004f124 f   libeay32:LIBEAY32.dll
 0001:0003e134       CMS_get0_signers           0004f134 f   libeay32:LIBEAY32.dll
 0001:0003e144       CMS_verify                 0004f144 f   libeay32:LIBEAY32.dll
 0001:0003e154       CMS_EncryptedData_decrypt  0004f154 f   libeay32:LIBEAY32.dll
 0001:0003e164       CMS_digest_verify          0004f164 f   libeay32:LIBEAY32.dll
 0001:0003e174       CMS_uncompress             0004f174 f   libeay32:LIBEAY32.dll
 0001:0003e184       CMS_data                   0004f184 f   libeay32:LIBEAY32.dll
 0001:0003e194       CMS_decrypt_set1_password  0004f194 f   libeay32:LIBEAY32.dll
 0001:0003e1a4       CMS_decrypt_set1_pkey      0004f1a4 f   libeay32:LIBEAY32.dll
 0001:0003e1b4       CMS_decrypt_set1_key       0004f1b4 f   libeay32:LIBEAY32.dll
 0001:0003e1c4       CMS_decrypt                0004f1c4 f   libeay32:LIBEAY32.dll
 0001:0003e1d4       CMS_add1_ReceiptRequest    0004f1d4 f   libeay32:LIBEAY32.dll
 0001:0003e1e4       CMS_add1_signer            0004f1e4 f   libeay32:LIBEAY32.dll
 0001:0003e1f4       CMS_set1_eContentType      0004f1f4 f   libeay32:LIBEAY32.dll
 0001:0003e204       CMS_sign                   0004f204 f   libeay32:LIBEAY32.dll
 0001:0003e214       CMS_sign_receipt           0004f214 f   libeay32:LIBEAY32.dll
 0001:0003e224       CMS_EncryptedData_encrypt  0004f224 f   libeay32:LIBEAY32.dll
 0001:0003e234       CMS_final                  0004f234 f   libeay32:LIBEAY32.dll
 0001:0003e244       CMS_add0_recipient_password 0004f244 f   libeay32:LIBEAY32.dll
 0001:0003e254       CMS_add0_recipient_key     0004f254 f   libeay32:LIBEAY32.dll
 0001:0003e264       CMS_encrypt                0004f264 f   libeay32:LIBEAY32.dll
 0001:0003e274       CMS_compress               0004f274 f   libeay32:LIBEAY32.dll
 0001:0003e284       CMS_digest_create          0004f284 f   libeay32:LIBEAY32.dll
 0001:0003e294       CMS_data_create            0004f294 f   libeay32:LIBEAY32.dll
 0001:0003e2a4       CMS_get1_certs             0004f2a4 f   libeay32:LIBEAY32.dll
 0001:0003e2b4       d2i_CMS_bio                0004f2b4 f   libeay32:LIBEAY32.dll
 0001:0003e2c4       PEM_read_bio_CMS           0004f2c4 f   libeay32:LIBEAY32.dll
 0001:0003e2d4       SMIME_read_CMS             0004f2d4 f   libeay32:LIBEAY32.dll
 0001:0003e2e4       CMS_ContentInfo_free       0004f2e4 f   libeay32:LIBEAY32.dll
 0001:0003e2f4       string_to_hex              0004f2f4 f   libeay32:LIBEAY32.dll
 0001:0003e304       ERR_print_errors_fp        0004f304 f   libeay32:LIBEAY32.dll
 0001:0003e314       ENGINE_init                0004f314 f   libeay32:LIBEAY32.dll
 0001:0003e324       ENGINE_get_pkey_meths      0004f324 f   libeay32:LIBEAY32.dll
 0001:0003e334       ENGINE_get_digests         0004f334 f   libeay32:LIBEAY32.dll
 0001:0003e344       ENGINE_get_ciphers         0004f344 f   libeay32:LIBEAY32.dll
 0001:0003e354       ENGINE_get_RAND            0004f354 f   libeay32:LIBEAY32.dll
 0001:0003e364       ENGINE_get_DH              0004f364 f   libeay32:LIBEAY32.dll
 0001:0003e374       ENGINE_get_DSA             0004f374 f   libeay32:LIBEAY32.dll
 0001:0003e384       ENGINE_get_RSA             0004f384 f   libeay32:LIBEAY32.dll
 0001:0003e394       ENGINE_get_name            0004f394 f   libeay32:LIBEAY32.dll
 0001:0003e3a4       ENGINE_get_next            0004f3a4 f   libeay32:LIBEAY32.dll
 0001:0003e3b4       ENGINE_get_first           0004f3b4 f   libeay32:LIBEAY32.dll
 0001:0003e3c4       OCSP_cert_id_new           0004f3c4 f   libeay32:LIBEAY32.dll
 0001:0003e3d4       X509_get0_pubkey_bitstr    0004f3d4 f   libeay32:LIBEAY32.dll
 0001:0003e3e4       OCSP_crl_reason_str        0004f3e4 f   libeay32:LIBEAY32.dll
 0001:0003e3f4       ASN1_GENERALIZEDTIME_print 0004f3f4 f   libeay32:LIBEAY32.dll
 0001:0003e404       OCSP_cert_status_str       0004f404 f   libeay32:LIBEAY32.dll
 0001:0003e414       OCSP_check_validity        0004f414 f   libeay32:LIBEAY32.dll
 0001:0003e424       OCSP_resp_find_status      0004f424 f   libeay32:LIBEAY32.dll
 0001:0003e434       BIO_new_accept             0004f434 f   libeay32:LIBEAY32.dll
 0001:0003e444       d2i_OCSP_REQUEST           0004f444 f   libeay32:LIBEAY32.dll
 0001:0003e454       OCSP_REQ_CTX_free          0004f454 f   libeay32:LIBEAY32.dll
 0001:0003e464       OCSP_sendreq_nbio          0004f464 f   libeay32:LIBEAY32.dll
 0001:0003e474       OCSP_REQ_CTX_set1_req      0004f474 f   libeay32:LIBEAY32.dll
 0001:0003e484       OCSP_REQ_CTX_add1_header   0004f484 f   libeay32:LIBEAY32.dll
 0001:0003e494       OCSP_sendreq_new           0004f494 f   libeay32:LIBEAY32.dll
 0001:0003e4a4       BIO_new_connect            0004f4a4 f   libeay32:LIBEAY32.dll
 0001:0003e4b4       OCSP_BASICRESP_free        0004f4b4 f   libeay32:LIBEAY32.dll
 0001:0003e4c4       OCSP_response_create       0004f4c4 f   libeay32:LIBEAY32.dll
 0001:0003e4d4       OCSP_basic_sign            0004f4d4 f   libeay32:LIBEAY32.dll
 0001:0003e4e4       OCSP_copy_nonce            0004f4e4 f   libeay32:LIBEAY32.dll
 0001:0003e4f4       OCSP_SINGLERESP_add1_ext_i2d 0004f4f4 f   libeay32:LIBEAY32.dll
 0001:0003e504       OCSP_basic_add1_status     0004f504 f   libeay32:LIBEAY32.dll
 0001:0003e514       OCSP_id_issuer_cmp         0004f514 f   libeay32:LIBEAY32.dll
 0001:0003e524       OCSP_id_get0_info          0004f524 f   libeay32:LIBEAY32.dll
 0001:0003e534       OCSP_onereq_get0_id        0004f534 f   libeay32:LIBEAY32.dll
 0001:0003e544       OCSP_request_onereq_get0   0004f544 f   libeay32:LIBEAY32.dll
 0001:0003e554       OCSP_BASICRESP_new         0004f554 f   libeay32:LIBEAY32.dll
 0001:0003e564       OCSP_request_onereq_count  0004f564 f   libeay32:LIBEAY32.dll
 0001:0003e574       OCSP_basic_verify          0004f574 f   libeay32:LIBEAY32.dll
 0001:0003e584       OCSP_check_nonce           0004f584 f   libeay32:LIBEAY32.dll
 0001:0003e594       OCSP_response_get1_basic   0004f594 f   libeay32:LIBEAY32.dll
 0001:0003e5a4       OCSP_response_status_str   0004f5a4 f   libeay32:LIBEAY32.dll
 0001:0003e5b4       OCSP_response_status       0004f5b4 f   libeay32:LIBEAY32.dll
 0001:0003e5c4       OCSP_RESPONSE_new          0004f5c4 f   libeay32:LIBEAY32.dll
 0001:0003e5d4       i2d_OCSP_REQUEST           0004f5d4 f   libeay32:LIBEAY32.dll
 0001:0003e5e4       OCSP_REQUEST_print         0004f5e4 f   libeay32:LIBEAY32.dll
 0001:0003e5f4       OCSP_request_sign          0004f5f4 f   libeay32:LIBEAY32.dll
 0001:0003e604       OCSP_request_add1_nonce    0004f604 f   libeay32:LIBEAY32.dll
 0001:0003e614       X509V3_add_value           0004f614 f   libeay32:LIBEAY32.dll
 0001:0003e624       BN_dec2bn                  0004f624 f   libeay32:LIBEAY32.dll
 0001:0003e634       BN_bn2dec                  0004f634 f   libeay32:LIBEAY32.dll
 0001:0003e644       BN_generate_prime_ex       0004f644 f   libeay32:LIBEAY32.dll
 0001:0003e654       EVP_DigestFinal            0004f654 f   libeay32:LIBEAY32.dll
 0001:0003e664       EVP_DigestInit             0004f664 f   libeay32:LIBEAY32.dll
 0001:0003e674       EVP_MD_size                0004f674 f   libeay32:LIBEAY32.dll
 0001:0003e684       TS_STATUS_INFO_free        0004f684 f   libeay32:LIBEAY32.dll
 0001:0003e694       TS_RESP_free               0004f694 f   libeay32:LIBEAY32.dll
 0001:0003e6a4       TS_TST_INFO_free           0004f6a4 f   libeay32:LIBEAY32.dll
 0001:0003e6b4       TS_RESP_set_tst_info       0004f6b4 f   libeay32:LIBEAY32.dll
 0001:0003e6c4       TS_RESP_set_status_info    0004f6c4 f   libeay32:LIBEAY32.dll
 0001:0003e6d4       TS_STATUS_INFO_new         0004f6d4 f   libeay32:LIBEAY32.dll
 0001:0003e6e4       TS_RESP_new                0004f6e4 f   libeay32:LIBEAY32.dll
 0001:0003e6f4       PKCS7_to_TS_TST_INFO       0004f6f4 f   libeay32:LIBEAY32.dll
 0001:0003e704       X509_ALGOR_free            0004f704 f   libeay32:LIBEAY32.dll
 0001:0003e714       TS_MSG_IMPRINT_free        0004f714 f   libeay32:LIBEAY32.dll
 0001:0003e724       TS_REQ_free                0004f724 f   libeay32:LIBEAY32.dll
 0001:0003e734       TS_REQ_set_cert_req        0004f734 f   libeay32:LIBEAY32.dll
 0001:0003e744       TS_REQ_set_nonce           0004f744 f   libeay32:LIBEAY32.dll
 0001:0003e754       TS_REQ_set_policy_id       0004f754 f   libeay32:LIBEAY32.dll
 0001:0003e764       TS_REQ_set_msg_imprint     0004f764 f   libeay32:LIBEAY32.dll
 0001:0003e774       TS_MSG_IMPRINT_set_msg     0004f774 f   libeay32:LIBEAY32.dll
 0001:0003e784       TS_MSG_IMPRINT_set_algo    0004f784 f   libeay32:LIBEAY32.dll
 0001:0003e794       ASN1_TYPE_new              0004f794 f   libeay32:LIBEAY32.dll
 0001:0003e7a4       X509_ALGOR_new             0004f7a4 f   libeay32:LIBEAY32.dll
 0001:0003e7b4       TS_MSG_IMPRINT_new         0004f7b4 f   libeay32:LIBEAY32.dll
 0001:0003e7c4       TS_REQ_set_version         0004f7c4 f   libeay32:LIBEAY32.dll
 0001:0003e7d4       TS_REQ_new                 0004f7d4 f   libeay32:LIBEAY32.dll
 0001:0003e7e4       TS_RESP_CTX_add_failure_info 0004f7e4 f   libeay32:LIBEAY32.dll
 0001:0003e7f4       TS_RESP_CTX_set_status_info 0004f7f4 f   libeay32:LIBEAY32.dll
 0001:0003e804       i2d_TS_REQ_bio             0004f804 f   libeay32:LIBEAY32.dll
 0001:0003e814       TS_REQ_print_bio           0004f814 f   libeay32:LIBEAY32.dll
 0001:0003e824       d2i_TS_REQ_bio             0004f824 f   libeay32:LIBEAY32.dll
 0001:0003e834       TS_RESP_CTX_free           0004f834 f   libeay32:LIBEAY32.dll
 0001:0003e844       TS_RESP_create_response    0004f844 f   libeay32:LIBEAY32.dll
 0001:0003e854       TS_CONF_set_ess_cert_id_chain 0004f854 f   libeay32:LIBEAY32.dll
 0001:0003e864       TS_CONF_set_tsa_name       0004f864 f   libeay32:LIBEAY32.dll
 0001:0003e874       TS_CONF_set_ordering       0004f874 f   libeay32:LIBEAY32.dll
 0001:0003e884       TS_CONF_set_clock_precision_digits 0004f884 f   libeay32:LIBEAY32.dll
 0001:0003e894       TS_CONF_set_accuracy       0004f894 f   libeay32:LIBEAY32.dll
 0001:0003e8a4       TS_CONF_set_digests        0004f8a4 f   libeay32:LIBEAY32.dll
 0001:0003e8b4       TS_CONF_set_policies       0004f8b4 f   libeay32:LIBEAY32.dll
 0001:0003e8c4       TS_CONF_set_def_policy     0004f8c4 f   libeay32:LIBEAY32.dll
 0001:0003e8d4       TS_CONF_set_signer_key     0004f8d4 f   libeay32:LIBEAY32.dll
 0001:0003e8e4       TS_CONF_set_certs          0004f8e4 f   libeay32:LIBEAY32.dll
 0001:0003e8f4       TS_CONF_set_signer_cert    0004f8f4 f   libeay32:LIBEAY32.dll
 0001:0003e904       TS_CONF_set_crypto_device  0004f904 f   libeay32:LIBEAY32.dll
 0001:0003e914       TS_CONF_set_serial         0004f914 f   libeay32:LIBEAY32.dll
 0001:0003e924       TS_RESP_CTX_new            0004f924 f   libeay32:LIBEAY32.dll
 0001:0003e934       TS_CONF_get_tsa_section    0004f934 f   libeay32:LIBEAY32.dll
 0001:0003e944       TS_VERIFY_CTX_free         0004f944 f   libeay32:LIBEAY32.dll
 0001:0003e954       TS_CONF_load_certs         0004f954 f   libeay32:LIBEAY32.dll
 0001:0003e964       TS_VERIFY_CTX_new          0004f964 f   libeay32:LIBEAY32.dll
 0001:0003e974       TS_REQ_to_TS_VERIFY_CTX    0004f974 f   libeay32:LIBEAY32.dll
 0001:0003e984       i2d_TS_RESP_bio            0004f984 f   libeay32:LIBEAY32.dll
 0001:0003e994       TS_RESP_get_token          0004f994 f   libeay32:LIBEAY32.dll
 0001:0003e9a4       TS_RESP_print_bio          0004f9a4 f   libeay32:LIBEAY32.dll
 0001:0003e9b4       TS_TST_INFO_print_bio      0004f9b4 f   libeay32:LIBEAY32.dll
 0001:0003e9c4       TS_RESP_get_tst_info       0004f9c4 f   libeay32:LIBEAY32.dll
 0001:0003e9d4       d2i_TS_RESP_bio            0004f9d4 f   libeay32:LIBEAY32.dll
 0001:0003e9e4       TS_RESP_verify_response    0004f9e4 f   libeay32:LIBEAY32.dll
 0001:0003e9f4       TS_RESP_verify_token       0004f9f4 f   libeay32:LIBEAY32.dll
 0001:0003ea04       SRP_create_verifier        0004fa04 f   libeay32:LIBEAY32.dll
 0001:0003ea14       SRP_get_default_gN         0004fa14 f   libeay32:LIBEAY32.dll
 0001:0003ea24       EVP_PKEY_asn1_get0         0004fa24 f   libeay32:LIBEAY32.dll
 0001:0003ea34       EVP_PKEY_asn1_get_count    0004fa34 f   libeay32:LIBEAY32.dll
 0001:0003ea44       EVP_CIPHER_do_all_sorted   0004fa44 f   libeay32:LIBEAY32.dll
 0001:0003ea54       lh_insert                  0004fa54 f   libeay32:LIBEAY32.dll
 0001:0003ea64       lh_new                     0004fa64 f   libeay32:LIBEAY32.dll
 0001:0003ea74       lh_retrieve                0004fa74 f   libeay32:LIBEAY32.dll
 0001:0003ea84       CRYPTO_mem_leaks           0004fa84 f   libeay32:LIBEAY32.dll
 0001:0003ea94       COMP_zlib_cleanup          0004fa94 f   libeay32:LIBEAY32.dll
 0001:0003eaa4       ERR_free_strings           0004faa4 f   libeay32:LIBEAY32.dll
 0001:0003eab4       ERR_remove_thread_state    0004fab4 f   libeay32:LIBEAY32.dll
 0001:0003eac4       CRYPTO_cleanup_all_ex_data 0004fac4 f   libeay32:LIBEAY32.dll
 0001:0003ead4       ENGINE_cleanup             0004fad4 f   libeay32:LIBEAY32.dll
 0001:0003eae4       EVP_cleanup                0004fae4 f   libeay32:LIBEAY32.dll
 0001:0003eaf4       CONF_modules_unload        0004faf4 f   libeay32:LIBEAY32.dll
 0001:0003eb04       lh_free                    0004fb04 f   libeay32:LIBEAY32.dll
 0001:0003eb14       ERR_peek_last_error        0004fb14 f   libeay32:LIBEAY32.dll
 0001:0003eb24       ENGINE_load_builtin_engines 0004fb24 f   libeay32:LIBEAY32.dll
 0001:0003eb34       CRYPTO_set_mem_functions   0004fb34 f   libeay32:LIBEAY32.dll
 0001:0003eb44       CRYPTO_set_locking_callback 0004fb44 f   libeay32:LIBEAY32.dll
 0001:0003eb54       CRYPTO_mem_ctrl            0004fb54 f   libeay32:LIBEAY32.dll
 0001:0003eb64       CRYPTO_set_mem_debug_options 0004fb64 f   libeay32:LIBEAY32.dll
 0001:0003eb74       CRYPTO_set_mem_debug_functions 0004fb74 f   libeay32:LIBEAY32.dll
 0001:0003eb84       CRYPTO_dbg_malloc          0004fb84 f   libeay32:LIBEAY32.dll
 0001:0003eb94       CRYPTO_dbg_realloc         0004fb94 f   libeay32:LIBEAY32.dll
 0001:0003eba4       CRYPTO_dbg_free            0004fba4 f   libeay32:LIBEAY32.dll
 0001:0003ebb4       CRYPTO_dbg_set_options     0004fbb4 f   libeay32:LIBEAY32.dll
 0001:0003ebc4       CRYPTO_dbg_get_options     0004fbc4 f   libeay32:LIBEAY32.dll
 0001:0003ebd4       closesocket                0004fbd4 f   winsock:WINSOCK.dll
 0001:0003ebe4       shutdown                   0004fbe4 f   winsock:WINSOCK.dll
 0001:0003ebf4       __WSAFDIsSet               0004fbf4 f   winsock:WINSOCK.dll
 0001:0003ec04       select                     0004fc04 f   winsock:WINSOCK.dll
 0001:0003ec14       getsockname                0004fc14 f   winsock:WINSOCK.dll
 0001:0003ec24       WSAStartup                 0004fc24 f   winsock:WINSOCK.dll
 0001:0003ec34       connect                    0004fc34 f   winsock:WINSOCK.dll
 0001:0003ec44       setsockopt                 0004fc44 f   winsock:WINSOCK.dll
 0001:0003ec54       socket                     0004fc54 f   winsock:WINSOCK.dll
 0001:0003ec64       htonl                      0004fc64 f   winsock:WINSOCK.dll
 0001:0003ec74       htons                      0004fc74 f   winsock:WINSOCK.dll
 0001:0003ec84       listen                     0004fc84 f   winsock:WINSOCK.dll
 0001:0003ec94       bind                       0004fc94 f   winsock:WINSOCK.dll
 0001:0003eca4       ntohs                      0004fca4 f   winsock:WINSOCK.dll
 0001:0003ecb4       gethostbyname              0004fcb4 f   winsock:WINSOCK.dll
 0001:0003ecc4       gethostbyaddr              0004fcc4 f   winsock:WINSOCK.dll
 0001:0003ecd4       accept                     0004fcd4 f   winsock:WINSOCK.dll
 0001:0003ece4       abort                      0004fce4 f   wcecompatex:stdlib_extras.obj
 0001:0003ecf4       perror                     0004fcf4 f   wcecompatex:stdio_extras.obj
 0001:0003ed54       _wceaccess                 0004fd54 f   wcecompatex:io.obj
 0001:0003ee2c       _wceread                   0004fe2c f   wcecompatex:io.obj
 0001:0003ee58       _wcewrite                  0004fe58 f   wcecompatex:io.obj
 0001:0003ee7c       getenv                     0004fe7c f   wcecompatex:env.obj
 0001:0003f248       w32_filetime_to_time_t     00050248 f   wcecompatex:time.obj
 0001:0003f2e8       time                       000502e8 f   wcecompatex:time.obj
 0001:0003f34c       _kbhit                     0005034c f   wcecompatex:conio.obj
 0001:0003f354       getservbyname              00050354 f   wcecompatex:winsock_extras.obj
 0001:0003f46c       ?unicode2ascii@@YAXPB_WPAD@Z 0005046c f   wcecompatex:ts_string.obj
 0001:0003f4c0       ?ascii2unicode@@YAXPBDPA_WH@Z 000504c0 f   wcecompatex:ts_string.obj
 0001:0003f560       ?unicode2ascii@@YAXPB_WPADH@Z 00050560 f   wcecompatex:ts_string.obj
 0001:0003f5f0       fprintf                    000505f0 f   coredll:COREDLL.dll
 0001:0003f600       _getstdfilex               00050600 f   coredll:COREDLL.dll
 0001:0003f610       printf                     00050610 f   coredll:COREDLL.dll
 0001:0003f620       strcmp                     00050620 f   coredll:COREDLL.dll
 0001:0003f630       atoi                       00050630 f   coredll:COREDLL.dll
 0001:0003f640       strlen                     00050640 f   coredll:COREDLL.dll
 0001:0003f650       atol                       00050650 f   coredll:COREDLL.dll
 0001:0003f660       strchr                     00050660 f   coredll:COREDLL.dll
 0001:0003f670       strncmp                    00050670 f   coredll:COREDLL.dll
 0001:0003f680       fgets                      00050680 f   coredll:COREDLL.dll
 0001:0003f690       sscanf                     00050690 f   coredll:COREDLL.dll
 0001:0003f6a0       _isctype                   000506a0 f   coredll:COREDLL.dll
 0001:0003f6b0       memset                     000506b0 f   coredll:COREDLL.dll
 0001:0003f6c0       setvbuf                    000506c0 f   coredll:COREDLL.dll
 0001:0003f6d0       fclose                     000506d0 f   coredll:COREDLL.dll
 0001:0003f6e0       fopen                      000506e0 f   coredll:COREDLL.dll
 0001:0003f6f0       memcmp                     000506f0 f   coredll:COREDLL.dll
 0001:0003f700       strncat                    00050700 f   coredll:COREDLL.dll
 0001:0003f710       toupper                    00050710 f   coredll:COREDLL.dll
 0001:0003f720       memcpy                     00050720 f   coredll:COREDLL.dll
 0001:0003f730       _stricmp                   00050730 f   coredll:COREDLL.dll
 0001:0003f740       strcpy                     00050740 f   coredll:COREDLL.dll
 0001:0003f750       strstr                     00050750 f   coredll:COREDLL.dll
 0001:0003f760       Sleep                      00050760 f   coredll:COREDLL.dll
 0001:0003f770       CloseHandle                00050770 f   coredll:COREDLL.dll
 0001:0003f780       TerminateProcess           00050780 f   coredll:COREDLL.dll
 0001:0003f790       GetLastError               00050790 f   coredll:COREDLL.dll
 0001:0003f7a0       CreateThread               000507a0 f   coredll:COREDLL.dll
 0001:0003f7b0       fflush                     000507b0 f   coredll:COREDLL.dll
 0001:0003f7c0       fputc                      000507c0 f   coredll:COREDLL.dll
 0001:0003f7d0       free                       000507d0 f   coredll:COREDLL.dll
 0001:0003f7e0       DeleteFileW                000507e0 f   coredll:COREDLL.dll
 0001:0003f7f0       MoveFileW                  000507f0 f   coredll:COREDLL.dll
 0001:0003f800       MultiByteToWideChar        00050800 f   coredll:COREDLL.dll
 0001:0003f810       malloc                     00050810 f   coredll:COREDLL.dll
 0001:0003f820       SystemTimeToFileTime       00050820 f   coredll:COREDLL.dll
 0001:0003f830       GetSystemTime              00050830 f   coredll:COREDLL.dll
 0001:0003f840       FindClose                  00050840 f   coredll:COREDLL.dll
 0001:0003f850       FindFirstFileW             00050850 f   coredll:COREDLL.dll
 0001:0003f860       _fileno                    00050860 f   coredll:COREDLL.dll
 0001:0003f870       strspn                     00050870 f   coredll:COREDLL.dll
 0001:0003f880       qsort                      00050880 f   coredll:COREDLL.dll
 0001:0003f890       fputs                      00050890 f   coredll:COREDLL.dll
 0001:0003f8a0       realloc                    000508a0 f   coredll:COREDLL.dll
 0001:0003f8b0       mbstowcs                   000508b0 f   coredll:COREDLL.dll
 0001:0003f8c0       _wfopen                    000508c0 f   coredll:COREDLL.dll
 0001:0003f8d0       ReadFile                   000508d0 f   coredll:COREDLL.dll
 0001:0003f8e0       WriteFile                  000508e0 f   coredll:COREDLL.dll
 0001:0003f8f0       _strnicmp                  000508f0 f   coredll:COREDLL.dll
 0001:0003f900       _cinit                     00050900 f   corelibc:crt0dat.obj
 0001:0003fa70       exit                       00050a70 f   corelibc:crt0dat.obj
 0001:0003fa90       WinMainCRTStartup          00050a90 f   corelibc:pegwmain.obj
 0001:0003fb04       WSAGetLastError            00050b04 f   Ws2:WS2.dll
 0001:0003fb14       WinMain                    00050b14 f   wcecompatex:winmain.obj
 0001:0003fe70       ?processCmdLine@@YAHPA_WPAPAPAD@Z 00050e70 f   wcecompatex:args.obj
 0001:000402ac       LocalFree                  000512ac f   coredll:COREDLL.dll
 0001:000402bc       _XcptFilter                000512bc f   coredll:COREDLL.dll
 0001:000402cc       __C_specific_handler       000512cc f   coredll:COREDLL.dll
 0001:000402dc       FindNextFileW              000512dc f   coredll:COREDLL.dll
 0001:000402ec       strrchr                    000512ec f   coredll:COREDLL.dll
 0001:000402fc       GetModuleFileNameW         000512fc f   coredll:COREDLL.dll
 0001:0004030c       strncpy                    0005130c f   coredll:COREDLL.dll
 0002:00000000       ??_C@_03JLOMOCCD@OK?6?$AA@ 00052000     verify.obj
 0002:00000004       ??_C@_04PFAOODAA@?$CFs?3?5?$AA@ 00052004     verify.obj
 0002:0000000c       ??_C@_05MHOFLBOO@stdin?$AA@ 0005200c     verify.obj
 0002:00000014       ??_C@_0BB@ODBFPAJB@certificate?5file?$AA@ 00052014     verify.obj
 0002:00000028       ??_C@_0CC@ELIKHEHP@?$CFserror?5?$CFd?5at?5?$CFd?5depth?5lookup?3?$CFs@ 00052028     verify.obj
 0002:0000004a       ??_C@_00CNPNBAHC@?$AA@     0005204a     verify.obj
 0002:0000004c       ??_C@_0L@FFLNPCGI@?$FLCRL?5path?$FN?$AA@ 0005204c     verify.obj
 0002:00000058       ??_C@_01EEMJAFIK@?6?$AA@   00052058     verify.obj
 0002:0000005c       ??_C@_0L@GPOJFHNG@?7?$CF?910s?7?$CFs?6?$AA@ 0005205c     verify.obj
 0002:00000068       ??_C@_0FH@MLFLDGNL@usage?3?5verify?5?$FL?9verbose?$FN?5?$FL?9CApat@ 00052068     verify.obj
 0002:000000c0       ??_C@_0BF@OCMDGHPI@?5?$FL?9attime?5timestamp?$FN?$AA@ 000520c0     verify.obj
 0002:000000d8       ??_C@_0N@KGGMOIDH@?5?$FL?9engine?5e?$FN?$AA@ 000520d8     verify.obj
 0002:000000e8       ??_C@_0BC@PPMFFMNJ@?5cert1?5cert2?5?4?4?4?6?$AA@ 000520e8     verify.obj
 0002:000000fc       ??_C@_0BE@JFOOIHKN@recognized?5usages?3?6?$AA@ 000520fc     verify.obj
 0002:00000110       ??_C@_0L@KINIPLHJ@other?5CRLs?$AA@ 00052110     verify.obj
 0002:0000011c       ??_C@_0BF@JDMECOPM@trusted?5certificates?$AA@ 0005211c     verify.obj
 0002:00000134       ??_C@_0BH@LEHBNKBE@untrusted?5certificates?$AA@ 00052134     verify.obj
 0002:0000014c       ??_C@_0BM@OKGFCOK@Error?5loading?5directory?5?$CFs?6?$AA@ 0005214c     verify.obj
 0002:00000168       ??_C@_0BH@FHLAEOCH@Error?5loading?5file?5?$CFs?6?$AA@ 00052168     verify.obj
 0002:00000180       ??_C@_08FBJJFDKJ@?9verbose?$AA@ 00052180     verify.obj
 0002:0000018c       ??_C@_05DOEHDILL@?9help?$AA@ 0005218c     verify.obj
 0002:00000194       ??_C@_07CECBDAGF@?9engine?$AA@ 00052194     verify.obj
 0002:0000019c       ??_C@_08IJBOOOA@?9CRLfile?$AA@ 0005219c     verify.obj
 0002:000001a8       ??_C@_08HHOIEGAD@?9trusted?$AA@ 000521a8     verify.obj
 0002:000001b4       ??_C@_0L@EABBFAIP@?9untrusted?$AA@ 000521b4     verify.obj
 0002:000001c0       ??_C@_07EAFCHGPO@?9CAfile?$AA@ 000521c0     verify.obj
 0002:000001c8       ??_C@_07MNNNLALG@?9CApath?$AA@ 000521c8     verify.obj
 0002:000001d0       ??_C@_0BL@GBCDOIAD@Can?8t?5find?5?8asn1?8?5in?5?8?$CFs?8?6?$AA@ 000521d0     asn1pars.obj
 0002:000001ec       ??_C@_04GABBLIPF@asn1?$AA@ 000521ec     asn1pars.obj
 0002:000001f4       ??_C@_07DLHCIBDH@default?$AA@ 000521f4     asn1pars.obj
 0002:000001fc       ??_C@_0CA@HAIDJJND@Error?5loading?5config?5file?5?8?$CFs?8?6?$AA@ 000521fc     asn1pars.obj
 0002:0000021c       ??_C@_0CH@KIGFJELC@Error?5on?5line?5?$CFld?5of?5config?5file@ 0005221c     asn1pars.obj
 0002:00000244       ??_C@_0BG@CMAEKHNL@Error?5writing?5output?6?$AA@ 00052244     asn1pars.obj
 0002:0000025c       ??_C@_0BJ@GHNAHJMH@Error?3?5offset?5too?5large?6?$AA@ 0005225c     asn1pars.obj
 0002:00000278       ??_C@_0BF@FGOIGBCH@Can?8t?5parse?5?$CFs?5type?6?$AA@ 00052278     asn1pars.obj
 0002:00000290       ??_C@_06IAMCMNFI@OBJECT?$AA@ 00052290     asn1pars.obj
 0002:00000298       ??_C@_04HIBGFPH@NULL?$AA@  00052298     asn1pars.obj
 0002:000002a0       ??_C@_0BJ@MMFDFGIJ@Error?5parsing?5structure?6?$AA@ 000522a0     asn1pars.obj
 0002:000002bc       ??_C@_0BL@PAMBLJOI@?8?$CFs?8?5is?5an?5invalid?5number?6?$AA@ 000522bc     asn1pars.obj
 0002:000002d8       ??_C@_02GMLFBBN@wb?$AA@    000522d8     asn1pars.obj
 0002:000002dc       ??_C@_0BF@JLLBIOKH@problems?5opening?5?$CFs?6?$AA@ 000522dc     asn1pars.obj
 0002:000002f4       ??_C@_0BG@LBBCACMP@?$CFs?5?$FLoptions?$FN?5?$DMinfile?6?$AA@ 000522f4     asn1pars.obj
 0002:0000030c       ??_C@_0BD@KHANLAHK@where?5options?5are?6?$AA@ 0005230c     asn1pars.obj
 0002:00000320       ??_C@_0CO@HFLABMMF@?5?9inform?5arg?5?5?5input?5format?5?9?5on@ 00052320     asn1pars.obj
 0002:00000350       ??_C@_0BL@EHLIKLH@?5?9in?5arg?5?5?5?5?5?5?5input?5file?6?$AA@ 00052350     asn1pars.obj
 0002:0000036c       ??_C@_0DJ@MLOHNHDK@?5?9out?5arg?5?5?5?5?5?5output?5file?5?$CIoutp@ 0005236c     asn1pars.obj
 0002:000003a8       ??_C@_0CJ@IOADOFE@?5?9noout?5arg?5?5?5?5don?8t?5produce?5any@ 000523a8     asn1pars.obj
 0002:000003d4       ??_C@_0CB@GGAMJLJM@?5?9offset?5arg?5?5?5offset?5into?5file?6@ 000523d4     asn1pars.obj
 0002:000003f8       ??_C@_0CK@NKLHOAGK@?5?9length?5arg?5?5?5length?5of?5section@ 000523f8     asn1pars.obj
 0002:00000424       ??_C@_0BP@EFCMLCEL@?5?9i?5?5?5?5?5?5?5?5?5?5?5?5indent?5entries?6?$AA@ 00052424     asn1pars.obj
 0002:00000444       ??_C@_0CO@HALDDFJB@?5?9dump?5?5?5?5?5?5?5?5?5dump?5unknown?5data@ 00052444     asn1pars.obj
 0002:00000478       ??_C@_0EF@JGHIMIPF@?5?9dlimit?5arg?5?5?5dump?5the?5first?5ar@ 00052478     asn1pars.obj
 0002:000004c0       ??_C@_0CO@LHOJCFFH@?5?9oid?5file?5?5?5?5?5file?5of?5extra?5oid@ 000524c0     asn1pars.obj
 0002:000004f0       ??_C@_0BD@DICEHCDM@?5?9strparse?5offset?6?$AA@ 000524f0     asn1pars.obj
 0002:00000508       ??_C@_0EF@DIJAOLDJ@?5?5?5?5?5?5?5?5?5?5?5?5?5?5?5a?5series?5of?5these@ 00052508     asn1pars.obj
 0002:00000550       ??_C@_0CE@LJCHICFI@?5?5?5?5?5?5?5?5?5?5?5?5?5?5?5ASN1?5blob?5wrappin@ 00052550     asn1pars.obj
 0002:00000574       ??_C@_0DH@JNFBKEFG@?5?9genstr?5str?5?5?5string?5to?5generat@ 00052574     asn1pars.obj
 0002:000005ac       ??_C@_0DF@CAGGOFNO@?5?9genconf?5file?5file?5to?5generate?5@ 000525ac     asn1pars.obj
 0002:000005e4       ??_C@_0BD@NFDCLIJC@unknown?5option?5?$CFs?6?$AA@ 000525e4     asn1pars.obj
 0002:000005f8       ??_C@_08JHCPOKKM@?9genconf?$AA@ 000525f8     asn1pars.obj
 0002:00000604       ??_C@_07PPPPKGDF@?9genstr?$AA@ 00052604     asn1pars.obj
 0002:0000060c       ??_C@_09BMGOMMFB@?9strparse?$AA@ 0005260c     asn1pars.obj
 0002:00000618       ??_C@_07KJFKIGHJ@?9dlimit?$AA@ 00052618     asn1pars.obj
 0002:00000620       ??_C@_05KKGMOIBC@?9dump?$AA@ 00052620     asn1pars.obj
 0002:00000628       ??_C@_07JCKOMINM@?9length?$AA@ 00052628     asn1pars.obj
 0002:00000630       ??_C@_07DBEKLPPM@?9offset?$AA@ 00052630     asn1pars.obj
 0002:00000638       ??_C@_04CFFOFKAO@?9oid?$AA@ 00052638     asn1pars.obj
 0002:00000640       ??_C@_06JPEJAHHH@?9noout?$AA@ 00052640     asn1pars.obj
 0002:00000648       ??_C@_02IEBECDLA@?9i?$AA@  00052648     asn1pars.obj
 0002:0000064c       ??_C@_04HKKABCEL@?9out?$AA@ 0005264c     asn1pars.obj
 0002:00000654       ??_C@_03DAJLOBIG@?9in?$AA@ 00052654     asn1pars.obj
 0002:00000658       ??_C@_07CGGPPMGB@?9inform?$AA@ 00052658     asn1pars.obj
 0002:00000660       ??_C@_0BL@GIPEOCEI@Memory?5allocation?5failure?6?$AA@ 00052660     asn1pars.obj
 0002:0000067c       ??_C@_0CM@HMOKPNGJ@error?0?5no?5objects?5specified?5in?5c@ 0005267c     req.obj
 0002:000006a8       ??_C@_0DN@BNGDLEBM@string?5is?5too?5long?0?5it?5needs?5to?5@ 000526a8     req.obj
 0002:000006e8       ??_C@_0DM@OAAMIENP@string?5is?5too?5short?0?5it?5needs?5to@ 000526e8     req.obj
 0002:00000724       ??_C@_0BL@NALFDFOL@Error?5setting?5RSA?5keysize?6?$AA@ 00052724     req.obj
 0002:00000740       ??_C@_0CD@NAAIIFFH@Error?5initializing?5keygen?5contex@ 00052740     req.obj
 0002:00000764       ??_C@_0CB@JOGMMGKM@Error?5allocating?5keygen?5context?6@ 00052764     req.obj
 0002:00000788       ??_C@_0CK@PFJPPKAI@Internal?5error?3?5can?8t?5find?5key?5a@ 00052788     req.obj
 0002:000007b4       ??_C@_0CE@PONHIOIP@Key?5Type?5does?5not?5match?5paramete@ 000527b4     req.obj
 0002:000007d8       ??_C@_0CB@EHHPGCBO@Error?5reading?5parameter?5file?5?$CFs?6@ 000527d8     req.obj
 0002:000007fc       ??_C@_0BO@HEFFFKLO@Can?8t?5open?5parameter?5file?5?$CFs?6?$AA@ 000527fc     req.obj
 0002:0000081c       ??_C@_01KDCPPGHE@r?$AA@    0005281c     req.obj
 0002:00000820       ??_C@_0BI@KBEAOALA@Unknown?5algorithm?5?$CF?4?$CKs?6?$AA@ 00052820     req.obj
 0002:00000838       ??_C@_06CIHNIJJG@param?3?$AA@ 00052838     req.obj
 0002:00000840       ??_C@_0BG@BFCDNIFL@parameter?5error?5?$CC?$CFs?$CC?6?$AA@ 00052840     req.obj
 0002:00000858       ??_C@_0BB@ECEPLLPI@weird?5input?5?3?9?$CI?6?$AA@ 00052858     req.obj
 0002:0000086c       ??_C@_03OFAPEBGM@?$CFs?6?$AA@ 0005286c     req.obj
 0002:00000870       ??_C@_08GLNNLHPK@?$CFs?5?$FL?$CFs?$FN?3?$AA@ 00052870     req.obj
 0002:0000087c       ??_C@_0BI@FKDLMMKK@Error?5adding?5attribute?6?$AA@ 0005287c     req.obj
 0002:00000894       ??_C@_0CB@BHIPIDOI@No?5template?0?5please?5set?5one?5up?4?6@ 00052894     req.obj
 0002:000008b8       ??_C@_0BE@OBIMKCEG@Name?5?8?$CFs?8?5too?5long?6?$AA@ 000528b8     req.obj
 0002:000008cc       ??_C@_0DA@LBPPIBMC@?6Please?5enter?5the?5following?5?8ext@ 000528cc     req.obj
 0002:000008fc       ??_C@_0CK@LOFFOKNE@to?5be?5sent?5with?5your?5certificate@ 000528fc     req.obj
 0002:00000928       ??_C@_06KPFMGMPI@?$CFs_max?$AA@ 00052928     req.obj
 0002:00000930       ??_C@_06LNNHIIJH@?$CFs_min?$AA@ 00052930     req.obj
 0002:00000938       ??_C@_08GELLOOFD@?$CFs_value?$AA@ 00052938     req.obj
 0002:00000944       ??_C@_0L@HCIJHMBL@?$CFs_default?$AA@ 00052944     req.obj
 0002:00000950       ??_C@_06PFGHHEBM@_value?$AA@ 00052950     req.obj
 0002:00000958       ??_C@_08BFLCMEFH@_default?$AA@ 00052958     req.obj
 0002:00000964       ??_C@_04OECBCNMP@_max?$AA@ 00052964     req.obj
 0002:0000096c       ??_C@_04PGKKMJKA@_min?$AA@ 0005296c     req.obj
 0002:00000978       ??_C@_0EK@HLOABFDI@You?5are?5about?5to?5be?5asked?5to?5ent@ 00052978     req.obj
 0002:000009c4       ??_C@_0CA@NLCOFKOK@into?5your?5certificate?5request?4?6?$AA@ 000529c4     req.obj
 0002:000009e8       ??_C@_0EN@MLJBJLJF@What?5you?5are?5about?5to?5enter?5is?5w@ 000529e8     req.obj
 0002:00000a38       ??_C@_0DL@EDIBKDAI@There?5are?5quite?5a?5few?5fields?5but@ 00052a38     req.obj
 0002:00000a74       ??_C@_0DA@HANEDLAF@For?5some?5fields?5there?5will?5be?5a?5@ 00052a74     req.obj
 0002:00000aa4       ??_C@_0DB@OHAINGEA@If?5you?5enter?5?8?4?8?0?5the?5field?5will@ 00052aa4     req.obj
 0002:00000ad8       ??_C@_06NGLIMPFK@?9?9?9?9?9?6?$AA@ 00052ad8     req.obj
 0002:00000ae0       ??_C@_0L@HNMJPKNA@attributes?$AA@ 00052ae0     req.obj
 0002:00000aec       ??_C@_0BM@NEMCEOPF@unable?5to?5get?5?8?$CFs?8?5section?6?$AA@ 00052aec     req.obj
 0002:00000b08       ??_C@_0BP@NEGAOIHA@unable?5to?5find?5?8?$CFs?8?5in?5config?6?$AA@ 00052b08     req.obj
 0002:00000b28       ??_C@_0BD@OKKOOBH@distinguished_name?$AA@ 00052b28     req.obj
 0002:00000b3c       ??_C@_02KAJCLHKP@no?$AA@   00052b3c     req.obj
 0002:00000b40       ??_C@_06FJNEHIA@prompt?$AA@ 00052b40     req.obj
 0002:00000b48       ??_C@_03GHLFAJII@req?$AA@  00052b48     req.obj
 0002:00000b4c       ??_C@_0CC@GEADPADN@unable?5to?5write?5X509?5certificate@ 00052b4c     req.obj
 0002:00000b70       ??_C@_0CJ@JNEPIEPI@bad?5output?5format?5specified?5for?5@ 00052b70     req.obj
 0002:00000b9c       ??_C@_0BO@BMBGMBGL@unable?5to?5write?5X509?5request?6?$AA@ 00052b9c     req.obj
 0002:00000bbc       ??_C@_0BF@JNOIECJP@Wrong?5Algorithm?5type?$AA@ 00052bbc     req.obj
 0002:00000bd4       ??_C@_08CHIKBNMH@Modulus?$DN?$AA@ 00052bd4     req.obj
 0002:00000be0       ??_C@_0BF@HHKPFLJJ@Modulus?$DNunavailable?6?$AA@ 00052be0     req.obj
 0002:00000bf8       ??_C@_08MAHPNCKH@subject?$DN?$AA@ 00052bf8     req.obj
 0002:00000c04       ??_C@_0BK@GNCDDMAG@Error?5getting?5public?5key?6?$AA@ 00052c04     req.obj
 0002:00000c20       ??_C@_0L@OEANIBEG@verify?5OK?6?$AA@ 00052c20     req.obj
 0002:00000c2c       ??_C@_0BA@HHOHOMNK@verify?5failure?6?$AA@ 00052c2c     req.obj
 0002:00000c3c       ??_C@_0N@PFKCAJNN@new?5subject?$DN?$AA@ 00052c3c     req.obj
 0002:00000c4c       ??_C@_0BO@BCHAKGEI@ERROR?3?5cannot?5modify?5subject?6?$AA@ 00052c4c     req.obj
 0002:00000c6c       ??_C@_0BN@CAIPGNIG@Modifying?5Request?8s?5Subject?6?$AA@ 00052c6c     req.obj
 0002:00000c8c       ??_C@_0N@ICIJEIAD@old?5subject?$DN?$AA@ 00052c8c     req.obj
 0002:00000c9c       ??_C@_0CE@GJDHAICG@Cannot?5modifiy?5certificate?5subje@ 00052c9c     req.obj
 0002:00000cc0       ??_C@_0CF@JJEMGJAP@problems?5making?5Certificate?5Requ@ 00052cc0     req.obj
 0002:00000ce8       ??_C@_0CD@LIJJNJII@you?5need?5to?5specify?5a?5private?5ke@ 00052ce8     req.obj
 0002:00000d0c       ??_C@_0CN@JGBMBJMK@bad?5input?5format?5specified?5for?5X@ 00052d0c     req.obj
 0002:00000d3c       ??_C@_0BN@CMIEOFLN@unable?5to?5load?5X509?5request?6?$AA@ 00052d3c     req.obj
 0002:00000d5c       ??_C@_0M@PLLNDNLN@encrypt_key?$AA@ 00052d5c     req.obj
 0002:00000d68       ??_C@_0BA@NGFFPLIL@encrypt_rsa_key?$AA@ 00052d68     req.obj
 0002:00000d78       ??_C@_0CB@LGKDEPPP@writing?5new?5private?5key?5to?5?8?$CFs?8?6@ 00052d78     req.obj
 0002:00000d9c       ??_C@_0CD@MNJCLBII@writing?5new?5private?5key?5to?5stdou@ 00052d9c     req.obj
 0002:00000dc0       ??_C@_0BA@ONKAAELM@default_keyfile?$AA@ 00052dc0     req.obj
 0002:00000dd0       ??_C@_0BG@HLDNBPLC@Error?5Generating?5Key?6?$AA@ 00052dd0     req.obj
 0002:00000de8       ??_C@_0CF@BBJFODEP@Generating?5a?5?$CFld?5bit?5?$CFs?5private?5@ 00052de8     req.obj
 0002:00000e10       ??_C@_0CC@ELOKEOPP@private?5key?5length?5is?5too?5short?0@ 00052e10     req.obj
 0002:00000e34       ??_C@_0CK@DBFJKCLJ@it?5needs?5to?5be?5at?5least?5?$CFd?5bits?0@ 00052e34     req.obj
 0002:00000e60       ??_C@_0N@CCMNCKPB@default_bits?$AA@ 00052e60     req.obj
 0002:00000e70       ??_C@_08OFLJHDDG@RANDFILE?$AA@ 00052e70     req.obj
 0002:00000e7c       ??_C@_0M@NBDOOMPD@Private?5Key?$AA@ 00052e7c     req.obj
 0002:00000e88       ??_C@_0CM@FAJMBBDK@Error?5Loading?5request?5extension?5@ 00052e88     req.obj
 0002:00000eb4       ??_C@_0P@LBFPKDKM@req_extensions?$AA@ 00052eb4     req.obj
 0002:00000ec4       ??_C@_03ICICOMAL@yes?$AA@  00052ec4     req.obj
 0002:00000ec8       ??_C@_04LHHHFLPP@utf8?$AA@ 00052ec8     req.obj
 0002:00000ed0       ??_C@_0CH@PNKCABBA@Invalid?5global?5string?5mask?5setti@ 00052ed0     req.obj
 0002:00000ef8       ??_C@_0M@NPFHBEIA@string_mask?$AA@ 00052ef8     req.obj
 0002:00000f04       ??_C@_0BA@KAIJGPIE@output_password?$AA@ 00052f04     req.obj
 0002:00000f14       ??_C@_0P@JJFIBNNH@input_password?$AA@ 00052f14     req.obj
 0002:00000f24       ??_C@_0CE@CEBANHFH@Error?5Loading?5extension?5section?5@ 00052f24     req.obj
 0002:00000f48       ??_C@_0BA@DDJOFEBJ@x509_extensions?$AA@ 00052f48     req.obj
 0002:00000f58       ??_C@_0L@GPEHKDBA@default_md?$AA@ 00052f58     req.obj
 0002:00000f64       ??_C@_08NOLCFLKC@oid_file?$AA@ 00052f64     req.obj
 0002:00000f70       ??_C@_0CE@EDEOOKJA@Unable?5to?5load?5config?5info?5from?5@ 00052f70     req.obj
 0002:00000f94       ??_C@_0BJ@BNDHOAPM@error?5on?5line?5?$CFld?5of?5?$CFs?6?$AA@ 00052f94     req.obj
 0002:00000fb0       ??_C@_0BN@DBMBACJB@Using?5configuration?5from?5?$CFs?6?$AA@ 00052fb0     req.obj
 0002:00000fd0       ??_C@_0BJ@GIECAOMO@Error?5getting?5passwords?6?$AA@ 00052fd0     req.obj
 0002:00000fec       ??_C@_0BP@OGEEJGDD@?$CFs?5?$FLoptions?$FN?5?$DMinfile?5?$DOoutfile?6?$AA@ 00052fec     req.obj
 0002:0000100c       ??_C@_0BE@CHJJKKLI@where?5options?5?5are?6?$AA@ 0005300c     req.obj
 0002:00001020       ??_C@_0CL@MDOLAFAK@?5?9inform?5arg?5?5?5?5input?5format?5?9?5D@ 00053020     req.obj
 0002:0000104c       ??_C@_0CM@OEOKNGNO@?5?9outform?5arg?5?5?5output?5format?5?9?5@ 0005304c     req.obj
 0002:00001078       ??_C@_0BM@BNDOLEGE@?5?9in?5arg?5?5?5?5?5?5?5?5input?5file?6?$AA@ 00053078     req.obj
 0002:00001094       ??_C@_0BN@NLKPGMME@?5?9out?5arg?5?5?5?5?5?5?5output?5file?6?$AA@ 00053094     req.obj
 0002:000010b4       ??_C@_0CG@OIEFBBAO@?5?9text?5?5?5?5?5?5?5?5?5?5text?5form?5of?5req@ 000530b4     req.obj
 0002:000010dc       ??_C@_0CD@KGCNKBCD@?5?9pubkey?5?5?5?5?5?5?5?5output?5public?5ke@ 000530dc     req.obj
 0002:00001100       ??_C@_0CD@JIDAIBMD@?5?9noout?5?5?5?5?5?5?5?5?5do?5not?5output?5RE@ 00053100     req.obj
 0002:00001124       ??_C@_0CJ@ICFAPLND@?5?9verify?5?5?5?5?5?5?5?5verify?5signature@ 00053124     req.obj
 0002:00001150       ??_C@_0BN@LLCCILG@?5?9modulus?5?5?5?5?5?5?5RSA?5modulus?6?$AA@ 00053150     req.obj
 0002:00001170       ??_C@_0CO@NLDNMACB@?5?9nodes?5?5?5?5?5?5?5?5?5don?8t?5encrypt?5th@ 00053170     req.obj
 0002:000011a0       ??_C@_0DK@BPMBDPII@?5?9engine?5e?5?5?5?5?5?5use?5engine?5e?0?5po@ 000531a0     req.obj
 0002:000011dc       ??_C@_0CO@MFDIAJIM@?5?9subject?5?5?5?5?5?5?5output?5the?5reque@ 000531dc     req.obj
 0002:0000120c       ??_C@_0CN@MLPHKBCF@?5?9passin?5?5?5?5?5?5?5?5private?5key?5pass@ 0005320c     req.obj
 0002:0000123c       ??_C@_0DH@PKGEJNOC@?5?9key?5file?5?5?5?5?5?5use?5the?5private?5@ 0005323c     req.obj
 0002:00001274       ??_C@_0CB@LMHDCKJL@?5?9keyform?5arg?5?5?5key?5file?5format?6@ 00053274     req.obj
 0002:00001298       ??_C@_0CJ@EOJCAFHI@?5?9keyout?5arg?5?5?5?5file?5to?5send?5the@ 00053298     req.obj
 0002:000012c4       ??_C@_0BI@HHIJKENB@?5?9rand?5file?$CFcfile?$CFc?4?4?4?6?$AA@ 000532c4     req.obj
 0002:000012e0       ??_C@_0EE@JPAFCFML@?5?5?5?5?5?5?5?5?5?5?5?5?5?5?5?5load?5the?5file?5?$CIo@ 000532e0     req.obj
 0002:00001324       ??_C@_0CN@EKAIOOCB@?5?5?5?5?5?5?5?5?5?5?5?5?5?5?5?5the?5random?5numbe@ 00053324     req.obj
 0002:00001354       ??_C@_0DM@GHAGNPLI@?5?9newkey?5rsa?3bits?5generate?5a?5new@ 00053354     req.obj
 0002:00001390       ??_C@_0EO@CNJNIGKO@?5?9newkey?5dsa?3file?5generate?5a?5new@ 00053390     req.obj
 0002:000013e0       ??_C@_0EM@PADDHLNP@?5?9newkey?5ec?3file?5generate?5a?5new?5@ 000533e0     req.obj
 0002:00001430       ??_C@_0EB@IEFBPBDC@?5?9?$FLdigest?$FN?5?5?5?5?5?5Digest?5to?5sign?5w@ 00053430     req.obj
 0002:00001474       ??_C@_0CI@DIABMJEF@?5?9config?5file?5?5?5request?5template@ 00053474     req.obj
 0002:0000149c       ??_C@_0CP@HCNCEBKD@?5?9subj?5arg?5?5?5?5?5?5set?5or?5modify?5re@ 0005349c     req.obj
 0002:000014cc       ??_C@_0DG@CNHPGMNH@?5?9multivalue?9rdn?5enable?5support?5@ 000534cc     req.obj
 0002:00001504       ??_C@_0BO@NIINFKKJ@?5?9new?5?5?5?5?5?5?5?5?5?5?5new?5request?4?6?$AA@ 00053504     req.obj
 0002:00001524       ??_C@_0DP@HGDJHLP@?5?9batch?5?5?5?5?5?5?5?5?5do?5not?5ask?5anyth@ 00053524     req.obj
 0002:00001568       ??_C@_0EB@BKMGOBMN@?5?9x509?5?5?5?5?5?5?5?5?5?5output?5a?5x509?5st@ 00053568     req.obj
 0002:000015b0       ??_C@_0EP@BJOKFCBC@?5?9days?5?5?5?5?5?5?5?5?5?5number?5of?5days?5a@ 000535b0     req.obj
 0002:00001600       ??_C@_0EM@IDBMALNJ@?5?9set_serial?5?5?5?5serial?5number?5to@ 00053600     req.obj
 0002:0000164c       ??_C@_0DC@EIIKHMHB@?5?9newhdr?5?5?5?5?5?5?5?5output?5?$CCNEW?$CC?5in?5@ 0005364c     req.obj
 0002:00001680       ??_C@_0EO@KKMFBONC@?5?9asn1?9kludge?5?5?5Output?5the?5?8requ@ 00053680     req.obj
 0002:000016d0       ??_C@_0DB@FMNPFGKD@?5?5?5?5?5?5?5?5?5?5?5?5?5?5?5?5have?5been?5report@ 000536d0     req.obj
 0002:00001708       ??_C@_0FH@DLNHGECL@?5?9extensions?5?4?4?5specify?5certific@ 00053708     req.obj
 0002:00001760       ??_C@_0FD@PNHFCKKJ@?5?9reqexts?5?4?4?5?5?5?5specify?5request?5@ 00053760     req.obj
 0002:000017b4       ??_C@_0DL@KMNLMCKB@?5?9utf8?5?5?5?5?5?5?5?5?5?5input?5characters@ 000537b4     req.obj
 0002:000017f0       ??_C@_0DF@KKFNFDFD@?5?9nameopt?5arg?5?5?5?5?9?5various?5certi@ 000537f0     req.obj
 0002:00001828       ??_C@_0DB@DHIJEKH@?5?9reqopt?5arg?5?5?5?5?9?5various?5reques@ 00053828     req.obj
 0002:0000185c       ??_C@_0BN@CPKKLFKB@Can?8t?5find?5keygen?5engine?5?$CFs?6?$AA@ 0005385c     req.obj
 0002:0000187c       ??_C@_08DFHODPJJ@?9reqexts?$AA@ 0005387c     req.obj
 0002:00001888       ??_C@_0M@BEOOFGDH@?9extensions?$AA@ 00053888     req.obj
 0002:00001894       ??_C@_0M@LDCLLBDG@?9set_serial?$AA@ 00053894     req.obj
 0002:000018a0       ??_C@_05EFBFHALF@?9days?$AA@ 000538a0     req.obj
 0002:000018a8       ??_C@_0BA@NIPEAEAE@?9multivalue?9rdn?$AA@ 000538a8     req.obj
 0002:000018b8       ??_C@_05MDNNBOGG@?9subj?$AA@ 000538b8     req.obj
 0002:000018c0       ??_C@_0BA@OKKENJJO@?9no?9asn1?9kludge?$AA@ 000538c0     req.obj
 0002:000018d0       ??_C@_0N@GCBKILCE@?9asn1?9kludge?$AA@ 000538d0     req.obj
 0002:000018e0       ??_C@_05NBLHIDAD@?9x509?$AA@ 000538e0     req.obj
 0002:000018e8       ??_C@_05OEBEIMJA@?9text?$AA@ 000538e8     req.obj
 0002:000018f0       ??_C@_08GNEDOIFN@?9subject?$AA@ 000538f0     req.obj
 0002:000018fc       ??_C@_07GDDFPCHC@?9reqopt?$AA@ 000538fc     req.obj
 0002:00001904       ??_C@_08BLLHKMDD@?9nameopt?$AA@ 00053904     req.obj
 0002:00001910       ??_C@_05HLKFBLKJ@?9utf8?$AA@ 00053910     req.obj
 0002:00001918       ??_C@_06BLCPLFMB@?9nodes?$AA@ 00053918     req.obj
 0002:00001920       ??_C@_07FILEFCOC@?9verify?$AA@ 00053920     req.obj
 0002:00001928       ??_C@_08NJNHONAF@?9modulus?$AA@ 00053928     req.obj
 0002:00001934       ??_C@_07JMKJGFPL@?9newhdr?$AA@ 00053934     req.obj
 0002:0000193c       ??_C@_06COHPCLGM@?9batch?$AA@ 0005393c     req.obj
 0002:00001944       ??_C@_07FNCAFLJP@?9sigopt?$AA@ 00053944     req.obj
 0002:0000194c       ??_C@_08JPLFCIIK@?9pkeyopt?$AA@ 0005394c     req.obj
 0002:00001958       ??_C@_07GMCKHJOJ@?9newkey?$AA@ 00053958     req.obj
 0002:00001960       ??_C@_05LGFPCDPE@?9rand?$AA@ 00053960     req.obj
 0002:00001968       ??_C@_08KCDBEMAI@?9passout?$AA@ 00053968     req.obj
 0002:00001974       ??_C@_07KMOOHICO@?9passin?$AA@ 00053974     req.obj
 0002:0000197c       ??_C@_07KHMIKCEF@?9keyout?$AA@ 0005397c     req.obj
 0002:00001984       ??_C@_08OAHLMBGP@?9keyform?$AA@ 00053984     req.obj
 0002:00001990       ??_C@_07OOKHNANK@?9config?$AA@ 00053990     req.obj
 0002:00001998       ??_C@_04PFBHIFJN@?9new?$AA@ 00053998     req.obj
 0002:000019a0       ??_C@_07PABNIEBD@?9pubkey?$AA@ 000539a0     req.obj
 0002:000019a8       ??_C@_04FMEKFICB@?9key?$AA@ 000539a8     req.obj
 0002:000019b0       ??_C@_0P@LPDEEGMB@?9keygen_engine?$AA@ 000539b0     req.obj
 0002:000019c0       ??_C@_08LPHBEAIF@?9outform?$AA@ 000539c0     req.obj
 0002:000019cc       ??_C@_0CP@GAPFEHMI@?9?$CF?914s?5to?5use?5the?5?$CFs?5message?5dig@ 000539cc     dgst.obj
 0002:000019fc       ??_C@_01JLIPDDHJ@?3?$AA@   000539fc     dgst.obj
 0002:00001a00       ??_C@_06BDNPOLDF@?$CI?$CFs?$CJ?$DN?5?$AA@ 00053a00     dgst.obj
 0002:00001a08       ??_C@_08ICADHBHK@?$CFs?$CI?$CFs?$CJ?$DN?5?$AA@ 00053a08     dgst.obj
 0002:00001a14       ??_C@_0M@ECCOLDMB@?$CFs?9?$CFs?$CI?$CFs?$CJ?$DN?5?$AA@ 00053a14     dgst.obj
 0002:00001a20       ??_C@_05PJFEANEA@?5?$CK?$CFs?6?$AA@ 00053a20     dgst.obj
 0002:00001a28       ??_C@_04NOJCDH@?$CF02x?$AA@ 00053a28     dgst.obj
 0002:00001a30       ??_C@_0BE@MGCALGC@Error?5Signing?5Data?6?$AA@ 00053a30     dgst.obj
 0002:00001a44       ??_C@_0BG@DEPCNIJM@Error?5Verifying?5Data?6?$AA@ 00053a44     dgst.obj
 0002:00001a5c       ??_C@_0BG@PBEFODBB@Verification?5Failure?6?$AA@ 00053a5c     dgst.obj
 0002:00001a74       ??_C@_0N@EMAJAODF@Verified?5OK?6?$AA@ 00053a74     dgst.obj
 0002:00001a84       ??_C@_0BC@DKNKBAL@Read?5Error?5in?5?$CFs?6?$AA@ 00053a84     dgst.obj
 0002:00001a98       ??_C@_0CB@CPOCADA@Error?5reading?5signature?5file?5?$CFs?6@ 00053a98     dgst.obj
 0002:00001abc       ??_C@_0CB@GJFPMJA@Error?5opening?5signature?5file?5?$CFs?6@ 00053abc     dgst.obj
 0002:00001ae0       ??_C@_02JDPG@rb?$AA@       00053ae0     dgst.obj
 0002:00001ae4       ??_C@_0BJ@CIENJBPC@Error?5setting?5digest?5?$CFs?6?$AA@ 00053ae4     dgst.obj
 0002:00001b00       ??_C@_0BH@BMFBNJBH@Error?5setting?5context?6?$AA@ 00053b00     dgst.obj
 0002:00001b18       ??_C@_0BH@HIAIGHKF@Error?5getting?5context?6?$AA@ 00053b18     dgst.obj
 0002:00001b30       ??_C@_0BG@KNMDELML@Error?5generating?5key?6?$AA@ 00053b30     dgst.obj
 0002:00001b48       ??_C@_0BK@CMBNPJKN@MAC?5parameter?5error?5?$CC?$CFs?$CC?6?$AA@ 00053b48     dgst.obj
 0002:00001b64       ??_C@_08CIIMFNPL@key?5file?$AA@ 00053b64     dgst.obj
 0002:00001b70       ??_C@_0CO@GBKPBPPB@MAC?5and?5Signing?5key?5cannot?5both?5@ 00053b70     dgst.obj
 0002:00001ba0       ??_C@_0BO@DPODBOGA@Error?5opening?5output?5file?5?$CFs?6?$AA@ 00053ba0     dgst.obj
 0002:00001bc0       ??_C@_08NJHPALLI@?$CIstdout?$CJ?$AA@ 00053bc0     dgst.obj
 0002:00001bcc       ??_C@_01NOFIACDB@w?$AA@    00053bcc     dgst.obj
 0002:00001bd0       ??_C@_0BI@IBJFBNHD@Error?5getting?5password?6?$AA@ 00053bd0     dgst.obj
 0002:00001be8       ??_C@_0BF@KNIMMKIN@unknown?5option?5?8?$CFs?8?6?$AA@ 00053be8     dgst.obj
 0002:00001c00       ??_C@_0N@NDELNNPO@options?5are?6?$AA@ 00053c00     dgst.obj
 0002:00001c10       ??_C@_0DN@FOLCEOOL@?9c?5?5?5?5?5?5?5?5?5?5?5?5?5?5to?5output?5the?5di@ 00053c10     dgst.obj
 0002:00001c50       ??_C@_0DK@GBFCJLIB@?9r?5?5?5?5?5?5?5?5?5?5?5?5?5?5to?5output?5the?5di@ 00053c50     dgst.obj
 0002:00001c8c       ??_C@_0CG@ENDMFKMC@?9d?5?5?5?5?5?5?5?5?5?5?5?5?5?5to?5output?5debug?5@ 00053c8c     dgst.obj
 0002:00001cb4       ??_C@_0CE@CLNAEPPP@?9hex?5?5?5?5?5?5?5?5?5?5?5?5output?5as?5hex?5du@ 00053cb4     dgst.obj
 0002:00001cd8       ??_C@_0CH@LAJCNBHL@?9binary?5?5?5?5?5?5?5?5?5output?5in?5binary@ 00053cd8     dgst.obj
 0002:00001d00       ??_C@_0DH@BMCAMLFJ@?9sign?5?5?5file?5?5?5?5sign?5digest?5usin@ 00053d00     dgst.obj
 0002:00001d38       ??_C@_0DN@EFCACMAO@?9verify?5file?5?5?5?5verify?5a?5signatu@ 00053d38     dgst.obj
 0002:00001d78       ??_C@_0DO@GEMDHAA@?9prverify?5file?5?5verify?5a?5signatu@ 00053d78     dgst.obj
 0002:00001db8       ??_C@_0DB@PAGBKFPO@?9keyform?5arg?5?5?5?5key?5file?5format?5@ 00053db8     dgst.obj
 0002:00001dec       ??_C@_0DH@ECKLJJDH@?9out?5filename?5?5?5output?5to?5filena@ 00053dec     dgst.obj
 0002:00001e24       ??_C@_0CF@LIPHEFLJ@?9signature?5file?5signature?5to?5ver@ 00053e24     dgst.obj
 0002:00001e4c       ??_C@_0CF@EANICGDJ@?9sigopt?5nm?3v?5?5?5?5signature?5parame@ 00053e4c     dgst.obj
 0002:00001e74       ??_C@_0CM@HGAGEEFO@?9hmac?5key?5?5?5?5?5?5?5create?5hashed?5MA@ 00053e74     dgst.obj
 0002:00001ea0       ??_C@_0DE@EAJCPJLC@?9mac?5algorithm?5?5create?5MAC?5?$CInot?5@ 00053ea0     dgst.obj
 0002:00001ed4       ??_C@_0DB@LDFLCNGL@?9macopt?5nm?3v?5?5?5?5MAC?5algorithm?5pa@ 00053ed4     dgst.obj
 0002:00001f08       ??_C@_0DL@NDFIJIDB@?9engine?5e?5?5?5?5?5?5?5use?5engine?5e?0?5po@ 00053f08     dgst.obj
 0002:00001f44       ??_C@_0DD@GKPODFDO@No?5signature?5to?5verify?3?5use?5the?5@ 00053f44     dgst.obj
 0002:00001f78       ??_C@_07HDBCJIKB@?9macopt?$AA@ 00053f78     dgst.obj
 0002:00001f80       ??_C@_04MOAFFFPK@?9mac?$AA@ 00053f80     dgst.obj
 0002:00001f88       ??_C@_05JCMEMCJF@?9hmac?$AA@ 00053f88     dgst.obj
 0002:00001f90       ??_C@_0BA@COFEPECA@?9non?9fips?9allow?$AA@ 00053f90     dgst.obj
 0002:00001fa0       ??_C@_0BB@CGGLALOK@etaonrishdlcupfm?$AA@ 00053fa0     dgst.obj
 0002:00001fb4       ??_C@_0BC@FNMAMJJG@?9fips?9fingerprint?$AA@ 00053fb4     dgst.obj
 0002:00001fc8       ??_C@_02DBLKFNPN@?9d?$AA@  00053fc8     dgst.obj
 0002:00001fcc       ??_C@_07MHGMHDIE@?9binary?$AA@ 00053fcc     dgst.obj
 0002:00001fd4       ??_C@_04FHOEMGIO@?9hex?$AA@ 00053fd4     dgst.obj
 0002:00001fdc       ??_C@_0L@OJINPCDP@?9signature?$AA@ 00053fdc     dgst.obj
 0002:00001fe8       ??_C@_09BIBKEPCC@?9prverify?$AA@ 00053fe8     dgst.obj
 0002:00001ff4       ??_C@_05LLLFPBKO@?9sign?$AA@ 00053ff4     dgst.obj
 0002:00001ffc       ??_C@_02CNCCOICK@?9r?$AA@  00053ffc     dgst.obj
 0002:00002000       ??_C@_02HOPLMLDK@?9c?$AA@  00054000     dgst.obj
 0002:00002004       ??_C@_0P@PCJPAHLM@out?5of?5memory?6?$AA@ 00054004     dgst.obj
 0002:00002018       ??_C@_0EE@IKAOLBNE@d?3?2wm653wehh?2platform?2mvv210?2src@ 00054018     dgst.obj
 0002:0000205c       ??_C@_0BM@PDLDHKCN@bad?5input?5format?5specified?6?$AA@ 0005405c     dh.obj
 0002:00002078       ??_C@_0BP@DKNNAIAD@unable?5to?5write?5DH?5parameters?6?$AA@ 00054078     dh.obj
 0002:00002098       ??_C@_06DAPMBIIF@?6?7?$HN?$DL?6?6?$AA@ 00054098     dh.obj
 0002:000020a0       ??_C@_0BD@PDHPFBMJ@DH?5?$CKget_dh?$CFd?$CI?$CJ?6?7?$HL?6?$AA@ 000540a0     dh.obj
 0002:000020b4       ??_C@_0L@GFOABBOL@?7DH?5?$CKdh?$DL?6?6?$AA@ 000540b4     dh.obj
 0002:000020c0       ??_C@_0CL@FJKPNLKA@?7if?5?$CI?$CIdh?$DNDH_new?$CI?$CJ?$CJ?5?$DN?$DN?5NULL?$CJ?5retu@ 000540c0     dh.obj
 0002:000020ec       ??_C@_0CP@FNEBIMJB@?7dh?9?$DOp?$DNBN_bin2bn?$CIdh?$CFd_p?0sizeof?$CId@ 000540ec     dh.obj
 0002:0000211c       ??_C@_0CP@IOLDHNHJ@?7dh?9?$DOg?$DNBN_bin2bn?$CIdh?$CFd_g?0sizeof?$CId@ 0005411c     dh.obj
 0002:0000214c       ??_C@_0CK@IPHOBDHF@?7if?5?$CI?$CIdh?9?$DOp?5?$DN?$DN?5NULL?$CJ?5?$HM?$HM?5?$CIdh?9?$DOg?5?$DN@ 0005414c     dh.obj
 0002:00002178       ??_C@_0BB@BNBMHKFL@?7?7return?$CINULL?$CJ?$DL?6?$AA@ 00054178     dh.obj
 0002:0000218c       ??_C@_0BB@BLPPFBBA@?7return?$CIdh?$CJ?$DL?6?7?$HN?6?$AA@ 0005418c     dh.obj
 0002:000021a0       ??_C@_05KJDCIFPB@?6?7?$HN?$DL?6?$AA@ 000541a0     dh.obj
 0002:000021a8       ??_C@_0CA@EHJPLIPO@static?5unsigned?5char?5dh?$CFd_g?$FL?$FN?$DN?$HL?$AA@ 000541a8     dh.obj
 0002:000021c8       ??_C@_07DHGLOFCI@0x?$CF02X?0?$AA@ 000541c8     dh.obj
 0002:000021d0       ??_C@_02NMOLBIHC@?6?7?$AA@ 000541d0     dh.obj
 0002:000021d4       ??_C@_0CA@FJEMIKNN@static?5unsigned?5char?5dh?$CFd_p?$FL?$FN?$DN?$HL?$AA@ 000541d4     dh.obj
 0002:000021f4       ??_C@_0P@OGNLMJHA@OPENSSL_malloc?$AA@ 000541f4     dh.obj
 0002:00002208       ??_C@_0EC@PGDLMLNP@d?3?2wm653wehh?2platform?2mvv210?2src@ 00054208     dh.obj
 0002:0000224c       ??_C@_0CA@HEFPAMBO@DH?5parameters?5appear?5to?5be?5ok?4?6?$AA@ 0005424c     dh.obj
 0002:0000226c       ??_C@_0CA@MNMNOHDI@the?5g?5value?5is?5not?5a?5generator?6?$AA@ 0005426c     dh.obj
 0002:0000228c       ??_C@_0CF@HHDJLALM@unable?5to?5check?5the?5generator?5va@ 0005428c     dh.obj
 0002:000022b4       ??_C@_0BN@HECLLLLM@p?5value?5is?5not?5a?5safe?5prime?6?$AA@ 000542b4     dh.obj
 0002:000022d4       ??_C@_0BG@HEKOLPHE@p?5value?5is?5not?5prime?6?$AA@ 000542d4     dh.obj
 0002:000022ec       ??_C@_0BO@FFFNONMG@unable?5to?5load?5DH?5parameters?6?$AA@ 000542ec     dh.obj
 0002:0000230c       ??_C@_0CP@JJNBIGFP@?5?9outform?5arg?5?5output?5format?5?9?5o@ 0005430c     dh.obj
 0002:0000233c       ??_C@_0BM@JAFLIPIN@?5?9out?5arg?5?5?5?5?5?5output?5file?6?$AA@ 0005433c     dh.obj
 0002:00002358       ??_C@_0CI@BBHHCPJC@?5?9check?5?5?5?5?5?5?5?5check?5the?5DH?5para@ 00054358     dh.obj
 0002:00002380       ??_C@_0DH@EGLMLFJL@?5?9text?5?5?5?5?5?5?5?5?5print?5a?5text?5form@ 00054380     dh.obj
 0002:000023b8       ??_C@_0BO@KEIHOKJC@?5?9C?5?5?5?5?5?5?5?5?5?5?5?5Output?5C?5code?6?$AA@ 000543b8     dh.obj
 0002:000023d8       ??_C@_0BK@ELEJBNIF@?5?9noout?5?5?5?5?5?5?5?5no?5output?6?$AA@ 000543d8     dh.obj
 0002:000023f4       ??_C@_0DK@OCLGLONK@?5?9engine?5e?5?5?5?5?5use?5engine?5e?0?5pos@ 000543f4     dh.obj
 0002:00002430       ??_C@_02OLHPOPJI@?9C?$AA@  00054430     dh.obj
 0002:00002434       ??_C@_06CLLLPJIB@?9check?$AA@ 00054434     dh.obj
 0002:0000243c       ??_C@_0BE@ICHMBAIO@?7dh?9?$DOlength?5?$DN?5?$CFld?$DL?6?$AA@ 0005443c     dhparam.obj
 0002:00002450       ??_C@_0CC@MEGBNOEK@?7?7?$HL?5DH_free?$CIdh?$CJ?$DL?5return?$CINULL?$CJ?$DL?5?$HN@ 00054450     dhparam.obj
 0002:00002474       ??_C@_06KHHINGMM@?6?7?7?$HN?$DL?6?$AA@ 00054474     dhparam.obj
 0002:0000247c       ??_C@_0CB@HOPOMGPE@?7static?5unsigned?5char?5dh?$CFd_g?$FL?$FN?$DN?$HL@ 0005447c     dhparam.obj
 0002:000024a0       ??_C@_03GPBFEAEB@?6?7?7?$AA@ 000544a0     dhparam.obj
 0002:000024a4       ??_C@_0DE@GKMDPIAB@?$CDifndef?5HEADER_DH_H?6?$CDinclude?5?$DMop@ 000544a4     dhparam.obj
 0002:000024d8       ??_C@_0CB@GACNPENH@?7static?5unsigned?5char?5dh?$CFd_p?$FL?$FN?$DN?$HL@ 000544d8     dhparam.obj
 0002:00002500       ??_C@_0EH@EAPFLDHP@d?3?2wm653wehh?2platform?2mvv210?2src@ 00054500     dhparam.obj
 0002:00002548       ??_C@_0BP@GLONFKAC@unable?5to?5load?5DSA?5parameters?6?$AA@ 00054548     dhparam.obj
 0002:00002568       ??_C@_0EA@BEOHJPIA@Generating?5DH?5parameters?0?5?$CFd?5bit@ 00054568     dhparam.obj
 0002:000025a8       ??_C@_0CD@OEGFFOKJ@This?5is?5going?5to?5take?5a?5long?5tim@ 000545a8     dhparam.obj
 0002:000025cc       ??_C@_0CO@MBCDDJGG@Generating?5DSA?5parameters?0?5?$CFd?5bi@ 000545cc     dhparam.obj
 0002:000025fc       ??_C@_0BO@JENMPIEN@?$CFld?5semi?9random?5bytes?5loaded?6?$AA@ 000545fc     dhparam.obj
 0002:00002620       ??_C@_0EG@NMHBLOCJ@warning?0?5not?5much?5extra?5random?5d@ 00054620     dhparam.obj
 0002:00002668       ??_C@_0DA@BIFNEJD@generator?5may?5not?5be?5chosen?5for?5@ 00054668     dhparam.obj
 0002:00002698       ??_C@_0BI@MNFGICID@?$CFs?5?$FLoptions?$FN?5?$FLnumbits?$FN?6?$AA@ 00054698     dhparam.obj
 0002:000026b0       ??_C@_0DP@OPICDCND@?5?9dsaparam?5?5?5?5?5read?5or?5generate?5@ 000546b0     dhparam.obj
 0002:000026f0       ??_C@_0EE@BMLLMFHN@?5?92?5?5?5?5?5?5?5?5?5?5?5?5generate?5paramete@ 000546f0     dhparam.obj
 0002:00002738       ??_C@_0EE@OCJFPLEH@?5?95?5?5?5?5?5?5?5?5?5?5?5?5generate?5paramete@ 00054738     dhparam.obj
 0002:0000277c       ??_C@_0DM@FDJMCGNM@?5numbits?5?5?5?5?5?5?5number?5of?5bits?5in@ 0005477c     dhparam.obj
 0002:000027b8       ??_C@_0EF@IFMCBMJK@?5?5?5?5?5?5?5?5?5?5?5?5?5?5?5?9?5load?5the?5file?5?$CI@ 000547b8     dhparam.obj
 0002:00002800       ??_C@_0CM@HMDFFJAF@?5?5?5?5?5?5?5?5?5?5?5?5?5?5?5the?5random?5number@ 00054800     dhparam.obj
 0002:0000282c       ??_C@_02DPKJAMEF@?$CFd?$AA@ 0005482c     dhparam.obj
 0002:00002830       ??_C@_02JCBKDBOI@?95?$AA@  00054830     dhparam.obj
 0002:00002834       ??_C@_02NNFLKHCP@?92?$AA@  00054834     dhparam.obj
 0002:00002838       ??_C@_09FPEHJBLF@?9dsaparam?$AA@ 00054838     dhparam.obj
 0002:00002850       ??_C@_01CLKCMJKC@?5?$AA@   00054850     enc.obj
 0002:00002854       ??_C@_06NOFJDKIJ@?9?$CF?925s?$AA@ 00054854     enc.obj
 0002:0000285c       ??_C@_0P@NEFOCAMN@non?9hex?5digit?6?$AA@ 0005485c     enc.obj
 0002:0000286c       ??_C@_0BI@MDNEACDE@hex?5string?5is?5too?5long?6?$AA@ 0005486c     enc.obj
 0002:00002884       ??_C@_0BM@BGDPIIAJ@OPENSSL_malloc?5failure?5?$CFld?6?$AA@ 00054884     enc.obj
 0002:000028a0       ??_C@_0BE@PJJCHJPP@bytes?5read?5?5?5?3?$CF8ld?6?$AA@ 000548a0     enc.obj
 0002:000028b4       ??_C@_0BE@EFCLFIA@bytes?5written?3?$CF8ld?6?$AA@ 000548b4     enc.obj
 0002:000028c8       ??_C@_0N@NBFJJOIE@bad?5decrypt?6?$AA@ 000548c8     enc.obj
 0002:000028d8       ??_C@_04LBAOOMMA@iv?5?$DN?$AA@ 000548d8     enc.obj
 0002:000028e0       ??_C@_04OKAPFCOO@key?$DN?$AA@ 000548e0     enc.obj
 0002:000028e8       ??_C@_04JFFKLGJF@?$CF02X?$AA@ 000548e8     enc.obj
 0002:000028f0       ??_C@_05CPDJLPEH@salt?$DN?$AA@ 000548f0     enc.obj
 0002:000028f8       ??_C@_0BJ@IAIFPEPB@Error?5setting?5cipher?5?$CFs?6?$AA@ 000548f8     enc.obj
 0002:00002914       ??_C@_0BH@OLJHIIIL@invalid?5hex?5key?5value?6?$AA@ 00054914     enc.obj
 0002:0000292c       ??_C@_0O@IPGGFIND@iv?5undefined?6?$AA@ 0005492c     enc.obj
 0002:0000293c       ??_C@_0BG@NHKOPNKN@invalid?5hex?5iv?5value?6?$AA@ 0005493c     enc.obj
 0002:00002954       ??_C@_0BK@JCEEIGID@error?5reading?5input?5file?6?$AA@ 00054954     enc.obj
 0002:00002970       ??_C@_0BC@EBPGDKNI@bad?5magic?5number?6?$AA@ 00054970     enc.obj
 0002:00002984       ??_C@_0BL@EIAJMMHP@error?5writing?5output?5file?6?$AA@ 00054984     enc.obj
 0002:000029a0       ??_C@_0BI@CHFGPCFC@invalid?5hex?5salt?5value?6?$AA@ 000549a0     enc.obj
 0002:000029b8       ??_C@_0BD@PFMPADAJ@bad?5password?5read?6?$AA@ 000549b8     enc.obj
 0002:000029cc       ??_C@_0BG@PAGOAIAK@enter?5?$CFs?5?$CFs?5password?3?$AA@ 000549cc     enc.obj
 0002:000029e4       ??_C@_0L@EIHLODJK@decryption?$AA@ 000549e4     enc.obj
 0002:000029f0       ??_C@_0L@HBBFMHKN@encryption?$AA@ 000549f0     enc.obj
 0002:00002a00       ??_C@_0ED@NGKHEJM@d?3?2wm653wehh?2platform?2mvv210?2src@ 00054a00     enc.obj
 0002:00002a44       ??_C@_0M@HOAILMMA@bufsize?$DN?$CFd?6?$AA@ 00054a44     enc.obj
 0002:00002a50       ??_C@_0BO@HPNFKOKN@invalid?5?8bufsize?8?5specified?4?6?$AA@ 00054a50     enc.obj
 0002:00002a70       ??_C@_0CK@PCPNIALC@?$CFs?5is?5an?5unsupported?5message?5dig@ 00054a70     enc.obj
 0002:00002a9c       ??_C@_0L@MCDAPHEJ@?9in?5?$DMfile?$DO?$AA@ 00054a9c     enc.obj
 0002:00002aa8       ??_C@_0BC@LCJBKLPE@?$CF?914s?5input?5file?6?$AA@ 00054aa8     enc.obj
 0002:00002abc       ??_C@_0M@NOKEFDHL@?9out?5?$DMfile?$DO?$AA@ 00054abc     enc.obj
 0002:00002ac8       ??_C@_0BD@CNOLDGMD@?$CF?914s?5output?5file?6?$AA@ 00054ac8     enc.obj
 0002:00002adc       ??_C@_0M@PMHOLJCA@?9pass?5?$DMarg?$DO?$AA@ 00054adc     enc.obj
 0002:00002ae8       ??_C@_0BK@POAOHLNN@?$CF?914s?5pass?5phrase?5source?6?$AA@ 00054ae8     enc.obj
 0002:00002b04       ??_C@_0P@BFGGPMIJ@?$CF?914s?5encrypt?6?$AA@ 00054b04     enc.obj
 0002:00002b14       ??_C@_0P@FPHHPEJM@?$CF?914s?5decrypt?6?$AA@ 00054b14     enc.obj
 0002:00002b24       ??_C@_0L@COKJKPLA@?9a?1?9base64?$AA@ 00054b24     enc.obj
 0002:00002b30       ??_C@_0DK@LPPOLBLG@?$CF?914s?5base64?5encode?1decode?0?5depe@ 00054b30     enc.obj
 0002:00002b6c       ??_C@_0CH@CGJBDIAG@?$CF?914s?5passphrase?5is?5the?5next?5arg@ 00054b6c     enc.obj
 0002:00002b94       ??_C@_0DJ@DFLMLDAL@?$CF?914s?5passphrase?5is?5the?5first?5li@ 00054b94     enc.obj
 0002:00002bd0       ??_C@_0DK@DILGBNBM@?$CF?914s?5the?5next?5argument?5is?5the?5m@ 00054bd0     enc.obj
 0002:00002c0c       ??_C@_0DK@BHJOLGDM@?$CF?914s?5?5?5from?5a?5passphrase?4?5?5One?5@ 00054c0c     enc.obj
 0002:00002c48       ??_C@_0CI@BOHLJIBO@?$CF?914s?5salt?5in?5hex?5is?5the?5next?5ar@ 00054c48     enc.obj
 0002:00002c70       ??_C@_06IGMMGDJL@?9K?1?9iv?$AA@ 00054c70     enc.obj
 0002:00002c78       ??_C@_0CK@DOLNPBBA@?$CF?914s?5key?1iv?5in?5hex?5is?5the?5next?5@ 00054c78     enc.obj
 0002:00002ca4       ??_C@_05LCFKBLFL@?9?$FLpP?$FN?$AA@ 00054ca4     enc.obj
 0002:00002cac       ??_C@_0CK@JJEIICIG@?$CF?914s?5print?5the?5iv?1key?5?$CIthen?5exi@ 00054cac     enc.obj
 0002:00002cd8       ??_C@_0N@PNCHCKKB@?9bufsize?5?$DMn?$DO?$AA@ 00054cd8     enc.obj
 0002:00002ce8       ??_C@_0BD@PKCLAKIF@?$CF?914s?5buffer?5size?6?$AA@ 00054ce8     enc.obj
 0002:00002cfc       ??_C@_0CG@EJNGOCOA@?$CF?914s?5disable?5standard?5block?5pad@ 00054cfc     enc.obj
 0002:00002d24       ??_C@_09BOJEFCGN@?9engine?5e?$AA@ 00054d24     enc.obj
 0002:00002d30       ??_C@_0DB@HCMDFGCL@?$CF?914s?5use?5engine?5e?0?5possibly?5a?5h@ 00054d30     enc.obj
 0002:00002d64       ??_C@_0O@OGIPHMMM@Cipher?5Types?6?$AA@ 00054d64     enc.obj
 0002:00002d74       ??_C@_0BG@LPMLMKBM@zero?5length?5password?6?$AA@ 00054d74     enc.obj
 0002:00002d8c       ??_C@_0BO@DDOLNDDD@unable?5to?5read?5key?5from?5?8?$CFs?8?6?$AA@ 00054d8c     enc.obj
 0002:00002dac       ??_C@_05OKILBPAF@?9none?$AA@ 00054dac     enc.obj
 0002:00002db4       ??_C@_03MNHNKBNA@?9md?$AA@ 00054db4     enc.obj
 0002:00002db8       ??_C@_03LCIAHJNP@?9iv?$AA@ 00054db8     enc.obj
 0002:00002dbc       ??_C@_02KBLNPNMJ@?9S?$AA@  00054dbc     enc.obj
 0002:00002dc0       ??_C@_02CDKGGFJA@?9K?$AA@  00054dc0     enc.obj
 0002:00002dc4       ??_C@_06KHNBBAIG@?9kfile?$AA@ 00054dc4     enc.obj
 0002:00002dcc       ??_C@_02LGCCEBDC@?9k?$AA@  00054dcc     enc.obj
 0002:00002dd0       ??_C@_08CBMLGKFK@?9bufsize?$AA@ 00054dd0     enc.obj
 0002:00002ddc       ??_C@_07OGJCBNJ@?9base64?$AA@ 00054ddc     enc.obj
 0002:00002de4       ??_C@_02EMMNKJLI@?9a?$AA@  00054de4     enc.obj
 0002:00002de8       ??_C@_02NJEJINBK@?9A?$AA@  00054de8     enc.obj
 0002:00002dec       ??_C@_02IKJAKOAK@?9P?$AA@  00054dec     enc.obj
 0002:00002df0       ??_C@_06OHOHKFPP@?9debug?$AA@ 00054df0     enc.obj
 0002:00002df8       ??_C@_07ONPDFJOJ@?9nosalt?$AA@ 00054df8     enc.obj
 0002:00002e00       ??_C@_05MCHJMMHL@?9salt?$AA@ 00054e00     enc.obj
 0002:00002e08       ??_C@_06MGNOFJED@?9nopad?$AA@ 00054e08     enc.obj
 0002:00002e10       ??_C@_02EJEOCNCO@?9v?$AA@  00054e10     enc.obj
 0002:00002e14       ??_C@_02BPBEIKKI@?9p?$AA@  00054e14     enc.obj
 0002:00002e18       ??_C@_05NNOCMECB@?9pass?$AA@ 00054e18     enc.obj
 0002:00002e20       ??_C@_02CIKBGMLM@?9e?$AA@  00054e20     enc.obj
 0002:00002e24       ??_C@_0BJ@HCMGINMJ@?$CFs?5is?5an?5unknown?5cipher?6?$AA@ 00054e24     enc.obj
 0002:00002e40       ??_C@_03NONKPJJM@enc?$AA@  00054e40     enc.obj
 0002:00002e44       ??_C@_06JEFEFGEJ@base64?$AA@ 00054e44     enc.obj
 0002:00002e90       ??_C@_0CC@CGDBGINC@strlen?$CIout_buf?$CJ?5?$DM?5sizeof?$CIout_buf@ 00054e90     passwd.obj
 0002:00002eb4       ??_C@_07FMDLCIPB@i?5?$DN?$DN?515?$AA@ 00054eb4     passwd.obj
 0002:00002ebc       ??_C@_0CE@NGHPKFIH@output?5?$DN?$DN?5out_buf?5?$CL?5strlen?$CIout_b@ 00054ebc     passwd.obj
 0002:00002ee0       ??_C@_01LOCGONAA@?$AA?$AA@ 00054ee0     passwd.obj
 0002:00002ee4       ??_C@_0O@PHKIKPEB@salt_len?5?$DM?$DN?58?$AA@ 00054ee4     passwd.obj
 0002:00002ef4       ??_C@_0BJ@LIJFBHMC@strlen?$CIout_buf?$CJ?5?$DM?$DN?56?5?$CL?58?$AA@ 00054ef4     passwd.obj
 0002:00002f10       ??_C@_01EPMOAMKG@$?$AA@    00054f10     passwd.obj
 0002:00002f18       ??_C@_0EG@KHKDOFMA@d?3?2wm653wehh?2platform?2mvv210?2src@ 00054f18     passwd.obj
 0002:00002f60       ??_C@_0BD@MPIAPJMG@strlen?$CImagic?$CJ?5?$DM?$DN?54?$AA@ 00054f60     passwd.obj
 0002:00002f74       ??_C@_0CI@CKLKDJN@Assertion?5failed?3?5?$CFs?0?5file?5?$CFs?0?5l@ 00054f74     passwd.obj
 0002:00002f9c       ??_C@_06EEAEEKCL@?$CFs?7?$CFs?6?$AA@ 00054f9c     passwd.obj
 0002:00002fa4       ??_C@_0N@PFBFKMIF@hash?5?$CB?$DN?5NULL?$AA@ 00054fa4     passwd.obj
 0002:00002fb4       ??_C@_04GHJIENAP@apr1?$AA@ 00054fb4     passwd.obj
 0002:00002fbc       ??_C@_01HIHLOKLC@1?$AA@    00054fbc     passwd.obj
 0002:00002fc0       ??_C@_0BM@IEEKKFHC@strlen?$CIpasswd?$CJ?5?$DM?$DN?5pw_maxlen?$AA@ 00054fc0     passwd.obj
 0002:00002fdc       ??_C@_0CP@GAKOHLEH@Warning?3?5truncating?5password?5to?5@ 00054fdc     passwd.obj
 0002:0000300c       ??_C@_0BA@BPFIJCPP@?$CKsalt_p?5?$CB?$DN?5NULL?$AA@ 0005500c     passwd.obj
 0002:0000301c       ??_C@_0BG@NAGFBKF@salt_malloc_p?5?$CB?$DN?5NULL?$AA@ 0005501c     passwd.obj
 0002:00003034       ??_C@_0P@MHLMBLBM@salt_p?5?$CB?$DN?5NULL?$AA@ 00055034     passwd.obj
 0002:00003044       ??_C@_0P@CDDEKEAF@passwd?5?$CB?$DN?5NULL?$AA@ 00055044     passwd.obj
 0002:00003054       ??_C@_0BB@HFMELHKH@?$CKpasswds?5?$CB?$DN?5NULL?$AA@ 00055054     passwd.obj
 0002:00003068       ??_C@_0L@GCFBFBCP@Password?3?5?$AA@ 00055068     passwd.obj
 0002:00003074       ??_C@_08HABCBIML@in_stdin?$AA@ 00055074     passwd.obj
 0002:00003080       ??_C@_0O@IAKCIBDM@in_stdin?5?$DN?$DN?50?$AA@ 00055080     passwd.obj
 0002:00003090       ??_C@_0CF@FNMPKEEM@Usage?3?5passwd?5?$FLoptions?$FN?5?$FLpasswor@ 00055090     passwd.obj
 0002:000030b8       ??_C@_0DP@JAFNNPCN@?9crypt?5?5?5?5?5?5?5?5?5?5?5?5?5standard?5Unix@ 000550b8     passwd.obj
 0002:000030f8       ??_C@_0DB@OOOLLDOG@?91?5?5?5?5?5?5?5?5?5?5?5?5?5?5?5?5?5MD5?9based?5pas@ 000550f8     passwd.obj
 0002:00003130       ??_C@_0EB@FMCAAHIK@?9apr1?5?5?5?5?5?5?5?5?5?5?5?5?5?5MD5?9based?5pas@ 00055130     passwd.obj
 0002:00003174       ??_C@_0CG@ILKJAIBC@?9salt?5string?5?5?5?5?5?5?5use?5provided?5@ 00055174     passwd.obj
 0002:0000319c       ??_C@_0CN@GBLJIPB@?9in?5file?5?5?5?5?5?5?5?5?5?5?5read?5password@ 0005519c     passwd.obj
 0002:000031cc       ??_C@_0CO@KGOAKHJE@?9stdin?5?5?5?5?5?5?5?5?5?5?5?5?5read?5password@ 000551cc     passwd.obj
 0002:00003200       ??_C@_0EF@PKHCBPCM@?9noverify?5?5?5?5?5?5?5?5?5?5never?5verify?5@ 00055200     passwd.obj
 0002:00003248       ??_C@_0CA@IDLNGCID@?9quiet?5?5?5?5?5?5?5?5?5?5?5?5?5no?5warnings?6?$AA@ 00055248     passwd.obj
 0002:00003268       ??_C@_0CL@LCIDPMOH@?9table?5?5?5?5?5?5?5?5?5?5?5?5?5format?5output@ 00055268     passwd.obj
 0002:00003294       ??_C@_0CJ@MJKKPGML@?9reverse?5?5?5?5?5?5?5?5?5?5?5switch?5table?5@ 00055294     passwd.obj
 0002:000032c0       ??_C@_08FOBBEMBH@?9reverse?$AA@ 000552c0     passwd.obj
 0002:000032cc       ??_C@_06DAHAPLNJ@?9table?$AA@ 000552cc     passwd.obj
 0002:000032d4       ??_C@_06HONEMELG@?9quiet?$AA@ 000552d4     passwd.obj
 0002:000032dc       ??_C@_09JLKGPCDL@?9noverify?$AA@ 000552dc     passwd.obj
 0002:000032e8       ??_C@_06EFCBJHGP@?9stdin?$AA@ 000552e8     passwd.obj
 0002:000032f0       ??_C@_05KLEKANFJ@?9apr1?$AA@ 000552f0     passwd.obj
 0002:000032f8       ??_C@_02PGHGPEOM@?91?$AA@  000552f8     passwd.obj
 0002:000032fc       ??_C@_06MIBOINDC@?9crypt?$AA@ 000552fc     passwd.obj
 0002:00003304       ??_C@_0BP@KICIFPBK@usage?3?5gendh?5?$FLargs?$FN?5?$FLnumbits?$FN?6?$AA@ 00055304     gendh.obj
 0002:00003324       ??_C@_0CG@HHJHEFFN@?5?9out?5file?5?9?5output?5the?5key?5to?5?8@ 00055324     gendh.obj
 0002:0000334c       ??_C@_0CL@DIPAAPBJ@?5?92?5?5?5?5?5?5?5?5?9?5use?52?5as?5the?5genera@ 0005534c     gendh.obj
 0002:00003378       ??_C@_0CL@BFMGINJL@?5?95?5?5?5?5?5?5?5?5?9?5use?55?5as?5the?5genera@ 00055378     gendh.obj
 0002:000033a4       ??_C@_0DI@IGMMGMDL@?5?9engine?5e?5?9?5use?5engine?5e?0?5possi@ 000553a4     gendh.obj
 0002:000033e0       ??_C@_0EB@KLOHJNHD@?5?5?5?5?5?5?5?5?5?5?5?9?5load?5the?5file?5?$CIor?5t@ 000553e0     gendh.obj
 0002:00003424       ??_C@_0CK@NBGNPKEI@?5?5?5?5?5?5?5?5?5?5?5?5?5the?5random?5number?5g@ 00055424     gendh.obj
 0002:00003450       ??_C@_0BE@OFIIPFHK@?$CFs?3?5bad?5error?5code?6?$AA@ 00055450     errstr.obj
 0002:00003464       ??_C@_0CE@DKEECCNJ@usage?3?5errstr?5?$FL?9stats?$FN?5?$DMerrno?$DO?5?4@ 00055464     errstr.obj
 0002:00003488       ??_C@_03OPHMLOFF@?$CFlx?$AA@ 00055488     errstr.obj
 0002:0000348c       ??_C@_06JJGNDLGC@?9stats?$AA@ 0005548c     errstr.obj
 0002:00003494       ??_C@_09LALKJNL@CAkeyTime?$AA@ 00055494     ca.obj
 0002:000034a0       ??_C@_07DBMHLFCD@keyTime?$AA@ 000554a0     ca.obj
 0002:000034a8       ??_C@_0BA@BEFHDCOK@holdInstruction?$AA@ 000554a8     ca.obj
 0002:000034b8       ??_C@_0O@BILLKPKO@removeFromCRL?$AA@ 000554b8     ca.obj
 0002:000034c8       ??_C@_0BA@FBHLCNLK@certificateHold?$AA@ 000554c8     ca.obj
 0002:000034d8       ??_C@_0BF@IGJCOPF@cessationOfOperation?$AA@ 000554d8     ca.obj
 0002:000034f0       ??_C@_0L@NHCKNIFL@superseded?$AA@ 000554f0     ca.obj
 0002:000034fc       ??_C@_0BD@BNOFAJLL@affiliationChanged?$AA@ 000554fc     ca.obj
 0002:00003510       ??_C@_0N@NONEFGOE@CACompromise?$AA@ 00055510     ca.obj
 0002:00003520       ??_C@_0O@MCEAAJLH@keyCompromise?$AA@ 00055520     ca.obj
 0002:00003530       ??_C@_0M@MFMDLEDN@unspecified?$AA@ 00055530     ca.obj
 0002:0000353c       ??_C@_0DI@GLPNHBII@?5?9updatedb?5?5?5?5?5?5?5?9?5Updates?5db?5fo@ 0005553c     ca.obj
 0002:00003578       ??_C@_0EF@GGDGHMDK@?5?9status?5serial?5?5?9?5Shows?5certifi@ 00055578     ca.obj
 0002:000035c0       ??_C@_0DO@HKPOAJEL@?5?9engine?5e?5?5?5?5?5?5?5?9?5use?5engine?5e?0@ 000555c0     ca.obj
 0002:00003600       ??_C@_0EK@GMBEAPHD@?5?9crlexts?5?4?4?5?5?5?5?5?9?5CRL?5extension@ 00055600     ca.obj
 0002:00003650       ??_C@_0EF@NJNPLHJK@?5?9extfile?5file?5?5?5?9?5Configuration@ 00055650     ca.obj
 0002:00003698       ??_C@_0EG@PLEJMFK@?5?9extensions?5?4?4?5?5?9?5Extension?5sec@ 00055698     ca.obj
 0002:000036e0       ??_C@_0DI@BBJJEJJD@?5?9multivalue?9rdn?5?9?5enable?5suppor@ 000556e0     ca.obj
 0002:00003718       ??_C@_0DO@HMJDJBFA@?5?9utf8?5?5?5?5?5?5?5?5?5?5?5?9?5input?5charact@ 00055718     ca.obj
 0002:00003758       ??_C@_0DJ@IPIBIDNN@?5?9subj?5arg?5?5?5?5?5?5?5?9?5Use?5arg?5inste@ 00055758     ca.obj
 0002:00003794       ??_C@_0DJ@DNCKDHFC@?5?9revoke?5file?5?5?5?5?9?5Revoke?5a?5cert@ 00055794     ca.obj
 0002:000037d0       ??_C@_0EN@GONOCOPI@?5?9msie_hack?5?5?5?5?5?5?9?5msie?5modifica@ 000557d0     ca.obj
 0002:00003820       ??_C@_0CI@BKFIJOGN@?5?9batch?5?5?5?5?5?5?5?5?5?5?9?5Don?8t?5ask?5que@ 00055820     ca.obj
 0002:00003848       ??_C@_0EI@EDHKPHNH@?5?9noemailDN?5?5?5?5?5?5?9?5Don?8t?5add?5the@ 00055848     ca.obj
 0002:00003890       ??_C@_0CK@CFFLOFEL@?5?9preserveDN?5?5?5?5?5?9?5Don?8t?5re?9orde@ 00055890     ca.obj
 0002:000038bc       ??_C@_0DN@ENJEEHPA@?5?9ss_cert?5file?5?5?5?9?5File?5contains@ 000558bc     ca.obj
 0002:00003900       ??_C@_0EJ@OLPKBNMK@?5?9spkac?5file?5?5?5?5?5?9?5File?5contains@ 00055900     ca.obj
 0002:0000394c       ??_C@_0DL@FABCCFCA@?5?9infiles?5?4?4?4?4?5?5?5?9?5The?5last?5argu@ 0005594c     ca.obj
 0002:00003988       ??_C@_0DF@DCFLNKAE@?5?9outdir?5dir?5?5?5?5?5?9?5Where?5to?5put?5@ 00055988     ca.obj
 0002:000039c0       ??_C@_0DE@PNLNOAJK@?5?9out?5file?5?5?5?5?5?5?5?9?5Where?5to?5put?5@ 000559c0     ca.obj
 0002:000039f8       ??_C@_0EB@OLLNDJBK@?5?9in?5file?5?5?5?5?5?5?5?5?9?5The?5input?5PEM@ 000559f8     ca.obj
 0002:00003a40       ??_C@_0EH@CIMLDKFI@?5?9selfsign?5?5?5?5?5?5?5?9?5sign?5a?5certif@ 00055a40     ca.obj
 0002:00003a88       ??_C@_0CH@DDNIALBJ@?5?9cert?5file?5?5?5?5?5?5?9?5The?5CA?5certif@ 00055a88     ca.obj
 0002:00003ab0       ??_C@_0EF@MOAKPJDH@?5?9key?5arg?5?5?5?5?5?5?5?5?9?5key?5to?5decode@ 00055ab0     ca.obj
 0002:00003af8       ??_C@_0DM@BPFPGJII@?5?9keyform?5arg?5?5?5?5?9?5private?5key?5f@ 00055af8     ca.obj
 0002:00003b34       ??_C@_0CF@FFDGFEBI@?5?9keyfile?5arg?5?5?5?5?9?5private?5key?5f@ 00055b34     ca.obj
 0002:00003b5c       ??_C@_0CP@JGPFBLCB@?5?9policy?5arg?5?5?5?5?5?9?5The?5CA?5?8polic@ 00055b5c     ca.obj
 0002:00003b8c       ??_C@_0DM@KJOMACAF@?5?9md?5arg?5?5?5?5?5?5?5?5?5?9?5md?5to?5use?0?5on@ 00055b8c     ca.obj
 0002:00003bc8       ??_C@_0EC@INDAPGOP@?5?9days?5arg?5?5?5?5?5?5?5?9?5number?5of?5day@ 00055bc8     ca.obj
 0002:00003c10       ??_C@_0EO@IAGCOGJL@?5?9enddate?5YYMMDDHHMMSSZ?5?5?5?5?9?5cer@ 00055c10     ca.obj
 0002:00003c60       ??_C@_0DN@DIBKDMNL@?5?9startdate?5YYMMDDHHMMSSZ?5?5?9?5cer@ 00055c60     ca.obj
 0002:00003ca0       ??_C@_0DG@LPFPOPON@?5?9crlhours?5hours?5?9?5Hours?5is?5when@ 00055ca0     ca.obj
 0002:00003cd8       ??_C@_0DF@KLKOKIFA@?5?9crldays?5days?5?5?5?9?5Days?5is?5when?5@ 00055cd8     ca.obj
 0002:00003d10       ??_C@_0CH@MGCKJGBO@?5?9gencrl?5?5?5?5?5?5?5?5?5?9?5Generate?5a?5ne@ 00055d10     ca.obj
 0002:00003d38       ??_C@_0DI@IBPOBFOL@?5?9name?5arg?5?5?5?5?5?5?5?9?5The?5particula@ 00055d38     ca.obj
 0002:00003d70       ??_C@_0CC@HLCCBAOC@?5?9config?5file?5?5?5?5?9?5A?5config?5file@ 00055d70     ca.obj
 0002:00003d94       ??_C@_0DB@FKAPAHFL@?5?9verbose?5?5?5?5?5?5?5?5?9?5Talk?5alot?5whi@ 00055d94     ca.obj
 0002:00003dc8       ??_C@_0BA@KGAGJMI@usage?3?5ca?5args?6?$AA@ 00055dc8     ca.obj
 0002:00003dd8       ??_C@_0CD@NEOGLMMJ@variable?5lookup?5failed?5for?5?$CFs?3?3?$CF@ 00055dd8     ca.obj
 0002:00003dfc       ??_C@_0BC@OGOMGIJL@?$CFs?$DNUnknown?5?$CI?$CFc?$CJ?4?6?$AA@ 00055dfc     ca.obj
 0002:00003e10       ??_C@_0BD@CMGCMFBH@?$CFs?$DNSuspended?5?$CI?$CFc?$CJ?6?$AA@ 00055e10     ca.obj
 0002:00003e24       ??_C@_0BB@HJEOPHIK@?$CFs?$DNExpired?5?$CI?$CFc?$CJ?6?$AA@ 00055e24     ca.obj
 0002:00003e38       ??_C@_0BB@FFCJGCAD@?$CFs?$DNRevoked?5?$CI?$CFc?$CJ?6?$AA@ 00055e38     ca.obj
 0002:00003e4c       ??_C@_0P@KBBAHPCN@?$CFs?$DNValid?5?$CI?$CFc?$CJ?6?$AA@ 00055e4c     ca.obj
 0002:00003e5c       ??_C@_0BO@IBICPFBA@Serial?5?$CFs?5not?5present?5in?5db?4?6?$AA@ 00055e5c     ca.obj
 0002:00003e7c       ??_C@_0BA@DHKOJLMG@Malloc?5failure?6?$AA@ 00055e7c     ca.obj
 0002:00003e90       ??_C@_0EC@DJBDFIEF@d?3?2wm653wehh?2platform?2mvv210?2src@ 00055e90     ca.obj
 0002:00003ed4       ??_C@_0M@OMINNFDO@?$CFs?$DNExpired?6?$AA@ 00055ed4     ca.obj
 0002:00003ee0       ??_C@_02CNFIOGBL@49?$AA@   00055ee0     ca.obj
 0002:00003ee4       ??_C@_01IHBHIGKO@?0?$AA@   00055ee4     ca.obj
 0002:00003ee8       ??_C@_0BH@NKOOAKFK@Unknown?5CRL?5reason?5?$CFs?6?$AA@ 00055ee8     ca.obj
 0002:00003f00       ??_C@_0BO@OAMFEEJM@Invalid?5object?5identifier?5?$CFs?6?$AA@ 00055f00     ca.obj
 0002:00003f20       ??_C@_0CO@GEFMGEIH@Invalid?5time?5format?5?$CFs?4?5Need?5YYY@ 00055f20     ca.obj
 0002:00003f50       ??_C@_02MHFDJOAC@?8?6?$AA@ 00055f50     ca.obj
 0002:00003f54       ??_C@_03IFDPOEBN@?$FO?$CFc?$AA@ 00055f54     ca.obj
 0002:00003f58       ??_C@_02DOECAPGL@?$FO?$DP?$AA@ 00055f58     ca.obj
 0002:00003f5c       ??_C@_07HLMBFCJG@?20x?$CF02X?$AA@ 00055f5c     ca.obj
 0002:00003f64       ??_C@_02HAOIJKIC@?$CFc?$AA@ 00055f64     ca.obj
 0002:00003f68       ??_C@_0M@EJNHLAGD@ASN?41?5?$CF2d?3?8?$AA@ 00055f68     ca.obj
 0002:00003f74       ??_C@_0BC@MLMKONMK@UNIVERSALSTRING?3?8?$AA@ 00055f74     ca.obj
 0002:00003f88       ??_C@_0M@KEGLEMJI@IA5STRING?3?8?$AA@ 00055f88     ca.obj
 0002:00003f94       ??_C@_0M@OICOEHIA@T61STRING?3?8?$AA@ 00055f94     ca.obj
 0002:00003fa0       ??_C@_0M@FPAMBEHE@PRINTABLE?3?8?$AA@ 00055fa0     ca.obj
 0002:00003fac       ??_C@_0BN@DFFODFGO@invalid?5compromised?5time?5?$CFs?6?$AA@ 00055fac     ca.obj
 0002:00003fcc       ??_C@_0BK@OCEDLCGI@missing?5compromised?5time?6?$AA@ 00055fcc     ca.obj
 0002:00003fe8       ??_C@_0BO@BBNDMJI@invalid?5object?5identifier?5?$CFs?6?$AA@ 00055fe8     ca.obj
 0002:00004008       ??_C@_0BK@GLHGHJBD@missing?5hold?5instruction?6?$AA@ 00056008     ca.obj
 0002:00004024       ??_C@_0BI@EKGDAIMG@invalid?5reason?5code?5?$CFs?6?$AA@ 00056024     ca.obj
 0002:0000403c       ??_C@_0BM@ENJPCCNL@invalid?5revocation?5date?5?$CFs?6?$AA@ 0005603c     ca.obj
 0002:00004058       ??_C@_0BL@ILNAPLLO@failed?5to?5update?5database?6?$AA@ 00056058     ca.obj
 0002:00004074       ??_C@_0BJ@HFPMKNMK@TXT_DB?5error?5number?5?$CFld?6?$AA@ 00056074     ca.obj
 0002:00004090       ??_C@_07CIFAGBMG@unknown?$AA@ 00056090     ca.obj
 0002:00004098       ??_C@_0CD@CAANIMB@CERTIFICATE?5WILL?5NOT?5BE?5CERTIFIE@ 00056098     ca.obj
 0002:000040bc       ??_C@_0CO@EICLBDNG@CERTIFICATE?5WILL?5NOT?5BE?5CERTIFIE@ 000560bc     ca.obj
 0002:000040ec       ??_C@_0BN@PBKJGAOM@Sign?5the?5certificate?$DP?5?$FLy?1n?$FN?3?$AA@ 000560ec     ca.obj
 0002:0000410c       ??_C@_0M@BLIKBEEG@?5?$CI?$CFld?5days?$CJ?$AA@ 0005610c     ca.obj
 0002:00004118       ??_C@_0CG@HAEJFJKD@Certificate?5is?5to?5be?5certified?5u@ 00056118     ca.obj
 0002:00004140       ??_C@_0BG@KCAMCGGE@Certificate?5Details?3?6?$AA@ 00056140     ca.obj
 0002:00004158       ??_C@_0CH@GCHAKPCA@ERROR?3?5adding?5extensions?5from?5re@ 00056158     ca.obj
 0002:00004180       ??_C@_0CL@IJAJCKJM@Successfully?5added?5extensions?5fr@ 00056180     ca.obj
 0002:000041ac       ??_C@_0CK@HDEGCLBM@Successfully?5added?5extensions?5fr@ 000561ac     ca.obj
 0002:000041d8       ??_C@_0CI@CDCFDCNK@ERROR?3?5adding?5extensions?5in?5sect@ 000561d8     ca.obj
 0002:00004200       ??_C@_0CA@GNPALBJL@Extra?5configuration?5file?5found?6?$AA@ 00056200     ca.obj
 0002:00004220       ??_C@_05MGEAPCOL@today?$AA@ 00056220     ca.obj
 0002:00004228       ??_C@_0ED@HKAGAIMJ@Everything?5appears?5to?5be?5ok?0?5cre@ 00056228     ca.obj
 0002:0000426c       ??_C@_0BD@OLCDJGCP@Subject?5Name?5?5?3?$CFs?6?$AA@ 0005626c     ca.obj
 0002:00004280       ??_C@_0BD@OIHIMAIP@File?5name?5?5?5?5?5?3?$CFs?6?$AA@ 00056280     ca.obj
 0002:00004294       ??_C@_0BD@FFCFMPEF@Serial?5Number?5?3?$CFs?6?$AA@ 00056294     ca.obj
 0002:000042a8       ??_C@_0BD@NONICKGN@Expires?5on?5?5?5?5?3?$CFs?6?$AA@ 000562a8     ca.obj
 0002:000042bc       ??_C@_0BD@NMJPNPKD@Was?5revoked?5on?3?$CFs?6?$AA@ 000562bc     ca.obj
 0002:000042d0       ??_C@_05PKCPKOLM@undef?$AA@ 000562d0     ca.obj
 0002:000042d8       ??_C@_0M@NJPOJDMP@Type?7?5?5?3?$CFs?6?$AA@ 000562d8     ca.obj
 0002:000042e4       ??_C@_0CA@LFJLPPLE@?6invalid?5type?0?5Data?5base?5error?6?$AA@ 000562e4     ca.obj
 0002:00004304       ??_C@_05HNPPNPM@Valid?$AA@ 00056304     ca.obj
 0002:0000430c       ??_C@_07DBODGOEF@Revoked?$AA@ 0005630c     ca.obj
 0002:00004314       ??_C@_07DFJMKFNB@Expired?$AA@ 00056314     ca.obj
 0002:0000431c       ??_C@_0CO@OBOHPCBI@The?5matching?5entry?5has?5the?5follo@ 0005631c     ca.obj
 0002:0000434c       ??_C@_0DB@DKJIEMJH@ERROR?3Serial?5number?5?$CFs?5has?5alrea@ 0005634c     ca.obj
 0002:00004380       ??_C@_0DF@CNJACNGP@?5?5?5?5?5?5check?5the?5database?1serial_@ 00056380     ca.obj
 0002:000043b8       ??_C@_0CN@OLLJEEHJ@ERROR?3There?5is?5already?5a?5certifi@ 000563b8     ca.obj
 0002:000043e8       ??_C@_02PLJDPFIO@00?$AA@   000563e8     ca.obj
 0002:000043f0       ??_C@_0ED@OGMFDFPB@The?5subject?5name?5appears?5to?5be?5o@ 000563f0     ca.obj
 0002:00004434       ??_C@_0CL@EDGMFLIN@?$CFs?3invalid?5type?5in?5?8policy?8?5conf@ 00056434     ca.obj
 0002:00004460       ??_C@_0FE@MJNFEBBH@The?5?$CFs?5field?5needed?5to?5be?5the?5sa@ 00056460     ca.obj
 0002:000044b8       ??_C@_0FC@CLLIHKBK@The?5?$CFs?5field?5does?5not?5exist?5in?5t@ 000564b8     ca.obj
 0002:0000450c       ??_C@_0CE@DJNNFNJL@The?5mandatory?5?$CFs?5field?5was?5missi@ 0005650c     ca.obj
 0002:00004530       ??_C@_0DE@OGHONDIE@The?5?$CFs?5field?5needed?5to?5be?5suppli@ 00056530     ca.obj
 0002:00004564       ??_C@_0DC@KCFNOMEL@?$CFs?3unknown?5object?5type?5in?5?8polic@ 00056564     ca.obj
 0002:00004598       ??_C@_05FNONLPDI@match?$AA@ 00056598     ca.obj
 0002:000045a0       ??_C@_08IGEDNDPC@supplied?$AA@ 000565a0     ca.obj
 0002:000045ac       ??_C@_08EBGGHLAO@optional?$AA@ 000565ac     ca.obj
 0002:000045b8       ??_C@_0EF@KCEAFLOC@?6The?5string?5contains?5characters?5@ 000565b8     ca.obj
 0002:00004600       ??_C@_0DC@JDICNINH@?6emailAddress?5type?5needs?5to?5be?5o@ 00056600     ca.obj
 0002:00004634       ??_C@_0DA@FNDAHFFM@The?5Subject?8s?5Distinguished?5Name@ 00056634     ca.obj
 0002:00004664       ??_C@_0O@NPENBAOL@malloc?5error?6?$AA@ 00056664     ca.obj
 0002:00004674       ??_C@_0CJ@IGILIHJB@unable?5to?5load?5Netscape?5SPKAC?5st@ 00056674     ca.obj
 0002:000046a0       ??_C@_0O@OKNNLJOD@Signature?5ok?6?$AA@ 000566a0     ca.obj
 0002:000046b0       ??_C@_0DD@JJCAIGEL@signature?5verification?5failed?5on@ 000566b0     ca.obj
 0002:000046e4       ??_C@_0CC@KHDGLDHB@error?5unpacking?5SPKAC?5public?5key@ 000566e4     ca.obj
 0002:00004708       ??_C@_0DE@JFKAOFNC@Check?5that?5the?5SPKAC?5request?5mat@ 00056708     ca.obj
 0002:0000473c       ??_C@_0CK@BHFKNBFM@Netscape?5SPKAC?5structure?5not?5fou@ 0005673c     ca.obj
 0002:00004768       ??_C@_05BKCNMPMD@SPKAC?$AA@ 00056768     ca.obj
 0002:00004770       ??_C@_0CB@HEFHHIFF@no?5name?1value?5pairs?5found?5in?5?$CFs?6@ 00056770     ca.obj
 0002:00004794       ??_C@_0BP@BMAAMPCP@Error?5in?5revocation?5arguments?6?$AA@ 00056794     ca.obj
 0002:000047b4       ??_C@_0BK@DFOGDJO@Revoking?5Certificate?5?$CFs?4?6?$AA@ 000567b4     ca.obj
 0002:000047d0       ??_C@_0CJ@EKIABMDE@ERROR?3Already?5revoked?0?5serial?5nu@ 000567d0     ca.obj
 0002:000047fc       ??_C@_0BO@NAPPGGPG@ERROR?3name?5does?5not?5match?5?$CFs?6?$AA@ 000567fc     ca.obj
 0002:0000481c       ??_C@_0DB@DCAJBECB@Adding?5Entry?5with?5serial?5number?5@ 0005681c     ca.obj
 0002:00004850       ??_C@_0DB@IDIGBDHM@Signature?5did?5not?5match?5the?5cert@ 00056850     ca.obj
 0002:00004884       ??_C@_0CF@PMPNIMKJ@Signature?5verification?5problems?4@ 00056884     ca.obj
 0002:000048ac       ??_C@_0BM@JDNMMHMG@error?5unpacking?5public?5key?6?$AA@ 000568ac     ca.obj
 0002:000048c8       ??_C@_0DF@NBEBGKAJ@Certificate?5request?5and?5CA?5priva@ 000568c8     ca.obj
 0002:00004900       ??_C@_0CO@BGGIPDIE@Check?5that?5the?5request?5matches?5t@ 00056900     ca.obj
 0002:00004930       ??_C@_0CJ@GLEJHDFB@Error?5reading?5certificate?5reques@ 00056930     ca.obj
 0002:0000495c       ??_C@_0CJ@GEOLDMJL@Signature?5did?5not?5match?5the?5cert@ 0005695c     ca.obj
 0002:00004988       ??_C@_0BA@BINEDGJD@no?5input?5files?6?$AA@ 00056988     ca.obj
 0002:00004998       ??_C@_0N@HFKLMDGD@signing?5CRL?6?$AA@ 00056998     ca.obj
 0002:000049a8       ??_C@_0BO@LBJONHE@error?5setting?5CRL?5nextUpdate?6?$AA@ 000569a8     ca.obj
 0002:000049c8       ??_C@_0M@LKOGJLM@making?5CRL?6?$AA@ 000569c8     ca.obj
 0002:000049d4       ??_C@_0DF@JPCFHIM@cannot?5lookup?5how?5long?5until?5the@ 000569d4     ca.obj
 0002:00004a0c       ??_C@_0BC@BCEJBAGO@default_crl_hours?$AA@ 00056a0c     ca.obj
 0002:00004a20       ??_C@_0BB@CNLEMMI@default_crl_days?$AA@ 00056a20     ca.obj
 0002:00004a34       ??_C@_0CA@NKEONCG@error?5while?5loading?5CRL?5number?6?$AA@ 00056a34     ca.obj
 0002:00004a54       ??_C@_09FMEKEDFM@crlnumber?$AA@ 00056a54     ca.obj
 0002:00004a60       ??_C@_0CI@FHNGLKKG@Error?5Loading?5CRL?5extension?5sect@ 00056a60     ca.obj
 0002:00004a88       ??_C@_0P@LMJCLHAD@crl_extensions?$AA@ 00056a88     ca.obj
 0002:00004a98       ??_C@_0BD@FCLJNDBO@Data?5Base?5Updated?6?$AA@ 00056a98     ca.obj
 0002:00004aac       ??_C@_0CA@CIOHDAIP@certificate?5file?5name?5too?5long?6?$AA@ 00056aac     ca.obj
 0002:00004acc       ??_C@_0M@JKCPKPL@writing?5?$CFs?6?$AA@ 00056acc     ca.obj
 0002:00004ad8       ??_C@_0BK@DNHCMKMD@writing?5new?5certificates?6?$AA@ 00056ad8     ca.obj
 0002:00004af4       ??_C@_0CI@IOAEAKNK@Write?5out?5database?5with?5?$CFd?5new?5e@ 00056af4     ca.obj
 0002:00004b1c       ??_C@_0BI@LFFBCNEP@CERTIFICATION?5CANCELED?6?$AA@ 00056b1c     ca.obj
 0002:00004b34       ??_C@_0CD@CCMDMABJ@CERTIFICATION?5CANCELED?3?5I?1O?5erro@ 00056b34     ca.obj
 0002:00004b58       ??_C@_0DM@KFBODCJH@?6?$CFd?5out?5of?5?$CFd?5certificate?5reques@ 00056b58     ca.obj
 0002:00004b94       ??_C@_0CB@LPAMDNLJ@unable?5to?5find?5?8section?8?5for?5?$CFs?6@ 00056b94     ca.obj
 0002:00004bb8       ??_C@_0BK@FOPOPEHK@next?5serial?5number?5is?5?$CFs?6?$AA@ 00056bb8     ca.obj
 0002:00004bd4       ??_C@_0BK@ELOFGAEO@next?5serial?5number?5is?500?6?$AA@ 00056bd4     ca.obj
 0002:00004bf0       ??_C@_0CD@PJANBPCG@error?5while?5loading?5serial?5numbe@ 00056bf0     ca.obj
 0002:00004c14       ??_C@_0CM@LBMHJEAI@cannot?5lookup?5how?5many?5days?5to?5c@ 00056c14     ca.obj
 0002:00004c40       ??_C@_0N@GAOBGEON@default_days?$AA@ 00056c40     ca.obj
 0002:00004c50       ??_C@_0EE@ECCHIHFP@end?5date?5is?5invalid?0?5it?5should?5b@ 00056c50     ca.obj
 0002:00004c94       ??_C@_0BA@OICENKHG@default_enddate?$AA@ 00056c94     ca.obj
 0002:00004ca8       ??_C@_0EG@BGKOLOEI@start?5date?5is?5invalid?0?5it?5should@ 00056ca8     ca.obj
 0002:00004cf0       ??_C@_0BC@LHDIFPNN@default_startdate?$AA@ 00056cf0     ca.obj
 0002:00004d04       ??_C@_06KCELPKEE@serial?$AA@ 00056d04     ca.obj
 0002:00004d0c       ??_C@_0O@BNCCCDFL@policy?5is?5?$CFs?6?$AA@ 00056d0c     ca.obj
 0002:00004d1c       ??_C@_06NJNJNICG@policy?$AA@ 00056d1c     ca.obj
 0002:00004d24       ??_C@_0BG@GDPDFCPO@message?5digest?5is?5?$CFs?6?$AA@ 00056d24     ca.obj
 0002:00004d3c       ??_C@_0M@BNJACADD@email_in_dn?$AA@ 00056d3c     ca.obj
 0002:00004d48       ??_C@_0BD@JLOHALFC@no?5default?5digest?6?$AA@ 00056d48     ca.obj
 0002:00004d5c       ??_C@_0L@ICCCPLKC@extensions?$AA@ 00056d5c     ca.obj
 0002:00004d68       ??_C@_0CI@GJHHEJDC@Successfully?5loaded?5extensions?5f@ 00056d68     ca.obj
 0002:00004d90       ??_C@_0CI@PFACNGKK@ERROR?3?5on?5line?5?$CFld?5of?5config?5fil@ 00056d90     ca.obj
 0002:00004db8       ??_C@_0CF@JLMMFMBJ@ERROR?3?5loading?5the?5config?5file?5?8@ 00056db8     ca.obj
 0002:00004de0       ??_C@_0CE@BKGMBKFP@Done?4?5?$CFd?5entries?5marked?5as?5expir@ 00056de0     ca.obj
 0002:00004e04       ??_C@_03PNKCFLFB@old?$AA@  00056e04     ca.obj
 0002:00004e08       ??_C@_03CLCAEGCJ@new?$AA@  00056e08     ca.obj
 0002:00004e0c       ??_C@_0CC@BEOKHPOI@No?5entries?5found?5to?5mark?5expired@ 00056e0c     ca.obj
 0002:00004e30       ??_C@_0BB@GPBLOKCE@Updating?5?$CFs?5?4?4?4?6?$AA@ 00056e30     ca.obj
 0002:00004e44       ??_C@_0CF@MGCGHPBH@?$CFd?5entries?5loaded?5from?5the?5datab@ 00056e44     ca.obj
 0002:00004e6c       ??_C@_0BC@EHEMHFHP@generating?5index?6?$AA@ 00056e6c     ca.obj
 0002:00004e80       ??_C@_0CJ@DGNHGOCC@entry?5?$CFd?3?5bad?5serial?5number?5leng@ 00056e80     ca.obj
 0002:00004eb0       ??_C@_0EE@PDLJBMCP@entry?5?$CFd?3?5bad?5serial?5number?5char@ 00056eb0     ca.obj
 0002:00004ef4       ??_C@_0BP@KJFBFOIG@entry?5?$CFd?3?5invalid?5expiry?5date?6?$AA@ 00056ef4     ca.obj
 0002:00004f14       ??_C@_0O@BCAKHCIK@?5in?5entry?5?$CFd?6?$AA@ 00056f14     ca.obj
 0002:00004f24       ??_C@_0DG@GALGPOKE@entry?5?$CFd?3?5not?5revoked?5yet?0?5but?5h@ 00056f24     ca.obj
 0002:00004f5c       ??_C@_0BL@MMFEOCD@?$CFs?5need?5to?5be?5a?5directory?6?$AA@ 00056f5c     ca.obj
 0002:00004f78       ??_C@_0CI@LLBHJJJN@I?5am?5unable?5to?5access?5the?5?$CFs?5dir@ 00056f78     ca.obj
 0002:00004fa0       ??_C@_0EL@MHBJEKA@there?5needs?5to?5be?5defined?5a?5dire@ 00056fa0     ca.obj
 0002:00004fec       ??_C@_0O@MCICMBPC@new_certs_dir?$AA@ 00056fec     ca.obj
 0002:00004ffc       ??_C@_0CF@GNKAKOCI@Invalid?5extension?5copy?5option?3?5?$CC@ 00056ffc     ca.obj
 0002:00005024       ??_C@_0BA@JKMALOEE@copy_extensions?$AA@ 00057024     ca.obj
 0002:00005034       ??_C@_0CD@BFABCJIA@Invalid?5certificate?5options?3?5?$CC?$CFs@ 00057034     ca.obj
 0002:00005058       ??_C@_08MJPDBNNH@cert_opt?$AA@ 00057058     ca.obj
 0002:00005064       ??_C@_0BM@KALABIFI@Invalid?5name?5options?3?5?$CC?$CFs?$CC?6?$AA@ 00057064     ca.obj
 0002:00005080       ??_C@_08OFOKMJGD@name_opt?$AA@ 00057080     ca.obj
 0002:0000508c       ??_C@_09PMPAOOFG@msie_hack?$AA@ 0005708c     ca.obj
 0002:00005098       ??_C@_08ILAKLJGO@preserve?$AA@ 00057098     ca.obj
 0002:000050a4       ??_C@_0DA@DPECBGP@CA?5certificate?5and?5CA?5private?5ke@ 000570a4     ca.obj
 0002:000050d4       ??_C@_0P@KDJNKNNI@CA?5certificate?$AA@ 000570d4     ca.obj
 0002:000050e4       ??_C@_0M@LLNFCECG@certificate?$AA@ 000570e4     ca.obj
 0002:000050f0       ??_C@_0P@HBHFBBML@CA?5private?5key?$AA@ 000570f0     ca.obj
 0002:00005100       ??_C@_0M@BCLPOPCL@private_key?$AA@ 00057100     ca.obj
 0002:0000510c       ??_C@_0BM@EHONGJEE@Error?5verifying?5serial?5?$CFs?$CB?6?$AA@ 0005710c     ca.obj
 0002:00005128       ??_C@_08PBOCEOLL@database?$AA@ 00057128     ca.obj
 0002:00005134       ??_C@_0P@HOGDIGGB@unique_subject?$AA@ 00057134     ca.obj
 0002:00005144       ??_C@_0L@BIKOHKFP@default_ca?$AA@ 00057144     ca.obj
 0002:00005150       ??_C@_02DGMJAJHC@ca?$AA@   00057150     ca.obj
 0002:00005154       ??_C@_0CH@MPAIMKJO@error?5on?5line?5?$CFld?5of?5config?5file@ 00057154     ca.obj
 0002:0000517c       ??_C@_0CE@NCMMMAJM@error?5loading?5the?5config?5file?5?8?$CF@ 0005717c     ca.obj
 0002:000051a0       ??_C@_01KMDKNFGN@?1?$AA@   000571a0     ca.obj
 0002:000051a4       ??_C@_0M@CFEEHNHP@openssl?4cnf?$AA@ 000571a4     ca.obj
 0002:000051b0       ??_C@_0M@JALBFNKB@SSLEAY_CONF?$AA@ 000571b0     ca.obj
 0002:000051bc       ??_C@_0N@JPGHCLFD@OPENSSL_CONF?$AA@ 000571bc     ca.obj
 0002:000051cc       ??_C@_02DKCKIIND@?$CFs?$AA@ 000571cc     ca.obj
 0002:000051d0       ??_C@_0BD@NNIBNLBA@?9crl_CA_compromise?$AA@ 000571d0     ca.obj
 0002:000051e4       ??_C@_0BA@IMJHBFJA@?9crl_compromise?$AA@ 000571e4     ca.obj
 0002:000051f4       ??_C@_09BGNIOPOI@?9crl_hold?$AA@ 000571f4     ca.obj
 0002:00005200       ??_C@_0M@EJIMBBJA@?9crl_reason?$AA@ 00057200     ca.obj
 0002:0000520c       ??_C@_08JIFOLNCJ@?9crlexts?$AA@ 0005720c     ca.obj
 0002:00005218       ??_C@_09BEFMJHAN@?9updatedb?$AA@ 00057218     ca.obj
 0002:00005224       ??_C@_07KDLKDLMI@?9status?$AA@ 00057224     ca.obj
 0002:0000522c       ??_C@_08LEGMGGCD@?9extfile?$AA@ 0005722c     ca.obj
 0002:00005238       ??_C@_07JCLPEBOD@?9revoke?$AA@ 00057238     ca.obj
 0002:00005240       ??_C@_06FDHPAOAM@?9spkac?$AA@ 00057240     ca.obj
 0002:00005248       ??_C@_08KGIDGCCC@?9ss_cert?$AA@ 00057248     ca.obj
 0002:00005254       ??_C@_08PBEJALD@?9infiles?$AA@ 00057254     ca.obj
 0002:00005260       ??_C@_07CBJOAJDC@?9crlsec?$AA@ 00057260     ca.obj
 0002:00005268       ??_C@_09JBBILJPK@?9crlhours?$AA@ 00057268     ca.obj
 0002:00005274       ??_C@_08IAPHBPNP@?9crldays?$AA@ 00057274     ca.obj
 0002:00005280       ??_C@_0L@DJPFPFBM@?9msie_hack?$AA@ 00057280     ca.obj
 0002:0000528c       ??_C@_07HPCKLCMH@?9gencrl?$AA@ 0005728c     ca.obj
 0002:00005294       ??_C@_0L@NIPNLDGA@?9noemailDN?$AA@ 00057294     ca.obj
 0002:000052a0       ??_C@_0M@MGGGCMAJ@?9preserveDN?$AA@ 000572a0     ca.obj
 0002:000052ac       ??_C@_07MLJOBJAC@?9notext?$AA@ 000572ac     ca.obj
 0002:000052b4       ??_C@_07DMKGDKOP@?9outdir?$AA@ 000572b4     ca.obj
 0002:000052bc       ??_C@_09CLPCDNOK@?9selfsign?$AA@ 000572bc     ca.obj
 0002:000052c8       ??_C@_05DLEDECNE@?9cert?$AA@ 000572c8     ca.obj
 0002:000052d0       ??_C@_08BLHBJKMB@?9keyfile?$AA@ 000572d0     ca.obj
 0002:000052dc       ??_C@_07EDOEKPLG@?9policy?$AA@ 000572dc     ca.obj
 0002:000052e4       ??_C@_08BOPFEEAL@?9enddate?$AA@ 000572e4     ca.obj
 0002:000052f0       ??_C@_0L@DKBOBAPE@?9startdate?$AA@ 000572f0     ca.obj
 0002:000052fc       ??_C@_0P@PCNAFLPB@?9create_serial?$AA@ 000572fc     ca.obj
 0002:0000530c       ??_C@_05IBCNGGP@?9name?$AA@ 0005730c     ca.obj
 0002:00005314       ??_C@_0CN@BIPGADFJ@bad?5input?5format?5specified?5for?5p@ 00057314     pkcs7.obj
 0002:00005344       ??_C@_0BO@JCPMNLPI@unable?5to?5write?5pkcs7?5object?6?$AA@ 00057344     pkcs7.obj
 0002:00005364       ??_C@_0BN@ECNJJICM@unable?5to?5load?5PKCS7?5object?6?$AA@ 00057364     pkcs7.obj
 0002:00005384       ??_C@_0CK@BAAODCLL@?5?9inform?5arg?5?5?5input?5format?5?9?5DE@ 00057384     pkcs7.obj
 0002:000053b0       ??_C@_0CL@ODKCHCIH@?5?9outform?5arg?5?5output?5format?5?9?5D@ 000573b0     pkcs7.obj
 0002:000053dc       ??_C@_0DE@POHMEMDH@?5?9print_certs?5?5print?5any?5certs?5o@ 000573dc     pkcs7.obj
 0002:00005410       ??_C@_0DD@GHDEJGIO@?5?9text?5?5?5?5?5?5?5?5?5print?5full?5detail@ 00057410     pkcs7.obj
 0002:00005444       ??_C@_0CK@CNFPHCM@?5?9noout?5?5?5?5?5?5?5?5don?8t?5output?5enco@ 00057444     pkcs7.obj
 0002:00005470       ??_C@_0N@ILGHIMOP@?9print_certs?$AA@ 00057470     pkcs7.obj
 0002:00005480       ??_C@_06LPNCEOC@?9print?$AA@ 00057480     pkcs7.obj
 0002:00005488       ??_C@_0BM@JKMADHFH@error?5opening?5the?5file?0?5?$CFs?6?$AA@ 00057488     crl2p7.obj
 0002:000054a4       ??_C@_0BM@DEMCMJDC@error?5reading?5the?5file?0?5?$CFs?6?$AA@ 000574a4     crl2p7.obj
 0002:000054c0       ??_C@_0BM@IDMGCMHJ@error?5loading?5certificates?6?$AA@ 000574c0     crl2p7.obj
 0002:000054dc       ??_C@_0CK@DJFFGPOF@bad?5input?5format?5specified?5for?5i@ 000574dc     crl2p7.obj
 0002:00005508       ??_C@_0BE@BBFHHDDE@unable?5to?5load?5CRL?6?$AA@ 00057508     crl2p7.obj
 0002:0000551c       ??_C@_0DM@FKKBPEBO@?5?9certfile?5arg?5?5certificates?5fil@ 0005751c     crl2p7.obj
 0002:00005558       ??_C@_0CO@HDOHIEOB@?5?5?5?5?5?5?5?5?5?5?5?5?5?5?5?5?$CIcan?5be?5used?5mor@ 00057558     crl2p7.obj
 0002:00005588       ??_C@_0DN@OMNJHAB@?5?9nocrl?5?5?5?5?5?5?5?5?5no?5crl?5to?5load?0?5@ 00057588     crl2p7.obj
 0002:000055c8       ??_C@_09LJGMBFEA@?9certfile?$AA@ 000575c8     crl2p7.obj
 0002:000055d4       ??_C@_06FCMLDGBD@?9nocrl?$AA@ 000575d4     crl2p7.obj
 0002:000055dc       ??_C@_0DL@PIKJLCCI@?5?9CApath?5?5dir?5?5?5?5?9?5verify?5CRL?5us@ 000575dc     crl.obj
 0002:00005618       ??_C@_0EB@GJOKHONG@?5?9CAfile?5?5name?5?5?5?9?5verify?5CRL?5us@ 00057618     crl.obj
 0002:0000565c       ??_C@_0CC@CIPJOIHG@?5?9noout?5?5?5?5?5?5?5?5?5?5?9?5no?5CRL?5output@ 0005765c     crl.obj
 0002:00005680       ??_C@_0CF@MBNNLHDM@?5?9crlnumber?5?5?5?5?5?5?9?5print?5CRL?5num@ 00057680     crl.obj
 0002:000056a8       ??_C@_0CF@NDFEADMN@?5?9nextupdate?5?5?5?5?5?9?5nextUpdate?5fi@ 000576a8     crl.obj
 0002:000056d0       ??_C@_0CF@BOOFDJPJ@?5?9lastupdate?5?5?5?5?5?9?5lastUpdate?5fi@ 000576d0     crl.obj
 0002:000056f8       ??_C@_0CE@MDFJAKHB@?5?9issuer?5?5?5?5?5?5?5?5?5?9?5print?5issuer?5@ 000576f8     crl.obj
 0002:0000571c       ??_C@_0CO@KEFHBAIF@?5?9fingerprint?5?5?5?5?9?5print?5the?5crl@ 0005771c     crl.obj
 0002:0000574c       ??_C@_0CF@NOAFFEHE@?5?9hash?5?5?5?5?5?5?5?5?5?5?5?9?5print?5hash?5va@ 0005774c     crl.obj
 0002:00005774       ??_C@_0DB@EFLGJJDD@?5?9out?5arg?5?5?5?5?5?5?5?5?9?5output?5file?5?9@ 00057774     crl.obj
 0002:000057a8       ??_C@_0CP@OHCNNAMM@?5?9in?5arg?5?5?5?5?5?5?5?5?5?9?5input?5file?5?9?5@ 000577a8     crl.obj
 0002:000057d8       ??_C@_0DE@CMCDPINC@?5?9text?5?5?5?5?5?5?5?5?5?5?5?9?5print?5out?5a?5t@ 000577d8     crl.obj
 0002:0000580c       ??_C@_0DA@KKNGHCLN@?5?9outform?5arg?5?5?5?5?9?5output?5format@ 0005780c     crl.obj
 0002:0000583c       ??_C@_0DM@PHNHJNIF@?5?9inform?5arg?5?5?5?5?5?9?5input?5format?5@ 0005783c     crl.obj
 0002:00005878       ??_C@_0BB@MPEAOOGK@usage?3?5crl?5args?6?$AA@ 00057878     crl.obj
 0002:0000588c       ??_C@_0BF@ECKMNJGO@unable?5to?5write?5CRL?6?$AA@ 0005788c     crl.obj
 0002:000058a4       ??_C@_06FOGCEBND@?$CF02X?$CFc?$AA@ 000578a4     crl.obj
 0002:000058ac       ??_C@_0BA@BJKFFDMN@?$CFs?5Fingerprint?$DN?$AA@ 000578ac     crl.obj
 0002:000058bc       ??_C@_04OKGDLNCL@NONE?$AA@ 000578bc     crl.obj
 0002:000058c4       ??_C@_0M@CKCLKDMP@nextUpdate?$DN?$AA@ 000578c4     crl.obj
 0002:000058d0       ??_C@_0M@IOCJLFCF@lastUpdate?$DN?$AA@ 000578d0     crl.obj
 0002:000058dc       ??_C@_06LLMAFLIJ@?$CF08lx?6?$AA@ 000578dc     crl.obj
 0002:000058e4       ??_C@_06KOPODAHL@?$DMNONE?$DO?$AA@ 000578e4     crl.obj
 0002:000058ec       ??_C@_0L@PBBPHNHE@crlNumber?$DN?$AA@ 000578ec     crl.obj
 0002:000058f8       ??_C@_07FBILCNB@issuer?$DN?$AA@ 000578f8     crl.obj
 0002:00005900       ??_C@_0CF@JCHOOGEG@Error?5getting?5CRL?5issuer?5public?5@ 00057900     crl.obj
 0002:00005928       ??_C@_0CG@MLNJBOFF@Error?5getting?5CRL?5issuer?5certifi@ 00057928     crl.obj
 0002:00005950       ??_C@_0BP@JMGLOJAO@Error?5initialising?5X509?5store?6?$AA@ 00057950     crl.obj
 0002:00005970       ??_C@_0L@JJEPFIBG@?9crlnumber?$AA@ 00057970     crl.obj
 0002:0000597c       ??_C@_0N@DLPLBIOP@?9fingerprint?$AA@ 0005797c     crl.obj
 0002:0000598c       ??_C@_0M@EFJBIDOD@?9nextupdate?$AA@ 0005798c     crl.obj
 0002:00005998       ??_C@_0M@JGEDAEIF@?9lastupdate?$AA@ 00057998     crl.obj
 0002:000059a4       ??_C@_07NKLAPJEG@?9issuer?$AA@ 000579a4     crl.obj
 0002:000059ac       ??_C@_05CEEENDPI@?9hash?$AA@ 000579ac     crl.obj
 0002:000059b4       ??_C@_0BF@PMEBFKMI@unable?5to?5write?5key?6?$AA@ 000579b4     rsa.obj
 0002:000059d0       ??_C@_0ED@CBMANNAH@d?3?2wm653wehh?2platform?2mvv210?2src@ 000579d0     rsa.obj
 0002:00005a14       ??_C@_0BB@LCMALHAP@writing?5RSA?5key?6?$AA@ 00057a14     rsa.obj
 0002:00005a28       ??_C@_0BD@CNFIPBIH@RSA?5key?5error?3?5?$CFs?6?$AA@ 00057a28     rsa.obj
 0002:00005a3c       ??_C@_0M@CCHECPKH@RSA?5key?5ok?6?$AA@ 00057a3c     rsa.obj
 0002:00005a48       ??_C@_0L@KEAMIOLD@Public?5Key?$AA@ 00057a48     rsa.obj
 0002:00005a54       ??_C@_0CC@NEENNMBO@Only?5private?5keys?5can?5be?5checked@ 00057a54     rsa.obj
 0002:00005a78       ??_C@_0DE@FMGDDDIO@?5?9inform?5arg?5?5?5?5?5input?5format?5?9?5@ 00057a78     rsa.obj
 0002:00005aac       ??_C@_0DF@HDJAAOHH@?5?9outform?5arg?5?5?5?5output?5format?5?9@ 00057aac     rsa.obj
 0002:00005ae4       ??_C@_0BN@CPNHCDE@?5?9in?5arg?5?5?5?5?5?5?5?5?5input?5file?6?$AA@ 00057ae4     rsa.obj
 0002:00005b04       ??_C@_0CJ@IFDJHJBE@?5?9sgckey?5?5?5?5?5?5?5?5?5Use?5IIS?5SGC?5key@ 00057b04     rsa.obj
 0002:00005b30       ??_C@_0DA@NCOFKKHG@?5?9passin?5arg?5?5?5?5?5input?5file?5pass@ 00057b30     rsa.obj
 0002:00005b60       ??_C@_0BO@NEOEGBBD@?5?9out?5arg?5?5?5?5?5?5?5?5output?5file?6?$AA@ 00057b60     rsa.obj
 0002:00005b80       ??_C@_0DB@GKELOAFE@?5?9passout?5arg?5?5?5?5output?5file?5pas@ 00057b80     rsa.obj
 0002:00005bb4       ??_C@_0DC@FJEDCHJC@?5?9des?5?5?5?5?5?5?5?5?5?5?5?5encrypt?5PEM?5out@ 00057bb4     rsa.obj
 0002:00005be8       ??_C@_0EI@GADKMKGK@?5?9des3?5?5?5?5?5?5?5?5?5?5?5encrypt?5PEM?5out@ 00057be8     rsa.obj
 0002:00005c30       ??_C@_0DD@MNCKNCPN@?5?9idea?5?5?5?5?5?5?5?5?5?5?5encrypt?5PEM?5out@ 00057c30     rsa.obj
 0002:00005c64       ??_C@_0DD@MOHKOOBN@?5?9seed?5?5?5?5?5?5?5?5?5?5?5encrypt?5PEM?5out@ 00057c64     rsa.obj
 0002:00005c98       ??_C@_0BM@MBDDJHIE@?5?9aes128?0?5?9aes192?0?5?9aes256?6?$AA@ 00057c98     rsa.obj
 0002:00005cb4       ??_C@_0DC@NPDCOOCP@?5?5?5?5?5?5?5?5?5?5?5?5?5?5?5?5?5encrypt?5PEM?5out@ 00057cb4     rsa.obj
 0002:00005ce8       ??_C@_0CL@PJKJLP@?5?9camellia128?0?5?9camellia192?0?5?9ca@ 00057ce8     rsa.obj
 0002:00005d14       ??_C@_0DH@MPIIFMKN@?5?5?5?5?5?5?5?5?5?5?5?5?5?5?5?5?5encrypt?5PEM?5out@ 00057d14     rsa.obj
 0002:00005d4c       ??_C@_0CI@KCMBBMNI@?5?9text?5?5?5?5?5?5?5?5?5?5?5print?5the?5key?5i@ 00057d4c     rsa.obj
 0002:00005d74       ??_C@_0CG@HBBCCFOB@?5?9noout?5?5?5?5?5?5?5?5?5?5don?8t?5print?5key@ 00057d74     rsa.obj
 0002:00005d9c       ??_C@_0CM@IENIFPI@?5?9modulus?5?5?5?5?5?5?5?5print?5the?5RSA?5k@ 00057d9c     rsa.obj
 0002:00005dc8       ??_C@_0CJ@HBGLJOIO@?5?9check?5?5?5?5?5?5?5?5?5?5verify?5key?5cons@ 00057dc8     rsa.obj
 0002:00005df4       ??_C@_0DE@BJKEJKAK@?5?9pubin?5?5?5?5?5?5?5?5?5?5expect?5a?5public@ 00057df4     rsa.obj
 0002:00005e28       ??_C@_0CG@HGPMKHGB@?5?9pubout?5?5?5?5?5?5?5?5?5output?5a?5public@ 00057e28     rsa.obj
 0002:00005e50       ??_C@_0DM@CHMINMOP@?5?9engine?5e?5?5?5?5?5?5?5use?5engine?5e?0?5p@ 00057e50     rsa.obj
 0002:00005e8c       ??_C@_09BBENBNGN@?9pvk?9none?$AA@ 00057e8c     rsa.obj
 0002:00005e98       ??_C@_09IGNPGCEJ@?9pvk?9weak?$AA@ 00057e98     rsa.obj
 0002:00005ea4       ??_C@_0M@HOBFOGIF@?9pvk?9strong?$AA@ 00057ea4     rsa.obj
 0002:00005eb0       ??_C@_0BC@CNODNPGL@?9RSAPublicKey_out?$AA@ 00057eb0     rsa.obj
 0002:00005ec4       ??_C@_0BB@BLODOEPC@?9RSAPublicKey_in?$AA@ 00057ec4     rsa.obj
 0002:00005ed8       ??_C@_07NGPHMOHJ@?9pubout?$AA@ 00057ed8     rsa.obj
 0002:00005ee0       ??_C@_06NLLOJDKN@?9pubin?$AA@ 00057ee0     rsa.obj
 0002:00005ee8       ??_C@_07LCILBEKO@?9sgckey?$AA@ 00057ee8     rsa.obj
 0002:00005ef0       ??_C@_0BJ@CJCIBPFK@Usage?3?5rsautl?5?$FLoptions?$FN?6?$AA@ 00057ef0     rsautl.obj
 0002:00005f0c       ??_C@_0BM@OAPGFGAE@?9in?5file?5?5?5?5?5?5?5?5input?5file?6?$AA@ 00057f0c     rsautl.obj
 0002:00005f28       ??_C@_0BN@IBKDGIDA@?9out?5file?5?5?5?5?5?5?5output?5file?6?$AA@ 00057f28     rsautl.obj
 0002:00005f48       ??_C@_0BL@KONHOKA@?9inkey?5file?5?5?5?5?5input?5key?6?$AA@ 00057f48     rsautl.obj
 0002:00005f64       ??_C@_0DC@OHMIALFN@?9keyform?5arg?5?5?5?5private?5key?5form@ 00057f64     rsautl.obj
 0002:00005f98       ??_C@_0CI@DHKMHDEJ@?9pubin?5?5?5?5?5?5?5?5?5?5input?5is?5an?5RSA?5@ 00057f98     rsautl.obj
 0002:00005fc0       ??_C@_0ED@HLHMIBOL@?9certin?5?5?5?5?5?5?5?5?5input?5is?5a?5certi@ 00057fc0     rsautl.obj
 0002:00006004       ??_C@_0CE@JBMJBJAM@?9ssl?5?5?5?5?5?5?5?5?5?5?5?5use?5SSL?5v2?5paddi@ 00058004     rsautl.obj
 0002:00006028       ??_C@_0CA@PACKEBFF@?9raw?5?5?5?5?5?5?5?5?5?5?5?5use?5no?5padding?6?$AA@ 00058028     rsautl.obj
 0002:00006048       ??_C@_0DD@PPFPKNBP@?9pkcs?5?5?5?5?5?5?5?5?5?5?5use?5PKCS?$CD1?5v1?45?5@ 00058048     rsautl.obj
 0002:0000607c       ??_C@_0CB@EIDBDHNL@?9oaep?5?5?5?5?5?5?5?5?5?5?5use?5PKCS?$CD1?5OAEP?6@ 0005807c     rsautl.obj
 0002:000060a0       ??_C@_0CH@FEOIFBIC@?9sign?5?5?5?5?5?5?5?5?5?5?5sign?5with?5privat@ 000580a0     rsautl.obj
 0002:000060c8       ??_C@_0CI@KLFFFEGB@?9verify?5?5?5?5?5?5?5?5?5verify?5with?5publ@ 000580c8     rsautl.obj
 0002:000060f0       ??_C@_0CJ@HCKMKDJK@?9encrypt?5?5?5?5?5?5?5?5encrypt?5with?5pub@ 000580f0     rsautl.obj
 0002:0000611c       ??_C@_0CK@IGBDNJCI@?9decrypt?5?5?5?5?5?5?5?5decrypt?5with?5pri@ 0005811c     rsautl.obj
 0002:00006148       ??_C@_0CB@JIPABPNP@?9hexdump?5?5?5?5?5?5?5?5hex?5dump?5output?6@ 00058148     rsautl.obj
 0002:0000616c       ??_C@_0CD@GDBFCBOE@?9passin?5arg?5?5?5?5pass?5phrase?5sourc@ 0005816c     rsautl.obj
 0002:00006190       ??_C@_0BF@IJKBEFJ@RSA?5operation?5error?6?$AA@ 00058190     rsautl.obj
 0002:000061a8       ??_C@_0BK@PFCBAOGC@Error?5reading?5input?5Data?6?$AA@ 000581a8     rsautl.obj
 0002:000061c8       ??_C@_0EG@BDMHMHNF@d?3?2wm653wehh?2platform?2mvv210?2src@ 000581c8     rsautl.obj
 0002:00006210       ??_C@_0BL@HMFJDKMA@Error?5Reading?5Output?5File?6?$AA@ 00058210     rsautl.obj
 0002:0000622c       ??_C@_0BK@BIPALIPH@Error?5Reading?5Input?5File?6?$AA@ 0005822c     rsautl.obj
 0002:00006248       ??_C@_0BH@CIFBFEOC@Error?5getting?5RSA?5key?6?$AA@ 00058248     rsautl.obj
 0002:00006260       ??_C@_0M@KDOEPPNO@Certificate?$AA@ 00058260     rsautl.obj
 0002:0000626c       ??_C@_0CM@PJGLHDCL@A?5private?5key?5is?5needed?5for?5this@ 0005826c     rsautl.obj
 0002:00006298       ??_C@_08ODIALGEJ@?9decrypt?$AA@ 00058298     rsautl.obj
 0002:000062a4       ??_C@_08CNCNOCCN@?9encrypt?$AA@ 000582a4     rsautl.obj
 0002:000062b0       ??_C@_04PGMDFMPL@?9rev?$AA@ 000582b0     rsautl.obj
 0002:000062b8       ??_C@_05FBPOAIOK@?9x931?$AA@ 000582b8     rsautl.obj
 0002:000062c0       ??_C@_05KOHJIHDF@?9pkcs?$AA@ 000582c0     rsautl.obj
 0002:000062c8       ??_C@_04OGPJBOIH@?9ssl?$AA@ 000582c8     rsautl.obj
 0002:000062d0       ??_C@_05MNEEIHD@?9oaep?$AA@ 000582d0     rsautl.obj
 0002:000062d8       ??_C@_04OINBMFGG@?9raw?$AA@ 000582d8     rsautl.obj
 0002:000062e0       ??_C@_08INKHJOD@?9hexdump?$AA@ 000582e0     rsautl.obj
 0002:000062ec       ??_C@_0L@MFHFHCDC@?9asn1parse?$AA@ 000582ec     rsautl.obj
 0002:000062f8       ??_C@_07MBPOKNGC@?9certin?$AA@ 000582f8     rsautl.obj
 0002:00006300       ??_C@_06JJMGFEBF@?9inkey?$AA@ 00058300     rsautl.obj
 0002:00006308       ??_C@_0BN@PABOKEPI@unable?5to?5write?5private?5key?6?$AA@ 00058308     dsa.obj
 0002:00006328       ??_C@_0BB@GNBKIMPE@writing?5DSA?5key?6?$AA@ 00058328     dsa.obj
 0002:0000633c       ??_C@_0M@DICEKGAG@Public?5Key?$DN?$AA@ 0005833c     dsa.obj
 0002:00006348       ??_C@_0BE@GOHLNPJG@unable?5to?5load?5Key?6?$AA@ 00058348     dsa.obj
 0002:0000635c       ??_C@_0O@NEOMHJHN@read?5DSA?5key?6?$AA@ 0005835c     dsa.obj
 0002:0000636c       ??_C@_0CM@HPFOGDCH@?5?9inform?5arg?5?5?5?5?5input?5format?5?9?5@ 0005836c     dsa.obj
 0002:00006398       ??_C@_0CN@PGFKHHCK@?5?9outform?5arg?5?5?5?5output?5format?5?9@ 00058398     dsa.obj
 0002:000063c8       ??_C@_0CN@JBGFOMDF@?5?9modulus?5?5?5?5?5?5?5?5print?5the?5DSA?5p@ 000583c8     dsa.obj
 0002:000063f8       ??_C@_0CA@IAIMOMNI@unable?5to?5write?5DSA?5parameters?6?$AA@ 000583f8     dsaparam.obj
 0002:00006418       ??_C@_0BF@DGBLCCNH@DSA?5?$CKget_dsa?$CFd?$CI?$CJ?6?7?$HL?6?$AA@ 00058418     dsaparam.obj
 0002:00006430       ??_C@_0N@LIFHEPAE@?7DSA?5?$CKdsa?$DL?6?6?$AA@ 00058430     dsaparam.obj
 0002:00006440       ??_C@_0CN@FKNLFKHI@?7if?5?$CI?$CIdsa?$DNDSA_new?$CI?$CJ?$CJ?5?$DN?$DN?5NULL?$CJ?5re@ 00058440     dsaparam.obj
 0002:00006470       ??_C@_0DC@NBCAOFFJ@?7dsa?9?$DOp?$DNBN_bin2bn?$CIdsa?$CFd_p?0sizeof@ 00058470     dsaparam.obj
 0002:000064a4       ??_C@_0DC@NNJLKEGM@?7dsa?9?$DOq?$DNBN_bin2bn?$CIdsa?$CFd_q?0sizeof@ 000584a4     dsaparam.obj
 0002:000064d8       ??_C@_0DC@DNLEDBIC@?7dsa?9?$DOg?$DNBN_bin2bn?$CIdsa?$CFd_g?0sizeof@ 000584d8     dsaparam.obj
 0002:00006510       ??_C@_0EA@PJHPDPP@?7if?5?$CI?$CIdsa?9?$DOp?5?$DN?$DN?5NULL?$CJ?5?$HM?$HM?5?$CIdsa?9?$DOq@ 00058510     dsaparam.obj
 0002:00006550       ??_C@_0CE@LPDLHMLH@?7?7?$HL?5DSA_free?$CIdsa?$CJ?$DL?5return?$CINULL?$CJ?$DL@ 00058550     dsaparam.obj
 0002:00006574       ??_C@_0BC@POIKGIGK@?7return?$CIdsa?$CJ?$DL?6?7?$HN?6?$AA@ 00058574     dsaparam.obj
 0002:00006588       ??_C@_0CB@LFAEIDJG@static?5unsigned?5char?5dsa?$CFd_g?$FL?$FN?$DN?$HL@ 00058588     dsaparam.obj
 0002:000065ac       ??_C@_0CB@GAILGCBA@static?5unsigned?5char?5dsa?$CFd_q?$FL?$FN?$DN?$HL@ 000585ac     dsaparam.obj
 0002:000065d0       ??_C@_0CB@KLNHLBLF@static?5unsigned?5char?5dsa?$CFd_p?$FL?$FN?$DN?$HL@ 000585d0     dsaparam.obj
 0002:000065f4       ??_C@_0CC@FFIJENLI@Error?0?5DSA?5key?5generation?5failed@ 000585f4     dsaparam.obj
 0002:00006618       ??_C@_0BL@BMHGIKAF@This?5could?5take?5some?5time?6?$AA@ 00058618     dsaparam.obj
 0002:00006634       ??_C@_0BN@CFLLAMLA@Error?5allocating?5DSA?5object?6?$AA@ 00058634     dsaparam.obj
 0002:00006658       ??_C@_0EI@LNKJEOMF@d?3?2wm653wehh?2platform?2mvv210?2src@ 00058658     dsaparam.obj
 0002:000066a0       ??_C@_09JMNFHAOK@need_rand?$AA@ 000586a0     dsaparam.obj
 0002:000066ac       ??_C@_0CG@GBHMBJED@?$CFs?5?$FLoptions?$FN?5?$FLbits?$FN?5?$DMinfile?5?$DOout@ 000586ac     dsaparam.obj
 0002:000066d4       ??_C@_0BO@IGNLNBMI@?5?9text?5?5?5?5?5?5?5?5?5print?5as?5text?6?$AA@ 000586d4     dsaparam.obj
 0002:000066f4       ??_C@_0CD@GAOJDLEA@?5?9genkey?5?5?5?5?5?5?5generate?5a?5DSA?5ke@ 000586f4     dsaparam.obj
 0002:00006718       ??_C@_0DF@PLPKKFNH@?5?9rand?5?5?5?5?5?5?5?5?5files?5to?5use?5for?5@ 00058718     dsaparam.obj
 0002:00006750       ??_C@_0EB@JJOILNDM@?5number?5?5?5?5?5?5?5?5number?5of?5bits?5to@ 00058750     dsaparam.obj
 0002:00006794       ??_C@_07JEECMJMJ@?9genkey?$AA@ 00058794     dsaparam.obj
 0002:0000679c       ??_C@_0CE@PIOCFEJI@bad?5input?5format?5specified?5for?5k@ 0005879c     ec.obj
 0002:000067c0       ??_C@_0BA@JBLDNIOO@writing?5EC?5key?6?$AA@ 000587c0     ec.obj
 0002:000067d0       ??_C@_0N@BJCFIJI@read?5EC?5key?6?$AA@ 000587d0     ec.obj
 0002:000067e0       ??_C@_0HN@HKEGHBIH@?5?9des?5?5?5?5?5?5?5?5?5?5?5?5encrypt?5PEM?5out@ 000587e0     ec.obj
 0002:00006860       ??_C@_0CA@OKPIBIGP@?5?9text?5?5?5?5?5?5?5?5?5?5?5print?5the?5key?6?$AA@ 00058860     ec.obj
 0002:00006880       ??_C@_0DG@NMDIGDIM@?5?9param_out?5?5?5?5?5?5print?5the?5ellip@ 00058880     ec.obj
 0002:000068b8       ??_C@_0DH@HJOFOKLP@?5?9conv_form?5arg?5?5specifies?5the?5p@ 000588b8     ec.obj
 0002:000068f0       ??_C@_0CO@OIAMJLB@?5?5?5?5?5?5?5?5?5?5?5?5?5?5?5?5?5possible?5values@ 000588f0     ec.obj
 0002:00006920       ??_C@_0DK@DPFNBDBB@?5?5?5?5?5?5?5?5?5?5?5?5?5?5?5?5?5?5?5?5?5?5?5?5?5?5?5?5?5?5?5?5@ 00058920     ec.obj
 0002:0000695c       ??_C@_0CL@HBPFJOKB@?5?5?5?5?5?5?5?5?5?5?5?5?5?5?5?5?5?5?5?5?5?5?5?5?5?5?5?5?5?5?5?5@ 0005895c     ec.obj
 0002:00006988       ??_C@_0EC@EIIIDNLN@?5?9param_enc?5arg?5?5specifies?5the?5w@ 00058988     ec.obj
 0002:000069cc       ??_C@_0CL@EAKLEMG@?5?5?5?5?5?5?5?5?5?5?5?5?5?5?5?5?5in?5the?5asn1?5der@ 000589cc     ec.obj
 0002:000069f8       ??_C@_0DJ@NHMKIAKA@?5?5?5?5?5?5?5?5?5?5?5?5?5?5?5?5?5possible?5values@ 000589f8     ec.obj
 0002:00006a34       ??_C@_0CM@EPMIBHPH@?5?5?5?5?5?5?5?5?5?5?5?5?5?5?5?5?5?5?5?5?5?5?5?5?5?5?5?5?5?5?5?5@ 00058a34     ec.obj
 0002:00006a60       ??_C@_0L@NDJAPIIC@?9param_out?$AA@ 00058a60     ec.obj
 0002:00006a6c       ??_C@_08FCANLLBJ@explicit?$AA@ 00058a6c     ec.obj
 0002:00006a78       ??_C@_0M@FBFAECBG@named_curve?$AA@ 00058a78     ec.obj
 0002:00006a84       ??_C@_0L@KJNNNAOB@?9param_enc?$AA@ 00058a84     ec.obj
 0002:00006a90       ??_C@_06JCLEGMDM@hybrid?$AA@ 00058a90     ec.obj
 0002:00006a98       ??_C@_0N@NFCOPMLF@uncompressed?$AA@ 00058a98     ec.obj
 0002:00006aa8       ??_C@_0L@NHGFHLFK@compressed?$AA@ 00058aa8     ec.obj
 0002:00006ab4       ??_C@_0L@CFGKFMBD@?9conv_form?$AA@ 00058ab4     ec.obj
 0002:00006ac0       ??_C@_06IBAGLEAI@0x?$CF02X?$AA@ 00058ac0     ecparam.obj
 0002:00006ac8       ??_C@_06BFGLMNJB@?6?70x00?$AA@ 00058ac8     ecparam.obj
 0002:00006ad0       ??_C@_0CB@JIIMNMKE@static?5unsigned?5char?5?$CFs_?$CFd?$FL?$FN?5?$DN?5?$HL@ 00058ad0     ecparam.obj
 0002:00006af4       ??_C@_0CL@PMJOFJLG@unable?5to?5write?5elliptic?5curve?5p@ 00058af4     ecparam.obj
 0002:00006b20       ??_C@_04JEDLIEJ@ec_p?$AA@  00058b20     ecparam.obj
 0002:00006b28       ??_C@_04FKJKJLFJ@ec_a?$AA@ 00058b28     ecparam.obj
 0002:00006b30       ??_C@_04HBLHMIJK@ec_b?$AA@ 00058b30     ecparam.obj
 0002:00006b38       ??_C@_06JMKNOGHF@ec_gen?$AA@ 00058b38     ecparam.obj
 0002:00006b40       ??_C@_08BJBKGNHH@ec_order?$AA@ 00058b40     ecparam.obj
 0002:00006b4c       ??_C@_0M@JGFEAIBN@ec_cofactor?$AA@ 00058b4c     ecparam.obj
 0002:00006b58       ??_C@_02PHMGELLB@?6?6?$AA@ 00058b58     ecparam.obj
 0002:00006b5c       ??_C@_0CE@MKOBLEFI@EC_GROUP?5?$CKget_ec_group_?$CFd?$CIvoid?$CJ?6@ 00058b5c     ecparam.obj
 0002:00006b80       ??_C@_0M@MNILMKAI@?7int?5ok?$DN0?$DL?6?$AA@ 00058b80     ecparam.obj
 0002:00006b8c       ??_C@_0BK@IJPCHNCA@?7EC_GROUP?5?$CKgroup?5?$DN?5NULL?$DL?6?$AA@ 00058b8c     ecparam.obj
 0002:00006ba8       ??_C@_0BK@PDEKEGKE@?7EC_POINT?5?$CKpoint?5?$DN?5NULL?$DL?6?$AA@ 00058ba8     ecparam.obj
 0002:00006bc4       ??_C@_0DJ@MMCKKFJH@?7BIGNUM?5?5?5?$CKtmp_1?5?$DN?5NULL?0?5?$CKtmp_2?5@ 00058bc4     ecparam.obj
 0002:00006c00       ??_C@_0EP@CJLJIGIN@?7if?5?$CI?$CItmp_1?5?$DN?5BN_bin2bn?$CIec_p_?$CFd?0@ 00058c00     ecparam.obj
 0002:00006c50       ??_C@_0EP@LKEAJBBJ@?7if?5?$CI?$CItmp_2?5?$DN?5BN_bin2bn?$CIec_a_?$CFd?0@ 00058c50     ecparam.obj
 0002:00006ca0       ??_C@_0EP@LBPAJCIM@?7if?5?$CI?$CItmp_3?5?$DN?5BN_bin2bn?$CIec_b_?$CFd?0@ 00058ca0     ecparam.obj
 0002:00006cf0       ??_C@_0FI@HBMFKBFN@?7if?5?$CI?$CIgroup?5?$DN?5EC_GROUP_new_curve@ 00058cf0     ecparam.obj
 0002:00006d48       ??_C@_0BI@LLIPNGID@?7?1?$CK?5build?5generator?5?$CK?1?6?$AA@ 00058d48     ecparam.obj
 0002:00006d60       ??_C@_0FE@IHKOOMKL@?7if?5?$CI?$CItmp_1?5?$DN?5BN_bin2bn?$CIec_gen_?$CF@ 00058d60     ecparam.obj
 0002:00006db4       ??_C@_0DH@FMMLBNLE@?7point?5?$DN?5EC_POINT_bn2point?$CIgroup@ 00058db4     ecparam.obj
 0002:00006dec       ??_C@_0CB@JLAPGNHG@?7if?5?$CIpoint?5?$DN?$DN?5NULL?$CJ?6?7?7goto?5err?$DL?6@ 00058dec     ecparam.obj
 0002:00006e10       ??_C@_0FI@EHPPELKO@?7if?5?$CI?$CItmp_2?5?$DN?5BN_bin2bn?$CIec_order@ 00058e10     ecparam.obj
 0002:00006e68       ??_C@_0FO@DHBJIDGB@?7if?5?$CI?$CItmp_3?5?$DN?5BN_bin2bn?$CIec_cofac@ 00058e68     ecparam.obj
 0002:00006ec8       ??_C@_0EH@BOBHKCEJ@?7if?5?$CI?$CBEC_GROUP_set_generator?$CIgro@ 00058ec8     ecparam.obj
 0002:00006f10       ??_C@_08EPKNLIHJ@?6?7ok?$DN1?$DL?6?$AA@ 00058f10     ecparam.obj
 0002:00006f1c       ??_C@_05IHDDJDMB@err?3?6?$AA@ 00058f1c     ecparam.obj
 0002:00006f24       ??_C@_0BP@DMHNLDOG@?7if?5?$CItmp_1?$CJ?6?7?7BN_free?$CItmp_1?$CJ?$DL?6?$AA@ 00058f24     ecparam.obj
 0002:00006f44       ??_C@_0BP@ECKFGEHG@?7if?5?$CItmp_2?$CJ?6?7?7BN_free?$CItmp_2?$CJ?$DL?6?$AA@ 00058f44     ecparam.obj
 0002:00006f64       ??_C@_0BP@GIONCJAG@?7if?5?$CItmp_3?$CJ?6?7?7BN_free?$CItmp_3?$CJ?$DL?6?$AA@ 00058f64     ecparam.obj
 0002:00006f84       ??_C@_0CF@HDMNIKPD@?7if?5?$CIpoint?$CJ?6?7?7EC_POINT_free?$CIpoin@ 00058f84     ecparam.obj
 0002:00006fac       ??_C@_0L@BOFMGBEH@?7if?5?$CI?$CBok?$CJ?6?$AA@ 00058fac     ecparam.obj
 0002:00006fb8       ??_C@_04OLIOEKCC@?7?7?$HL?6?$AA@ 00058fb8     ecparam.obj
 0002:00006fc0       ??_C@_0BJ@CJAKAMGL@?7?7EC_GROUP_free?$CIgroup?$CJ?$DL?6?$AA@ 00058fc0     ecparam.obj
 0002:00006fdc       ??_C@_0BB@IMJJHDHJ@?7?7group?5?$DN?5NULL?$DL?6?$AA@ 00058fdc     ecparam.obj
 0002:00006ff0       ??_C@_04OPADDGJA@?7?7?$HN?6?$AA@ 00058ff0     ecparam.obj
 0002:00006ff8       ??_C@_0BE@NMFFMAII@?7return?$CIgroup?$CJ?$DL?6?7?$HN?6?$AA@ 00058ff8     ecparam.obj
 0002:0000700c       ??_C@_03DJDALPN@ok?6?$AA@  0005900c     ecparam.obj
 0002:00007010       ??_C@_07GLGIIGGC@failed?6?$AA@ 00059010     ecparam.obj
 0002:00007018       ??_C@_0CF@POLMNEF@checking?5elliptic?5curve?5paramete@ 00059018     ecparam.obj
 0002:00007040       ??_C@_0CK@HCELOCH@unable?5to?5load?5elliptic?5curve?5pa@ 00059040     ecparam.obj
 0002:0000706c       ??_C@_0BN@HEDMKCAD@unable?5to?5create?5curve?5?$CI?$CFs?$CJ?6?$AA@ 0005906c     ecparam.obj
 0002:0000708c       ??_C@_0BJ@FINFOCGI@unknown?5curve?5name?5?$CI?$CFs?$CJ?6?$AA@ 0005908c     ecparam.obj
 0002:000070a8       ??_C@_0DC@NEPBKHOI@using?5curve?5name?5prime256v1?5inst@ 000590a8     ecparam.obj
 0002:000070dc       ??_C@_09MBOIJHCL@secp256r1?$AA@ 000590dc     ecparam.obj
 0002:000070e8       ??_C@_0DC@OMNCPHPI@using?5curve?5name?5prime192v1?5inst@ 000590e8     ecparam.obj
 0002:0000711c       ??_C@_09NOOJPND@secp192r1?$AA@ 0005911c     ecparam.obj
 0002:00007128       ??_C@_09GFNAAFIM@?5?5?$CF?910s?3?5?$AA@ 00059128     ecparam.obj
 0002:00007134       ??_C@_0CA@FLDNNAAC@CURVE?5DESCRIPTION?5NOT?5AVAILABLE?$AA@ 00059134     ecparam.obj
 0002:00007158       ??_C@_0EH@CNGCEGJM@d?3?2wm653wehh?2platform?2mvv210?2src@ 00059158     ecparam.obj
 0002:000071a0       ??_C@_0DM@CCPGALMI@?5?9inform?5arg?5?5?5?5?5?5?5input?5format?5@ 000591a0     ecparam.obj
 0002:000071dc       ??_C@_0DA@OIJBHPKA@?5?9outform?5arg?5?5?5?5?5?5output?5format@ 000591dc     ecparam.obj
 0002:0000720c       ??_C@_0DA@ONPMCCDD@?5?9in?5?5arg?5?5?5?5?5?5?5?5?5?5input?5file?5?5?9@ 0005920c     ecparam.obj
 0002:0000723c       ??_C@_0DB@CGPCLCOH@?5?9out?5arg?5?5?5?5?5?5?5?5?5?5output?5file?5?9@ 0005923c     ecparam.obj
 0002:00007270       ??_C@_0DC@CCCHKGEK@?5?9noout?5?5?5?5?5?5?5?5?5?5?5?5do?5not?5print?5@ 00059270     ecparam.obj
 0002:000072a4       ??_C@_0DJ@NGFOOIEC@?5?9text?5?5?5?5?5?5?5?5?5?5?5?5?5print?5the?5ec?5@ 000592a4     ecparam.obj
 0002:000072e0       ??_C@_0CP@JNGOGIOO@?5?9check?5?5?5?5?5?5?5?5?5?5?5?5validate?5the?5@ 000592e0     ecparam.obj
 0002:00007310       ??_C@_0EB@INMNKFED@?5?9C?5?5?5?5?5?5?5?5?5?5?5?5?5?5?5?5print?5a?5?8C?8?5f@ 00059310     ecparam.obj
 0002:00007358       ??_C@_0EB@GMJFCFPN@?5?9name?5arg?5?5?5?5?5?5?5?5?5use?5the?5ec?5pa@ 00059358     ecparam.obj
 0002:000073a0       ??_C@_0FB@OJBMCMLH@?5?9list_curves?5?5?5?5?5?5prints?5a?5list@ 000593a0     ecparam.obj
 0002:000073f4       ??_C@_0DJ@FCJBLLMI@?5?9conv_form?5arg?5?5?5?5specifies?5the@ 000593f4     ecparam.obj
 0002:00007430       ??_C@_0DA@GGMFKCGB@?5?5?5?5?5?5?5?5?5?5?5?5?5?5?5?5?5?5?5possible?5valu@ 00059430     ecparam.obj
 0002:00007460       ??_C@_0DM@IPDMNINJ@?5?5?5?5?5?5?5?5?5?5?5?5?5?5?5?5?5?5?5?5?5?5?5?5?5?5?5?5?5?5?5?5@ 00059460     ecparam.obj
 0002:0000749c       ??_C@_0CM@EPAIEMAL@?5?5?5?5?5?5?5?5?5?5?5?5?5?5?5?5?5?5?5?5?5?5?5?5?5?5?5?5?5?5?5?5@ 0005949c     ecparam.obj
 0002:000074c8       ??_C@_0EE@CPPCOGJI@?5?9param_enc?5arg?5?5?5?5specifies?5the@ 000594c8     ecparam.obj
 0002:0000750c       ??_C@_0CN@MMKNBEI@?5?5?5?5?5?5?5?5?5?5?5?5?5?5?5?5?5?5?5in?5the?5asn1?5d@ 0005950c     ecparam.obj
 0002:0000753c       ??_C@_0DL@GGJJGKNK@?5?5?5?5?5?5?5?5?5?5?5?5?5?5?5?5?5?5?5possible?5valu@ 0005953c     ecparam.obj
 0002:00007578       ??_C@_0CO@EFMAHJLF@?5?5?5?5?5?5?5?5?5?5?5?5?5?5?5?5?5?5?5?5?5?5?5?5?5?5?5?5?5?5?5?5@ 00059578     ecparam.obj
 0002:000075a8       ??_C@_0EN@BGHNDFJN@?5?9no_seed?5?5?5?5?5?5?5?5?5?5if?5?8explicit?8@ 000595a8     ecparam.obj
 0002:000075f8       ??_C@_0CE@MKIOAJFN@?5?9genkey?5?5?5?5?5?5?5?5?5?5?5generate?5ec?5k@ 000595f8     ecparam.obj
 0002:0000761c       ??_C@_0DJ@GNHKHDLO@?5?9rand?5file?5?5?5?5?5?5?5?5files?5to?5use?5@ 0005961c     ecparam.obj
 0002:00007658       ??_C@_0DN@INNGPHII@?5?9engine?5e?5?5?5?5?5?5?5?5?5use?5engine?5e?0@ 00059658     ecparam.obj
 0002:00007698       ??_C@_08NCAIIAEE@?9no_seed?$AA@ 00059698     ecparam.obj
 0002:000076a4       ??_C@_0N@FINGPDPB@?9list_curves?$AA@ 000596a4     ecparam.obj
 0002:000076b4       ??_C@_0DF@JIOPNMFE@?5?9certopt?5arg?5?5?5?5?9?5various?5certi@ 000596b4     x509.obj
 0002:000076f0       ??_C@_0EL@EHHKMGOL@?5?9clrext?5?5?5?5?5?5?5?5?5?9?5delete?5extens@ 000596f0     x509.obj
 0002:00007740       ??_C@_0EL@COHMPBM@?5?9extensions?5?5?5?5?5?9?5section?5from?5@ 00059740     x509.obj
 0002:00007790       ??_C@_0EF@GCCDNBPL@?5?9extfile?5?5?5?5?5?5?5?5?9?5configuration@ 00059790     x509.obj
 0002:000077d8       ??_C@_0CI@NBBNPMJG@?5?9md2?1?9md5?1?9sha1?1?9mdc2?5?9?5digest?5@ 000597d8     x509.obj
 0002:00007800       ??_C@_0CL@HICAIFFA@?5?9C?5?5?5?5?5?5?5?5?5?5?5?5?5?5?9?5print?5out?5C?5c@ 00059800     x509.obj
 0002:0000782c       ??_C@_0DH@ICGFMCNK@?5?9text?5?5?5?5?5?5?5?5?5?5?5?9?5print?5the?5cer@ 0005982c     x509.obj
 0002:00007864       ??_C@_0CJ@DDMLBAAJ@?5?9set_serial?5?5?5?5?5?9?5serial?5number@ 00059864     x509.obj
 0002:00007890       ??_C@_0CA@JGFEGMIA@?5?9CAserial?5arg?5?5?5?9?5serial?5file?6?$AA@ 00059890     x509.obj
 0002:000078b0       ??_C@_0ED@LHHBNBIF@?5?9CAcreateserial?5?9?5create?5serial@ 000598b0     x509.obj
 0002:000078f8       ??_C@_0EB@IPEFHMH@?5?5?5?5?5?5?5?5?5?5?5?5?5?5?5?5?5?5?5missing?0?5it?5i@ 000598f8     x509.obj
 0002:0000793c       ??_C@_0DH@FBIPHGCB@?5?9CAkey?5arg?5?5?5?5?5?5?9?5set?5the?5CA?5ke@ 0005993c     x509.obj
 0002:00007978       ??_C@_0EA@LLIDIFNM@?5?9CA?5arg?5?5?5?5?5?5?5?5?5?9?5set?5the?5CA?5ce@ 00059978     x509.obj
 0002:000079b8       ??_C@_0EF@LCILDGNN@?5?9req?5?5?5?5?5?5?5?5?5?5?5?5?9?5input?5is?5a?5ce@ 000599b8     x509.obj
 0002:00007a00       ??_C@_0DK@KFNMOCME@?5?9x509toreq?5?5?5?5?5?5?9?5output?5a?5cert@ 00059a00     x509.obj
 0002:00007a3c       ??_C@_0CM@MAPLEAEK@?5?9signkey?5arg?5?5?5?5?9?5self?5sign?5cer@ 00059a3c     x509.obj
 0002:00007a68       ??_C@_0CL@JHKPBLLC@?5?5?5?5?5?5?5?5?5?5?5?5?5?5?5?5?5?5?5exit?51?5if?5so?0@ 00059a68     x509.obj
 0002:00007a98       ??_C@_0EL@CIJDGLOM@?5?9checkend?5arg?5?5?5?9?5check?5whether@ 00059a98     x509.obj
 0002:00007ae8       ??_C@_0EP@MHJGCGFC@?5?9days?5arg?5?5?5?5?5?5?5?9?5How?5long?5till@ 00059ae8     x509.obj
 0002:00007b38       ??_C@_0CK@IJOGKDNC@?5?9setalias?5arg?5?5?5?9?5set?5certifica@ 00059b38     x509.obj
 0002:00007b64       ??_C@_0DL@EDGIOMON@?5?9addreject?5arg?5?5?9?5reject?5certif@ 00059b64     x509.obj
 0002:00007ba0       ??_C@_0DK@KEGGDLHP@?5?9addtrust?5arg?5?5?5?9?5trust?5certifi@ 00059ba0     x509.obj
 0002:00007bdc       ??_C@_0DA@CNAPNBGA@?5?9clrreject?5?5?5?5?5?5?9?5clear?5all?5rej@ 00059bdc     x509.obj
 0002:00007c0c       ??_C@_0CP@PPJIMCCF@?5?9clrtrust?5?5?5?5?5?5?5?9?5clear?5all?5tru@ 00059c0c     x509.obj
 0002:00007c3c       ??_C@_0DD@FMJICBBL@?5?9trustout?5?5?5?5?5?5?5?9?5output?5a?5?$CCtru@ 00059c3c     x509.obj
 0002:00007c70       ??_C@_0DA@PGLOIALC@?5?9ocsp_uri?5?5?5?5?5?5?5?9?5print?5OCSP?5Re@ 00059c70     x509.obj
 0002:00007ca0       ??_C@_0EP@KNDCMBD@?5?9ocspid?5?5?5?5?5?5?5?5?5?9?5print?5OCSP?5ha@ 00059ca0     x509.obj
 0002:00007cf0       ??_C@_0CK@PHILGMMN@?5?9noout?5?5?5?5?5?5?5?5?5?5?9?5no?5certificat@ 00059cf0     x509.obj
 0002:00007d1c       ??_C@_0CN@KHJDLCPF@?5?9alias?5?5?5?5?5?5?5?5?5?5?9?5output?5certif@ 00059d1c     x509.obj
 0002:00007d4c       ??_C@_0DG@BKCBGMPA@?5?9fingerprint?5?5?5?5?9?5print?5the?5cer@ 00059d4c     x509.obj
 0002:00007d84       ??_C@_0CK@PHNPPNJG@?5?9pubkey?5?5?5?5?5?5?5?5?5?9?5output?5the?5pu@ 00059d84     x509.obj
 0002:00007db0       ??_C@_0CO@NOFGNIDD@?5?9modulus?5?5?5?5?5?5?5?5?9?5print?5the?5RSA@ 00059db0     x509.obj
 0002:00007de0       ??_C@_0DA@PLMIGHBB@?5?9dates?5?5?5?5?5?5?5?5?5?5?9?5both?5Before?5a@ 00059de0     x509.obj
 0002:00007e10       ??_C@_0DD@LLPOCMNG@?5?9purpose?5?5?5?5?5?5?5?5?9?5print?5out?5cer@ 00059e10     x509.obj
 0002:00007e44       ??_C@_0CD@ECBBMNBK@?5?9enddate?5?5?5?5?5?5?5?5?9?5notAfter?5fiel@ 00059e44     x509.obj
 0002:00007e68       ??_C@_0CE@HDKDFJBD@?5?9startdate?5?5?5?5?5?5?9?5notBefore?5fie@ 00059e68     x509.obj
 0002:00007e8c       ??_C@_0CM@FLBIENJA@?5?9email?5?5?5?5?5?5?5?5?5?5?9?5print?5email?5a@ 00059e8c     x509.obj
 0002:00007eb8       ??_C@_0CF@BCAOGOKH@?5?9subject?5?5?5?5?5?5?5?5?9?5print?5subject@ 00059eb8     x509.obj
 0002:00007ee0       ??_C@_0CO@NJBBOGMA@?5?9hash?5?5?5?5?5?5?5?5?5?5?5?9?5synonym?5for?5?9@ 00059ee0     x509.obj
 0002:00007f10       ??_C@_0EA@EKKKCCDH@?5?9issuer_hash_old?5?5?5?5?9?5print?5old@ 00059f10     x509.obj
 0002:00007f50       ??_C@_0CM@BLBBBMDG@?5?9issuer_hash?5?5?5?5?9?5print?5issuer?5@ 00059f50     x509.obj
 0002:00007f80       ??_C@_0EB@GNMFEOEJ@?5?9subject_hash_old?5?5?5?9?5print?5old@ 00059f80     x509.obj
 0002:00007fc4       ??_C@_0CN@BIEGFPN@?5?9subject_hash?5?5?5?9?5print?5subject@ 00059fc4     x509.obj
 0002:00007ff4       ??_C@_0CO@HCHAPILL@?5?9serial?5?5?5?5?5?5?5?5?5?9?5print?5serial?5@ 00059ff4     x509.obj
 0002:00008024       ??_C@_0DA@CMMIFKGD@?5?9passin?5arg?5?5?5?5?5?9?5private?5key?5p@ 0005a024     x509.obj
 0002:00008054       ??_C@_0DA@LIJPGAHE@?5?9CAkeyform?5arg?5?5?9?5CA?5key?5format@ 0005a054     x509.obj
 0002:00008084       ??_C@_0CM@ODEHMFCK@?5?9CAform?5arg?5?5?5?5?5?9?5CA?5format?5?9?5d@ 0005a084     x509.obj
 0002:000080b0       ??_C@_0DF@NDEMGLB@?5?9keyform?5arg?5?5?5?5?9?5private?5key?5f@ 0005a0b0     x509.obj
 0002:000080e8       ??_C@_0EJ@MCGNHJOO@?5?9outform?5arg?5?5?5?5?9?5output?5format@ 0005a0e8     x509.obj
 0002:00008138       ??_C@_0EI@DALENJCC@?5?9inform?5arg?5?5?5?5?5?9?5input?5format?5@ 0005a138     x509.obj
 0002:00008180       ??_C@_0BC@BKABGCAL@usage?3?5x509?5args?6?$AA@ 0005a180     x509.obj
 0002:00008194       ??_C@_0BC@HACGEPHH@add_word?5failure?6?$AA@ 0005a194     x509.obj
 0002:000081a8       ??_C@_04KAJLAOGA@?4srl?$AA@ 0005a1a8     x509.obj
 0002:000081b0       ??_C@_0M@BNHBFJND@out?5of?5mem?6?$AA@ 0005a1b0     x509.obj
 0002:000081c0       ??_C@_0EE@BNBLEMOL@d?3?2wm653wehh?2platform?2mvv210?2src@ 0005a1c0     x509.obj
 0002:00008204       ??_C@_0DC@MMCOBAF@error?5with?5certificate?5?9?5error?5?$CF@ 0005a204     x509.obj
 0002:00008238       ??_C@_0EA@MDLEKGLP@error?5with?5certificate?5to?5be?5cer@ 0005a238     x509.obj
 0002:00008278       ??_C@_0BH@CMNKFHFI@Yes?5?$CIWARNING?5code?$DN?$CFd?$CJ?6?$AA@ 0005a278     x509.obj
 0002:00008290       ??_C@_03BMBEGLHK@No?6?$AA@ 0005a290     x509.obj
 0002:00008294       ??_C@_04KMHOJMOK@Yes?6?$AA@ 0005a294     x509.obj
 0002:0000829c       ??_C@_07DJCGDFC@?$CFs?$CFs?5?3?5?$AA@ 0005a29c     x509.obj
 0002:000082a4       ??_C@_03OFDHMCAA@?5CA?$AA@ 0005a2a4     x509.obj
 0002:000082a8       ??_C@_0BN@HEHCANJK@unable?5to?5write?5certificate?6?$AA@ 0005a2a8     x509.obj
 0002:000082c8       ??_C@_0BN@DFOPHPMM@Certificate?5will?5not?5expire?6?$AA@ 0005a2c8     x509.obj
 0002:000082e8       ??_C@_0BJ@LBCJJJED@Certificate?5will?5expire?6?$AA@ 0005a2e8     x509.obj
 0002:00008304       ??_C@_0BP@MEPPEIAN@no?5request?5key?5file?5specified?6?$AA@ 0005a304     x509.obj
 0002:00008324       ??_C@_0CA@NBNBADKF@Generating?5certificate?5request?6?$AA@ 0005a324     x509.obj
 0002:00008344       ??_C@_0M@IGFIMLHB@request?5key?$AA@ 0005a344     x509.obj
 0002:00008350       ??_C@_0BN@FDEBFMGB@Getting?5request?5Private?5Key?6?$AA@ 0005a350     x509.obj
 0002:00008370       ??_C@_0P@MJHGGFAN@CA?5Private?5Key?$AA@ 0005a370     x509.obj
 0002:00008380       ??_C@_0BI@MNJFIHLM@Getting?5CA?5Private?5Key?6?$AA@ 0005a380     x509.obj
 0002:00008398       ??_C@_0M@HBAMEDMN@Private?5key?$AA@ 0005a398     x509.obj
 0002:000083a4       ??_C@_0BF@IEBOEHCC@Getting?5Private?5key?6?$AA@ 0005a3a4     x509.obj
 0002:000083bc       ??_C@_09HJHNFFGB@notAfter?$DN?$AA@ 0005a3bc     x509.obj
 0002:000083c8       ??_C@_0L@IJECLNGC@notBefore?$DN?$AA@ 0005a3c8     x509.obj
 0002:000083d4       ??_C@_0CF@NEOKGDMP@unsigned?5char?5XXX_certificate?$FL?$CFd@ 0005a3d4     x509.obj
 0002:000083fc       ??_C@_03JFDPLKFJ@?$HN?$DL?6?$AA@ 0005a3fc     x509.obj
 0002:00008400       ??_C@_0CE@JGFCJAHC@unsigned?5char?5XXX_public_key?$FL?$CFd?$FN@ 0005a400     x509.obj
 0002:00008424       ??_C@_0BC@JINIIEIN@?1?$CK?5subject?3?$CFs?5?$CK?1?6?$AA@ 0005a424     x509.obj
 0002:00008438       ??_C@_0BC@LDLINKBM@?1?$CK?5issuer?5?3?$CFs?5?$CK?1?6?$AA@ 0005a438     x509.obj
 0002:0000844c       ??_C@_0CG@PACAHADJ@unsigned?5char?5XXX_subject_name?$FL?$CF@ 0005a44c     x509.obj
 0002:00008474       ??_C@_0BH@HAADKFNF@Certificate?5purposes?3?6?$AA@ 0005a474     x509.obj
 0002:0000848c       ??_C@_0M@DMDCGGEN@?$DMNo?5Alias?$DO?6?$AA@ 0005a48c     x509.obj
 0002:00008498       ??_C@_07BLPLIGMN@serial?$DN?$AA@ 0005a498     x509.obj
 0002:000084a0       ??_C@_09NNPGGNDL@subject?$DN?5?$AA@ 0005a4a0     x509.obj
 0002:000084ac       ??_C@_08GEFFNOFC@issuer?$DN?5?$AA@ 0005a4ac     x509.obj
 0002:000084b8       ??_C@_0BH@FMKKHDCE@SET?5x509v3?5extension?53?$AA@ 0005a4b8     x509.obj
 0002:000084d0       ??_C@_07BMNIAOAA@SET?4ex3?$AA@ 0005a4d0     x509.obj
 0002:000084d8       ??_C@_09FJOGABAJ@2?499999?43?$AA@ 0005a4d8     x509.obj
 0002:000084e4       ??_C@_0P@LLKMHGCA@CA?5Certificate?$AA@ 0005a4e4     x509.obj
 0002:000084f4       ??_C@_0CO@FNAFFGC@The?5certificate?5request?5appears?5@ 0005a4f4     x509.obj
 0002:00008524       ??_C@_0CC@HEIPGIED@It?5does?5not?5contain?5a?5public?5key@ 0005a524     x509.obj
 0002:00008548       ??_C@_0BO@JBANEDLE@Signature?5verification?5error?6?$AA@ 0005a548     x509.obj
 0002:00008568       ??_C@_0CE@LNAJKFAL@We?5need?5a?5private?5key?5to?5sign?5wi@ 0005a568     x509.obj
 0002:0000858c       ??_C@_0DB@BNOINOBM@need?5to?5specify?5a?5CAkey?5if?5using@ 0005a58c     x509.obj
 0002:000085c0       ??_C@_0CA@KCOFGJFD@Invalid?5reject?5object?5value?5?$CFs?6?$AA@ 0005a5c0     x509.obj
 0002:000085e0       ??_C@_0BP@NKGJJHBM@Invalid?5trust?5object?5value?5?$CFs?6?$AA@ 0005a5e0     x509.obj
 0002:00008600       ??_C@_0BE@JMIHLFEM@bad?5number?5of?5days?6?$AA@ 0005a600     x509.obj
 0002:00008614       ??_C@_07JIOKHCGG@?9ocspid?$AA@ 0005a614     x509.obj
 0002:0000861c       ??_C@_0CA@DHLBEGN@use?5?9clrext?5instead?5of?5?9crlext?6?$AA@ 0005a61c     x509.obj
 0002:0000863c       ??_C@_07EFJBLFME@?9crlext?$AA@ 0005a63c     x509.obj
 0002:00008644       ??_C@_07KDJNPPMM@?9clrext?$AA@ 0005a644     x509.obj
 0002:0000864c       ??_C@_0BA@JLHDJAAB@?9CAcreateserial?$AA@ 0005a64c     x509.obj
 0002:0000865c       ??_C@_06FILKANMF@?9alias?$AA@ 0005a65c     x509.obj
 0002:00008664       ??_C@_0L@EKPECJFA@?9clrreject?$AA@ 0005a664     x509.obj
 0002:00008670       ??_C@_09GNCPBAFD@?9clrtrust?$AA@ 0005a670     x509.obj
 0002:0000867c       ??_C@_09KAHECMCN@?9trustout?$AA@ 0005a67c     x509.obj
 0002:00008688       ??_C@_09DGBKAONE@?9checkend?$AA@ 0005a688     x509.obj
 0002:00008694       ??_C@_08OKAIACAC@?9purpose?$AA@ 0005a694     x509.obj
 0002:000086a0       ??_C@_06FFJNHPFJ@?9dates?$AA@ 0005a6a0     x509.obj
 0002:000086a8       ??_C@_0BB@MNOEDPHA@?9issuer_hash_old?$AA@ 0005a6a8     x509.obj
 0002:000086bc       ??_C@_0N@LOMHAGCP@?9issuer_hash?$AA@ 0005a6bc     x509.obj
 0002:000086cc       ??_C@_0BC@BDJNBOA@?9subject_hash_old?$AA@ 0005a6cc     x509.obj
 0002:000086e0       ??_C@_0O@FNFEGFLA@?9subject_hash?$AA@ 0005a6e0     x509.obj
 0002:000086f0       ??_C@_0L@NCKBPJOO@?9x509toreq?$AA@ 0005a6f0     x509.obj
 0002:000086fc       ??_C@_0N@OADGHLIA@?9next_serial?$AA@ 0005a6fc     x509.obj
 0002:0000870c       ??_C@_07DIHGINNE@?9serial?$AA@ 0005a70c     x509.obj
 0002:00008714       ??_C@_09KICCFFNH@?9ocsp_uri?$AA@ 0005a714     x509.obj
 0002:00008720       ??_C@_06PILGBBKK@?9email?$AA@ 0005a720     x509.obj
 0002:00008728       ??_C@_08NLPNJDIN@?9certopt?$AA@ 0005a728     x509.obj
 0002:00008734       ??_C@_09HLJHMPAG@?9setalias?$AA@ 0005a734     x509.obj
 0002:00008740       ??_C@_0L@EPANGDNJ@?9addreject?$AA@ 0005a740     x509.obj
 0002:0000874c       ??_C@_09JEDCIKJE@?9addtrust?$AA@ 0005a74c     x509.obj
 0002:00008758       ??_C@_09GECGDIJN@?9CAserial?$AA@ 0005a758     x509.obj
 0002:00008764       ??_C@_06HMGAMKJA@?9CAkey?$AA@ 0005a764     x509.obj
 0002:0000876c       ??_C@_03BHFNBKNN@?9CA?$AA@ 0005a76c     x509.obj
 0002:00008770       ??_C@_08DJIMFMFI@?9signkey?$AA@ 0005a770     x509.obj
 0002:0000877c       ??_C@_0L@OPCHGIOO@?9CAkeyform?$AA@ 0005a77c     x509.obj
 0002:00008788       ??_C@_07LLFICNFA@?9CAform?$AA@ 0005a788     x509.obj
 0002:00008790       ??_C@_04LJICMKDM@?9req?$AA@ 0005a790     x509.obj
 0002:00008798       ??_C@_0BC@MFKIOEF@e?5is?5?$CFld?5?$CI0x?$CFlX?$CJ?6?$AA@ 0005a798     genrsa.obj
 0002:000087ac       ??_C@_0DB@KBGJNLO@Generating?5RSA?5private?5key?0?5?$CFd?5b@ 0005a7ac     genrsa.obj
 0002:000087e0       ??_C@_0CA@PMIDOJOM@usage?3?5genrsa?5?$FLargs?$FN?5?$FLnumbits?$FN?6?$AA@ 0005a7e0     genrsa.obj
 0002:00008800       ??_C@_0EB@BBEPLNGO@?5?9des?5?5?5?5?5?5?5?5?5?5?5?5encrypt?5the?5gen@ 0005a800     genrsa.obj
 0002:00008848       ??_C@_0FD@KENFKNBF@?5?9des3?5?5?5?5?5?5?5?5?5?5?5encrypt?5the?5gen@ 0005a848     genrsa.obj
 0002:000088a0       ??_C@_0EC@JFDOGDEB@?5?9idea?5?5?5?5?5?5?5?5?5?5?5encrypt?5the?5gen@ 0005a8a0     genrsa.obj
 0002:000088e4       ??_C@_07KIGMBBIJ@?5?9seed?6?$AA@ 0005a8e4     genrsa.obj
 0002:000088ec       ??_C@_0DD@CIMEKKME@?5?5?5?5?5?5?5?5?5?5?5?5?5?5?5?5?5encrypt?5PEM?5out@ 0005a8ec     genrsa.obj
 0002:00008920       ??_C@_0CK@NEMOMECI@?5?9out?5file?5?5?5?5?5?5?5output?5the?5key?5@ 0005a920     genrsa.obj
 0002:0000894c       ??_C@_0DD@PHOJIKJG@?5?9f4?5?5?5?5?5?5?5?5?5?5?5?5?5use?5F4?5?$CI0x10001@ 0005a94c     genrsa.obj
 0002:00008980       ??_C@_0CI@ECLHDDHL@?5?93?5?5?5?5?5?5?5?5?5?5?5?5?5?5use?53?5for?5the?5E@ 0005a980     genrsa.obj
 0002:000089a8       ??_C@_0EF@IPNMFOEE@?5?5?5?5?5?5?5?5?5?5?5?5?5?5?5?5?5load?5the?5file?5?$CI@ 0005a9a8     genrsa.obj
 0002:000089f0       ??_C@_0CO@HGDNDHEH@?5?5?5?5?5?5?5?5?5?5?5?5?5?5?5?5?5the?5random?5numb@ 0005a9f0     genrsa.obj
 0002:00008a20       ??_C@_0N@EJMHDLPD@?9camellia256?$AA@ 0005aa20     genrsa.obj
 0002:00008a30       ??_C@_0N@DGAEKIHN@?9camellia192?$AA@ 0005aa30     genrsa.obj
 0002:00008a40       ??_C@_0N@MALOKPBG@?9camellia128?$AA@ 0005aa40     genrsa.obj
 0002:00008a50       ??_C@_07MCLKJCJC@?9aes256?$AA@ 0005aa50     genrsa.obj
 0002:00008a58       ??_C@_07LNHJABBM@?9aes192?$AA@ 0005aa58     genrsa.obj
 0002:00008a60       ??_C@_07ELMDAGHH@?9aes128?$AA@ 0005aa60     genrsa.obj
 0002:00008a68       ??_C@_05IAIHCPC@?9seed?$AA@ 0005aa68     genrsa.obj
 0002:00008a70       ??_C@_05OHJDGOPB@?9idea?$AA@ 0005aa70     genrsa.obj
 0002:00008a78       ??_C@_05DHJJCNDB@?9des3?$AA@ 0005aa78     genrsa.obj
 0002:00008a80       ??_C@_04POMGKAPN@?9des?$AA@ 0005aa80     genrsa.obj
 0002:00008a88       ??_C@_03HLJDBDGF@?9f4?$AA@ 0005aa88     genrsa.obj
 0002:00008a8c       ??_C@_03EDNOFFIF@?9F4?$AA@ 0005aa8c     genrsa.obj
 0002:00008a90       ??_C@_02MEEAJGGO@?93?$AA@  0005aa90     genrsa.obj
 0002:00008a94       ??_C@_0CB@ENHGOLMG@unable?5to?5create?5BIO?5for?5output?6@ 0005aa94     genrsa.obj
 0002:00008ab8       ??_C@_0CE@KPGIHDAJ@usage?3?5gendsa?5?$FLargs?$FN?5dsaparam?9fi@ 0005aab8     gendsa.obj
 0002:00008adc       ??_C@_0CH@NPNHIHDF@?5?9out?5file?5?9?5output?5the?5key?5to?5?8@ 0005aadc     gendsa.obj
 0002:00008b04       ??_C@_0DN@IDLJKFDO@?5?9des?5?5?5?5?5?5?9?5encrypt?5the?5generat@ 0005ab04     gendsa.obj
 0002:00008b48       ??_C@_0EP@OJFINGMB@?5?9des3?5?5?5?5?5?9?5encrypt?5the?5generat@ 0005ab48     gendsa.obj
 0002:00008b98       ??_C@_0DO@PGELAIFN@?5?9idea?5?5?5?5?5?9?5encrypt?5the?5generat@ 0005ab98     gendsa.obj
 0002:00008bd8       ??_C@_0BA@OPOOMPOL@?5dsaparam?9file?6?$AA@ 0005abd8     gendsa.obj
 0002:00008be8       ??_C@_0EI@HGDOGCNC@?5?5?5?5?5?5?5?5?5?5?5?9?5a?5DSA?5parameter?5fil@ 0005abe8     gendsa.obj
 0002:00008c30       ??_C@_0BN@CCBGICPL@Generating?5DSA?5key?0?5?$CFd?5bits?6?$AA@ 0005ac30     gendsa.obj
 0002:00008c50       ??_C@_0CD@MGLINGFB@unable?5to?5load?5DSA?5parameter?5fil@ 0005ac50     gendsa.obj
 0002:00008c74       ??_C@_01JOAMLHOP@?9?$AA@   0005ac74     gendsa.obj
 0002:00008c78       ??_C@_0BM@IFBMKPJK@Error?5initializing?5context?6?$AA@ 0005ac78     genpkey.obj
 0002:00008c94       ??_C@_0BJ@FFCNENPC@Parameters?5already?5set?$CB?6?$AA@ 0005ac94     genpkey.obj
 0002:00008cb0       ??_C@_0BP@HHEKGIKI@Error?5initializing?5?$CFs?5context?6?$AA@ 0005acb0     genpkey.obj
 0002:00008cd0       ??_C@_0BI@MFIANKDK@Algorithm?5?$CFs?5not?5found?6?$AA@ 0005acd0     genpkey.obj
 0002:00008ce8       ??_C@_0BI@HPDJOFDG@Algorithm?5already?5set?$CB?6?$AA@ 0005ace8     genpkey.obj
 0002:00008d00       ??_C@_0BO@PNJCFDML@Bad?5format?5specified?5for?5key?6?$AA@ 0005ad00     genpkey.obj
 0002:00008d20       ??_C@_0BE@MAPDMJE@Error?5printing?5key?6?$AA@ 0005ad20     genpkey.obj
 0002:00008d34       ??_C@_0BD@BKFAOPNO@Error?5writing?5key?6?$AA@ 0005ad34     genpkey.obj
 0002:00008d48       ??_C@_0BN@GPNLILKF@Error?5generating?5parameters?6?$AA@ 0005ad48     genpkey.obj
 0002:00008d68       ??_C@_0BL@EIBBPFMA@Can?8t?5open?5output?5file?5?$CFs?6?$AA@ 0005ad68     genpkey.obj
 0002:00008d84       ??_C@_0BK@EIGJLJPJ@Usage?3?5genpkey?5?$FLoptions?$FN?6?$AA@ 0005ad84     genpkey.obj
 0002:00008da0       ??_C@_0BG@BIDCIHLE@where?5options?5may?5be?6?$AA@ 0005ada0     genpkey.obj
 0002:00008db8       ??_C@_0CA@KDIDBPDO@?9out?5file?5?5?5?5?5?5?5?5?5?5output?5file?6?$AA@ 0005adb8     genpkey.obj
 0002:00008dd8       ??_C@_0CP@PLBOMBHM@?9outform?5X?5?5?5?5?5?5?5?5?5output?5format@ 0005add8     genpkey.obj
 0002:00008e08       ??_C@_0DD@IMLEFJCJ@?9pass?5arg?5?5?5?5?5?5?5?5?5?5output?5file?5p@ 0005ae08     genpkey.obj
 0002:00008e3c       ??_C@_0DL@CCHICOEE@?9?$DMcipher?$DO?5?5?5?5?5?5?5?5?5?5use?5cipher?5?$DMc@ 0005ae3c     genpkey.obj
 0002:00008e78       ??_C@_0DO@FBHKAFPB@?9engine?5e?5?5?5?5?5?5?5?5?5?5use?5engine?5e?0@ 0005ae78     genpkey.obj
 0002:00008eb8       ??_C@_0CE@NFNDFLEH@?9paramfile?5file?5?5?5?5parameters?5fi@ 0005aeb8     genpkey.obj
 0002:00008edc       ??_C@_0CN@PJLKHANN@?9algorithm?5alg?5?5?5?5?5the?5public?5ke@ 0005aedc     genpkey.obj
 0002:00008f10       ??_C@_0GC@KPBKKGNL@?9pkeyopt?5opt?3value?5set?5the?5publi@ 0005af10     genpkey.obj
 0002:00008f74       ??_C@_0DB@HOPBCHBL@?9genparam?5?5?5?5?5?5?5?5?5?5generate?5para@ 0005af74     genpkey.obj
 0002:00008fa8       ??_C@_0CG@OIGOBFEK@?9text?5?5?5?5?5?5?5?5?5?5?5?5?5?5print?5the?5in?5@ 0005afa8     genpkey.obj
 0002:00008fd0       ??_C@_0DL@EFMPFEJO@NB?3?5options?5order?5may?5be?5importa@ 0005afd0     genpkey.obj
 0002:0000900c       ??_C@_0BJ@ONFLDBED@parameter?5setting?5error?6?$AA@ 0005b00c     genpkey.obj
 0002:00009028       ??_C@_0BG@KCINJCD@No?5keytype?5specified?6?$AA@ 0005b028     genpkey.obj
 0002:00009040       ??_C@_0BD@GDDFDKFP@Unknown?5cipher?5?$CFs?6?$AA@ 0005b040     genpkey.obj
 0002:00009054       ??_C@_09CKFGOFDF@?9genparam?$AA@ 0005b054     genpkey.obj
 0002:00009060       ??_C@_0L@FKNAAFNM@?9algorithm?$AA@ 0005b060     genpkey.obj
 0002:0000906c       ??_C@_0L@BKOEMGEG@?9paramfile?$AA@ 0005b06c     genpkey.obj
 0002:00009078       ??_C@_0CO@JCGCJBGH@HTTP?11?40?5200?5ok?$AN?6Content?9type?3?5t@ 0005b078     s_server.obj
 0002:000090a8       ??_C@_0BL@IFNCPDLB@?5?5?5?5?5?5?5?5?5?5?5?5?5?5?5?5?5?5?5?5?5?5?5?5?5?5?$AA@ 0005b0a8     s_server.obj
 0002:000090c4       ??_C@_0BM@KAILKIHH@Lets?5print?5some?5clear?5text?6?$AA@ 0005b0c4     s_server.obj
 0002:000090e0       ??_C@_0BA@ENIBCIEA@Client_identity?$AA@ 0005b0e0     s_server.obj
 0002:000090f0       ??_C@_0M@KGLHFLLH@server2?4pem?$AA@ 0005b0f0     s_server.obj
 0002:000090fc       ??_C@_0L@GEPJCEMB@server?4pem?$AA@ 0005b0fc     s_server.obj
 0002:00009108       ??_C@_0BE@NPIEHMJD@fetched?5PSK?5len?$DN?$CFd?6?$AA@ 0005b108     s_server.obj
 0002:0000911c       ??_C@_0BO@MCPCBAJ@Error?5in?5PSK?5server?5callback?6?$AA@ 0005b11c     s_server.obj
 0002:0000913c       ??_C@_0DH@NJMHFIPN@psk?5buffer?5of?5callback?5is?5too?5sm@ 0005b13c     s_server.obj
 0002:00009174       ??_C@_0CK@HBBICGCE@Could?5not?5convert?5PSK?5key?5?8?$CFs?8?5t@ 0005b174     s_server.obj
 0002:000091a0       ??_C@_0BL@JFIDPFC@PSK?5client?5identity?5found?6?$AA@ 0005b1a0     s_server.obj
 0002:000091bc       ??_C@_0DP@MFHEMHOG@PSK?5error?3?5client?5identity?5not?5f@ 0005b1bc     s_server.obj
 0002:000091fc       ??_C@_0BN@LDLODOD@identity_len?$DN?$CFd?5identity?$DN?$CFs?6?$AA@ 0005b1fc     s_server.obj
 0002:0000921c       ??_C@_0CJ@GFNDBAPP@Error?3?5client?5did?5not?5send?5PSK?5i@ 0005b21c     s_server.obj
 0002:00009248       ??_C@_0P@EGMHKAJD@psk_server_cb?6?$AA@ 0005b248     s_server.obj
 0002:00009258       ??_C@_0DA@IDIINJEG@SRP?5parameters?5set?3?5username?5?$DN?5?$CC@ 0005b258     s_server.obj
 0002:00009288       ??_C@_0BH@EHOAHANM@User?5?$CFs?5doesn?8t?5exist?6?$AA@ 0005b288     s_server.obj
 0002:000092a0       ??_C@_0BF@DJBBDCJN@SRP?5username?5?$DN?5?$CC?$CFs?$CC?6?$AA@ 0005b2a0     s_server.obj
 0002:000092b8       ??_C@_0BM@EFKLHHDL@usage?3?5s_server?5?$FLargs?5?4?4?4?$FN?6?$AA@ 0005b2b8     s_server.obj
 0002:000092d4       ??_C@_0DE@CDLIKOHM@?5?9accept?5arg?5?5?5?9?5port?5to?5accept?5@ 0005b2d4     s_server.obj
 0002:00009308       ??_C@_0CJ@GMMJKDHE@?5?9context?5arg?5?5?9?5set?5session?5ID?5@ 0005b308     s_server.obj
 0002:00009334       ??_C@_0DI@EHAJMJGI@?5?9verify?5arg?5?5?5?9?5turn?5on?5peer?5ce@ 0005b334     s_server.obj
 0002:00009370       ??_C@_0EL@EMDCAGKF@?5?9Verify?5arg?5?5?5?9?5turn?5on?5peer?5ce@ 0005b370     s_server.obj
 0002:000093bc       ??_C@_0CK@KDBCENND@?5?9cert?5arg?5?5?5?5?5?9?5certificate?5fil@ 0005b3bc     s_server.obj
 0002:000093e8       ??_C@_0IO@PAKPLPCJ@?5?9crl_check?5?5?5?5?9?5check?5the?5peer?5@ 0005b3e8     s_server.obj
 0002:00009478       ??_C@_0MB@HBNHEKMC@?5?9crl_check_all?5?9?5check?5the?5peer@ 0005b478     s_server.obj
 0002:0000953c       ??_C@_0DO@ILODNPNH@?5?9certform?5arg?5?9?5certificate?5for@ 0005b53c     s_server.obj
 0002:0000957c       ??_C@_0DL@LCPKKIAF@?5?9key?5arg?5?5?5?5?5?5?9?5Private?5Key?5fil@ 0005b57c     s_server.obj
 0002:000095b8       ??_C@_0DO@FPHKBDMN@?5?9keyform?5arg?5?5?9?5key?5format?5?$CIPEM@ 0005b5b8     s_server.obj
 0002:000095f8       ??_C@_0DG@BFMFFOFA@?5?9pass?5arg?5?5?5?5?5?9?5private?5key?5fil@ 0005b5f8     s_server.obj
 0002:00009630       ??_C@_0ED@EPNBHDKA@?5?9dcert?5arg?5?5?5?5?9?5second?5certific@ 0005b630     s_server.obj
 0002:00009678       ??_C@_0EF@PPLJKHJC@?5?9dcertform?5x?5?5?9?5second?5certific@ 0005b678     s_server.obj
 0002:000096c0       ??_C@_0ED@JFBFPBFK@?5?9dkey?5arg?5?5?5?5?5?9?5second?5private?5@ 0005b6c0     s_server.obj
 0002:00009708       ??_C@_0EF@NPPBEAHP@?5?9dkeyform?5arg?5?9?5second?5key?5form@ 0005b708     s_server.obj
 0002:00009750       ??_C@_0DN@JKCGHIGO@?5?9dpass?5arg?5?5?5?5?9?5second?5private?5@ 0005b750     s_server.obj
 0002:00009790       ??_C@_0EK@KKOMNAMH@?5?9dhparam?5arg?5?5?9?5DH?5parameter?5fi@ 0005b790     s_server.obj
 0002:000097dc       ??_C@_0DJ@CPBNPMMP@?5?5?5?5?5?5?5?5?5?5?5?5?5?5?5?5?5or?5a?5default?5se@ 0005b7dc     s_server.obj
 0002:00009818       ??_C@_0LE@HMGNCDPA@?5?9named_curve?5arg?5?5?9?5Elliptic?5cu@ 0005b818     s_server.obj
 0002:000098cc       ??_C@_0CL@DKKNEEF@?5?9nbio?5?5?5?5?5?5?5?5?5?9?5Run?5with?5non?9bl@ 0005b8cc     s_server.obj
 0002:000098f8       ??_C@_0DG@BIAPMNCG@?5?9nbio_test?5?5?5?5?9?5test?5with?5the?5n@ 0005b8f8     s_server.obj
 0002:00009930       ??_C@_0DF@NJANHEED@?5?9crlf?5?5?5?5?5?5?5?5?5?9?5convert?5LF?5from@ 0005b930     s_server.obj
 0002:00009968       ??_C@_0CE@KMFKDDAD@?5?9debug?5?5?5?5?5?5?5?5?9?5Print?5more?5outp@ 0005b968     s_server.obj
 0002:0000998c       ??_C@_0CJ@PGHHBNJL@?5?9msg?5?5?5?5?5?5?5?5?5?5?9?5Show?5protocol?5m@ 0005b98c     s_server.obj
 0002:000099b8       ??_C@_0CH@MJMFOODH@?5?9state?5?5?5?5?5?5?5?5?9?5Print?5the?5SSL?5s@ 0005b9b8     s_server.obj
 0002:000099e0       ??_C@_0CP@OGDLGBPO@?5?9CApath?5arg?5?5?5?9?5PEM?5format?5dire@ 0005b9e0     s_server.obj
 0002:00009a10       ??_C@_0CK@OLHFNGJL@?5?9CAfile?5arg?5?5?5?9?5PEM?5format?5file@ 0005ba10     s_server.obj
 0002:00009a3c       ??_C@_0DH@OCGPNBII@?5?9nocert?5?5?5?5?5?5?5?9?5Don?8t?5use?5any?5c@ 0005ba3c     s_server.obj
 0002:00009a78       ??_C@_0EE@LKODDGDH@?5?9cipher?5arg?5?5?5?9?5play?5with?5?8open@ 0005ba78     s_server.obj
 0002:00009abc       ??_C@_0DC@EAODFDCE@?5?9serverpref?5?5?5?9?5Use?5server?8s?5ci@ 0005babc     s_server.obj
 0002:00009af0       ??_C@_0CD@HCKCHAJP@?5?9quiet?5?5?5?5?5?5?5?5?9?5No?5server?5outpu@ 0005baf0     s_server.obj
 0002:00009b14       ??_C@_0DA@ONPEIANK@?5?9no_tmp_rsa?5?5?5?9?5Do?5not?5generate@ 0005bb14     s_server.obj
 0002:00009b44       ??_C@_0CL@HHGBLNKK@?5?9psk_hint?5arg?5?9?5PSK?5identity?5hi@ 0005bb44     s_server.obj
 0002:00009b70       ??_C@_0CK@PKFFOMHI@?5?9psk?5arg?5?5?5?5?5?5?9?5PSK?5in?5hex?5?$CIwit@ 0005bb70     s_server.obj
 0002:00009b9c       ??_C@_0DC@GEBNJGIF@?5?9srpvfile?5file?5?5?5?5?5?5?9?5The?5verif@ 0005bb9c     s_server.obj
 0002:00009bd0       ??_C@_0DP@BGCKAGPH@?5?9srpuserseed?5string?5?9?5A?5seed?5st@ 0005bbd0     s_server.obj
 0002:00009c10       ??_C@_0CC@IFKIHPCF@?5?9ssl2?5?5?5?5?5?5?5?5?5?9?5Just?5talk?5SSLv2@ 0005bc10     s_server.obj
 0002:00009c34       ??_C@_0CC@OHGNMMDG@?5?9ssl3?5?5?5?5?5?5?5?5?5?9?5Just?5talk?5SSLv3@ 0005bc34     s_server.obj
 0002:00009c58       ??_C@_0CE@BGDPIMBG@?5?9tls1_2?5?5?5?5?5?5?5?9?5Just?5talk?5TLSv1@ 0005bc58     s_server.obj
 0002:00009c7c       ??_C@_0CE@LBHBFJCD@?5?9tls1_1?5?5?5?5?5?5?5?9?5Just?5talk?5TLSv1@ 0005bc7c     s_server.obj
 0002:00009ca0       ??_C@_0CC@DKKOMIC@?5?9tls1?5?5?5?5?5?5?5?5?5?9?5Just?5talk?5TLSv1@ 0005bca0     s_server.obj
 0002:00009cc4       ??_C@_0CD@BHDDFFPP@?5?9dtls1?5?5?5?5?5?5?5?5?9?5Just?5talk?5DTLSv@ 0005bcc4     s_server.obj
 0002:00009ce8       ??_C@_0CC@JMMJAEFK@?5?9timeout?5?5?5?5?5?5?9?5Enable?5timeouts@ 0005bce8     s_server.obj
 0002:00009d0c       ??_C@_0CF@BDGDGBPN@?5?9mtu?5?5?5?5?5?5?5?5?5?5?9?5Set?5link?5layer?5@ 0005bd0c     s_server.obj
 0002:00009d34       ??_C@_0CL@FPJLPAPI@?5?9chain?5?5?5?5?5?5?5?5?9?5Read?5a?5certific@ 0005bd34     s_server.obj
 0002:00009d60       ??_C@_0CF@BAHAENBC@?5?9no_ssl2?5?5?5?5?5?5?9?5Just?5disable?5SS@ 0005bd60     s_server.obj
 0002:00009d88       ??_C@_0CF@HCLFPOAB@?5?9no_ssl3?5?5?5?5?5?5?9?5Just?5disable?5SS@ 0005bd88     s_server.obj
 0002:00009db0       ??_C@_0CF@JGHCNOLF@?5?9no_tls1?5?5?5?5?5?5?9?5Just?5disable?5TL@ 0005bdb0     s_server.obj
 0002:00009dd8       ??_C@_0CH@OJKBDNEP@?5?9no_tls1_1?5?5?5?5?9?5Just?5disable?5TL@ 0005bdd8     s_server.obj
 0002:00009e00       ??_C@_0CH@EOOPOIHK@?5?9no_tls1_2?5?5?5?5?9?5Just?5disable?5TL@ 0005be00     s_server.obj
 0002:00009e28       ??_C@_0CH@HKBECHLI@?5?9no_dhe?5?5?5?5?5?5?5?9?5Disable?5ephemer@ 0005be28     s_server.obj
 0002:00009e50       ??_C@_0CJ@HCENCPIP@?5?9no_ecdhe?5?5?5?5?5?9?5Disable?5ephemer@ 0005be50     s_server.obj
 0002:00009e7c       ??_C@_0DA@BLOMEAPO@?5?9bugs?5?5?5?5?5?5?5?5?5?9?5Turn?5on?5SSL?5bug@ 0005be7c     s_server.obj
 0002:00009eac       ??_C@_0DK@NKPBDN@?5?9www?5?5?5?5?5?5?5?5?5?5?9?5Respond?5to?5a?5?8G@ 0005beac     s_server.obj
 0002:00009ee8       ??_C@_0EJ@PGEHLKHG@?5?9WWW?5?5?5?5?5?5?5?5?5?5?9?5Respond?5to?5a?5?8G@ 0005bee8     s_server.obj
 0002:00009f38       ??_C@_0EJ@KMLFICKC@?5?9HTTP?5?5?5?5?5?5?5?5?5?9?5Respond?5to?5a?5?8G@ 0005bf38     s_server.obj
 0002:00009f88       ??_C@_0EM@CKNPNAOB@?5?5?5?5?5?5?5?5?5?5?5?5?5?5?5?5?5with?5the?5assump@ 0005bf88     s_server.obj
 0002:00009fd4       ??_C@_0DK@KOEJDDIL@?5?9engine?5id?5?5?5?5?9?5Initialise?5and?5@ 0005bfd4     s_server.obj
 0002:0000a010       ??_C@_0EC@MPACHOMG@?5?9id_prefix?5arg?5?9?5Generate?5SSL?1T@ 0005c010     s_server.obj
 0002:0000a054       ??_C@_0DL@IMLAMCFN@?5?9servername?5host?5?9?5servername?5f@ 0005c054     s_server.obj
 0002:0000a090       ??_C@_0EL@DKEOAMCM@?5?9servername_fatal?5?9?5on?5mismatch@ 0005c090     s_server.obj
 0002:0000a0dc       ??_C@_0DJ@HMGHLPEB@?5?9cert2?5arg?5?5?5?5?9?5certificate?5fil@ 0005c0dc     s_server.obj
 0002:0000a118       ??_C@_0CC@GANAEPBK@?5?5?5?5?5?5?5?5?5?5?5?5?5?5?5?5?5?$CIdefault?5is?5?$CFs?$CJ@ 0005c118     s_server.obj
 0002:0000a140       ??_C@_0EK@DPIIKBKN@?5?9key2?5arg?5?5?5?5?5?9?5Private?5Key?5fil@ 0005c140     s_server.obj
 0002:0000a18c       ??_C@_0DA@DKGPEDCO@?5?5?5?5?5?5?5?5?5?5?5?5?5?5?5?5?5not?5specified?5?$CI@ 0005c18c     s_server.obj
 0002:0000a1bc       ??_C@_0DK@DLFEFHDC@?5?9tlsextdebug?5?5?9?5hex?5dump?5of?5all@ 0005c1bc     s_server.obj
 0002:0000a1f8       ??_C@_0DM@HKKMFIPG@?5?9no_ticket?5?5?5?5?9?5disable?5use?5of?5@ 0005c1f8     s_server.obj
 0002:0000a238       ??_C@_0EJ@DKJMGLID@?5?9legacy_renegotiation?5?9?5enable?5@ 0005c238     s_server.obj
 0002:0000a288       ??_C@_0GA@JODOAIDK@?5?9nextprotoneg?5arg?5?9?5set?5the?5adv@ 0005c288     s_server.obj
 0002:0000a2e8       ??_C@_0FF@IDLIJFPH@?5?9use_srtp?5profiles?5?9?5Offer?5SRTP@ 0005c2e8     s_server.obj
 0002:0000a340       ??_C@_0DN@MIJBJIJH@?5?9keymatexport?5label?5?5?5?9?5Export?5@ 0005c340     s_server.obj
 0002:0000a380       ??_C@_0EL@MBBJFPLO@?5?9keymatexportlen?5len?5?5?9?5Export?5@ 0005c380     s_server.obj
 0002:0000a3cc       ??_C@_0BL@IKCLJGPN@Switching?5server?5context?4?6?$AA@ 0005c3cc     s_server.obj
 0002:0000a3e8       ??_C@_0CB@DENLFGMB@Hostname?5in?5TLS?5extension?3?5?$CC?$CFs?$CC?6@ 0005c3e8     s_server.obj
 0002:0000a40c       ??_C@_0CC@EKGMLEDN@cert_status?3?5ocsp?5response?5sent?3@ 0005c40c     s_server.obj
 0002:0000a430       ??_C@_0CH@FIBKHNJL@cert_status?3?5error?5querying?5resp@ 0005c430     s_server.obj
 0002:0000a458       ??_C@_0DB@PCOLJLN@cert_status?3?5Can?8t?5retrieve?5issu@ 0005c458     s_server.obj
 0002:0000a48c       ??_C@_0DC@KIDKKKGD@cert_status?3?5no?5AIA?5and?5no?5defau@ 0005c48c     s_server.obj
 0002:0000a4c0       ??_C@_0BK@LBJPJFCC@cert_status?3?5AIA?5URL?3?5?$CFs?6?$AA@ 0005c4c0     s_server.obj
 0002:0000a4dc       ??_C@_0CC@LFHCICE@cert_status?3?5can?8t?5parse?5AIA?5URL@ 0005c4dc     s_server.obj
 0002:0000a500       ??_C@_0BO@EEHCEBAF@cert_status?3?5callback?5called?6?$AA@ 0005c500     s_server.obj
 0002:0000a520       ??_C@_0CB@MPAOKBBN@?$CF4ld?5items?5in?5the?5session?5cache?6@ 0005c520     s_server.obj
 0002:0000a544       ??_C@_0CG@HNDGAFHM@?$CF4ld?5client?5connects?5?$CISSL_connec@ 0005c544     s_server.obj
 0002:0000a56c       ??_C@_0CK@PBJGIJFK@?$CF4ld?5client?5renegotiates?5?$CISSL_co@ 0005c56c     s_server.obj
 0002:0000a598       ??_C@_0CE@FNOOBLAE@?$CF4ld?5client?5connects?5that?5finish@ 0005c598     s_server.obj
 0002:0000a5bc       ??_C@_0CE@EMOLPMJC@?$CF4ld?5server?5accepts?5?$CISSL_accept?$CI@ 0005c5bc     s_server.obj
 0002:0000a5e0       ??_C@_0CJ@EBEGKNDG@?$CF4ld?5server?5renegotiates?5?$CISSL_ac@ 0005c5e0     s_server.obj
 0002:0000a60c       ??_C@_0CD@PCCHKGGG@?$CF4ld?5server?5accepts?5that?5finishe@ 0005c60c     s_server.obj
 0002:0000a630       ??_C@_0BJ@MFDDKOJN@?$CF4ld?5session?5cache?5hits?6?$AA@ 0005c630     s_server.obj
 0002:0000a64c       ??_C@_0BL@GPHJFIIB@?$CF4ld?5session?5cache?5misses?6?$AA@ 0005c64c     s_server.obj
 0002:0000a668       ??_C@_0BN@PIMPAAJA@?$CF4ld?5session?5cache?5timeouts?6?$AA@ 0005c668     s_server.obj
 0002:0000a688       ??_C@_0BK@KAOGBOIB@?$CF4ld?5callback?5cache?5hits?6?$AA@ 0005c688     s_server.obj
 0002:0000a6a4       ??_C@_0CJ@MHPDJLOH@?$CF4ld?5cache?5full?5overflows?5?$CI?$CFld?5a@ 0005c6a4     s_server.obj
 0002:0000a6d0       ??_C@_0BI@GLICEMCM@shutdown?5accept?5socket?6?$AA@ 0005c6d0     s_server.obj
 0002:0000a6e8       ??_C@_0BG@DLJBAMO@?5?5?5?5Keying?5material?3?5?$AA@ 0005c6e8     s_server.obj
 0002:0000a700       ??_C@_0L@DLCKNELL@?5?5?5?5Error?6?$AA@ 0005c700     s_server.obj
 0002:0000a70c       ??_C@_0BL@LPMKCGAM@Keying?5material?5exporter?3?6?$AA@ 0005c70c     s_server.obj
 0002:0000a728       ??_C@_0BB@CNJDMPIH@?5?5?5?5Label?3?5?8?$CFs?8?6?$AA@ 0005c728     s_server.obj
 0002:0000a73c       ??_C@_0BG@HGLPNLLM@?5?5?5?5Length?3?5?$CFi?5bytes?6?$AA@ 0005c73c     s_server.obj
 0002:0000a758       ??_C@_0EI@OJDFAMCH@d?3?2wm653wehh?2platform?2mvv210?2src@ 0005c758     s_server.obj
 0002:0000a7a0       ??_C@_0CF@HNLNDOIK@Secure?5Renegotiation?5IS?$CFs?5suppor@ 0005c7a0     s_server.obj
 0002:0000a7c8       ??_C@_04CGMGFKEF@?5NOT?$AA@ 0005c7c8     s_server.obj
 0002:0000a7d0       ??_C@_0CI@FJEPEBJM@Peer?5has?5incorrect?5TLSv1?5block?5p@ 0005c7d0     s_server.obj
 0002:0000a7f8       ??_C@_0BD@NBNHECEG@Reused?5session?9id?6?$AA@ 0005c7f8     s_server.obj
 0002:0000a80c       ??_C@_0CH@FCLNMFKH@SRTP?5Extension?5negotiated?0?5profi@ 0005c80c     s_server.obj
 0002:0000a834       ??_C@_0O@IOJBKLGH@NEXTPROTO?5is?5?$AA@ 0005c834     s_server.obj
 0002:0000a844       ??_C@_0O@MNNIJCGH@CIPHER?5is?5?$CFs?6?$AA@ 0005c844     s_server.obj
 0002:0000a854       ??_C@_06DIOMAMDA@?$CINONE?$CJ?$AA@ 0005c854     s_server.obj
 0002:0000a85c       ??_C@_0BD@IIKNKKE@Shared?5ciphers?3?$CFs?6?$AA@ 0005c85c     s_server.obj
 0002:0000a870       ??_C@_0BE@PJOINFNP@Client?5certificate?6?$AA@ 0005c870     s_server.obj
 0002:0000a884       ??_C@_0M@JEDHOBJK@subject?$DN?$CFs?6?$AA@ 0005c884     s_server.obj
 0002:0000a890       ??_C@_0L@HCGAGKOB@issuer?$DN?$CFs?6?$AA@ 0005c890     s_server.obj
 0002:0000a89c       ??_C@_0BB@EHGPOOCJ@verify?5error?3?$CFs?6?$AA@ 0005c89c     s_server.obj
 0002:0000a8b0       ??_C@_06CBJFBFDH@ERROR?6?$AA@ 0005c8b0     s_server.obj
 0002:0000a8b8       ??_C@_06KKGLJNJB@DELAY?6?$AA@ 0005c8b8     s_server.obj
 0002:0000a8c0       ??_C@_0BH@OEMJAMH@LOOKUP?5not?5successful?6?$AA@ 0005c8c0     s_server.obj
 0002:0000a8d8       ??_C@_0BA@KLLIDCPK@LOOKUP?5done?5?$CFs?6?$AA@ 0005c8d8     s_server.obj
 0002:0000a8e8       ??_C@_0BJ@KLIEJNND@LOOKUP?5during?5accept?5?$CFs?6?$AA@ 0005c8e8     s_server.obj
 0002:0000a904       ??_C@_07EJIBEDLO@ACCEPT?6?$AA@ 0005c904     s_server.obj
 0002:0000a90c       ??_C@_0BA@IMEDIBFH@rwrite?5W?5BLOCK?6?$AA@ 0005c90c     s_server.obj
 0002:0000a91c       ??_C@_04DKBFJDAN@?4htm?$AA@ 0005c91c     s_server.obj
 0002:0000a924       ??_C@_04EFOINKHF@?4php?$AA@ 0005c924     s_server.obj
 0002:0000a92c       ??_C@_05LHMDENIF@?4html?$AA@ 0005c92c     s_server.obj
 0002:0000a934       ??_C@_08IOLHANGA@FILE?3?$CFs?6?$AA@ 0005c934     s_server.obj
 0002:0000a940       ??_C@_0BF@FPDCCHNB@Error?5opening?5?8?$CFs?8?$AN?6?$AA@ 0005c940     s_server.obj
 0002:0000a958       ??_C@_0BG@DAOHLPL@?8?$CFs?8?5is?5a?5directory?$AN?6?$AA@ 0005c958     s_server.obj
 0002:0000a970       ??_C@_0BK@CCDGJOGB@?8?$CFs?8?5is?5an?5invalid?5path?$AN?6?$AA@ 0005c970     s_server.obj
 0002:0000a98c       ??_C@_0BP@JJDMIBD@?8?$CFs?8?5contains?5?8?4?4?8?5reference?$AN?6?$AA@ 0005c98c     s_server.obj
 0002:0000a9ac       ??_C@_0BP@KDAGJEOA@?8?$CFs?8?5is?5an?5invalid?5file?5name?$AN?6?$AA@ 0005c9ac     s_server.obj
 0002:0000a9cc       ??_C@_0BD@IKKHHOEE@?$DM?1BODY?$DO?$DM?1HTML?$DO?$AN?6?$AN?6?$AA@ 0005c9cc     s_server.obj
 0002:0000a9e0       ??_C@_0CB@PDIIHGK@no?5client?5certificate?5available?6@ 0005c9e0     s_server.obj
 0002:0000aa04       ??_C@_0BC@CNENGAEP@?$CFs?0?5Cipher?5is?5?$CFs?6?$AA@ 0005ca04     s_server.obj
 0002:0000aa18       ??_C@_04JIKOKJIN@?9?9?9?6?$AA@ 0005ca18     s_server.obj
 0002:0000aa20       ??_C@_09CFNAMCPG@?9?9?9?6New?0?5?$AA@ 0005ca20     s_server.obj
 0002:0000aa2c       ??_C@_0N@GOGBFOHK@?9?9?9?6Reused?0?5?$AA@ 0005ca2c     s_server.obj
 0002:0000aa3c       ??_C@_0DB@ONBHKEMA@?9?9?9?6Ciphers?5common?5between?5both?5@ 0005ca3c     s_server.obj
 0002:0000aa70       ??_C@_0M@MLKHEEAE@?$CF?911s?3?$CF?925s?$AA@ 0005ca70     s_server.obj
 0002:0000aa7c       ??_C@_0CG@PKGFLEON@Ciphers?5supported?5in?5s_server?5bi@ 0005ca7c     s_server.obj
 0002:0000aaa4       ??_C@_0CN@HGKKJBIE@HTTP?11?40?5200?5ok?$AN?6Content?9type?3?5t@ 0005caa4     s_server.obj
 0002:0000aad4       ??_C@_0CA@BNEAEELL@?$DMHTML?$DO?$DMBODY?5BGCOLOR?$DN?$CC?$CDffffff?$CC?$DO?6?$AA@ 0005cad4     s_server.obj
 0002:0000aaf4       ??_C@_06FNICHGOI@?$DMpre?$DO?6?$AA@ 0005caf4     s_server.obj
 0002:0000aafc       ??_C@_05KCENFFMJ@GET?5?1?$AA@ 0005cafc     s_server.obj
 0002:0000ab04       ??_C@_0M@LLJJBINF@GET?5?1stats?5?$AA@ 0005cb04     s_server.obj
 0002:0000ab10       ??_C@_04IBPFIGHK@GET?5?$AA@ 0005cb10     s_server.obj
 0002:0000ab18       ??_C@_0O@PBMAEJJB@read?5R?5BLOCK?6?$AA@ 0005cb18     s_server.obj
 0002:0000ab28       ??_C@_0BM@FCELEJEG@turning?5on?5non?5blocking?5io?6?$AA@ 0005cb28     s_server.obj
 0002:0000ab44       ??_C@_0CE@GMHHAGLI@Generating?5temp?5?$CI?$CFd?5bit?$CJ?5RSA?5key@ 0005cb44     s_server.obj
 0002:0000ab68       ??_C@_0CI@BENGEPLC@Allocation?5error?5in?5generating?5R@ 0005cb68     s_server.obj
 0002:0000ab90       ??_C@_0BD@PGBIDINB@CONNECTION?5CLOSED?6?$AA@ 0005cb90     s_server.obj
 0002:0000aba4       ??_C@_0BD@BBFCHACL@shutting?5down?5SSL?6?$AA@ 0005cba4     s_server.obj
 0002:0000abb8       ??_C@_05PHCCFBBB@DONE?6?$AA@ 0005cbb8     s_server.obj
 0002:0000abc0       ??_C@_0M@MNBJAGGO@Read?5BLOCK?6?$AA@ 0005cbc0     s_server.obj
 0002:0000abcc       ??_C@_0BL@FMPJFOPJ@LOOKUP?5renego?5during?5read?6?$AA@ 0005cbcc     s_server.obj
 0002:0000abe8       ??_C@_0N@JJGKAHK@Write?5BLOCK?6?$AA@ 0005cbe8     s_server.obj
 0002:0000abf8       ??_C@_0BM@FBNLNGKL@LOOKUP?5renego?5during?5write?6?$AA@ 0005cbf8     s_server.obj
 0002:0000ac14       ??_C@_0BI@ONIEOAMP@SSL_do_handshake?5?9?$DO?5?$CFd?6?$AA@ 0005cc14     s_server.obj
 0002:0000ac2c       ??_C@_0O@ICIFEBNC@HEARTBEATING?6?$AA@ 0005cc2c     s_server.obj
 0002:0000ac3c       ??_C@_0M@HICLFICO@lf_num?5?$DN?$DN?50?$AA@ 0005cc3c     s_server.obj
 0002:0000ac48       ??_C@_0DB@MMDPDCBI@Cannot?5initialize?5SRP?5verifier?5f@ 0005cc48     s_server.obj
 0002:0000ac7c       ??_C@_0BL@LGLJCDEB@error?5setting?5cipher?5list?6?$AA@ 0005cc7c     s_server.obj
 0002:0000ac98       ??_C@_0CM@BDIGNJAA@error?5setting?5PSK?5identity?5hint?5@ 0005cc98     s_server.obj
 0002:0000acc4       ??_C@_0DI@BDMABIIJ@PSK?5key?5given?5or?5JPAKE?5in?5use?0?5s@ 0005ccc4     s_server.obj
 0002:0000acfc       ??_C@_0CD@CKBNINOO@unable?5to?5create?5curve?5?$CInistp256@ 0005ccfc     s_server.obj
 0002:0000ad20       ??_C@_0CE@LGMFCOCM@Using?5default?5temp?5ECDH?5paramete@ 0005cd20     s_server.obj
 0002:0000ad44       ??_C@_0BO@IGKLCCIN@Setting?5temp?5ECDH?5parameters?6?$AA@ 0005cd44     s_server.obj
 0002:0000ad64       ??_C@_0CC@OAKJEKOM@Using?5default?5temp?5DH?5parameters@ 0005cd64     s_server.obj
 0002:0000ad88       ??_C@_0BM@KICIHDMG@Setting?5temp?5DH?5parameters?6?$AA@ 0005cd88     s_server.obj
 0002:0000ada4       ??_C@_0CC@JJJJPDLM@Setting?5secondary?5ctx?5parameters@ 0005cda4     s_server.obj
 0002:0000adc8       ??_C@_0BF@JIEBEBOD@id_prefix?5?8?$CFs?8?5set?4?6?$AA@ 0005cdc8     s_server.obj
 0002:0000ade0       ??_C@_0BL@LHIJJPBK@error?5setting?5?8id_prefix?8?6?$AA@ 0005cde0     s_server.obj
 0002:0000adfc       ??_C@_0DB@GPNGCKNP@warning?3?5id_prefix?5is?5too?5long?5i@ 0005cdfc     s_server.obj
 0002:0000ae30       ??_C@_0EH@EGJGHBGM@warning?3?5id_prefix?5is?5too?5long?0?5@ 0005ce30     s_server.obj
 0002:0000ae78       ??_C@_0CE@BCIGGKGN@second?5certificate?5private?5key?5f@ 0005ce78     s_server.obj
 0002:0000ae9c       ??_C@_0BP@EJJLONPG@second?5server?5certificate?5file?$AA@ 0005ce9c     s_server.obj
 0002:0000aebc       ??_C@_0CL@ICCLMJCM@second?5server?5certificate?5privat@ 0005cebc     s_server.obj
 0002:0000aee8       ??_C@_0BI@KEHADFAK@server?5certificate?5file?$AA@ 0005cee8     s_server.obj
 0002:0000af00       ??_C@_0CE@HCELPDHN@server?5certificate?5private?5key?5f@ 0005cf00     s_server.obj
 0002:0000af24       ??_C@_0BH@HEGMJGMF@Not?5a?5hex?5number?5?8?$CFs?8?6?$AA@ 0005cf24     s_server.obj
 0002:0000af3c       ??_C@_0BD@CCODGPPI@Error?5parsing?5URL?6?$AA@ 0005cf3c     s_server.obj
 0002:0000af50       ??_C@_0BB@MLPFNLDC@?9keymatexportlen?$AA@ 0005cf50     s_server.obj
 0002:0000af64       ??_C@_0O@HHCLPCNN@?9keymatexport?$AA@ 0005cf64     s_server.obj
 0002:0000af74       ??_C@_09BJOIJNBC@?9use_srtp?$AA@ 0005cf74     s_server.obj
 0002:0000af80       ??_C@_0O@PMNNGHPN@?9nextprotoneg?$AA@ 0005cf80     s_server.obj
 0002:0000af90       ??_C@_05KBEFAOHH@?9key2?$AA@ 0005cf90     s_server.obj
 0002:0000af98       ??_C@_06GMPFABPO@?9cert2?$AA@ 0005cf98     s_server.obj
 0002:0000afa0       ??_C@_0BC@OHCHOECI@?9servername_fatal?$AA@ 0005cfa0     s_server.obj
 0002:0000afb4       ??_C@_0M@IEKJDKFH@?9servername?$AA@ 0005cfb4     s_server.obj
 0002:0000afc0       ??_C@_0L@DMPGLNOJ@?9id_prefix?$AA@ 0005cfc0     s_server.obj
 0002:0000afcc       ??_C@_06NEDJBPEF@?9chain?$AA@ 0005cfcc     s_server.obj
 0002:0000afd4       ??_C@_04MIHAIBLG@?9mtu?$AA@ 0005cfd4     s_server.obj
 0002:0000afdc       ??_C@_08MDOIANFM@?9timeout?$AA@ 0005cfdc     s_server.obj
 0002:0000afe8       ??_C@_06LCNEOKJO@?9dtls1?$AA@ 0005cfe8     s_server.obj
 0002:0000aff0       ??_C@_07ODMKFECP@?9tls1_2?$AA@ 0005cff0     s_server.obj
 0002:0000aff8       ??_C@_07MIOHAHOM@?9tls1_1?$AA@ 0005cff8     s_server.obj
 0002:0000b000       ??_C@_05BIEHJHLL@?9tls1?$AA@ 0005d000     s_server.obj
 0002:0000b008       ??_C@_05IHFBIKKN@?9ssl3?$AA@ 0005d008     s_server.obj
 0002:0000b010       ??_C@_05JOEKLLOM@?9ssl2?$AA@ 0005d010     s_server.obj
 0002:0000b018       ??_C@_0L@BJKEHFBD@?9no_ticket?$AA@ 0005d018     s_server.obj
 0002:0000b024       ??_C@_08PNOIHBEP@?9no_comp?$AA@ 0005d024     s_server.obj
 0002:0000b030       ??_C@_0L@COGBECB@?9no_tls1_2?$AA@ 0005d030     s_server.obj
 0002:0000b03c       ??_C@_0L@CJMLEHOC@?9no_tls1_1?$AA@ 0005d03c     s_server.obj
 0002:0000b048       ??_C@_08MCEHGFAN@?9no_tls1?$AA@ 0005d048     s_server.obj
 0002:0000b054       ??_C@_08FNFBHIBL@?9no_ssl3?$AA@ 0005d054     s_server.obj
 0002:0000b060       ??_C@_08EEEKEJFK@?9no_ssl2?$AA@ 0005d060     s_server.obj
 0002:0000b06c       ??_C@_05IONBIPB@?9HTTP?$AA@ 0005d06c     s_server.obj
 0002:0000b074       ??_C@_04MKFPCHOK@?9WWW?$AA@ 0005d074     s_server.obj
 0002:0000b07c       ??_C@_04MHKEOKJG@?9www?$AA@ 0005d07c     s_server.obj
 0002:0000b084       ??_C@_0N@PNICEKHP@?9srpuserseed?$AA@ 0005d084     s_server.obj
 0002:0000b094       ??_C@_09LJIFNPCB@?9srpvfile?$AA@ 0005d094     s_server.obj
 0002:0000b0a0       ??_C@_04LLANCHKO@?9psk?$AA@ 0005d0a0     s_server.obj
 0002:0000b0a8       ??_C@_09OGLFDGKP@?9psk_hint?$AA@ 0005d0a8     s_server.obj
 0002:0000b0b4       ??_C@_09ICIAJIMM@?9no_ecdhe?$AA@ 0005d0b4     s_server.obj
 0002:0000b0c0       ??_C@_07IKMMOABC@?9no_dhe?$AA@ 0005d0c0     s_server.obj
 0002:0000b0c8       ??_C@_0M@BFGMIMIO@?9no_tmp_rsa?$AA@ 0005d0c8     s_server.obj
 0002:0000b0d4       ??_C@_05DJGMLKH@?9bugs?$AA@ 0005d0d4     s_server.obj
 0002:0000b0dc       ??_C@_05JIMBNDFL@?9crlf?$AA@ 0005d0dc     s_server.obj
 0002:0000b0e4       ??_C@_06IFPFIOLF@?9state?$AA@ 0005d0e4     s_server.obj
 0002:0000b0ec       ??_C@_05BDEPCDEL@?9hack?$AA@ 0005d0ec     s_server.obj
 0002:0000b0f4       ??_C@_04LFMLOHOA@?9msg?$AA@ 0005d0f4     s_server.obj
 0002:0000b0fc       ??_C@_0M@LCKNOINJ@?9status_url?$AA@ 0005d0fc     s_server.obj
 0002:0000b108       ??_C@_0BA@ILLKHFCB@?9status_timeout?$AA@ 0005d108     s_server.obj
 0002:0000b118       ??_C@_0BA@BJMLCLNE@?9status_verbose?$AA@ 0005d118     s_server.obj
 0002:0000b128       ??_C@_0N@DOFNHFMN@?9tlsextdebug?$AA@ 0005d128     s_server.obj
 0002:0000b138       ??_C@_0L@DGAHAHFJ@?9nbio_test?$AA@ 0005d138     s_server.obj
 0002:0000b144       ??_C@_05OHEBDJNH@?9nbio?$AA@ 0005d144     s_server.obj
 0002:0000b14c       ??_C@_07DJFOHCGH@?9cipher?$AA@ 0005d14c     s_server.obj
 0002:0000b154       ??_C@_0BG@ODLOAFHK@?9legacy_renegotiation?$AA@ 0005d154     s_server.obj
 0002:0000b16c       ??_C@_0M@DMOLOJLO@?9serverpref?$AA@ 0005d16c     s_server.obj
 0002:0000b178       ??_C@_0BF@JEHPJFIB@?9verify_return_error?$AA@ 0005d178     s_server.obj
 0002:0000b190       ??_C@_09LDMOBAAI@?9no_cache?$AA@ 0005d190     s_server.obj
 0002:0000b19c       ??_C@_07BEMJNHEG@?9nocert?$AA@ 0005d19c     s_server.obj
 0002:0000b1a4       ??_C@_05MFHLCCEP@?9dkey?$AA@ 0005d1a4     s_server.obj
 0002:0000b1ac       ??_C@_06HHHBLJAE@?9dpass?$AA@ 0005d1ac     s_server.obj
 0002:0000b1b4       ??_C@_09CNGKIAIL@?9dkeyform?$AA@ 0005d1b4     s_server.obj
 0002:0000b1c0       ??_C@_06JBNADPPB@?9dcert?$AA@ 0005d1c0     s_server.obj
 0002:0000b1c8       ??_C@_0L@OFMMHJMO@?9dcertform?$AA@ 0005d1c8     s_server.obj
 0002:0000b1d4       ??_C@_0N@NBKDOJHA@?9named_curve?$AA@ 0005d1d4     s_server.obj
 0002:0000b1e4       ??_C@_08HBLAKNLA@?9dhparam?$AA@ 0005d1e4     s_server.obj
 0002:0000b1f0       ??_C@_09ECGGEOOO@?9certform?$AA@ 0005d1f0     s_server.obj
 0002:0000b1fc       ??_C@_08GKDHLPPP@?9context?$AA@ 0005d1fc     s_server.obj
 0002:0000b208       ??_C@_0CP@BJKKJEFM@verify?5depth?5is?5?$CFd?0?5must?5return?5@ 0005d208     s_server.obj
 0002:0000b238       ??_C@_07JHAJGLHO@?9Verify?$AA@ 0005d238     s_server.obj
 0002:0000b240       ??_C@_0BE@PGMKNIHF@verify?5depth?5is?5?$CFd?6?$AA@ 0005d240     s_server.obj
 0002:0000b254       ??_C@_07JGMHLDLK@?9accept?$AA@ 0005d254     s_server.obj
 0002:0000b25c       ??_C@_05HDLOEPOC@?9port?$AA@ 0005d25c     s_server.obj
 0002:0000b264       ??_C@_0BB@FHAPCDKO@?5?5?5?5?5?5?5?5?5?5?5?5?5?5?5?5?$AA@ 0005d264     s_client.obj
 0002:0000b278       ??_C@_0BO@EOLEIMOP@Error?5in?5PSK?5client?5callback?6?$AA@ 0005d278     s_client.obj
 0002:0000b298       ??_C@_0BE@PJLKILKF@created?5PSK?5len?$DN?$CFd?6?$AA@ 0005d298     s_client.obj
 0002:0000b2ac       ??_C@_0BO@LCEIEJNP@created?5identity?5?8?$CFs?8?5len?$DN?$CFd?6?$AA@ 0005d2ac     s_client.obj
 0002:0000b2cc       ??_C@_0CB@IKEGHPFG@Received?5PSK?5identity?5hint?5?8?$CFs?8?6@ 0005d2cc     s_client.obj
 0002:0000b2f0       ??_C@_0DE@DGENHHJB@NULL?5received?5PSK?5identity?5hint?0@ 0005d2f0     s_client.obj
 0002:0000b324       ??_C@_0P@BMNLBCBB@psk_client_cb?6?$AA@ 0005d324     s_client.obj
 0002:0000b334       ??_C@_0BG@NDGJLAD@usage?3?5s_client?5args?6?$AA@ 0005d334     s_client.obj
 0002:0000b34c       ??_C@_0CI@NFDFDEBP@?5?9host?5host?5?5?5?5?5?9?5use?5?9connect?5i@ 0005d34c     s_client.obj
 0002:0000b374       ??_C@_0CI@PJFPIDML@?5?9port?5port?5?5?5?5?5?9?5use?5?9connect?5i@ 0005d374     s_client.obj
 0002:0000b39c       ??_C@_04MAHDEHKL@4433?$AA@ 0005d39c     s_client.obj
 0002:0000b3a4       ??_C@_09IPAEKDAI@localhost?$AA@ 0005d3a4     s_client.obj
 0002:0000b3b0       ??_C@_0DM@DAAPOIGI@?5?9connect?5host?3port?5?9?5who?5to?5con@ 0005d3b0     s_client.obj
 0002:0000b3ec       ??_C@_0DO@JADCCCHM@?5?9cert?5arg?5?5?5?5?5?9?5certificate?5fil@ 0005d3ec     s_client.obj
 0002:0000b42c       ??_C@_0DL@PJJGJLED@?5?9key?5arg?5?5?5?5?5?5?9?5Private?5key?5fil@ 0005d42c     s_client.obj
 0002:0000b468       ??_C@_0DC@IGMNKLKE@?5?5?5?5?5?5?5?5?5?5?5?5?5?5?5?5?5not?5specified?5b@ 0005d468     s_client.obj
 0002:0000b49c       ??_C@_0DG@BDHNDFAC@?5?9keyform?5arg?5?5?9?5key?5format?5?$CIPEM@ 0005d49c     s_client.obj
 0002:0000b4d8       ??_C@_0EL@GFHFDCBM@?5?9reconnect?5?5?5?5?9?5Drop?5and?5re?9mak@ 0005d4d8     s_client.obj
 0002:0000b528       ??_C@_0EH@LLKOEDPP@?5?9pause?5?5?5?5?5?5?5?5?9?5sleep?$CI1?$CJ?5after?5@ 0005d528     s_client.obj
 0002:0000b570       ??_C@_0DF@GLAOCGMB@?5?9showcerts?5?5?5?5?9?5show?5all?5certif@ 0005d570     s_client.obj
 0002:0000b5a8       ??_C@_0BP@MAGFDDJA@?5?9debug?5?5?5?5?5?5?5?5?9?5extra?5output?6?$AA@ 0005d5a8     s_client.obj
 0002:0000b5c8       ??_C@_0CM@INMICKPN@?5?9nbio_test?5?5?5?5?9?5more?5ssl?5protoc@ 0005d5c8     s_client.obj
 0002:0000b5f4       ??_C@_0CJ@JEECEKMM@?5?9state?5?5?5?5?5?5?5?5?9?5print?5the?5?8ssl?8@ 0005d5f4     s_client.obj
 0002:0000b620       ??_C@_0CF@KGGGIGOL@?5?9quiet?5?5?5?5?5?5?5?5?9?5no?5s_client?5out@ 0005d620     s_client.obj
 0002:0000b648       ??_C@_0DJ@ODIMJIII@?5?9ign_eof?5?5?5?5?5?5?9?5ignore?5input?5eo@ 0005d648     s_client.obj
 0002:0000b684       ??_C@_0CJ@CNCLIHNG@?5?9no_ign_eof?5?5?5?9?5don?8t?5ignore?5in@ 0005d684     s_client.obj
 0002:0000b6b0       ??_C@_0CD@GMCGEHFF@?5?9psk_identity?5arg?5?9?5PSK?5identit@ 0005d6b0     s_client.obj
 0002:0000b6d4       ??_C@_0DG@OIHFJCKN@?5?9srpuser?5user?5?5?5?5?5?9?5SRP?5authent@ 0005d6d4     s_client.obj
 0002:0000b70c       ??_C@_0CK@OEIKAKOJ@?5?9srppass?5arg?5?5?5?5?5?5?9?5password?5fo@ 0005d70c     s_client.obj
 0002:0000b738       ??_C@_0ED@FPNBJBED@?5?9srp_lateuser?5?5?5?5?5?9?5SRP?5usernam@ 0005d738     s_client.obj
 0002:0000b780       ??_C@_0EA@LJHOGEKL@?5?9srp_moregroups?5?5?5?9?5Tolerate?5ot@ 0005d780     s_client.obj
 0002:0000b7c0       ??_C@_0EB@LEMIHEAO@?5?9srp_strength?5int?5?9?5minimal?5men@ 0005d7c0     s_client.obj
 0002:0000b804       ??_C@_0CB@MAIOMCAD@?5?9ssl2?5?5?5?5?5?5?5?5?5?9?5just?5use?5SSLv2?6@ 0005d804     s_client.obj
 0002:0000b828       ??_C@_0CB@MAPJFFCJ@?5?9ssl3?5?5?5?5?5?5?5?5?5?9?5just?5use?5SSLv3?6@ 0005d828     s_client.obj
 0002:0000b84c       ??_C@_0CD@OKJOIPFP@?5?9tls1_2?5?5?5?5?5?5?5?9?5just?5use?5TLSv1?4@ 0005d84c     s_client.obj
 0002:0000b870       ??_C@_0CD@OKAGDGCB@?5?9tls1_1?5?5?5?5?5?5?5?9?5just?5use?5TLSv1?4@ 0005d870     s_client.obj
 0002:0000b894       ??_C@_0CB@BKPMKFPI@?5?9tls1?5?5?5?5?5?5?5?5?5?9?5just?5use?5TLSv1?6@ 0005d894     s_client.obj
 0002:0000b8b8       ??_C@_0CC@GHLBHJFE@?5?9dtls1?5?5?5?5?5?5?5?5?9?5just?5use?5DTLSv1@ 0005d8b8     s_client.obj
 0002:0000b8dc       ??_C@_0CJ@EJGKILCM@?5?9mtu?5?5?5?5?5?5?5?5?5?5?9?5set?5the?5link?5la@ 0005d8dc     s_client.obj
 0002:0000b908       ??_C@_0EM@PCDENACO@?5?9no_tls1_2?1?9no_tls1_1?1?9no_tls1?1@ 0005d908     s_client.obj
 0002:0000b958       ??_C@_0ED@MFJFCDHF@?5?9bugs?5?5?5?5?5?5?5?5?5?9?5Switch?5on?5all?5S@ 0005d958     s_client.obj
 0002:0000b99c       ??_C@_0DP@GDPGKLDE@?5?9serverpref?5?5?5?9?5Use?5server?8s?5ci@ 0005d99c     s_client.obj
 0002:0000b9e0       ??_C@_0EF@CHKHEFMC@?5?9cipher?5?5?5?5?5?5?5?9?5preferred?5ciphe@ 0005d9e0     s_client.obj
 0002:0000ba28       ??_C@_0DD@BAPEMNH@?5?5?5?5?5?5?5?5?5?5?5?5?5?5?5?5?5command?5to?5see?5@ 0005da28     s_client.obj
 0002:0000ba60       ??_C@_0EA@DCAOMMPP@?5?9starttls?5prot?5?9?5use?5the?5STARTT@ 0005da60     s_client.obj
 0002:0000baa0       ??_C@_0DN@IJPNAMPE@?5?5?5?5?5?5?5?5?5?5?5?5?5?5?5?5?5for?5those?5proto@ 0005daa0     s_client.obj
 0002:0000bae0       ??_C@_0EC@OLPHKLOO@?5?5?5?5?5?5?5?5?5?5?5?5?5?5?5?5?5?8prot?8?5defines?5@ 0005dae0     s_client.obj
 0002:0000bb28       ??_C@_0EA@DPONNPMK@?5?5?5?5?5?5?5?5?5?5?5?5?5?5?5?5?5only?5?$CCsmtp?$CC?0?5?$CCp@ 0005db28     s_client.obj
 0002:0000bb68       ??_C@_0CB@GJKLJCEJ@?5?5?5?5?5?5?5?5?5?5?5?5?5?5?5?5?5are?5supported?4?6@ 0005db68     s_client.obj
 0002:0000bb8c       ??_C@_0CP@FINJMHON@?5?9sess_out?5arg?5?9?5file?5to?5write?5S@ 0005db8c     s_client.obj
 0002:0000bbbc       ??_C@_0DA@KFOBHKFJ@?5?9sess_in?5arg?5?5?9?5file?5to?5read?5SS@ 0005dbbc     s_client.obj
 0002:0000bbf0       ??_C@_0EC@FHACLOOJ@?5?9servername?5host?5?5?9?5Set?5TLS?5ext@ 0005dbf0     s_client.obj
 0002:0000bc34       ??_C@_0DO@PMCEEEHA@?5?9tlsextdebug?5?5?5?5?5?5?9?5hex?5dump?5of@ 0005dc34     s_client.obj
 0002:0000bc74       ??_C@_0DN@LAKBFBKC@?5?9status?5?5?5?5?5?5?5?5?5?5?5?9?5request?5cer@ 0005dc74     s_client.obj
 0002:0000bcb8       ??_C@_0EA@ENBACIIO@?5?9no_ticket?5?5?5?5?5?5?5?5?9?5disable?5use@ 0005dcb8     s_client.obj
 0002:0000bcf8       ??_C@_0GJ@BLOKIDOO@?5?9nextprotoneg?5arg?5?9?5enable?5NPN?5@ 0005dcf8     s_client.obj
 0002:0000bd64       ??_C@_0BO@EJEAHALL@Can?8t?5use?5SSL_get_servername?6?$AA@ 0005dd64     s_client.obj
 0002:0000bd84       ??_C@_0BN@CDLPHCL@SRP?5param?5N?5and?5g?5rejected?4?6?$AA@ 0005dd84     s_client.obj
 0002:0000bda8       ??_C@_0EA@KOBHGEOG@SRP?5param?5N?5and?5g?5are?5not?5known?5@ 0005dda8     s_client.obj
 0002:0000bde8       ??_C@_0BB@OOEDJGNB@SRP?5parameters?3?6?$AA@ 0005dde8     s_client.obj
 0002:0000bdfc       ??_C@_03LDFPIHBN@?7N?$DN?$AA@ 0005ddfc     s_client.obj
 0002:0000be00       ??_C@_04CJBFMKNC@?6?7g?$DN?$AA@ 0005de00     s_client.obj
 0002:0000be08       ??_C@_0BF@JEGFLCOO@Can?8t?5read?5Password?6?$AA@ 0005de08     s_client.obj
 0002:0000be20       ??_C@_0EI@OIJKIDLB@d?3?2wm653wehh?2platform?2mvv210?2src@ 0005de20     s_client.obj
 0002:0000be68       ??_C@_08HKPOPMKK@SRP?5user?$AA@ 0005de68     s_client.obj
 0002:0000be74       ??_C@_02KEGNLNML@?0?5?$AA@ 0005de74     s_client.obj
 0002:0000be78       ??_C@_0CB@DPBPIEJP@Protocols?5advertised?5by?5server?3?5@ 0005de78     s_client.obj
 0002:0000be9c       ??_C@_0BF@PHJGCFEL@Next?5protocol?3?5?$CI?$CFd?$CJ?5?$AA@ 0005de9c     s_client.obj
 0002:0000beb4       ??_C@_0P@GDKPJDML@Expansion?3?5?$CFs?6?$AA@ 0005deb4     s_client.obj
 0002:0000bec4       ??_C@_0BB@LGMJFOIL@Compression?3?5?$CFs?6?$AA@ 0005dec4     s_client.obj
 0002:0000bed8       ??_C@_0BN@FPGCCJFF@Server?5public?5key?5is?5?$CFd?5bit?6?$AA@ 0005ded8     s_client.obj
 0002:0000bef8       ??_C@_0DM@IBEKNAJH@?9?9?9?6SSL?5handshake?5has?5read?5?$CFld?5b@ 0005def8     s_client.obj
 0002:0000bf34       ??_C@_0DA@PBGEFJML@?9?9?9?6Ciphers?5common?5between?5both?5@ 0005df34     s_client.obj
 0002:0000bf64       ??_C@_0CJ@LNBNMGME@?9?9?9?6No?5client?5certificate?5CA?5nam@ 0005df64     s_client.obj
 0002:0000bf90       ??_C@_0CM@KDCDCBFK@?9?9?9?6Acceptable?5client?5certificat@ 0005df90     s_client.obj
 0002:0000bfbc       ??_C@_0BP@KIJJNOJC@no?5peer?5certificate?5available?6?$AA@ 0005dfbc     s_client.obj
 0002:0000bfdc       ??_C@_0BE@CIPDPBOH@Server?5certificate?6?$AA@ 0005dfdc     s_client.obj
 0002:0000bff0       ??_C@_09HDEJJOFD@?$CF2d?5s?3?$CFs?6?$AA@ 0005dff0     s_client.obj
 0002:0000bffc       ??_C@_08FCBCKNAC@?5?5?5i?3?$CFs?6?$AA@ 0005dffc     s_client.obj
 0002:0000c008       ??_C@_0BH@EDGFPEIJ@?9?9?9?6Certificate?5chain?6?$AA@ 0005e008     s_client.obj
 0002:0000c020       ??_C@_0CJ@FLGIDGJF@?6?$DN?$DN?$DN?$DN?$DN?$DN?$DN?$DN?$DN?$DN?$DN?$DN?$DN?$DN?$DN?$DN?$DN?$DN?$DN?$DN?$DN?$DN?$DN?$DN?$DN?$DN?$DN?$DN?$DN?$DN?$DN@ 0005e020     s_client.obj
 0002:0000c04c       ??_C@_0CI@PKCPDAIB@?$DN?$DN?$DN?$DN?$DN?$DN?$DN?$DN?$DN?$DN?$DN?$DN?$DN?$DN?$DN?$DN?$DN?$DN?$DN?$DN?$DN?$DN?$DN?$DN?$DN?$DN?$DN?$DN?$DN?$DN?$DN?$DN@ 0005e04c     s_client.obj
 0002:0000c074       ??_C@_0BG@ICBBIDNI@response?5parse?5error?6?$AA@ 0005e074     s_client.obj
 0002:0000c08c       ??_C@_0BC@HNJKPPAA@no?5response?5sent?6?$AA@ 0005e08c     s_client.obj
 0002:0000c0a0       ??_C@_0BA@JHILPHML@OCSP?5response?3?5?$AA@ 0005e0a0     s_client.obj
 0002:0000c0b0       ??_C@_0P@OCNFKBKF@read?3errno?$DN?$CFd?6?$AA@ 0005e0b0     s_client.obj
 0002:0000c0c0       ??_C@_07HGLGAKII@closed?6?$AA@ 0005e0c0     s_client.obj
 0002:0000c0c8       ??_C@_0BA@ODFKGKPA@write?3errno?$DN?$CFd?6?$AA@ 0005e0c8     s_client.obj
 0002:0000c0d8       ??_C@_09NMGONKDH@shutdown?6?$AA@ 0005e0d8     s_client.obj
 0002:0000c0e4       ??_C@_0P@LOJOMIHN@bad?5select?5?$CFd?6?$AA@ 0005e0e4     s_client.obj
 0002:0000c0f4       ??_C@_0BG@EFOPGOLI@getsockname?3errno?$DN?$CFd?6?$AA@ 0005e0f4     s_client.obj
 0002:0000c10c       ??_C@_0BC@JOCHAJNG@connect?3errno?$DN?$CFd?6?$AA@ 0005e10c     s_client.obj
 0002:0000c120       ??_C@_0CE@OHKMHPKO@drop?5connection?5and?5then?5reconne@ 0005e120     s_client.obj
 0002:0000c144       ??_C@_0O@LLFHAMNO@read?5W?5BLOCK?6?$AA@ 0005e144     s_client.obj
 0002:0000c154       ??_C@_0O@GEOOMDAP@read?5X?5BLOCK?6?$AA@ 0005e154     s_client.obj
 0002:0000c164       ??_C@_0P@HJFNKGPE@RENEGOTIATING?6?$AA@ 0005e164     s_client.obj
 0002:0000c174       ??_C@_0P@KFHKBKNA@write?5R?5BLOCK?6?$AA@ 0005e174     s_client.obj
 0002:0000c184       ??_C@_0P@OPONFPJP@write?5W?5BLOCK?6?$AA@ 0005e184     s_client.obj
 0002:0000c194       ??_C@_0P@DAFEJAEO@write?5X?5BLOCK?6?$AA@ 0005e194     s_client.obj
 0002:0000c1a4       ??_C@_0BB@LACOGFPG@TIMEOUT?5occured?6?$AA@ 0005e1a4     s_client.obj
 0002:0000c1b8       ??_C@_0BP@MDBFDAKI@Error?5writing?5session?5file?5?$CFs?6?$AA@ 0005e1b8     s_client.obj
 0002:0000c1d8       ??_C@_0DE@GLBLEBGP@?$DMstarttls?5xmlns?$DN?8urn?3ietf?3params@ 0005e1d8     s_client.obj
 0002:0000c20c       ??_C@_08GCBBJIEO@?$DMproceed?$AA@ 0005e20c     s_client.obj
 0002:0000c218       ??_C@_0BC@LEBLAAG@?1stream?3features?$DO?$AA@ 0005e218     s_client.obj
 0002:0000c230       ??_C@_0GM@FECAPAJN@?$DMstream?3stream?5xmlns?3stream?$DN?8htt@ 0005e230     s_client.obj
 0002:0000c29c       ??_C@_0DC@NBLOOCGC@?$DMstarttls?5xmlns?$DN?8urn?3ietf?3params@ 0005e29c     s_client.obj
 0002:0000c2d0       ??_C@_0L@OHGLBBLC@AUTH?5TLS?$AN?6?$AA@ 0005e2d0     s_client.obj
 0002:0000c2dc       ??_C@_0N@NIGCLCLA@?4?5STARTTLS?$AN?6?$AA@ 0005e2dc     s_client.obj
 0002:0000c2ec       ??_C@_0DJ@JHIBNOHN@didn?8t?5found?5STARTTLS?5in?5server?5@ 0005e2ec     s_client.obj
 0002:0000c328       ??_C@_0P@MGFCPBHP@?4?5CAPABILITY?$AN?6?$AA@ 0005e328     s_client.obj
 0002:0000c338       ??_C@_06FBDNPHJH@STLS?$AN?6?$AA@ 0005e338     s_client.obj
 0002:0000c340       ??_C@_0L@ONDINJGD@STARTTLS?$AN?6?$AA@ 0005e340     s_client.obj
 0002:0000c34c       ??_C@_0DJ@OPKCJHEL@didn?8t?5found?5starttls?5in?5server?5@ 0005e34c     s_client.obj
 0002:0000c388       ??_C@_08EBJFDHCC@STARTTLS?$AA@ 0005e388     s_client.obj
 0002:0000c394       ??_C@_0BK@PHAHJJON@EHLO?5openssl?4client?4net?$AN?6?$AA@ 0005e394     s_client.obj
 0002:0000c3b0       ??_C@_0BB@NADOOA@CONNECTED?$CI?$CF08X?$CJ?6?$AA@ 0005e3b0     s_client.obj
 0002:0000c3c4       ??_C@_0CJ@IEDADJGO@Unable?5to?5set?5TLS?5servername?5ext@ 0005e3c4     s_client.obj
 0002:0000c3f0       ??_C@_0BM@IGJCFOAJ@Can?8t?5open?5session?5file?5?$CFs?6?$AA@ 0005e3f0     s_client.obj
 0002:0000c40c       ??_C@_0BM@BPFDKLGC@Unable?5to?5set?5SRP?5username?6?$AA@ 0005e40c     s_client.obj
 0002:0000c428       ??_C@_0DI@FBFLLFGP@PSK?5key?5given?5or?5JPAKE?5in?5use?0?5s@ 0005e428     s_client.obj
 0002:0000c460       ??_C@_0CC@GPEALKDB@Error?5setting?5client?5auth?5engine@ 0005e460     s_client.obj
 0002:0000c484       ??_C@_0BI@PGEJCCKA@client?5certificate?5file?$AA@ 0005e484     s_client.obj
 0002:0000c49c       ??_C@_0CE@KPAFLOEO@client?5certificate?5private?5key?5f@ 0005e49c     s_client.obj
 0002:0000c4c0       ??_C@_0CC@HCMIJPJF@Error?5getting?5client?5auth?5engine@ 0005e4c0     s_client.obj
 0002:0000c4e4       ??_C@_0CG@GMAKMBJO@Error?5parsing?5?9nextprotoneg?5argu@ 0005e4e4     s_client.obj
 0002:0000c50c       ??_C@_0BD@KGIPPADG@?9ssl_client_engine?$AA@ 0005e50c     s_client.obj
 0002:0000c520       ??_C@_04ECPNJNJE@xmpp?$AA@ 0005e520     s_client.obj
 0002:0000c528       ??_C@_03LMDBDBEG@ftp?$AA@  0005e528     s_client.obj
 0002:0000c52c       ??_C@_04CJJOKOB@imap?$AA@  0005e52c     s_client.obj
 0002:0000c534       ??_C@_04DNAACBI@pop3?$AA@  0005e534     s_client.obj
 0002:0000c53c       ??_C@_04DCCEAEFJ@smtp?$AA@ 0005e53c     s_client.obj
 0002:0000c544       ??_C@_09IBBJPNLN@?9starttls?$AA@ 0005e544     s_client.obj
 0002:0000c550       ??_C@_0BK@HNPBHFLF@?9no_legacy_server_connect?$AA@ 0005e550     s_client.obj
 0002:0000c56c       ??_C@_0BH@CLMPCHLI@?9legacy_server_connect?$AA@ 0005e56c     s_client.obj
 0002:0000c584       ??_C@_0L@HGEOPGF@?9reconnect?$AA@ 0005e584     s_client.obj
 0002:0000c590       ??_C@_0BA@HGDBOPC@?9srp_moregroups?$AA@ 0005e590     s_client.obj
 0002:0000c5a0       ??_C@_0O@NAANMEJK@?9srp_lateuser?$AA@ 0005e5a0     s_client.obj
 0002:0000c5b0       ??_C@_0CA@MGEDBAFN@SRP?5minimal?5length?5for?5N?5is?5?$CFd?6?$AA@ 0005e5b0     s_client.obj
 0002:0000c5d0       ??_C@_0O@JBHNBGII@?9srp_strength?$AA@ 0005e5d0     s_client.obj
 0002:0000c5e0       ??_C@_08BAKPFIIA@?9srppass?$AA@ 0005e5e0     s_client.obj
 0002:0000c5ec       ??_C@_08CDOPKGGH@?9srpuser?$AA@ 0005e5ec     s_client.obj
 0002:0000c5f8       ??_C@_0O@COHIAFOB@?9psk_identity?$AA@ 0005e5f8     s_client.obj
 0002:0000c608       ??_C@_0L@EKNPMKDB@?9showcerts?$AA@ 0005e608     s_client.obj
 0002:0000c614       ??_C@_06HBFFDCKE@?9pause?$AA@ 0005e614     s_client.obj
 0002:0000c61c       ??_C@_0M@PIMNDHCE@?9no_ign_eof?$AA@ 0005e61c     s_client.obj
 0002:0000c628       ??_C@_08BPJEDGGD@?9ign_eof?$AA@ 0005e628     s_client.obj
 0002:0000c634       ??_C@_07KBCABHOD@?9prexit?$AA@ 0005e634     s_client.obj
 0002:0000c63c       ??_C@_08INMLDHJG@?9sess_in?$AA@ 0005e63c     s_client.obj
 0002:0000c648       ??_C@_09GHKKFCPJ@?9sess_out?$AA@ 0005e648     s_client.obj
 0002:0000c654       ??_C@_08FABEHMEN@?9connect?$AA@ 0005e654     s_client.obj
 0002:0000c660       ??_C@_05CCOMPJJG@?9host?$AA@ 0005e660     s_client.obj
 0002:0000c668       ??_C@_08MMLOFHIP@nistb571?$AA@ 0005e668     speed.obj
 0002:0000c674       ??_C@_08LJJEKMGH@nistb409?$AA@ 0005e674     speed.obj
 0002:0000c680       ??_C@_08GIADEKIJ@nistb283?$AA@ 0005e680     speed.obj
 0002:0000c68c       ??_C@_08GEFGKFGI@nistb233?$AA@ 0005e68c     speed.obj
 0002:0000c698       ??_C@_08HACIMIGN@nistb163?$AA@ 0005e698     speed.obj
 0002:0000c6a4       ??_C@_08MBKODFPO@nistk571?$AA@ 0005e6a4     speed.obj
 0002:0000c6b0       ??_C@_08LEIEMOBG@nistk409?$AA@ 0005e6b0     speed.obj
 0002:0000c6bc       ??_C@_08GFBDCIPI@nistk283?$AA@ 0005e6bc     speed.obj
 0002:0000c6c8       ??_C@_08GJEGMHBJ@nistk233?$AA@ 0005e6c8     speed.obj
 0002:0000c6d4       ??_C@_08HNDIKKBM@nistk163?$AA@ 0005e6d4     speed.obj
 0002:0000c6e0       ??_C@_08NAFFFBIG@nistp521?$AA@ 0005e6e0     speed.obj
 0002:0000c6ec       ??_C@_08IFNOHPMJ@nistp384?$AA@ 0005e6ec     speed.obj
 0002:0000c6f8       ??_C@_08HIMOJHN@nistp256?$AA@ 0005e6f8     speed.obj
 0002:0000c704       ??_C@_08DAPFJNHK@nistp224?$AA@ 0005e704     speed.obj
 0002:0000c710       ??_C@_08HIEPHKPD@nistp192?$AA@ 0005e710     speed.obj
 0002:0000c71c       ??_C@_09CFLHMAIJ@secp160r1?$AA@ 0005e71c     speed.obj
 0002:0000c7f0       ??_C@_05IKIHPKPC@ghash?$AA@ 0005e7f0     speed.obj
 0002:0000c7f8       ??_C@_0M@EFPDJHGN@aes?9256?5ige?$AA@ 0005e7f8     speed.obj
 0002:0000c804       ??_C@_0M@JHENLIOM@aes?9192?5ige?$AA@ 0005e804     speed.obj
 0002:0000c810       ??_C@_0M@DENBMPHA@aes?9128?5ige?$AA@ 0005e810     speed.obj
 0002:0000c81c       ??_C@_09DEGKDAEL@whirlpool?$AA@ 0005e81c     speed.obj
 0002:0000c828       ??_C@_06PAMKOKLI@sha512?$AA@ 0005e828     speed.obj
 0002:0000c830       ??_C@_06OHILPNJ@sha256?$AA@ 0005e830     speed.obj
 0002:0000c838       ??_C@_03KNAAEKMG@evp?$AA@  0005e838     speed.obj
 0002:0000c83c       ??_C@_0BB@OKFKECNI@camellia?9256?5cbc?$AA@ 0005e83c     speed.obj
 0002:0000c850       ??_C@_0BB@DIOEGNFJ@camellia?9192?5cbc?$AA@ 0005e850     speed.obj
 0002:0000c864       ??_C@_0BB@JLHIBKMF@camellia?9128?5cbc?$AA@ 0005e864     speed.obj
 0002:0000c878       ??_C@_0M@HKNPBCGE@aes?9256?5cbc?$AA@ 0005e878     speed.obj
 0002:0000c884       ??_C@_0M@KIGBDNOF@aes?9192?5cbc?$AA@ 0005e884     speed.obj
 0002:0000c890       ??_C@_0M@LPNEKHJ@aes?9128?5cbc?$AA@ 0005e890     speed.obj
 0002:0000c89c       ??_C@_08MALLCDLH@cast?5cbc?$AA@ 0005e89c     speed.obj
 0002:0000c8a8       ??_C@_0N@FAOOFPAC@blowfish?5cbc?$AA@ 0005e8a8     speed.obj
 0002:0000c8b8       ??_C@_0O@FONMDNJC@rc5?932?112?5cbc?$AA@ 0005e8b8     speed.obj
 0002:0000c8c8       ??_C@_07GKJFBGGG@rc2?5cbc?$AA@ 0005e8c8     speed.obj
 0002:0000c8d0       ??_C@_08OPOJMEFD@seed?5cbc?$AA@ 0005e8d0     speed.obj
 0002:0000c8dc       ??_C@_08EKGAJNJB@idea?5cbc?$AA@ 0005e8dc     speed.obj
 0002:0000c8e8       ??_C@_08FLPKODE@des?5ede3?$AA@ 0005e8e8     speed.obj
 0002:0000c8f4       ??_C@_07HHJFMCDJ@des?5cbc?$AA@ 0005e8f4     speed.obj
 0002:0000c8fc       ??_C@_03OODGMOHK@rc4?$AA@  0005e8fc     speed.obj
 0002:0000c900       ??_C@_06HGILBMJP@rmd160?$AA@ 0005e900     speed.obj
 0002:0000c908       ??_C@_04PGHFOLLE@sha1?$AA@ 0005e908     speed.obj
 0002:0000c910       ??_C@_09INIJKPMA@hmac?$CImd5?$CJ?$AA@ 0005e910     speed.obj
 0002:0000c91c       ??_C@_03PKBIKOHH@md5?$AA@  0005e91c     speed.obj
 0002:0000c920       ??_C@_03ODADJPDG@md4?$AA@  0005e920     speed.obj
 0002:0000c924       ??_C@_04ELNKPKEC@mdc2?$AA@ 0005e924     speed.obj
 0002:0000c92c       ??_C@_03LFFJDILA@md2?$AA@  0005e92c     speed.obj
 0002:0000c930       ??_C@_0BM@NHJDEHNA@unable?5to?5CreateThread?5?$CI?$CFd?$CJ?$AA@ 0005e930     speed.obj
 0002:0000c94c       ??_C@_0CF@NBNKINPF@Doing?5?$CFs?5for?5?$CFds?5on?5?$CFd?5size?5bloc@ 0005e94c     speed.obj
 0002:0000c974       ??_C@_0O@JHGPBLMA@?$CLDT?3?$CFs?3?$CFd?3?$CFd?6?$AA@ 0005e974     speed.obj
 0002:0000c984       ??_C@_0BP@MLJLLDHN@Doing?5?$CFd?5bit?5?$CFs?5?$CFs?8s?5for?5?$CFds?3?5?$AA@ 0005e984     speed.obj
 0002:0000c9a4       ??_C@_0BC@BPMDJOBI@?$CLDTP?3?$CFd?3?$CFs?3?$CFs?3?$CFd?6?$AA@ 0005e9a4     speed.obj
 0002:0000c9b8       ??_C@_0BC@IJHBHNDB@?$CFd?5?$CFs?8s?5in?5?$CF?42fs?6?$AA@ 0005e9b8     speed.obj
 0002:0000c9cc       ??_C@_0N@NILEAEMO@?$CLR?3?$CFd?3?$CFs?3?$CFf?6?$AA@ 0005e9cc     speed.obj
 0002:0000c9dc       ??_C@_0CA@JNGHOBN@?$CF4u?5bit?5ecdh?5?$CI?$CFs?$CJ?5?$CF8?44fs?5?$CF8?41f?6?$AA@ 0005e9dc     speed.obj
 0002:0000c9fc       ??_C@_0BB@MHHAKH@?$CLF5?3?$CFu?3?$CFu?3?$CFf?3?$CFf?6?$AA@ 0005e9fc     speed.obj
 0002:0000ca10       ??_C@_0BC@PMAHPJDG@?$CF30sop?5?5?5?5?5?5op?1s?6?$AA@ 0005ea10     speed.obj
 0002:0000ca24       ??_C@_0CO@PGONPIAO@?$CF4u?5bit?5ecdsa?5?$CI?$CFs?$CJ?5?$CF8?44fs?5?$CF8?44fs@ 0005ea24     speed.obj
 0002:0000ca54       ??_C@_0BB@LJDMKLEP@?$CLF4?3?$CFu?3?$CFu?3?$CFf?3?$CFf?6?$AA@ 0005ea54     speed.obj
 0002:0000ca68       ??_C@_0CH@JBDKFKMH@?$CF30ssign?5?5?5?5verify?5?5?5?5sign?1s?5ver@ 0005ea68     speed.obj
 0002:0000ca90       ??_C@_0CI@JKCLPBBG@dsa?5?$CF4u?5bits?5?$CF8?46fs?5?$CF8?46fs?5?$CF8?41f@ 0005ea90     speed.obj
 0002:0000cab8       ??_C@_0BB@CCDNKEFF@?$CLF3?3?$CFu?3?$CFu?3?$CFf?3?$CFf?6?$AA@ 0005eab8     speed.obj
 0002:0000cacc       ??_C@_0CI@DLLFJDPI@rsa?5?$CF4u?5bits?5?$CF8?46fs?5?$CF8?46fs?5?$CF8?41f@ 0005eacc     speed.obj
 0002:0000caf4       ??_C@_0BB@JLMGHPLN@?$CLF2?3?$CFu?3?$CFu?3?$CFf?3?$CFf?6?$AA@ 0005eaf4     speed.obj
 0002:0000cb08       ??_C@_0CH@INPMAKDM@?$CF18ssign?5?5?5?5verify?5?5?5?5sign?1s?5ver@ 0005eb08     speed.obj
 0002:0000cb30       ??_C@_08BGKOENFB@?5?$CF11?42f?5?$AA@ 0005eb30     speed.obj
 0002:0000cb3c       ??_C@_05LGFIPPDB@?3?$CF?42f?$AA@ 0005eb3c     speed.obj
 0002:0000cb44       ??_C@_08FCDNLJP@?5?$CF11?42fk?$AA@ 0005eb44     speed.obj
 0002:0000cb50       ??_C@_05EKKFMPFE@?$CF?913s?$AA@ 0005eb50     speed.obj
 0002:0000cb58       ??_C@_08GEGCDFKK@?$CLF?3?$CFd?3?$CFs?$AA@ 0005eb58     speed.obj
 0002:0000cb64       ??_C@_09HLOAFNAB@?$CF7d?5bytes?$AA@ 0005eb64     speed.obj
 0002:0000cb70       ??_C@_03HODKBCIO@?3?$CFd?$AA@ 0005eb70     speed.obj
 0002:0000cb74       ??_C@_0DL@LIPMFNH@The?5?8numbers?8?5are?5in?51000s?5of?5by@ 0005eb74     speed.obj
 0002:0000cbb0       ??_C@_0N@IFGFLHOK@type?5?5?5?5?5?5?5?5?$AA@ 0005ebb0     speed.obj
 0002:0000cbc0       ??_C@_02MAGEKOB@?$CLH?$AA@ 0005ebc0     speed.obj
 0002:0000cbc4       ??_C@_08LCCFPGMC@options?3?$AA@ 0005ebc4     speed.obj
 0002:0000cbd0       ??_C@_03IKGEINEE@?$CFs?5?$AA@ 0005ebd0     speed.obj
 0002:0000cbd4       ??_C@_04EINJHBMM@?6?$CFs?6?$AA@ 0005ebd4     speed.obj
 0002:0000cbdc       ??_C@_0P@CJCFIJHN@ECDH?5failure?4?6?$AA@ 0005ebdc     speed.obj
 0002:0000cbec       ??_C@_0BO@FHGEFKLE@ECDH?5key?5generation?5failure?4?6?$AA@ 0005ebec     speed.obj
 0002:0000cc0c       ??_C@_0BO@NPGEHCMI@?$CFld?5?$CFd?9bit?5ECDH?5ops?5in?5?$CF?42fs?6?$AA@ 0005ec0c     speed.obj
 0002:0000cc2c       ??_C@_0BB@IFIBCCAG@?$CLR7?3?$CFld?3?$CFd?3?$CF?42f?6?$AA@ 0005ec2c     speed.obj
 0002:0000cc40       ??_C@_0CA@LDDJOMDJ@ECDH?5computations?5don?8t?5match?4?6?$AA@ 0005ec40     speed.obj
 0002:0000cc60       ??_C@_0CC@NHLBCNCE@?$CFld?5?$CFd?5bit?5ECDSA?5verify?5in?5?$CF?42fs@ 0005ec60     speed.obj
 0002:0000cc84       ??_C@_0BB@DMHKPJOO@?$CLR6?3?$CFld?3?$CFd?3?$CF?42f?6?$AA@ 0005ec84     speed.obj
 0002:0000cc98       ??_C@_0BG@MADIODMF@ECDSA?5verify?5failure?6?$AA@ 0005ec98     speed.obj
 0002:0000ccb0       ??_C@_0DG@FLGECHDK@ECDSA?5verify?5failure?4?5?5No?5ECDSA?5@ 0005ecb0     speed.obj
 0002:0000cce8       ??_C@_0CC@DNDLMOIH@?$CFld?5?$CFd?5bit?5ECDSA?5signs?5in?5?$CF?42fs?5@ 0005ece8     speed.obj
 0002:0000cd0c       ??_C@_0BB@CNAHJDJH@?$CLR5?3?$CFld?3?$CFd?3?$CF?42f?6?$AA@ 0005ed0c     speed.obj
 0002:0000cd20       ??_C@_0BE@LIPHCCNA@ECDSA?5sign?5failure?6?$AA@ 0005ed20     speed.obj
 0002:0000cd34       ??_C@_0DC@LLLMMFAB@ECDSA?5sign?5failure?4?5?5No?5ECDSA?5si@ 0005ed34     speed.obj
 0002:0000cd68       ??_C@_0BA@FFIAAOAC@ECDSA?5failure?4?6?$AA@ 0005ed68     speed.obj
 0002:0000cd78       ??_C@_0CA@NGPCPFDA@?$CFld?5?$CFd?5bit?5DSA?5verify?5in?5?$CF?42fs?6?$AA@ 0005ed78     speed.obj
 0002:0000cd98       ??_C@_0BB@JEPMEIHP@?$CLR4?3?$CFld?3?$CFd?3?$CF?42f?6?$AA@ 0005ed98     speed.obj
 0002:0000cdac       ??_C@_0BE@GJPMNCLN@DSA?5verify?5failure?6?$AA@ 0005edac     speed.obj
 0002:0000cdc0       ??_C@_06MCIJCFHC@verify?$AA@ 0005edc0     speed.obj
 0002:0000cdc8       ??_C@_0DC@NIMDNICI@DSA?5verify?5failure?4?5?5No?5DSA?5veri@ 0005edc8     speed.obj
 0002:0000cdfc       ??_C@_0BP@PEEMGHBC@?$CFld?5?$CFd?5bit?5DSA?5signs?5in?5?$CF?42fs?6?$AA@ 0005edfc     speed.obj
 0002:0000ce1c       ??_C@_0BB@PPNEHGF@?$CLR3?3?$CFld?3?$CFd?3?$CF?42f?6?$AA@ 0005ee1c     speed.obj
 0002:0000ce30       ??_C@_0BC@CABFGMJI@DSA?5sign?5failure?6?$AA@ 0005ee30     speed.obj
 0002:0000ce44       ??_C@_04HHGHLBPI@sign?$AA@ 0005ee44     speed.obj
 0002:0000ce4c       ??_C@_0CO@KDAFFDAA@DSA?5sign?5failure?4?5?5No?5DSA?5sign?5w@ 0005ee4c     speed.obj
 0002:0000ce7c       ??_C@_0CC@CAADNGPH@?$CFld?5?$CFd?5bit?5public?5RSA?8s?5in?5?$CF?42fs@ 0005ee7c     speed.obj
 0002:0000cea0       ??_C@_0BB@LGAGJMIN@?$CLR2?3?$CFld?3?$CFd?3?$CF?42f?6?$AA@ 0005eea0     speed.obj
 0002:0000ceb4       ??_C@_0BE@NBJOEEN@RSA?5verify?5failure?6?$AA@ 0005eeb4     speed.obj
 0002:0000cec8       ??_C@_06EOMAMIIF@public?$AA@ 0005eec8     speed.obj
 0002:0000ced0       ??_C@_0DC@MNCHLEBI@RSA?5verify?5failure?4?5?5No?5RSA?5veri@ 0005eed0     speed.obj
 0002:0000cf04       ??_C@_0CD@KNFFODGA@?$CFld?5?$CFd?5bit?5private?5RSA?8s?5in?5?$CF?42f@ 0005ef04     speed.obj
 0002:0000cf28       ??_C@_0BB@KHHLPGPE@?$CLR1?3?$CFld?3?$CFd?3?$CF?42f?6?$AA@ 0005ef28     speed.obj
 0002:0000cf3c       ??_C@_0BC@MKIMAF@RSA?5sign?5failure?6?$AA@ 0005ef3c     speed.obj
 0002:0000cf50       ??_C@_07NMPLPEPB@private?$AA@ 0005ef50     speed.obj
 0002:0000cf58       ??_C@_0CO@CGMKIBHC@RSA?5sign?5failure?4?5?5No?5RSA?5sign?5w@ 0005ef58     speed.obj
 0002:0000cf88       ??_C@_0N@OFCMGCDL@0123456789ab?$AA@ 0005ef88     speed.obj
 0002:0000cf98       ??_C@_0BB@CHBKGAKC@This?5is?5a?5key?4?4?4?$AA@ 0005ef98     speed.obj
 0002:0000cfac       ??_C@_0CK@KKENKNEI@internal?5error?5loading?5RSA?5key?5n@ 0005efac     speed.obj
 0002:0000cfd8       ??_C@_0ED@CCLFMKOH@You?5have?5chosen?5to?5measure?5elaps@ 0005efd8     speed.obj
 0002:0000d01c       ??_C@_0BM@MKHDIKFH@Error?3?5bad?5option?5or?5value?6?$AA@ 0005f01c     speed.obj
 0002:0000d038       ??_C@_0BD@CAAKEHEN@Available?5values?3?6?$AA@ 0005f038     speed.obj
 0002:0000d04c       ??_C@_09JDONDMIM@mdc2?5?5?5?5?5?$AA@ 0005f04c     speed.obj
 0002:0000d058       ??_C@_09DMEPELLE@md4?5?5?5?5?5?5?$AA@ 0005f058     speed.obj
 0002:0000d064       ??_C@_09PAOFELCK@md5?5?5?5?5?5?5?$AA@ 0005f064     speed.obj
 0002:0000d070       ??_C@_09BOOAKEON@hmac?5?5?5?5?5?$AA@ 0005f070     speed.obj
 0002:0000d07c       ??_C@_09DPHDGDCD@sha1?5?5?5?5?5?$AA@ 0005f07c     speed.obj
 0002:0000d088       ??_C@_09LCCAIILE@sha256?5?5?5?$AA@ 0005f088     speed.obj
 0002:0000d094       ??_C@_09BJJGFCOM@sha512?5?5?5?$AA@ 0005f094     speed.obj
 0002:0000d0a0       ??_C@_09KOFIPEDD@idea?9cbc?5?$AA@ 0005f0a0     speed.obj
 0002:0000d0ac       ??_C@_09NLJHNOPG@seed?9cbc?5?$AA@ 0005f0ac     speed.obj
 0002:0000d0b8       ??_C@_09LGNBAGH@rc2?9cbc?5?5?$AA@ 0005f0b8     speed.obj
 0002:0000d0c4       ??_C@_0BD@FHIKLLHL@des?9cbc?5?5des?9ede3?5?$AA@ 0005f0c4     speed.obj
 0002:0000d0d8       ??_C@_0CF@DCHENCLH@aes?9128?9cbc?5aes?9192?9cbc?5aes?9256?9@ 0005f0d8     speed.obj
 0002:0000d100       ??_C@_0CF@PCPALDGP@aes?9128?9ige?5aes?9192?9ige?5aes?9256?9@ 0005f100     speed.obj
 0002:0000d128       ??_C@_0DE@CCALCJIO@camellia?9128?9cbc?5camellia?9192?9cb@ 0005f128     speed.obj
 0002:0000d15c       ??_C@_0CE@EPJNIAGE@rsa512?5?5?5rsa1024?5?5rsa2048?5?5rsa40@ 0005f15c     speed.obj
 0002:0000d180       ??_C@_0BL@BAAHEKKJ@dsa512?5?5?5dsa1024?5?5dsa2048?6?$AA@ 0005f180     speed.obj
 0002:0000d19c       ??_C@_0DN@PIBLGGHM@ecdsap160?5ecdsap192?5ecdsap224?5ec@ 0005f19c     speed.obj
 0002:0000d1dc       ??_C@_0DD@CLPPEPFP@ecdsak163?5ecdsak233?5ecdsak283?5ec@ 0005f1dc     speed.obj
 0002:0000d210       ??_C@_0DD@LBAILFFA@ecdsab163?5ecdsab233?5ecdsab283?5ec@ 0005f210     speed.obj
 0002:0000d244       ??_C@_06JDLPKJFF@ecdsa?6?$AA@ 0005f244     speed.obj
 0002:0000d24c       ??_C@_0DM@BMLEIJCD@ecdhp160?5?5ecdhp192?5?5ecdhp224?5?5ec@ 0005f24c     speed.obj
 0002:0000d288       ??_C@_0DC@NJIKAMEB@ecdhk163?5?5ecdhk233?5?5ecdhk283?5?5ec@ 0005f288     speed.obj
 0002:0000d2bc       ??_C@_0DC@EDHNPGEO@ecdhb163?5?5ecdhb233?5?5ecdhb283?5?5ec@ 0005f2bc     speed.obj
 0002:0000d2f0       ??_C@_05MAPJNPGO@ecdh?6?$AA@ 0005f2f0     speed.obj
 0002:0000d2f8       ??_C@_09EOFEGGFL@idea?5?5?5?5?5?$AA@ 0005f2f8     speed.obj
 0002:0000d304       ??_C@_09DLJLEMJO@seed?5?5?5?5?5?$AA@ 0005f304     speed.obj
 0002:0000d310       ??_C@_09EIOEPFJP@rc2?5?5?5?5?5?5?$AA@ 0005f310     speed.obj
 0002:0000d31c       ??_C@_09PEHJLPMJ@des?5?5?5?5?5?5?$AA@ 0005f31c     speed.obj
 0002:0000d328       ??_C@_09BCFAHEIN@aes?5?5?5?5?5?5?$AA@ 0005f328     speed.obj
 0002:0000d334       ??_C@_09EGJGADGE@camellia?5?$AA@ 0005f334     speed.obj
 0002:0000d340       ??_C@_09DPINEDML@rsa?5?5?5?5?5?5?$AA@ 0005f340     speed.obj
 0002:0000d34c       ??_C@_0BE@GGBOHNKG@Available?5options?3?6?$AA@ 0005f34c     speed.obj
 0002:0000d360       ??_C@_0BM@EKPEBFCO@?9evp?5e?5?5?5?5?5?5?5?5?5?5use?5EVP?5e?4?6?$AA@ 0005f360     speed.obj
 0002:0000d380       ??_C@_0ED@BFHJAELP@?9decrypt?5?5?5?5?5?5?5?5time?5decryption?5@ 0005f380     speed.obj
 0002:0000d3c4       ??_C@_0DC@FOLBCFO@?9mr?5?5?5?5?5?5?5?5?5?5?5?5?5produce?5machine?5@ 0005f3c4     speed.obj
 0002:0000d3f8       ??_C@_0BB@DDANMNBA@no?5engine?5given?6?$AA@ 0005f3f8     speed.obj
 0002:0000d40c       ??_C@_0CD@ELNIIMHM@?$CFs?5is?5an?5unknown?5cipher?5or?5diges@ 0005f40c     speed.obj
 0002:0000d430       ??_C@_0O@GDKHNIIH@no?5EVP?5given?6?$AA@ 0005f430     speed.obj
 0002:0000d440       ??_C@_04KDGGCKGB@ecdh?$AA@ 0005f440     speed.obj
 0002:0000d448       ??_C@_08JEGLFDK@ecdhb571?$AA@ 0005f448     speed.obj
 0002:0000d454       ??_C@_08HMGMEONC@ecdhb409?$AA@ 0005f454     speed.obj
 0002:0000d460       ??_C@_08KNPLKIDM@ecdhb283?$AA@ 0005f460     speed.obj
 0002:0000d46c       ??_C@_08KBKOEHNN@ecdhb233?$AA@ 0005f46c     speed.obj
 0002:0000d478       ??_C@_08LFNACKNI@ecdhb163?$AA@ 0005f478     speed.obj
 0002:0000d484       ??_C@_08EFGNHEL@ecdhk571?$AA@ 0005f484     speed.obj
 0002:0000d490       ??_C@_08HBHMCMKD@ecdhk409?$AA@ 0005f490     speed.obj
 0002:0000d49c       ??_C@_08KAOLMKEN@ecdhk283?$AA@ 0005f49c     speed.obj
 0002:0000d4a8       ??_C@_08KMLOCFKM@ecdhk233?$AA@ 0005f4a8     speed.obj
 0002:0000d4b4       ??_C@_08LIMAEIKJ@ecdhk163?$AA@ 0005f4b4     speed.obj
 0002:0000d4c0       ??_C@_08BFKNLDDD@ecdhp521?$AA@ 0005f4c0     speed.obj
 0002:0000d4cc       ??_C@_08EACGJNHM@ecdhp384?$AA@ 0005f4cc     speed.obj
 0002:0000d4d8       ??_C@_08MCHEALMI@ecdhp256?$AA@ 0005f4d8     speed.obj
 0002:0000d4e4       ??_C@_08PFANHPMP@ecdhp224?$AA@ 0005f4e4     speed.obj
 0002:0000d4f0       ??_C@_08LNLHJIEG@ecdhp192?$AA@ 0005f4f0     speed.obj
 0002:0000d4fc       ??_C@_08IENNLNPJ@ecdhp160?$AA@ 0005f4fc     speed.obj
 0002:0000d508       ??_C@_05FGIDCBJD@ecdsa?$AA@ 0005f508     speed.obj
 0002:0000d510       ??_C@_09MHKCIFMN@ecdsab571?$AA@ 0005f510     speed.obj
 0002:0000d51c       ??_C@_09LCIIHOCF@ecdsab409?$AA@ 0005f51c     speed.obj
 0002:0000d528       ??_C@_09GDBPJIML@ecdsab283?$AA@ 0005f528     speed.obj
 0002:0000d534       ??_C@_09GPEKHHCK@ecdsab233?$AA@ 0005f534     speed.obj
 0002:0000d540       ??_C@_09HLDEBKCP@ecdsab163?$AA@ 0005f540     speed.obj
 0002:0000d54c       ??_C@_09MKLCOHLM@ecdsak571?$AA@ 0005f54c     speed.obj
 0002:0000d558       ??_C@_09LPJIBMFE@ecdsak409?$AA@ 0005f558     speed.obj
 0002:0000d564       ??_C@_09GOAPPKLK@ecdsak283?$AA@ 0005f564     speed.obj
 0002:0000d570       ??_C@_09GCFKBFFL@ecdsak233?$AA@ 0005f570     speed.obj
 0002:0000d57c       ??_C@_09HGCEHIFO@ecdsak163?$AA@ 0005f57c     speed.obj
 0002:0000d588       ??_C@_09NLEJIDME@ecdsap521?$AA@ 0005f588     speed.obj
 0002:0000d594       ??_C@_09IOMCKNIL@ecdsap384?$AA@ 0005f594     speed.obj
 0002:0000d5a0       ??_C@_09MJADLDP@ecdsap256?$AA@ 0005f5a0     speed.obj
 0002:0000d5ac       ??_C@_09DLOJEPDI@ecdsap224?$AA@ 0005f5ac     speed.obj
 0002:0000d5b8       ??_C@_09HDFDKILB@ecdsap192?$AA@ 0005f5b8     speed.obj
 0002:0000d5c4       ??_C@_09EKDJINAO@ecdsap160?$AA@ 0005f5c4     speed.obj
 0002:0000d5d0       ??_C@_03EAKOMMFI@dsa?$AA@  0005f5d0     speed.obj
 0002:0000d5d4       ??_C@_03DFNMMEBL@rsa?$AA@  0005f5d4     speed.obj
 0002:0000d5d8       ??_C@_08MENDDNGH@camellia?$AA@ 0005f5d8     speed.obj
 0002:0000d5e4       ??_C@_03BHCPJDHL@aes?$AA@  0005f5e4     speed.obj
 0002:0000d5e8       ??_C@_03CAPBGDEJ@des?$AA@  0005f5e8     speed.obj
 0002:0000d5ec       ??_C@_05OMEMHABN@cast5?$AA@ 0005f5ec     speed.obj
 0002:0000d5f4       ??_C@_04HJDBPPOC@cast?$AA@ 0005f5f4     speed.obj
 0002:0000d5fc       ??_C@_08DICLOHAG@cast?9cbc?$AA@ 0005f5fc     speed.obj
 0002:0000d608       ??_C@_02HIEKPFIC@bf?$AA@   0005f608     speed.obj
 0002:0000d60c       ??_C@_08CMDBPLDA@blowfish?$AA@ 0005f60c     speed.obj
 0002:0000d618       ??_C@_06LFFGAFHI@bf?9cbc?$AA@ 0005f618     speed.obj
 0002:0000d620       ??_C@_04MENKDCKE@seed?$AA@ 0005f620     speed.obj
 0002:0000d628       ??_C@_08BHHJAAOC@seed?9cbc?$AA@ 0005f628     speed.obj
 0002:0000d634       ??_C@_04CLEBCOKH@idea?$AA@ 0005f634     speed.obj
 0002:0000d63c       ??_C@_08LCPAFJCA@idea?9cbc?$AA@ 0005f63c     speed.obj
 0002:0000d648       ??_C@_03LIGMGJPM@rc2?$AA@  0005f648     speed.obj
 0002:0000d64c       ??_C@_07JCAFNCNH@rc2?9cbc?$AA@ 0005f64c     speed.obj
 0002:0000d654       ??_C@_07GMKMAJLP@rsa4096?$AA@ 0005f654     speed.obj
 0002:0000d65c       ??_C@_07HFLHECMC@rsa2048?$AA@ 0005f65c     speed.obj
 0002:0000d664       ??_C@_07JKCPALKM@rsa1024?$AA@ 0005f664     speed.obj
 0002:0000d66c       ??_C@_06DPKMBDFE@rsa512?$AA@ 0005f66c     speed.obj
 0002:0000d674       ??_C@_07MPGDHKGO@dsa2048?$AA@ 0005f674     speed.obj
 0002:0000d67c       ??_C@_07CAPLDDAA@dsa1024?$AA@ 0005f67c     speed.obj
 0002:0000d684       ??_C@_06DLKCLKKA@dsa512?$AA@ 0005f684     speed.obj
 0002:0000d68c       ??_C@_07OHDAOILP@openssl?$AA@ 0005f68c     speed.obj
 0002:0000d694       ??_C@_0BB@BCMKIGGJ@camellia?9256?9cbc?$AA@ 0005f694     speed.obj
 0002:0000d6a8       ??_C@_0BB@MAHEKJOI@camellia?9192?9cbc?$AA@ 0005f6a8     speed.obj
 0002:0000d6bc       ??_C@_0BB@GDOINOHE@camellia?9128?9cbc?$AA@ 0005f6bc     speed.obj
 0002:0000d6d0       ??_C@_0M@LNGDFDNM@aes?9256?9ige?$AA@ 0005f6d0     speed.obj
 0002:0000d6dc       ??_C@_0M@GPNNHMFN@aes?9192?9ige?$AA@ 0005f6dc     speed.obj
 0002:0000d6e8       ??_C@_0M@MMEBALMB@aes?9128?9ige?$AA@ 0005f6e8     speed.obj
 0002:0000d6f4       ??_C@_0M@ICEPNGNF@aes?9256?9cbc?$AA@ 0005f6f4     speed.obj
 0002:0000d700       ??_C@_0M@FAPBPJFE@aes?9192?9cbc?$AA@ 0005f700     speed.obj
 0002:0000d70c       ??_C@_0M@PDGNIOMI@aes?9128?9cbc?$AA@ 0005f70c     speed.obj
 0002:0000d718       ??_C@_08LJCBLNOK@des?9ede3?$AA@ 0005f718     speed.obj
 0002:0000d724       ??_C@_07IPAFAGII@des?9cbc?$AA@ 0005f724     speed.obj
 0002:0000d72c       ??_C@_09EDIPKBN@ripemd160?$AA@ 0005f72c     speed.obj
 0002:0000d738       ??_C@_06ICCLKODP@ripemd?$AA@ 0005f738     speed.obj
 0002:0000d740       ??_C@_03JNBDOPOP@sha?$AA@  0005f740     speed.obj
 0002:0000d744       ??_C@_04FOBGICMD@hmac?$AA@ 0005f744     speed.obj
 0002:0000d74c       ??_C@_03NBOFBEAH@?9mr?$AA@ 0005f74c     speed.obj
 0002:0000d750       ??_C@_04HDDHIJHC@?9evp?$AA@ 0005f750     speed.obj
 0002:0000d758       ??_C@_08LCCIJCMB@?9elapsed?$AA@ 0005f758     speed.obj
 0002:0000d768       ??_C@_0EF@BPAHEDBE@d?3?2wm653wehh?2platform?2mvv210?2src@ 0005f768     speed.obj
 0002:0000d7b0       ??_C@_0P@IIPDLKPA@localhost?34433?$AA@ 0005f7b0     s_time.obj
 0002:0000d7c0       ??_C@_0BH@IHIAGBMN@usage?3?5s_time?5?$DMargs?$DO?6?6?$AA@ 0005f7c0     s_time.obj
 0002:0000d7d8       ??_C@_0DO@DHOFADPP@?9connect?5host?3port?5?9?5host?3port?5t@ 0005f7d8     s_time.obj
 0002:0000d818       ??_C@_0CK@JAAPKFKC@?9nbio?5?5?5?5?5?5?5?5?5?9?5Run?5with?5non?9blo@ 0005f818     s_time.obj
 0002:0000d844       ??_C@_0CA@NMCANHHL@?9ssl2?5?5?5?5?5?5?5?5?5?9?5Just?5use?5SSLv2?6?$AA@ 0005f844     s_time.obj
 0002:0000d864       ??_C@_0CA@NMFHEAFB@?9ssl3?5?5?5?5?5?5?5?5?5?9?5Just?5use?5SSLv3?6?$AA@ 0005f864     s_time.obj
 0002:0000d884       ??_C@_0CP@NHEENKJK@?9bugs?5?5?5?5?5?5?5?5?5?9?5Turn?5on?5SSL?5bug?5@ 0005f884     s_time.obj
 0002:0000d8b4       ??_C@_0CL@CODCFINN@?9new?5?5?5?5?5?5?5?5?5?5?9?5Just?5time?5new?5co@ 0005f8b4     s_time.obj
 0002:0000d8e0       ??_C@_0CM@DMDCIMPH@?9reuse?5?5?5?5?5?5?5?5?9?5Just?5time?5connec@ 0005f8e0     s_time.obj
 0002:0000d90c       ??_C@_0CP@CPFFJOGO@?9www?5page?5?5?5?5?5?9?5Retrieve?5?8page?8?5@ 0005f90c     s_time.obj
 0002:0000d93c       ??_C@_05OHPGHBKD@?9time?$AA@ 0005f93c     s_time.obj
 0002:0000d944       ??_C@_0BG@DFJLMDBH@?9www?5option?5too?5long?6?$AA@ 0005f944     s_time.obj
 0002:0000d95c       ??_C@_06MJBNDFGP@?9reuse?$AA@ 0005f95c     s_time.obj
 0002:0000d964       ??_C@_09KDONLFBI@starting?6?$AA@ 0005f964     s_time.obj
 0002:0000d970       ??_C@_0BK@DONHIJCM@Unable?5to?5get?5connection?6?$AA@ 0005f970     s_time.obj
 0002:0000d98c       ??_C@_0CF@CKDDPNGE@?6?6Now?5timing?5with?5session?5id?5reu@ 0005f98c     s_time.obj
 0002:0000d9b8       ??_C@_0EG@BBCBIEDO@?6?6?$CFd?5connections?5in?5?$CF?42fs?$DL?5?$CF?42f?5@ 0005f9b8     s_time.obj
 0002:0000da00       ??_C@_0ED@GJCIILCE@?$CFd?5connections?5in?5?$CFld?5real?5secon@ 0005fa00     s_time.obj
 0002:0000da44       ??_C@_0BE@BCFPKLCN@GET?5?$CFs?5HTTP?11?40?$AN?6?$AN?6?$AA@ 0005fa44     s_time.obj
 0002:0000da58       ??_C@_0DB@HGDJEMJJ@Collecting?5connection?5statistics@ 0005fa58     s_time.obj
 0002:0000da8c       ??_C@_0BF@MNJGNACF@No?5CIPHER?5specified?6?$AA@ 0005fa8c     s_time.obj
 0002:0000daa4       ??_C@_0L@FGHMCCKA@SSL_CIPHER?$AA@ 0005faa4     s_time.obj
 0002:0000dce8       ??_C@_09HCOPNKIA@multiline?$AA@ 0005fce8     apps.obj
 0002:0000dcf4       ??_C@_07FAIJGANN@oneline?$AA@ 0005fcf4     apps.obj
 0002:0000dcfc       ??_C@_07HEMBHFCL@RFC2253?$AA@ 0005fcfc     apps.obj
 0002:0000dd04       ??_C@_0N@PAEHGOAB@dump_unknown?$AA@ 0005fd04     apps.obj
 0002:0000dd14       ??_C@_08GFKNBJMB@space_eq?$AA@ 0005fd14     apps.obj
 0002:0000dd20       ??_C@_03PLGJJJLK@oid?$AA@  0005fd20     apps.obj
 0002:0000dd24       ??_C@_05CBJPDLOK@align?$AA@ 0005fd24     apps.obj
 0002:0000dd2c       ??_C@_05MMBGAPKG@lname?$AA@ 0005fd2c     apps.obj
 0002:0000dd34       ??_C@_05DOJGLPOI@sname?$AA@ 0005fd34     apps.obj
 0002:0000dd3c       ??_C@_07BPCNMIP@nofname?$AA@ 0005fd3c     apps.obj
 0002:0000dd44       ??_C@_06GDJIMBOL@dn_rev?$AA@ 0005fd44     apps.obj
 0002:0000dd4c       ??_C@_0O@KAAJMPE@sep_multiline?$AA@ 0005fd4c     apps.obj
 0002:0000dd5c       ??_C@_0BE@CGGJPCMP@sep_semi_plus_space?$AA@ 0005fd5c     apps.obj
 0002:0000dd70       ??_C@_0BF@KBBKPJJN@sep_comma_plus_space?$AA@ 0005fd70     apps.obj
 0002:0000dd88       ??_C@_0P@MCGDLNKE@sep_comma_plus?$AA@ 0005fd88     apps.obj
 0002:0000dd98       ??_C@_06CJLEMFPD@compat?$AA@ 0005fd98     apps.obj
 0002:0000dda0       ??_C@_08EAJIKOBI@dump_der?$AA@ 0005fda0     apps.obj
 0002:0000ddac       ??_C@_0L@KOBDNBHE@dump_nostr?$AA@ 0005fdac     apps.obj
 0002:0000ddb8       ??_C@_08KMNGFKHK@dump_all?$AA@ 0005fdb8     apps.obj
 0002:0000ddc4       ??_C@_09GNHCDCJF@show_type?$AA@ 0005fdc4     apps.obj
 0002:0000ddd0       ??_C@_0M@JIPHIHCC@ignore_type?$AA@ 0005fdd0     apps.obj
 0002:0000dddc       ??_C@_09FBNGBICE@use_quote?$AA@ 0005fddc     apps.obj
 0002:0000dde8       ??_C@_07CDEFJBOD@esc_msb?$AA@ 0005fde8     apps.obj
 0002:0000ddf0       ??_C@_08MOKJPHFA@esc_ctrl?$AA@ 0005fdf0     apps.obj
 0002:0000ddfc       ??_C@_08DNFDMMBE@esc_2253?$AA@ 0005fdfc     apps.obj
 0002:0000de08       ??_C@_08MKCLELCD@ext_dump?$AA@ 0005fe08     apps.obj
 0002:0000de14       ??_C@_09LNDMENIE@ext_parse?$AA@ 0005fe14     apps.obj
 0002:0000de20       ??_C@_09NJNIONHM@ext_error?$AA@ 0005fe20     apps.obj
 0002:0000de2c       ??_C@_0M@IDNMJLNK@ext_default?$AA@ 0005fe2c     apps.obj
 0002:0000de38       ??_C@_0O@OHNPCCEE@no_attributes?$AA@ 0005fe38     apps.obj
 0002:0000de48       ??_C@_06MMLNDLIP@no_aux?$AA@ 0005fe48     apps.obj
 0002:0000de50       ??_C@_0L@GNLOCCHG@no_sigdump?$AA@ 0005fe50     apps.obj
 0002:0000de5c       ??_C@_0O@BIDECDDG@no_extensions?$AA@ 0005fe5c     apps.obj
 0002:0000de6c       ??_C@_09NEDENPFH@no_pubkey?$AA@ 0005fe6c     apps.obj
 0002:0000de78       ??_C@_09POJJKCAC@no_issuer?$AA@ 0005fe78     apps.obj
 0002:0000de84       ??_C@_0L@BMNGEEIP@no_subject?$AA@ 0005fe84     apps.obj
 0002:0000de90       ??_C@_0M@LFPGDAPD@no_validity?$AA@ 0005fe90     apps.obj
 0002:0000de9c       ??_C@_0L@MPMABMAL@no_signame?$AA@ 0005fe9c     apps.obj
 0002:0000dea8       ??_C@_09BMFPNGJA@no_serial?$AA@ 0005fea8     apps.obj
 0002:0000deb4       ??_C@_0L@KOCPJNEK@no_version?$AA@ 0005feb4     apps.obj
 0002:0000dec0       ??_C@_09HPOELMCI@no_header?$AA@ 0005fec0     apps.obj
 0002:0000decc       ??_C@_0L@GPCPPOGC@ca_default?$AA@ 0005fecc     apps.obj
 0002:0000ded8       ??_C@_0L@JNOGJJCA@compatible?$AA@ 0005fed8     apps.obj
 0002:0000dee4       ??_C@_03HNFNFLKJ@p12?$AA@  0005fee4     apps.obj
 0002:0000dee8       ??_C@_03NNGPPEJH@P12?$AA@  0005fee8     apps.obj
 0002:0000deec       ??_C@_06IDAJNGAK@pkcs12?$AA@ 0005feec     apps.obj
 0002:0000def4       ??_C@_06CKOLGKJK@PKCS12?$AA@ 0005fef4     apps.obj
 0002:0000df00       ??_C@_0EE@BMJCOODJ@d?3?2wm653wehh?2platform?2mvv210?2src@ 0005ff00     apps.obj
 0002:0000df44       ??_C@_08BDBNPDII@?6issuer?$DN?$AA@ 0005ff44     apps.obj
 0002:0000df50       ??_C@_0CD@HINDFPHK@OpenSSL?5application?5user?5interfa@ 0005ff50     apps.obj
 0002:0000df74       ??_C@_09JELMDBBD@aborted?$CB?6?$AA@ 0005ff74     apps.obj
 0002:0000df80       ??_C@_0BG@HNCPHOCJ@User?5interface?5error?6?$AA@ 0005ff80     apps.obj
 0002:0000df98       ??_C@_0M@FKGGGFHP@pass?5phrase?$AA@ 0005ff98     apps.obj
 0002:0000dfa4       ??_C@_0CA@FEIKIBOM@Invalid?5password?5argument?5?$CC?$CFs?$CC?6?$AA@ 0005ffa4     apps.obj
 0002:0000dfc4       ??_C@_0CB@KJOAPACB@Error?5reading?5password?5from?5BIO?6@ 0005ffc4     apps.obj
 0002:0000dfe8       ??_C@_0BK@EEFMFEJC@Can?8t?5open?5BIO?5for?5stdin?6?$AA@ 0005ffe8     apps.obj
 0002:0000e004       ??_C@_0BE@DGGEJBEC@Can?8t?5open?5file?5?$CFs?6?$AA@ 00060004     apps.obj
 0002:0000e018       ??_C@_05BOPHDICO@file?3?$AA@ 00060018     apps.obj
 0002:0000e020       ??_C@_0CE@NKEIKLNB@Can?8t?5read?5environment?5variable?5@ 00060020     apps.obj
 0002:0000e044       ??_C@_04MGCDLKHE@env?3?$AA@ 00060044     apps.obj
 0002:0000e04c       ??_C@_05OLNJAKGC@pass?3?$AA@ 0006004c     apps.obj
 0002:0000e054       ??_C@_0BP@DCFHMIBP@problem?5creating?5object?5?$CFs?$DN?$CFs?6?$AA@ 00060054     apps.obj
 0002:0000e074       ??_C@_0CA@HDAKCCMK@problem?5loading?5oid?5section?5?$CFs?6?$AA@ 00060074     apps.obj
 0002:0000e094       ??_C@_0M@HCKPEIO@oid_section?$AA@ 00060094     apps.obj
 0002:0000e0a0       ??_C@_0DK@EMMPDJCK@Mac?5verify?5error?5?$CIwrong?5password@ 000600a0     apps.obj
 0002:0000e0dc       ??_C@_0CC@DKCLIBKC@Passpharse?5callback?5error?5for?5?$CFs@ 000600dc     apps.obj
 0002:0000e100       ??_C@_0CC@PEGFFLPF@Error?5loading?5PKCS12?5file?5for?5?$CFs@ 00060100     apps.obj
 0002:0000e124       ??_C@_0BM@FDKJDCHF@unable?5to?5load?5certificate?6?$AA@ 00060124     apps.obj
 0002:0000e140       ??_C@_0CD@HFNMCDK@bad?5input?5format?5specified?5for?5?$CF@ 00060140     apps.obj
 0002:0000e164       ??_C@_0CF@BGMEBKBE@Error?5reading?5header?5on?5certific@ 00060164     apps.obj
 0002:0000e18c       ??_C@_0BF@JJKPOFNI@Error?5opening?5?$CFs?5?$CFs?6?$AA@ 0006018c     apps.obj
 0002:0000e1a4       ??_C@_0BE@NPKILBBI@Error?5reading?5?$CFs?5?$CFs?$AA@ 000601a4     apps.obj
 0002:0000e1b8       ??_C@_0BD@DHEMONEO@unable?5to?5load?5?$CFs?6?$AA@ 000601b8     apps.obj
 0002:0000e1cc       ??_C@_04DKBILDMD@CRLs?$AA@ 000601cc     apps.obj
 0002:0000e1d4       ??_C@_0N@NGKEHKOM@certificates?$AA@ 000601d4     apps.obj
 0002:0000e1e4       ??_C@_07ENLILCDE@copyall?$AA@ 000601e4     apps.obj
 0002:0000e1ec       ??_C@_04COAGEIMF@copy?$AA@ 000601ec     apps.obj
 0002:0000e1f4       ??_C@_04CGFJFPFD@none?$AA@ 000601f4     apps.obj
 0002:0000e1fc       ??_C@_04ICOEJIDH@LOAD?$AA@ 000601fc     apps.obj
 0002:0000e204       ??_C@_07EGEBNIPD@SO_PATH?$AA@ 00060204     apps.obj
 0002:0000e20c       ??_C@_07OBLKMMON@dynamic?$AA@ 0006020c     apps.obj
 0002:0000e214       ??_C@_0BC@CPAKBHCD@engine?5?$CC?$CFs?$CC?5set?4?6?$AA@ 00060214     apps.obj
 0002:0000e228       ??_C@_0BH@OBPKDCDO@can?8t?5use?5that?5engine?6?$AA@ 00060228     apps.obj
 0002:0000e240       ??_C@_0BD@HNMPJJDL@SET_USER_INTERFACE?$AA@ 00060240     apps.obj
 0002:0000e254       ??_C@_0BF@FDAJFBF@invalid?5engine?5?$CC?$CFs?$CC?6?$AA@ 00060254     apps.obj
 0002:0000e26c       ??_C@_0BO@GLIGNJMA@enabling?5auto?5ENGINE?5support?6?$AA@ 0006026c     apps.obj
 0002:0000e28c       ??_C@_04HAPDLBFF@auto?$AA@ 0006028c     apps.obj
 0002:0000e294       ??_C@_0BL@IPMGKJPN@Error?5configuring?5OpenSSL?6?$AA@ 00060294     apps.obj
 0002:0000e2b0       ??_C@_0CJ@OGFINJBE@error?5converting?5serial?5to?5ASN?41@ 000602b0     apps.obj
 0002:0000e2dc       ??_C@_05NNFHCGPF@?$CFs?4?$CFs?$AA@ 000602dc     apps.obj
 0002:0000e2e4       ??_C@_0BE@PGHNBIGG@file?5name?5too?5long?6?$AA@ 000602e4     apps.obj
 0002:0000e2f8       ??_C@_0CJ@LAHEODBL@error?5creating?5name?5index?3?$CI?$CFld?0?$CF@ 000602f8     apps.obj
 0002:0000e324       ??_C@_0DC@FMBAALNJ@error?5creating?5serial?5number?5ind@ 00060324     apps.obj
 0002:0000e358       ??_C@_0BF@HNOOHBO@unique_subject?5?$DN?5?$CFs?6?$AA@ 00060358     apps.obj
 0002:0000e370       ??_C@_0BF@BIGLPGDL@unable?5to?5open?5?8?$CFs?8?6?$AA@ 00060370     apps.obj
 0002:0000e388       ??_C@_07MFJDFAJK@?$CFs?4attr?$AA@ 00060388     apps.obj
 0002:0000e390       ??_C@_0L@FJEANEHK@?$CFs?4attr?4?$CFs?$AA@ 00060390     apps.obj
 0002:0000e39c       ??_C@_0DF@IJPKHMNK@No?5value?5provided?5for?5Subject?5At@ 0006039c     apps.obj
 0002:0000e3d4       ??_C@_0DA@DIKEDNCG@Subject?5Attribute?5?$CFs?5has?5no?5know@ 000603d4     apps.obj
 0002:0000e408       ??_C@_0EN@LIPKONBC@end?5of?5string?5encountered?5while?5@ 00060408     apps.obj
 0002:0000e458       ??_C@_0CD@EOHKOJGN@escape?5character?5at?5end?5of?5strin@ 00060458     apps.obj
 0002:0000e47c       ??_C@_0CC@MFKPEIBE@Subject?5does?5not?5start?5with?5?8?1?8?4@ 0006047c     apps.obj
 0002:0000e4a0       ??_C@_0O@HOJLLGLJ@?9check_ss_sig?$AA@ 000604a0     apps.obj
 0002:0000e4b0       ??_C@_0O@HLMNILI@?9policy_print?$AA@ 000604b0     apps.obj
 0002:0000e4c0       ??_C@_0M@NIBFNGJH@?9use_deltas?$AA@ 000604c0     apps.obj
 0002:0000e4cc       ??_C@_0O@JLHDLMKC@?9extended_crl?$AA@ 000604cc     apps.obj
 0002:0000e4dc       ??_C@_0N@JAAINALF@?9x509_strict?$AA@ 000604dc     apps.obj
 0002:0000e4ec       ??_C@_0N@IIAGEECI@?9inhibit_map?$AA@ 000604ec     apps.obj
 0002:0000e4fc       ??_C@_0N@BIEOAHOE@?9inhibit_any?$AA@ 000604fc     apps.obj
 0002:0000e50c       ??_C@_0BB@DFNKALPO@?9explicit_policy?$AA@ 0006050c     apps.obj
 0002:0000e520       ??_C@_0O@CHPKAFNL@?9policy_check?$AA@ 00060520     apps.obj
 0002:0000e530       ??_C@_0P@JMLMJOLO@?9crl_check_all?$AA@ 00060530     apps.obj
 0002:0000e540       ??_C@_0L@IIGOHFBF@?9crl_check?$AA@ 00060540     apps.obj
 0002:0000e54c       ??_C@_0P@KGEGMNHK@?9issuer_checks?$AA@ 0006054c     apps.obj
 0002:0000e55c       ??_C@_0BB@MAMKNOBM@?9ignore_critical?$AA@ 0006055c     apps.obj
 0002:0000e570       ??_C@_0BM@BLOMJHGB@Error?5parsing?5timestamp?5?$CFs?6?$AA@ 00060570     apps.obj
 0002:0000e58c       ??_C@_03LMKFJNEF@?$CFli?$AA@ 0006058c     apps.obj
 0002:0000e590       ??_C@_07FHCFGGIA@?9attime?$AA@ 00060590     apps.obj
 0002:0000e598       ??_C@_0P@PLGBDNLB@invalid?5depth?6?$AA@ 00060598     apps.obj
 0002:0000e5a8       ??_C@_0O@GLCJCNHH@?9verify_depth?$AA@ 000605a8     apps.obj
 0002:0000e5b8       ??_C@_0BG@MLBGEMEI@unrecognized?5purpose?6?$AA@ 000605b8     apps.obj
 0002:0000e5d0       ??_C@_0BF@OKHBOGOJ@Invalid?5Policy?5?$CC?$CFs?$CC?6?$AA@ 000605d0     apps.obj
 0002:0000e5e8       ??_C@_09CMBKKAKN@?5?$DMempty?$DO?6?$AA@ 000605e8     apps.obj
 0002:0000e5f4       ??_C@_0N@ENJCIODO@?$CFs?5Policies?3?$AA@ 000605f4     apps.obj
 0002:0000e604       ??_C@_0BN@IBNHIEPH@Require?5explicit?5Policy?3?5?$CFs?6?$AA@ 00060604     apps.obj
 0002:0000e624       ??_C@_09NGOBFEPP@Authority?$AA@ 00060624     apps.obj
 0002:0000e630       ??_C@_04ODLBFFJE@User?$AA@ 00060630     apps.obj
 0002:0000e638       ??_C@_05MKDOIIA@False?$AA@ 00060638     apps.obj
 0002:0000e640       ??_C@_04HPMIDMKH@True?$AA@ 00060640     apps.obj
 0002:0000e648       ??_C@_0DN@IIJMFLNE@To?5get?5meaningful?5results?0?5run?5t@ 00060648     apps.obj
 0002:0000e688       ??_C@_0CJ@DHFLKNAM@bad?5input?5format?5specified?5for?5k@ 00060688     apps.obj
 0002:0000e6b4       ??_C@_0BM@OODBDEPN@cannot?5load?5?$CFs?5from?5engine?6?$AA@ 000606b4     apps.obj
 0002:0000e6d0       ??_C@_0BF@MCNMEPFL@no?5engine?5specified?6?$AA@ 000606d0     apps.obj
 0002:0000e6e8       ??_C@_0BG@OLBFGCBD@no?5keyfile?5specified?6?$AA@ 000606e8     apps.obj
 0002:0000e700       ??_C@_0CM@KKKLPGOP@error?5converting?5number?5from?5bin@ 00060700     apps.obj
 0002:0000e72c       ??_C@_0BP@IBMKHAAI@unable?5to?5load?5number?5from?5?$CFs?6?$AA@ 0006072c     apps.obj
 0002:0000e74c       ??_C@_0P@HKFKDJCC@Out?5of?5memory?6?$AA@ 0006074c     apps.obj
 0002:0000e75c       ??_C@_0BL@PJHGPAJJ@unable?5to?5rename?5?$CFs?5to?5?$CFs?6?$AA@ 0006075c     apps.obj
 0002:0000e778       ??_C@_06CEHAOENB@reason?$AA@ 00060778     apps.obj
 0002:0000e780       ??_C@_0CN@KHNEBDJO@error?5on?5line?5?$CFld?5of?5db?5attribut@ 00060780     apps.obj
 0002:0000e7b0       ??_C@_0BC@LNEEPMFO@verify?5return?3?$CFd?6?$AA@ 000607b0     s_cb.obj
 0002:0000e7c4       ??_C@_0BI@GLLCFIFH@verify?5error?3num?$DN?$CFd?3?$CFs?6?$AA@ 000607c4     s_cb.obj
 0002:0000e7dc       ??_C@_0L@FCLIODMN@?$DMno?5cert?$DO?6?$AA@ 000607dc     s_cb.obj
 0002:0000e7e8       ??_C@_09JGFKHLJC@depth?$DN?$CFd?5?$AA@ 000607e8     s_cb.obj
 0002:0000e7f4       ??_C@_0DH@GILOONNH@Private?5key?5does?5not?5match?5the?5c@ 000607f4     s_cb.obj
 0002:0000e82c       ??_C@_0CF@PFHILJKD@unable?5to?5get?5private?5key?5from?5?8@ 0006082c     s_cb.obj
 0002:0000e854       ??_C@_0CF@JDHACCEM@unable?5to?5get?5certificate?5from?5?8@ 00060854     s_cb.obj
 0002:0000e87c       ??_C@_0BL@NMGCOLIA@error?5setting?5private?5key?6?$AA@ 0006087c     s_cb.obj
 0002:0000e898       ??_C@_0BL@FIAOECOC@error?5setting?5certificate?6?$AA@ 00060898     s_cb.obj
 0002:0000e8b4       ??_C@_0CN@EGEANLCL@write?5to?5?$CFp?5?$FL?$CFp?$FN?5?$CI?$CFlu?5bytes?5?$DN?$DO?5?$CF@ 000608b4     s_cb.obj
 0002:0000e8e4       ??_C@_0CO@IFKCOBHE@read?5from?5?$CFp?5?$FL?$CFp?$FN?5?$CI?$CFlu?5bytes?5?$DN?$DO?5@ 000608e4     s_cb.obj
 0002:0000e914       ??_C@_0BA@LMGLFOEA@?$CFs?3error?5in?5?$CFs?6?$AA@ 00060914     s_cb.obj
 0002:0000e924       ??_C@_0BB@OAMGMKGH@?$CFs?3failed?5in?5?$CFs?6?$AA@ 00060924     s_cb.obj
 0002:0000e938       ??_C@_0BF@ENNDGLIH@SSL3?5alert?5?$CFs?3?$CFs?3?$CFs?6?$AA@ 00060938     s_cb.obj
 0002:0000e950       ??_C@_05NGFEDHGN@write?$AA@ 00060950     s_cb.obj
 0002:0000e958       ??_C@_04POLDLDMI@read?$AA@ 00060958     s_cb.obj
 0002:0000e960       ??_C@_06KCIFIIHN@?$CFs?3?$CFs?6?$AA@ 00060960     s_cb.obj
 0002:0000e968       ??_C@_09MLGAJAED@undefined?$AA@ 00060968     s_cb.obj
 0002:0000e974       ??_C@_0L@PNMODNKP@SSL_accept?$AA@ 00060974     s_cb.obj
 0002:0000e980       ??_C@_0M@DNKCJBCI@SSL_connect?$AA@ 00060980     s_cb.obj
 0002:0000e98c       ??_C@_05HAJCMBLP@?5?$CF02x?$AA@ 0006098c     s_cb.obj
 0002:0000e994       ??_C@_04HOJGNNDP@?6?5?5?5?$AA@ 00060994     s_cb.obj
 0002:0000e99c       ??_C@_03NDEAONJP@?5?5?5?$AA@ 0006099c     s_cb.obj
 0002:0000e9a0       ??_C@_0BM@HKCKENBP@?$CFs?5?$CFs?$CFs?5?$FLlength?5?$CF04lx?$FN?$CFs?$CFs?6?$AA@ 000609a0     s_cb.obj
 0002:0000e9bc       ??_C@_0BD@JEGGBDEL@?0?5HeartbeatRequest?$AA@ 000609bc     s_cb.obj
 0002:0000e9d0       ??_C@_0BE@NDMOGABF@?0?5HeartbeatResponse?$AA@ 000609d0     s_cb.obj
 0002:0000e9e4       ??_C@_0M@JOFNLDII@?0?5Heartbeat?$AA@ 000609e4     s_cb.obj
 0002:0000e9f0       ??_C@_0L@MOJABKHP@?0?5Finished?$AA@ 000609f0     s_cb.obj
 0002:0000e9fc       ??_C@_0BE@PEMEFFCP@?0?5ClientKeyExchange?$AA@ 000609fc     s_cb.obj
 0002:0000ea10       ??_C@_0BE@IIFEPMNO@?0?5CertificateVerify?$AA@ 00060a10     s_cb.obj
 0002:0000ea24       ??_C@_0BC@FNODKNFG@?0?5ServerHelloDone?$AA@ 00060a24     s_cb.obj
 0002:0000ea38       ??_C@_0BF@JCFMDLDC@?0?5CertificateRequest?$AA@ 00060a38     s_cb.obj
 0002:0000ea50       ??_C@_0BE@LNOPIJMP@?0?5ServerKeyExchange?$AA@ 00060a50     s_cb.obj
 0002:0000ea64       ??_C@_0O@FNGFOCHG@?0?5Certificate?$AA@ 00060a64     s_cb.obj
 0002:0000ea74       ??_C@_0BF@KMKNOJPP@?0?5HelloVerifyRequest?$AA@ 00060a74     s_cb.obj
 0002:0000ea8c       ??_C@_0O@OCLFGLDC@?0?5ServerHello?$AA@ 00060a8c     s_cb.obj
 0002:0000ea9c       ??_C@_0O@OBFJJFIM@?0?5ClientHello?$AA@ 00060a9c     s_cb.obj
 0002:0000eaac       ??_C@_0P@EDBFKPPI@?0?5HelloRequest?$AA@ 00060aac     s_cb.obj
 0002:0000eabc       ??_C@_0BH@NCAKKBCF@?5unsupported_extension?$AA@ 00060abc     s_cb.obj
 0002:0000ead4       ??_C@_0BK@DJLJGAPO@?5certificate_unobtainable?$AA@ 00060ad4     s_cb.obj
 0002:0000eaf0       ??_C@_0BD@BNEAGOKA@?5unrecognized_name?$AA@ 00060af0     s_cb.obj
 0002:0000eb04       ??_C@_0CB@HBCNFJEH@?5bad_certificate_status_response@ 00060b04     s_cb.obj
 0002:0000eb28       ??_C@_0BM@NLKJLONO@?5bad_certificate_hash_value?$AA@ 00060b28     s_cb.obj
 0002:0000eb44       ??_C@_0BG@EAEOMHJP@?5unknown_psk_identity?$AA@ 00060b44     s_cb.obj
 0002:0000eb5c       ??_C@_0BC@NFBAFOKM@?5no_renegotiation?$AA@ 00060b5c     s_cb.obj
 0002:0000eb70       ??_C@_0O@HMMHMPOF@?5decode_error?$AA@ 00060b70     s_cb.obj
 0002:0000eb80       ??_C@_0P@JMCBEHLI@?5decrypt_error?$AA@ 00060b80     s_cb.obj
 0002:0000eb90       ??_C@_0BE@BEGENHJM@?5export_restriction?$AA@ 00060b90     s_cb.obj
 0002:0000eba4       ??_C@_0BC@HKAEGMKC@?5protocol_version?$AA@ 00060ba4     s_cb.obj
 0002:0000ebb8       ??_C@_0BH@FBKLIKEG@?5insufficient_security?$AA@ 00060bb8     s_cb.obj
 0002:0000ebd0       ??_C@_0BA@IJPDPOHM@?5internal_error?$AA@ 00060bd0     s_cb.obj
 0002:0000ebe0       ??_C@_0P@NEFCGCON@?5user_canceled?$AA@ 00060be0     s_cb.obj
 0002:0000ebf0       ??_C@_0P@CMHKJOPI@?5access_denied?$AA@ 00060bf0     s_cb.obj
 0002:0000ec00       ??_C@_0BJ@JMBKIDID@?5unsupported_certificate?$AA@ 00060c00     s_cb.obj
 0002:0000ec1c       ??_C@_0BF@HLFBLDL@?5certificate_revoked?$AA@ 00060c1c     s_cb.obj
 0002:0000ec34       ??_C@_0BF@DMKNAKP@?5certificate_expired?$AA@ 00060c34     s_cb.obj
 0002:0000ec4c       ??_C@_0BF@OHHAHGOO@?5certificate_unknown?$AA@ 00060c4c     s_cb.obj
 0002:0000ec64       ??_C@_0BD@MFOCCEBG@?5illegal_parameter?$AA@ 00060c64     s_cb.obj
 0002:0000ec78       ??_C@_0M@CPNFHNNI@?5unknown_ca?$AA@ 00060c78     s_cb.obj
 0002:0000ec84       ??_C@_0BB@NJODPFJH@?5bad_certificate?$AA@ 00060c84     s_cb.obj
 0002:0000ec98       ??_C@_0O@ODBBBBIB@?5close_notify?$AA@ 00060c98     s_cb.obj
 0002:0000eca8       ??_C@_0BE@MAFFJDKF@?5unexpected_message?$AA@ 00060ca8     s_cb.obj
 0002:0000ecbc       ??_C@_0BA@BOEJGJMG@?5bad_record_mac?$AA@ 00060cbc     s_cb.obj
 0002:0000eccc       ??_C@_0BD@JNMKCPMB@?5decryption_failed?$AA@ 00060ccc     s_cb.obj
 0002:0000ece0       ??_C@_0BB@LKGGGDLH@?5record_overflow?$AA@ 00060ce0     s_cb.obj
 0002:0000ecf4       ??_C@_0BH@FAJFFOMC@?5decompression_failure?$AA@ 00060cf4     s_cb.obj
 0002:0000ed0c       ??_C@_0BD@BFJAFHNN@?5handshake_failure?$AA@ 00060d0c     s_cb.obj
 0002:0000ed20       ??_C@_09OICOPIJ@?0?5warning?$AA@ 00060d20     s_cb.obj
 0002:0000ed2c       ??_C@_07OFEGGONO@?0?5fatal?$AA@ 00060d2c     s_cb.obj
 0002:0000ed34       ??_C@_05CADDNEHD@?0?5?$DP?$DP?$DP?$AA@ 00060d34     s_cb.obj
 0002:0000ed3c       ??_C@_0BB@BHLNGCGJ@ChangeCipherSpec?$AA@ 00060d3c     s_cb.obj
 0002:0000ed50       ??_C@_05MGCFBKCE@Alert?$AA@ 00060d50     s_cb.obj
 0002:0000ed58       ??_C@_09JLPOPHOD@Handshake?$AA@ 00060d58     s_cb.obj
 0002:0000ed64       ??_C@_0BF@FIOHJDCP@?0?5CLIENT?9CERTIFICATE?$AA@ 00060d64     s_cb.obj
 0002:0000ed7c       ??_C@_0BG@JEEBGEHB@?0?5REQUEST?9CERTIFICATE?$AA@ 00060d7c     s_cb.obj
 0002:0000ed94       ??_C@_0BC@NGMAEHMD@?0?5SERVER?9FINISHED?$AA@ 00060d94     s_cb.obj
 0002:0000eda8       ??_C@_0BA@HCGKDEDJ@?0?5SERVER?9VERIFY?$AA@ 00060da8     s_cb.obj
 0002:0000edb8       ??_C@_0P@CBPHGPHD@?0?5SERVER?9HELLO?$AA@ 00060db8     s_cb.obj
 0002:0000edc8       ??_C@_0BC@PPPFMNOK@?0?5CLIENT?9FINISHED?$AA@ 00060dc8     s_cb.obj
 0002:0000eddc       ??_C@_0BE@IBMJBBBH@?0?5CLIENT?9MASTER?9KEY?$AA@ 00060ddc     s_cb.obj
 0002:0000edf0       ??_C@_0P@NCNBNAG@?0?5CLIENT?9HELLO?$AA@ 00060df0     s_cb.obj
 0002:0000ee00       ??_C@_0BB@IJJLJCH@?5NO?9CIPHER?9ERROR?$AA@ 00060e00     s_cb.obj
 0002:0000ee14       ??_C@_0BG@BMGPIKKC@?5NO?9CERTIFICATE?9ERROR?$AA@ 00060e14     s_cb.obj
 0002:0000ee2c       ??_C@_0BH@NGOFHPEM@?5BAD?9CERTIFICATE?9ERROR?$AA@ 00060e2c     s_cb.obj
 0002:0000ee44       ??_C@_0CE@FFAFHDCB@?5UNSUPPORTED?9CERTIFICATE?9TYPE?9ER@ 00060e44     s_cb.obj
 0002:0000ee68       ??_C@_08BIAFPLPF@?0?5ERROR?3?$AA@ 00060e68     s_cb.obj
 0002:0000ee74       ??_C@_04CHLNEHIA@?5?$DP?$DP?$DP?$AA@ 00060e74     s_cb.obj
 0002:0000ee7c       ??_C@_07FNKFKPLJ@SSL?52?40?$AA@ 00060e7c     s_cb.obj
 0002:0000ee84       ??_C@_0BA@EOIENCOI@DTLS?51?40?5?$CIbad?$CJ?5?$AA@ 00060e84     s_cb.obj
 0002:0000ee94       ??_C@_08BKAEKDJF@SSL?53?40?5?$AA@ 00060e94     s_cb.obj
 0002:0000eea0       ??_C@_08DAKIFCJM@TLS?51?40?5?$AA@ 00060ea0     s_cb.obj
 0002:0000eeac       ??_C@_08DBGKDIKL@TLS?51?41?5?$AA@ 00060eac     s_cb.obj
 0002:0000eeb8       ??_C@_08DDCMIGPC@TLS?51?42?5?$AA@ 00060eb8     s_cb.obj
 0002:0000eec4       ??_C@_09KCHKIJJO@DTLS?51?40?5?$AA@ 00060ec4     s_cb.obj
 0002:0000eed0       ??_C@_03BBKEAIF@?$DP?$DP?$DP?$AA@ 00060ed0     s_cb.obj
 0002:0000eed4       ??_C@_03DKMEACPB@?$DM?$DM?$DM?$AA@ 00060ed4     s_cb.obj
 0002:0000eed8       ??_C@_03KBHPHMJG@?$DO?$DO?$DO?$AA@ 00060ed8     s_cb.obj
 0002:0000eedc       ??_C@_0CH@EKBLDNBP@TLS?5?$CFs?5extension?5?$CC?$CFs?$CC?5?$CIid?$DN?$CFd?$CJ?0?5l@ 00060edc     s_cb.obj
 0002:0000ef04       ??_C@_06DGDLPBAN@client?$AA@ 00060f04     s_cb.obj
 0002:0000ef0c       ??_C@_06HJHJCKIO@server?$AA@ 00060f0c     s_cb.obj
 0002:0000ef14       ??_C@_0O@BCJHNGFD@next?5protocol?$AA@ 00060f14     s_cb.obj
 0002:0000ef24       ??_C@_0BD@DNJHHIMO@renegotiation?5info?$AA@ 00060f24     s_cb.obj
 0002:0000ef38       ??_C@_0P@FBNEDOL@session?5ticket?$AA@ 00060f38     s_cb.obj
 0002:0000ef48       ??_C@_09NCPIAHOP@heartbeat?$AA@ 00060f48     s_cb.obj
 0002:0000ef54       ??_C@_08JAIGDEMG@use?5SRTP?$AA@ 00060f54     s_cb.obj
 0002:0000ef60       ??_C@_0BF@KGHOFBPF@signature?5algorithms?$AA@ 00060f60     s_cb.obj
 0002:0000ef78       ??_C@_03NCIACHCF@SRP?$AA@  00060f78     s_cb.obj
 0002:0000ef7c       ??_C@_0BB@IBCPPLLN@EC?5point?5formats?$AA@ 00060f7c     s_cb.obj
 0002:0000ef90       ??_C@_0BA@MFPLDDJN@elliptic?5curves?$AA@ 00060f90     s_cb.obj
 0002:0000efa0       ??_C@_09JHLBNFFJ@cert?5type?$AA@ 00060fa0     s_cb.obj
 0002:0000efac       ??_C@_0N@KILCEIDH@server?5authz?$AA@ 00060fac     s_cb.obj
 0002:0000efbc       ??_C@_0N@IEGIDKEC@client?5authz?$AA@ 00060fbc     s_cb.obj
 0002:0000efcc       ??_C@_0N@OPEOHEGE@user?5mapping?$AA@ 00060fcc     s_cb.obj
 0002:0000efdc       ??_C@_0P@PPLGKCPE@status?5request?$AA@ 00060fdc     s_cb.obj
 0002:0000efec       ??_C@_0P@NIEGOCFG@truncated?5HMAC?$AA@ 00060fec     s_cb.obj
 0002:0000effc       ??_C@_0BA@HMODMNEB@trusted?5CA?5keys?$AA@ 00060ffc     s_cb.obj
 0002:0000f00c       ??_C@_0BH@JCPIBHJO@client?5certificate?5URL?$AA@ 0006100c     s_cb.obj
 0002:0000f024       ??_C@_0BE@OFLKLBAC@max?5fragment?5length?$AA@ 00061024     s_cb.obj
 0002:0000f038       ??_C@_0M@JODFELCE@server?5name?$AA@ 00061038     s_cb.obj
 0002:0000f044       ??_C@_01GBGANLPD@0?$AA@    00061044     s_cb.obj
 0002:0000f048       ??_C@_0EE@NFMMAJJF@d?3?2wm653wehh?2platform?2mvv210?2src@ 00061048     s_cb.obj
 0002:0000f08c       ??_C@_0CE@FFFMHMGL@error?5setting?5random?5cookie?5secr@ 0006108c     s_cb.obj
 0002:0000f0b0       ??_C@_0CI@CMJAJOMD@unable?5to?5start?5WINSOCK?0?5error?5c@ 000610b0     s_socket.obj
 0002:0000f0d8       ??_C@_07KAIBNCHO@connect?$AA@ 000610d8     s_socket.obj
 0002:0000f0e0       ??_C@_09MGFHKHCL@keepalive?$AA@ 000610e0     s_socket.obj
 0002:0000f0ec       ??_C@_06HBELJPBO@socket?$AA@ 000610ec     s_socket.obj
 0002:0000f0f4       ??_C@_0BO@LLFMNAII@getservbyname?5failure?5for?5?$CFs?6?$AA@ 000610f4     s_socket.obj
 0002:0000f114       ??_C@_03FPEIBLKH@tcp?$AA@  00061114     s_socket.obj
 0002:0000f118       ??_C@_0CD@LJHAJJJN@gethostbyname?5addr?5is?5not?5AF_INE@ 00061118     s_socket.obj
 0002:0000f13c       ??_C@_0BH@PFCDHECA@gethostbyname?5failure?6?$AA@ 0006113c     s_socket.obj
 0002:0000f158       ??_C@_0EI@CDHPMJAM@d?3?2wm653wehh?2platform?2mvv210?2src@ 00061158     s_socket.obj
 0002:0000f1a0       ??_C@_0BD@IODBLNBJ@bad?5gethostbyaddr?6?$AA@ 000611a0     s_socket.obj
 0002:0000f1b4       ??_C@_0BB@ENCFPFEO@accept?5error?5?$CFd?6?$AA@ 000611b4     s_socket.obj
 0002:0000f1c8       ??_C@_0BE@FPJHGDHG@invalid?5IP?5address?6?$AA@ 000611c8     s_socket.obj
 0002:0000f1dc       ??_C@_0M@CDHNGIPM@?$CFu?4?$CFu?4?$CFu?4?$CFu?$AA@ 000611dc     s_socket.obj
 0002:0000f1e8       ??_C@_0BB@PAFGOIEM@no?5port?5defined?6?$AA@ 000611e8     s_socket.obj
 0002:0000f200       ??_C@_0EM@KIIGPAJP@Consider?5setting?5the?5RANDFILE?5en@ 00061200     app_rand.obj
 0002:0000f24c       ??_C@_0DO@PCEBKOHF@?8random?8?5data?5can?5be?5kept?5in?5?$CIth@ 0006124c     app_rand.obj
 0002:0000f28c       ??_C@_0BP@ICAJCDFF@unable?5to?5load?5?8random?5state?8?6?$AA@ 0006128c     app_rand.obj
 0002:0000f2b0       ??_C@_0EB@BOMNFNFB@This?5means?5that?5the?5random?5numbe@ 000612b0     app_rand.obj
 0002:0000f2f4       ??_C@_0BI@FIMGNHKG@with?5much?5random?5data?4?6?$AA@ 000612f4     app_rand.obj
 0002:0000f30c       ??_C@_0CF@GGFIHKNC@Loading?5?8screen?8?5into?5random?5sta@ 0006130c     app_rand.obj
 0002:0000f334       ??_C@_06EKCDNFLM@?5done?6?$AA@ 00061334     app_rand.obj
 0002:0000f33c       ??_C@_0CA@GJGIJFIP@unable?5to?5write?5?8random?5state?8?6?$AA@ 0006133c     app_rand.obj
 0002:0000f35c       ??_C@_0L@NLDCIC@options?3?5?5?$AA@ 0006135c     version.obj
 0002:0000f368       ??_C@_0BL@DDMOAEMH@OpenSSL?51?40?41e?511?5Feb?52013?$AA@ 00061368     version.obj
 0002:0000f384       ??_C@_0BC@CDAAJBFG@?$CFs?5?$CILibrary?3?5?$CFs?$CJ?6?$AA@ 00061384     version.obj
 0002:0000f398       ??_C@_0BK@EHBJPEFH@usage?3version?5?9?$FLavbofpd?$FN?6?$AA@ 00061398     version.obj
 0002:0000f3b4       ??_C@_02NCEOIEDG@?9o?$AA@  000613b4     version.obj
 0002:0000f3b8       ??_C@_02DIMDPHP@?9f?$AA@   000613b8     version.obj
 0002:0000f3bc       ??_C@_02GHOAPKHL@?9b?$AA@  000613bc     version.obj
 0002:0000f3c0       ??_C@_0CP@IBKOLAJP@?5?9context?5arg?5?5?5?5?9?5set?5the?5sessi@ 000613c0     sess_id.obj
 0002:0000f3f0       ??_C@_0CI@KMODPHFL@?5?9cert?5?5?5?5?5?5?5?5?5?5?5?9?5output?5certif@ 000613f0     sess_id.obj
 0002:0000f418       ??_C@_0DB@BENOOIM@?5?9text?5?5?5?5?5?5?5?5?5?5?5?9?5print?5ssl?5ses@ 00061418     sess_id.obj
 0002:0000f44c       ??_C@_0BF@BDMGAIEO@usage?3?5sess_id?5args?6?$AA@ 0006144c     sess_id.obj
 0002:0000f464       ??_C@_0BM@EEGJLEKP@unable?5to?5load?5SSL_SESSION?6?$AA@ 00061464     sess_id.obj
 0002:0000f480       ??_C@_0BG@BFGABFOE@unable?5to?5write?5X509?6?$AA@ 00061480     sess_id.obj
 0002:0000f498       ??_C@_0BN@GDLCILEA@unable?5to?5write?5SSL_SESSION?6?$AA@ 00061498     sess_id.obj
 0002:0000f4b8       ??_C@_0BI@HMDHIFAM@No?5certificate?5present?6?$AA@ 000614b8     sess_id.obj
 0002:0000f4d0       ??_C@_0BC@BDOGDMMH@Context?5too?5long?6?$AA@ 000614d0     sess_id.obj
 0002:0000f4e4       ??_C@_0BK@JKOLEECJ@?5?9tls1?5?5?5?5?5?5?5?9?5TLS1?5mode?6?$AA@ 000614e4     ciphers.obj
 0002:0000f500       ??_C@_0BK@IDOKDINN@?5?9ssl3?5?5?5?5?5?5?5?9?5SSL3?5mode?6?$AA@ 00061500     ciphers.obj
 0002:0000f51c       ??_C@_0BK@NAJKLLNN@?5?9ssl2?5?5?5?5?5?5?5?9?5SSL2?5mode?6?$AA@ 0006151c     ciphers.obj
 0002:0000f538       ??_C@_0CC@CKMNLLBF@?5?9V?5?5?5?5?5?5?5?5?5?5?9?5even?5more?5verbose@ 00061538     ciphers.obj
 0002:0000f560       ??_C@_0FC@EDMBFFLI@?5?9v?5?5?5?5?5?5?5?5?5?5?9?5verbose?5mode?0?5a?5t@ 00061560     ciphers.obj
 0002:0000f5b4       ??_C@_0BF@DCLNOKMJ@usage?3?5ciphers?5args?6?$AA@ 000615b4     ciphers.obj
 0002:0000f5cc       ??_C@_0BP@PGNJAPNJ@0x?$CF02X?00x?$CF02X?00x?$CF02X?00x?$CF02X?5?9?5?$AA@ 000615cc     ciphers.obj
 0002:0000f5ec       ??_C@_0BL@MOIFKCLN@?5?5?5?5?5?5?5?5?5?50x?$CF02X?00x?$CF02X?5?9?5?$AA@ 000615ec     ciphers.obj
 0002:0000f608       ??_C@_0BN@DGNNEJI@?5?5?5?5?50x?$CF02X?00x?$CF02X?00x?$CF02X?5?9?5?$AA@ 00061608     ciphers.obj
 0002:0000f628       ??_C@_0BG@GFGOMLEN@Error?5in?5cipher?5list?6?$AA@ 00061628     ciphers.obj
 0002:0000f640       ??_C@_02GIPFNJGC@?9?$DP?$AA@ 00061640     ciphers.obj
 0002:0000f644       ??_C@_02JNAPBCPB@?9h?$AA@  00061644     ciphers.obj
 0002:0000f648       ??_C@_02NMMKAJIM@?9V?$AA@  00061648     ciphers.obj
 0002:0000f64c       ??_C@_0CA@HCEPGOOI@Error?5reading?5sequence?5file?5?$CFs?6?$AA@ 0006164c     nseq.obj
 0002:0000f66c       ??_C@_0BN@GDMLPPDC@Error?5reading?5certs?5file?5?$CFs?6?$AA@ 0006166c     nseq.obj
 0002:0000f68c       ??_C@_0BK@FBJDPEEG@Can?8t?5open?5input?5file?5?$CFs?6?$AA@ 0006168c     nseq.obj
 0002:0000f6a8       ??_C@_0CH@PGDFEKLI@Netscape?5certificate?5sequence?5ut@ 000616a8     nseq.obj
 0002:0000f6d0       ??_C@_0BG@JGPMEDPG@Usage?5nseq?5?$FLoptions?$FN?6?$AA@ 000616d0     nseq.obj
 0002:0000f6e8       ??_C@_0BG@BNNBANGN@?9in?5file?5?5input?5file?6?$AA@ 000616e8     nseq.obj
 0002:0000f700       ??_C@_0BH@KOLPBKOB@?9out?5file?5output?5file?6?$AA@ 00061700     nseq.obj
 0002:0000f718       ??_C@_0CD@OACBOEDA@?9toseq?5?5?5?5output?5NS?5Sequence?5fil@ 00061718     nseq.obj
 0002:0000f73c       ??_C@_06EGJKJJJI@?9toseq?$AA@ 0006173c     nseq.obj
 0002:0000f744       ??_C@_0BD@KAECDLGN@?$CFs?0?5Iteration?5?$CFld?6?$AA@ 00061744     pkcs12.obj
 0002:0000f758       ??_C@_05BFHEBJNP@?$CF02X?5?$AA@ 00061758     pkcs12.obj
 0002:0000f760       ??_C@_0BK@MPHGMBPG@Unknown?5PBE?5algorithm?5?$CFs?6?$AA@ 00061760     pkcs12.obj
 0002:0000f77c       ??_C@_0BH@OLCLDMEP@PKCS7?5Encrypted?5data?3?5?$AA@ 0006177c     pkcs12.obj
 0002:0000f794       ??_C@_0M@FEODDHAO@PKCS7?5Data?6?$AA@ 00061794     pkcs12.obj
 0002:0000f7a0       ??_C@_0N@MONJBNAM@?$DMNo?5Values?$DO?6?$AA@ 000617a0     pkcs12.obj
 0002:0000f7b0       ??_C@_0BG@DDMJFAOC@?$DMUnsupported?5tag?5?$CFd?$DO?6?$AA@ 000617b0     pkcs12.obj
 0002:0000f7c8       ??_C@_02LMMGGCAJ@?3?5?$AA@ 000617c8     pkcs12.obj
 0002:0000f7cc       ??_C@_04PFOHOKJK@?5?5?5?5?$AA@ 000617cc     pkcs12.obj
 0002:0000f7d4       ??_C@_0BI@MMDINNII@?$CFs?3?5?$DMEmpty?5Attributes?$DO?6?$AA@ 000617d4     pkcs12.obj
 0002:0000f7ec       ??_C@_0BF@ODJFCMEM@?$CFs?3?5?$DMNo?5Attributes?$DO?6?$AA@ 000617ec     pkcs12.obj
 0002:0000f804       ??_C@_0CI@GPIJIPOG@Error?5outputting?5keys?5and?5certif@ 00061804     pkcs12.obj
 0002:0000f82c       ??_C@_0BB@OAOADKKO@MAC?5verified?5OK?6?$AA@ 0006182c     pkcs12.obj
 0002:0000f840       ??_C@_0CF@BNJPELDG@Mac?5verify?5error?3?5invalid?5passwo@ 00061840     pkcs12.obj
 0002:0000f868       ??_C@_0BD@BDJFHKE@MAC?5Iteration?5?$CFld?6?$AA@ 00061868     pkcs12.obj
 0002:0000f87c       ??_C@_0BH@PFJOHBMJ@Enter?5Import?5Password?3?$AA@ 0006187c     pkcs12.obj
 0002:0000f894       ??_C@_0BN@MGCEILCL@Unknown?5digest?5algorithm?5?$CFs?6?$AA@ 00061894     pkcs12.obj
 0002:0000f8b4       ??_C@_0BH@PMPIPKBA@Enter?5Export?5Password?3?$AA@ 000618b4     pkcs12.obj
 0002:0000f8cc       ??_C@_0BJ@KDCJPIJH@Error?5?$CFs?5getting?5chain?4?6?$AA@ 000618cc     pkcs12.obj
 0002:0000f8e8       ??_C@_0BJ@OGCHFJAK@Memory?5allocation?5error?6?$AA@ 000618e8     pkcs12.obj
 0002:0000f904       ??_C@_0BL@IOPJFECK@certificates?5from?5certfile?$AA@ 00061904     pkcs12.obj
 0002:0000f920       ??_C@_0CE@EJNEGNHM@No?5certificate?5matches?5private?5k@ 00061920     pkcs12.obj
 0002:0000f944       ??_C@_0M@GJDNJIDF@private?5key?$AA@ 00061944     pkcs12.obj
 0002:0000f950       ??_C@_0BA@DEHBCFDA@Nothing?5to?5do?$CB?6?$AA@ 00061950     pkcs12.obj
 0002:0000f960       ??_C@_0BE@HIEPKKLH@Enter?5MAC?5Password?3?$AA@ 00061960     pkcs12.obj
 0002:0000f974       ??_C@_08CNNAJMFD@?$DMstdout?$DO?$AA@ 00061974     pkcs12.obj
 0002:0000f980       ??_C@_0BN@KEEIMCEH@Error?5opening?5input?5file?5?$CFs?6?$AA@ 00061980     pkcs12.obj
 0002:0000f9a0       ??_C@_07CMJMHHJG@?$DMstdin?$DO?$AA@ 000619a0     pkcs12.obj
 0002:0000f9a8       ??_C@_0BJ@EOJBPBPG@Usage?3?5pkcs12?5?$FLoptions?$FN?6?$AA@ 000619a8     pkcs12.obj
 0002:0000f9c4       ??_C@_0CC@LBDPHAEI@?9export?5?5?5?5?5?5?5output?5PKCS12?5file@ 000619c4     pkcs12.obj
 0002:0000f9e8       ??_C@_0CF@NMFBPNCL@?9chain?5?5?5?5?5?5?5?5add?5certificate?5ch@ 000619e8     pkcs12.obj
 0002:0000fa10       ??_C@_0CJ@LNOIKKOG@?9inkey?5file?5?5?5private?5key?5if?5not@ 00061a10     pkcs12.obj
 0002:0000fa3c       ??_C@_0CC@NGPNOPEF@?9certfile?5f?5?5?5add?5all?5certs?5in?5f@ 00061a3c     pkcs12.obj
 0002:0000fa60       ??_C@_0CO@ECNGJAEK@?9CApath?5arg?5?5?5?9?5PEM?5format?5direc@ 00061a60     pkcs12.obj
 0002:0000fa90       ??_C@_0CJ@EHPLKMBG@?9CAfile?5arg?5?5?5?9?5PEM?5format?5file?5@ 00061a90     pkcs12.obj
 0002:0000fabc       ??_C@_0CJ@ILFFJEMM@?9name?5?$CCname?$CC?5?5use?5name?5as?5friend@ 00061abc     pkcs12.obj
 0002:0000fae8       ??_C@_0EI@BFEEPEEF@?9caname?5?$CCnm?$CC?5?5use?5nm?5as?5CA?5frien@ 00061ae8     pkcs12.obj
 0002:0000fb30       ??_C@_0BO@ODALHPME@?9in?5?5infile?5?5?5input?5filename?6?$AA@ 00061b30     pkcs12.obj
 0002:0000fb50       ??_C@_0BP@IOEMDMKJ@?9out?5outfile?5?5output?5filename?6?$AA@ 00061b50     pkcs12.obj
 0002:0000fb70       ??_C@_0DD@BIGEACMA@?9noout?5?5?5?5?5?5?5?5don?8t?5output?5anyth@ 00061b70     pkcs12.obj
 0002:0000fba4       ??_C@_0CB@OHLKNKOA@?9nomacver?5?5?5?5?5don?8t?5verify?5MAC?4?6@ 00061ba4     pkcs12.obj
 0002:0000fbc8       ??_C@_0CK@POPJHOMG@?9nocerts?5?5?5?5?5?5don?8t?5output?5certi@ 00061bc8     pkcs12.obj
 0002:0000fbf4       ??_C@_0DA@LOGCFJGA@?9clcerts?5?5?5?5?5?5only?5output?5client@ 00061bf4     pkcs12.obj
 0002:0000fc24       ??_C@_0CM@MMDFBECL@?9cacerts?5?5?5?5?5?5only?5output?5CA?5cer@ 00061c24     pkcs12.obj
 0002:0000fc50       ??_C@_0CK@OFCFGDAA@?9nokeys?5?5?5?5?5?5?5don?8t?5output?5priva@ 00061c50     pkcs12.obj
 0002:0000fc7c       ??_C@_0DC@PAFKPBCN@?9info?5?5?5?5?5?5?5?5?5give?5info?5about?5PK@ 00061c7c     pkcs12.obj
 0002:0000fcb0       ??_C@_0CN@LMKLIJPD@?9des?5?5?5?5?5?5?5?5?5?5encrypt?5private?5ke@ 00061cb0     pkcs12.obj
 0002:0000fce0       ??_C@_0DO@CHMBKJEE@?9des3?5?5?5?5?5?5?5?5?5encrypt?5private?5ke@ 00061ce0     pkcs12.obj
 0002:0000fd20       ??_C@_0CO@HAMFPCAE@?9idea?5?5?5?5?5?5?5?5?5encrypt?5private?5ke@ 00061d20     pkcs12.obj
 0002:0000fd50       ??_C@_0CO@DCDADJGF@?9seed?5?5?5?5?5?5?5?5?5encrypt?5private?5ke@ 00061d50     pkcs12.obj
 0002:0000fd80       ??_C@_0BL@GNIGBBHO@?9aes128?0?5?9aes192?0?5?9aes256?6?$AA@ 00061d80     pkcs12.obj
 0002:0000fd9c       ??_C@_0CP@EIMCGBMB@?5?5?5?5?5?5?5?5?5?5?5?5?5?5encrypt?5PEM?5output@ 00061d9c     pkcs12.obj
 0002:0000fdcc       ??_C@_0CK@JDFMNIFI@?9camellia128?0?5?9camellia192?0?5?9cam@ 00061dcc     pkcs12.obj
 0002:0000fdf8       ??_C@_0DE@GGJCOMHD@?5?5?5?5?5?5?5?5?5?5?5?5?5?5encrypt?5PEM?5output@ 00061df8     pkcs12.obj
 0002:0000fe2c       ??_C@_0CK@PGADJDJP@?9nodes?5?5?5?5?5?5?5?5don?8t?5encrypt?5priv@ 00061e2c     pkcs12.obj
 0002:0000fe58       ??_C@_0CO@OBCJOMKG@?9noiter?5?5?5?5?5?5?5don?8t?5use?5encrypti@ 00061e58     pkcs12.obj
 0002:0000fe88       ??_C@_0CH@OPLCGCPN@?9nomaciter?5?5?5?5don?8t?5use?5MAC?5iter@ 00061e88     pkcs12.obj
 0002:0000feb0       ??_C@_0CB@KFOHOFFO@?9maciter?5?5?5?5?5?5use?5MAC?5iteration?6@ 00061eb0     pkcs12.obj
 0002:0000fed4       ??_C@_0CC@HDHCBDML@?9nomac?5?5?5?5?5?5?5?5don?8t?5generate?5MAC@ 00061ed4     pkcs12.obj
 0002:0000fef8       ??_C@_0DC@EKIICEIK@?9twopass?5?5?5?5?5?5separate?5MAC?0?5encr@ 00061ef8     pkcs12.obj
 0002:0000ff30       ??_C@_0EN@LNHACHAA@?9descert?5?5?5?5?5?5encrypt?5PKCS?$CD12?5ce@ 00061f30     pkcs12.obj
 0002:0000ff80       ??_C@_0EC@FILJCIJD@?9certpbe?5alg?5?5specify?5certificat@ 00061f80     pkcs12.obj
 0002:0000ffc8       ??_C@_0EA@DJNLPGEM@?9keypbe?5alg?5?5?5specify?5private?5ke@ 00061fc8     pkcs12.obj
 0002:00010008       ??_C@_0DL@PONOKBHK@?9macalg?5alg?5?5?5digest?5algorithm?5u@ 00062008     pkcs12.obj
 0002:00010044       ??_C@_0CI@OPALPEEC@?9keyex?5?5?5?5?5?5?5?5set?5MS?5key?5exchang@ 00062044     pkcs12.obj
 0002:0001006c       ??_C@_0CJ@FCCMNHKL@?9keysig?5?5?5?5?5?5?5set?5MS?5key?5signatu@ 0006206c     pkcs12.obj
 0002:00010098       ??_C@_0DB@IFMNGNBJ@?9password?5p?5?5?5set?5import?1export?5@ 00062098     pkcs12.obj
 0002:000100cc       ??_C@_0CN@JOOHEKKK@?9passin?5p?5?5?5?5?5input?5file?5pass?5ph@ 000620cc     pkcs12.obj
 0002:000100fc       ??_C@_0CO@MGJPLKMO@?9passout?5p?5?5?5?5output?5file?5pass?5p@ 000620fc     pkcs12.obj
 0002:0001012c       ??_C@_0DJ@BHBENLLG@?9engine?5e?5?5?5?5?5use?5engine?5e?0?5poss@ 0006212c     pkcs12.obj
 0002:00010168       ??_C@_0BH@FIDOLEMP@?9rand?5file?$CFcfile?$CFc?4?4?4?6?$AA@ 00062168     pkcs12.obj
 0002:00010180       ??_C@_0EC@CLDDGGND@?5?5?5?5?5?5?5?5?5?5?5?5?5?5load?5the?5file?5?$CIor?5@ 00062180     pkcs12.obj
 0002:000101c4       ??_C@_0CL@ECMIILKP@?5?5?5?5?5?5?5?5?5?5?5?5?5?5the?5random?5number?5@ 000621c4     pkcs12.obj
 0002:000101f0       ??_C@_0CC@OFGCEONE@?9CSP?5name?5?5?5?5?5Microsoft?5CSP?5name@ 000621f0     pkcs12.obj
 0002:00010218       ??_C@_0EB@ONKLIMHB@?9LMK?5?5?5?5?5?5?5?5?5?5Add?5local?5machine?5@ 00062218     pkcs12.obj
 0002:0001025c       ??_C@_09GEFBAANH@?9password?$AA@ 0006225c     pkcs12.obj
 0002:00010268       ??_C@_07HMEFEDEN@?9caname?$AA@ 00062268     pkcs12.obj
 0002:00010270       ??_C@_04FNGMNJDJ@?9CSP?$AA@ 00062270     pkcs12.obj
 0002:00010278       ??_C@_04LKIBIMIP@?9LMK?$AA@ 00062278     pkcs12.obj
 0002:00010280       ??_C@_07OFACHDGJ@?9keypbe?$AA@ 00062280     pkcs12.obj
 0002:00010288       ??_C@_08JPPMIAEK@?9certpbe?$AA@ 00062288     pkcs12.obj
 0002:00010294       ??_C@_07OHBOPEBE@?9macalg?$AA@ 00062294     pkcs12.obj
 0002:0001029c       ??_C@_06CLOMEAMG@?9nomac?$AA@ 0006229c     pkcs12.obj
 0002:000102a4       ??_C@_0L@FOKBEJPC@?9nomaciter?$AA@ 000622a4     pkcs12.obj
 0002:000102b0       ??_C@_08KBGNDBCC@?9maciter?$AA@ 000622b0     pkcs12.obj
 0002:000102bc       ??_C@_07PJOPONGO@?9noiter?$AA@ 000622bc     pkcs12.obj
 0002:000102c4       ??_C@_07EAOALMKJ@?9export?$AA@ 000622c4     pkcs12.obj
 0002:000102cc       ??_C@_08KEJNDGKJ@?9descert?$AA@ 000622cc     pkcs12.obj
 0002:000102d8       ??_C@_09NBKGOGHA@?9nomacver?$AA@ 000622d8     pkcs12.obj
 0002:000102e4       ??_C@_08LKNCMOHA@?9twopass?$AA@ 000622e4     pkcs12.obj
 0002:000102f0       ??_C@_05BEOLBNEC@?9info?$AA@ 000622f0     pkcs12.obj
 0002:000102f8       ??_C@_08FAIDGJML@?9cacerts?$AA@ 000622f8     pkcs12.obj
 0002:00010304       ??_C@_08DBFEAIAL@?9clcerts?$AA@ 00062304     pkcs12.obj
 0002:00010310       ??_C@_08JLLJAHEH@?9nocerts?$AA@ 00062310     pkcs12.obj
 0002:0001031c       ??_C@_07MJNEFBOE@?9keysig?$AA@ 0006231c     pkcs12.obj
 0002:00010324       ??_C@_06EANFGKFK@?9keyex?$AA@ 00062324     pkcs12.obj
 0002:0001032c       ??_C@_07GHKNOFKB@?9nokeys?$AA@ 0006232c     pkcs12.obj
 0002:00010334       ??_C@_08HEHJMJPO@Key?5bag?6?$AA@ 00062334     pkcs12.obj
 0002:00010340       ??_C@_0P@HOCAFGFP@Key?5Attributes?$AA@ 00062340     pkcs12.obj
 0002:00010350       ??_C@_0BC@MEDFIEKB@Shrouded?5Keybag?3?5?$AA@ 00062350     pkcs12.obj
 0002:00010364       ??_C@_0BB@BDLCNEMN@Certificate?5bag?6?$AA@ 00062364     pkcs12.obj
 0002:00010378       ??_C@_0P@FPBPGEEB@Bag?5Attributes?$AA@ 00062378     pkcs12.obj
 0002:00010388       ??_C@_0BD@NCPLJAAJ@Safe?5Contents?5bag?6?$AA@ 00062388     pkcs12.obj
 0002:0001039c       ??_C@_0BP@KGDLJPIB@Warning?5unsupported?5bag?5type?3?5?$AA@ 0006239c     pkcs12.obj
 0002:000103bc       ??_C@_0BP@LBIMOIEF@No?5Octet?5String?5in?5PrivateKey?6?$AA@ 000623bc     pkcs8.obj
 0002:000103dc       ??_C@_0CH@NMCMHGGI@DSA?5parameters?5included?5in?5Priva@ 000623dc     pkcs8.obj
 0002:00010404       ??_C@_0CG@HBEOIPNL@DSA?5public?5key?5include?5in?5Privat@ 00062404     pkcs8.obj
 0002:0001042c       ??_C@_0CD@NIHDCDIA@DSA?5private?5key?5value?5is?5negativ@ 0006242c     pkcs8.obj
 0002:00010450       ??_C@_0BF@JLANKGEL@Unknown?5broken?5type?6?$AA@ 00062450     pkcs8.obj
 0002:00010468       ??_C@_0BP@LMNIGICG@Warning?3?5broken?5key?5encoding?3?5?$AA@ 00062468     pkcs8.obj
 0002:00010488       ??_C@_0BG@OEGPJAOF@Error?5decrypting?5key?6?$AA@ 00062488     pkcs8.obj
 0002:000104a0       ??_C@_0BA@ONILEAGC@Enter?5Password?3?$AA@ 000624a0     pkcs8.obj
 0002:000104b0       ??_C@_0BD@OCJCDIBD@Error?5reading?5key?6?$AA@ 000624b0     pkcs8.obj
 0002:000104c4       ??_C@_0BG@JEPDKHIK@Error?5encrypting?5key?6?$AA@ 000624c4     pkcs8.obj
 0002:000104dc       ??_C@_0BL@GIHLBIFN@Enter?5Encryption?5Password?3?$AA@ 000624dc     pkcs8.obj
 0002:000104f8       ??_C@_0BG@FIKEBGPH@Error?5converting?5key?6?$AA@ 000624f8     pkcs8.obj
 0002:00010510       ??_C@_03ICHNJLJF@key?$AA@  00062510     pkcs8.obj
 0002:00010514       ??_C@_0BH@PIAIABFB@Usage?5pkcs8?5?$FLoptions?$FN?6?$AA@ 00062514     pkcs8.obj
 0002:0001052c       ??_C@_0CL@OAKFLOPI@?9inform?5X?5?5?5?5?5?5?5input?5format?5?$CIDE@ 0006252c     pkcs8.obj
 0002:00010558       ??_C@_0CP@BOENDABC@?9passin?5arg?5?5?5?5?5input?5file?5pass?5@ 00062558     pkcs8.obj
 0002:00010588       ??_C@_0CM@GBGBMPHL@?9outform?5X?5?5?5?5?5?5output?5format?5?$CID@ 00062588     pkcs8.obj
 0002:000105b4       ??_C@_0DA@CAFIONIP@?9passout?5arg?5?5?5?5output?5file?5pass@ 000625b4     pkcs8.obj
 0002:000105e4       ??_C@_0CD@IPFGCCOH@?9topk8?5?5?5?5?5?5?5?5?5?5output?5PKCS8?5fil@ 000625e4     pkcs8.obj
 0002:00010608       ??_C@_0DD@ILPBKGBL@?9nooct?5?5?5?5?5?5?5?5?5?5use?5?$CInonstandard@ 00062608     pkcs8.obj
 0002:00010640       ??_C@_0EC@CBHEENHN@?9embed?5?5?5?5?5?5?5?5?5?5use?5?$CInonstandard@ 00062640     pkcs8.obj
 0002:00010684       ??_C@_0DK@KHOMOMBC@?9nsdb?5?5?5?5?5?5?5?5?5?5?5use?5?$CInonstandard@ 00062684     pkcs8.obj
 0002:000106c0       ??_C@_0CK@BOLAPIHI@?9noiter?5?5?5?5?5?5?5?5?5use?51?5as?5iterati@ 000626c0     pkcs8.obj
 0002:000106ec       ??_C@_0DH@JGODPEOL@?9nocrypt?5?5?5?5?5?5?5?5use?5or?5expect?5un@ 000626ec     pkcs8.obj
 0002:00010724       ??_C@_0DC@CGJPEEOJ@?9v2?5alg?5?5?5?5?5?5?5?5?5use?5PKCS?$CD5?5v2?40?5@ 00062724     pkcs8.obj
 0002:00010758       ??_C@_0DC@IKBNDDNF@?9v1?5obj?5?5?5?5?5?5?5?5?5use?5PKCS?$CD5?5v1?45?5@ 00062758     pkcs8.obj
 0002:0001078c       ??_C@_06CLMAMNCI@?9embed?$AA@ 0006278c     pkcs8.obj
 0002:00010794       ??_C@_05LCJCOEDD@?9nsdb?$AA@ 00062794     pkcs8.obj
 0002:0001079c       ??_C@_06IHOCNILF@?9nooct?$AA@ 0006279c     pkcs8.obj
 0002:000107a4       ??_C@_08NGDAPFMP@?9nocrypt?$AA@ 000627a4     pkcs8.obj
 0002:000107b0       ??_C@_06HPAKOPDA@?9topk8?$AA@ 000627b0     pkcs8.obj
 0002:000107b8       ??_C@_03BKMCEEFA@?9v1?$AA@ 000627b8     pkcs8.obj
 0002:000107bc       ??_C@_03DBOPBHJD@?9v2?$AA@ 000627bc     pkcs8.obj
 0002:000107c0       ??_C@_0BG@IBLBALGG@Usage?5pkey?5?$FLoptions?$FN?6?$AA@ 000627c0     pkey.obj
 0002:000107d8       ??_C@_09ICLKJGM@?9text_pub?$AA@ 000627d8     pkey.obj
 0002:000107e4       ??_C@_0BK@LMEFBHPI@Error?5reading?5parameters?6?$AA@ 000627e4     pkeyparam.obj
 0002:00010800       ??_C@_0BL@JPHIEEFF@Usage?5pkeyparam?5?$FLoptions?$FN?6?$AA@ 00062800     pkeyparam.obj
 0002:0001081c       ??_C@_0CK@JDIOBHGL@?9text?5?5?5?5?5?5?5?5?5?5?5print?5parameters@ 0006281c     pkeyparam.obj
 0002:00010848       ??_C@_0DB@CEIGEDBJ@?9noout?5?5?5?5?5?5?5?5?5?5don?8t?5output?5enc@ 00062848     pkeyparam.obj
 0002:0001087c       ??_C@_0BK@JLENEOBM@Usage?3?5pkeyutl?5?$FLoptions?$FN?6?$AA@ 0006287c     pkeyutl.obj
 0002:00010898       ??_C@_0DG@IBCACDJH@?9sigfile?5file?5signature?5file?5?$CIve@ 00062898     pkeyutl.obj
 0002:000108d0       ??_C@_0CH@FAADBJPA@?9pubin?5?5?5?5?5?5?5?5?5?5input?5is?5a?5publi@ 000628d0     pkeyutl.obj
 0002:000108f8       ??_C@_0DO@JAPLMBFL@?9certin?5?5?5?5?5?5?5?5?5input?5is?5a?5certi@ 000628f8     pkeyutl.obj
 0002:00010938       ??_C@_0CE@GFHHCJKD@?9pkeyopt?5X?3Y?5?5?5?5public?5key?5optio@ 00062938     pkeyutl.obj
 0002:0001095c       ??_C@_0DP@KIFIENFO@?9verifyrecover?5?5verify?5with?5publ@ 0006295c     pkeyutl.obj
 0002:0001099c       ??_C@_0CG@FCOAPHMM@?9derive?5?5?5?5?5?5?5?5?5derive?5shared?5se@ 0006299c     pkeyutl.obj
 0002:000109c4       ??_C@_0CE@LMDNEPBO@?9passin?5arg?5?5?5?5?5pass?5phrase?5sour@ 000629c4     pkeyutl.obj
 0002:000109e8       ??_C@_0BL@HJBIDLJN@Error?5reading?5peer?5key?5?$CFs?6?$AA@ 000629e8     pkeyutl.obj
 0002:00010a04       ??_C@_08FBPOPADM@Peer?5Key?$AA@ 00062a04     pkeyutl.obj
 0002:00010a10       ??_C@_0CA@JHCAFNJE@?9peerkey?5command?5before?5?9inkey?6?$AA@ 00062a10     pkeyutl.obj
 0002:00010a30       ??_C@_0BM@LDAIMLLF@Public?5Key?5operation?5error?6?$AA@ 00062a30     pkeyutl.obj
 0002:00010a50       ??_C@_0EH@DKOOAMOB@d?3?2wm653wehh?2platform?2mvv210?2src@ 00062a50     pkeyutl.obj
 0002:00010a98       ??_C@_0CB@PGCOBJH@Signature?5Verified?5Successfully?6@ 00062a98     pkeyutl.obj
 0002:00010abc       ??_C@_0CA@OFLOPPEO@Signature?5Verification?5Failure?6?$AA@ 00062abc     pkeyutl.obj
 0002:00010adc       ??_C@_0BO@NOBLKHIO@Error?5reading?5signature?5data?6?$AA@ 00062adc     pkeyutl.obj
 0002:00010afc       ??_C@_0BO@DBNEBIJA@Can?8t?5open?5signature?5file?5?$CFs?6?$AA@ 00062afc     pkeyutl.obj
 0002:00010b1c       ??_C@_0BM@PIIFBFAM@Error?5Creating?5Output?5File?6?$AA@ 00062b1c     pkeyutl.obj
 0002:00010b38       ??_C@_0BK@FKCLKLJA@Error?5Opening?5Input?5File?6?$AA@ 00062b38     pkeyutl.obj
 0002:00010b54       ??_C@_0CI@PCEHBCPB@No?5signature?5file?5specified?5for?5@ 00062b54     pkeyutl.obj
 0002:00010b7c       ??_C@_0CJ@OJALFBNN@Signature?5file?5specified?5for?5non@ 00062b7c     pkeyutl.obj
 0002:00010ba8       ??_C@_0CA@FNMCKPFM@?9pkeyopt?5command?5before?5?9inkey?6?$AA@ 00062ba8     pkeyutl.obj
 0002:00010bc8       ??_C@_07FCKECBCI@?9derive?$AA@ 00062bc8     pkeyutl.obj
 0002:00010bd0       ??_C@_0P@IBDPBCGD@?9verifyrecover?$AA@ 00062bd0     pkeyutl.obj
 0002:00010be0       ??_C@_09KDALHBAH@?9peerform?$AA@ 00062be0     pkeyutl.obj
 0002:00010bec       ??_C@_08JIHLOKEH@?9peerkey?$AA@ 00062bec     pkeyutl.obj
 0002:00010bf8       ??_C@_08EKFDLJMA@?9sigfile?$AA@ 00062bf8     pkeyutl.obj
 0002:00010c04       ??_C@_0BD@BAMDFGJK@Signature?5Failure?6?$AA@ 00062c04     spkac.obj
 0002:00010c18       ??_C@_0O@HCKCFADN@Signature?5OK?6?$AA@ 00062c18     spkac.obj
 0002:00010c28       ??_C@_0BF@OCDHNENN@Error?5loading?5SPKAC?6?$AA@ 00062c28     spkac.obj
 0002:00010c40       ??_C@_0BO@MAIIOCKM@Can?8t?5find?5SPKAC?5called?5?$CC?$CFs?$CC?6?$AA@ 00062c40     spkac.obj
 0002:00010c60       ??_C@_0BL@CIEPAGAL@Error?5parsing?5config?5file?6?$AA@ 00062c60     spkac.obj
 0002:00010c7c       ??_C@_0BK@FPEKCFFF@Error?5opening?5input?5file?6?$AA@ 00062c7c     spkac.obj
 0002:00010c98       ??_C@_09EBEGCOLI@SPKAC?$DN?$CFs?6?$AA@ 00062c98     spkac.obj
 0002:00010ca4       ??_C@_0BL@IMNHHODD@Error?5opening?5output?5file?6?$AA@ 00062ca4     spkac.obj
 0002:00010cc0       ??_C@_0O@PNMJCFJD@?$CFs?5?$FLoptions?$FN?6?$AA@ 00062cc0     spkac.obj
 0002:00010cd0       ??_C@_0DA@NIIHNHPD@?5?9key?5arg?5?5?5?5?5?5?5create?5SPKAC?5usi@ 00062cd0     spkac.obj
 0002:00010d00       ??_C@_0CP@PIPGIOIG@?5?9passin?5arg?5?5?5?5input?5file?5pass?5@ 00062d00     spkac.obj
 0002:00010d30       ??_C@_0CC@KLOOIEGG@?5?9challenge?5arg?5challenge?5string@ 00062d30     spkac.obj
 0002:00010d54       ??_C@_0CI@ENEBJJEN@?5?9spkac?5arg?5?5?5?5?5alternative?5SPKA@ 00062d54     spkac.obj
 0002:00010d7c       ??_C@_0CD@GABJLGDL@?5?9noout?5?5?5?5?5?5?5?5?5don?8t?5print?5SPKA@ 00062d7c     spkac.obj
 0002:00010da0       ??_C@_0CI@OGCOHJEJ@?5?9verify?5?5?5?5?5?5?5?5verify?5SPKAC?5sig@ 00062da0     spkac.obj
 0002:00010dc8       ??_C@_0DL@CGNHMMJL@?5?9engine?5e?5?5?5?5?5?5use?5engine?5e?0?5po@ 00062dc8     spkac.obj
 0002:00010e04       ??_C@_08HFIEGDMB@?9spksect?$AA@ 00062e04     spkac.obj
 0002:00010e10       ??_C@_0L@PEEDGDND@?9challenge?$AA@ 00062e10     spkac.obj
 0002:00010e1c       ??_C@_0CD@FBKFMBCI@Bad?5output?5format?5for?5PKCS?$CD7?5fil@ 00062e1c     smime.obj
 0002:00010e40       ??_C@_0N@DJHMFCKN@Subject?3?5?$CFs?6?$AA@ 00062e40     smime.obj
 0002:00010e50       ??_C@_09ONLKPOEP@From?3?5?$CFs?6?$AA@ 00062e50     smime.obj
 0002:00010e5c       ??_C@_07GJNLILOG@To?3?5?$CFs?6?$AA@ 00062e5c     smime.obj
 0002:00010e64       ??_C@_0BG@HDLEGBLC@Verification?5failure?6?$AA@ 00062e64     smime.obj
 0002:00010e7c       ??_C@_0BN@OODALNL@Error?5writing?5signers?5to?5?$CFs?6?$AA@ 00062e7c     smime.obj
 0002:00010e9c       ??_C@_0BJ@IAHNLOPG@Verification?5successful?6?$AA@ 00062e9c     smime.obj
 0002:00010eb8       ??_C@_0CD@CBBKKHHG@Error?5decrypting?5PKCS?$CD7?5structur@ 00062eb8     smime.obj
 0002:00010edc       ??_C@_0CB@JGCGHEEA@Error?5creating?5PKCS?$CD7?5structure?6@ 00062edc     smime.obj
 0002:00010f00       ??_C@_0BD@FNCKELBI@signer?5certificate?$AA@ 00062f00     smime.obj
 0002:00010f14       ??_C@_0CC@HBFGMGJF@Bad?5input?5format?5for?5PKCS?$CD7?5file@ 00062f14     smime.obj
 0002:00010f38       ??_C@_0BM@FLJFKNGF@Can?8t?5read?5content?5file?5?$CFs?6?$AA@ 00062f38     smime.obj
 0002:00010f54       ??_C@_0BO@GBKLMPDP@Error?5reading?5S?1MIME?5message?6?$AA@ 00062f54     smime.obj
 0002:00010f74       ??_C@_0BB@DELANBNN@signing?5key?5file?$AA@ 00062f74     smime.obj
 0002:00010f88       ??_C@_0BL@GABNMKLO@recipient?5certificate?5file?$AA@ 00062f88     smime.obj
 0002:00010fa4       ??_C@_0CE@FDJDGLAJ@Usage?5smime?5?$FLoptions?$FN?5cert?4pem?5?4@ 00062fa4     smime.obj
 0002:00010fc8       ??_C@_0CA@KGPHFLFP@?9encrypt?5?5?5?5?5?5?5encrypt?5message?6?$AA@ 00062fc8     smime.obj
 0002:00010fe8       ??_C@_0CK@JCHKEHGG@?9decrypt?5?5?5?5?5?5?5decrypt?5encrypted@ 00062fe8     smime.obj
 0002:00011014       ??_C@_0BN@HJPLAAFL@?9sign?5?5?5?5?5?5?5?5?5?5sign?5message?6?$AA@ 00063014     smime.obj
 0002:00011034       ??_C@_0CG@DBJPEOLC@?9verify?5?5?5?5?5?5?5?5verify?5signed?5mes@ 00063034     smime.obj
 0002:0001105c       ??_C@_0CI@BCDMICAJ@?9pk7out?5?5?5?5?5?5?5?5output?5PKCS?$CD7?5str@ 0006305c     smime.obj
 0002:00011084       ??_C@_0CI@EOKKIBBM@?9des3?5?5?5?5?5?5?5?5?5?5encrypt?5with?5trip@ 00063084     smime.obj
 0002:000110ac       ??_C@_0CB@CIKFCINJ@?9des?5?5?5?5?5?5?5?5?5?5?5encrypt?5with?5DES?6@ 000630ac     smime.obj
 0002:000110d0       ??_C@_0CC@GMBHMJIM@?9seed?5?5?5?5?5?5?5?5?5?5encrypt?5with?5SEED@ 000630d0     smime.obj
 0002:000110f4       ??_C@_0CO@GEAPCENN@?9rc2?940?5?5?5?5?5?5?5?5encrypt?5with?5RC2?9@ 000630f4     smime.obj
 0002:00011124       ??_C@_0CE@IJCAPJKJ@?9rc2?964?5?5?5?5?5?5?5?5encrypt?5with?5RC2?9@ 00063124     smime.obj
 0002:00011148       ??_C@_0CF@DDJHCDHN@?9rc2?9128?5?5?5?5?5?5?5encrypt?5with?5RC2?9@ 00063148     smime.obj
 0002:00011170       ??_C@_0DA@IEGKPLKF@?5?5?5?5?5?5?5?5?5?5?5?5?5?5?5encrypt?5PEM?5outpu@ 00063170     smime.obj
 0002:000111a0       ??_C@_0DF@GIPJKIKE@?5?5?5?5?5?5?5?5?5?5?5?5?5?5?5encrypt?5PEM?5outpu@ 000631a0     smime.obj
 0002:000111d8       ??_C@_0EA@ILDIEJIB@?9nointern?5?5?5?5?5?5don?8t?5search?5cert@ 000631d8     smime.obj
 0002:00011218       ??_C@_0CP@OGDGBBOD@?9nosigs?5?5?5?5?5?5?5?5don?8t?5verify?5mess@ 00063218     smime.obj
 0002:00011248       ??_C@_0DB@IKPMJHI@?9noverify?5?5?5?5?5?5don?8t?5verify?5sign@ 00063248     smime.obj
 0002:0001127c       ??_C@_0DP@JLIEKPEB@?9nocerts?5?5?5?5?5?5?5don?8t?5include?5sig@ 0006327c     smime.obj
 0002:000112bc       ??_C@_0CD@CMFKNHBM@?9nodetach?5?5?5?5?5?5use?5opaque?5signin@ 000632bc     smime.obj
 0002:000112e0       ??_C@_0DE@LJHNJDJA@?9noattr?5?5?5?5?5?5?5?5don?8t?5include?5any@ 000632e0     smime.obj
 0002:00011314       ??_C@_0DA@JNBHNMIH@?9binary?5?5?5?5?5?5?5?5don?8t?5translate?5m@ 00063314     smime.obj
 0002:00011344       ??_C@_0CI@PNOBKEEO@?9certfile?5file?5other?5certificate@ 00063344     smime.obj
 0002:0001136c       ??_C@_0CI@GHNNMLJK@?9signer?5file?5?5?5signer?5certificat@ 0006336c     smime.obj
 0002:00011394       ??_C@_0DK@LNEKKJPP@?9recip?5?5file?5?5?5recipient?5certifi@ 00063394     smime.obj
 0002:000113d0       ??_C@_0BL@KOGAJAKN@?9in?5file?5?5?5?5?5?5?5input?5file?6?$AA@ 000633d0     smime.obj
 0002:000113ec       ??_C@_0DJ@NMGLJIAC@?9inform?5arg?5?5?5?5input?5format?5SMIM@ 000633ec     smime.obj
 0002:00011428       ??_C@_0DP@IGNGNBHA@?9inkey?5file?5?5?5?5input?5private?5key@ 00063428     smime.obj
 0002:00011468       ??_C@_0DJ@ILJGCPGC@?9keyform?5arg?5?5?5input?5private?5key@ 00063468     smime.obj
 0002:000114a4       ??_C@_0BM@JJIAGAHD@?9out?5file?5?5?5?5?5?5output?5file?6?$AA@ 000634a4     smime.obj
 0002:000114c0       ??_C@_0DK@EOHMOJME@?9outform?5arg?5?5?5output?5format?5SMI@ 000634c0     smime.obj
 0002:00011500       ??_C@_0EC@NOADBLAP@?9content?5file?5?5supply?5or?5overrid@ 00063500     smime.obj
 0002:00011544       ??_C@_0BL@DICPIKB@?9to?5addr?5?5?5?5?5?5?5to?5address?6?$AA@ 00063544     smime.obj
 0002:00011560       ??_C@_0BN@HNOMDABA@?9from?5ad?5?5?5?5?5?5?5from?5address?6?$AA@ 00063560     smime.obj
 0002:00011580       ??_C@_0BI@BOKAEOPI@?9subject?5s?5?5?5?5?5subject?6?$AA@ 00063580     smime.obj
 0002:00011598       ??_C@_0DE@PMLHAFDG@?9text?5?5?5?5?5?5?5?5?5?5include?5or?5delete@ 00063598     smime.obj
 0002:000115cc       ??_C@_0CP@JIHEGMNP@?9CApath?5dir?5?5?5?5trusted?5certifica@ 000635cc     smime.obj
 0002:000115fc       ??_C@_0CK@IHLPFGMK@?9CAfile?5file?5?5?5trusted?5certifica@ 000635fc     smime.obj
 0002:00011628       ??_C@_0EL@MPJFONL@?9crl_check?5?5?5?5?5check?5revocation?5@ 00063628     smime.obj
 0002:00011678       ??_C@_0FB@CNLELBFF@?9crl_check_all?5check?5revocation?5@ 00063678     smime.obj
 0002:000116cc       ??_C@_0DK@GCCGEDIN@?9engine?5e?5?5?5?5?5?5use?5engine?5e?0?5pos@ 000636cc     smime.obj
 0002:00011708       ??_C@_0CO@FMBLHPDC@?9passin?5arg?5?5?5?5input?5file?5pass?5p@ 00063708     smime.obj
 0002:00011738       ??_C@_0ED@JMAEPAFB@?5?5?5?5?5?5?5?5?5?5?5?5?5?5?5load?5the?5file?5?$CIor@ 00063738     smime.obj
 0002:0001177c       ??_C@_0DI@JOMJGAON@cert?4pem?5?5?5?5?5?5?5recipient?5certifi@ 0006377c     smime.obj
 0002:000117b4       ??_C@_0CK@PMIMDKMB@No?5recipient?$CIs?$CJ?5certificate?$CIs?$CJ?5s@ 000637b4     smime.obj
 0002:000117e0       ??_C@_0CL@LLEPGLLL@No?5recipient?5certificate?5or?5key?5@ 000637e0     smime.obj
 0002:0001180c       ??_C@_0CB@OFHFPLIP@No?5signer?5certificate?5specified?6@ 0006380c     smime.obj
 0002:00011830       ??_C@_0CG@JIDLJHJP@Multiple?5signers?5or?5keys?5not?5all@ 00063830     smime.obj
 0002:00011858       ??_C@_0CA@DHJCDGB@Illegal?5?9inkey?5without?5?9signer?6?$AA@ 00063858     smime.obj
 0002:00011878       ??_C@_0BD@MLPNFPFM@Unknown?5digest?5?$CFs?6?$AA@ 00063878     smime.obj
 0002:0001188c       ??_C@_08HCJMGADN@?9content?$AA@ 0006388c     smime.obj
 0002:00011898       ??_C@_06JKGLPNJO@?9recip?$AA@ 00063898     smime.obj
 0002:000118a0       ??_C@_07KJCLPKOH@?9signer?$AA@ 000638a0     smime.obj
 0002:000118a8       ??_C@_05LBJDDLLJ@?9from?$AA@ 000638a8     smime.obj
 0002:000118b0       ??_C@_03DNHOOAOE@?9to?$AA@ 000638b0     smime.obj
 0002:000118b4       ??_C@_08KAKEAKLE@?9crlfeol?$AA@ 000638b4     smime.obj
 0002:000118c0       ??_C@_0L@DMDFODFL@?9nooldmime?$AA@ 000638c0     smime.obj
 0002:000118cc       ??_C@_08BCNBDCCA@?9noindef?$AA@ 000638cc     smime.obj
 0002:000118d8       ??_C@_06MPPEKNN@?9indef?$AA@ 000638d8     smime.obj
 0002:000118e0       ??_C@_07KDDBNCBD@?9stream?$AA@ 000638e0     smime.obj
 0002:000118e8       ??_C@_07GLFDAICA@?9nosigs?$AA@ 000638e8     smime.obj
 0002:000118f0       ??_C@_0M@BGBFCGLM@?9nosmimecap?$AA@ 000638f0     smime.obj
 0002:000118fc       ??_C@_09HEABEDGI@?9nodetach?$AA@ 000638fc     smime.obj
 0002:00011908       ??_C@_07NEHLGPOI@?9noattr?$AA@ 00063908     smime.obj
 0002:00011910       ??_C@_08MKBHGHLI@?9nochain?$AA@ 00063910     smime.obj
 0002:0001191c       ??_C@_09LLMNCLPN@?9nointern?$AA@ 0006391c     smime.obj
 0002:00011928       ??_C@_07BPEMBNDH@?9rc2?964?$AA@ 00063928     smime.obj
 0002:00011930       ??_C@_08DGGHBBOC@?9rc2?9128?$AA@ 00063930     smime.obj
 0002:0001193c       ??_C@_07HIKEAMFN@?9rc2?940?$AA@ 0006393c     smime.obj
 0002:00011944       ??_C@_07BPNIONCJ@?9pk7out?$AA@ 00063944     smime.obj
 0002:0001194c       ??_C@_07JFNKLBOA@?9resign?$AA@ 0006394c     smime.obj
 0002:00011954       ??_C@_0BA@HFOKKJKB@?5?5Receipts?5To?3?6?$AA@ 00063954     cms.obj
 0002:00011964       ??_C@_0P@IJCNGMMK@?5Unknown?5?$CI?$CFd?$CJ?6?$AA@ 00063964     cms.obj
 0002:00011974       ??_C@_06MGGNDMCH@?3?5All?6?$AA@ 00063974     cms.obj
 0002:0001197c       ??_C@_0O@GOHGOJFE@?3?5First?5Tier?6?$AA@ 0006397c     cms.obj
 0002:0001198c       ??_C@_07EGMHCGEH@?5List?3?6?$AA@ 0006398c     cms.obj
 0002:00011994       ??_C@_0BG@MNKLBEL@?5?5Signed?5Content?5ID?3?6?$AA@ 00063994     cms.obj
 0002:000119ac       ??_C@_0BA@INHCPDDK@?5?5Receipts?5From?$AA@ 000639ac     cms.obj
 0002:000119bc       ??_C@_0BP@IENJKCMB@?5?5Receipt?5Request?5Parse?5Error?6?$AA@ 000639bc     cms.obj
 0002:000119dc       ??_C@_0BG@GPEAHINO@?5?5No?5Receipt?5Request?6?$AA@ 000639dc     cms.obj
 0002:000119f4       ??_C@_0M@MJOKHOOJ@Signer?5?$CFd?3?6?$AA@ 000639f4     cms.obj
 0002:00011a00       ??_C@_0CA@EMDFFBCC@Bad?5output?5format?5for?5CMS?5file?6?$AA@ 00063a00     cms.obj
 0002:00011a20       ??_C@_0CA@OLLBKEFE@Error?5decrypting?5CMS?5structure?6?$AA@ 00063a20     cms.obj
 0002:00011a40       ??_C@_0CF@MGDLJCKG@Error?5decrypting?5CMS?5using?5passw@ 00063a40     cms.obj
 0002:00011a68       ??_C@_0CI@DPKBFGIK@Error?5decrypting?5CMS?5using?5priva@ 00063a68     cms.obj
 0002:00011a90       ??_C@_0CH@ELBFIHKK@Error?5decrypting?5CMS?5using?5secre@ 00063a90     cms.obj
 0002:00011ab8       ??_C@_0BO@JOIMJPPK@Error?5creating?5CMS?5structure?6?$AA@ 00063ab8     cms.obj
 0002:00011ad8       ??_C@_0CH@DLNBHHKH@Signed?5Receipt?5Request?5Creation?5@ 00063ad8     cms.obj
 0002:00011b00       ??_C@_0BO@FKJGLJL@Bad?5input?5format?5for?5receipt?6?$AA@ 00063b00     cms.obj
 0002:00011b20       ??_C@_0BH@JMCDABG@Error?5reading?5receipt?6?$AA@ 00063b20     cms.obj
 0002:00011b38       ??_C@_0BM@OJPDJDBN@Can?8t?5open?5receipt?5file?5?$CFs?6?$AA@ 00063b38     cms.obj
 0002:00011b54       ??_C@_0BP@PKFBHPHI@Bad?5input?5format?5for?5CMS?5file?6?$AA@ 00063b54     cms.obj
 0002:00011b74       ??_C@_0BL@HKKLEOHM@Error?5writing?5certs?5to?5?$CFs?6?$AA@ 00063b74     cms.obj
 0002:00011b90       ??_C@_0CA@IABCEFLO@receipt?5signer?5certificate?5file?$AA@ 00063b90     cms.obj
 0002:00011bb0       ??_C@_0BC@OLCHLHPB@No?5secret?5key?5id?6?$AA@ 00063bb0     cms.obj
 0002:00011bc4       ??_C@_0CC@JOICAPMG@Usage?5cms?5?$FLoptions?$FN?5cert?4pem?5?4?4?4@ 00063bc4     cms.obj
 0002:00011be8       ??_C@_0CF@IGGOHCKF@?9cmsout?5?5?5?5?5?5?5?5output?5CMS?5struct@ 00063be8     cms.obj
 0002:00011c10       ??_C@_0CI@GGEHAABP@?9certsout?5file?5certificate?5outpu@ 00063c10     cms.obj
 0002:00011c38       ??_C@_0CL@IOHIFDOI@?9keyid?5?5?5?5?5?5?5?5?5use?5subject?5key?5i@ 00063c38     cms.obj
 0002:00011c64       ??_C@_0CJ@KCIOHNGD@Signed?5receipts?5only?5allowed?5wit@ 00063c64     cms.obj
 0002:00011c90       ??_C@_0BP@IDBOPNLA@No?5Signed?5Receipts?5Recipients?6?$AA@ 00063c90     cms.obj
 0002:00011cb0       ??_C@_0BA@JNGKKDLH@Invalid?5OID?5?$CFs?6?$AA@ 00063cb0     cms.obj
 0002:00011cc0       ??_C@_0P@ICPOFKNH@Invalid?5id?5?$CFs?6?$AA@ 00063cc0     cms.obj
 0002:00011cd0       ??_C@_0BA@FAKPIIIA@Invalid?5key?5?$CFs?6?$AA@ 00063cd0     cms.obj
 0002:00011ce0       ??_C@_08FMMBMNIL@?9rctform?$AA@ 00063ce0     cms.obj
 0002:00011cec       ??_C@_09HECJOJIB@?9certsout?$AA@ 00063cec     cms.obj
 0002:00011cf8       ??_C@_0P@CABCOKCI@?9econtent_type?$AA@ 00063cf8     cms.obj
 0002:00011d08       ??_C@_0P@BIHPAMDO@?9pwri_password?$AA@ 00063d08     cms.obj
 0002:00011d18       ??_C@_0N@HBGGEDPB@?9secretkeyid?$AA@ 00063d18     cms.obj
 0002:00011d28       ??_C@_0L@PPMEHDHJ@?9secretkey?$AA@ 00063d28     cms.obj
 0002:00011d34       ??_C@_0BE@DCFLMMEP@?9receipt_request_to?$AA@ 00063d34     cms.obj
 0002:00011d48       ??_C@_0BG@MOLIDNFN@?9receipt_request_from?$AA@ 00063d48     cms.obj
 0002:00011d60       ??_C@_0BH@PNLMIOCN@?9receipt_request_first?$AA@ 00063d60     cms.obj
 0002:00011d78       ??_C@_0BF@EKJIDKJC@?9receipt_request_all?$AA@ 00063d78     cms.obj
 0002:00011d90       ??_C@_0BH@KMOFCJIF@?9receipt_request_print?$AA@ 00063d90     cms.obj
 0002:00011da8       ??_C@_0BA@KGCICCLN@?9no_attr_verify?$AA@ 00063da8     cms.obj
 0002:00011db8       ??_C@_0BD@MMHMBDO@?9no_content_verify?$AA@ 00063db8     cms.obj
 0002:00011dcc       ??_C@_06KPLIMOGD@?9keyid?$AA@ 00063dcc     cms.obj
 0002:00011dd4       ??_C@_0BH@MMNEOADL@?9no_signer_cert_verify?$AA@ 00063dd4     cms.obj
 0002:00011dec       ??_C@_0P@IGEOHMJB@?9debug_decrypt?$AA@ 00063dec     cms.obj
 0002:00011dfc       ??_C@_0BH@EHAJEEJE@?9EncryptedData_encrypt?$AA@ 00063dfc     cms.obj
 0002:00011e14       ??_C@_0BH@IJKEBAPA@?9EncryptedData_decrypt?$AA@ 00063e14     cms.obj
 0002:00011e2c       ??_C@_0M@BCMGEOME@?9uncompress?$AA@ 00063e2c     cms.obj
 0002:00011e38       ??_C@_09PGPPHINJ@?9compress?$AA@ 00063e38     cms.obj
 0002:00011e44       ??_C@_0P@GEAAFPFM@?9digest_create?$AA@ 00063e44     cms.obj
 0002:00011e54       ??_C@_0P@KBJEJHCI@?9digest_verify?$AA@ 00063e54     cms.obj
 0002:00011e64       ??_C@_0N@ODOFBAJB@?9data_create?$AA@ 00063e64     cms.obj
 0002:00011e74       ??_C@_09KAPIOOKF@?9data_out?$AA@ 00063e74     cms.obj
 0002:00011e80       ??_C@_07DCMEHGOO@?9cmsout?$AA@ 00063e80     cms.obj
 0002:00011e88       ??_C@_0BA@OAKJJNAB@?9verify_receipt?$AA@ 00063e88     cms.obj
 0002:00011e98       ??_C@_0BA@BMKHCNOC@?9verify_retcode?$AA@ 00063e98     cms.obj
 0002:00011ea8       ??_C@_0O@EMPAONPK@?9sign_receipt?$AA@ 00063ea8     cms.obj
 0002:00011eb8       ??_C@_0BL@IANAEACK@Usage?3?5rand?5?$FLoptions?$FN?5num?6?$AA@ 00063eb8     rand.obj
 0002:00011ed4       ??_C@_0CH@OPFGEEJC@?9out?5file?5?5?5?5?5?5?5?5?5?5?5?5?5?9?5write?5to@ 00063ed4     rand.obj
 0002:00011f00       ??_C@_0ED@MFPDJDLD@?9engine?5e?5?5?5?5?5?5?5?5?5?5?5?5?5?9?5use?5engi@ 00063f00     rand.obj
 0002:00011f44       ??_C@_0CO@LLFOPNBE@?9rand?5file?$CFcfile?$CFc?4?4?4?5?9?5seed?5PRN@ 00063f44     rand.obj
 0002:00011f74       ??_C@_0CO@PPFLGDON@?9base64?5?5?5?5?5?5?5?5?5?5?5?5?5?5?5?9?5base64?5e@ 00063f74     rand.obj
 0002:00011fa4       ??_C@_0CL@BBEFHDEG@?9hex?5?5?5?5?5?5?5?5?5?5?5?5?5?5?5?5?5?5?9?5hex?5enco@ 00063fa4     rand.obj
 0002:00011fd4       ??_C@_0CA@PHHAOAAH@?5argument?5?$CC?1lib?1libdriver?4so?$CC?4?6?$AA@ 00063fd4     engine.obj
 0002:00011ff8       ??_C@_0EG@PIDNHCOE@?5Eg?4?5?8?9pre?5?$CCSO_PATH?3?1lib?1libdriv@ 00063ff8     engine.obj
 0002:00012040       ??_C@_0DI@HIOHJPKP@?5line?0?5or?5all?5supported?5ENGINEs?5@ 00064040     engine.obj
 0002:00012078       ??_C@_0EM@OEFBFBJF@?5NB?3?5?9pre?5and?5?9post?5will?5be?5appl@ 00064078     engine.obj
 0002:000120c4       ??_C@_0DD@FMINHHIC@?5?5?5?5?5?5?5?5?5?5?5?5?5?5?5?$CIonly?5used?5if?5?9t?5@ 000640c4     engine.obj
 0002:000120f8       ??_C@_0EH@PBCIGEHG@?5?9post?5?$DMcmd?$DO?5?9?5runs?5command?5?8cmd@ 000640f8     engine.obj
 0002:00012140       ??_C@_0CL@GJBLAHLL@?5?5?5?5?5?5?5?5?5?5?5?5?5?5?5to?5load?5it?5?$CIif?5?9t@ 00064140     engine.obj
 0002:00012170       ??_C@_0EK@PLLCEOFA@?5?9pre?5?$DMcmd?$DO?5?5?9?5runs?5command?5?8cmd@ 00064170     engine.obj
 0002:000121c0       ??_C@_0EF@MIKDKENC@?5?5?5?5?5?5?5?5?5?5?5?5?5?5?5?9tt?5will?5display?5@ 000641c0     engine.obj
 0002:00012208       ??_C@_0EG@KCIGLAOK@?5?9t?$FLt?$FN?5?5?5?5?5?5?5?9?5for?5each?5engine?0?5@ 00064208     engine.obj
 0002:00012250       ??_C@_0DM@HHPDALF@?5?9c?5?5?5?5?5?5?5?5?5?5?9?5for?5each?5engine?0?5@ 00064250     engine.obj
 0002:0001228c       ??_C@_0DK@EIMIKGBM@?5?5?5?5?5?5?5?5?5?5?5?5?5?5?5?9vvvv?5will?5also?5s@ 0006428c     engine.obj
 0002:000122c8       ??_C@_0EE@HDMNLMNH@?5?5?5?5?5?5?5?5?5?5?5?5?5?5?5?9vvv?5will?5also?5ad@ 000642c8     engine.obj
 0002:00012310       ??_C@_0EJ@ENDAEJDM@?5?5?5?5?5?5?5?5?5?5?5?5?5?5?5?9vv?5will?5addition@ 00064310     engine.obj
 0002:00012360       ??_C@_0EL@HNILKGAK@?5?9v?$FLv?$FLv?$FLv?$FN?$FN?$FN?5?9?5verbose?5mode?0?5for@ 00064360     engine.obj
 0002:000123ac       ??_C@_0CB@CIFJBFDD@usage?3?5engine?5opts?5?$FLengine?5?4?4?4?$FN?6@ 000643ac     engine.obj
 0002:000123d0       ??_C@_0EG@HMEEPLOE@d?3?2wm653wehh?2platform?2mvv210?2src@ 000643d0     engine.obj
 0002:00012418       ??_C@_0BD@JDIIEJIA@?5?5?$DMillegal?5flags?$CB?$DO?$AA@ 00064418     engine.obj
 0002:0001242c       ??_C@_08CBNKDCCG@?$DM0x?$CF04X?$DO?$AA@ 0006442c     engine.obj
 0002:00012438       ??_C@_08JKLPLMPO@NO_INPUT?$AA@ 00064438     engine.obj
 0002:00012444       ??_C@_06IGECGLFO@STRING?$AA@ 00064444     engine.obj
 0002:0001244c       ??_C@_01DNKMNLPK@?$HM?$AA@ 0006444c     engine.obj
 0002:00012450       ??_C@_07DBOJJFHC@NUMERIC?$AA@ 00064450     engine.obj
 0002:00012458       ??_C@_0M@PDOHMIBC@?$FLInternal?$FN?5?$AA@ 00064458     engine.obj
 0002:00012464       ??_C@_0M@CKAOPFBI@?$DMno?5flags?$DO?6?$AA@ 00064464     engine.obj
 0002:00012470       ??_C@_0BE@MLPGEACJ@?$CFs?$CFs?$CIinput?5flags?$CJ?3?5?$AA@ 00064470     engine.obj
 0002:00012484       ??_C@_07KJFPOMFC@?$CFs?3?5?$CFs?6?$AA@ 00064484     engine.obj
 0002:0001248c       ??_C@_0BB@OCIBKIEO@?$DMno?5description?$DO?$AA@ 0006448c     engine.obj
 0002:000124a0       ??_C@_0CA@IHGFPMBA@?$FLError?$FN?3?5command?5name?5too?5long?6?$AA@ 000644a0     engine.obj
 0002:000124c0       ??_C@_0P@LGMCLKEJ@?$FLFailure?$FN?3?5?$CFs?6?$AA@ 000644c0     engine.obj
 0002:000124d0       ??_C@_0P@NDKDJFKE@?$FLSuccess?$FN?3?5?$CFs?6?$AA@ 000644d0     engine.obj
 0002:000124e0       ??_C@_0BP@NDDLPGNC@?$FLError?$FN?3?5internal?5stack?5error?6?$AA@ 000644e0     engine.obj
 0002:00012500       ??_C@_0BB@KCPHCALN@?$FL?5unavailable?5?$FN?6?$AA@ 00064500     engine.obj
 0002:00012514       ??_C@_0P@LLPNMFJD@?$FL?5available?5?$FN?6?$AA@ 00064514     engine.obj
 0002:00012524       ??_C@_06CFEHBLEG@?5?$FL?$CFs?$FN?6?$AA@ 00064524     engine.obj
 0002:0001252c       ??_C@_04LGLHIBNK@RAND?$AA@ 0006452c     engine.obj
 0002:00012534       ??_C@_02EPINMGPM@DH?$AA@   00064534     engine.obj
 0002:00012538       ??_C@_03ENFFABCE@DSA?$AA@  00064538     engine.obj
 0002:0001253c       ??_C@_03DICHAJGH@RSA?$AA@  0006453c     engine.obj
 0002:00012540       ??_C@_0BB@BFKIMFFL@Loaded?3?5?$CI?$CFs?$CJ?5?$CFs?6?$AA@ 00064540     engine.obj
 0002:00012554       ??_C@_08JGBPHHBL@?$CI?$CFs?$CJ?5?$CFs?6?$AA@ 00064554     engine.obj
 0002:00012560       ??_C@_05IFKLLJBC@?5?5?5?5?5?$AA@ 00064560     engine.obj
 0002:00012568       ??_C@_05HCHMCFNF@?9post?$AA@ 00064568     engine.obj
 0002:00012570       ??_C@_04CEEMGABH@?9pre?$AA@ 00064570     engine.obj
 0002:00012578       ??_C@_01PFHFFBPC@t?$AA@    00064578     engine.obj
 0002:0001257c       ??_C@_02HLHIEPKM@?9t?$AA@  0006457c     engine.obj
 0002:00012580       ??_C@_01MHEDDDHA@v?$AA@    00064580     engine.obj
 0002:00012584       ??_C@_0BN@MMIPCALN@Error?5Creating?5OCSP?5request?6?$AA@ 00064584     ocsp.obj
 0002:000125a4       ??_C@_0CB@JNPJAML@No?5issuer?5certificate?5specified?6@ 000645a4     ocsp.obj
 0002:000125c8       ??_C@_0CD@IKFOILEE@Error?5converting?5serial?5number?5?$CF@ 000645c8     ocsp.obj
 0002:000125ec       ??_C@_0BD@DMDALECK@?7Revocation?5Time?3?5?$AA@ 000645ec     ocsp.obj
 0002:00012600       ??_C@_0N@PMAADCMN@?7Reason?3?5?$CFs?6?$AA@ 00064600     ocsp.obj
 0002:00012610       ??_C@_0P@HAFGNBJK@?7Next?5Update?3?5?$AA@ 00064610     ocsp.obj
 0002:00012620       ??_C@_0P@DNHJODAD@?7This?5Update?3?5?$AA@ 00064620     ocsp.obj
 0002:00012630       ??_C@_0CA@DNKDGAHH@WARNING?3?5Status?5times?5invalid?4?6?$AA@ 00064630     ocsp.obj
 0002:00012650       ??_C@_0BJ@LPNEOKFE@ERROR?3?5No?5Status?5found?4?6?$AA@ 00064650     ocsp.obj
 0002:0001266c       ??_C@_02LAJDHPIK@bn?$AA@   0006466c     ocsp.obj
 0002:00012670       ??_C@_0EE@JMPKDAGP@d?3?2wm653wehh?2platform?2mvv210?2src@ 00064670     ocsp.obj
 0002:000126b4       ??_C@_0BN@JCIIHNNJ@Error?5setting?5up?5accept?5BIO?6?$AA@ 000646b4     ocsp.obj
 0002:000126d4       ??_C@_0BM@PMPMHLFP@Error?5parsing?5OCSP?5request?6?$AA@ 000646d4     ocsp.obj
 0002:000126f0       ??_C@_0BB@HOFEPKDI@Invalid?5request?6?$AA@ 000646f0     ocsp.obj
 0002:00012704       ??_C@_04HCJEIHPL@POST?$AA@ 00064704     ocsp.obj
 0002:0001270c       ??_C@_0BM@IEKEMBLP@Error?5accepting?5connection?6?$AA@ 0006470c     ocsp.obj
 0002:00012728       ??_C@_0FB@KMPEPAFE@HTTP?11?40?5200?5OK?$AN?6Content?9type?3?5a@ 00064728     ocsp.obj
 0002:0001277c       ??_C@_0BM@IPHCCFPM@Unexpected?5retry?5condition?6?$AA@ 0006477c     ocsp.obj
 0002:00012798       ??_C@_0O@NGGJJKPK@Select?5error?6?$AA@ 00064798     ocsp.obj
 0002:000127a8       ??_C@_0BE@EOAIFGEO@Timeout?5on?5request?6?$AA@ 000647a8     ocsp.obj
 0002:000127bc       ??_C@_0BE@MMONFFFE@Timeout?5on?5connect?6?$AA@ 000647bc     ocsp.obj
 0002:000127d0       ??_C@_0BJ@CEHELOEH@Can?8t?5get?5connection?5fd?6?$AA@ 000647d0     ocsp.obj
 0002:000127ec       ??_C@_0BG@NPALLMJK@Error?5connecting?5BIO?6?$AA@ 000647ec     ocsp.obj
 0002:00012804       ??_C@_0CA@BNALDLIG@Error?5querying?5OCSP?5responsder?6?$AA@ 00064804     ocsp.obj
 0002:00012824       ??_C@_0BN@PGIOOPMD@Error?5creating?5SSL?5context?4?6?$AA@ 00064824     ocsp.obj
 0002:00012844       ??_C@_0BM@NGBIEMH@Error?5creating?5connect?5BIO?6?$AA@ 00064844     ocsp.obj
 0002:00012860       ??_C@_0BE@IPGNFEH@Response?5verify?5OK?6?$AA@ 00064860     ocsp.obj
 0002:00012874       ??_C@_0BJ@NAHMIEJA@Response?5Verify?5Failure?6?$AA@ 00064874     ocsp.obj
 0002:00012890       ??_C@_0BE@GFKGMJDE@Nonce?5Verify?5error?6?$AA@ 00064890     ocsp.obj
 0002:000128a4       ??_C@_0BP@EPMDAAOO@WARNING?3?5no?5nonce?5in?5response?6?$AA@ 000648a4     ocsp.obj
 0002:000128c4       ??_C@_0BI@PGOKDFIG@Error?5parsing?5response?6?$AA@ 000648c4     ocsp.obj
 0002:000128dc       ??_C@_0BG@PJEOBFCK@validator?5certificate?$AA@ 000648dc     ocsp.obj
 0002:000128f4       ??_C@_0BN@HGCCGJOP@Error?5reading?5OCSP?5response?6?$AA@ 000648f4     ocsp.obj
 0002:00012914       ??_C@_0CC@KKCKPJLO@Error?5Opening?5OCSP?5response?5file@ 00064914     ocsp.obj
 0002:00012938       ??_C@_0DO@FPJCEGPN@Need?5a?5responder?5certificate?0?5ke@ 00064938     ocsp.obj
 0002:00012978       ??_C@_0BH@DEKMPDPP@Error?5opening?5file?5?$CFs?6?$AA@ 00064978     ocsp.obj
 0002:00012990       ??_C@_0BM@PFDAPGG@Error?5signing?5OCSP?5request?6?$AA@ 00064990     ocsp.obj
 0002:000129ac       ??_C@_0CC@EDBKMCMB@Error?5loading?5signer?5certificate@ 000649ac     ocsp.obj
 0002:000129d0       ??_C@_0CK@IHKNJONP@Need?5an?5OCSP?5request?5for?5this?5op@ 000649d0     ocsp.obj
 0002:000129fc       ??_C@_0BK@FEOAPJNF@Responder?5Error?3?5?$CFs?5?$CI?$CFd?$CJ?6?$AA@ 000649fc     ocsp.obj
 0002:00012a18       ??_C@_0BD@IPMCPHAL@signer?5private?5key?$AA@ 00064a18     ocsp.obj
 0002:00012a2c       ??_C@_0BE@BHCDJICI@signer?5certificates?$AA@ 00064a2c     ocsp.obj
 0002:00012a40       ??_C@_0CI@DICJHPJD@Waiting?5for?5OCSP?5client?5connecti@ 00064a40     ocsp.obj
 0002:00012a68       ??_C@_0BG@IONLEAGC@responder?5private?5key?$AA@ 00064a68     ocsp.obj
 0002:00012a80       ??_C@_0BN@KIHLODNM@responder?5other?5certificates?$AA@ 00064a80     ocsp.obj
 0002:00012aa0       ??_C@_0CF@JABBMOMP@Error?5loading?5responder?5certific@ 00064aa0     ocsp.obj
 0002:00012ac8       ??_C@_0BG@FMDDPMHB@responder?5certificate?$AA@ 00064ac8     ocsp.obj
 0002:00012ae0       ??_C@_0BM@NGEGOAMK@Error?5reading?5OCSP?5request?6?$AA@ 00064ae0     ocsp.obj
 0002:00012afc       ??_C@_0CB@IKGMJOPA@Error?5Opening?5OCSP?5request?5file?6@ 00064afc     ocsp.obj
 0002:00012b20       ??_C@_0O@GHKOCIBH@OCSP?5utility?6?$AA@ 00064b20     ocsp.obj
 0002:00012b30       ??_C@_0BG@DPBAODHH@Usage?5ocsp?5?$FLoptions?$FN?6?$AA@ 00064b30     ocsp.obj
 0002:00012b48       ??_C@_0CE@BCHHIPCL@?9out?5file?5?5?5?5?5?5?5?5?5?5output?5filena@ 00064b48     ocsp.obj
 0002:00012b6c       ??_C@_0CH@EBJGGBKA@?9issuer?5file?5?5?5?5?5?5?5issuer?5certif@ 00064b6c     ocsp.obj
 0002:00012b94       ??_C@_0CJ@EEKKPJOM@?9cert?5file?5?5?5?5?5?5?5?5?5certificate?5t@ 00064b94     ocsp.obj
 0002:00012bc0       ??_C@_0CL@IDHANJFE@?9serial?5n?5?5?5?5?5?5?5?5?5?5serial?5number@ 00064bc0     ocsp.obj
 0002:00012bec       ??_C@_0DK@MOBAMKPA@?9signer?5file?5?5?5?5?5?5?5certificate?5t@ 00064bec     ocsp.obj
 0002:00012c28       ??_C@_0DK@PDINCKDO@?9signkey?5file?5?5?5?5?5?5private?5key?5t@ 00064c28     ocsp.obj
 0002:00012c68       ??_C@_0EJ@FBJMCOLM@?9sign_other?5file?5?5?5additional?5ce@ 00064c68     ocsp.obj
 0002:00012cb8       ??_C@_0EF@NPKCBKGD@?9no_certs?5?5?5?5?5?5?5?5?5?5don?8t?5include@ 00064cb8     ocsp.obj
 0002:00012d00       ??_C@_0CP@IIDFELLM@?9req_text?5?5?5?5?5?5?5?5?5?5print?5text?5fo@ 00064d00     ocsp.obj
 0002:00012d30       ??_C@_0DA@NEGCNBOP@?9resp_text?5?5?5?5?5?5?5?5?5print?5text?5fo@ 00064d30     ocsp.obj
 0002:00012d60       ??_C@_0DM@OFBMODJA@?9text?5?5?5?5?5?5?5?5?5?5?5?5?5?5print?5text?5fo@ 00064d60     ocsp.obj
 0002:00012d9c       ??_C@_0DN@FLFFFDH@?9reqout?5file?5?5?5?5?5?5?5write?5DER?5enc@ 00064d9c     ocsp.obj
 0002:00012ddc       ??_C@_0DN@JKFFOGIG@?9respout?5file?5?5?5?5?5?5write?5DER?5enc@ 00064ddc     ocsp.obj
 0002:00012e1c       ??_C@_0DO@NOKGNIKM@?9reqin?5file?5?5?5?5?5?5?5?5read?5DER?5enco@ 00064e1c     ocsp.obj
 0002:00012e5c       ??_C@_0DO@KPCJCJDN@?9respin?5file?5?5?5?5?5?5?5read?5DER?5enco@ 00064e5c     ocsp.obj
 0002:00012e9c       ??_C@_0CO@FKFFIEOJ@?9nonce?5?5?5?5?5?5?5?5?5?5?5?5?5add?5OCSP?5nonc@ 00064e9c     ocsp.obj
 0002:00012ecc       ??_C@_0DE@CNOPMPBN@?9no_nonce?5?5?5?5?5?5?5?5?5?5don?8t?5add?5OCS@ 00064ecc     ocsp.obj
 0002:00012f00       ??_C@_0CH@PELKDNN@?9url?5URL?5?5?5?5?5?5?5?5?5?5?5OCSP?5responde@ 00064f00     ocsp.obj
 0002:00012f28       ??_C@_0DI@MOHPFHNI@?9host?5host?3n?5?5?5?5?5?5?5send?5OCSP?5req@ 00064f28     ocsp.obj
 0002:00012f60       ??_C@_0DA@BKDMCJBK@?9path?5?5?5?5?5?5?5?5?5?5?5?5?5?5path?5to?5use?5i@ 00064f60     ocsp.obj
 0002:00012f90       ??_C@_0DD@NBPDJIBD@?9CApath?5dir?5?5?5?5?5?5?5?5trusted?5certi@ 00064f90     ocsp.obj
 0002:00012fc4       ??_C@_0CO@HLKJKKHO@?9CAfile?5file?5?5?5?5?5?5?5trusted?5certi@ 00064fc4     ocsp.obj
 0002:00012ff4       ??_C@_0DA@BHHIOOGE@?9VAfile?5file?5?5?5?5?5?5?5validator?5cer@ 00064ff4     ocsp.obj
 0002:00013024       ??_C@_0DM@HABCPGJD@?9validity_period?5n?5maximum?5valid@ 00065024     ocsp.obj
 0002:00013060       ??_C@_0DC@DIOILMDE@?9status_age?5n?5?5?5?5?5?5maximum?5statu@ 00065060     ocsp.obj
 0002:00013094       ??_C@_0DB@JNIIJEKO@?9noverify?5?5?5?5?5?5?5?5?5?5don?8t?5verify?5@ 00065094     ocsp.obj
 0002:000130c8       ??_C@_0EB@MDMCJKDD@?9verify_other?5file?5additional?5ce@ 000650c8     ocsp.obj
 0002:0001310c       ??_C@_0DJ@KENCGKEK@?9trust_other?5?5?5?5?5?5?5don?8t?5verify?5@ 0006510c     ocsp.obj
 0002:00013148       ??_C@_0EP@PFLJFHHE@?9no_intern?5?5?5?5?5?5?5?5?5don?8t?5search?5@ 00065148     ocsp.obj
 0002:00013198       ??_C@_0DI@PEGHJBAJ@?9no_signature_verify?5don?8t?5check@ 00065198     ocsp.obj
 0002:000131d0       ??_C@_0DE@CKPPJMFE@?9no_cert_verify?5?5?5?5don?8t?5check?5s@ 000651d0     ocsp.obj
 0002:00013204       ??_C@_0DA@EKKEOEII@?9no_chain?5?5?5?5?5?5?5?5?5?5don?8t?5chain?5v@ 00065204     ocsp.obj
 0002:00013238       ??_C@_0EG@ODKKCKGJ@?9no_cert_checks?5?5?5?5don?8t?5do?5addi@ 00065238     ocsp.obj
 0002:00013280       ??_C@_0CG@NKMNEKEN@?9port?5num?7?7?5port?5to?5run?5responde@ 00065280     ocsp.obj
 0002:000132a8       ??_C@_0CM@IOEDIKDL@?9index?5file?7?5certificate?5status?5@ 000652a8     ocsp.obj
 0002:000132d4       ??_C@_0BL@HNMONPGP@?9CA?5file?7?7?5CA?5certificate?6?$AA@ 000652d4     ocsp.obj
 0002:000132f0       ??_C@_0DN@MNKJMKI@?9rsigner?5file?7?5responder?5certifi@ 000652f0     ocsp.obj
 0002:00013330       ??_C@_0DC@DODAJDEI@?9rkey?5file?7?5responder?5key?5to?5sig@ 00065330     ocsp.obj
 0002:00013364       ??_C@_0DJ@CBDHHEBE@?9rother?5file?7?5other?5certificates@ 00065364     ocsp.obj
 0002:000133a0       ??_C@_0DP@PBOFPFMF@?9resp_no_certs?5?5?5?5?5don?8t?5include@ 000653a0     ocsp.obj
 0002:000133e0       ??_C@_0DB@CPBLDIHE@?9nmin?5n?7?5?7?5number?5of?5minutes?5bef@ 000653e0     ocsp.obj
 0002:00013414       ??_C@_0CP@MMBOBHDG@?9ndays?5n?7?5?7?5number?5of?5days?5befor@ 00065414     ocsp.obj
 0002:00013448       ??_C@_0ED@KNAELJCC@?9resp_key_id?5?5?5?5?5?5?5identify?5repo@ 00065448     ocsp.obj
 0002:00013490       ??_C@_0EF@JKDEGPDE@?9nrequest?5n?5?5?5?5?5?5?5?5number?5of?5req@ 00065490     ocsp.obj
 0002:000134d8       ??_C@_0DF@KEEMMNJL@?9?$DMdgst?5alg?$DO?5?5?5?5?5use?5specified?5di@ 000654d8     ocsp.obj
 0002:00013510       ??_C@_07NLCOKAMA@?9rother?$AA@ 00065510     ocsp.obj
 0002:00013518       ??_C@_05CKNLEAGN@?9rkey?$AA@ 00065518     ocsp.obj
 0002:00013520       ??_C@_08NFLILFLO@?9rsigner?$AA@ 00065520     ocsp.obj
 0002:0001352c       ??_C@_06EOBNCOPG@?9ndays?$AA@ 0006552c     ocsp.obj
 0002:00013534       ??_C@_0BJ@JHIGBDKO@Illegal?5accept?5count?5?$CFs?6?$AA@ 00065534     ocsp.obj
 0002:00013550       ??_C@_09OFNMGMGB@?9nrequest?$AA@ 00065550     ocsp.obj
 0002:0001355c       ??_C@_0BK@GPEKJOIP@Illegal?5update?5period?5?$CFs?6?$AA@ 0006555c     ocsp.obj
 0002:00013578       ??_C@_05KGDJBIMA@?9nmin?$AA@ 00065578     ocsp.obj
 0002:00013580       ??_C@_06NILOHFAC@?9index?$AA@ 00065580     ocsp.obj
 0002:00013588       ??_C@_0BD@NHPOFJGA@issuer?5certificate?$AA@ 00065588     ocsp.obj
 0002:0001359c       ??_C@_05HBJLBJDO@?9path?$AA@ 0006559c     ocsp.obj
 0002:000135a4       ??_C@_08FDPLBFLG@?9respout?$AA@ 000655a4     ocsp.obj
 0002:000135b0       ??_C@_07GFPODAJJ@?9reqout?$AA@ 000655b0     ocsp.obj
 0002:000135b8       ??_C@_0BJ@ODLCHJHI@Illegal?5validity?5age?5?$CFs?6?$AA@ 000655b8     ocsp.obj
 0002:000135d4       ??_C@_0M@KGPJPCMD@?9status_age?$AA@ 000655d4     ocsp.obj
 0002:000135e0       ??_C@_0BM@FKODFKGC@Illegal?5validity?5period?5?$CFs?6?$AA@ 000655e0     ocsp.obj
 0002:000135fc       ??_C@_0BB@EOGPDMHI@?9validity_period?$AA@ 000655fc     ocsp.obj
 0002:00013610       ??_C@_0O@GEAKCPGK@?9verify_other?$AA@ 00065610     ocsp.obj
 0002:00013620       ??_C@_0M@DIAPAJKH@?9sign_other?$AA@ 00065620     ocsp.obj
 0002:0001362c       ??_C@_07HFLEMFJH@?9VAfile?$AA@ 0006562c     ocsp.obj
 0002:00013634       ??_C@_07LCFFIEPP@?9respin?$AA@ 00065634     ocsp.obj
 0002:0001363c       ??_C@_06LEDKFNFF@?9reqin?$AA@ 0006563c     ocsp.obj
 0002:00013644       ??_C@_0L@BPEMCFND@?9resp_text?$AA@ 00065644     ocsp.obj
 0002:00013650       ??_C@_09EGFEPPPM@?9req_text?$AA@ 00065650     ocsp.obj
 0002:0001365c       ??_C@_0L@JJPDMLCK@?9no_intern?$AA@ 0006565c     ocsp.obj
 0002:00013668       ??_C@_0N@PJGFECGE@?9trust_other?$AA@ 00065668     ocsp.obj
 0002:00013678       ??_C@_0N@FHCMCJD@?9no_explicit?$AA@ 00065678     ocsp.obj
 0002:00013688       ??_C@_0BA@JNFNNOHM@?9no_cert_checks?$AA@ 00065688     ocsp.obj
 0002:00013698       ??_C@_09PGOBAJAO@?9no_chain?$AA@ 00065698     ocsp.obj
 0002:000136a4       ??_C@_0BA@FLGPKOOE@?9no_cert_verify?$AA@ 000656a4     ocsp.obj
 0002:000136b4       ??_C@_0BF@DDJBKKP@?9no_signature_verify?$AA@ 000656b4     ocsp.obj
 0002:000136cc       ??_C@_09KHEPGJPB@?9no_certs?$AA@ 000656cc     ocsp.obj
 0002:000136d8       ??_C@_0N@HMEDOOHD@?9resp_key_id?$AA@ 000656d8     ocsp.obj
 0002:000136e8       ??_C@_0P@KAEKAEAF@?9resp_no_certs?$AA@ 000656e8     ocsp.obj
 0002:000136f8       ??_C@_09EOFPIKIL@?9no_nonce?$AA@ 000656f8     ocsp.obj
 0002:00013704       ??_C@_06GMIHJMMA@?9nonce?$AA@ 00065704     ocsp.obj
 0002:0001370c       ??_C@_0M@FIHFBLJJ@?9ignore_err?$AA@ 0006570c     ocsp.obj
 0002:00013718       ??_C@_07FLMNOHGM@?9header?$AA@ 00065718     ocsp.obj
 0002:00013720       ??_C@_04MCFACLGM@?9url?$AA@ 00065720     ocsp.obj
 0002:00013728       ??_C@_0BK@GCHABJGB@Illegal?5timeout?5value?5?$CFs?6?$AA@ 00065728     ocsp.obj
 0002:00013744       ??_C@_0N@HHDFGFOO@?5is?5?$CFsprime?6?$AA@ 00065744     prime.obj
 0002:00013754       ??_C@_04LKOGMCLF@not?5?$AA@ 00065754     prime.obj
 0002:0001375c       ??_C@_0BO@OCGJBDGA@Specifiy?5the?5number?5of?5bits?4?6?$AA@ 0006575c     prime.obj
 0002:0001377c       ??_C@_0L@DOEGEJKP@?$CF?914s?5hex?6?$AA@ 0006577c     prime.obj
 0002:00013788       ??_C@_0M@DNJFMGLC@?9checks?5?$DMn?$DO?$AA@ 00065788     prime.obj
 0002:00013794       ??_C@_0BI@KOKHAHLD@?$CF?914s?5number?5of?5checks?6?$AA@ 00065794     prime.obj
 0002:000137ac       ??_C@_0BE@KFPKNCFA@No?5prime?5specified?6?$AA@ 000657ac     prime.obj
 0002:000137c0       ??_C@_0BF@DKEEOPFF@Unknown?5option?5?8?$CFs?8?6?$AA@ 000657c0     prime.obj
 0002:000137d8       ??_C@_07JOIGCCHK@?9checks?$AA@ 000657d8     prime.obj
 0002:000137e0       ??_C@_05JMDHGKLN@?9safe?$AA@ 000657e0     prime.obj
 0002:000137e8       ??_C@_05HDJDOKJ@?9bits?$AA@ 000657e8     prime.obj
 0002:000137f0       ??_C@_09MOJFIIKN@?9generate?$AA@ 000657f0     prime.obj
 0002:000137fc       ??_C@_0BK@FNHFJPIO@cannot?5convert?5?$CFs?5to?5OID?6?$AA@ 000657fc     ts.obj
 0002:00013818       ??_C@_0CI@GKJPONPL@bad?5digest?0?5?$CFd?5bytes?5must?5be?5spe@ 00065818     ts.obj
 0002:00013840       ??_C@_0EC@BBMDIMMD@d?3?2wm653wehh?2platform?2mvv210?2src@ 00065840     ts.obj
 0002:00013884       ??_C@_0BI@FECAGFBO@could?5not?5create?5nonce?6?$AA@ 00065884     ts.obj
 0002:000138a0       ??_C@_0EF@LGJIOGOJ@Warning?3?5could?5not?5open?5file?5?$CFs?5@ 000658a0     ts.obj
 0002:000138e8       ??_C@_0CE@BDGKPNBC@could?5not?5save?5serial?5number?5to?5@ 000658e8     ts.obj
 0002:0001390c       ??_C@_0BI@ONLCPDDL@could?5not?5create?5query?6?$AA@ 0006590c     ts.obj
 0002:00013924       ??_C@_0CH@IKKNJBOJ@Error?5during?5serial?5number?5gener@ 00065924     ts.obj
 0002:0001394c       ??_C@_0BL@NEBNLEOC@memory?5allocation?5failure?6?$AA@ 0006594c     ts.obj
 0002:00013968       ??_C@_0BH@DIIACFIB@invalid?5digest?5string?6?$AA@ 00065968     ts.obj
 0002:00013980       ??_C@_0BM@IBMCAENB@Response?5is?5not?5generated?4?6?$AA@ 00065980     ts.obj
 0002:0001399c       ??_C@_0BO@CJJOIHDP@Response?5has?5been?5generated?4?6?$AA@ 0006599c     ts.obj
 0002:000139bc       ??_C@_07DLBBOEE@FAILED?6?$AA@ 000659bc     ts.obj
 0002:000139c4       ??_C@_0P@EEGBFCKN@Verification?3?5?$AA@ 000659c4     ts.obj
 0002:000139d8       ??_C@_0OM@CGNAACOE@usage?3?6ts?5?9query?5?$FL?9rand?5file?$CFcfi@ 000659d8     ts.obj
 0002:00013ac8       ??_C@_0BBH@JKDHADME@or?6ts?5?9reply?5?$FL?9config?5configfile@ 00065ac8     ts.obj
 0002:00013be0       ??_C@_0KO@KIDMHDIF@or?6ts?5?9verify?5?$FL?9data?5file_to_has@ 00065be0     ts.obj
 0002:00013c90       ??_C@_0BJ@MCGLDCN@Error?5getting?5password?4?6?$AA@ 00065c90     ts.obj
 0002:00013cac       ??_C@_0L@LMAFEAOJ@?9queryfile?$AA@ 00065cac     ts.obj
 0002:00013cb8       ??_C@_06PMOHMEN@?9reply?$AA@ 00065cb8     ts.obj
 0002:00013cc0       ??_C@_0L@DJGPPNH@?9token_out?$AA@ 00065cc0     ts.obj
 0002:00013ccc       ??_C@_09NKMONJIP@?9token_in?$AA@ 00065ccc     ts.obj
 0002:00013cd8       ??_C@_07JCKCKHOC@?9digest?$AA@ 00065cd8     ts.obj
 0002:00013ce0       ??_C@_05DFDJJDDF@?9data?$AA@ 00065ce0     ts.obj
 0002:00013ce8       ??_C@_06JIMFLALG@?9query?$AA@ 00065ce8     ts.obj
 0002:00013cf0       ??_C@_08ONPADCNC@?9section?$AA@ 00065cf0     ts.obj
 0002:00013d00       ??_C@_0EA@KMOKHMNB@?5?9engine?5e?5?5?5?5?5?5?5?5?5?9?5use?5engine?5@ 00065d00     srp.obj
 0002:00013d40       ??_C@_0DF@BFCABBLK@?5?9userinfo?5arg?5?5?5additional?5info@ 00065d40     srp.obj
 0002:00013d78       ??_C@_0DN@MPMJFEDE@?5?9gn?5arg?5?5?5?5?5?5?5?5?5g?5and?5N?5values?5@ 00065d78     srp.obj
 0002:00013db8       ??_C@_0BM@MDIIBAOA@?5?9list?5?5?5?5?5?5?5?5?5?5?5list?5user?6?$AA@ 00065db8     srp.obj
 0002:00013dd4       ??_C@_0DB@KMBAENMD@?5?9delete?5?5?5?5?5?5?5?5?5delete?5user?5fro@ 00065dd4     srp.obj
 0002:00013e08       ??_C@_0DO@DGONFHIF@?5?9modify?5?5?5?5?5?5?5?5?5modify?5the?5srp?5@ 00065e08     srp.obj
 0002:00013e48       ??_C@_0CP@ENHKBOPP@?5?9add?5?5?5?5?5?5?5?5?5?5?5?5add?5an?5user?5and@ 00065e48     srp.obj
 0002:00013e78       ??_C@_0CN@LIGOFOII@?5?9srpvfile?5arg?5?5?5The?5srp?5verifie@ 00065e78     srp.obj
 0002:00013ea8       ??_C@_0DH@HJDEJFFD@?5?9name?5arg?5?5?5?5?5?5?5The?5particular?5@ 00065ea8     srp.obj
 0002:00013ee0       ??_C@_0CA@BMBDPPOE@?5?9config?5file?5?5?5?5A?5config?5file?6?$AA@ 00065ee0     srp.obj
 0002:00013f00       ??_C@_0CP@CPMGHJFL@?5?9verbose?5?5?5?5?5?5?5?5Talk?5alot?5while@ 00065f00     srp.obj
 0002:00013f30       ??_C@_0BL@JPDDAPOA@usage?3?5srp?5?$FLargs?$FN?5?$FLuser?$FN?5?6?$AA@ 00065f30     srp.obj
 0002:00013f4c       ??_C@_0N@NMGOCCED@?5?5?$CFd?5?$DN?5?$CC?$CFs?$CC?6?$AA@ 00065f4c     srp.obj
 0002:00013f5c       ??_C@_08MHBLPCGN@?$CFs?5?$CC?$CFs?$CC?6?$AA@ 00065f5c     srp.obj
 0002:00013f68       ??_C@_09GNPLPNOP@g?5N?5entry?$AA@ 00065f68     srp.obj
 0002:00013f74       ??_C@_0L@IEDNHEPL@User?5entry?$AA@ 00065f74     srp.obj
 0002:00013f80       ??_C@_0BL@FOEHPNDP@failed?5to?5update?5srpvfile?6?$AA@ 00065f80     srp.obj
 0002:00013fa0       ??_C@_0ED@DPFJBHOI@d?3?2wm653wehh?2platform?2mvv210?2src@ 00065fa0     srp.obj
 0002:00013fe4       ??_C@_0CI@CPLJHLIA@Internal?5error?5validating?5SRP?5ve@ 00065fe4     srp.obj
 0002:0001400c       ??_C@_08NNKGPBFA@Pass?5?$CFs?6?$AA@ 0006600c     srp.obj
 0002:00014018       ??_C@_0EP@EANMHLPF@Validating?6?5?5?5user?$DN?$CC?$CFs?$CC?6?5srp_ver@ 00066018     srp.obj
 0002:00014068       ??_C@_0CE@MDMDGKEC@gNid?$DN?$CFs?5salt?5?$DN?$CC?$CFs?$CC?6?5verifier?5?$DN?$CC?$CF@ 00066068     srp.obj
 0002:0001408c       ??_C@_0CG@DAKAEKAC@Internal?5error?5creating?5SRP?5veri@ 0006608c     srp.obj
 0002:000140b4       ??_C@_0CF@LNPAIMHK@Creating?6?5user?$DN?$CC?$CFs?$CC?6?5g?$DN?$CC?$CFs?$CC?6?5N?$DN?$CC@ 000660b4     srp.obj
 0002:000140dc       ??_C@_0BP@HIIPPFDL@SRP?5terminating?5with?5code?5?$CFd?4?6?$AA@ 000660dc     srp.obj
 0002:000140fc       ??_C@_0BB@JBBICPAO@User?5errors?5?$CFd?4?6?$AA@ 000660fc     srp.obj
 0002:00014110       ??_C@_0EA@MJPDKFAD@Cannot?5create?5srp?5verifier?5for?5u@ 00066110     srp.obj
 0002:00014150       ??_C@_0DG@LNJNJBF@Invalid?5password?5for?5user?5?$CC?$CFs?$CC?0?5@ 00066150     srp.obj
 0002:00014188       ??_C@_0EB@LMLENDJK@Cannot?5create?5srp?5verifier?5for?5u@ 00066188     srp.obj
 0002:000141cc       ??_C@_0BD@BOEBNMJP@srpvfile?5updated?4?6?$AA@ 000661cc     srp.obj
 0002:000141e0       ??_C@_0BN@IICNICGI@Temporary?5srpvfile?5created?4?6?$AA@ 000661e0     srp.obj
 0002:00014200       ??_C@_0BM@LIGKEPIM@Trying?5to?5update?5srpvfile?4?6?$AA@ 00066200     srp.obj
 0002:0001421c       ??_C@_0BH@MOLHBHNM@User?5procession?5done?4?6?$AA@ 0006621c     srp.obj
 0002:00014234       ??_C@_0BG@MPHFNMEP@user?5?$CC?$CFs?$CC?5revoked?4?5t?6?$AA@ 00066234     srp.obj
 0002:0001424c       ??_C@_0DA@MJKEIMHB@user?5?$CC?$CFs?$CC?5does?5not?5exist?0?5operat@ 0006624c     srp.obj
 0002:0001427c       ??_C@_0BM@DKMHDOBC@Password?5for?5user?5?$CC?$CFs?$CC?5ok?4?6?$AA@ 0006627c     srp.obj
 0002:00014298       ??_C@_0CC@FHMKAKHG@Verifying?5password?5for?5user?5?$CC?$CFs?$CC@ 00066298     srp.obj
 0002:000142bc       ??_C@_0CP@FOKAEHPP@user?5?$CC?$CFs?$CC?5already?5updated?0?5opera@ 000662bc     srp.obj
 0002:000142ec       ??_C@_0CO@PDCLFPKK@user?5?$CC?$CFs?$CC?5does?5not?5exist?0?5operat@ 000662ec     srp.obj
 0002:0001431c       ??_C@_0BI@OPAIHJMA@user?5?$CC?$CFs?$CC?5reactivated?4?6?$AA@ 0006631c     srp.obj
 0002:00014334       ??_C@_0CG@OEOGKCBC@user?5?$CC?$CFs?$CC?5does?5not?5exist?0?5ignore@ 00066334     srp.obj
 0002:0001435c       ??_C@_0BA@EMNMALMK@List?5all?5users?6?$AA@ 0006635c     srp.obj
 0002:0001436c       ??_C@_0BG@OHPDKOHH@Processing?5user?5?$CC?$CFs?$CC?6?$AA@ 0006636c     srp.obj
 0002:00014384       ??_C@_0BK@KKOKEAJM@Starting?5user?5processing?6?$AA@ 00066384     srp.obj
 0002:000143a0       ??_C@_0CC@MNJPNEHG@Database?5has?5no?5g?5N?5information?4@ 000663a0     srp.obj
 0002:000143c4       ??_C@_0CB@KOEHJMPK@No?5g?5and?5N?5value?5for?5index?5?$CC?$CFs?$CC?6@ 000663c4     srp.obj
 0002:000143e8       ??_C@_0BA@LGHGKGHD@Default?5g?5and?5N?$AA@ 000663e8     srp.obj
 0002:000143f8       ??_C@_0BG@EIENBPNB@Database?5initialised?6?$AA@ 000663f8     srp.obj
 0002:00014410       ??_C@_0CH@PEHEPCB@Trying?5to?5read?5SRP?5verifier?5file@ 00066410     srp.obj
 0002:00014438       ??_C@_08GKFCLJJ@srpvfile?$AA@ 00066438     srp.obj
 0002:00014444       ??_C@_0CJ@DFCDNHLM@trying?5to?5read?5srpvfile?5in?5secti@ 00066444     srp.obj
 0002:00014470       ??_C@_0M@JKIKNBFP@default_srp?$AA@ 00066470     srp.obj
 0002:0001447c       ??_C@_03NPHLOKFJ@srp?$AA@  0006647c     srp.obj
 0002:00014480       ??_C@_0DA@OMHJOFDK@trying?5to?5read?5default_srp?5in?5?$CC?5@ 00066480     srp.obj
 0002:000144b0       ??_C@_0DH@LLEICDLD@?9passin?0?5?9passout?5arguments?5only@ 000664b0     srp.obj
 0002:000144e8       ??_C@_0DN@NLEHJIDG@Need?5at?5least?5one?5user?5for?5optio@ 000664e8     srp.obj
 0002:00014528       ??_C@_0EM@PMPNEKPN@Exactly?5one?5of?5the?5options?5?9add?0@ 00066528     srp.obj
 0002:00014574       ??_C@_0DH@LMDLHAMI@?9dbfile?5and?5?9configfile?5cannot?5b@ 00066574     srp.obj
 0002:000145ac       ??_C@_09EALNJFHO@?9userinfo?$AA@ 000665ac     srp.obj
 0002:000145b8       ??_C@_03DKAFMMIM@?9gn?$AA@ 000665b8     srp.obj
 0002:000145bc       ??_C@_05PCAHAAIK@?9list?$AA@ 000665bc     srp.obj
 0002:000145c4       ??_C@_07HDFGNLJC@?9modify?$AA@ 000665c4     srp.obj
 0002:000145cc       ??_C@_07MECGGDBN@?9delete?$AA@ 000665cc     srp.obj
 0002:000145d4       ??_C@_04MNFJLOGO@?9add?$AA@ 000665d4     srp.obj
 0002:000145dc       ??_C@_09ECHHPLBP@cast5?9ofb?$AA@ 000665dc     openssl.obj
 0002:000145e8       ??_C@_09IKBEEKH@cast5?9cfb?$AA@ 000665e8     openssl.obj
 0002:000145f4       ??_C@_09CLABNJJA@cast5?9ecb?$AA@ 000665f4     openssl.obj
 0002:00014600       ??_C@_09BGLDNNDK@cast5?9cbc?$AA@ 00066600     openssl.obj
 0002:0001460c       ??_C@_06OBJCCDFN@bf?9ofb?$AA@ 0006660c     openssl.obj
 0002:00014614       ??_C@_06KLEEJMOF@bf?9cfb?$AA@ 00066614     openssl.obj
 0002:0001461c       ??_C@_06IIOEABNC@bf?9ecb?$AA@ 0006661c     openssl.obj
 0002:00014624       ??_C@_0L@CHEFJHBP@rc2?940?9cbc?$AA@ 00066624     openssl.obj
 0002:00014630       ??_C@_0L@CLELMECA@rc2?964?9cbc?$AA@ 00066630     openssl.obj
 0002:0001463c       ??_C@_07MGMBPEPC@rc2?9ofb?$AA@ 0006663c     openssl.obj
 0002:00014644       ??_C@_07IMBHELEK@rc2?9cfb?$AA@ 00066644     openssl.obj
 0002:0001464c       ??_C@_07KPLHNGHN@rc2?9ecb?$AA@ 0006664c     openssl.obj
 0002:00014654       ??_C@_08EDLNCGMH@seed?9ofb?$AA@ 00066654     openssl.obj
 0002:00014660       ??_C@_08JGLJJHP@seed?9cfb?$AA@ 00066660     openssl.obj
 0002:0001466c       ??_C@_08CKMLAEEI@seed?9ecb?$AA@ 0006666c     openssl.obj
 0002:00014678       ??_C@_08OGDEHPAF@idea?9ofb?$AA@ 00066678     openssl.obj
 0002:00014684       ??_C@_08KMOCMALN@idea?9cfb?$AA@ 00066684     openssl.obj
 0002:00014690       ??_C@_08IPECFNIK@idea?9ecb?$AA@ 00066690     openssl.obj
 0002:0001469c       ??_C@_0N@LODGAID@des?9ede3?9ofb?$AA@ 0006669c     openssl.obj
 0002:000146ac       ??_C@_0M@BOHDOFGF@des?9ede?9ofb?$AA@ 000666ac     openssl.obj
 0002:000146b8       ??_C@_07NLMBCAKN@des?9ofb?$AA@ 000666b8     openssl.obj
 0002:000146c0       ??_C@_0N@EBDFNPDL@des?9ede3?9cfb?$AA@ 000666c0     openssl.obj
 0002:000146d0       ??_C@_0M@FEKFFKNN@des?9ede?9cfb?$AA@ 000666d0     openssl.obj
 0002:000146dc       ??_C@_07JBBHJPBF@des?9cfb?$AA@ 000666dc     openssl.obj
 0002:000146e4       ??_C@_0N@FPCHEGKG@des?9ede3?9cbc?$AA@ 000666e4     openssl.obj
 0002:000146f4       ??_C@_0M@EKLHMDEA@des?9ede?9cbc?$AA@ 000666f4     openssl.obj
 0002:00014700       ??_C@_07PILJICGA@des?9ede?$AA@ 00066700     openssl.obj
 0002:00014708       ??_C@_07LCLHACCC@des?9ecb?$AA@ 00066708     openssl.obj
 0002:00014710       ??_C@_06GNNJIOGN@rc4?940?$AA@ 00066710     openssl.obj
 0002:00014718       ??_C@_04OIMGPLKJ@desx?$AA@ 00066718     openssl.obj
 0002:00014720       ??_C@_04PLELGNGH@des3?$AA@ 00066720     openssl.obj
 0002:00014728       ??_C@_0BB@CPHIICMD@camellia?9256?9ecb?$AA@ 00066728     openssl.obj
 0002:0001473c       ??_C@_0BB@PNMGKNEC@camellia?9192?9ecb?$AA@ 0006673c     openssl.obj
 0002:00014750       ??_C@_0BB@FOFKNKNO@camellia?9128?9ecb?$AA@ 00066750     openssl.obj
 0002:00014764       ??_C@_0M@LPPNNCHP@aes?9256?9ecb?$AA@ 00066764     openssl.obj
 0002:00014770       ??_C@_0M@GNEDPNPO@aes?9192?9ecb?$AA@ 00066770     openssl.obj
 0002:0001477c       ??_C@_0M@MONPIKGC@aes?9128?9ecb?$AA@ 0006677c     openssl.obj
 0002:00014788       ??_C@_02FHFEMMFE@ts?$AA@   00066788     openssl.obj
 0002:0001478c       ??_C@_05NIKGJPCK@prime?$AA@ 0006678c     openssl.obj
 0002:00014794       ??_C@_04HCKEBPGM@ocsp?$AA@ 00066794     openssl.obj
 0002:0001479c       ??_C@_06LOBMEHPF@engine?$AA@ 0006679c     openssl.obj
 0002:000147a4       ??_C@_04HKINGDKC@rand?$AA@ 000667a4     openssl.obj
 0002:000147ac       ??_C@_05LMICONNH@smime?$AA@ 000667ac     openssl.obj
 0002:000147b4       ??_C@_05NBLLCIIN@spkac?$AA@ 000667b4     openssl.obj
 0002:000147bc       ??_C@_07NFJGABMH@pkeyutl?$AA@ 000667bc     openssl.obj
 0002:000147c4       ??_C@_09CCPBLJJJ@pkeyparam?$AA@ 000667c4     openssl.obj
 0002:000147d0       ??_C@_04JMMJFDFL@pkey?$AA@ 000667d0     openssl.obj
 0002:000147d8       ??_C@_05MDEGCHNO@pkcs8?$AA@ 000667d8     openssl.obj
 0002:000147e0       ??_C@_04BOGNIPMA@nseq?$AA@ 000667e0     openssl.obj
 0002:000147e8       ??_C@_07CHGICOIP@ciphers?$AA@ 000667e8     openssl.obj
 0002:000147f0       ??_C@_07IHLBHBCP@sess_id?$AA@ 000667f0     openssl.obj
 0002:000147f8       ??_C@_09EKKLKHGL@crl2pkcs7?$AA@ 000667f8     openssl.obj
 0002:00014804       ??_C@_03LDDFAKEI@cms?$AA@  00066804     openssl.obj
 0002:00014808       ??_C@_05EENODLBB@pkcs7?$AA@ 00066808     openssl.obj
 0002:00014810       ??_C@_07CPCPJPKL@version?$AA@ 00066810     openssl.obj
 0002:00014818       ??_C@_06FADCGJAC@s_time?$AA@ 00066818     openssl.obj
 0002:00014820       ??_C@_05HJCMGBKF@speed?$AA@ 00066820     openssl.obj
 0002:00014828       ??_C@_08IHGCEKH@s_client?$AA@ 00066828     openssl.obj
 0002:00014834       ??_C@_08EHDEPPCE@s_server?$AA@ 00066834     openssl.obj
 0002:00014840       ??_C@_07OJHNPOF@genpkey?$AA@ 00066840     openssl.obj
 0002:00014848       ??_C@_06MMKMOJJE@gendsa?$AA@ 00066848     openssl.obj
 0002:00014850       ??_C@_06LJNOOBNH@genrsa?$AA@ 00066850     openssl.obj
 0002:00014858       ??_C@_04BNGFMDFF@x509?$AA@ 00066858     openssl.obj
 0002:00014860       ??_C@_07EPIIFHOH@ecparam?$AA@ 00066860     openssl.obj
 0002:00014868       ??_C@_02HCBHEC@ec?$AA@     00066868     openssl.obj
 0002:0001486c       ??_C@_08OAGHGFAN@dsaparam?$AA@ 0006686c     openssl.obj
 0002:00014878       ??_C@_06PGNBHEJI@rsautl?$AA@ 00066878     openssl.obj
 0002:00014880       ??_C@_03GJBFOAJL@crl?$AA@  00066880     openssl.obj
 0002:00014884       ??_C@_06EJJOIICM@errstr?$AA@ 00066884     openssl.obj
 0002:0001488c       ??_C@_05DDBNJLOA@gendh?$AA@ 0006688c     openssl.obj
 0002:00014894       ??_C@_06NKIEGJEO@passwd?$AA@ 00066894     openssl.obj
 0002:0001489c       ??_C@_07IBCFADID@dhparam?$AA@ 0006689c     openssl.obj
 0002:000148a4       ??_C@_02OCEEKELO@dh?$AA@   000668a4     openssl.obj
 0002:000148a8       ??_C@_04OOHKHMCO@dgst?$AA@ 000668a8     openssl.obj
 0002:000148b0       ??_C@_09HAGJHI@asn1parse?$AA@ 000668b0     openssl.obj
 0002:000148bc       ??_C@_0DH@MDGCFGCO@openssl?5?$CIlock_dbg_cb?$CJ?3?5?$CFs?5?$CImode?$DN@ 000668bc     openssl.obj
 0002:000148f4       ??_C@_0BD@EEHOPEAJ@type?5out?5of?5bounds?$AA@ 000668f4     openssl.obj
 0002:00014908       ??_C@_0BN@LHOFANHL@CRYPTO_w_unlock?5on?5read?5lock?$AA@ 00066908     openssl.obj
 0002:00014928       ??_C@_0BO@MEMMBFGL@CRYPTO_r_unlock?5on?5write?5lock?$AA@ 00066928     openssl.obj
 0002:00014948       ??_C@_0L@CKIDBNLG@not?5locked?$AA@ 00066948     openssl.obj
 0002:00014954       ??_C@_0P@DLDEBFAD@already?5locked?$AA@ 00066954     openssl.obj
 0002:00014964       ??_C@_0N@MICJCNHE@invalid?5mode?$AA@ 00066964     openssl.obj
 0002:00014974       ??_C@_0BB@OIAJPBNP@?7PEM?5string?3?5?$CFs?6?$AA@ 00066974     openssl.obj
 0002:00014988       ??_C@_06GGPOMPNM@?$CInone?$CJ?$AA@ 00066988     openssl.obj
 0002:00014990       ??_C@_0BF@FNPAJFKA@?7Type?3?5?$CFs?5Algorithm?6?$AA@ 00066990     openssl.obj
 0002:000149a8       ??_C@_09DIEJJCHJ@?7OID?3?5?$CFs?6?$AA@ 000669a8     openssl.obj
 0002:000149b4       ??_C@_07GECJFPBJ@Builtin?$AA@ 000669b4     openssl.obj
 0002:000149bc       ??_C@_08GKOOPLMO@External?$AA@ 000669bc     openssl.obj
 0002:000149c8       ??_C@_09BKOKIJBF@Name?3?5?$CFs?6?$AA@ 000669c8     openssl.obj
 0002:000149d4       ??_C@_0BE@LMOINBDA@?7Type?3?5Alias?5to?5?$CFs?6?$AA@ 000669d4     openssl.obj
 0002:000149e8       ??_C@_09IIOICOJP@?$CFs?5?$DN?$DO?5?$CFs?6?$AA@ 000669e8     openssl.obj
 0002:000149f4       ??_C@_0M@KPKKGHMB@?$DMundefined?$DO?$AA@ 000669f4     openssl.obj
 0002:00014a00       ??_C@_05EGPACALF@?$CF?918s?$AA@ 00066a00     openssl.obj
 0002:00014a08       ??_C@_0DL@FNLPEHCM@?6Cipher?5commands?5?$CIsee?5the?5?$GAenc?8?5@ 00066a08     openssl.obj
 0002:00014a48       ??_C@_0EE@JBGNFJJM@?6Message?5Digest?5commands?5?$CIsee?5th@ 00066a48     openssl.obj
 0002:00014a8c       ??_C@_0CM@FKICDIKK@openssl?3Error?3?5?8?$CFs?8?5is?5an?5invali@ 00066a8c     openssl.obj
 0002:00014ab8       ??_C@_0BD@COOOCHPJ@?6Standard?5commands?$AA@ 00066ab8     openssl.obj
 0002:00014acc       ??_C@_0BL@DHINNCNP@list?9public?9key?9algorithms?$AA@ 00066acc     openssl.obj
 0002:00014ae8       ??_C@_0BH@DFGCPIEG@list?9cipher?9algorithms?$AA@ 00066ae8     openssl.obj
 0002:00014b00       ??_C@_0BF@CICLLHFG@list?9cipher?9commands?$AA@ 00066b00     openssl.obj
 0002:00014b18       ??_C@_0BP@HAIMMLBF@list?9message?9digest?9algorithms?$AA@ 00066b18     openssl.obj
 0002:00014b38       ??_C@_0BN@CJIDHFPI@list?9message?9digest?9commands?$AA@ 00066b38     openssl.obj
 0002:00014b58       ??_C@_0BH@HLMIEIJD@list?9standard?9commands?$AA@ 00066b58     openssl.obj
 0002:00014b70       ??_C@_03MDONDFG@bye?$AA@   00066b70     openssl.obj
 0002:00014b74       ??_C@_04MKNBDEPB@exit?$AA@ 00066b74     openssl.obj
 0002:00014b7c       ??_C@_01IIACKFLH@q?$AA@    00066b7c     openssl.obj
 0002:00014b80       ??_C@_04KNNLNNGO@quit?$AA@ 00066b80     openssl.obj
 0002:00014b88       ??_C@_03GGODHGCB@no?9?$AA@ 00066b88     openssl.obj
 0002:00014b8c       ??_C@_09GHMBOEJG@bad?5exit?6?$AA@ 00066b8c     openssl.obj
 0002:00014b98       ??_C@_0N@FMACNLAG@error?5in?5?$CFs?6?$AA@ 00066b98     openssl.obj
 0002:00014ba8       ??_C@_09FPPPFFOJ@OpenSSL?$DO?5?$AA@ 00066ba8     openssl.obj
 0002:00014bb4       ??_C@_01PPODPGHN@?$DO?$AA@ 00066bb4     openssl.obj
 0002:00014bb8       ??_C@_0CF@MJDHKIAL@WARNING?3?5can?8t?5open?5config?5file?3@ 00066bb8     openssl.obj
 0002:00014be0       ??_C@_0BK@FHHMPOAK@FIPS?5mode?5not?5supported?4?6?$AA@ 00066be0     openssl.obj
 0002:00014bfc       ??_C@_0N@FDOBJDJB@OPENSSL_FIPS?$AA@ 00066bfc     openssl.obj
 0002:00014c0c       ??_C@_03MCADLMAF@off?$AA@  00066c0c     openssl.obj
 0002:00014c10       ??_C@_0BF@CKJKJIOH@OPENSSL_DEBUG_MEMORY?$AA@ 00066c10     openssl.obj
 0002:00014c28       ??_C@_09ECNMAHHJ@errno?$DN?$CFd?6?$AA@ 00066c28     wcecompatex:stdio_extras.obj
 0002:00014c34       ??_C@_0O@EGJGEBIF@?$CFs?3?5errno?$DN?$CFd?6?$AA@ 00066c34     wcecompatex:stdio_extras.obj
 0002:00014c44       ??_C@_15JJPIMNBO@?$AAr?$AAb?$AA?$AA@ 00066c44     wcecompatex:io.obj
 0002:00014c4c       ??_C@_15MJDFFMKN@?$AAw?$AAb?$AA?$AA@ 00066c4c     wcecompatex:io.obj
 0002:00014c54       ??_C@_15CPCJELBK@?$AAw?$AA?$CL?$AA?$AA@ 00066c54     wcecompatex:io.obj
 0002:00014c5c       ??_C@_08EDHMEBNP@December?$AA@ 00066c5c     wcecompatex:time.obj
 0002:00014c68       ??_C@_08HCHEGEOA@November?$AA@ 00066c68     wcecompatex:time.obj
 0002:00014c74       ??_C@_07JJNFCEND@October?$AA@ 00066c74     wcecompatex:time.obj
 0002:00014c7c       ??_C@_09BHHEALKD@September?$AA@ 00066c7c     wcecompatex:time.obj
 0002:00014c88       ??_C@_06LBBHFDDG@August?$AA@ 00066c88     wcecompatex:time.obj
 0002:00014c90       ??_C@_04MIEPOIFP@July?$AA@ 00066c90     wcecompatex:time.obj
 0002:00014c98       ??_C@_04CNLMGBGM@June?$AA@ 00066c98     wcecompatex:time.obj
 0002:00014ca0       ??_C@_05DMJDNLEJ@April?$AA@ 00066ca0     wcecompatex:time.obj
 0002:00014ca8       ??_C@_05HPCKOFNC@March?$AA@ 00066ca8     wcecompatex:time.obj
 0002:00014cb0       ??_C@_08GNJGEPFN@February?$AA@ 00066cb0     wcecompatex:time.obj
 0002:00014cbc       ??_C@_07CGJPFGJA@January?$AA@ 00066cbc     wcecompatex:time.obj
 0002:00014cc4       ??_C@_03MKABNOCG@Dec?$AA@  00066cc4     wcecompatex:time.obj
 0002:00014cc8       ??_C@_03JPJOFNIA@Nov?$AA@  00066cc8     wcecompatex:time.obj
 0002:00014ccc       ??_C@_03BMAOKBAD@Oct?$AA@  00066ccc     wcecompatex:time.obj
 0002:00014cd0       ??_C@_03GGCAPAJC@Sep?$AA@  00066cd0     wcecompatex:time.obj
 0002:00014cd4       ??_C@_03IFJFEIGA@Aug?$AA@  00066cd4     wcecompatex:time.obj
 0002:00014cd8       ??_C@_03LBGABGKK@Jul?$AA@  00066cd8     wcecompatex:time.obj
 0002:00014cdc       ??_C@_03IDFGHECI@Jun?$AA@  00066cdc     wcecompatex:time.obj
 0002:00014ce0       ??_C@_03CNMDKL@May?$AA@    00066ce0     wcecompatex:time.obj
 0002:00014ce4       ??_C@_03LEOLGMJP@Apr?$AA@  00066ce4     wcecompatex:time.obj
 0002:00014ce8       ??_C@_03ODNJBKGA@Mar?$AA@  00066ce8     wcecompatex:time.obj
 0002:00014cec       ??_C@_03HJBDCHOM@Feb?$AA@  00066cec     wcecompatex:time.obj
 0002:00014cf0       ??_C@_03JIHJHPIE@Jan?$AA@  00066cf0     wcecompatex:time.obj
 0002:00014cf4       ??_C@_08INBOOONO@Saturday?$AA@ 00066cf4     wcecompatex:time.obj
 0002:00014d00       ??_C@_06JECMNKMI@Friday?$AA@ 00066d00     wcecompatex:time.obj
 0002:00014d08       ??_C@_08HACCIKIA@Thursday?$AA@ 00066d08     wcecompatex:time.obj
 0002:00014d14       ??_C@_09DLIGFAKA@Wednesday?$AA@ 00066d14     wcecompatex:time.obj
 0002:00014d20       ??_C@_07BAAGCFCM@Tuesday?$AA@ 00066d20     wcecompatex:time.obj
 0002:00014d28       ??_C@_06JLEDEDGH@Monday?$AA@ 00066d28     wcecompatex:time.obj
 0002:00014d30       ??_C@_06OOPIFAJ@Sunday?$AA@ 00066d30     wcecompatex:time.obj
 0002:00014d38       ??_C@_03FEFJNEK@Sat?$AA@   00066d38     wcecompatex:time.obj
 0002:00014d3c       ??_C@_03IDIOELNC@Fri?$AA@  00066d3c     wcecompatex:time.obj
 0002:00014d40       ??_C@_03IOFIKPDN@Thu?$AA@  00066d40     wcecompatex:time.obj
 0002:00014d44       ??_C@_03MHOMLAJA@Wed?$AA@  00066d44     wcecompatex:time.obj
 0002:00014d48       ??_C@_03NAGEINEP@Tue?$AA@  00066d48     wcecompatex:time.obj
 0002:00014d4c       ??_C@_03PDAGKDH@Mon?$AA@   00066d4c     wcecompatex:time.obj
 0002:00014d50       ??_C@_03KOEHGMDN@Sun?$AA@  00066d50     wcecompatex:time.obj
 0002:00014d5c       ??_C@_03OCLLGKEH@udp?$AA@  00066d5c     wcecompatex:winsock_extras.obj
 0002:00014d74       __IMPORT_DESCRIPTOR_SSLEAY32 00066d74     ssleay32:SSLEAY32.dll
 0002:00014d88       __IMPORT_DESCRIPTOR_LIBEAY32 00066d88     libeay32:LIBEAY32.dll
 0002:00014d9c       __IMPORT_DESCRIPTOR_WINSOCK 00066d9c     winsock:WINSOCK.dll
 0002:00014db0       __IMPORT_DESCRIPTOR_COREDLL 00066db0     coredll:COREDLL.dll
 0002:00014dc4       __IMPORT_DESCRIPTOR_WS2    00066dc4     Ws2:WS2.dll
 0002:00014dd8       __NULL_IMPORT_DESCRIPTOR   00066dd8     ssleay32:SSLEAY32.dll
 0003:00000000       __imp_strncpy              00069000     coredll:COREDLL.dll
 0003:00000004       __imp_GetModuleFileNameW   00069004     coredll:COREDLL.dll
 0003:00000008       __imp_strrchr              00069008     coredll:COREDLL.dll
 0003:0000000c       __imp_FindNextFileW        0006900c     coredll:COREDLL.dll
 0003:00000010       __imp___C_specific_handler 00069010     coredll:COREDLL.dll
 0003:00000014       __imp__XcptFilter          00069014     coredll:COREDLL.dll
 0003:00000018       __imp_LocalFree            00069018     coredll:COREDLL.dll
 0003:0000001c       __imp___rt_udiv            0006901c     coredll:COREDLL.dll
 0003:00000020       __imp__strnicmp            00069020     coredll:COREDLL.dll
 0003:00000024       __imp_WriteFile            00069024     coredll:COREDLL.dll
 0003:00000028       __imp_ReadFile             00069028     coredll:COREDLL.dll
 0003:0000002c       __imp__wfopen              0006902c     coredll:COREDLL.dll
 0003:00000030       __imp_mbstowcs             00069030     coredll:COREDLL.dll
 0003:00000034       __imp_realloc              00069034     coredll:COREDLL.dll
 0003:00000038       __imp_fputs                00069038     coredll:COREDLL.dll
 0003:0000003c       __imp_qsort                0006903c     coredll:COREDLL.dll
 0003:00000040       __imp_strspn               00069040     coredll:COREDLL.dll
 0003:00000044       __imp__fileno              00069044     coredll:COREDLL.dll
 0003:00000048       __imp_FindFirstFileW       00069048     coredll:COREDLL.dll
 0003:0000004c       __imp_FindClose            0006904c     coredll:COREDLL.dll
 0003:00000050       __imp___i64tod             00069050     coredll:COREDLL.dll
 0003:00000054       __imp_GetSystemTime        00069054     coredll:COREDLL.dll
 0003:00000058       __imp_SystemTimeToFileTime 00069058     coredll:COREDLL.dll
 0003:0000005c       __imp_malloc               0006905c     coredll:COREDLL.dll
 0003:00000060       __imp_MultiByteToWideChar  00069060     coredll:COREDLL.dll
 0003:00000064       __imp_MoveFileW            00069064     coredll:COREDLL.dll
 0003:00000068       __imp_DeleteFileW          00069068     coredll:COREDLL.dll
 0003:0000006c       __imp_free                 0006906c     coredll:COREDLL.dll
 0003:00000070       __imp___rt_sdiv            00069070     coredll:COREDLL.dll
 0003:00000074       __imp_fputc                00069074     coredll:COREDLL.dll
 0003:00000078       __imp_fflush               00069078     coredll:COREDLL.dll
 0003:0000007c       __imp___gtd                0006907c     coredll:COREDLL.dll
 0003:00000080       __imp___muld               00069080     coredll:COREDLL.dll
 0003:00000084       __imp___itod               00069084     coredll:COREDLL.dll
 0003:00000088       __imp___divd               00069088     coredll:COREDLL.dll
 0003:0000008c       __imp_CreateThread         0006908c     coredll:COREDLL.dll
 0003:00000090       __imp_GetLastError         00069090     coredll:COREDLL.dll
 0003:00000094       __imp_TerminateProcess     00069094     coredll:COREDLL.dll
 0003:00000098       __imp_CloseHandle          00069098     coredll:COREDLL.dll
 0003:0000009c       __imp_Sleep                0006909c     coredll:COREDLL.dll
 0003:000000a0       __imp_strstr               000690a0     coredll:COREDLL.dll
 0003:000000a4       __imp_strcpy               000690a4     coredll:COREDLL.dll
 0003:000000a8       __imp__stricmp             000690a8     coredll:COREDLL.dll
 0003:000000ac       __imp_memcpy               000690ac     coredll:COREDLL.dll
 0003:000000b0       __imp_toupper              000690b0     coredll:COREDLL.dll
 0003:000000b4       __imp_strncat              000690b4     coredll:COREDLL.dll
 0003:000000b8       __imp_memcmp               000690b8     coredll:COREDLL.dll
 0003:000000bc       __imp_fopen                000690bc     coredll:COREDLL.dll
 0003:000000c0       __imp_fclose               000690c0     coredll:COREDLL.dll
 0003:000000c4       __imp_setvbuf              000690c4     coredll:COREDLL.dll
 0003:000000c8       __imp_memset               000690c8     coredll:COREDLL.dll
 0003:000000cc       __imp__isctype             000690cc     coredll:COREDLL.dll
 0003:000000d0       __imp_sscanf               000690d0     coredll:COREDLL.dll
 0003:000000d4       __imp_fgets                000690d4     coredll:COREDLL.dll
 0003:000000d8       __imp_strncmp              000690d8     coredll:COREDLL.dll
 0003:000000dc       __imp_strchr               000690dc     coredll:COREDLL.dll
 0003:000000e0       __imp_atol                 000690e0     coredll:COREDLL.dll
 0003:000000e4       __imp_strlen               000690e4     coredll:COREDLL.dll
 0003:000000e8       __imp_atoi                 000690e8     coredll:COREDLL.dll
 0003:000000ec       __imp_strcmp               000690ec     coredll:COREDLL.dll
 0003:000000f0       __imp_printf               000690f0     coredll:COREDLL.dll
 0003:000000f4       __imp__getstdfilex         000690f4     coredll:COREDLL.dll
 0003:000000f8       __imp_fprintf              000690f8     coredll:COREDLL.dll
 0003:000000fc       \177COREDLL_NULL_THUNK_DATA 000690fc     coredll:COREDLL.dll
 0003:00000100       __imp_CRYPTO_dbg_get_options 00069100     libeay32:LIBEAY32.dll
 0003:00000104       __imp_CRYPTO_dbg_set_options 00069104     libeay32:LIBEAY32.dll
 0003:00000108       __imp_CRYPTO_dbg_free      00069108     libeay32:LIBEAY32.dll
 0003:0000010c       __imp_CRYPTO_dbg_realloc   0006910c     libeay32:LIBEAY32.dll
 0003:00000110       __imp_CRYPTO_dbg_malloc    00069110     libeay32:LIBEAY32.dll
 0003:00000114       __imp_CRYPTO_set_mem_debug_functions 00069114     libeay32:LIBEAY32.dll
 0003:00000118       __imp_CRYPTO_set_mem_debug_options 00069118     libeay32:LIBEAY32.dll
 0003:0000011c       __imp_CRYPTO_mem_ctrl      0006911c     libeay32:LIBEAY32.dll
 0003:00000120       __imp_CRYPTO_set_locking_callback 00069120     libeay32:LIBEAY32.dll
 0003:00000124       __imp_CRYPTO_set_mem_functions 00069124     libeay32:LIBEAY32.dll
 0003:00000128       __imp_ENGINE_load_builtin_engines 00069128     libeay32:LIBEAY32.dll
 0003:0000012c       __imp_ERR_peek_last_error  0006912c     libeay32:LIBEAY32.dll
 0003:00000130       __imp_lh_free              00069130     libeay32:LIBEAY32.dll
 0003:00000134       __imp_CONF_modules_unload  00069134     libeay32:LIBEAY32.dll
 0003:00000138       __imp_EVP_cleanup          00069138     libeay32:LIBEAY32.dll
 0003:0000013c       __imp_ENGINE_cleanup       0006913c     libeay32:LIBEAY32.dll
 0003:00000140       __imp_CRYPTO_cleanup_all_ex_data 00069140     libeay32:LIBEAY32.dll
 0003:00000144       __imp_ERR_remove_thread_state 00069144     libeay32:LIBEAY32.dll
 0003:00000148       __imp_ERR_free_strings     00069148     libeay32:LIBEAY32.dll
 0003:0000014c       __imp_COMP_zlib_cleanup    0006914c     libeay32:LIBEAY32.dll
 0003:00000150       __imp_CRYPTO_mem_leaks     00069150     libeay32:LIBEAY32.dll
 0003:00000154       __imp_lh_retrieve          00069154     libeay32:LIBEAY32.dll
 0003:00000158       __imp_lh_new               00069158     libeay32:LIBEAY32.dll
 0003:0000015c       __imp_lh_insert            0006915c     libeay32:LIBEAY32.dll
 0003:00000160       __imp_EVP_CIPHER_do_all_sorted 00069160     libeay32:LIBEAY32.dll
 0003:00000164       __imp_EVP_PKEY_asn1_get_count 00069164     libeay32:LIBEAY32.dll
 0003:00000168       __imp_EVP_PKEY_asn1_get0   00069168     libeay32:LIBEAY32.dll
 0003:0000016c       __imp_SRP_get_default_gN   0006916c     libeay32:LIBEAY32.dll
 0003:00000170       __imp_SRP_create_verifier  00069170     libeay32:LIBEAY32.dll
 0003:00000174       __imp_TS_RESP_verify_token 00069174     libeay32:LIBEAY32.dll
 0003:00000178       __imp_TS_RESP_verify_response 00069178     libeay32:LIBEAY32.dll
 0003:0000017c       __imp_d2i_TS_RESP_bio      0006917c     libeay32:LIBEAY32.dll
 0003:00000180       __imp_TS_RESP_get_tst_info 00069180     libeay32:LIBEAY32.dll
 0003:00000184       __imp_TS_TST_INFO_print_bio 00069184     libeay32:LIBEAY32.dll
 0003:00000188       __imp_TS_RESP_print_bio    00069188     libeay32:LIBEAY32.dll
 0003:0000018c       __imp_TS_RESP_get_token    0006918c     libeay32:LIBEAY32.dll
 0003:00000190       __imp_i2d_TS_RESP_bio      00069190     libeay32:LIBEAY32.dll
 0003:00000194       __imp_TS_REQ_to_TS_VERIFY_CTX 00069194     libeay32:LIBEAY32.dll
 0003:00000198       __imp_TS_VERIFY_CTX_new    00069198     libeay32:LIBEAY32.dll
 0003:0000019c       __imp_TS_CONF_load_certs   0006919c     libeay32:LIBEAY32.dll
 0003:000001a0       __imp_TS_VERIFY_CTX_free   000691a0     libeay32:LIBEAY32.dll
 0003:000001a4       __imp_TS_CONF_get_tsa_section 000691a4     libeay32:LIBEAY32.dll
 0003:000001a8       __imp_TS_RESP_CTX_new      000691a8     libeay32:LIBEAY32.dll
 0003:000001ac       __imp_TS_CONF_set_serial   000691ac     libeay32:LIBEAY32.dll
 0003:000001b0       __imp_TS_CONF_set_crypto_device 000691b0     libeay32:LIBEAY32.dll
 0003:000001b4       __imp_TS_CONF_set_signer_cert 000691b4     libeay32:LIBEAY32.dll
 0003:000001b8       __imp_TS_CONF_set_certs    000691b8     libeay32:LIBEAY32.dll
 0003:000001bc       __imp_TS_CONF_set_signer_key 000691bc     libeay32:LIBEAY32.dll
 0003:000001c0       __imp_X509_STORE_CTX_free  000691c0     libeay32:LIBEAY32.dll
 0003:000001c4       __imp_X509_verify_cert     000691c4     libeay32:LIBEAY32.dll
 0003:000001c8       __imp_X509_STORE_CTX_set0_crls 000691c8     libeay32:LIBEAY32.dll
 0003:000001cc       __imp_X509_STORE_CTX_trusted_stack 000691cc     libeay32:LIBEAY32.dll
 0003:000001d0       __imp_X509_free            000691d0     libeay32:LIBEAY32.dll
 0003:000001d4       __imp_ERR_print_errors     000691d4     libeay32:LIBEAY32.dll
 0003:000001d8       __imp_X509_STORE_CTX_init  000691d8     libeay32:LIBEAY32.dll
 0003:000001dc       __imp_X509_STORE_set_flags 000691dc     libeay32:LIBEAY32.dll
 0003:000001e0       __imp_X509_STORE_CTX_new   000691e0     libeay32:LIBEAY32.dll
 0003:000001e4       __imp_ERR_clear_error      000691e4     libeay32:LIBEAY32.dll
 0003:000001e8       __imp_X509_STORE_CTX_get0_parent_ctx 000691e8     libeay32:LIBEAY32.dll
 0003:000001ec       __imp_X509_STORE_CTX_get_error_depth 000691ec     libeay32:LIBEAY32.dll
 0003:000001f0       __imp_X509_verify_cert_error_string 000691f0     libeay32:LIBEAY32.dll
 0003:000001f4       __imp_X509_NAME_print_ex_fp 000691f4     libeay32:LIBEAY32.dll
 0003:000001f8       __imp_X509_get_subject_name 000691f8     libeay32:LIBEAY32.dll
 0003:000001fc       __imp_X509_STORE_CTX_get_current_cert 000691fc     libeay32:LIBEAY32.dll
 0003:00000200       __imp_X509_STORE_CTX_get_error 00069200     libeay32:LIBEAY32.dll
 0003:00000204       __imp_X509_CRL_free        00069204     libeay32:LIBEAY32.dll
 0003:00000208       __imp_sk_pop_free          00069208     libeay32:LIBEAY32.dll
 0003:0000020c       __imp_X509_STORE_free      0006920c     libeay32:LIBEAY32.dll
 0003:00000210       __imp_X509_VERIFY_PARAM_free 00069210     libeay32:LIBEAY32.dll
 0003:00000214       __imp_X509_PURPOSE_get0_sname 00069214     libeay32:LIBEAY32.dll
 0003:00000218       __imp_X509_PURPOSE_get0_name 00069218     libeay32:LIBEAY32.dll
 0003:0000021c       __imp_X509_PURPOSE_get0    0006921c     libeay32:LIBEAY32.dll
 0003:00000220       __imp_X509_PURPOSE_get_count 00069220     libeay32:LIBEAY32.dll
 0003:00000224       __imp_X509_LOOKUP_hash_dir 00069224     libeay32:LIBEAY32.dll
 0003:00000228       __imp_BIO_printf           00069228     libeay32:LIBEAY32.dll
 0003:0000022c       __imp_X509_LOOKUP_ctrl     0006922c     libeay32:LIBEAY32.dll
 0003:00000230       __imp_X509_STORE_add_lookup 00069230     libeay32:LIBEAY32.dll
 0003:00000234       __imp_X509_LOOKUP_file     00069234     libeay32:LIBEAY32.dll
 0003:00000238       __imp_X509_STORE_set1_param 00069238     libeay32:LIBEAY32.dll
 0003:0000023c       __imp_BIO_ctrl             0006923c     libeay32:LIBEAY32.dll
 0003:00000240       __imp_BIO_new              00069240     libeay32:LIBEAY32.dll
 0003:00000244       __imp_BIO_s_file           00069244     libeay32:LIBEAY32.dll
 0003:00000248       __imp_ERR_load_crypto_strings 00069248     libeay32:LIBEAY32.dll
 0003:0000024c       __imp_X509_STORE_set_verify_cb 0006924c     libeay32:LIBEAY32.dll
 0003:00000250       __imp_X509_STORE_new       00069250     libeay32:LIBEAY32.dll
 0003:00000254       __imp_ASN1_TYPE_free       00069254     libeay32:LIBEAY32.dll
 0003:00000258       __imp_BUF_MEM_grow         00069258     libeay32:LIBEAY32.dll
 0003:0000025c       __imp_i2d_ASN1_TYPE        0006925c     libeay32:LIBEAY32.dll
 0003:00000260       __imp_NCONF_free           00069260     libeay32:LIBEAY32.dll
 0003:00000264       __imp_ASN1_generate_nconf  00069264     libeay32:LIBEAY32.dll
 0003:00000268       __imp_NCONF_get_string     00069268     libeay32:LIBEAY32.dll
 0003:0000026c       __imp_NCONF_load           0006926c     libeay32:LIBEAY32.dll
 0003:00000270       __imp_NCONF_new            00069270     libeay32:LIBEAY32.dll
 0003:00000274       __imp_ASN1_parse_dump      00069274     libeay32:LIBEAY32.dll
 0003:00000278       __imp_BIO_write            00069278     libeay32:LIBEAY32.dll
 0003:0000027c       __imp_ASN1_TYPE_get        0006927c     libeay32:LIBEAY32.dll
 0003:00000280       __imp_d2i_ASN1_TYPE        00069280     libeay32:LIBEAY32.dll
 0003:00000284       __imp_sk_value             00069284     libeay32:LIBEAY32.dll
 0003:00000288       __imp_sk_num               00069288     libeay32:LIBEAY32.dll
 0003:0000028c       __imp_BIO_read             0006928c     libeay32:LIBEAY32.dll
 0003:00000290       __imp_BIO_push             00069290     libeay32:LIBEAY32.dll
 0003:00000294       __imp_BIO_f_base64         00069294     libeay32:LIBEAY32.dll
 0003:00000298       __imp_BUF_MEM_new          00069298     libeay32:LIBEAY32.dll
 0003:0000029c       __imp_BIO_new_file         0006929c     libeay32:LIBEAY32.dll
 0003:000002a0       __imp_OBJ_create_objects   000692a0     libeay32:LIBEAY32.dll
 0003:000002a4       __imp_OBJ_cleanup          000692a4     libeay32:LIBEAY32.dll
 0003:000002a8       __imp_sk_free              000692a8     libeay32:LIBEAY32.dll
 0003:000002ac       __imp_BUF_MEM_free         000692ac     libeay32:LIBEAY32.dll
 0003:000002b0       __imp_BIO_free_all         000692b0     libeay32:LIBEAY32.dll
 0003:000002b4       __imp_BIO_free             000692b4     libeay32:LIBEAY32.dll
 0003:000002b8       __imp_sk_push              000692b8     libeay32:LIBEAY32.dll
 0003:000002bc       __imp_sk_new_null          000692bc     libeay32:LIBEAY32.dll
 0003:000002c0       __imp_X509_NAME_free       000692c0     libeay32:LIBEAY32.dll
 0003:000002c4       __imp_X509_REQ_set_subject_name 000692c4     libeay32:LIBEAY32.dll
 0003:000002c8       __imp_X509_REQ_add1_attr_by_txt 000692c8     libeay32:LIBEAY32.dll
 0003:000002cc       __imp_X509_NAME_entry_count 000692cc     libeay32:LIBEAY32.dll
 0003:000002d0       __imp_X509_NAME_add_entry_by_txt 000692d0     libeay32:LIBEAY32.dll
 0003:000002d4       __imp_EVP_PKEY_CTX_free    000692d4     libeay32:LIBEAY32.dll
 0003:000002d8       __imp_EVP_PKEY_CTX_ctrl    000692d8     libeay32:LIBEAY32.dll
 0003:000002dc       __imp_EVP_PKEY_keygen_init 000692dc     libeay32:LIBEAY32.dll
 0003:000002e0       __imp_EVP_PKEY_CTX_new_id  000692e0     libeay32:LIBEAY32.dll
 0003:000002e4       __imp_EVP_PKEY_bits        000692e4     libeay32:LIBEAY32.dll
 0003:000002e8       __imp_EVP_PKEY_CTX_new     000692e8     libeay32:LIBEAY32.dll
 0003:000002ec       __imp_BUF_strdup           000692ec     libeay32:LIBEAY32.dll
 0003:000002f0       __imp_EVP_PKEY_free        000692f0     libeay32:LIBEAY32.dll
 0003:000002f4       __imp_EVP_PKEY_base_id     000692f4     libeay32:LIBEAY32.dll
 0003:000002f8       __imp_EVP_PKEY_id          000692f8     libeay32:LIBEAY32.dll
 0003:000002fc       __imp_X509_get_pubkey      000692fc     libeay32:LIBEAY32.dll
 0003:00000300       __imp_PEM_read_bio_X509    00069300     libeay32:LIBEAY32.dll
 0003:00000304       __imp_PEM_read_bio_Parameters 00069304     libeay32:LIBEAY32.dll
 0003:00000308       __imp_ENGINE_finish        00069308     libeay32:LIBEAY32.dll
 0003:0000030c       __imp_EVP_PKEY_asn1_get0_info 0006930c     libeay32:LIBEAY32.dll
 0003:00000310       __imp_EVP_PKEY_asn1_find_str 00069310     libeay32:LIBEAY32.dll
 0003:00000314       __imp_BIO_puts             00069314     libeay32:LIBEAY32.dll
 0003:00000318       __imp_EVP_PKEY_asn1_find   00069318     libeay32:LIBEAY32.dll
 0003:0000031c       __imp_EVP_PKEY_CTX_get_keygen_info 0006931c     libeay32:LIBEAY32.dll
 0003:00000320       __imp_EVP_PKEY_CTX_get_app_data 00069320     libeay32:LIBEAY32.dll
 0003:00000324       __imp_EVP_DigestSignInit   00069324     libeay32:LIBEAY32.dll
 0003:00000328       __imp_EVP_MD_CTX_init      00069328     libeay32:LIBEAY32.dll
 0003:0000032c       __imp_EVP_MD_CTX_cleanup   0006932c     libeay32:LIBEAY32.dll
 0003:00000330       __imp_X509_sign_ctx        00069330     libeay32:LIBEAY32.dll
 0003:00000334       __imp_X509_REQ_sign_ctx    00069334     libeay32:LIBEAY32.dll
 0003:00000338       __imp_X509_CRL_sign_ctx    00069338     libeay32:LIBEAY32.dll
 0003:0000033c       __imp_X509_NAME_add_entry_by_NID 0006933c     libeay32:LIBEAY32.dll
 0003:00000340       __imp_BUF_strlcat          00069340     libeay32:LIBEAY32.dll
 0003:00000344       __imp_BUF_strlcpy          00069344     libeay32:LIBEAY32.dll
 0003:00000348       __imp_X509_REQ_add1_attr_by_NID 00069348     libeay32:LIBEAY32.dll
 0003:0000034c       __imp_NCONF_get_number_e   0006934c     libeay32:LIBEAY32.dll
 0003:00000350       __imp_BIO_snprintf         00069350     libeay32:LIBEAY32.dll
 0003:00000354       __imp_OBJ_txt2nid          00069354     libeay32:LIBEAY32.dll
 0003:00000358       __imp_X509_REQ_set_pubkey  00069358     libeay32:LIBEAY32.dll
 0003:0000035c       __imp_X509_REQ_set_version 0006935c     libeay32:LIBEAY32.dll
 0003:00000360       __imp_NCONF_get_section    00069360     libeay32:LIBEAY32.dll
 0003:00000364       __imp_ASN1_INTEGER_free    00069364     libeay32:LIBEAY32.dll
 0003:00000368       __imp_X509_REQ_free        00069368     libeay32:LIBEAY32.dll
 0003:0000036c       __imp_CRYPTO_free          0006936c     libeay32:LIBEAY32.dll
 0003:00000370       __imp_ENGINE_free          00069370     libeay32:LIBEAY32.dll
 0003:00000374       __imp_PEM_write_bio_X509   00069374     libeay32:LIBEAY32.dll
 0003:00000378       __imp_i2d_X509_bio         00069378     libeay32:LIBEAY32.dll
 0003:0000037c       __imp_PEM_write_bio_X509_REQ 0006937c     libeay32:LIBEAY32.dll
 0003:00000380       __imp_PEM_write_bio_X509_REQ_NEW 00069380     libeay32:LIBEAY32.dll
 0003:00000384       __imp_i2d_X509_REQ_bio     00069384     libeay32:LIBEAY32.dll
 0003:00000388       __imp_BN_print             00069388     libeay32:LIBEAY32.dll
 0003:0000038c       __imp_X509_REQ_print_ex    0006938c     libeay32:LIBEAY32.dll
 0003:00000390       __imp_X509_print_ex        00069390     libeay32:LIBEAY32.dll
 0003:00000394       __imp_PEM_write_bio_PUBKEY 00069394     libeay32:LIBEAY32.dll
 0003:00000398       __imp_X509_REQ_verify      00069398     libeay32:LIBEAY32.dll
 0003:0000039c       __imp_X509V3_EXT_REQ_add_nconf 0006939c     libeay32:LIBEAY32.dll
 0003:000003a0       __imp_X509_set_pubkey      000693a0     libeay32:LIBEAY32.dll
 0003:000003a4       __imp_X509_REQ_get_pubkey  000693a4     libeay32:LIBEAY32.dll
 0003:000003a8       __imp_X509_set_subject_name 000693a8     libeay32:LIBEAY32.dll
 0003:000003ac       __imp_X509_time_adj_ex     000693ac     libeay32:LIBEAY32.dll
 0003:000003b0       __imp_X509_gmtime_adj      000693b0     libeay32:LIBEAY32.dll
 0003:000003b4       __imp_X509_set_issuer_name 000693b4     libeay32:LIBEAY32.dll
 0003:000003b8       __imp_X509_get_serialNumber 000693b8     libeay32:LIBEAY32.dll
 0003:000003bc       __imp_X509_REQ_new         000693bc     libeay32:LIBEAY32.dll
 0003:000003c0       __imp_X509_set_serialNumber 000693c0     libeay32:LIBEAY32.dll
 0003:000003c4       __imp_X509_set_version     000693c4     libeay32:LIBEAY32.dll
 0003:000003c8       __imp_X509_new             000693c8     libeay32:LIBEAY32.dll
 0003:000003cc       __imp_PEM_read_bio_X509_REQ 000693cc     libeay32:LIBEAY32.dll
 0003:000003d0       __imp_d2i_X509_REQ_bio     000693d0     libeay32:LIBEAY32.dll
 0003:000003d4       __imp_ERR_peek_error       000693d4     libeay32:LIBEAY32.dll
 0003:000003d8       __imp_PEM_write_bio_PrivateKey 000693d8     libeay32:LIBEAY32.dll
 0003:000003dc       __imp_EVP_PKEY_keygen      000693dc     libeay32:LIBEAY32.dll
 0003:000003e0       __imp_EVP_PKEY_CTX_set_app_data 000693e0     libeay32:LIBEAY32.dll
 0003:000003e4       __imp_EVP_PKEY_CTX_set_cb  000693e4     libeay32:LIBEAY32.dll
 0003:000003e8       __imp_ASN1_STRING_set_default_mask_asc 000693e8     libeay32:LIBEAY32.dll
 0003:000003ec       __imp_X509V3_EXT_add_nconf 000693ec     libeay32:LIBEAY32.dll
 0003:000003f0       __imp_X509V3_set_nconf     000693f0     libeay32:LIBEAY32.dll
 0003:000003f4       __imp_X509V3_set_ctx       000693f4     libeay32:LIBEAY32.dll
 0003:000003f8       __imp_EVP_get_digestbyname 000693f8     libeay32:LIBEAY32.dll
 0003:000003fc       __imp_s2i_ASN1_INTEGER     000693fc     libeay32:LIBEAY32.dll
 0003:00000400       __imp_ENGINE_by_id         00069400     libeay32:LIBEAY32.dll
 0003:00000404       __imp_EVP_des_ede3_cbc     00069404     libeay32:LIBEAY32.dll
 0003:00000408       __imp_OBJ_nid2sn           00069408     libeay32:LIBEAY32.dll
 0003:0000040c       __imp_EVP_MD_flags         0006940c     libeay32:LIBEAY32.dll
 0003:00000410       __imp_OBJ_nid2ln           00069410     libeay32:LIBEAY32.dll
 0003:00000414       __imp_EVP_MD_type          00069414     libeay32:LIBEAY32.dll
 0003:00000418       __imp_BIO_gets             00069418     libeay32:LIBEAY32.dll
 0003:0000041c       __imp_EVP_DigestSignFinal  0006941c     libeay32:LIBEAY32.dll
 0003:00000420       __imp_EVP_DigestVerifyFinal 00069420     libeay32:LIBEAY32.dll
 0003:00000424       __imp_EVP_PKEY_get0_asn1   00069424     libeay32:LIBEAY32.dll
 0003:00000428       __imp_EVP_MD_CTX_md        00069428     libeay32:LIBEAY32.dll
 0003:0000042c       __imp_EVP_md5              0006942c     libeay32:LIBEAY32.dll
 0003:00000430       __imp_EVP_PKEY_size        00069430     libeay32:LIBEAY32.dll
 0003:00000434       __imp_EVP_DigestVerifyInit 00069434     libeay32:LIBEAY32.dll
 0003:00000438       __imp_EVP_PKEY_new_mac_key 00069438     libeay32:LIBEAY32.dll
 0003:0000043c       __imp_EVP_MD_CTX_set_flags 0006943c     libeay32:LIBEAY32.dll
 0003:00000440       __imp_OPENSSL_cleanse      00069440     libeay32:LIBEAY32.dll
 0003:00000444       __imp_BIO_new_fp           00069444     libeay32:LIBEAY32.dll
 0003:00000448       __imp_BIO_set_callback_arg 00069448     libeay32:LIBEAY32.dll
 0003:0000044c       __imp_BIO_set_callback     0006944c     libeay32:LIBEAY32.dll
 0003:00000450       __imp_BIO_debug_callback   00069450     libeay32:LIBEAY32.dll
 0003:00000454       __imp_BIO_f_md             00069454     libeay32:LIBEAY32.dll
 0003:00000458       __imp_EVP_MD_do_all_sorted 00069458     libeay32:LIBEAY32.dll
 0003:0000045c       __imp_CRYPTO_malloc        0006945c     libeay32:LIBEAY32.dll
 0003:00000460       __imp_DH_free              00069460     libeay32:LIBEAY32.dll
 0003:00000464       __imp_PEM_write_bio_DHparams 00069464     libeay32:LIBEAY32.dll
 0003:00000468       __imp_ASN1_i2d_bio         00069468     libeay32:LIBEAY32.dll
 0003:0000046c       __imp_i2d_DHparams         0006946c     libeay32:LIBEAY32.dll
 0003:00000470       __imp_BN_bn2bin            00069470     libeay32:LIBEAY32.dll
 0003:00000474       __imp_BN_num_bits          00069474     libeay32:LIBEAY32.dll
 0003:00000478       __imp_DH_check             00069478     libeay32:LIBEAY32.dll
 0003:0000047c       __imp_DHparams_print       0006947c     libeay32:LIBEAY32.dll
 0003:00000480       __imp_PEM_read_bio_DHparams 00069480     libeay32:LIBEAY32.dll
 0003:00000484       __imp_ASN1_d2i_bio         00069484     libeay32:LIBEAY32.dll
 0003:00000488       __imp_DH_new               00069488     libeay32:LIBEAY32.dll
 0003:0000048c       __imp_d2i_DHparams         0006948c     libeay32:LIBEAY32.dll
 0003:00000490       __imp_PEM_read_bio_DSAparams 00069490     libeay32:LIBEAY32.dll
 0003:00000494       __imp_d2i_DSAparams        00069494     libeay32:LIBEAY32.dll
 0003:00000498       __imp_DH_generate_parameters_ex 00069498     libeay32:LIBEAY32.dll
 0003:0000049c       __imp_DSA_free             0006949c     libeay32:LIBEAY32.dll
 0003:000004a0       __imp_DSA_dup_DH           000694a0     libeay32:LIBEAY32.dll
 0003:000004a4       __imp_DSA_generate_parameters_ex 000694a4     libeay32:LIBEAY32.dll
 0003:000004a8       __imp_DSA_new              000694a8     libeay32:LIBEAY32.dll
 0003:000004ac       __imp_BIO_number_written   000694ac     libeay32:LIBEAY32.dll
 0003:000004b0       __imp_BIO_number_read      000694b0     libeay32:LIBEAY32.dll
 0003:000004b4       __imp_EVP_CIPHER_CTX_set_padding 000694b4     libeay32:LIBEAY32.dll
 0003:000004b8       __imp_EVP_CipherInit_ex    000694b8     libeay32:LIBEAY32.dll
 0003:000004bc       __imp_EVP_CIPHER_CTX_set_flags 000694bc     libeay32:LIBEAY32.dll
 0003:000004c0       __imp_BIO_f_cipher         000694c0     libeay32:LIBEAY32.dll
 0003:000004c4       __imp_EVP_CIPHER_iv_length 000694c4     libeay32:LIBEAY32.dll
 0003:000004c8       __imp_EVP_BytesToKey       000694c8     libeay32:LIBEAY32.dll
 0003:000004cc       __imp_RAND_pseudo_bytes    000694cc     libeay32:LIBEAY32.dll
 0003:000004d0       __imp_BIO_set_flags        000694d0     libeay32:LIBEAY32.dll
 0003:000004d4       __imp_EVP_read_pw_string   000694d4     libeay32:LIBEAY32.dll
 0003:000004d8       __imp_EVP_CIPHER_nid       000694d8     libeay32:LIBEAY32.dll
 0003:000004dc       __imp_OBJ_NAME_do_all_sorted 000694dc     libeay32:LIBEAY32.dll
 0003:000004e0       __imp_EVP_get_cipherbyname 000694e0     libeay32:LIBEAY32.dll
 0003:000004e4       __imp_EVP_DigestFinal_ex   000694e4     libeay32:LIBEAY32.dll
 0003:000004e8       __imp_EVP_DigestUpdate     000694e8     libeay32:LIBEAY32.dll
 0003:000004ec       __imp_EVP_DigestInit_ex    000694ec     libeay32:LIBEAY32.dll
 0003:000004f0       __imp_DES_crypt            000694f0     libeay32:LIBEAY32.dll
 0003:000004f4       __imp_ERR_error_string_n   000694f4     libeay32:LIBEAY32.dll
 0003:000004f8       __imp_lh_node_usage_stats_bio 000694f8     libeay32:LIBEAY32.dll
 0003:000004fc       __imp_lh_stats_bio         000694fc     libeay32:LIBEAY32.dll
 0003:00000500       __imp_lh_node_stats_bio    00069500     libeay32:LIBEAY32.dll
 0003:00000504       __imp_ERR_get_string_table 00069504     libeay32:LIBEAY32.dll
 0003:00000508       __imp_X509_print           00069508     libeay32:LIBEAY32.dll
 0003:0000050c       __imp_ASN1_TIME_set_string 0006950c     libeay32:LIBEAY32.dll
 0003:00000510       __imp_TXT_DB_get_by_index  00069510     libeay32:LIBEAY32.dll
 0003:00000514       __imp_ASN1_UTCTIME_free    00069514     libeay32:LIBEAY32.dll
 0003:00000518       __imp_ASN1_UTCTIME_new     00069518     libeay32:LIBEAY32.dll
 0003:0000051c       __imp_ASN1_OBJECT_free     0006951c     libeay32:LIBEAY32.dll
 0003:00000520       __imp_OBJ_txt2obj          00069520     libeay32:LIBEAY32.dll
 0003:00000524       __imp_ASN1_GENERALIZEDTIME_set_string 00069524     libeay32:LIBEAY32.dll
 0003:00000528       __imp_i2a_ASN1_OBJECT      00069528     libeay32:LIBEAY32.dll
 0003:0000052c       __imp_ASN1_GENERALIZEDTIME_free 0006952c     libeay32:LIBEAY32.dll
 0003:00000530       __imp_ASN1_GENERALIZEDTIME_new 00069530     libeay32:LIBEAY32.dll
 0003:00000534       __imp_ASN1_UTCTIME_set_string 00069534     libeay32:LIBEAY32.dll
 0003:00000538       __imp_TXT_DB_insert        00069538     libeay32:LIBEAY32.dll
 0003:0000053c       __imp_X509_NAME_oneline    0006953c     libeay32:LIBEAY32.dll
 0003:00000540       __imp_EVP_PKEY_copy_parameters 00069540     libeay32:LIBEAY32.dll
 0003:00000544       __imp_EVP_PKEY_missing_parameters 00069544     libeay32:LIBEAY32.dll
 0003:00000548       __imp_ASN1_TIME_print      00069548     libeay32:LIBEAY32.dll
 0003:0000054c       __imp_X509_EXTENSION_free  0006954c     libeay32:LIBEAY32.dll
 0003:00000550       __imp_ASN1_INTEGER_set     00069550     libeay32:LIBEAY32.dll
 0003:00000554       __imp_ASN1_INTEGER_new     00069554     libeay32:LIBEAY32.dll
 0003:00000558       __imp_BN_to_ASN1_INTEGER   00069558     libeay32:LIBEAY32.dll
 0003:0000055c       __imp_BN_bn2hex            0006955c     libeay32:LIBEAY32.dll
 0003:00000560       __imp_X509_NAME_get_index_by_NID 00069560     libeay32:LIBEAY32.dll
 0003:00000564       __imp_X509_NAME_delete_entry 00069564     libeay32:LIBEAY32.dll
 0003:00000568       __imp_X509_NAME_ENTRY_free 00069568     libeay32:LIBEAY32.dll
 0003:0000056c       __imp_X509_NAME_add_entry  0006956c     libeay32:LIBEAY32.dll
 0003:00000570       __imp_ASN1_STRING_cmp      00069570     libeay32:LIBEAY32.dll
 0003:00000574       __imp_X509_NAME_get_index_by_OBJ 00069574     libeay32:LIBEAY32.dll
 0003:00000578       __imp_OBJ_nid2obj          00069578     libeay32:LIBEAY32.dll
 0003:0000057c       __imp_X509_NAME_dup        0006957c     libeay32:LIBEAY32.dll
 0003:00000580       __imp_X509_NAME_new        00069580     libeay32:LIBEAY32.dll
 0003:00000584       __imp_ASN1_PRINTABLE_type  00069584     libeay32:LIBEAY32.dll
 0003:00000588       __imp_ASN1_UNIVERSALSTRING_to_string 00069588     libeay32:LIBEAY32.dll
 0003:0000058c       __imp_OBJ_obj2nid          0006958c     libeay32:LIBEAY32.dll
 0003:00000590       __imp_X509_NAME_ENTRY_get_object 00069590     libeay32:LIBEAY32.dll
 0003:00000594       __imp_X509_NAME_ENTRY_get_data 00069594     libeay32:LIBEAY32.dll
 0003:00000598       __imp_X509_NAME_get_entry  00069598     libeay32:LIBEAY32.dll
 0003:0000059c       __imp_NETSCAPE_SPKI_verify 0006959c     libeay32:LIBEAY32.dll
 0003:000005a0       __imp_NETSCAPE_SPKI_get_pubkey 000695a0     libeay32:LIBEAY32.dll
 0003:000005a4       __imp_NETSCAPE_SPKI_free   000695a4     libeay32:LIBEAY32.dll
 0003:000005a8       __imp_NETSCAPE_SPKI_b64_decode 000695a8     libeay32:LIBEAY32.dll
 0003:000005ac       __imp_CONF_free            000695ac     libeay32:LIBEAY32.dll
 0003:000005b0       __imp_CONF_get_section     000695b0     libeay32:LIBEAY32.dll
 0003:000005b4       __imp_CONF_load            000695b4     libeay32:LIBEAY32.dll
 0003:000005b8       __imp_BN_free              000695b8     libeay32:LIBEAY32.dll
 0003:000005bc       __imp_ASN1_INTEGER_to_BN   000695bc     libeay32:LIBEAY32.dll
 0003:000005c0       __imp_ASN1_TIME_free       000695c0     libeay32:LIBEAY32.dll
 0003:000005c4       __imp_ASN1_ENUMERATED_free 000695c4     libeay32:LIBEAY32.dll
 0003:000005c8       __imp_X509_REVOKED_add1_ext_i2d 000695c8     libeay32:LIBEAY32.dll
 0003:000005cc       __imp_ASN1_ENUMERATED_set  000695cc     libeay32:LIBEAY32.dll
 0003:000005d0       __imp_ASN1_ENUMERATED_new  000695d0     libeay32:LIBEAY32.dll
 0003:000005d4       __imp_X509_REVOKED_set_revocationDate 000695d4     libeay32:LIBEAY32.dll
 0003:000005d8       __imp_X509_REQ_check_private_key 000695d8     libeay32:LIBEAY32.dll
 0003:000005dc       __imp_X509_REQ_print       000695dc     libeay32:LIBEAY32.dll
 0003:000005e0       __imp_X509_to_X509_REQ     000695e0     libeay32:LIBEAY32.dll
 0003:000005e4       __imp_X509_verify          000695e4     libeay32:LIBEAY32.dll
 0003:000005e8       __imp_PEM_write_bio_X509_CRL 000695e8     libeay32:LIBEAY32.dll
 0003:000005ec       __imp_X509_CRL_set_version 000695ec     libeay32:LIBEAY32.dll
 0003:000005f0       __imp_X509_CRL_add1_ext_i2d 000695f0     libeay32:LIBEAY32.dll
 0003:000005f4       __imp_X509V3_EXT_CRL_add_nconf 000695f4     libeay32:LIBEAY32.dll
 0003:000005f8       __imp_X509_CRL_sort        000695f8     libeay32:LIBEAY32.dll
 0003:000005fc       __imp_X509_CRL_add0_revoked 000695fc     libeay32:LIBEAY32.dll
 0003:00000600       __imp_X509_REVOKED_set_serialNumber 00069600     libeay32:LIBEAY32.dll
 0003:00000604       __imp_BN_hex2bn            00069604     libeay32:LIBEAY32.dll
 0003:00000608       __imp_X509_REVOKED_new     00069608     libeay32:LIBEAY32.dll
 0003:0000060c       __imp_X509_CRL_set_nextUpdate 0006960c     libeay32:LIBEAY32.dll
 0003:00000610       __imp_X509_CRL_set_lastUpdate 00069610     libeay32:LIBEAY32.dll
 0003:00000614       __imp_ASN1_TIME_new        00069614     libeay32:LIBEAY32.dll
 0003:00000618       __imp_X509_CRL_set_issuer_name 00069618     libeay32:LIBEAY32.dll
 0003:0000061c       __imp_X509_CRL_new         0006961c     libeay32:LIBEAY32.dll
 0003:00000620       __imp_BN_add_word          00069620     libeay32:LIBEAY32.dll
 0003:00000624       __imp_EVP_PKEY_get_default_digest_nid 00069624     libeay32:LIBEAY32.dll
 0003:00000628       __imp_TXT_DB_write         00069628     libeay32:LIBEAY32.dll
 0003:0000062c       __imp_X509_check_private_key 0006962c     libeay32:LIBEAY32.dll
 0003:00000630       __imp_X509_get_default_cert_area 00069630     libeay32:LIBEAY32.dll
 0003:00000634       __imp_PKCS7_free           00069634     libeay32:LIBEAY32.dll
 0003:00000638       __imp_PEM_write_bio_PKCS7  00069638     libeay32:LIBEAY32.dll
 0003:0000063c       __imp_i2d_PKCS7_bio        0006963c     libeay32:LIBEAY32.dll
 0003:00000640       __imp_X509_CRL_print       00069640     libeay32:LIBEAY32.dll
 0003:00000644       __imp_PKCS7_print_ctx      00069644     libeay32:LIBEAY32.dll
 0003:00000648       __imp_PEM_read_bio_PKCS7   00069648     libeay32:LIBEAY32.dll
 0003:0000064c       __imp_d2i_PKCS7_bio        0006964c     libeay32:LIBEAY32.dll
 0003:00000650       __imp_X509_INFO_free       00069650     libeay32:LIBEAY32.dll
 0003:00000654       __imp_sk_shift             00069654     libeay32:LIBEAY32.dll
 0003:00000658       __imp_PEM_X509_INFO_read_bio 00069658     libeay32:LIBEAY32.dll
 0003:0000065c       __imp_PKCS7_SIGNED_new     0006965c     libeay32:LIBEAY32.dll
 0003:00000660       __imp_PKCS7_new            00069660     libeay32:LIBEAY32.dll
 0003:00000664       __imp_PEM_read_bio_X509_CRL 00069664     libeay32:LIBEAY32.dll
 0003:00000668       __imp_d2i_X509_CRL_bio     00069668     libeay32:LIBEAY32.dll
 0003:0000066c       __imp_X509_STORE_CTX_cleanup 0006966c     libeay32:LIBEAY32.dll
 0003:00000670       __imp_i2d_X509_CRL_bio     00069670     libeay32:LIBEAY32.dll
 0003:00000674       __imp_X509_CRL_digest      00069674     libeay32:LIBEAY32.dll
 0003:00000678       __imp_X509_NAME_hash       00069678     libeay32:LIBEAY32.dll
 0003:0000067c       __imp_i2a_ASN1_INTEGER     0006967c     libeay32:LIBEAY32.dll
 0003:00000680       __imp_X509_CRL_get_ext_d2i 00069680     libeay32:LIBEAY32.dll
 0003:00000684       __imp_X509_CRL_verify      00069684     libeay32:LIBEAY32.dll
 0003:00000688       __imp_X509_OBJECT_free_contents 00069688     libeay32:LIBEAY32.dll
 0003:0000068c       __imp_X509_STORE_get_by_subject 0006968c     libeay32:LIBEAY32.dll
 0003:00000690       __imp_EVP_sha1             00069690     libeay32:LIBEAY32.dll
 0003:00000694       __imp_i2b_PublicKey_bio    00069694     libeay32:LIBEAY32.dll
 0003:00000698       __imp_i2b_PrivateKey_bio   00069698     libeay32:LIBEAY32.dll
 0003:0000069c       __imp_i2b_PVK_bio          0006969c     libeay32:LIBEAY32.dll
 0003:000006a0       __imp_EVP_PKEY_set1_RSA    000696a0     libeay32:LIBEAY32.dll
 0003:000006a4       __imp_EVP_PKEY_new         000696a4     libeay32:LIBEAY32.dll
 0003:000006a8       __imp_PEM_write_bio_RSA_PUBKEY 000696a8     libeay32:LIBEAY32.dll
 0003:000006ac       __imp_PEM_write_bio_RSAPublicKey 000696ac     libeay32:LIBEAY32.dll
 0003:000006b0       __imp_PEM_write_bio_RSAPrivateKey 000696b0     libeay32:LIBEAY32.dll
 0003:000006b4       __imp_RSA_free             000696b4     libeay32:LIBEAY32.dll
 0003:000006b8       __imp_i2d_RSA_NET          000696b8     libeay32:LIBEAY32.dll
 0003:000006bc       __imp_i2d_RSA_PUBKEY_bio   000696bc     libeay32:LIBEAY32.dll
 0003:000006c0       __imp_i2d_RSAPublicKey_bio 000696c0     libeay32:LIBEAY32.dll
 0003:000006c4       __imp_i2d_RSAPrivateKey_bio 000696c4     libeay32:LIBEAY32.dll
 0003:000006c8       __imp_ERR_get_error        000696c8     libeay32:LIBEAY32.dll
 0003:000006cc       __imp_ERR_reason_error_string 000696cc     libeay32:LIBEAY32.dll
 0003:000006d0       __imp_RSA_check_key        000696d0     libeay32:LIBEAY32.dll
 0003:000006d4       __imp_RSA_print            000696d4     libeay32:LIBEAY32.dll
 0003:000006d8       __imp_EVP_PKEY_get1_RSA    000696d8     libeay32:LIBEAY32.dll
 0003:000006dc       __imp_BIO_dump             000696dc     libeay32:LIBEAY32.dll
 0003:000006e0       __imp_RSA_private_encrypt  000696e0     libeay32:LIBEAY32.dll
 0003:000006e4       __imp_RSA_public_decrypt   000696e4     libeay32:LIBEAY32.dll
 0003:000006e8       __imp_RSA_public_encrypt   000696e8     libeay32:LIBEAY32.dll
 0003:000006ec       __imp_RSA_private_decrypt  000696ec     libeay32:LIBEAY32.dll
 0003:000006f0       __imp_RSA_size             000696f0     libeay32:LIBEAY32.dll
 0003:000006f4       __imp_OPENSSL_add_all_algorithms_noconf 000696f4     libeay32:LIBEAY32.dll
 0003:000006f8       __imp_EVP_PKEY_set1_DSA    000696f8     libeay32:LIBEAY32.dll
 0003:000006fc       __imp_PEM_write_bio_DSA_PUBKEY 000696fc     libeay32:LIBEAY32.dll
 0003:00000700       __imp_PEM_write_bio_DSAPrivateKey 00069700     libeay32:LIBEAY32.dll
 0003:00000704       __imp_i2d_DSA_PUBKEY_bio   00069704     libeay32:LIBEAY32.dll
 0003:00000708       __imp_i2d_DSAPrivateKey_bio 00069708     libeay32:LIBEAY32.dll
 0003:0000070c       __imp_DSA_print            0006970c     libeay32:LIBEAY32.dll
 0003:00000710       __imp_EVP_PKEY_get1_DSA    00069710     libeay32:LIBEAY32.dll
 0003:00000714       __imp_DSA_generate_key     00069714     libeay32:LIBEAY32.dll
 0003:00000718       __imp_DSAparams_dup        00069718     libeay32:LIBEAY32.dll
 0003:0000071c       __imp_PEM_write_bio_DSAparams 0006971c     libeay32:LIBEAY32.dll
 0003:00000720       __imp_i2d_DSAparams        00069720     libeay32:LIBEAY32.dll
 0003:00000724       __imp_DSAparams_print      00069724     libeay32:LIBEAY32.dll
 0003:00000728       __imp_PEM_write_bio_EC_PUBKEY 00069728     libeay32:LIBEAY32.dll
 0003:0000072c       __imp_PEM_write_bio_ECPrivateKey 0006972c     libeay32:LIBEAY32.dll
 0003:00000730       __imp_PEM_write_bio_ECPKParameters 00069730     libeay32:LIBEAY32.dll
 0003:00000734       __imp_i2d_EC_PUBKEY_bio    00069734     libeay32:LIBEAY32.dll
 0003:00000738       __imp_i2d_ECPrivateKey_bio 00069738     libeay32:LIBEAY32.dll
 0003:0000073c       __imp_i2d_ECPKParameters   0006973c     libeay32:LIBEAY32.dll
 0003:00000740       __imp_EC_KEY_free          00069740     libeay32:LIBEAY32.dll
 0003:00000744       __imp_EC_KEY_print         00069744     libeay32:LIBEAY32.dll
 0003:00000748       __imp_EC_KEY_set_asn1_flag 00069748     libeay32:LIBEAY32.dll
 0003:0000074c       __imp_EC_KEY_set_conv_form 0006974c     libeay32:LIBEAY32.dll
 0003:00000750       __imp_EC_KEY_get0_group    00069750     libeay32:LIBEAY32.dll
 0003:00000754       __imp_PEM_read_bio_ECPrivateKey 00069754     libeay32:LIBEAY32.dll
 0003:00000758       __imp_PEM_read_bio_EC_PUBKEY 00069758     libeay32:LIBEAY32.dll
 0003:0000075c       __imp_d2i_ECPrivateKey_bio 0006975c     libeay32:LIBEAY32.dll
 0003:00000760       __imp_d2i_EC_PUBKEY_bio    00069760     libeay32:LIBEAY32.dll
 0003:00000764       __imp_EC_KEY_generate_key  00069764     libeay32:LIBEAY32.dll
 0003:00000768       __imp_EC_KEY_set_group     00069768     libeay32:LIBEAY32.dll
 0003:0000076c       __imp_EC_KEY_new           0006976c     libeay32:LIBEAY32.dll
 0003:00000770       __imp_EC_GROUP_free        00069770     libeay32:LIBEAY32.dll
 0003:00000774       __imp_EC_GROUP_get_cofactor 00069774     libeay32:LIBEAY32.dll
 0003:00000778       __imp_EC_GROUP_get_order   00069778     libeay32:LIBEAY32.dll
 0003:0000077c       __imp_EC_POINT_point2bn    0006977c     libeay32:LIBEAY32.dll
 0003:00000780       __imp_EC_GROUP_get_point_conversion_form 00069780     libeay32:LIBEAY32.dll
 0003:00000784       __imp_EC_GROUP_get0_generator 00069784     libeay32:LIBEAY32.dll
 0003:00000788       __imp_EC_GROUP_get_curve_GFp 00069788     libeay32:LIBEAY32.dll
 0003:0000078c       __imp_EC_METHOD_get_field_type 0006978c     libeay32:LIBEAY32.dll
 0003:00000790       __imp_BN_new               00069790     libeay32:LIBEAY32.dll
 0003:00000794       __imp_EC_GROUP_method_of   00069794     libeay32:LIBEAY32.dll
 0003:00000798       __imp_EC_GROUP_check       00069798     libeay32:LIBEAY32.dll
 0003:0000079c       __imp_ECPKParameters_print 0006979c     libeay32:LIBEAY32.dll
 0003:000007a0       __imp_EC_GROUP_set_seed    000697a0     libeay32:LIBEAY32.dll
 0003:000007a4       __imp_PEM_read_bio_ECPKParameters 000697a4     libeay32:LIBEAY32.dll
 0003:000007a8       __imp_d2i_ECPKParameters   000697a8     libeay32:LIBEAY32.dll
 0003:000007ac       __imp_EC_GROUP_set_point_conversion_form 000697ac     libeay32:LIBEAY32.dll
 0003:000007b0       __imp_EC_GROUP_set_asn1_flag 000697b0     libeay32:LIBEAY32.dll
 0003:000007b4       __imp_OBJ_sn2nid           000697b4     libeay32:LIBEAY32.dll
 0003:000007b8       __imp_EC_GROUP_new_by_curve_name 000697b8     libeay32:LIBEAY32.dll
 0003:000007bc       __imp_EC_get_builtin_curves 000697bc     libeay32:LIBEAY32.dll
 0003:000007c0       __imp_X509_get_ext_count   000697c0     libeay32:LIBEAY32.dll
 0003:000007c4       __imp_X509_delete_ext      000697c4     libeay32:LIBEAY32.dll
 0003:000007c8       __imp_X509_STORE_CTX_set_flags 000697c8     libeay32:LIBEAY32.dll
 0003:000007cc       __imp_X509_STORE_CTX_set_cert 000697cc     libeay32:LIBEAY32.dll
 0003:000007d0       __imp_X509_sign            000697d0     libeay32:LIBEAY32.dll
 0003:000007d4       __imp_EVP_PKEY_save_parameters 000697d4     libeay32:LIBEAY32.dll
 0003:000007d8       __imp_X509_check_purpose   000697d8     libeay32:LIBEAY32.dll
 0003:000007dc       __imp_X509_PURPOSE_get_id  000697dc     libeay32:LIBEAY32.dll
 0003:000007e0       __imp_ASN1_item_i2d_bio    000697e0     libeay32:LIBEAY32.dll
 0003:000007e4       __imp_NETSCAPE_X509_it     000697e4     libeay32:LIBEAY32.dll
 0003:000007e8       __imp_PEM_write_bio_X509_AUX 000697e8     libeay32:LIBEAY32.dll
 0003:000007ec       __imp_X509_cmp_time        000697ec     libeay32:LIBEAY32.dll
 0003:000007f0       __imp_X509_email_free      000697f0     libeay32:LIBEAY32.dll
 0003:000007f4       __imp_X509_get1_ocsp       000697f4     libeay32:LIBEAY32.dll
 0003:000007f8       __imp_X509_get1_email      000697f8     libeay32:LIBEAY32.dll
 0003:000007fc       __imp_X509_ocspid_print    000697fc     libeay32:LIBEAY32.dll
 0003:00000800       __imp_X509_digest          00069800     libeay32:LIBEAY32.dll
 0003:00000804       __imp_i2d_X509_PUBKEY      00069804     libeay32:LIBEAY32.dll
 0003:00000808       __imp_i2d_X509_NAME        00069808     libeay32:LIBEAY32.dll
 0003:0000080c       __imp_i2d_X509             0006980c     libeay32:LIBEAY32.dll
 0003:00000810       __imp_X509_issuer_name_hash_old 00069810     libeay32:LIBEAY32.dll
 0003:00000814       __imp_X509_issuer_name_hash 00069814     libeay32:LIBEAY32.dll
 0003:00000818       __imp_X509_subject_name_hash_old 00069818     libeay32:LIBEAY32.dll
 0003:0000081c       __imp_X509_subject_name_hash 0006981c     libeay32:LIBEAY32.dll
 0003:00000820       __imp_X509_alias_get0      00069820     libeay32:LIBEAY32.dll
 0003:00000824       __imp_X509_get_issuer_name 00069824     libeay32:LIBEAY32.dll
 0003:00000828       __imp_X509_add1_reject_object 00069828     libeay32:LIBEAY32.dll
 0003:0000082c       __imp_X509_add1_trust_object 0006982c     libeay32:LIBEAY32.dll
 0003:00000830       __imp_X509_reject_clear    00069830     libeay32:LIBEAY32.dll
 0003:00000834       __imp_X509_trust_clear     00069834     libeay32:LIBEAY32.dll
 0003:00000838       __imp_X509_alias_set1      00069838     libeay32:LIBEAY32.dll
 0003:0000083c       __imp_OBJ_create           0006983c     libeay32:LIBEAY32.dll
 0003:00000840       __imp_X509_STORE_set_default_paths 00069840     libeay32:LIBEAY32.dll
 0003:00000844       __imp_RSA_generate_key_ex  00069844     libeay32:LIBEAY32.dll
 0003:00000848       __imp_BN_set_word          00069848     libeay32:LIBEAY32.dll
 0003:0000084c       __imp_RSA_new_method       0006984c     libeay32:LIBEAY32.dll
 0003:00000850       __imp_RAND_status          00069850     libeay32:LIBEAY32.dll
 0003:00000854       __imp_EVP_camellia_256_cbc 00069854     libeay32:LIBEAY32.dll
 0003:00000858       __imp_EVP_camellia_192_cbc 00069858     libeay32:LIBEAY32.dll
 0003:0000085c       __imp_EVP_camellia_128_cbc 0006985c     libeay32:LIBEAY32.dll
 0003:00000860       __imp_EVP_aes_256_cbc      00069860     libeay32:LIBEAY32.dll
 0003:00000864       __imp_EVP_aes_192_cbc      00069864     libeay32:LIBEAY32.dll
 0003:00000868       __imp_EVP_aes_128_cbc      00069868     libeay32:LIBEAY32.dll
 0003:0000086c       __imp_EVP_seed_cbc         0006986c     libeay32:LIBEAY32.dll
 0003:00000870       __imp_EVP_idea_cbc         00069870     libeay32:LIBEAY32.dll
 0003:00000874       __imp_EVP_des_cbc          00069874     libeay32:LIBEAY32.dll
 0003:00000878       __imp_EVP_PKEY_paramgen_init 00069878     libeay32:LIBEAY32.dll
 0003:0000087c       __imp_ENGINE_get_pkey_asn1_meth_str 0006987c     libeay32:LIBEAY32.dll
 0003:00000880       __imp_EVP_PKEY_print_private 00069880     libeay32:LIBEAY32.dll
 0003:00000884       __imp_EVP_PKEY_print_params 00069884     libeay32:LIBEAY32.dll
 0003:00000888       __imp_i2d_PrivateKey_bio   00069888     libeay32:LIBEAY32.dll
 0003:0000088c       __imp_PEM_write_bio_Parameters 0006988c     libeay32:LIBEAY32.dll
 0003:00000890       __imp_EVP_PKEY_paramgen    00069890     libeay32:LIBEAY32.dll
 0003:00000894       __imp_BN_bin2bn            00069894     libeay32:LIBEAY32.dll
 0003:00000898       __imp_OCSP_RESPONSE_print  00069898     libeay32:LIBEAY32.dll
 0003:0000089c       __imp_i2d_OCSP_RESPONSE    0006989c     libeay32:LIBEAY32.dll
 0003:000008a0       __imp_OCSP_REQUEST_add_ext 000698a0     libeay32:LIBEAY32.dll
 0003:000008a4       __imp_OCSP_request_add0_id 000698a4     libeay32:LIBEAY32.dll
 0003:000008a8       __imp_OCSP_cert_to_id      000698a8     libeay32:LIBEAY32.dll
 0003:000008ac       __imp_OCSP_REQUEST_new     000698ac     libeay32:LIBEAY32.dll
 0003:000008b0       __imp_OCSP_RESPONSE_free   000698b0     libeay32:LIBEAY32.dll
 0003:000008b4       __imp_OCSP_REQUEST_free    000698b4     libeay32:LIBEAY32.dll
 0003:000008b8       __imp_OCSP_CERTID_free     000698b8     libeay32:LIBEAY32.dll
 0003:000008bc       __imp_OCSP_parse_url       000698bc     libeay32:LIBEAY32.dll
 0003:000008c0       __imp_BIO_sock_should_retry 000698c0     libeay32:LIBEAY32.dll
 0003:000008c4       __imp_SRP_VBASE_get_by_user 000698c4     libeay32:LIBEAY32.dll
 0003:000008c8       __imp_BIO_test_flags       000698c8     libeay32:LIBEAY32.dll
 0003:000008cc       __imp_BIO_f_nbio_test      000698cc     libeay32:LIBEAY32.dll
 0003:000008d0       __imp_BIO_new_socket       000698d0     libeay32:LIBEAY32.dll
 0003:000008d4       __imp_BIO_int_ctrl         000698d4     libeay32:LIBEAY32.dll
 0003:000008d8       __imp_BIO_socket_ioctl     000698d8     libeay32:LIBEAY32.dll
 0003:000008dc       __imp_BIO_f_buffer         000698dc     libeay32:LIBEAY32.dll
 0003:000008e0       __imp_RSA_new              000698e0     libeay32:LIBEAY32.dll
 0003:000008e4       __imp_BIO_new_dgram        000698e4     libeay32:LIBEAY32.dll
 0003:000008e8       __imp_SRP_VBASE_init       000698e8     libeay32:LIBEAY32.dll
 0003:000008ec       __imp_SRP_VBASE_new        000698ec     libeay32:LIBEAY32.dll
 0003:000008f0       __imp_EC_KEY_new_by_curve_name 000698f0     libeay32:LIBEAY32.dll
 0003:000008f4       __imp_BIO_s_null           000698f4     libeay32:LIBEAY32.dll
 0003:000008f8       __imp_BN_CTX_free          000698f8     libeay32:LIBEAY32.dll
 0003:000008fc       __imp_BN_cmp               000698fc     libeay32:LIBEAY32.dll
 0003:00000900       __imp_BN_mod_exp           00069900     libeay32:LIBEAY32.dll
 0003:00000904       __imp_BN_rshift1           00069904     libeay32:LIBEAY32.dll
 0003:00000908       __imp_BN_is_prime_ex       00069908     libeay32:LIBEAY32.dll
 0003:0000090c       __imp_BN_CTX_new           0006990c     libeay32:LIBEAY32.dll
 0003:00000910       __imp_SRP_check_known_gN_param 00069910     libeay32:LIBEAY32.dll
 0003:00000914       __imp_BIO_dump_indent      00069914     libeay32:LIBEAY32.dll
 0003:00000918       __imp_d2i_OCSP_RESPONSE    00069918     libeay32:LIBEAY32.dll
 0003:0000091c       __imp_BIO_pop              0006991c     libeay32:LIBEAY32.dll
 0003:00000920       __imp_SHA1                 00069920     libeay32:LIBEAY32.dll
 0003:00000924       __imp_BF_options           00069924     libeay32:LIBEAY32.dll
 0003:00000928       __imp_idea_options         00069928     libeay32:LIBEAY32.dll
 0003:0000092c       __imp_AES_options          0006992c     libeay32:LIBEAY32.dll
 0003:00000930       __imp_DES_options          00069930     libeay32:LIBEAY32.dll
 0003:00000934       __imp_RC4_options          00069934     libeay32:LIBEAY32.dll
 0003:00000938       __imp_BN_options           00069938     libeay32:LIBEAY32.dll
 0003:0000093c       __imp_SSLeay_version       0006993c     libeay32:LIBEAY32.dll
 0003:00000940       __imp_ECDH_compute_key     00069940     libeay32:LIBEAY32.dll
 0003:00000944       __imp_EC_KEY_get0_public_key 00069944     libeay32:LIBEAY32.dll
 0003:00000948       __imp_EC_GROUP_get_degree  00069948     libeay32:LIBEAY32.dll
 0003:0000094c       __imp_ECDSA_verify         0006994c     libeay32:LIBEAY32.dll
 0003:00000950       __imp_ECDSA_sign           00069950     libeay32:LIBEAY32.dll
 0003:00000954       __imp_EC_KEY_precompute_mult 00069954     libeay32:LIBEAY32.dll
 0003:00000958       __imp_RAND_cleanup         00069958     libeay32:LIBEAY32.dll
 0003:0000095c       __imp_DSA_verify           0006995c     libeay32:LIBEAY32.dll
 0003:00000960       __imp_DSA_sign             00069960     libeay32:LIBEAY32.dll
 0003:00000964       __imp_RAND_seed            00069964     libeay32:LIBEAY32.dll
 0003:00000968       __imp_RSA_verify           00069968     libeay32:LIBEAY32.dll
 0003:0000096c       __imp_RSA_sign             0006996c     libeay32:LIBEAY32.dll
 0003:00000970       __imp_EVP_CIPHER_CTX_cleanup 00069970     libeay32:LIBEAY32.dll
 0003:00000974       __imp_EVP_EncryptFinal_ex  00069974     libeay32:LIBEAY32.dll
 0003:00000978       __imp_EVP_DecryptFinal_ex  00069978     libeay32:LIBEAY32.dll
 0003:0000097c       __imp_EVP_EncryptUpdate    0006997c     libeay32:LIBEAY32.dll
 0003:00000980       __imp_EVP_DecryptUpdate    00069980     libeay32:LIBEAY32.dll
 0003:00000984       __imp_EVP_EncryptInit_ex   00069984     libeay32:LIBEAY32.dll
 0003:00000988       __imp_EVP_DecryptInit_ex   00069988     libeay32:LIBEAY32.dll
 0003:0000098c       __imp_EVP_CIPHER_CTX_init  0006998c     libeay32:LIBEAY32.dll
 0003:00000990       __imp_CAST_cbc_encrypt     00069990     libeay32:LIBEAY32.dll
 0003:00000994       __imp_BF_cbc_encrypt       00069994     libeay32:LIBEAY32.dll
 0003:00000998       __imp_RC2_cbc_encrypt      00069998     libeay32:LIBEAY32.dll
 0003:0000099c       __imp_SEED_cbc_encrypt     0006999c     libeay32:LIBEAY32.dll
 0003:000009a0       __imp_idea_cbc_encrypt     000699a0     libeay32:LIBEAY32.dll
 0003:000009a4       __imp_Camellia_cbc_encrypt 000699a4     libeay32:LIBEAY32.dll
 0003:000009a8       __imp_CRYPTO_gcm128_release 000699a8     libeay32:LIBEAY32.dll
 0003:000009ac       __imp_CRYPTO_gcm128_aad    000699ac     libeay32:LIBEAY32.dll
 0003:000009b0       __imp_CRYPTO_gcm128_setiv  000699b0     libeay32:LIBEAY32.dll
 0003:000009b4       __imp_CRYPTO_gcm128_new    000699b4     libeay32:LIBEAY32.dll
 0003:000009b8       __imp_AES_encrypt          000699b8     libeay32:LIBEAY32.dll
 0003:000009bc       __imp_AES_ige_encrypt      000699bc     libeay32:LIBEAY32.dll
 0003:000009c0       __imp_AES_cbc_encrypt      000699c0     libeay32:LIBEAY32.dll
 0003:000009c4       __imp_DES_ede3_cbc_encrypt 000699c4     libeay32:LIBEAY32.dll
 0003:000009c8       __imp_DES_ncbc_encrypt     000699c8     libeay32:LIBEAY32.dll
 0003:000009cc       __imp_RC4                  000699cc     libeay32:LIBEAY32.dll
 0003:000009d0       __imp_EVP_ripemd160        000699d0     libeay32:LIBEAY32.dll
 0003:000009d4       __imp_WHIRLPOOL            000699d4     libeay32:LIBEAY32.dll
 0003:000009d8       __imp_SHA512               000699d8     libeay32:LIBEAY32.dll
 0003:000009dc       __imp_SHA256               000699dc     libeay32:LIBEAY32.dll
 0003:000009e0       __imp_HMAC_CTX_cleanup     000699e0     libeay32:LIBEAY32.dll
 0003:000009e4       __imp_HMAC_Final           000699e4     libeay32:LIBEAY32.dll
 0003:000009e8       __imp_HMAC_Update          000699e8     libeay32:LIBEAY32.dll
 0003:000009ec       __imp_HMAC_Init_ex         000699ec     libeay32:LIBEAY32.dll
 0003:000009f0       __imp_HMAC_CTX_init        000699f0     libeay32:LIBEAY32.dll
 0003:000009f4       __imp_EVP_md4              000699f4     libeay32:LIBEAY32.dll
 0003:000009f8       __imp_EVP_Digest           000699f8     libeay32:LIBEAY32.dll
 0003:000009fc       __imp_EVP_mdc2             000699fc     libeay32:LIBEAY32.dll
 0003:00000a00       __imp_CAST_set_key         00069a00     libeay32:LIBEAY32.dll
 0003:00000a04       __imp_BF_set_key           00069a04     libeay32:LIBEAY32.dll
 0003:00000a08       __imp_RC2_set_key          00069a08     libeay32:LIBEAY32.dll
 0003:00000a0c       __imp_RC4_set_key          00069a0c     libeay32:LIBEAY32.dll
 0003:00000a10       __imp_SEED_set_key         00069a10     libeay32:LIBEAY32.dll
 0003:00000a14       __imp_idea_set_encrypt_key 00069a14     libeay32:LIBEAY32.dll
 0003:00000a18       __imp_Camellia_set_key     00069a18     libeay32:LIBEAY32.dll
 0003:00000a1c       __imp_AES_set_encrypt_key  00069a1c     libeay32:LIBEAY32.dll
 0003:00000a20       __imp_DES_set_key_unchecked 00069a20     libeay32:LIBEAY32.dll
 0003:00000a24       __imp_d2i_RSAPrivateKey    00069a24     libeay32:LIBEAY32.dll
 0003:00000a28       __imp_RSA_set_default_method 00069a28     libeay32:LIBEAY32.dll
 0003:00000a2c       __imp_RSA_PKCS1_SSLeay     00069a2c     libeay32:LIBEAY32.dll
 0003:00000a30       __imp_BIO_s_connect        00069a30     libeay32:LIBEAY32.dll
 0003:00000a34       __imp_CRYPTO_realloc       00069a34     libeay32:LIBEAY32.dll
 0003:00000a38       __imp_UI_method_get_opener 00069a38     libeay32:LIBEAY32.dll
 0003:00000a3c       __imp_UI_OpenSSL           00069a3c     libeay32:LIBEAY32.dll
 0003:00000a40       __imp_UI_method_get_reader 00069a40     libeay32:LIBEAY32.dll
 0003:00000a44       __imp_UI_set_result        00069a44     libeay32:LIBEAY32.dll
 0003:00000a48       __imp_UI_get_string_type   00069a48     libeay32:LIBEAY32.dll
 0003:00000a4c       __imp_UI_get0_user_data    00069a4c     libeay32:LIBEAY32.dll
 0003:00000a50       __imp_UI_get_input_flags   00069a50     libeay32:LIBEAY32.dll
 0003:00000a54       __imp_UI_method_get_writer 00069a54     libeay32:LIBEAY32.dll
 0003:00000a58       __imp_UI_method_get_closer 00069a58     libeay32:LIBEAY32.dll
 0003:00000a5c       __imp_UI_method_set_closer 00069a5c     libeay32:LIBEAY32.dll
 0003:00000a60       __imp_UI_method_set_writer 00069a60     libeay32:LIBEAY32.dll
 0003:00000a64       __imp_UI_method_set_reader 00069a64     libeay32:LIBEAY32.dll
 0003:00000a68       __imp_UI_method_set_opener 00069a68     libeay32:LIBEAY32.dll
 0003:00000a6c       __imp_UI_create_method     00069a6c     libeay32:LIBEAY32.dll
 0003:00000a70       __imp_UI_destroy_method    00069a70     libeay32:LIBEAY32.dll
 0003:00000a74       __imp_UI_free              00069a74     libeay32:LIBEAY32.dll
 0003:00000a78       __imp_UI_process           00069a78     libeay32:LIBEAY32.dll
 0003:00000a7c       __imp_UI_add_verify_string 00069a7c     libeay32:LIBEAY32.dll
 0003:00000a80       __imp_UI_add_input_string  00069a80     libeay32:LIBEAY32.dll
 0003:00000a84       __imp_UI_ctrl              00069a84     libeay32:LIBEAY32.dll
 0003:00000a88       __imp_UI_construct_prompt  00069a88     libeay32:LIBEAY32.dll
 0003:00000a8c       __imp_UI_new_method        00069a8c     libeay32:LIBEAY32.dll
 0003:00000a90       __imp_PKCS12_free          00069a90     libeay32:LIBEAY32.dll
 0003:00000a94       __imp_PKCS12_parse         00069a94     libeay32:LIBEAY32.dll
 0003:00000a98       __imp_PKCS12_verify_mac    00069a98     libeay32:LIBEAY32.dll
 0003:00000a9c       __imp_d2i_PKCS12_bio       00069a9c     libeay32:LIBEAY32.dll
 0003:00000aa0       __imp_PEM_read_bio_X509_AUX 00069aa0     libeay32:LIBEAY32.dll
 0003:00000aa4       __imp_NETSCAPE_X509_free   00069aa4     libeay32:LIBEAY32.dll
 0003:00000aa8       __imp_ASN1_item_d2i_bio    00069aa8     libeay32:LIBEAY32.dll
 0003:00000aac       __imp_d2i_X509_bio         00069aac     libeay32:LIBEAY32.dll
 0003:00000ab0       __imp_d2i_RSA_NET          00069ab0     libeay32:LIBEAY32.dll
 0003:00000ab4       __imp_BUF_MEM_grow_clean   00069ab4     libeay32:LIBEAY32.dll
 0003:00000ab8       __imp_X509_add_ext         00069ab8     libeay32:LIBEAY32.dll
 0003:00000abc       __imp_X509_get_ext         00069abc     libeay32:LIBEAY32.dll
 0003:00000ac0       __imp_X509_get_ext_by_OBJ  00069ac0     libeay32:LIBEAY32.dll
 0003:00000ac4       __imp_X509_EXTENSION_get_object 00069ac4     libeay32:LIBEAY32.dll
 0003:00000ac8       __imp_X509_REQ_get_extensions 00069ac8     libeay32:LIBEAY32.dll
 0003:00000acc       __imp_X509_NAME_print_ex   00069acc     libeay32:LIBEAY32.dll
 0003:00000ad0       __imp_ENGINE_ctrl_cmd_string 00069ad0     libeay32:LIBEAY32.dll
 0003:00000ad4       __imp_ENGINE_get_id        00069ad4     libeay32:LIBEAY32.dll
 0003:00000ad8       __imp_ENGINE_set_default   00069ad8     libeay32:LIBEAY32.dll
 0003:00000adc       __imp_ENGINE_ctrl_cmd      00069adc     libeay32:LIBEAY32.dll
 0003:00000ae0       __imp_ENGINE_ctrl          00069ae0     libeay32:LIBEAY32.dll
 0003:00000ae4       __imp_ENGINE_register_all_complete 00069ae4     libeay32:LIBEAY32.dll
 0003:00000ae8       __imp_CONF_modules_load    00069ae8     libeay32:LIBEAY32.dll
 0003:00000aec       __imp_OPENSSL_load_builtin_modules 00069aec     libeay32:LIBEAY32.dll
 0003:00000af0       __imp_lh_strhash           00069af0     libeay32:LIBEAY32.dll
 0003:00000af4       __imp_BN_pseudo_rand       00069af4     libeay32:LIBEAY32.dll
 0003:00000af8       __imp_TXT_DB_create_index  00069af8     libeay32:LIBEAY32.dll
 0003:00000afc       __imp_TXT_DB_free          00069afc     libeay32:LIBEAY32.dll
 0003:00000b00       __imp_X509_VERIFY_PARAM_set_time 00069b00     libeay32:LIBEAY32.dll
 0003:00000b04       __imp_X509_VERIFY_PARAM_set_depth 00069b04     libeay32:LIBEAY32.dll
 0003:00000b08       __imp_X509_VERIFY_PARAM_set_purpose 00069b08     libeay32:LIBEAY32.dll
 0003:00000b0c       __imp_X509_VERIFY_PARAM_set_flags 00069b0c     libeay32:LIBEAY32.dll
 0003:00000b10       __imp_X509_VERIFY_PARAM_add0_policy 00069b10     libeay32:LIBEAY32.dll
 0003:00000b14       __imp_X509_VERIFY_PARAM_new 00069b14     libeay32:LIBEAY32.dll
 0003:00000b18       __imp_X509_PURPOSE_get_by_sname 00069b18     libeay32:LIBEAY32.dll
 0003:00000b1c       __imp_BIO_s_mem            00069b1c     libeay32:LIBEAY32.dll
 0003:00000b20       __imp_EVP_PKEY_CTX_ctrl_str 00069b20     libeay32:LIBEAY32.dll
 0003:00000b24       __imp_X509_POLICY_NODE_print 00069b24     libeay32:LIBEAY32.dll
 0003:00000b28       __imp_X509_policy_tree_get0_user_policies 00069b28     libeay32:LIBEAY32.dll
 0003:00000b2c       __imp_X509_policy_tree_get0_policies 00069b2c     libeay32:LIBEAY32.dll
 0003:00000b30       __imp_X509_STORE_CTX_get_explicit_policy 00069b30     libeay32:LIBEAY32.dll
 0003:00000b34       __imp_X509_STORE_CTX_get0_policy_tree 00069b34     libeay32:LIBEAY32.dll
 0003:00000b38       __imp_b2i_PVK_bio          00069b38     libeay32:LIBEAY32.dll
 0003:00000b3c       __imp_b2i_PrivateKey_bio   00069b3c     libeay32:LIBEAY32.dll
 0003:00000b40       __imp_PEM_read_bio_PrivateKey 00069b40     libeay32:LIBEAY32.dll
 0003:00000b44       __imp_d2i_PrivateKey_bio   00069b44     libeay32:LIBEAY32.dll
 0003:00000b48       __imp_ENGINE_load_private_key 00069b48     libeay32:LIBEAY32.dll
 0003:00000b4c       __imp_b2i_PublicKey_bio    00069b4c     libeay32:LIBEAY32.dll
 0003:00000b50       __imp_PEM_read_bio_PUBKEY  00069b50     libeay32:LIBEAY32.dll
 0003:00000b54       __imp_PEM_read_bio_RSAPublicKey 00069b54     libeay32:LIBEAY32.dll
 0003:00000b58       __imp_d2i_RSAPublicKey_bio 00069b58     libeay32:LIBEAY32.dll
 0003:00000b5c       __imp_d2i_PUBKEY_bio       00069b5c     libeay32:LIBEAY32.dll
 0003:00000b60       __imp_ENGINE_load_public_key 00069b60     libeay32:LIBEAY32.dll
 0003:00000b64       __imp_X509V3_conf_free     00069b64     libeay32:LIBEAY32.dll
 0003:00000b68       __imp_X509V3_parse_list    00069b68     libeay32:LIBEAY32.dll
 0003:00000b6c       __imp_a2i_ASN1_INTEGER     00069b6c     libeay32:LIBEAY32.dll
 0003:00000b70       __imp_TXT_DB_read          00069b70     libeay32:LIBEAY32.dll
 0003:00000b74       __imp_BIO_get_callback_arg 00069b74     libeay32:LIBEAY32.dll
 0003:00000b78       __imp_HMAC                 00069b78     libeay32:LIBEAY32.dll
 0003:00000b7c       __imp_OpenSSLDie           00069b7c     libeay32:LIBEAY32.dll
 0003:00000b80       __imp_RAND_bytes           00069b80     libeay32:LIBEAY32.dll
 0003:00000b84       __imp_RAND_egd             00069b84     libeay32:LIBEAY32.dll
 0003:00000b88       __imp_RAND_load_file       00069b88     libeay32:LIBEAY32.dll
 0003:00000b8c       __imp_RAND_file_name       00069b8c     libeay32:LIBEAY32.dll
 0003:00000b90       __imp_RAND_screen          00069b90     libeay32:LIBEAY32.dll
 0003:00000b94       __imp_RAND_write_file      00069b94     libeay32:LIBEAY32.dll
 0003:00000b98       __imp_SSLeay               00069b98     libeay32:LIBEAY32.dll
 0003:00000b9c       __imp_NETSCAPE_CERT_SEQUENCE_free 00069b9c     libeay32:LIBEAY32.dll
 0003:00000ba0       __imp_PEM_read_bio_NETSCAPE_CERT_SEQUENCE 00069ba0     libeay32:LIBEAY32.dll
 0003:00000ba4       __imp_PEM_write_bio_NETSCAPE_CERT_SEQUENCE 00069ba4     libeay32:LIBEAY32.dll
 0003:00000ba8       __imp_NETSCAPE_CERT_SEQUENCE_new 00069ba8     libeay32:LIBEAY32.dll
 0003:00000bac       __imp_X509_STORE_CTX_get1_chain 00069bac     libeay32:LIBEAY32.dll
 0003:00000bb0       __imp_PBEPARAM_free        00069bb0     libeay32:LIBEAY32.dll
 0003:00000bb4       __imp_ASN1_INTEGER_get     00069bb4     libeay32:LIBEAY32.dll
 0003:00000bb8       __imp_d2i_PBEPARAM         00069bb8     libeay32:LIBEAY32.dll
 0003:00000bbc       __imp_PKCS12_SAFEBAG_free  00069bbc     libeay32:LIBEAY32.dll
 0003:00000bc0       __imp_PKCS12_unpack_p7encdata 00069bc0     libeay32:LIBEAY32.dll
 0003:00000bc4       __imp_PKCS12_unpack_p7data 00069bc4     libeay32:LIBEAY32.dll
 0003:00000bc8       __imp_PKCS12_unpack_authsafes 00069bc8     libeay32:LIBEAY32.dll
 0003:00000bcc       __imp_OPENSSL_uni2asc      00069bcc     libeay32:LIBEAY32.dll
 0003:00000bd0       __imp_i2d_PKCS12_bio       00069bd0     libeay32:LIBEAY32.dll
 0003:00000bd4       __imp_PKCS12_set_mac       00069bd4     libeay32:LIBEAY32.dll
 0003:00000bd8       __imp_PKCS12_create        00069bd8     libeay32:LIBEAY32.dll
 0003:00000bdc       __imp_EVP_PKEY_add1_attr_by_NID 00069bdc     libeay32:LIBEAY32.dll
 0003:00000be0       __imp_X509_STORE_load_locations 00069be0     libeay32:LIBEAY32.dll
 0003:00000be4       __imp_sk_delete            00069be4     libeay32:LIBEAY32.dll
 0003:00000be8       __imp_X509_keyid_set1      00069be8     libeay32:LIBEAY32.dll
 0003:00000bec       __imp_PKCS8_PRIV_KEY_INFO_free 00069bec     libeay32:LIBEAY32.dll
 0003:00000bf0       __imp_EVP_PKCS82PKEY       00069bf0     libeay32:LIBEAY32.dll
 0003:00000bf4       __imp_PKCS12_decrypt_skey  00069bf4     libeay32:LIBEAY32.dll
 0003:00000bf8       __imp_PKCS12_certbag2x509  00069bf8     libeay32:LIBEAY32.dll
 0003:00000bfc       __imp_PKCS12_get_attr_gen  00069bfc     libeay32:LIBEAY32.dll
 0003:00000c00       __imp_X509_SIG_free        00069c00     libeay32:LIBEAY32.dll
 0003:00000c04       __imp_PKCS8_decrypt        00069c04     libeay32:LIBEAY32.dll
 0003:00000c08       __imp_d2i_PKCS8_bio        00069c08     libeay32:LIBEAY32.dll
 0003:00000c0c       __imp_PEM_read_bio_PKCS8   00069c0c     libeay32:LIBEAY32.dll
 0003:00000c10       __imp_d2i_PKCS8_PRIV_KEY_INFO_bio 00069c10     libeay32:LIBEAY32.dll
 0003:00000c14       __imp_PEM_read_bio_PKCS8_PRIV_KEY_INFO 00069c14     libeay32:LIBEAY32.dll
 0003:00000c18       __imp_i2d_PKCS8_bio        00069c18     libeay32:LIBEAY32.dll
 0003:00000c1c       __imp_PEM_write_bio_PKCS8  00069c1c     libeay32:LIBEAY32.dll
 0003:00000c20       __imp_PKCS8_encrypt        00069c20     libeay32:LIBEAY32.dll
 0003:00000c24       __imp_i2d_PKCS8_PRIV_KEY_INFO_bio 00069c24     libeay32:LIBEAY32.dll
 0003:00000c28       __imp_PEM_write_bio_PKCS8_PRIV_KEY_INFO 00069c28     libeay32:LIBEAY32.dll
 0003:00000c2c       __imp_EVP_PKEY2PKCS8_broken 00069c2c     libeay32:LIBEAY32.dll
 0003:00000c30       __imp_i2d_PUBKEY_bio       00069c30     libeay32:LIBEAY32.dll
 0003:00000c34       __imp_EVP_PKEY_print_public 00069c34     libeay32:LIBEAY32.dll
 0003:00000c38       __imp_EVP_PKEY_sign_init   00069c38     libeay32:LIBEAY32.dll
 0003:00000c3c       __imp_EVP_PKEY_verify_init 00069c3c     libeay32:LIBEAY32.dll
 0003:00000c40       __imp_EVP_PKEY_verify_recover_init 00069c40     libeay32:LIBEAY32.dll
 0003:00000c44       __imp_EVP_PKEY_encrypt_init 00069c44     libeay32:LIBEAY32.dll
 0003:00000c48       __imp_EVP_PKEY_decrypt_init 00069c48     libeay32:LIBEAY32.dll
 0003:00000c4c       __imp_EVP_PKEY_derive_init 00069c4c     libeay32:LIBEAY32.dll
 0003:00000c50       __imp_EVP_PKEY_derive_set_peer 00069c50     libeay32:LIBEAY32.dll
 0003:00000c54       __imp_EVP_PKEY_sign        00069c54     libeay32:LIBEAY32.dll
 0003:00000c58       __imp_EVP_PKEY_verify_recover 00069c58     libeay32:LIBEAY32.dll
 0003:00000c5c       __imp_EVP_PKEY_encrypt     00069c5c     libeay32:LIBEAY32.dll
 0003:00000c60       __imp_EVP_PKEY_decrypt     00069c60     libeay32:LIBEAY32.dll
 0003:00000c64       __imp_EVP_PKEY_derive      00069c64     libeay32:LIBEAY32.dll
 0003:00000c68       __imp_EVP_PKEY_verify      00069c68     libeay32:LIBEAY32.dll
 0003:00000c6c       __imp_NETSCAPE_SPKI_print  00069c6c     libeay32:LIBEAY32.dll
 0003:00000c70       __imp_NCONF_load_bio       00069c70     libeay32:LIBEAY32.dll
 0003:00000c74       __imp_NETSCAPE_SPKI_b64_encode 00069c74     libeay32:LIBEAY32.dll
 0003:00000c78       __imp_NETSCAPE_SPKI_sign   00069c78     libeay32:LIBEAY32.dll
 0003:00000c7c       __imp_NETSCAPE_SPKI_set_pubkey 00069c7c     libeay32:LIBEAY32.dll
 0003:00000c80       __imp_ASN1_STRING_set      00069c80     libeay32:LIBEAY32.dll
 0003:00000c84       __imp_NETSCAPE_SPKI_new    00069c84     libeay32:LIBEAY32.dll
 0003:00000c88       __imp_i2d_PKCS7_bio_stream 00069c88     libeay32:LIBEAY32.dll
 0003:00000c8c       __imp_PEM_write_bio_PKCS7_stream 00069c8c     libeay32:LIBEAY32.dll
 0003:00000c90       __imp_SMIME_write_PKCS7    00069c90     libeay32:LIBEAY32.dll
 0003:00000c94       __imp_PKCS7_get0_signers   00069c94     libeay32:LIBEAY32.dll
 0003:00000c98       __imp_PKCS7_verify         00069c98     libeay32:LIBEAY32.dll
 0003:00000c9c       __imp_PKCS7_decrypt        00069c9c     libeay32:LIBEAY32.dll
 0003:00000ca0       __imp_PKCS7_final          00069ca0     libeay32:LIBEAY32.dll
 0003:00000ca4       __imp_PKCS7_sign_add_signer 00069ca4     libeay32:LIBEAY32.dll
 0003:00000ca8       __imp_PKCS7_sign           00069ca8     libeay32:LIBEAY32.dll
 0003:00000cac       __imp_PKCS7_encrypt        00069cac     libeay32:LIBEAY32.dll
 0003:00000cb0       __imp_SMIME_read_PKCS7     00069cb0     libeay32:LIBEAY32.dll
 0003:00000cb4       __imp_EVP_rc2_64_cbc       00069cb4     libeay32:LIBEAY32.dll
 0003:00000cb8       __imp_EVP_rc2_cbc          00069cb8     libeay32:LIBEAY32.dll
 0003:00000cbc       __imp_EVP_rc2_40_cbc       00069cbc     libeay32:LIBEAY32.dll
 0003:00000cc0       __imp_GENERAL_NAME_print   00069cc0     libeay32:LIBEAY32.dll
 0003:00000cc4       __imp_CMS_ReceiptRequest_free 00069cc4     libeay32:LIBEAY32.dll
 0003:00000cc8       __imp_ASN1_STRING_data     00069cc8     libeay32:LIBEAY32.dll
 0003:00000ccc       __imp_ASN1_STRING_length   00069ccc     libeay32:LIBEAY32.dll
 0003:00000cd0       __imp_CMS_ReceiptRequest_get0_values 00069cd0     libeay32:LIBEAY32.dll
 0003:00000cd4       __imp_CMS_get1_ReceiptRequest 00069cd4     libeay32:LIBEAY32.dll
 0003:00000cd8       __imp_CMS_get0_SignerInfos 00069cd8     libeay32:LIBEAY32.dll
 0003:00000cdc       __imp_GENERAL_NAME_free    00069cdc     libeay32:LIBEAY32.dll
 0003:00000ce0       __imp_GENERAL_NAMES_free   00069ce0     libeay32:LIBEAY32.dll
 0003:00000ce4       __imp_GENERAL_NAMES_new    00069ce4     libeay32:LIBEAY32.dll
 0003:00000ce8       __imp_a2i_GENERAL_NAME     00069ce8     libeay32:LIBEAY32.dll
 0003:00000cec       __imp_CMS_ReceiptRequest_create0 00069cec     libeay32:LIBEAY32.dll
 0003:00000cf0       __imp_i2d_CMS_bio_stream   00069cf0     libeay32:LIBEAY32.dll
 0003:00000cf4       __imp_PEM_write_bio_CMS_stream 00069cf4     libeay32:LIBEAY32.dll
 0003:00000cf8       __imp_SMIME_write_CMS      00069cf8     libeay32:LIBEAY32.dll
 0003:00000cfc       __imp_CMS_ContentInfo_print_ctx 00069cfc     libeay32:LIBEAY32.dll
 0003:00000d00       __imp_CMS_verify_receipt   00069d00     libeay32:LIBEAY32.dll
 0003:00000d04       __imp_CMS_get0_signers     00069d04     libeay32:LIBEAY32.dll
 0003:00000d08       __imp_CMS_verify           00069d08     libeay32:LIBEAY32.dll
 0003:00000d0c       __imp_CMS_EncryptedData_decrypt 00069d0c     libeay32:LIBEAY32.dll
 0003:00000d10       __imp_CMS_digest_verify    00069d10     libeay32:LIBEAY32.dll
 0003:00000d14       __imp_CMS_uncompress       00069d14     libeay32:LIBEAY32.dll
 0003:00000d18       __imp_CMS_data             00069d18     libeay32:LIBEAY32.dll
 0003:00000d1c       __imp_CMS_decrypt_set1_password 00069d1c     libeay32:LIBEAY32.dll
 0003:00000d20       __imp_CMS_decrypt_set1_pkey 00069d20     libeay32:LIBEAY32.dll
 0003:00000d24       __imp_CMS_decrypt_set1_key 00069d24     libeay32:LIBEAY32.dll
 0003:00000d28       __imp_CMS_decrypt          00069d28     libeay32:LIBEAY32.dll
 0003:00000d2c       __imp_CMS_add1_ReceiptRequest 00069d2c     libeay32:LIBEAY32.dll
 0003:00000d30       __imp_CMS_add1_signer      00069d30     libeay32:LIBEAY32.dll
 0003:00000d34       __imp_CMS_set1_eContentType 00069d34     libeay32:LIBEAY32.dll
 0003:00000d38       __imp_CMS_sign             00069d38     libeay32:LIBEAY32.dll
 0003:00000d3c       __imp_CMS_sign_receipt     00069d3c     libeay32:LIBEAY32.dll
 0003:00000d40       __imp_CMS_EncryptedData_encrypt 00069d40     libeay32:LIBEAY32.dll
 0003:00000d44       __imp_CMS_final            00069d44     libeay32:LIBEAY32.dll
 0003:00000d48       __imp_CMS_add0_recipient_password 00069d48     libeay32:LIBEAY32.dll
 0003:00000d4c       __imp_CMS_add0_recipient_key 00069d4c     libeay32:LIBEAY32.dll
 0003:00000d50       __imp_CMS_encrypt          00069d50     libeay32:LIBEAY32.dll
 0003:00000d54       __imp_CMS_compress         00069d54     libeay32:LIBEAY32.dll
 0003:00000d58       __imp_CMS_digest_create    00069d58     libeay32:LIBEAY32.dll
 0003:00000d5c       __imp_CMS_data_create      00069d5c     libeay32:LIBEAY32.dll
 0003:00000d60       __imp_CMS_get1_certs       00069d60     libeay32:LIBEAY32.dll
 0003:00000d64       __imp_d2i_CMS_bio          00069d64     libeay32:LIBEAY32.dll
 0003:00000d68       __imp_PEM_read_bio_CMS     00069d68     libeay32:LIBEAY32.dll
 0003:00000d6c       __imp_SMIME_read_CMS       00069d6c     libeay32:LIBEAY32.dll
 0003:00000d70       __imp_CMS_ContentInfo_free 00069d70     libeay32:LIBEAY32.dll
 0003:00000d74       __imp_string_to_hex        00069d74     libeay32:LIBEAY32.dll
 0003:00000d78       __imp_ERR_print_errors_fp  00069d78     libeay32:LIBEAY32.dll
 0003:00000d7c       __imp_ENGINE_init          00069d7c     libeay32:LIBEAY32.dll
 0003:00000d80       __imp_ENGINE_get_pkey_meths 00069d80     libeay32:LIBEAY32.dll
 0003:00000d84       __imp_ENGINE_get_digests   00069d84     libeay32:LIBEAY32.dll
 0003:00000d88       __imp_ENGINE_get_ciphers   00069d88     libeay32:LIBEAY32.dll
 0003:00000d8c       __imp_ENGINE_get_RAND      00069d8c     libeay32:LIBEAY32.dll
 0003:00000d90       __imp_ENGINE_get_DH        00069d90     libeay32:LIBEAY32.dll
 0003:00000d94       __imp_ENGINE_get_DSA       00069d94     libeay32:LIBEAY32.dll
 0003:00000d98       __imp_ENGINE_get_RSA       00069d98     libeay32:LIBEAY32.dll
 0003:00000d9c       __imp_ENGINE_get_name      00069d9c     libeay32:LIBEAY32.dll
 0003:00000da0       __imp_ENGINE_get_next      00069da0     libeay32:LIBEAY32.dll
 0003:00000da4       __imp_ENGINE_get_first     00069da4     libeay32:LIBEAY32.dll
 0003:00000da8       __imp_OCSP_cert_id_new     00069da8     libeay32:LIBEAY32.dll
 0003:00000dac       __imp_X509_get0_pubkey_bitstr 00069dac     libeay32:LIBEAY32.dll
 0003:00000db0       __imp_OCSP_crl_reason_str  00069db0     libeay32:LIBEAY32.dll
 0003:00000db4       __imp_ASN1_GENERALIZEDTIME_print 00069db4     libeay32:LIBEAY32.dll
 0003:00000db8       __imp_OCSP_cert_status_str 00069db8     libeay32:LIBEAY32.dll
 0003:00000dbc       __imp_OCSP_check_validity  00069dbc     libeay32:LIBEAY32.dll
 0003:00000dc0       __imp_OCSP_resp_find_status 00069dc0     libeay32:LIBEAY32.dll
 0003:00000dc4       __imp_BIO_new_accept       00069dc4     libeay32:LIBEAY32.dll
 0003:00000dc8       __imp_d2i_OCSP_REQUEST     00069dc8     libeay32:LIBEAY32.dll
 0003:00000dcc       __imp_OCSP_REQ_CTX_free    00069dcc     libeay32:LIBEAY32.dll
 0003:00000dd0       __imp_OCSP_sendreq_nbio    00069dd0     libeay32:LIBEAY32.dll
 0003:00000dd4       __imp_OCSP_REQ_CTX_set1_req 00069dd4     libeay32:LIBEAY32.dll
 0003:00000dd8       __imp_OCSP_REQ_CTX_add1_header 00069dd8     libeay32:LIBEAY32.dll
 0003:00000ddc       __imp_OCSP_sendreq_new     00069ddc     libeay32:LIBEAY32.dll
 0003:00000de0       __imp_BIO_new_connect      00069de0     libeay32:LIBEAY32.dll
 0003:00000de4       __imp_OCSP_BASICRESP_free  00069de4     libeay32:LIBEAY32.dll
 0003:00000de8       __imp_OCSP_response_create 00069de8     libeay32:LIBEAY32.dll
 0003:00000dec       __imp_OCSP_basic_sign      00069dec     libeay32:LIBEAY32.dll
 0003:00000df0       __imp_OCSP_copy_nonce      00069df0     libeay32:LIBEAY32.dll
 0003:00000df4       __imp_OCSP_SINGLERESP_add1_ext_i2d 00069df4     libeay32:LIBEAY32.dll
 0003:00000df8       __imp_OCSP_basic_add1_status 00069df8     libeay32:LIBEAY32.dll
 0003:00000dfc       __imp_OCSP_id_issuer_cmp   00069dfc     libeay32:LIBEAY32.dll
 0003:00000e00       __imp_OCSP_id_get0_info    00069e00     libeay32:LIBEAY32.dll
 0003:00000e04       __imp_OCSP_onereq_get0_id  00069e04     libeay32:LIBEAY32.dll
 0003:00000e08       __imp_OCSP_request_onereq_get0 00069e08     libeay32:LIBEAY32.dll
 0003:00000e0c       __imp_OCSP_BASICRESP_new   00069e0c     libeay32:LIBEAY32.dll
 0003:00000e10       __imp_OCSP_request_onereq_count 00069e10     libeay32:LIBEAY32.dll
 0003:00000e14       __imp_OCSP_basic_verify    00069e14     libeay32:LIBEAY32.dll
 0003:00000e18       __imp_OCSP_check_nonce     00069e18     libeay32:LIBEAY32.dll
 0003:00000e1c       __imp_OCSP_response_get1_basic 00069e1c     libeay32:LIBEAY32.dll
 0003:00000e20       __imp_OCSP_response_status_str 00069e20     libeay32:LIBEAY32.dll
 0003:00000e24       __imp_OCSP_response_status 00069e24     libeay32:LIBEAY32.dll
 0003:00000e28       __imp_OCSP_RESPONSE_new    00069e28     libeay32:LIBEAY32.dll
 0003:00000e2c       __imp_i2d_OCSP_REQUEST     00069e2c     libeay32:LIBEAY32.dll
 0003:00000e30       __imp_OCSP_REQUEST_print   00069e30     libeay32:LIBEAY32.dll
 0003:00000e34       __imp_OCSP_request_sign    00069e34     libeay32:LIBEAY32.dll
 0003:00000e38       __imp_OCSP_request_add1_nonce 00069e38     libeay32:LIBEAY32.dll
 0003:00000e3c       __imp_X509V3_add_value     00069e3c     libeay32:LIBEAY32.dll
 0003:00000e40       __imp_BN_dec2bn            00069e40     libeay32:LIBEAY32.dll
 0003:00000e44       __imp_BN_bn2dec            00069e44     libeay32:LIBEAY32.dll
 0003:00000e48       __imp_BN_generate_prime_ex 00069e48     libeay32:LIBEAY32.dll
 0003:00000e4c       __imp_EVP_DigestFinal      00069e4c     libeay32:LIBEAY32.dll
 0003:00000e50       __imp_EVP_DigestInit       00069e50     libeay32:LIBEAY32.dll
 0003:00000e54       __imp_EVP_MD_size          00069e54     libeay32:LIBEAY32.dll
 0003:00000e58       __imp_TS_STATUS_INFO_free  00069e58     libeay32:LIBEAY32.dll
 0003:00000e5c       __imp_TS_RESP_free         00069e5c     libeay32:LIBEAY32.dll
 0003:00000e60       __imp_TS_TST_INFO_free     00069e60     libeay32:LIBEAY32.dll
 0003:00000e64       __imp_TS_RESP_set_tst_info 00069e64     libeay32:LIBEAY32.dll
 0003:00000e68       __imp_TS_RESP_set_status_info 00069e68     libeay32:LIBEAY32.dll
 0003:00000e6c       __imp_TS_STATUS_INFO_new   00069e6c     libeay32:LIBEAY32.dll
 0003:00000e70       __imp_TS_RESP_new          00069e70     libeay32:LIBEAY32.dll
 0003:00000e74       __imp_PKCS7_to_TS_TST_INFO 00069e74     libeay32:LIBEAY32.dll
 0003:00000e78       __imp_X509_ALGOR_free      00069e78     libeay32:LIBEAY32.dll
 0003:00000e7c       __imp_TS_MSG_IMPRINT_free  00069e7c     libeay32:LIBEAY32.dll
 0003:00000e80       __imp_TS_REQ_free          00069e80     libeay32:LIBEAY32.dll
 0003:00000e84       __imp_TS_REQ_set_cert_req  00069e84     libeay32:LIBEAY32.dll
 0003:00000e88       __imp_TS_REQ_set_nonce     00069e88     libeay32:LIBEAY32.dll
 0003:00000e8c       __imp_TS_REQ_set_policy_id 00069e8c     libeay32:LIBEAY32.dll
 0003:00000e90       __imp_TS_REQ_set_msg_imprint 00069e90     libeay32:LIBEAY32.dll
 0003:00000e94       __imp_TS_MSG_IMPRINT_set_msg 00069e94     libeay32:LIBEAY32.dll
 0003:00000e98       __imp_TS_MSG_IMPRINT_set_algo 00069e98     libeay32:LIBEAY32.dll
 0003:00000e9c       __imp_ASN1_TYPE_new        00069e9c     libeay32:LIBEAY32.dll
 0003:00000ea0       __imp_X509_ALGOR_new       00069ea0     libeay32:LIBEAY32.dll
 0003:00000ea4       __imp_TS_MSG_IMPRINT_new   00069ea4     libeay32:LIBEAY32.dll
 0003:00000ea8       __imp_TS_REQ_set_version   00069ea8     libeay32:LIBEAY32.dll
 0003:00000eac       __imp_TS_REQ_new           00069eac     libeay32:LIBEAY32.dll
 0003:00000eb0       __imp_TS_RESP_CTX_add_failure_info 00069eb0     libeay32:LIBEAY32.dll
 0003:00000eb4       __imp_TS_RESP_CTX_set_status_info 00069eb4     libeay32:LIBEAY32.dll
 0003:00000eb8       __imp_i2d_TS_REQ_bio       00069eb8     libeay32:LIBEAY32.dll
 0003:00000ebc       __imp_TS_REQ_print_bio     00069ebc     libeay32:LIBEAY32.dll
 0003:00000ec0       __imp_d2i_TS_REQ_bio       00069ec0     libeay32:LIBEAY32.dll
 0003:00000ec4       __imp_TS_RESP_CTX_free     00069ec4     libeay32:LIBEAY32.dll
 0003:00000ec8       __imp_TS_RESP_create_response 00069ec8     libeay32:LIBEAY32.dll
 0003:00000ecc       __imp_TS_CONF_set_ess_cert_id_chain 00069ecc     libeay32:LIBEAY32.dll
 0003:00000ed0       __imp_TS_CONF_set_tsa_name 00069ed0     libeay32:LIBEAY32.dll
 0003:00000ed4       __imp_TS_CONF_set_ordering 00069ed4     libeay32:LIBEAY32.dll
 0003:00000ed8       __imp_TS_CONF_set_clock_precision_digits 00069ed8     libeay32:LIBEAY32.dll
 0003:00000edc       __imp_TS_CONF_set_accuracy 00069edc     libeay32:LIBEAY32.dll
 0003:00000ee0       __imp_TS_CONF_set_digests  00069ee0     libeay32:LIBEAY32.dll
 0003:00000ee4       __imp_TS_CONF_set_policies 00069ee4     libeay32:LIBEAY32.dll
 0003:00000ee8       __imp_TS_CONF_set_def_policy 00069ee8     libeay32:LIBEAY32.dll
 0003:00000eec       \177LIBEAY32_NULL_THUNK_DATA 00069eec     libeay32:LIBEAY32.dll
 0003:00000ef0       __imp_BIO_new_ssl          00069ef0     ssleay32:SSLEAY32.dll
 0003:00000ef4       __imp_SSL_get_cipher_list  00069ef4     ssleay32:SSLEAY32.dll
 0003:00000ef8       __imp_SSL_CIPHER_get_id    00069ef8     ssleay32:SSLEAY32.dll
 0003:00000efc       __imp_SSL_CIPHER_description 00069efc     ssleay32:SSLEAY32.dll
 0003:00000f00       __imp_SSL_SESSION_get0_peer 00069f00     ssleay32:SSLEAY32.dll
 0003:00000f04       __imp_SSL_SESSION_set1_id_context 00069f04     ssleay32:SSLEAY32.dll
 0003:00000f08       __imp_i2d_SSL_SESSION      00069f08     ssleay32:SSLEAY32.dll
 0003:00000f0c       __imp_d2i_SSL_SESSION      00069f0c     ssleay32:SSLEAY32.dll
 0003:00000f10       __imp_SSL_SESSION_new      00069f10     ssleay32:SSLEAY32.dll
 0003:00000f14       __imp_SSL_state_string_long 00069f14     ssleay32:SSLEAY32.dll
 0003:00000f18       __imp_SSL_alert_desc_string_long 00069f18     ssleay32:SSLEAY32.dll
 0003:00000f1c       __imp_SSL_alert_type_string_long 00069f1c     ssleay32:SSLEAY32.dll
 0003:00000f20       __imp_SSL_CTX_use_certificate 00069f20     ssleay32:SSLEAY32.dll
 0003:00000f24       __imp_SSL_CTX_use_PrivateKey 00069f24     ssleay32:SSLEAY32.dll
 0003:00000f28       __imp_SSL_CTX_use_certificate_file 00069f28     ssleay32:SSLEAY32.dll
 0003:00000f2c       __imp_SSL_CTX_use_PrivateKey_file 00069f2c     ssleay32:SSLEAY32.dll
 0003:00000f30       __imp_SSL_CTX_check_private_key 00069f30     ssleay32:SSLEAY32.dll
 0003:00000f34       __imp_SSL_connect          00069f34     ssleay32:SSLEAY32.dll
 0003:00000f38       __imp_SSLv23_client_method 00069f38     ssleay32:SSLEAY32.dll
 0003:00000f3c       __imp_TLSv1_client_method  00069f3c     ssleay32:SSLEAY32.dll
 0003:00000f40       __imp_SSLv2_client_method  00069f40     ssleay32:SSLEAY32.dll
 0003:00000f44       __imp_SSLv3_client_method  00069f44     ssleay32:SSLEAY32.dll
 0003:00000f48       __imp_TLSv1_2_client_method 00069f48     ssleay32:SSLEAY32.dll
 0003:00000f4c       __imp_TLSv1_1_client_method 00069f4c     ssleay32:SSLEAY32.dll
 0003:00000f50       __imp_DTLSv1_client_method 00069f50     ssleay32:SSLEAY32.dll
 0003:00000f54       __imp_SSL_CTX_set_client_cert_engine 00069f54     ssleay32:SSLEAY32.dll
 0003:00000f58       __imp_SSL_CTX_set_psk_client_callback 00069f58     ssleay32:SSLEAY32.dll
 0003:00000f5c       __imp_SSL_CTX_set_next_proto_select_cb 00069f5c     ssleay32:SSLEAY32.dll
 0003:00000f60       __imp_SSL_CTX_set_srp_username 00069f60     ssleay32:SSLEAY32.dll
 0003:00000f64       __imp_SSL_CTX_set_srp_client_pwd_callback 00069f64     ssleay32:SSLEAY32.dll
 0003:00000f68       __imp_SSL_CTX_set_srp_strength 00069f68     ssleay32:SSLEAY32.dll
 0003:00000f6c       __imp_SSL_CTX_set_srp_verify_param_callback 00069f6c     ssleay32:SSLEAY32.dll
 0003:00000f70       __imp_PEM_read_bio_SSL_SESSION 00069f70     ssleay32:SSLEAY32.dll
 0003:00000f74       __imp_SSL_set_session      00069f74     ssleay32:SSLEAY32.dll
 0003:00000f78       __imp_SSL_SESSION_free     00069f78     ssleay32:SSLEAY32.dll
 0003:00000f7c       __imp_SSL_set_connect_state 00069f7c     ssleay32:SSLEAY32.dll
 0003:00000f80       __imp_SSL_get_fd           00069f80     ssleay32:SSLEAY32.dll
 0003:00000f84       __imp_SSL_shutdown         00069f84     ssleay32:SSLEAY32.dll
 0003:00000f88       __imp_SSL_get_peer_cert_chain 00069f88     ssleay32:SSLEAY32.dll
 0003:00000f8c       __imp_SSL_get_client_CA_list 00069f8c     ssleay32:SSLEAY32.dll
 0003:00000f90       __imp_SSL_get_current_compression 00069f90     ssleay32:SSLEAY32.dll
 0003:00000f94       __imp_SSL_get_current_expansion 00069f94     ssleay32:SSLEAY32.dll
 0003:00000f98       __imp_SSL_COMP_get_name    00069f98     ssleay32:SSLEAY32.dll
 0003:00000f9c       __imp_SSL_select_next_proto 00069f9c     ssleay32:SSLEAY32.dll
 0003:00000fa0       __imp_SSL_get_srp_N        00069fa0     ssleay32:SSLEAY32.dll
 0003:00000fa4       __imp_SSL_get_srp_g        00069fa4     ssleay32:SSLEAY32.dll
 0003:00000fa8       __imp_SSL_get_servername_type 00069fa8     ssleay32:SSLEAY32.dll
 0003:00000fac       __imp_SSLv23_server_method 00069fac     ssleay32:SSLEAY32.dll
 0003:00000fb0       __imp_SSL_set_srp_server_param 00069fb0     ssleay32:SSLEAY32.dll
 0003:00000fb4       __imp_SSL_get_srp_username 00069fb4     ssleay32:SSLEAY32.dll
 0003:00000fb8       __imp_SSL_set_SSL_CTX      00069fb8     ssleay32:SSLEAY32.dll
 0003:00000fbc       __imp_SSL_get_servername   00069fbc     ssleay32:SSLEAY32.dll
 0003:00000fc0       __imp_SSL_ctrl             00069fc0     ssleay32:SSLEAY32.dll
 0003:00000fc4       __imp_SSL_CTX_get_cert_store 00069fc4     ssleay32:SSLEAY32.dll
 0003:00000fc8       __imp_SSL_get_SSL_CTX      00069fc8     ssleay32:SSLEAY32.dll
 0003:00000fcc       __imp_SSL_get_certificate  00069fcc     ssleay32:SSLEAY32.dll
 0003:00000fd0       __imp_SSL_CTX_ctrl         00069fd0     ssleay32:SSLEAY32.dll
 0003:00000fd4       __imp_SSL_export_keying_material 00069fd4     ssleay32:SSLEAY32.dll
 0003:00000fd8       __imp_SSL_cache_hit        00069fd8     ssleay32:SSLEAY32.dll
 0003:00000fdc       __imp_SSL_get_selected_srtp_profile 00069fdc     ssleay32:SSLEAY32.dll
 0003:00000fe0       __imp_SSL_get0_next_proto_negotiated 00069fe0     ssleay32:SSLEAY32.dll
 0003:00000fe4       __imp_SSL_CIPHER_get_name  00069fe4     ssleay32:SSLEAY32.dll
 0003:00000fe8       __imp_SSL_get_current_cipher 00069fe8     ssleay32:SSLEAY32.dll
 0003:00000fec       __imp_SSL_get_shared_ciphers 00069fec     ssleay32:SSLEAY32.dll
 0003:00000ff0       __imp_SSL_get_peer_certificate 00069ff0     ssleay32:SSLEAY32.dll
 0003:00000ff4       __imp_PEM_write_bio_SSL_SESSION 00069ff4     ssleay32:SSLEAY32.dll
 0003:00000ff8       __imp_SSL_library_init     00069ff8     ssleay32:SSLEAY32.dll
 0003:00000ffc       __imp_TLSv1_server_method  00069ffc     ssleay32:SSLEAY32.dll
 0003:00001000       __imp_SSLv2_server_method  0006a000     ssleay32:SSLEAY32.dll
 0003:00001004       __imp_SSLv3_server_method  0006a004     ssleay32:SSLEAY32.dll
 0003:00001008       __imp_TLSv1_1_server_method 0006a008     ssleay32:SSLEAY32.dll
 0003:0000100c       __imp_TLSv1_2_server_method 0006a00c     ssleay32:SSLEAY32.dll
 0003:00001010       __imp_DTLSv1_server_method 0006a010     ssleay32:SSLEAY32.dll
 0003:00001014       __imp_SSL_CTX_new          0006a014     ssleay32:SSLEAY32.dll
 0003:00001018       __imp_SSL_CTX_set_generate_session_id 0006a018     ssleay32:SSLEAY32.dll
 0003:0000101c       __imp_SSL_CTX_set_quiet_shutdown 0006a01c     ssleay32:SSLEAY32.dll
 0003:00001020       __imp_SSL_CTX_set_info_callback 0006a020     ssleay32:SSLEAY32.dll
 0003:00001024       __imp_SSL_CTX_set_tlsext_use_srtp 0006a024     ssleay32:SSLEAY32.dll
 0003:00001028       __imp_SSL_CTX_load_verify_locations 0006a028     ssleay32:SSLEAY32.dll
 0003:0000102c       __imp_SSL_CTX_set_default_verify_paths 0006a02c     ssleay32:SSLEAY32.dll
 0003:00001030       __imp_SSL_CTX_set1_param   0006a030     ssleay32:SSLEAY32.dll
 0003:00001034       __imp_SSL_CTX_set_next_protos_advertised_cb 0006a034     ssleay32:SSLEAY32.dll
 0003:00001038       __imp_SSL_CTX_set_tmp_rsa_callback 0006a038     ssleay32:SSLEAY32.dll
 0003:0000103c       __imp_SSL_CTX_set_psk_server_callback 0006a03c     ssleay32:SSLEAY32.dll
 0003:00001040       __imp_SSL_CTX_use_psk_identity_hint 0006a040     ssleay32:SSLEAY32.dll
 0003:00001044       __imp_SSL_CTX_set_cipher_list 0006a044     ssleay32:SSLEAY32.dll
 0003:00001048       __imp_SSL_CTX_set_verify   0006a048     ssleay32:SSLEAY32.dll
 0003:0000104c       __imp_SSL_CTX_set_session_id_context 0006a04c     ssleay32:SSLEAY32.dll
 0003:00001050       __imp_SSL_CTX_set_cookie_generate_cb 0006a050     ssleay32:SSLEAY32.dll
 0003:00001054       __imp_SSL_CTX_set_cookie_verify_cb 0006a054     ssleay32:SSLEAY32.dll
 0003:00001058       __imp_SSL_CTX_set_srp_cb_arg 0006a058     ssleay32:SSLEAY32.dll
 0003:0000105c       __imp_SSL_CTX_set_srp_username_callback 0006a05c     ssleay32:SSLEAY32.dll
 0003:00001060       __imp_SSL_load_client_CA_file 0006a060     ssleay32:SSLEAY32.dll
 0003:00001064       __imp_SSL_CTX_set_client_CA_list 0006a064     ssleay32:SSLEAY32.dll
 0003:00001068       __imp_SSL_CTX_free         0006a068     ssleay32:SSLEAY32.dll
 0003:0000106c       __imp_SSL_CTX_callback_ctrl 0006a06c     ssleay32:SSLEAY32.dll
 0003:00001070       __imp_SSL_clear            0006a070     ssleay32:SSLEAY32.dll
 0003:00001074       __imp_SSL_version          0006a074     ssleay32:SSLEAY32.dll
 0003:00001078       __imp_SSL_pending          0006a078     ssleay32:SSLEAY32.dll
 0003:0000107c       __imp_SSL_set_verify       0006a07c     ssleay32:SSLEAY32.dll
 0003:00001080       __imp_SSL_do_handshake     0006a080     ssleay32:SSLEAY32.dll
 0003:00001084       __imp_SSL_get_wbio         0006a084     ssleay32:SSLEAY32.dll
 0003:00001088       __imp_SSL_state            0006a088     ssleay32:SSLEAY32.dll
 0003:0000108c       __imp_SSL_read             0006a08c     ssleay32:SSLEAY32.dll
 0003:00001090       __imp_SSL_free             0006a090     ssleay32:SSLEAY32.dll
 0003:00001094       __imp_SSL_has_matching_session_id 0006a094     ssleay32:SSLEAY32.dll
 0003:00001098       __imp_BIO_f_ssl            0006a098     ssleay32:SSLEAY32.dll
 0003:0000109c       __imp_SSL_new              0006a09c     ssleay32:SSLEAY32.dll
 0003:000010a0       __imp_SSL_callback_ctrl    0006a0a0     ssleay32:SSLEAY32.dll
 0003:000010a4       __imp_SSL_set_session_id_context 0006a0a4     ssleay32:SSLEAY32.dll
 0003:000010a8       __imp_SSL_set_bio          0006a0a8     ssleay32:SSLEAY32.dll
 0003:000010ac       __imp_SSL_set_accept_state 0006a0ac     ssleay32:SSLEAY32.dll
 0003:000010b0       __imp_SSL_set_debug        0006a0b0     ssleay32:SSLEAY32.dll
 0003:000010b4       __imp_SSL_get_rbio         0006a0b4     ssleay32:SSLEAY32.dll
 0003:000010b8       __imp_SSL_set_msg_callback 0006a0b8     ssleay32:SSLEAY32.dll
 0003:000010bc       __imp_SSL_renegotiate      0006a0bc     ssleay32:SSLEAY32.dll
 0003:000010c0       __imp_SSL_write            0006a0c0     ssleay32:SSLEAY32.dll
 0003:000010c4       __imp_SSL_get_ciphers      0006a0c4     ssleay32:SSLEAY32.dll
 0003:000010c8       __imp_SSL_CIPHER_get_version 0006a0c8     ssleay32:SSLEAY32.dll
 0003:000010cc       __imp_SSL_SESSION_print    0006a0cc     ssleay32:SSLEAY32.dll
 0003:000010d0       __imp_SSL_set_shutdown     0006a0d0     ssleay32:SSLEAY32.dll
 0003:000010d4       __imp_SSL_accept           0006a0d4     ssleay32:SSLEAY32.dll
 0003:000010d8       __imp_SSL_get_error        0006a0d8     ssleay32:SSLEAY32.dll
 0003:000010dc       __imp_SSL_get_verify_result 0006a0dc     ssleay32:SSLEAY32.dll
 0003:000010e0       __imp_SSL_get_session      0006a0e0     ssleay32:SSLEAY32.dll
 0003:000010e4       __imp_SSL_load_error_strings 0006a0e4     ssleay32:SSLEAY32.dll
 0003:000010e8       \177SSLEAY32_NULL_THUNK_DATA 0006a0e8     ssleay32:SSLEAY32.dll
 0003:000010ec       __imp_accept               0006a0ec     winsock:WINSOCK.dll
 0003:000010f0       __imp_gethostbyaddr        0006a0f0     winsock:WINSOCK.dll
 0003:000010f4       __imp_gethostbyname        0006a0f4     winsock:WINSOCK.dll
 0003:000010f8       __imp_ntohs                0006a0f8     winsock:WINSOCK.dll
 0003:000010fc       __imp_bind                 0006a0fc     winsock:WINSOCK.dll
 0003:00001100       __imp_listen               0006a100     winsock:WINSOCK.dll
 0003:00001104       __imp_htons                0006a104     winsock:WINSOCK.dll
 0003:00001108       __imp_htonl                0006a108     winsock:WINSOCK.dll
 0003:0000110c       __imp_socket               0006a10c     winsock:WINSOCK.dll
 0003:00001110       __imp_setsockopt           0006a110     winsock:WINSOCK.dll
 0003:00001114       __imp_closesocket          0006a114     winsock:WINSOCK.dll
 0003:00001118       __imp_shutdown             0006a118     winsock:WINSOCK.dll
 0003:0000111c       __imp_connect              0006a11c     winsock:WINSOCK.dll
 0003:00001120       __imp_WSAStartup           0006a120     winsock:WINSOCK.dll
 0003:00001124       __imp_getsockname          0006a124     winsock:WINSOCK.dll
 0003:00001128       __imp_select               0006a128     winsock:WINSOCK.dll
 0003:0000112c       __imp___WSAFDIsSet         0006a12c     winsock:WINSOCK.dll
 0003:00001130       \177WINSOCK_NULL_THUNK_DATA 0006a130     winsock:WINSOCK.dll
 0003:00001134       __imp_WSAGetLastError      0006a134     Ws2:WS2.dll
 0003:00001138       \177WS2_NULL_THUNK_DATA    0006a138     Ws2:WS2.dll
 0003:0000113c       __xc_a                     0006a13c     corelibc:crt0init.obj
 0003:00001140       __xc_z                     0006a140     corelibc:crt0init.obj
 0003:00001144       __xi_a                     0006a144     corelibc:crt0init.obj
 0003:00001148       __xi_z                     0006a148     corelibc:crt0init.obj
 0003:0000114c       __xp_a                     0006a14c     corelibc:crt0init.obj
 0003:00001150       __xp_z                     0006a150     corelibc:crt0init.obj
 0003:00001154       __xt_a                     0006a154     corelibc:crt0init.obj
 0003:00001158       __xt_z                     0006a158     corelibc:crt0init.obj
 0003:00002f90       functions                  0006bf90     openssl.obj
 0003:00005578       psk_key                    0006e578     s_server.obj
 0003:000055b8       s_crlf                     0006e5b8     s_server.obj
 0003:000055e8       srtp_profiles              0006e5e8     s_client.obj
 0003:00005cc4       run                        0006ecc4     speed.obj
 0003:0000811c       cookie_initialized         0007111c     s_cb.obj
 0003:00008120       verify_return_error        00071120     s_cb.obj
 0003:00008124       verify_error               00071124     s_cb.obj
 0003:00008128       verify_depth               00071128     s_cb.obj
 0003:00008534       verify_err                 00071534     cms.obj
 0003:000089f0       bio_err                    000719f0     openssl.obj
 0003:000089f4       config                     000719f4     openssl.obj
 0003:000089f8       default_config_file        000719f8     openssl.obj
 0003:000089fc       _fmode                     000719fc     wcecompatex:stdlib_extras.obj
 0003:00008a00       _environ                   00071a00     wcecompatex:env.obj
 0003:00008a04       _wenviron                  00071a04     wcecompatex:env.obj
 0003:00008a08       ?num_env_vars@@3HA         00071a08     wcecompatex:env.obj
 0003:00008a4c       errno                      00071a4c     wcecompatex:errno.obj
 0003:00008a60       ?_timezone@@3HA            00071a60     wcecompatex:timeb.obj
 0003:00008a64       ?altzone@@3HA              00071a64     wcecompatex:timeb.obj
 0003:00008a68       ?timezone@@3HA             00071a68     wcecompatex:timeb.obj
 0003:00008a6c       enc                        00071a6c     <common>
 0003:00008a70       cookie_secret              00071a70     <common>
 0003:00008a80       __onexitend                00071a80     <common>
 0003:00008a84       __onexitbegin              00071a84     <common>
 0003:00008a88       _exitflag                  00071a88     <common>

 entry point at        0001:0003fa90

 Static symbols

 0001:00000000       check                      00011000 f   verify.obj
 0001:00000138       cb                         00011138 f   verify.obj
 0001:000008a4       do_generate                000118a4 f   asn1pars.obj
 0001:000012e8       auto_info                  000122e8 f   req.obj
 0001:0000145c       set_keygen_ctx             0001245c f   req.obj
 0001:000017d4       genpkey_cb                 000127d4 f   req.obj
 0001:00001860       do_sign_init               00012860 f   req.obj
 0001:00001a98       add_DN_object              00012a98 f   req.obj
 0001:00001cc0       add_attribute_object       00012cc0 f   req.obj
 0001:00001ee8       prompt_info                00012ee8 f   req.obj
 0001:0000245c       make_REQ                   0001345c f   req.obj
 0001:000042e4       list_md_fn                 000152e4 f   dgst.obj
 0001:00005c04       dh_cb                      00016c04 f   dhparam.obj
 0001:0000679c       show_ciphers               0001779c f   enc.obj
 0001:00007b58       md5crypt                   00018b58 f   passwd.obj
 0001:00008060       do_passwd                  00019060 f   passwd.obj
 0001:00008b50       dh_cb                      00019b50 f   gendh.obj
 0001:000090dc       get_certificate_status     0001a0dc f   ca.obj
 0001:000092f0       do_updatedb                0001a2f0 f   ca.obj
 0001:000099ec       do_body                    0001a9ec f   ca.obj
 0001:0000a824       certify_spkac              0001b824 f   ca.obj
 0001:0000abb8       do_revoke                  0001bbb8 f   ca.obj
 0001:0000b054       certify                    0001c054 f   ca.obj
 0001:0000b2a8       certify_cert               0001c2a8 f   ca.obj
 0001:0000e2a4       add_certs_from_file        0001f2a4 f   crl2p7.obj
 0001:0000e8e0       load_crl                   0001f8e0 f   crl.obj
 0001:0000fdf8       usage                      00020df8 f   rsautl.obj
 0001:00011050       dsa_cb                     00022050 f   dsaparam.obj
 0001:000123cc       ecparam_print_var          000233cc f   ecparam.obj
 0001:000135d4       x509_load_serial           000245d4 f   x509.obj
 0001:0001372c       x509_certify               0002472c f   x509.obj
 0001:00013970       callb                      00024970 f   x509.obj
 0001:00013a20       sign                       00024a20 f   x509.obj
 0001:00013b94       purpose_print              00024b94 f   x509.obj
 0001:00015c78       genrsa_cb                  00026c78 f   genrsa.obj
 0001:00016a3c       init_keygen_file           00027a3c f   genpkey.obj
 0001:00016c9c       genpkey_cb                 00027c9c f   genpkey.obj
 0001:00017330       psk_server_cb              00028330 f   s_server.obj
 0001:00017518       ssl_srp_server_param_cb    00028518 f   s_server.obj
 0001:00017608       sv_usage                   00028608 f   s_server.obj
 0001:00017b0c       ssl_servername_cb          00028b0c f   s_server.obj
 0001:00017bb4       cert_status_cb             00028bb4 f   s_server.obj
 0001:00017ef0       next_proto_cb              00028ef0 f   s_server.obj
 0001:00017f10       print_stats                00028f10 f   s_server.obj
 0001:00018120       init_ssl_connection        00029120 f   s_server.obj
 0001:0001852c       www_body                   0002952c f   s_server.obj
 0001:00018f4c       tmp_rsa_cb                 00029f4c f   s_server.obj
 0001:00019068       generate_session_id        0002a068 f   s_server.obj
 0001:000190f8       sv_body                    0002a0f8 f   s_server.obj
 0001:0001b8dc       psk_client_cb              0002c8dc f   s_client.obj
 0001:0001bac4       sc_usage                   0002cac4 f   s_client.obj
 0001:0001bee4       ssl_servername_cb          0002cee4 f   s_client.obj
 0001:0001bf68       srp_Verify_N_and_g         0002cf68 f   s_client.obj
 0001:0001c0a4       ssl_srp_verify_param_cb    0002d0a4 f   s_client.obj
 0001:0001c1d4       ssl_give_srp_client_pwd_cb 0002d1d4 f   s_client.obj
 0001:0001c26c       next_proto_cb              0002d26c f   s_client.obj
 0001:0001c348       print_stuff                0002d348 f   s_client.obj
 0001:0001c9bc       ocsp_resp_cb               0002d9bc f   s_client.obj
 0001:0001f36c       sleepy                     0003036c f   speed.obj
 0001:0001f39c       Time_F                     0003039c f   speed.obj
 0001:0001f458       KDF1_SHA1                  00030458 f   speed.obj
 0001:0001f484       print_message              00030484 f   speed.obj
 0001:0001f4f8       pkey_print_message         000304f8 f   speed.obj
 0001:0001f578       print_result               00030578 f   speed.obj
 0001:00023d04       parseArgs                  00034d04 f   s_time.obj
 0001:000240f8       doConnection               000350f8 f   s_time.obj
 0001:00024f04       ui_open                    00035f04 f   apps.obj
 0001:00024f2c       ui_read                    00035f2c f   apps.obj
 0001:00024fc8       ui_write                   00035fc8 f   apps.obj
 0001:00025050       ui_close                   00036050 f   apps.obj
 0001:00025338       app_get_pass               00036338 f   apps.obj
 0001:000255c0       load_pkcs12                000365c0 f   apps.obj
 0001:000258ec       load_netscape_key          000368ec f   apps.obj
 0001:000259f8       load_certs_crls            000369f8 f   apps.obj
 0001:000262d4       index_name_qual            000372d4 f   apps.obj
 0001:00026304       index_serial_LHASH_HASH    00037304 f   apps.obj
 0001:0002632c       index_serial_LHASH_COMP    0003732c f   apps.obj
 0001:0002636c       index_name_LHASH_HASH      0003736c f   apps.obj
 0001:00026380       index_name_LHASH_COMP      00037380 f   apps.obj
 0001:00027124       nodes_print                00038124 f   apps.obj
 0001:00027328       WIN32_rename               00038328 f   apps.obj
 0001:00027c54       set_multi_opts             00038c54 f   apps.obj
 0001:00029520       ssl_sock_init              0003a520 f   s_socket.obj
 0001:000295a0       init_client_ip             0003a5a0 f   s_socket.obj
 0001:00029744       GetHostByName              0003a744 f   s_socket.obj
 0001:00029848       do_accept                  0003a848 f   s_socket.obj
 0001:000299b4       host_ip                    0003a9b4 f   s_socket.obj
 0001:0002a2fc       load_sess_id               0003b2fc f   sess_id.obj
 0001:0002de04       usage                      0003ee04 f   pkeyutl.obj
 0001:0002df38       init_ctx                   0003ef38 f   pkeyutl.obj
 0001:0002e178       setup_peer                 0003f178 f   pkeyutl.obj
 0001:0002e234       do_keyop                   0003f234 f   pkeyutl.obj
 0001:0002f300       smime_cb                   00040300 f   smime.obj
 0001:00030c04       save_certs                 00041c04 f   cms.obj
 0001:00030c84       cms_cb                     00041c84 f   cms.obj
 0001:00030cd4       gnames_stack_print         00041cd4 f   cms.obj
 0001:00030d80       receipt_request_print      00041d80 f   cms.obj
 0001:00030f30       make_names_stack           00041f30 f   cms.obj
 0001:00033a58       identity                   00044a58 f   engine.obj
 0001:00033a5c       append_buf                 00044a5c f   engine.obj
 0001:00033b34       util_flags                 00044b34 f   engine.obj
 0001:00033c60       util_verbose               00044c60 f   engine.obj
 0001:00033f60       util_do_cmds               00044f60 f   engine.obj
 0001:00034768       add_ocsp_serial            00045768 f   ocsp.obj
 0001:00034868       print_ocsp_summary         00045868 f   ocsp.obj
 0001:00034a54       lookup_serial              00045a54 f   ocsp.obj
 0001:00034b08       do_responder               00045b08 f   ocsp.obj
 0001:00034c3c       send_ocsp_response         00045c3c f   ocsp.obj
 0001:00034cc0       query_responder            00045cc0 f   ocsp.obj
 0001:00035078       make_ocsp_response         00046078 f   ocsp.obj
 0001:000370fc       load_config_file           000480fc f   ts.obj
 0001:0003723c       create_digest              0004823c f   ts.obj
 0001:0003734c       create_nonce               0004834c f   ts.obj
 0001:00037434       read_PKCS7                 00048434 f   ts.obj
 0001:000374fc       verify_cb                  000484fc f   ts.obj
 0001:00037500       create_query               00048500 f   ts.obj
 0001:00037710       serial_cb                  00048710 f   ts.obj
 0001:000378b8       create_cert_store          000488b8 f   ts.obj
 0001:000379b4       query_command              000489b4 f   ts.obj
 0001:00037b20       create_response            00048b20 f   ts.obj
 0001:00037d08       create_verify_ctx          00048d08 f   ts.obj
 0001:00037e7c       reply_command              00048e7c f   ts.obj
 0001:00038054       verify_command             00049054 f   ts.obj
 0001:00038a18       get_index                  00049a18 f   srp.obj
 0001:00038b04       print_entry                00049b04 f   srp.obj
 0001:00038b80       print_user                 00049b80 f   srp.obj
 0001:00038c20       update_index               00049c20 f   srp.obj
 0001:00038cf0       srp_verify_user            00049cf0 f   srp.obj
 0001:00038e08       srp_create_user            00049e08 f   srp.obj
 0001:00039fe8       lock_dbg_cb                0004afe8 f   openssl.obj
 0001:0003a0e4       SortFnByName               0004b0e4 f   openssl.obj
 0001:0003a114       list_pkey                  0004b114 f   openssl.obj
 0001:0003a234       list_cipher_fn             0004b234 f   openssl.obj
 0001:0003a2a0       list_md_fn                 0004b2a0 f   openssl.obj
 0001:0003a30c       function_LHASH_COMP        0004b30c f   openssl.obj
 0001:0003a328       function_LHASH_HASH        0004b328 f   openssl.obj
 0001:0003a33c       do_cmd                     0004b33c f   openssl.obj
 0001:0003ef00       cmp64                      0004ff00 f   wcecompatex:time.obj
 0001:0003ef4c       topBit                     0004ff4c f   wcecompatex:time.obj
 0001:0003f0d8       div64                      000500d8 f   wcecompatex:time.obj
 0001:0003f96c       doexit                     0005096c f   corelibc:crt0dat.obj
 0001:0003fb38       ?getCmdLineArg@@YA?AW4ArgType@@PAPA_WPA_WHPAURedirArg@@PA_N@Z 00050b38 f   wcecompatex:args.obj
 0001:0003fe64       ?qsort_stricmp@@YAHPBX0@Z  00050e64 f   wcecompatex:args.obj
